	.text
	.file	"timecode.c"
	.file	0 "/home/yjs/workspace/x264-test/src" "x264_src/input/timecode.c" md5 0x38d56a1630a2a8343c423fb69854a920
	.file	1 "x264_src" "muxers.h" md5 0xbcea0820748b2dc47392b7f6393a96ff
	.file	2 "x264_src/input" "input.h" md5 0xf28c863d273681dfcaca9779e9fcbd53
	.file	3 "/usr/include/x86_64-linux-gnu/bits" "types.h" md5 0xd108b5f93a74c50510d7d9bc0ab36df9
	.file	4 "/usr/include/x86_64-linux-gnu/bits" "stdint-uintn.h" md5 0x2bf2ae53c58c01b1a1b9383b5195125c
	.file	5 "x264_src" "x264.h" md5 0x0b04871e4f52d5a4d8833c501cba2584
	.file	6 "/usr/include/x86_64-linux-gnu/bits" "stdint-intn.h" md5 0x55bcbdc3159515ebd91d351a70d505f4
	.section	.rodata.cst8,"aM",@progbits,8
	.p2align	3, 0x0                          # -- Begin function open_file
.LCPI0_0:
	.quad	0x3f50624dd2f1a9fc              # double 0.001
.LCPI0_1:
	.quad	0x3ff0000000000000              # double 1
.LCPI0_2:
	.quad	0x4024000000000000              # double 10
.LCPI0_5:
	.quad	0x43e0000000000000              # double 9.2233720368547758E+18
.LCPI0_7:
	.quad	0x3ed4f8b588e368f1              # double 5.0000000000000004E-6
.LCPI0_8:
	.quad	0x41cdcd6500000000              # double 1.0E+9
.LCPI0_9:
	.quad	0x3fe0000000000000              # double 0.5
.LCPI0_14:
	.quad	0x0000000000000000              # double 0
	.section	.rodata.cst16,"aM",@progbits,16
	.p2align	4, 0x0
.LCPI0_3:
	.long	1127219200                      # 0x43300000
	.long	1160773632                      # 0x45300000
	.long	0                               # 0x0
	.long	0                               # 0x0
.LCPI0_4:
	.quad	0x4330000000000000              # double 4503599627370496
	.quad	0x4530000000000000              # double 1.9342813113834067E+25
.LCPI0_6:
	.quad	0x7fffffffffffffff              # double NaN
	.quad	0x7fffffffffffffff              # double NaN
.LCPI0_10:
	.quad	4294967295                      # 0xffffffff
	.quad	4294967295                      # 0xffffffff
.LCPI0_11:
	.quad	4841369599423283200             # 0x4330000000000000
	.quad	4841369599423283200             # 0x4330000000000000
.LCPI0_12:
	.quad	4985484787499139072             # 0x4530000000000000
	.quad	4985484787499139072             # 0x4530000000000000
.LCPI0_13:
	.quad	0x4530000000100000              # double 1.9342813118337666E+25
	.quad	0x4530000000100000              # double 1.9342813118337666E+25
	.text
	.p2align	4, 0x90
	.type	open_file,@function
open_file:                              # @open_file
.Lfunc_begin0:
	.loc	0 385 0                         # x264_src/input/timecode.c:385:0
	.cfi_startproc
# %bb.0:                                # %entry
	#DEBUG_VALUE: open_file:psz_filename <- $rdi
	#DEBUG_VALUE: open_file:p_handle <- $rsi
	#DEBUG_VALUE: open_file:info <- $rdx
	#DEBUG_VALUE: open_file:opt <- $rcx
	pushq	%rbp
	.cfi_def_cfa_offset 16
	pushq	%r15
	.cfi_def_cfa_offset 24
	pushq	%r14
	.cfi_def_cfa_offset 32
	pushq	%r13
	.cfi_def_cfa_offset 40
	pushq	%r12
	.cfi_def_cfa_offset 48
	pushq	%rbx
	.cfi_def_cfa_offset 56
	subq	$392, %rsp                      # imm = 0x188
	.cfi_def_cfa_offset 448
	.cfi_offset %rbx, -56
	.cfi_offset %r12, -48
	.cfi_offset %r13, -40
	.cfi_offset %r14, -32
	.cfi_offset %r15, -24
	.cfi_offset %rbp, -16
	movq	%rcx, %r12
	movq	%rdx, %rbx
	movq	%rsi, %r14
	movq	%rdi, %r15
.Ltmp0:
	#DEBUG_VALUE: open_file:ret <- 0
	.loc	0 388 25 prologue_end           # x264_src/input/timecode.c:388:25
	movl	$128, %edi
.Ltmp1:
	#DEBUG_VALUE: open_file:psz_filename <- $r15
	callq	malloc@PLT
.Ltmp2:
	#DEBUG_VALUE: open_file:opt <- $r12
	#DEBUG_VALUE: open_file:info <- $rbx
	#DEBUG_VALUE: open_file:p_handle <- $r14
	#DEBUG_VALUE: open_file:h <- $rax
	.loc	0 389 10                        # x264_src/input/timecode.c:389:10
	testq	%rax, %rax
.Ltmp3:
	.loc	0 389 9 is_stmt 0               # x264_src/input/timecode.c:389:9
	je	.LBB0_96
.Ltmp4:
# %bb.1:                                # %if.end
	#DEBUG_VALUE: open_file:psz_filename <- $r15
	#DEBUG_VALUE: open_file:p_handle <- $r14
	#DEBUG_VALUE: open_file:info <- $rbx
	#DEBUG_VALUE: open_file:opt <- $r12
	#DEBUG_VALUE: open_file:ret <- 0
	#DEBUG_VALUE: open_file:h <- $rax
	.loc	0 0 0                           # x264_src/input/timecode.c:0:0
	movq	%rax, %rbp
	.loc	0 394 16 is_stmt 1              # x264_src/input/timecode.c:394:16
	movq	input@GOTPCREL(%rip), %rax
.Ltmp5:
	#DEBUG_VALUE: open_file:h <- $rbp
	movq	48(%rax), %rcx
	movq	%rcx, 48(%rbp)
	movupd	(%rax), %xmm0
	movupd	16(%rax), %xmm1
	movupd	32(%rax), %xmm2
	movupd	%xmm2, 32(%rbp)
	movupd	%xmm1, 16(%rbp)
	movupd	%xmm0, (%rbp)
	.loc	0 395 19                        # x264_src/input/timecode.c:395:19
	movq	(%r14), %rdi
	.loc	0 395 17 is_stmt 0              # x264_src/input/timecode.c:395:17
	movq	%rdi, 56(%rbp)
	.loc	0 396 22 is_stmt 1              # x264_src/input/timecode.c:396:22
	callq	*8(%rax)
.Ltmp6:
	.loc	0 396 20 is_stmt 0              # x264_src/input/timecode.c:396:20
	movl	%eax, 64(%rbp)
	.loc	0 397 20 is_stmt 1              # x264_src/input/timecode.c:397:20
	movl	24(%r12), %eax
	.loc	0 397 13 is_stmt 0              # x264_src/input/timecode.c:397:13
	movl	%eax, 96(%rbp)
.Ltmp7:
	.loc	0 398 14 is_stmt 1              # x264_src/input/timecode.c:398:14
	movq	16(%r12), %rdi
	.loc	0 398 9 is_stmt 0               # x264_src/input/timecode.c:398:9
	testq	%rdi, %rdi
	movq	%rbp, 16(%rsp)                  # 8-byte Spill
.Ltmp8:
	#DEBUG_VALUE: open_file:h <- [DW_OP_plus_uconst 16, DW_OP_deref] $rsp
	.loc	0 0 9                           # x264_src/input/timecode.c:0:9
	movq	%rbx, 96(%rsp)                  # 8-byte Spill
.Ltmp9:
	#DEBUG_VALUE: open_file:info <- [DW_OP_plus_uconst 96] [$rsp+0]
	.loc	0 398 9                         # x264_src/input/timecode.c:398:9
	je	.LBB0_4
.Ltmp10:
# %bb.2:                                # %if.then7
	#DEBUG_VALUE: open_file:psz_filename <- $r15
	#DEBUG_VALUE: open_file:p_handle <- $r14
	#DEBUG_VALUE: open_file:info <- [DW_OP_plus_uconst 96] [$rsp+0]
	#DEBUG_VALUE: open_file:opt <- $r12
	#DEBUG_VALUE: open_file:ret <- 0
	#DEBUG_VALUE: open_file:h <- [DW_OP_plus_uconst 16, DW_OP_deref] $rsp
	.loc	0 0 9                           # x264_src/input/timecode.c:0:9
	movq	%r15, %rbx
.Ltmp11:
	#DEBUG_VALUE: open_file:psz_filename <- $rbx
	.loc	0 400 63 is_stmt 1              # x264_src/input/timecode.c:400:63
	leaq	80(%rbp), %r15
	.loc	0 400 81 is_stmt 0              # x264_src/input/timecode.c:400:81
	leaq	88(%rbp), %r13
	.loc	0 400 15                        # x264_src/input/timecode.c:400:15
	movl	$.L.str.1, %esi
	movq	%r15, %rdx
	movq	%r13, %rcx
	xorl	%eax, %eax
	callq	__isoc99_sscanf@PLT
.Ltmp12:
	movl	%eax, %ebp
.Ltmp13:
	#DEBUG_VALUE: open_file:ret <- $ebp
	.loc	0 401 17 is_stmt 1              # x264_src/input/timecode.c:401:17
	cmpl	$1, %eax
.Ltmp14:
	.loc	0 401 13 is_stmt 0              # x264_src/input/timecode.c:401:13
	jne	.LBB0_5
.Ltmp15:
# %bb.3:                                # %if.then10
	#DEBUG_VALUE: open_file:psz_filename <- $rbx
	#DEBUG_VALUE: open_file:p_handle <- $r14
	#DEBUG_VALUE: open_file:info <- [DW_OP_plus_uconst 96] [$rsp+0]
	#DEBUG_VALUE: open_file:opt <- $r12
	#DEBUG_VALUE: open_file:ret <- $ebp
	#DEBUG_VALUE: open_file:h <- [DW_OP_plus_uconst 16, DW_OP_deref] $rsp
	.loc	0 402 45 is_stmt 1              # x264_src/input/timecode.c:402:45
	movq	16(%r12), %rdi
	.loc	0 402 31 is_stmt 0              # x264_src/input/timecode.c:402:31
	xorl	%esi, %esi
	movl	$10, %edx
	callq	strtoul@PLT
.Ltmp16:
	.loc	0 402 29                        # x264_src/input/timecode.c:402:29
	movq	%rax, (%r15)
.Ltmp17:
	.loc	0 403 29 is_stmt 1              # x264_src/input/timecode.c:403:29
	shrq	$32, %rax
	.loc	0 403 42 is_stmt 0              # x264_src/input/timecode.c:403:42
	je	.LBB0_6
	jmp	.LBB0_95
.Ltmp18:
.LBB0_4:                                # %if.end22.thread
	#DEBUG_VALUE: open_file:psz_filename <- $r15
	#DEBUG_VALUE: open_file:p_handle <- $r14
	#DEBUG_VALUE: open_file:info <- [DW_OP_plus_uconst 96] [$rsp+0]
	#DEBUG_VALUE: open_file:opt <- $r12
	#DEBUG_VALUE: open_file:ret <- 0
	#DEBUG_VALUE: open_file:h <- [DW_OP_plus_uconst 16, DW_OP_deref] $rsp
	#DEBUG_VALUE: open_file:ret <- 0
	.loc	0 409 8 is_stmt 1               # x264_src/input/timecode.c:409:8
	leaq	68(%rbp), %rax
	movq	%rax, 88(%rsp)                  # 8-byte Spill
	movabsq	$4294967297, %rax               # imm = 0x100000001
	.loc	0 409 26 is_stmt 0              # x264_src/input/timecode.c:409:26
	movq	%rax, 68(%rbp)
	.loc	0 410 8 is_stmt 1               # x264_src/input/timecode.c:410:8
	leaq	72(%rbp), %rax
	movq	%rax, 40(%rsp)                  # 8-byte Spill
	movl	$1, %eax
	.loc	0 411 9                         # x264_src/input/timecode.c:411:9
	jmp	.LBB0_8
.Ltmp19:
.LBB0_5:                                # %if.end14thread-pre-split
	#DEBUG_VALUE: open_file:psz_filename <- $rbx
	#DEBUG_VALUE: open_file:p_handle <- $r14
	#DEBUG_VALUE: open_file:info <- [DW_OP_plus_uconst 96] [$rsp+0]
	#DEBUG_VALUE: open_file:opt <- $r12
	#DEBUG_VALUE: open_file:ret <- $ebp
	#DEBUG_VALUE: open_file:h <- [DW_OP_plus_uconst 16, DW_OP_deref] $rsp
	.loc	0 403 16                        # x264_src/input/timecode.c:403:16
	movq	(%r15), %rax
	.loc	0 403 29 is_stmt 0              # x264_src/input/timecode.c:403:29
	shrq	$32, %rax
	.loc	0 403 42                        # x264_src/input/timecode.c:403:42
	jne	.LBB0_95
.Ltmp20:
.LBB0_6:                                # %lor.lhs.false
	#DEBUG_VALUE: open_file:psz_filename <- $rbx
	#DEBUG_VALUE: open_file:p_handle <- $r14
	#DEBUG_VALUE: open_file:info <- [DW_OP_plus_uconst 96] [$rsp+0]
	#DEBUG_VALUE: open_file:opt <- $r12
	#DEBUG_VALUE: open_file:ret <- $ebp
	#DEBUG_VALUE: open_file:h <- [DW_OP_plus_uconst 16, DW_OP_deref] $rsp
	.loc	0 403 61                        # x264_src/input/timecode.c:403:61
	cmpl	$0, 4(%r13)
.Ltmp21:
	.loc	0 403 13                        # x264_src/input/timecode.c:403:13
	jne	.LBB0_95
.Ltmp22:
# %bb.7:                                # %if.end22
	#DEBUG_VALUE: open_file:psz_filename <- $rbx
	#DEBUG_VALUE: open_file:p_handle <- $r14
	#DEBUG_VALUE: open_file:info <- [DW_OP_plus_uconst 96] [$rsp+0]
	#DEBUG_VALUE: open_file:opt <- $r12
	#DEBUG_VALUE: open_file:ret <- $ebp
	#DEBUG_VALUE: open_file:h <- [DW_OP_plus_uconst 16, DW_OP_deref] $rsp
	#DEBUG_VALUE: open_file:ret <- $ebp
	.loc	0 0 13                          # x264_src/input/timecode.c:0:13
	movq	16(%rsp), %rdx                  # 8-byte Reload
	.loc	0 409 8 is_stmt 1               # x264_src/input/timecode.c:409:8
	leaq	68(%rdx), %rax
	movq	%rax, 88(%rsp)                  # 8-byte Spill
	.loc	0 410 32                        # x264_src/input/timecode.c:410:32
	xorl	%eax, %eax
	cmpl	$2, %ebp
	setl	%al
	.loc	0 410 8 is_stmt 0               # x264_src/input/timecode.c:410:8
	leaq	72(%rdx), %rcx
	movq	%rcx, 40(%rsp)                  # 8-byte Spill
	.loc	0 409 28 is_stmt 1              # x264_src/input/timecode.c:409:28
	xorl	%ecx, %ecx
	testl	%ebp, %ebp
	movq	%rdx, %rbp
.Ltmp23:
	sete	%cl
	.loc	0 409 26 is_stmt 0              # x264_src/input/timecode.c:409:26
	movl	%ecx, 68(%rdx)
	.loc	0 410 26 is_stmt 1              # x264_src/input/timecode.c:410:26
	movl	%eax, 72(%rdx)
	movq	%rbx, %r15
.Ltmp24:
	#DEBUG_VALUE: open_file:psz_filename <- $r15
	.loc	0 0 26 is_stmt 0                # x264_src/input/timecode.c:0:26
	movq	96(%rsp), %rbx                  # 8-byte Reload
	.loc	0 411 9 is_stmt 1               # x264_src/input/timecode.c:411:9
	jne	.LBB0_9
.Ltmp25:
.LBB0_8:                                # %if.then27
	#DEBUG_VALUE: open_file:psz_filename <- $r15
	#DEBUG_VALUE: open_file:p_handle <- $r14
	#DEBUG_VALUE: open_file:info <- [DW_OP_plus_uconst 96] [$rsp+0]
	#DEBUG_VALUE: open_file:opt <- $r12
	#DEBUG_VALUE: open_file:h <- [DW_OP_plus_uconst 16, DW_OP_deref] $rsp
	.loc	0 412 33                        # x264_src/input/timecode.c:412:33
	movl	8(%rbx), %ecx
	.loc	0 412 25 is_stmt 0              # x264_src/input/timecode.c:412:25
	movq	%rcx, 80(%rbp)
.Ltmp26:
.LBB0_9:                                # %if.end30
	#DEBUG_VALUE: open_file:psz_filename <- $r15
	#DEBUG_VALUE: open_file:p_handle <- $r14
	#DEBUG_VALUE: open_file:info <- [DW_OP_plus_uconst 96] [$rsp+0]
	#DEBUG_VALUE: open_file:opt <- $r12
	#DEBUG_VALUE: open_file:h <- [DW_OP_plus_uconst 16, DW_OP_deref] $rsp
	.loc	0 413 9 is_stmt 1               # x264_src/input/timecode.c:413:9
	testl	%eax, %eax
.Ltmp27:
	.loc	0 413 9 is_stmt 0               # x264_src/input/timecode.c:413:9
	je	.LBB0_11
.Ltmp28:
# %bb.10:                               # %if.then33
	#DEBUG_VALUE: open_file:psz_filename <- $r15
	#DEBUG_VALUE: open_file:p_handle <- $r14
	#DEBUG_VALUE: open_file:info <- [DW_OP_plus_uconst 96] [$rsp+0]
	#DEBUG_VALUE: open_file:opt <- $r12
	#DEBUG_VALUE: open_file:h <- [DW_OP_plus_uconst 16, DW_OP_deref] $rsp
	.loc	0 414 25 is_stmt 1              # x264_src/input/timecode.c:414:25
	movq	$0, 88(%rbp)
.Ltmp29:
.LBB0_11:                               # %if.end35
	#DEBUG_VALUE: open_file:psz_filename <- $r15
	#DEBUG_VALUE: open_file:p_handle <- $r14
	#DEBUG_VALUE: open_file:info <- [DW_OP_plus_uconst 96] [$rsp+0]
	#DEBUG_VALUE: open_file:opt <- $r12
	#DEBUG_VALUE: open_file:h <- [DW_OP_plus_uconst 16, DW_OP_deref] $rsp
	.loc	0 415 45                        # x264_src/input/timecode.c:415:45
	movq	16(%rbp), %rax
	.loc	0 415 34 is_stmt 0              # x264_src/input/timecode.c:415:34
	movq	%rax, timecode_input+16(%rip)
	.loc	0 416 45 is_stmt 1              # x264_src/input/timecode.c:416:45
	movq	40(%rbp), %rax
	.loc	0 416 34 is_stmt 0              # x264_src/input/timecode.c:416:34
	movq	%rax, timecode_input+40(%rip)
	.loc	0 418 15 is_stmt 1              # x264_src/input/timecode.c:418:15
	movq	%rbp, (%r14)
	.loc	0 420 17                        # x264_src/input/timecode.c:420:17
	movl	$.L.str.3, %esi
	movq	%r15, %rdi
	callq	fopen64@PLT
.Ltmp30:
	#DEBUG_VALUE: open_file:tcfile_in <- $rax
	.loc	0 421 10                        # x264_src/input/timecode.c:421:10
	testq	%rax, %rax
.Ltmp31:
	.loc	0 421 9 is_stmt 0               # x264_src/input/timecode.c:421:9
	je	.LBB0_101
.Ltmp32:
# %bb.12:                               # %if.else
	#DEBUG_VALUE: open_file:psz_filename <- $r15
	#DEBUG_VALUE: open_file:p_handle <- $r14
	#DEBUG_VALUE: open_file:info <- [DW_OP_plus_uconst 96] [$rsp+0]
	#DEBUG_VALUE: open_file:opt <- $r12
	#DEBUG_VALUE: open_file:h <- [DW_OP_plus_uconst 16, DW_OP_deref] $rsp
	#DEBUG_VALUE: open_file:tcfile_in <- $rax
	.loc	0 0 0                           # x264_src/input/timecode.c:0:0
	movq	%rax, %r14
.Ltmp33:
	#DEBUG_VALUE: open_file:p_handle <- [DW_OP_LLVM_entry_value 1] $rsi
	#DEBUG_VALUE: end <- [DW_OP_deref] $rsp
	#DEBUG_VALUE: parse_tcfile:tcfile_in <- $r14
	#DEBUG_VALUE: parse_tcfile:h <- [DW_OP_plus_uconst 16, DW_OP_deref] $rsp
	#DEBUG_VALUE: parse_tcfile:info <- [DW_OP_plus_uconst 96, DW_OP_deref] $rsp
	#DEBUG_VALUE: parse_tcfile:timecodes <- 0
	#DEBUG_VALUE: parse_tcfile:fpss <- 0
	leaq	108(%rsp), %rdx
.Ltmp34:
	.loc	0 112 11 is_stmt 1              # x264_src/input/timecode.c:112:11
	movl	$.L.str.6, %esi
	movq	%rax, %rdi
	xorl	%eax, %eax
.Ltmp35:
	#DEBUG_VALUE: open_file:tcfile_in <- $r14
	callq	__isoc99_fscanf@PLT
.Ltmp36:
	#DEBUG_VALUE: parse_tcfile:ret <- $eax
	.loc	0 113 13                        # x264_src/input/timecode.c:113:13
	cmpl	$1, %eax
	.loc	0 113 18 is_stmt 0              # x264_src/input/timecode.c:113:18
	jne	.LBB0_93
.Ltmp37:
# %bb.13:                               # %lor.lhs.false.i
	#DEBUG_VALUE: open_file:psz_filename <- $r15
	#DEBUG_VALUE: open_file:p_handle <- [DW_OP_LLVM_entry_value 1] $rsi
	#DEBUG_VALUE: open_file:info <- [DW_OP_plus_uconst 96] [$rsp+0]
	#DEBUG_VALUE: open_file:opt <- $r12
	#DEBUG_VALUE: open_file:h <- [DW_OP_plus_uconst 16, DW_OP_deref] $rsp
	#DEBUG_VALUE: open_file:tcfile_in <- $r14
	#DEBUG_VALUE: parse_tcfile:tcfile_in <- $r14
	#DEBUG_VALUE: parse_tcfile:h <- [DW_OP_plus_uconst 16, DW_OP_deref] $rsp
	#DEBUG_VALUE: parse_tcfile:info <- [DW_OP_plus_uconst 96, DW_OP_deref] $rsp
	#DEBUG_VALUE: parse_tcfile:timecodes <- 0
	#DEBUG_VALUE: parse_tcfile:fpss <- 0
	#DEBUG_VALUE: parse_tcfile:ret <- $eax
	.loc	0 113 22                        # x264_src/input/timecode.c:113:22
	movl	108(%rsp), %eax
.Ltmp38:
	.loc	0 113 32                        # x264_src/input/timecode.c:113:32
	leal	-3(%rax), %ecx
	cmpl	$-3, %ecx
	jbe	.LBB0_93
.Ltmp39:
# %bb.14:                               # %if.end.i
	#DEBUG_VALUE: open_file:psz_filename <- $r15
	#DEBUG_VALUE: open_file:p_handle <- [DW_OP_LLVM_entry_value 1] $rsi
	#DEBUG_VALUE: open_file:info <- [DW_OP_plus_uconst 96] [$rsp+0]
	#DEBUG_VALUE: open_file:opt <- $r12
	#DEBUG_VALUE: open_file:h <- [DW_OP_plus_uconst 16, DW_OP_deref] $rsp
	#DEBUG_VALUE: open_file:tcfile_in <- $r14
	#DEBUG_VALUE: parse_tcfile:tcfile_in <- $r14
	#DEBUG_VALUE: parse_tcfile:h <- [DW_OP_plus_uconst 16, DW_OP_deref] $rsp
	#DEBUG_VALUE: parse_tcfile:info <- [DW_OP_plus_uconst 96, DW_OP_deref] $rsp
	#DEBUG_VALUE: parse_tcfile:timecodes <- 0
	#DEBUG_VALUE: parse_tcfile:fpss <- 0
	.loc	0 119 14 is_stmt 1              # x264_src/input/timecode.c:119:14
	cmpl	$1, %eax
.Ltmp40:
	.loc	0 119 9 is_stmt 0               # x264_src/input/timecode.c:119:9
	jne	.LBB0_38
.Ltmp41:
# %bb.15:                               # %if.then5.i
	#DEBUG_VALUE: open_file:psz_filename <- $r15
	#DEBUG_VALUE: open_file:p_handle <- [DW_OP_LLVM_entry_value 1] $rsi
	#DEBUG_VALUE: open_file:info <- [DW_OP_plus_uconst 96] [$rsp+0]
	#DEBUG_VALUE: open_file:opt <- $r12
	#DEBUG_VALUE: open_file:h <- [DW_OP_plus_uconst 16, DW_OP_deref] $rsp
	#DEBUG_VALUE: open_file:tcfile_in <- $r14
	#DEBUG_VALUE: parse_tcfile:tcfile_in <- $r14
	#DEBUG_VALUE: parse_tcfile:h <- [DW_OP_plus_uconst 16, DW_OP_deref] $rsp
	#DEBUG_VALUE: parse_tcfile:info <- [DW_OP_plus_uconst 96, DW_OP_deref] $rsp
	#DEBUG_VALUE: parse_tcfile:timecodes <- 0
	#DEBUG_VALUE: parse_tcfile:fpss <- 0
	.loc	0 123 29 is_stmt 1              # x264_src/input/timecode.c:123:29
	movl	96(%rbp), %eax
	.loc	0 123 20 is_stmt 0              # x264_src/input/timecode.c:123:20
	movl	%eax, (%rsp)
.Ltmp42:
	#DEBUG_VALUE: end <- [DW_OP_deref] $rsp
	#DEBUG_VALUE: prev_start <- -1
	#DEBUG_VALUE: prev_end <- -1
	.loc	0 126 12 is_stmt 1              # x264_src/input/timecode.c:126:12
	movq	%rbp, %rax
	addq	$112, %rax
	movq	%rax, 24(%rsp)                  # 8-byte Spill
	.loc	0 126 23 is_stmt 0              # x264_src/input/timecode.c:126:23
	movq	$0, 112(%rbp)
.Ltmp43:
	#DEBUG_VALUE: parse_tcfile:num <- 2
	.loc	0 0 23                          # x264_src/input/timecode.c:0:23
	leaq	128(%rsp), %rdi
.Ltmp44:
	.loc	0 127 23 is_stmt 1              # x264_src/input/timecode.c:127:23
	movl	$256, %esi                      # imm = 0x100
	movq	%r14, %rdx
	callq	fgets@PLT
.Ltmp45:
	.loc	0 0 23 is_stmt 0                # x264_src/input/timecode.c:0:23
	movl	$2, %r12d
.Ltmp46:
	#DEBUG_VALUE: open_file:opt <- [DW_OP_LLVM_entry_value 1] $rcx
	.loc	0 127 62                        # x264_src/input/timecode.c:127:62
	testq	%rax, %rax
.Ltmp47:
	.loc	0 127 9                         # x264_src/input/timecode.c:127:9
	je	.LBB0_20
.Ltmp48:
# %bb.16:                               # %for.body.i.preheader
	#DEBUG_VALUE: open_file:psz_filename <- $r15
	#DEBUG_VALUE: open_file:p_handle <- [DW_OP_LLVM_entry_value 1] $rsi
	#DEBUG_VALUE: open_file:info <- [DW_OP_plus_uconst 96] [$rsp+0]
	#DEBUG_VALUE: open_file:opt <- [DW_OP_LLVM_entry_value 1] $rcx
	#DEBUG_VALUE: open_file:h <- [DW_OP_plus_uconst 16, DW_OP_deref] $rsp
	#DEBUG_VALUE: open_file:tcfile_in <- $r14
	#DEBUG_VALUE: end <- [DW_OP_deref] $rsp
	#DEBUG_VALUE: parse_tcfile:tcfile_in <- $r14
	#DEBUG_VALUE: parse_tcfile:h <- [DW_OP_plus_uconst 16, DW_OP_deref] $rsp
	#DEBUG_VALUE: parse_tcfile:info <- [DW_OP_plus_uconst 96, DW_OP_deref] $rsp
	#DEBUG_VALUE: parse_tcfile:timecodes <- 0
	#DEBUG_VALUE: parse_tcfile:fpss <- 0
	#DEBUG_VALUE: parse_tcfile:num <- 2
	#DEBUG_VALUE: prev_start <- -1
	#DEBUG_VALUE: prev_end <- -1
	.loc	0 0 9                           # x264_src/input/timecode.c:0:9
	movabsq	$34359747584, %rbx              # imm = 0x800002400
	leaq	128(%rsp), %r15
.Ltmp49:
	#DEBUG_VALUE: open_file:psz_filename <- [DW_OP_LLVM_entry_value 1] $rdi
	.p2align	4, 0x90
.LBB0_17:                               # %for.body.i
                                        # =>This Inner Loop Header: Depth=1
	#DEBUG_VALUE: open_file:psz_filename <- [DW_OP_LLVM_entry_value 1] $rdi
	#DEBUG_VALUE: open_file:p_handle <- [DW_OP_LLVM_entry_value 1] $rsi
	#DEBUG_VALUE: open_file:info <- [DW_OP_plus_uconst 96] [$rsp+0]
	#DEBUG_VALUE: open_file:opt <- [DW_OP_LLVM_entry_value 1] $rcx
	#DEBUG_VALUE: open_file:h <- [DW_OP_plus_uconst 16, DW_OP_deref] $rsp
	#DEBUG_VALUE: open_file:tcfile_in <- $r14
	#DEBUG_VALUE: end <- [DW_OP_deref] $rsp
	#DEBUG_VALUE: parse_tcfile:tcfile_in <- $r14
	#DEBUG_VALUE: parse_tcfile:h <- [DW_OP_plus_uconst 16, DW_OP_deref] $rsp
	#DEBUG_VALUE: parse_tcfile:info <- [DW_OP_plus_uconst 96, DW_OP_deref] $rsp
	#DEBUG_VALUE: parse_tcfile:timecodes <- 0
	#DEBUG_VALUE: parse_tcfile:fpss <- 0
	#DEBUG_VALUE: prev_start <- -1
	#DEBUG_VALUE: prev_end <- -1
	#DEBUG_VALUE: parse_tcfile:num <- $r12d
	.loc	0 129 17 is_stmt 1              # x264_src/input/timecode.c:129:17
	movzbl	128(%rsp), %eax
	cmpq	$35, %rax
	.loc	0 129 32 is_stmt 0              # x264_src/input/timecode.c:129:32
	ja	.LBB0_98
.Ltmp50:
# %bb.18:                               # %for.body.i
                                        #   in Loop: Header=BB0_17 Depth=1
	#DEBUG_VALUE: open_file:psz_filename <- [DW_OP_LLVM_entry_value 1] $rdi
	#DEBUG_VALUE: open_file:p_handle <- [DW_OP_LLVM_entry_value 1] $rsi
	#DEBUG_VALUE: open_file:info <- [DW_OP_plus_uconst 96] [$rsp+0]
	#DEBUG_VALUE: open_file:opt <- [DW_OP_LLVM_entry_value 1] $rcx
	#DEBUG_VALUE: open_file:h <- [DW_OP_plus_uconst 16, DW_OP_deref] $rsp
	#DEBUG_VALUE: open_file:tcfile_in <- $r14
	#DEBUG_VALUE: end <- [DW_OP_deref] $rsp
	#DEBUG_VALUE: parse_tcfile:tcfile_in <- $r14
	#DEBUG_VALUE: parse_tcfile:h <- [DW_OP_plus_uconst 16, DW_OP_deref] $rsp
	#DEBUG_VALUE: parse_tcfile:info <- [DW_OP_plus_uconst 96, DW_OP_deref] $rsp
	#DEBUG_VALUE: parse_tcfile:timecodes <- 0
	#DEBUG_VALUE: parse_tcfile:fpss <- 0
	#DEBUG_VALUE: parse_tcfile:num <- $r12d
	#DEBUG_VALUE: prev_start <- -1
	#DEBUG_VALUE: prev_end <- -1
	.loc	0 0 32                          # x264_src/input/timecode.c:0:32
	btq	%rax, %rbx
	jae	.LBB0_98
.Ltmp51:
# %bb.19:                               # %for.inc.i
                                        #   in Loop: Header=BB0_17 Depth=1
	#DEBUG_VALUE: open_file:psz_filename <- [DW_OP_LLVM_entry_value 1] $rdi
	#DEBUG_VALUE: open_file:p_handle <- [DW_OP_LLVM_entry_value 1] $rsi
	#DEBUG_VALUE: open_file:info <- [DW_OP_plus_uconst 96] [$rsp+0]
	#DEBUG_VALUE: open_file:opt <- [DW_OP_LLVM_entry_value 1] $rcx
	#DEBUG_VALUE: open_file:h <- [DW_OP_plus_uconst 16, DW_OP_deref] $rsp
	#DEBUG_VALUE: open_file:tcfile_in <- $r14
	#DEBUG_VALUE: end <- [DW_OP_deref] $rsp
	#DEBUG_VALUE: parse_tcfile:tcfile_in <- $r14
	#DEBUG_VALUE: parse_tcfile:h <- [DW_OP_plus_uconst 16, DW_OP_deref] $rsp
	#DEBUG_VALUE: parse_tcfile:info <- [DW_OP_plus_uconst 96, DW_OP_deref] $rsp
	#DEBUG_VALUE: parse_tcfile:timecodes <- 0
	#DEBUG_VALUE: parse_tcfile:fpss <- 0
	#DEBUG_VALUE: parse_tcfile:num <- $r12d
	#DEBUG_VALUE: prev_start <- -1
	#DEBUG_VALUE: prev_end <- -1
	.loc	0 127 74 is_stmt 1              # x264_src/input/timecode.c:127:74
	incl	%r12d
.Ltmp52:
	#DEBUG_VALUE: parse_tcfile:num <- $r12d
	.loc	0 127 23 is_stmt 0              # x264_src/input/timecode.c:127:23
	movq	%r15, %rdi
	movl	$256, %esi                      # imm = 0x100
	movq	%r14, %rdx
	callq	fgets@PLT
.Ltmp53:
	.loc	0 127 62                        # x264_src/input/timecode.c:127:62
	testq	%rax, %rax
.Ltmp54:
	.loc	0 127 9                         # x264_src/input/timecode.c:127:9
	jne	.LBB0_17
.Ltmp55:
.LBB0_20:                               # %for.end.i
	#DEBUG_VALUE: open_file:psz_filename <- [DW_OP_LLVM_entry_value 1] $rdi
	#DEBUG_VALUE: open_file:p_handle <- [DW_OP_LLVM_entry_value 1] $rsi
	#DEBUG_VALUE: open_file:info <- [DW_OP_plus_uconst 96] [$rsp+0]
	#DEBUG_VALUE: open_file:opt <- [DW_OP_LLVM_entry_value 1] $rcx
	#DEBUG_VALUE: open_file:h <- [DW_OP_plus_uconst 16, DW_OP_deref] $rsp
	#DEBUG_VALUE: open_file:tcfile_in <- $r14
	#DEBUG_VALUE: end <- [DW_OP_deref] $rsp
	#DEBUG_VALUE: parse_tcfile:tcfile_in <- $r14
	#DEBUG_VALUE: parse_tcfile:h <- [DW_OP_plus_uconst 16, DW_OP_deref] $rsp
	#DEBUG_VALUE: parse_tcfile:info <- [DW_OP_plus_uconst 96, DW_OP_deref] $rsp
	#DEBUG_VALUE: parse_tcfile:timecodes <- 0
	#DEBUG_VALUE: parse_tcfile:fpss <- 0
	#DEBUG_VALUE: prev_start <- -1
	#DEBUG_VALUE: prev_end <- -1
	.loc	0 0 9                           # x264_src/input/timecode.c:0:9
	movq	24(%rsp), %rax                  # 8-byte Reload
.Ltmp56:
	.loc	0 138 16 is_stmt 1              # x264_src/input/timecode.c:138:16
	movsd	(%rax), %xmm0                   # xmm0 = mem[0],zero
	xorpd	%xmm1, %xmm1
	.loc	0 138 27 is_stmt 0              # x264_src/input/timecode.c:138:27
	ucomisd	%xmm0, %xmm1
.Ltmp57:
	.loc	0 138 13                        # x264_src/input/timecode.c:138:13
	jae	.LBB0_175
.Ltmp58:
# %bb.21:                               # %if.end43.i
	#DEBUG_VALUE: open_file:psz_filename <- [DW_OP_LLVM_entry_value 1] $rdi
	#DEBUG_VALUE: open_file:p_handle <- [DW_OP_LLVM_entry_value 1] $rsi
	#DEBUG_VALUE: open_file:info <- [DW_OP_plus_uconst 96] [$rsp+0]
	#DEBUG_VALUE: open_file:opt <- [DW_OP_LLVM_entry_value 1] $rcx
	#DEBUG_VALUE: open_file:h <- [DW_OP_plus_uconst 16, DW_OP_deref] $rsp
	#DEBUG_VALUE: open_file:tcfile_in <- $r14
	#DEBUG_VALUE: end <- [DW_OP_deref] $rsp
	#DEBUG_VALUE: parse_tcfile:tcfile_in <- $r14
	#DEBUG_VALUE: parse_tcfile:h <- [DW_OP_plus_uconst 16, DW_OP_deref] $rsp
	#DEBUG_VALUE: parse_tcfile:info <- [DW_OP_plus_uconst 96, DW_OP_deref] $rsp
	#DEBUG_VALUE: parse_tcfile:timecodes <- 0
	#DEBUG_VALUE: parse_tcfile:fpss <- 0
	#DEBUG_VALUE: prev_start <- -1
	#DEBUG_VALUE: prev_end <- -1
	.loc	0 144 20 is_stmt 1              # x264_src/input/timecode.c:144:20
	movq	%r14, %rdi
	callq	ftell@PLT
.Ltmp59:
	.loc	0 0 20 is_stmt 0                # x264_src/input/timecode.c:0:20
	movq	%rax, 112(%rsp)                 # 8-byte Spill
.Ltmp60:
	#DEBUG_VALUE: file_pos <- [DW_OP_plus_uconst 112, DW_OP_deref] $rsp
	.loc	0 145 27 is_stmt 1              # x264_src/input/timecode.c:145:27
	movl	$0, 100(%rbp)
.Ltmp61:
	#DEBUG_VALUE: parse_tcfile:seq_num <- 0
	#DEBUG_VALUE: parse_tcfile:num <- $r12d
	#DEBUG_VALUE: prev_end <- -1
	#DEBUG_VALUE: prev_start <- -1
	.loc	0 0 27 is_stmt 0                # x264_src/input/timecode.c:0:27
	leaq	128(%rsp), %rdi
.Ltmp62:
	.loc	0 146 27 is_stmt 1              # x264_src/input/timecode.c:146:27
	movl	$256, %esi                      # imm = 0x100
	movq	%r14, %rdx
	callq	fgets@PLT
.Ltmp63:
	.loc	0 146 66 is_stmt 0              # x264_src/input/timecode.c:146:66
	testq	%rax, %rax
.Ltmp64:
	.loc	0 146 9                         # x264_src/input/timecode.c:146:9
	je	.LBB0_63
.Ltmp65:
# %bb.22:                               # %for.body50.i.preheader
	#DEBUG_VALUE: open_file:psz_filename <- [DW_OP_LLVM_entry_value 1] $rdi
	#DEBUG_VALUE: open_file:p_handle <- [DW_OP_LLVM_entry_value 1] $rsi
	#DEBUG_VALUE: open_file:info <- [DW_OP_plus_uconst 96] [$rsp+0]
	#DEBUG_VALUE: open_file:opt <- [DW_OP_LLVM_entry_value 1] $rcx
	#DEBUG_VALUE: open_file:h <- [DW_OP_plus_uconst 16, DW_OP_deref] $rsp
	#DEBUG_VALUE: open_file:tcfile_in <- $r14
	#DEBUG_VALUE: end <- [DW_OP_deref] $rsp
	#DEBUG_VALUE: parse_tcfile:tcfile_in <- $r14
	#DEBUG_VALUE: parse_tcfile:h <- [DW_OP_plus_uconst 16, DW_OP_deref] $rsp
	#DEBUG_VALUE: parse_tcfile:info <- [DW_OP_plus_uconst 96, DW_OP_deref] $rsp
	#DEBUG_VALUE: parse_tcfile:timecodes <- 0
	#DEBUG_VALUE: parse_tcfile:fpss <- 0
	#DEBUG_VALUE: parse_tcfile:num <- $r12d
	#DEBUG_VALUE: prev_start <- -1
	#DEBUG_VALUE: prev_end <- -1
	#DEBUG_VALUE: file_pos <- [DW_OP_plus_uconst 112, DW_OP_deref] $rsp
	#DEBUG_VALUE: parse_tcfile:seq_num <- 0
	.loc	0 0 9                           # x264_src/input/timecode.c:0:9
	movl	$-1, %r15d
	movl	$0, 48(%rsp)                    # 4-byte Folded Spill
	movl	$-1, %ebx
	jmp	.LBB0_25
.Ltmp66:
	.p2align	4, 0x90
.LBB0_23:                               #   in Loop: Header=BB0_25 Depth=1
	#DEBUG_VALUE: open_file:psz_filename <- [DW_OP_LLVM_entry_value 1] $rdi
	#DEBUG_VALUE: open_file:p_handle <- [DW_OP_LLVM_entry_value 1] $rsi
	#DEBUG_VALUE: open_file:info <- [DW_OP_plus_uconst 96] [$rsp+0]
	#DEBUG_VALUE: open_file:opt <- [DW_OP_LLVM_entry_value 1] $rcx
	#DEBUG_VALUE: open_file:h <- [DW_OP_plus_uconst 16, DW_OP_deref] $rsp
	#DEBUG_VALUE: open_file:tcfile_in <- $r14
	#DEBUG_VALUE: end <- [DW_OP_deref] $rsp
	#DEBUG_VALUE: parse_tcfile:tcfile_in <- $r14
	#DEBUG_VALUE: parse_tcfile:h <- [DW_OP_plus_uconst 16, DW_OP_deref] $rsp
	#DEBUG_VALUE: parse_tcfile:info <- [DW_OP_plus_uconst 96, DW_OP_deref] $rsp
	#DEBUG_VALUE: parse_tcfile:timecodes <- 0
	#DEBUG_VALUE: parse_tcfile:fpss <- 0
	#DEBUG_VALUE: parse_tcfile:num <- $r12d
	#DEBUG_VALUE: prev_start <- $ebx
	#DEBUG_VALUE: prev_end <- $r15d
	#DEBUG_VALUE: file_pos <- [DW_OP_plus_uconst 112, DW_OP_deref] $rsp
	#DEBUG_VALUE: parse_tcfile:seq_num <- [DW_OP_plus_uconst 48, DW_OP_deref] $rsp
	movl	%ebx, %ebp
.Ltmp67:
	#DEBUG_VALUE: prev_start <- $ebp
	movl	%r15d, %r13d
.Ltmp68:
	#DEBUG_VALUE: prev_end <- $r13d
.LBB0_24:                               # %for.inc105.i
                                        #   in Loop: Header=BB0_25 Depth=1
	#DEBUG_VALUE: open_file:psz_filename <- [DW_OP_LLVM_entry_value 1] $rdi
	#DEBUG_VALUE: open_file:p_handle <- [DW_OP_LLVM_entry_value 1] $rsi
	#DEBUG_VALUE: open_file:info <- [DW_OP_plus_uconst 96] [$rsp+0]
	#DEBUG_VALUE: open_file:opt <- [DW_OP_LLVM_entry_value 1] $rcx
	#DEBUG_VALUE: open_file:h <- [DW_OP_plus_uconst 16, DW_OP_deref] $rsp
	#DEBUG_VALUE: open_file:tcfile_in <- $r14
	#DEBUG_VALUE: end <- [DW_OP_deref] $rsp
	#DEBUG_VALUE: parse_tcfile:tcfile_in <- $r14
	#DEBUG_VALUE: parse_tcfile:h <- [DW_OP_plus_uconst 16, DW_OP_deref] $rsp
	#DEBUG_VALUE: parse_tcfile:info <- [DW_OP_plus_uconst 96, DW_OP_deref] $rsp
	#DEBUG_VALUE: parse_tcfile:timecodes <- 0
	#DEBUG_VALUE: parse_tcfile:fpss <- 0
	#DEBUG_VALUE: parse_tcfile:num <- $r12d
	#DEBUG_VALUE: prev_start <- $ebp
	#DEBUG_VALUE: prev_end <- $r13d
	#DEBUG_VALUE: file_pos <- [DW_OP_plus_uconst 112, DW_OP_deref] $rsp
	#DEBUG_VALUE: parse_tcfile:seq_num <- [DW_OP_plus_uconst 48, DW_OP_deref] $rsp
	#DEBUG_VALUE: parse_tcfile:seq_num <- [DW_OP_plus_uconst 48, DW_OP_deref] $rsp
	#DEBUG_VALUE: prev_end <- $r13d
	#DEBUG_VALUE: prev_start <- $ebp
	.loc	0 146 78                        # x264_src/input/timecode.c:146:78
	incl	%r12d
.Ltmp69:
	#DEBUG_VALUE: parse_tcfile:num <- $r12d
	.loc	0 146 27                        # x264_src/input/timecode.c:146:27
	leaq	128(%rsp), %rdi
	movl	$256, %esi                      # imm = 0x100
	movq	%r14, %rdx
	callq	fgets@PLT
.Ltmp70:
	.loc	0 0 27                          # x264_src/input/timecode.c:0:27
	movl	%r13d, %r15d
.Ltmp71:
	#DEBUG_VALUE: prev_end <- $r15d
	movl	%ebp, %ebx
.Ltmp72:
	#DEBUG_VALUE: prev_start <- $ebx
	.loc	0 146 66                        # x264_src/input/timecode.c:146:66
	testq	%rax, %rax
	movq	16(%rsp), %rbp                  # 8-byte Reload
.Ltmp73:
	.loc	0 146 9                         # x264_src/input/timecode.c:146:9
	je	.LBB0_64
.Ltmp74:
.LBB0_25:                               # %for.body50.i
                                        # =>This Inner Loop Header: Depth=1
	#DEBUG_VALUE: open_file:psz_filename <- [DW_OP_LLVM_entry_value 1] $rdi
	#DEBUG_VALUE: open_file:p_handle <- [DW_OP_LLVM_entry_value 1] $rsi
	#DEBUG_VALUE: open_file:info <- [DW_OP_plus_uconst 96] [$rsp+0]
	#DEBUG_VALUE: open_file:opt <- [DW_OP_LLVM_entry_value 1] $rcx
	#DEBUG_VALUE: open_file:h <- [DW_OP_plus_uconst 16, DW_OP_deref] $rsp
	#DEBUG_VALUE: open_file:tcfile_in <- $r14
	#DEBUG_VALUE: end <- [DW_OP_deref] $rsp
	#DEBUG_VALUE: parse_tcfile:tcfile_in <- $r14
	#DEBUG_VALUE: parse_tcfile:h <- [DW_OP_plus_uconst 16, DW_OP_deref] $rsp
	#DEBUG_VALUE: parse_tcfile:info <- [DW_OP_plus_uconst 96, DW_OP_deref] $rsp
	#DEBUG_VALUE: parse_tcfile:timecodes <- 0
	#DEBUG_VALUE: parse_tcfile:fpss <- 0
	#DEBUG_VALUE: parse_tcfile:num <- $r12d
	#DEBUG_VALUE: file_pos <- [DW_OP_plus_uconst 112, DW_OP_deref] $rsp
	#DEBUG_VALUE: parse_tcfile:num <- $r12d
	#DEBUG_VALUE: parse_tcfile:seq_num <- [DW_OP_plus_uconst 48, DW_OP_deref] $rsp
	#DEBUG_VALUE: prev_end <- $r15d
	#DEBUG_VALUE: prev_start <- $ebx
	.loc	0 148 17 is_stmt 1              # x264_src/input/timecode.c:148:17
	movzbl	128(%rsp), %eax
	cmpq	$35, %rax
	.loc	0 148 32 is_stmt 0              # x264_src/input/timecode.c:148:32
	ja	.LBB0_29
.Ltmp75:
# %bb.26:                               # %for.body50.i
                                        #   in Loop: Header=BB0_25 Depth=1
	#DEBUG_VALUE: open_file:psz_filename <- [DW_OP_LLVM_entry_value 1] $rdi
	#DEBUG_VALUE: open_file:p_handle <- [DW_OP_LLVM_entry_value 1] $rsi
	#DEBUG_VALUE: open_file:info <- [DW_OP_plus_uconst 96] [$rsp+0]
	#DEBUG_VALUE: open_file:opt <- [DW_OP_LLVM_entry_value 1] $rcx
	#DEBUG_VALUE: open_file:h <- [DW_OP_plus_uconst 16, DW_OP_deref] $rsp
	#DEBUG_VALUE: open_file:tcfile_in <- $r14
	#DEBUG_VALUE: end <- [DW_OP_deref] $rsp
	#DEBUG_VALUE: parse_tcfile:tcfile_in <- $r14
	#DEBUG_VALUE: parse_tcfile:h <- [DW_OP_plus_uconst 16, DW_OP_deref] $rsp
	#DEBUG_VALUE: parse_tcfile:info <- [DW_OP_plus_uconst 96, DW_OP_deref] $rsp
	#DEBUG_VALUE: parse_tcfile:timecodes <- 0
	#DEBUG_VALUE: parse_tcfile:fpss <- 0
	#DEBUG_VALUE: parse_tcfile:num <- $r12d
	#DEBUG_VALUE: prev_start <- $ebx
	#DEBUG_VALUE: prev_end <- $r15d
	#DEBUG_VALUE: file_pos <- [DW_OP_plus_uconst 112, DW_OP_deref] $rsp
	#DEBUG_VALUE: parse_tcfile:seq_num <- [DW_OP_plus_uconst 48, DW_OP_deref] $rsp
	.loc	0 0 32                          # x264_src/input/timecode.c:0:32
	movabsq	$34359747584, %rcx              # imm = 0x800002400
	btq	%rax, %rcx
	jae	.LBB0_29
.Ltmp76:
# %bb.27:                               # %if.then65.i
                                        #   in Loop: Header=BB0_25 Depth=1
	#DEBUG_VALUE: open_file:psz_filename <- [DW_OP_LLVM_entry_value 1] $rdi
	#DEBUG_VALUE: open_file:p_handle <- [DW_OP_LLVM_entry_value 1] $rsi
	#DEBUG_VALUE: open_file:info <- [DW_OP_plus_uconst 96] [$rsp+0]
	#DEBUG_VALUE: open_file:opt <- [DW_OP_LLVM_entry_value 1] $rcx
	#DEBUG_VALUE: open_file:h <- [DW_OP_plus_uconst 16, DW_OP_deref] $rsp
	#DEBUG_VALUE: open_file:tcfile_in <- $r14
	#DEBUG_VALUE: end <- [DW_OP_deref] $rsp
	#DEBUG_VALUE: parse_tcfile:tcfile_in <- $r14
	#DEBUG_VALUE: parse_tcfile:h <- [DW_OP_plus_uconst 16, DW_OP_deref] $rsp
	#DEBUG_VALUE: parse_tcfile:info <- [DW_OP_plus_uconst 96, DW_OP_deref] $rsp
	#DEBUG_VALUE: parse_tcfile:timecodes <- 0
	#DEBUG_VALUE: parse_tcfile:fpss <- 0
	#DEBUG_VALUE: parse_tcfile:num <- $r12d
	#DEBUG_VALUE: prev_start <- $ebx
	#DEBUG_VALUE: prev_end <- $r15d
	#DEBUG_VALUE: file_pos <- [DW_OP_plus_uconst 112, DW_OP_deref] $rsp
	#DEBUG_VALUE: parse_tcfile:seq_num <- [DW_OP_plus_uconst 48, DW_OP_deref] $rsp
	.loc	0 150 21 is_stmt 1              # x264_src/input/timecode.c:150:21
	movl	$.L.str.12, %esi
	leaq	128(%rsp), %rdi
	movq	%rsp, %rdx
	xorl	%eax, %eax
	callq	__isoc99_sscanf@PLT
.Ltmp77:
	.loc	0 150 82 is_stmt 0              # x264_src/input/timecode.c:150:82
	cmpl	$1, %eax
.Ltmp78:
	.loc	0 150 21                        # x264_src/input/timecode.c:150:21
	jne	.LBB0_23
.Ltmp79:
# %bb.28:                               # %if.then70.i
                                        #   in Loop: Header=BB0_25 Depth=1
	#DEBUG_VALUE: open_file:psz_filename <- [DW_OP_LLVM_entry_value 1] $rdi
	#DEBUG_VALUE: open_file:p_handle <- [DW_OP_LLVM_entry_value 1] $rsi
	#DEBUG_VALUE: open_file:info <- [DW_OP_plus_uconst 96] [$rsp+0]
	#DEBUG_VALUE: open_file:opt <- [DW_OP_LLVM_entry_value 1] $rcx
	#DEBUG_VALUE: open_file:h <- [DW_OP_plus_uconst 16, DW_OP_deref] $rsp
	#DEBUG_VALUE: open_file:tcfile_in <- $r14
	#DEBUG_VALUE: end <- [DW_OP_deref] $rsp
	#DEBUG_VALUE: parse_tcfile:tcfile_in <- $r14
	#DEBUG_VALUE: parse_tcfile:h <- [DW_OP_plus_uconst 16, DW_OP_deref] $rsp
	#DEBUG_VALUE: parse_tcfile:info <- [DW_OP_plus_uconst 96, DW_OP_deref] $rsp
	#DEBUG_VALUE: parse_tcfile:timecodes <- 0
	#DEBUG_VALUE: parse_tcfile:fpss <- 0
	#DEBUG_VALUE: parse_tcfile:num <- $r12d
	#DEBUG_VALUE: prev_start <- $ebx
	#DEBUG_VALUE: prev_end <- $r15d
	#DEBUG_VALUE: file_pos <- [DW_OP_plus_uconst 112, DW_OP_deref] $rsp
	#DEBUG_VALUE: parse_tcfile:seq_num <- [DW_OP_plus_uconst 48, DW_OP_deref] $rsp
	.loc	0 151 41 is_stmt 1              # x264_src/input/timecode.c:151:41
	movl	(%rsp), %eax
	.loc	0 151 49 is_stmt 0              # x264_src/input/timecode.c:151:49
	subl	96(%rbp), %eax
	incl	%eax
	.loc	0 151 39                        # x264_src/input/timecode.c:151:39
	movl	%eax, 100(%rbp)
	jmp	.LBB0_23
.Ltmp80:
	.p2align	4, 0x90
.LBB0_29:                               # %if.end74.i
                                        #   in Loop: Header=BB0_25 Depth=1
	#DEBUG_VALUE: open_file:psz_filename <- [DW_OP_LLVM_entry_value 1] $rdi
	#DEBUG_VALUE: open_file:p_handle <- [DW_OP_LLVM_entry_value 1] $rsi
	#DEBUG_VALUE: open_file:info <- [DW_OP_plus_uconst 96] [$rsp+0]
	#DEBUG_VALUE: open_file:opt <- [DW_OP_LLVM_entry_value 1] $rcx
	#DEBUG_VALUE: open_file:h <- [DW_OP_plus_uconst 16, DW_OP_deref] $rsp
	#DEBUG_VALUE: open_file:tcfile_in <- $r14
	#DEBUG_VALUE: end <- [DW_OP_deref] $rsp
	#DEBUG_VALUE: parse_tcfile:tcfile_in <- $r14
	#DEBUG_VALUE: parse_tcfile:h <- [DW_OP_plus_uconst 16, DW_OP_deref] $rsp
	#DEBUG_VALUE: parse_tcfile:info <- [DW_OP_plus_uconst 96, DW_OP_deref] $rsp
	#DEBUG_VALUE: parse_tcfile:timecodes <- 0
	#DEBUG_VALUE: parse_tcfile:fpss <- 0
	#DEBUG_VALUE: parse_tcfile:num <- $r12d
	#DEBUG_VALUE: prev_start <- $ebx
	#DEBUG_VALUE: prev_end <- $r15d
	#DEBUG_VALUE: file_pos <- [DW_OP_plus_uconst 112, DW_OP_deref] $rsp
	#DEBUG_VALUE: parse_tcfile:seq_num <- [DW_OP_plus_uconst 48, DW_OP_deref] $rsp
	.loc	0 154 19 is_stmt 1              # x264_src/input/timecode.c:154:19
	movl	$.L.str.13, %esi
	leaq	128(%rsp), %rdi
	leaq	4(%rsp), %rdx
	movq	%rsp, %rcx
	leaq	80(%rsp), %r8
	xorl	%eax, %eax
	callq	__isoc99_sscanf@PLT
.Ltmp81:
	#DEBUG_VALUE: parse_tcfile:ret <- $eax
	.loc	0 155 26                        # x264_src/input/timecode.c:155:26
	cmpl	$-1, %eax
	je	.LBB0_31
.Ltmp82:
# %bb.30:                               # %if.end74.i
                                        #   in Loop: Header=BB0_25 Depth=1
	#DEBUG_VALUE: open_file:psz_filename <- [DW_OP_LLVM_entry_value 1] $rdi
	#DEBUG_VALUE: open_file:p_handle <- [DW_OP_LLVM_entry_value 1] $rsi
	#DEBUG_VALUE: open_file:info <- [DW_OP_plus_uconst 96] [$rsp+0]
	#DEBUG_VALUE: open_file:opt <- [DW_OP_LLVM_entry_value 1] $rcx
	#DEBUG_VALUE: open_file:h <- [DW_OP_plus_uconst 16, DW_OP_deref] $rsp
	#DEBUG_VALUE: open_file:tcfile_in <- $r14
	#DEBUG_VALUE: end <- [DW_OP_deref] $rsp
	#DEBUG_VALUE: parse_tcfile:tcfile_in <- $r14
	#DEBUG_VALUE: parse_tcfile:h <- [DW_OP_plus_uconst 16, DW_OP_deref] $rsp
	#DEBUG_VALUE: parse_tcfile:info <- [DW_OP_plus_uconst 96, DW_OP_deref] $rsp
	#DEBUG_VALUE: parse_tcfile:timecodes <- 0
	#DEBUG_VALUE: parse_tcfile:fpss <- 0
	#DEBUG_VALUE: parse_tcfile:ret <- $eax
	#DEBUG_VALUE: parse_tcfile:num <- $r12d
	#DEBUG_VALUE: prev_start <- $ebx
	#DEBUG_VALUE: prev_end <- $r15d
	#DEBUG_VALUE: file_pos <- [DW_OP_plus_uconst 112, DW_OP_deref] $rsp
	#DEBUG_VALUE: parse_tcfile:seq_num <- [DW_OP_plus_uconst 48, DW_OP_deref] $rsp
	cmpl	$3, %eax
	jne	.LBB0_198
.Ltmp83:
.LBB0_31:                               # %if.end84.i
                                        #   in Loop: Header=BB0_25 Depth=1
	#DEBUG_VALUE: open_file:psz_filename <- [DW_OP_LLVM_entry_value 1] $rdi
	#DEBUG_VALUE: open_file:p_handle <- [DW_OP_LLVM_entry_value 1] $rsi
	#DEBUG_VALUE: open_file:info <- [DW_OP_plus_uconst 96] [$rsp+0]
	#DEBUG_VALUE: open_file:opt <- [DW_OP_LLVM_entry_value 1] $rcx
	#DEBUG_VALUE: open_file:h <- [DW_OP_plus_uconst 16, DW_OP_deref] $rsp
	#DEBUG_VALUE: open_file:tcfile_in <- $r14
	#DEBUG_VALUE: end <- [DW_OP_deref] $rsp
	#DEBUG_VALUE: parse_tcfile:tcfile_in <- $r14
	#DEBUG_VALUE: parse_tcfile:h <- [DW_OP_plus_uconst 16, DW_OP_deref] $rsp
	#DEBUG_VALUE: parse_tcfile:info <- [DW_OP_plus_uconst 96, DW_OP_deref] $rsp
	#DEBUG_VALUE: parse_tcfile:timecodes <- 0
	#DEBUG_VALUE: parse_tcfile:fpss <- 0
	#DEBUG_VALUE: parse_tcfile:ret <- $eax
	#DEBUG_VALUE: parse_tcfile:num <- $r12d
	#DEBUG_VALUE: prev_start <- $ebx
	#DEBUG_VALUE: prev_end <- $r15d
	#DEBUG_VALUE: file_pos <- [DW_OP_plus_uconst 112, DW_OP_deref] $rsp
	#DEBUG_VALUE: parse_tcfile:seq_num <- [DW_OP_plus_uconst 48, DW_OP_deref] $rsp
	.loc	0 160 17                        # x264_src/input/timecode.c:160:17
	movl	4(%rsp), %ebp
	.loc	0 160 25 is_stmt 0              # x264_src/input/timecode.c:160:25
	movl	(%rsp), %r13d
	.loc	0 160 23                        # x264_src/input/timecode.c:160:23
	cmpl	%r13d, %ebp
	.loc	0 160 29                        # x264_src/input/timecode.c:160:29
	jg	.LBB0_184
.Ltmp84:
# %bb.32:                               # %if.end84.i
                                        #   in Loop: Header=BB0_25 Depth=1
	#DEBUG_VALUE: open_file:psz_filename <- [DW_OP_LLVM_entry_value 1] $rdi
	#DEBUG_VALUE: open_file:p_handle <- [DW_OP_LLVM_entry_value 1] $rsi
	#DEBUG_VALUE: open_file:info <- [DW_OP_plus_uconst 96] [$rsp+0]
	#DEBUG_VALUE: open_file:opt <- [DW_OP_LLVM_entry_value 1] $rcx
	#DEBUG_VALUE: open_file:h <- [DW_OP_plus_uconst 16, DW_OP_deref] $rsp
	#DEBUG_VALUE: open_file:tcfile_in <- $r14
	#DEBUG_VALUE: end <- [DW_OP_deref] $rsp
	#DEBUG_VALUE: parse_tcfile:tcfile_in <- $r14
	#DEBUG_VALUE: parse_tcfile:h <- [DW_OP_plus_uconst 16, DW_OP_deref] $rsp
	#DEBUG_VALUE: parse_tcfile:info <- [DW_OP_plus_uconst 96, DW_OP_deref] $rsp
	#DEBUG_VALUE: parse_tcfile:timecodes <- 0
	#DEBUG_VALUE: parse_tcfile:fpss <- 0
	#DEBUG_VALUE: parse_tcfile:ret <- $eax
	#DEBUG_VALUE: parse_tcfile:num <- $r12d
	#DEBUG_VALUE: prev_start <- $ebx
	#DEBUG_VALUE: prev_end <- $r15d
	#DEBUG_VALUE: file_pos <- [DW_OP_plus_uconst 112, DW_OP_deref] $rsp
	#DEBUG_VALUE: parse_tcfile:seq_num <- [DW_OP_plus_uconst 48, DW_OP_deref] $rsp
	cmpl	%ebx, %ebp
	jle	.LBB0_184
.Ltmp85:
# %bb.33:                               # %lor.lhs.false90.i
                                        #   in Loop: Header=BB0_25 Depth=1
	#DEBUG_VALUE: open_file:psz_filename <- [DW_OP_LLVM_entry_value 1] $rdi
	#DEBUG_VALUE: open_file:p_handle <- [DW_OP_LLVM_entry_value 1] $rsi
	#DEBUG_VALUE: open_file:info <- [DW_OP_plus_uconst 96] [$rsp+0]
	#DEBUG_VALUE: open_file:opt <- [DW_OP_LLVM_entry_value 1] $rcx
	#DEBUG_VALUE: open_file:h <- [DW_OP_plus_uconst 16, DW_OP_deref] $rsp
	#DEBUG_VALUE: open_file:tcfile_in <- $r14
	#DEBUG_VALUE: end <- [DW_OP_deref] $rsp
	#DEBUG_VALUE: parse_tcfile:tcfile_in <- $r14
	#DEBUG_VALUE: parse_tcfile:h <- [DW_OP_plus_uconst 16, DW_OP_deref] $rsp
	#DEBUG_VALUE: parse_tcfile:info <- [DW_OP_plus_uconst 96, DW_OP_deref] $rsp
	#DEBUG_VALUE: parse_tcfile:timecodes <- 0
	#DEBUG_VALUE: parse_tcfile:fpss <- 0
	#DEBUG_VALUE: parse_tcfile:ret <- $eax
	#DEBUG_VALUE: parse_tcfile:num <- $r12d
	#DEBUG_VALUE: prev_start <- $ebx
	#DEBUG_VALUE: prev_end <- $r15d
	#DEBUG_VALUE: file_pos <- [DW_OP_plus_uconst 112, DW_OP_deref] $rsp
	#DEBUG_VALUE: parse_tcfile:seq_num <- [DW_OP_plus_uconst 48, DW_OP_deref] $rsp
	.loc	0 160 59                        # x264_src/input/timecode.c:160:59
	cmpl	%r15d, %r13d
	.loc	0 160 71                        # x264_src/input/timecode.c:160:71
	jle	.LBB0_184
.Ltmp86:
# %bb.34:                               # %lor.lhs.false90.i
                                        #   in Loop: Header=BB0_25 Depth=1
	#DEBUG_VALUE: open_file:psz_filename <- [DW_OP_LLVM_entry_value 1] $rdi
	#DEBUG_VALUE: open_file:p_handle <- [DW_OP_LLVM_entry_value 1] $rsi
	#DEBUG_VALUE: open_file:info <- [DW_OP_plus_uconst 96] [$rsp+0]
	#DEBUG_VALUE: open_file:opt <- [DW_OP_LLVM_entry_value 1] $rcx
	#DEBUG_VALUE: open_file:h <- [DW_OP_plus_uconst 16, DW_OP_deref] $rsp
	#DEBUG_VALUE: open_file:tcfile_in <- $r14
	#DEBUG_VALUE: end <- [DW_OP_deref] $rsp
	#DEBUG_VALUE: parse_tcfile:tcfile_in <- $r14
	#DEBUG_VALUE: parse_tcfile:h <- [DW_OP_plus_uconst 16, DW_OP_deref] $rsp
	#DEBUG_VALUE: parse_tcfile:info <- [DW_OP_plus_uconst 96, DW_OP_deref] $rsp
	#DEBUG_VALUE: parse_tcfile:timecodes <- 0
	#DEBUG_VALUE: parse_tcfile:fpss <- 0
	#DEBUG_VALUE: parse_tcfile:ret <- $eax
	#DEBUG_VALUE: parse_tcfile:num <- $r12d
	#DEBUG_VALUE: prev_start <- $ebx
	#DEBUG_VALUE: prev_end <- $r15d
	#DEBUG_VALUE: file_pos <- [DW_OP_plus_uconst 112, DW_OP_deref] $rsp
	#DEBUG_VALUE: parse_tcfile:seq_num <- [DW_OP_plus_uconst 48, DW_OP_deref] $rsp
	xorpd	%xmm0, %xmm0
	ucomisd	80(%rsp), %xmm0
	jae	.LBB0_184
.Ltmp87:
# %bb.35:                               # %if.end99.i
                                        #   in Loop: Header=BB0_25 Depth=1
	#DEBUG_VALUE: open_file:psz_filename <- [DW_OP_LLVM_entry_value 1] $rdi
	#DEBUG_VALUE: open_file:p_handle <- [DW_OP_LLVM_entry_value 1] $rsi
	#DEBUG_VALUE: open_file:info <- [DW_OP_plus_uconst 96] [$rsp+0]
	#DEBUG_VALUE: open_file:opt <- [DW_OP_LLVM_entry_value 1] $rcx
	#DEBUG_VALUE: open_file:h <- [DW_OP_plus_uconst 16, DW_OP_deref] $rsp
	#DEBUG_VALUE: open_file:tcfile_in <- $r14
	#DEBUG_VALUE: end <- [DW_OP_deref] $rsp
	#DEBUG_VALUE: parse_tcfile:tcfile_in <- $r14
	#DEBUG_VALUE: parse_tcfile:h <- [DW_OP_plus_uconst 16, DW_OP_deref] $rsp
	#DEBUG_VALUE: parse_tcfile:info <- [DW_OP_plus_uconst 96, DW_OP_deref] $rsp
	#DEBUG_VALUE: parse_tcfile:timecodes <- 0
	#DEBUG_VALUE: parse_tcfile:fpss <- 0
	#DEBUG_VALUE: parse_tcfile:ret <- $eax
	#DEBUG_VALUE: parse_tcfile:num <- $r12d
	#DEBUG_VALUE: prev_start <- $ebx
	#DEBUG_VALUE: prev_end <- $r15d
	#DEBUG_VALUE: file_pos <- [DW_OP_plus_uconst 112, DW_OP_deref] $rsp
	#DEBUG_VALUE: parse_tcfile:seq_num <- [DW_OP_plus_uconst 48, DW_OP_deref] $rsp
	#DEBUG_VALUE: prev_start <- $ebp
	#DEBUG_VALUE: prev_end <- $r13d
	.loc	0 0 71                          # x264_src/input/timecode.c:0:71
	movq	40(%rsp), %rax                  # 8-byte Reload
.Ltmp88:
	.loc	0 167 17 is_stmt 1              # x264_src/input/timecode.c:167:17
	cmpl	$0, (%rax)
	.loc	0 167 38 is_stmt 0              # x264_src/input/timecode.c:167:38
	jne	.LBB0_37
.Ltmp89:
# %bb.36:                               # %lor.lhs.false100.i
                                        #   in Loop: Header=BB0_25 Depth=1
	#DEBUG_VALUE: open_file:psz_filename <- [DW_OP_LLVM_entry_value 1] $rdi
	#DEBUG_VALUE: open_file:p_handle <- [DW_OP_LLVM_entry_value 1] $rsi
	#DEBUG_VALUE: open_file:info <- [DW_OP_plus_uconst 96] [$rsp+0]
	#DEBUG_VALUE: open_file:opt <- [DW_OP_LLVM_entry_value 1] $rcx
	#DEBUG_VALUE: open_file:h <- [DW_OP_plus_uconst 16, DW_OP_deref] $rsp
	#DEBUG_VALUE: open_file:tcfile_in <- $r14
	#DEBUG_VALUE: end <- [DW_OP_deref] $rsp
	#DEBUG_VALUE: parse_tcfile:tcfile_in <- $r14
	#DEBUG_VALUE: parse_tcfile:h <- [DW_OP_plus_uconst 16, DW_OP_deref] $rsp
	#DEBUG_VALUE: parse_tcfile:info <- [DW_OP_plus_uconst 96, DW_OP_deref] $rsp
	#DEBUG_VALUE: parse_tcfile:timecodes <- 0
	#DEBUG_VALUE: parse_tcfile:fpss <- 0
	#DEBUG_VALUE: parse_tcfile:num <- $r12d
	#DEBUG_VALUE: prev_start <- $ebp
	#DEBUG_VALUE: prev_end <- $r13d
	#DEBUG_VALUE: file_pos <- [DW_OP_plus_uconst 112, DW_OP_deref] $rsp
	#DEBUG_VALUE: parse_tcfile:seq_num <- [DW_OP_plus_uconst 48, DW_OP_deref] $rsp
	.loc	0 0 38                          # x264_src/input/timecode.c:0:38
	movq	88(%rsp), %rax                  # 8-byte Reload
	.loc	0 167 41                        # x264_src/input/timecode.c:167:41
	cmpl	$0, (%rax)
.Ltmp90:
	.loc	0 167 17                        # x264_src/input/timecode.c:167:17
	je	.LBB0_24
.Ltmp91:
.LBB0_37:                               # %if.then102.i
                                        #   in Loop: Header=BB0_25 Depth=1
	#DEBUG_VALUE: open_file:psz_filename <- [DW_OP_LLVM_entry_value 1] $rdi
	#DEBUG_VALUE: open_file:p_handle <- [DW_OP_LLVM_entry_value 1] $rsi
	#DEBUG_VALUE: open_file:info <- [DW_OP_plus_uconst 96] [$rsp+0]
	#DEBUG_VALUE: open_file:opt <- [DW_OP_LLVM_entry_value 1] $rcx
	#DEBUG_VALUE: open_file:h <- [DW_OP_plus_uconst 16, DW_OP_deref] $rsp
	#DEBUG_VALUE: open_file:tcfile_in <- $r14
	#DEBUG_VALUE: end <- [DW_OP_deref] $rsp
	#DEBUG_VALUE: parse_tcfile:tcfile_in <- $r14
	#DEBUG_VALUE: parse_tcfile:h <- [DW_OP_plus_uconst 16, DW_OP_deref] $rsp
	#DEBUG_VALUE: parse_tcfile:info <- [DW_OP_plus_uconst 96, DW_OP_deref] $rsp
	#DEBUG_VALUE: parse_tcfile:timecodes <- 0
	#DEBUG_VALUE: parse_tcfile:fpss <- 0
	#DEBUG_VALUE: parse_tcfile:num <- $r12d
	#DEBUG_VALUE: prev_start <- $ebp
	#DEBUG_VALUE: prev_end <- $r13d
	#DEBUG_VALUE: file_pos <- [DW_OP_plus_uconst 112, DW_OP_deref] $rsp
	#DEBUG_VALUE: parse_tcfile:seq_num <- [DW_OP_plus_uconst 48, DW_OP_deref] $rsp
	.loc	0 168 17 is_stmt 1              # x264_src/input/timecode.c:168:17
	incl	48(%rsp)                        # 4-byte Folded Spill
.Ltmp92:
	#DEBUG_VALUE: parse_tcfile:seq_num <- undef
	#DEBUG_VALUE: parse_tcfile:seq_num <- [DW_OP_plus_uconst 48, DW_OP_deref] $rsp
	.loc	0 0 17 is_stmt 0                # x264_src/input/timecode.c:0:17
	jmp	.LBB0_24
.Ltmp93:
.LBB0_38:                               # %if.else.i
	#DEBUG_VALUE: open_file:psz_filename <- $r15
	#DEBUG_VALUE: open_file:p_handle <- [DW_OP_LLVM_entry_value 1] $rsi
	#DEBUG_VALUE: open_file:info <- [DW_OP_plus_uconst 96] [$rsp+0]
	#DEBUG_VALUE: open_file:opt <- $r12
	#DEBUG_VALUE: open_file:h <- [DW_OP_plus_uconst 16, DW_OP_deref] $rsp
	#DEBUG_VALUE: open_file:tcfile_in <- $r14
	#DEBUG_VALUE: parse_tcfile:tcfile_in <- $r14
	#DEBUG_VALUE: parse_tcfile:h <- [DW_OP_plus_uconst 16, DW_OP_deref] $rsp
	#DEBUG_VALUE: parse_tcfile:info <- [DW_OP_plus_uconst 96, DW_OP_deref] $rsp
	#DEBUG_VALUE: parse_tcfile:timecodes <- 0
	#DEBUG_VALUE: parse_tcfile:fpss <- 0
	.loc	0 246 29 is_stmt 1              # x264_src/input/timecode.c:246:29
	movq	%r14, %rdi
	callq	ftell@PLT
.Ltmp94:
	movq	%rax, %r15
.Ltmp95:
	#DEBUG_VALUE: open_file:psz_filename <- [DW_OP_LLVM_entry_value 1] $rdi
	#DEBUG_VALUE: file_pos <- $r15
	.loc	0 248 33                        # x264_src/input/timecode.c:248:33
	movl	$0, 100(%rbp)
.Ltmp96:
	#DEBUG_VALUE: parse_tcfile:num <- 0
	.loc	0 0 33 is_stmt 0                # x264_src/input/timecode.c:0:33
	leaq	128(%rsp), %rdi
	.loc	0 249 16 is_stmt 1              # x264_src/input/timecode.c:249:16
	movl	$256, %esi                      # imm = 0x100
	movq	%r14, %rdx
	callq	fgets@PLT
.Ltmp97:
	.loc	0 249 55 is_stmt 0              # x264_src/input/timecode.c:249:55
	testq	%rax, %rax
	.loc	0 249 9                         # x264_src/input/timecode.c:249:9
	je	.LBB0_48
.Ltmp98:
# %bb.39:                               # %while.body.lr.ph.i.preheader
	#DEBUG_VALUE: open_file:psz_filename <- [DW_OP_LLVM_entry_value 1] $rdi
	#DEBUG_VALUE: open_file:p_handle <- [DW_OP_LLVM_entry_value 1] $rsi
	#DEBUG_VALUE: open_file:info <- [DW_OP_plus_uconst 96] [$rsp+0]
	#DEBUG_VALUE: open_file:opt <- $r12
	#DEBUG_VALUE: open_file:h <- [DW_OP_plus_uconst 16, DW_OP_deref] $rsp
	#DEBUG_VALUE: open_file:tcfile_in <- $r14
	#DEBUG_VALUE: parse_tcfile:tcfile_in <- $r14
	#DEBUG_VALUE: parse_tcfile:h <- [DW_OP_plus_uconst 16, DW_OP_deref] $rsp
	#DEBUG_VALUE: parse_tcfile:info <- [DW_OP_plus_uconst 96, DW_OP_deref] $rsp
	#DEBUG_VALUE: parse_tcfile:timecodes <- 0
	#DEBUG_VALUE: parse_tcfile:fpss <- 0
	#DEBUG_VALUE: file_pos <- $r15
	#DEBUG_VALUE: parse_tcfile:num <- 0
	.loc	0 0 9                           # x264_src/input/timecode.c:0:9
	xorl	%ebx, %ebx
	leaq	128(%rsp), %r12
.Ltmp99:
	#DEBUG_VALUE: open_file:opt <- [DW_OP_LLVM_entry_value 1] $rcx
	movabsq	$34359747584, %r13              # imm = 0x800002400
.Ltmp100:
	#DEBUG_VALUE: parse_tcfile:num <- $ebx
	#DEBUG_VALUE: file_pos <- $r15
	.p2align	4, 0x90
.LBB0_40:                               # %while.body.i
                                        # =>This Inner Loop Header: Depth=1
	#DEBUG_VALUE: open_file:psz_filename <- [DW_OP_LLVM_entry_value 1] $rdi
	#DEBUG_VALUE: open_file:p_handle <- [DW_OP_LLVM_entry_value 1] $rsi
	#DEBUG_VALUE: open_file:info <- [DW_OP_plus_uconst 96] [$rsp+0]
	#DEBUG_VALUE: open_file:opt <- [DW_OP_LLVM_entry_value 1] $rcx
	#DEBUG_VALUE: open_file:h <- [DW_OP_plus_uconst 16, DW_OP_deref] $rsp
	#DEBUG_VALUE: open_file:tcfile_in <- $r14
	#DEBUG_VALUE: parse_tcfile:tcfile_in <- $r14
	#DEBUG_VALUE: parse_tcfile:h <- [DW_OP_plus_uconst 16, DW_OP_deref] $rsp
	#DEBUG_VALUE: parse_tcfile:info <- [DW_OP_plus_uconst 96, DW_OP_deref] $rsp
	#DEBUG_VALUE: parse_tcfile:timecodes <- 0
	#DEBUG_VALUE: parse_tcfile:fpss <- 0
	#DEBUG_VALUE: file_pos <- $r15
	#DEBUG_VALUE: parse_tcfile:num <- $ebx
	.loc	0 251 17 is_stmt 1              # x264_src/input/timecode.c:251:17
	movzbl	128(%rsp), %eax
	cmpq	$35, %rax
	.loc	0 251 32 is_stmt 0              # x264_src/input/timecode.c:251:32
	ja	.LBB0_42
.Ltmp101:
# %bb.41:                               # %while.body.i
                                        #   in Loop: Header=BB0_40 Depth=1
	#DEBUG_VALUE: open_file:psz_filename <- [DW_OP_LLVM_entry_value 1] $rdi
	#DEBUG_VALUE: open_file:p_handle <- [DW_OP_LLVM_entry_value 1] $rsi
	#DEBUG_VALUE: open_file:info <- [DW_OP_plus_uconst 96] [$rsp+0]
	#DEBUG_VALUE: open_file:opt <- [DW_OP_LLVM_entry_value 1] $rcx
	#DEBUG_VALUE: open_file:h <- [DW_OP_plus_uconst 16, DW_OP_deref] $rsp
	#DEBUG_VALUE: open_file:tcfile_in <- $r14
	#DEBUG_VALUE: parse_tcfile:tcfile_in <- $r14
	#DEBUG_VALUE: parse_tcfile:h <- [DW_OP_plus_uconst 16, DW_OP_deref] $rsp
	#DEBUG_VALUE: parse_tcfile:info <- [DW_OP_plus_uconst 96, DW_OP_deref] $rsp
	#DEBUG_VALUE: parse_tcfile:timecodes <- 0
	#DEBUG_VALUE: parse_tcfile:fpss <- 0
	#DEBUG_VALUE: file_pos <- $r15
	#DEBUG_VALUE: parse_tcfile:num <- $ebx
	.loc	0 0 32                          # x264_src/input/timecode.c:0:32
	btq	%rax, %r13
	jb	.LBB0_46
.Ltmp102:
.LBB0_42:                               # %if.end377.i
                                        #   in Loop: Header=BB0_40 Depth=1
	#DEBUG_VALUE: open_file:psz_filename <- [DW_OP_LLVM_entry_value 1] $rdi
	#DEBUG_VALUE: open_file:p_handle <- [DW_OP_LLVM_entry_value 1] $rsi
	#DEBUG_VALUE: open_file:info <- [DW_OP_plus_uconst 96] [$rsp+0]
	#DEBUG_VALUE: open_file:opt <- [DW_OP_LLVM_entry_value 1] $rcx
	#DEBUG_VALUE: open_file:h <- [DW_OP_plus_uconst 16, DW_OP_deref] $rsp
	#DEBUG_VALUE: open_file:tcfile_in <- $r14
	#DEBUG_VALUE: parse_tcfile:tcfile_in <- $r14
	#DEBUG_VALUE: parse_tcfile:h <- [DW_OP_plus_uconst 16, DW_OP_deref] $rsp
	#DEBUG_VALUE: parse_tcfile:info <- [DW_OP_plus_uconst 96, DW_OP_deref] $rsp
	#DEBUG_VALUE: parse_tcfile:timecodes <- 0
	#DEBUG_VALUE: parse_tcfile:fpss <- 0
	#DEBUG_VALUE: file_pos <- $r15
	#DEBUG_VALUE: parse_tcfile:num <- $ebx
	.loc	0 257 21 is_stmt 1              # x264_src/input/timecode.c:257:21
	cmpl	96(%rbp), %ebx
.Ltmp103:
	.loc	0 257 17 is_stmt 0              # x264_src/input/timecode.c:257:17
	jl	.LBB0_44
.Ltmp104:
# %bb.43:                               # %if.then381.i
                                        #   in Loop: Header=BB0_40 Depth=1
	#DEBUG_VALUE: open_file:psz_filename <- [DW_OP_LLVM_entry_value 1] $rdi
	#DEBUG_VALUE: open_file:p_handle <- [DW_OP_LLVM_entry_value 1] $rsi
	#DEBUG_VALUE: open_file:info <- [DW_OP_plus_uconst 96] [$rsp+0]
	#DEBUG_VALUE: open_file:opt <- [DW_OP_LLVM_entry_value 1] $rcx
	#DEBUG_VALUE: open_file:h <- [DW_OP_plus_uconst 16, DW_OP_deref] $rsp
	#DEBUG_VALUE: open_file:tcfile_in <- $r14
	#DEBUG_VALUE: parse_tcfile:tcfile_in <- $r14
	#DEBUG_VALUE: parse_tcfile:h <- [DW_OP_plus_uconst 16, DW_OP_deref] $rsp
	#DEBUG_VALUE: parse_tcfile:info <- [DW_OP_plus_uconst 96, DW_OP_deref] $rsp
	#DEBUG_VALUE: parse_tcfile:timecodes <- 0
	#DEBUG_VALUE: parse_tcfile:fpss <- 0
	#DEBUG_VALUE: file_pos <- $r15
	#DEBUG_VALUE: parse_tcfile:num <- $ebx
	.loc	0 258 17 is_stmt 1              # x264_src/input/timecode.c:258:17
	incl	100(%rbp)
.Ltmp105:
.LBB0_44:                               # %if.end384.i
                                        #   in Loop: Header=BB0_40 Depth=1
	#DEBUG_VALUE: open_file:psz_filename <- [DW_OP_LLVM_entry_value 1] $rdi
	#DEBUG_VALUE: open_file:p_handle <- [DW_OP_LLVM_entry_value 1] $rsi
	#DEBUG_VALUE: open_file:info <- [DW_OP_plus_uconst 96] [$rsp+0]
	#DEBUG_VALUE: open_file:opt <- [DW_OP_LLVM_entry_value 1] $rcx
	#DEBUG_VALUE: open_file:h <- [DW_OP_plus_uconst 16, DW_OP_deref] $rsp
	#DEBUG_VALUE: open_file:tcfile_in <- $r14
	#DEBUG_VALUE: parse_tcfile:tcfile_in <- $r14
	#DEBUG_VALUE: parse_tcfile:h <- [DW_OP_plus_uconst 16, DW_OP_deref] $rsp
	#DEBUG_VALUE: parse_tcfile:info <- [DW_OP_plus_uconst 96, DW_OP_deref] $rsp
	#DEBUG_VALUE: parse_tcfile:timecodes <- 0
	#DEBUG_VALUE: parse_tcfile:fpss <- 0
	#DEBUG_VALUE: file_pos <- $r15
	#DEBUG_VALUE: parse_tcfile:num <- $ebx
	.loc	0 259 13                        # x264_src/input/timecode.c:259:13
	incl	%ebx
.Ltmp106:
	#DEBUG_VALUE: parse_tcfile:num <- $ebx
	#DEBUG_VALUE: file_pos <- undef
.LBB0_45:                               # %if.end376.i
                                        #   in Loop: Header=BB0_40 Depth=1
	#DEBUG_VALUE: open_file:psz_filename <- [DW_OP_LLVM_entry_value 1] $rdi
	#DEBUG_VALUE: open_file:p_handle <- [DW_OP_LLVM_entry_value 1] $rsi
	#DEBUG_VALUE: open_file:info <- [DW_OP_plus_uconst 96] [$rsp+0]
	#DEBUG_VALUE: open_file:opt <- [DW_OP_LLVM_entry_value 1] $rcx
	#DEBUG_VALUE: open_file:h <- [DW_OP_plus_uconst 16, DW_OP_deref] $rsp
	#DEBUG_VALUE: open_file:tcfile_in <- $r14
	#DEBUG_VALUE: parse_tcfile:tcfile_in <- $r14
	#DEBUG_VALUE: parse_tcfile:h <- [DW_OP_plus_uconst 16, DW_OP_deref] $rsp
	#DEBUG_VALUE: parse_tcfile:info <- [DW_OP_plus_uconst 96, DW_OP_deref] $rsp
	#DEBUG_VALUE: parse_tcfile:timecodes <- 0
	#DEBUG_VALUE: parse_tcfile:fpss <- 0
	#DEBUG_VALUE: parse_tcfile:num <- $ebx
	#DEBUG_VALUE: parse_tcfile:num <- undef
	#DEBUG_VALUE: file_pos <- $r15
	.loc	0 249 16                        # x264_src/input/timecode.c:249:16
	movq	%r12, %rdi
	movl	$256, %esi                      # imm = 0x100
	movq	%r14, %rdx
	callq	fgets@PLT
.Ltmp107:
	.loc	0 249 55 is_stmt 0              # x264_src/input/timecode.c:249:55
	testq	%rax, %rax
	.loc	0 249 9                         # x264_src/input/timecode.c:249:9
	jne	.LBB0_40
	jmp	.LBB0_48
.Ltmp108:
.LBB0_46:                               # %if.then372.i
                                        #   in Loop: Header=BB0_40 Depth=1
	#DEBUG_VALUE: open_file:psz_filename <- [DW_OP_LLVM_entry_value 1] $rdi
	#DEBUG_VALUE: open_file:p_handle <- [DW_OP_LLVM_entry_value 1] $rsi
	#DEBUG_VALUE: open_file:info <- [DW_OP_plus_uconst 96] [$rsp+0]
	#DEBUG_VALUE: open_file:opt <- [DW_OP_LLVM_entry_value 1] $rcx
	#DEBUG_VALUE: open_file:h <- [DW_OP_plus_uconst 16, DW_OP_deref] $rsp
	#DEBUG_VALUE: open_file:tcfile_in <- $r14
	#DEBUG_VALUE: parse_tcfile:tcfile_in <- $r14
	#DEBUG_VALUE: parse_tcfile:h <- [DW_OP_plus_uconst 16, DW_OP_deref] $rsp
	#DEBUG_VALUE: parse_tcfile:info <- [DW_OP_plus_uconst 96, DW_OP_deref] $rsp
	#DEBUG_VALUE: parse_tcfile:timecodes <- 0
	#DEBUG_VALUE: parse_tcfile:fpss <- 0
	#DEBUG_VALUE: file_pos <- $r15
	#DEBUG_VALUE: parse_tcfile:num <- $ebx
	.loc	0 253 22 is_stmt 1              # x264_src/input/timecode.c:253:22
	testl	%ebx, %ebx
.Ltmp109:
	.loc	0 253 21 is_stmt 0              # x264_src/input/timecode.c:253:21
	jne	.LBB0_45
.Ltmp110:
# %bb.47:                               # %if.then374.i
                                        #   in Loop: Header=BB0_40 Depth=1
	#DEBUG_VALUE: open_file:psz_filename <- [DW_OP_LLVM_entry_value 1] $rdi
	#DEBUG_VALUE: open_file:p_handle <- [DW_OP_LLVM_entry_value 1] $rsi
	#DEBUG_VALUE: open_file:info <- [DW_OP_plus_uconst 96] [$rsp+0]
	#DEBUG_VALUE: open_file:opt <- [DW_OP_LLVM_entry_value 1] $rcx
	#DEBUG_VALUE: open_file:h <- [DW_OP_plus_uconst 16, DW_OP_deref] $rsp
	#DEBUG_VALUE: open_file:tcfile_in <- $r14
	#DEBUG_VALUE: parse_tcfile:tcfile_in <- $r14
	#DEBUG_VALUE: parse_tcfile:h <- [DW_OP_plus_uconst 16, DW_OP_deref] $rsp
	#DEBUG_VALUE: parse_tcfile:info <- [DW_OP_plus_uconst 96, DW_OP_deref] $rsp
	#DEBUG_VALUE: parse_tcfile:timecodes <- 0
	#DEBUG_VALUE: parse_tcfile:fpss <- 0
	#DEBUG_VALUE: file_pos <- $r15
	#DEBUG_VALUE: parse_tcfile:num <- $ebx
	.loc	0 254 32 is_stmt 1              # x264_src/input/timecode.c:254:32
	movq	%r14, %rdi
	callq	ftell@PLT
.Ltmp111:
	movq	%rax, %r15
.Ltmp112:
	#DEBUG_VALUE: file_pos <- $r15
	.loc	0 0 32 is_stmt 0                # x264_src/input/timecode.c:0:32
	jmp	.LBB0_45
.Ltmp113:
.LBB0_48:                               # %while.end.i
	#DEBUG_VALUE: open_file:psz_filename <- [DW_OP_LLVM_entry_value 1] $rdi
	#DEBUG_VALUE: open_file:p_handle <- [DW_OP_LLVM_entry_value 1] $rsi
	#DEBUG_VALUE: open_file:info <- [DW_OP_plus_uconst 96] [$rsp+0]
	#DEBUG_VALUE: open_file:opt <- [DW_OP_LLVM_entry_value 1] $rcx
	#DEBUG_VALUE: open_file:h <- [DW_OP_plus_uconst 16, DW_OP_deref] $rsp
	#DEBUG_VALUE: open_file:tcfile_in <- $r14
	#DEBUG_VALUE: parse_tcfile:tcfile_in <- $r14
	#DEBUG_VALUE: parse_tcfile:h <- [DW_OP_plus_uconst 16, DW_OP_deref] $rsp
	#DEBUG_VALUE: parse_tcfile:info <- [DW_OP_plus_uconst 96, DW_OP_deref] $rsp
	#DEBUG_VALUE: parse_tcfile:timecodes <- 0
	#DEBUG_VALUE: parse_tcfile:fpss <- 0
	#DEBUG_VALUE: file_pos <- $r15
	.loc	0 261 28 is_stmt 1              # x264_src/input/timecode.c:261:28
	movslq	100(%rbp), %rax
	.loc	0 261 48 is_stmt 0              # x264_src/input/timecode.c:261:48
	movslq	96(%rbp), %rbx
	.loc	0 261 43                        # x264_src/input/timecode.c:261:43
	addq	%rax, %rbx
.Ltmp114:
	#DEBUG_VALUE: parse_tcfile:timecodes_num <- $ebx
	.loc	0 262 14 is_stmt 1              # x264_src/input/timecode.c:262:14
	testl	%ebx, %ebx
.Ltmp115:
	.loc	0 262 13 is_stmt 0              # x264_src/input/timecode.c:262:13
	je	.LBB0_174
.Ltmp116:
# %bb.49:                               # %if.end392.i
	#DEBUG_VALUE: open_file:psz_filename <- [DW_OP_LLVM_entry_value 1] $rdi
	#DEBUG_VALUE: open_file:p_handle <- [DW_OP_LLVM_entry_value 1] $rsi
	#DEBUG_VALUE: open_file:info <- [DW_OP_plus_uconst 96] [$rsp+0]
	#DEBUG_VALUE: open_file:opt <- [DW_OP_LLVM_entry_value 1] $rcx
	#DEBUG_VALUE: open_file:h <- [DW_OP_plus_uconst 16, DW_OP_deref] $rsp
	#DEBUG_VALUE: open_file:tcfile_in <- $r14
	#DEBUG_VALUE: parse_tcfile:tcfile_in <- $r14
	#DEBUG_VALUE: parse_tcfile:h <- [DW_OP_plus_uconst 16, DW_OP_deref] $rsp
	#DEBUG_VALUE: parse_tcfile:info <- [DW_OP_plus_uconst 96, DW_OP_deref] $rsp
	#DEBUG_VALUE: parse_tcfile:timecodes <- 0
	#DEBUG_VALUE: parse_tcfile:fpss <- 0
	#DEBUG_VALUE: file_pos <- $r15
	#DEBUG_VALUE: parse_tcfile:timecodes_num <- $ebx
	.loc	0 267 9 is_stmt 1               # x264_src/input/timecode.c:267:9
	movq	%r14, %rdi
	movq	%r15, %rsi
	xorl	%edx, %edx
	callq	fseek@PLT
.Ltmp117:
	.loc	0 269 43                        # x264_src/input/timecode.c:269:43
	leaq	(,%rbx,8), %rdi
	.loc	0 269 21 is_stmt 0              # x264_src/input/timecode.c:269:21
	callq	malloc@PLT
.Ltmp118:
	#DEBUG_VALUE: parse_tcfile:timecodes <- $rax
	.loc	0 270 14 is_stmt 1              # x264_src/input/timecode.c:270:14
	testq	%rax, %rax
.Ltmp119:
	.loc	0 270 13 is_stmt 0              # x264_src/input/timecode.c:270:13
	je	.LBB0_193
.Ltmp120:
# %bb.50:                               # %if.end399.i
	#DEBUG_VALUE: open_file:psz_filename <- [DW_OP_LLVM_entry_value 1] $rdi
	#DEBUG_VALUE: open_file:p_handle <- [DW_OP_LLVM_entry_value 1] $rsi
	#DEBUG_VALUE: open_file:info <- [DW_OP_plus_uconst 96] [$rsp+0]
	#DEBUG_VALUE: open_file:opt <- [DW_OP_LLVM_entry_value 1] $rcx
	#DEBUG_VALUE: open_file:h <- [DW_OP_plus_uconst 16, DW_OP_deref] $rsp
	#DEBUG_VALUE: open_file:tcfile_in <- $r14
	#DEBUG_VALUE: parse_tcfile:tcfile_in <- $r14
	#DEBUG_VALUE: parse_tcfile:h <- [DW_OP_plus_uconst 16, DW_OP_deref] $rsp
	#DEBUG_VALUE: parse_tcfile:info <- [DW_OP_plus_uconst 96, DW_OP_deref] $rsp
	#DEBUG_VALUE: parse_tcfile:timecodes <- $rax
	#DEBUG_VALUE: parse_tcfile:fpss <- 0
	#DEBUG_VALUE: file_pos <- $r15
	#DEBUG_VALUE: parse_tcfile:timecodes_num <- $ebx
	.loc	0 0 0                           # x264_src/input/timecode.c:0:0
	movq	%rax, %r12
	leaq	128(%rsp), %r15
.Ltmp121:
	.loc	0 273 9 is_stmt 1               # x264_src/input/timecode.c:273:9
	movq	%r15, %rdi
	movl	$256, %esi                      # imm = 0x100
	movq	%r14, %rdx
	callq	fgets@PLT
.Ltmp122:
	#DEBUG_VALUE: parse_tcfile:timecodes <- $r12
	.loc	0 274 15                        # x264_src/input/timecode.c:274:15
	movl	$.L.str.17, %esi
	movq	%r15, %rdi
	movq	%r12, %rdx
	xorl	%eax, %eax
	callq	__isoc99_sscanf@PLT
.Ltmp123:
	#DEBUG_VALUE: parse_tcfile:ret <- $eax
	.loc	0 275 17                        # x264_src/input/timecode.c:275:17
	cmpl	$1, %eax
.Ltmp124:
	.loc	0 275 13 is_stmt 0              # x264_src/input/timecode.c:275:13
	jne	.LBB0_181
.Ltmp125:
# %bb.51:                               # %for.cond410.preheader.i
	#DEBUG_VALUE: open_file:psz_filename <- [DW_OP_LLVM_entry_value 1] $rdi
	#DEBUG_VALUE: open_file:p_handle <- [DW_OP_LLVM_entry_value 1] $rsi
	#DEBUG_VALUE: open_file:info <- [DW_OP_plus_uconst 96] [$rsp+0]
	#DEBUG_VALUE: open_file:opt <- [DW_OP_LLVM_entry_value 1] $rcx
	#DEBUG_VALUE: open_file:h <- [DW_OP_plus_uconst 16, DW_OP_deref] $rsp
	#DEBUG_VALUE: open_file:tcfile_in <- $r14
	#DEBUG_VALUE: parse_tcfile:tcfile_in <- $r14
	#DEBUG_VALUE: parse_tcfile:h <- [DW_OP_plus_uconst 16, DW_OP_deref] $rsp
	#DEBUG_VALUE: parse_tcfile:info <- [DW_OP_plus_uconst 96, DW_OP_deref] $rsp
	#DEBUG_VALUE: parse_tcfile:timecodes <- $r12
	#DEBUG_VALUE: parse_tcfile:fpss <- 0
	#DEBUG_VALUE: parse_tcfile:ret <- $eax
	#DEBUG_VALUE: parse_tcfile:timecodes_num <- $ebx
	.loc	0 0 13                          # x264_src/input/timecode.c:0:13
	movq	%rbx, 24(%rsp)                  # 8-byte Spill
.Ltmp126:
	#DEBUG_VALUE: parse_tcfile:timecodes_num <- [DW_OP_plus_uconst 24, DW_OP_deref] $rsp
	cmpl	$2, %ebx
.Ltmp127:
	.loc	0 280 9 is_stmt 1               # x264_src/input/timecode.c:280:9
	jl	.LBB0_61
.Ltmp128:
# %bb.52:                               # %for.body413.lr.ph.preheader.i
	#DEBUG_VALUE: open_file:psz_filename <- [DW_OP_LLVM_entry_value 1] $rdi
	#DEBUG_VALUE: open_file:p_handle <- [DW_OP_LLVM_entry_value 1] $rsi
	#DEBUG_VALUE: open_file:info <- [DW_OP_plus_uconst 96] [$rsp+0]
	#DEBUG_VALUE: open_file:opt <- [DW_OP_LLVM_entry_value 1] $rcx
	#DEBUG_VALUE: open_file:h <- [DW_OP_plus_uconst 16, DW_OP_deref] $rsp
	#DEBUG_VALUE: open_file:tcfile_in <- $r14
	#DEBUG_VALUE: parse_tcfile:tcfile_in <- $r14
	#DEBUG_VALUE: parse_tcfile:h <- [DW_OP_plus_uconst 16, DW_OP_deref] $rsp
	#DEBUG_VALUE: parse_tcfile:info <- [DW_OP_plus_uconst 96, DW_OP_deref] $rsp
	#DEBUG_VALUE: parse_tcfile:timecodes <- $r12
	#DEBUG_VALUE: parse_tcfile:fpss <- 0
	#DEBUG_VALUE: parse_tcfile:ret <- $eax
	#DEBUG_VALUE: parse_tcfile:timecodes_num <- [DW_OP_plus_uconst 24, DW_OP_deref] $rsp
	.loc	0 0 9 is_stmt 0                 # x264_src/input/timecode.c:0:9
	movl	24(%rsp), %eax                  # 4-byte Reload
.Ltmp129:
	movq	%rax, 48(%rsp)                  # 8-byte Spill
	movb	$1, %al
	movl	$1, %r15d
	leaq	128(%rsp), %r13
	movabsq	$34359747584, %rbx              # imm = 0x800002400
.Ltmp130:
	.p2align	4, 0x90
.LBB0_53:                               # %for.body413.lr.ph.i
                                        # =>This Loop Header: Depth=1
                                        #     Child Loop BB0_54 Depth 2
	#DEBUG_VALUE: open_file:psz_filename <- [DW_OP_LLVM_entry_value 1] $rdi
	#DEBUG_VALUE: open_file:p_handle <- [DW_OP_LLVM_entry_value 1] $rsi
	#DEBUG_VALUE: open_file:info <- [DW_OP_plus_uconst 96] [$rsp+0]
	#DEBUG_VALUE: open_file:opt <- [DW_OP_LLVM_entry_value 1] $rcx
	#DEBUG_VALUE: open_file:h <- [DW_OP_plus_uconst 16, DW_OP_deref] $rsp
	#DEBUG_VALUE: open_file:tcfile_in <- $r14
	#DEBUG_VALUE: parse_tcfile:tcfile_in <- $r14
	#DEBUG_VALUE: parse_tcfile:h <- [DW_OP_plus_uconst 16, DW_OP_deref] $rsp
	#DEBUG_VALUE: parse_tcfile:info <- [DW_OP_plus_uconst 96, DW_OP_deref] $rsp
	#DEBUG_VALUE: parse_tcfile:timecodes <- $r12
	#DEBUG_VALUE: parse_tcfile:fpss <- 0
	#DEBUG_VALUE: parse_tcfile:timecodes_num <- [DW_OP_plus_uconst 24, DW_OP_deref] $rsp
	#DEBUG_VALUE: parse_tcfile:num <- $r15
	testb	$1, %al
	je	.LBB0_56
.Ltmp131:
	.p2align	4, 0x90
.LBB0_54:                               # %for.body413.us.i
                                        #   Parent Loop BB0_53 Depth=1
                                        # =>  This Inner Loop Header: Depth=2
	#DEBUG_VALUE: open_file:psz_filename <- [DW_OP_LLVM_entry_value 1] $rdi
	#DEBUG_VALUE: open_file:p_handle <- [DW_OP_LLVM_entry_value 1] $rsi
	#DEBUG_VALUE: open_file:info <- [DW_OP_plus_uconst 96] [$rsp+0]
	#DEBUG_VALUE: open_file:opt <- [DW_OP_LLVM_entry_value 1] $rcx
	#DEBUG_VALUE: open_file:h <- [DW_OP_plus_uconst 16, DW_OP_deref] $rsp
	#DEBUG_VALUE: open_file:tcfile_in <- $r14
	#DEBUG_VALUE: parse_tcfile:tcfile_in <- $r14
	#DEBUG_VALUE: parse_tcfile:h <- [DW_OP_plus_uconst 16, DW_OP_deref] $rsp
	#DEBUG_VALUE: parse_tcfile:info <- [DW_OP_plus_uconst 96, DW_OP_deref] $rsp
	#DEBUG_VALUE: parse_tcfile:timecodes <- $r12
	#DEBUG_VALUE: parse_tcfile:fpss <- 0
	#DEBUG_VALUE: parse_tcfile:num <- $r15
	#DEBUG_VALUE: parse_tcfile:timecodes_num <- [DW_OP_plus_uconst 24, DW_OP_deref] $rsp
	.loc	0 282 13 is_stmt 1              # x264_src/input/timecode.c:282:13
	movq	%r13, %rdi
	movl	$256, %esi                      # imm = 0x100
	movq	%r14, %rdx
	callq	fgets@PLT
.Ltmp132:
	.loc	0 283 17                        # x264_src/input/timecode.c:283:17
	movzbl	128(%rsp), %eax
	cmpq	$35, %rax
	.loc	0 283 32 is_stmt 0              # x264_src/input/timecode.c:283:32
	ja	.LBB0_58
.Ltmp133:
# %bb.55:                               # %for.body413.us.i
                                        #   in Loop: Header=BB0_54 Depth=2
	#DEBUG_VALUE: open_file:psz_filename <- [DW_OP_LLVM_entry_value 1] $rdi
	#DEBUG_VALUE: open_file:p_handle <- [DW_OP_LLVM_entry_value 1] $rsi
	#DEBUG_VALUE: open_file:info <- [DW_OP_plus_uconst 96] [$rsp+0]
	#DEBUG_VALUE: open_file:opt <- [DW_OP_LLVM_entry_value 1] $rcx
	#DEBUG_VALUE: open_file:h <- [DW_OP_plus_uconst 16, DW_OP_deref] $rsp
	#DEBUG_VALUE: open_file:tcfile_in <- $r14
	#DEBUG_VALUE: parse_tcfile:tcfile_in <- $r14
	#DEBUG_VALUE: parse_tcfile:h <- [DW_OP_plus_uconst 16, DW_OP_deref] $rsp
	#DEBUG_VALUE: parse_tcfile:info <- [DW_OP_plus_uconst 96, DW_OP_deref] $rsp
	#DEBUG_VALUE: parse_tcfile:timecodes <- $r12
	#DEBUG_VALUE: parse_tcfile:fpss <- 0
	#DEBUG_VALUE: parse_tcfile:num <- $r15
	#DEBUG_VALUE: parse_tcfile:timecodes_num <- [DW_OP_plus_uconst 24, DW_OP_deref] $rsp
	.loc	0 0 32                          # x264_src/input/timecode.c:0:32
	btq	%rax, %rbx
	jb	.LBB0_54
	jmp	.LBB0_58
.Ltmp134:
	.p2align	4, 0x90
.LBB0_56:                               # %for.body413.lr.ph.split.i
                                        #   in Loop: Header=BB0_53 Depth=1
	#DEBUG_VALUE: open_file:psz_filename <- [DW_OP_LLVM_entry_value 1] $rdi
	#DEBUG_VALUE: open_file:p_handle <- [DW_OP_LLVM_entry_value 1] $rsi
	#DEBUG_VALUE: open_file:info <- [DW_OP_plus_uconst 96] [$rsp+0]
	#DEBUG_VALUE: open_file:opt <- [DW_OP_LLVM_entry_value 1] $rcx
	#DEBUG_VALUE: open_file:h <- [DW_OP_plus_uconst 16, DW_OP_deref] $rsp
	#DEBUG_VALUE: open_file:tcfile_in <- $r14
	#DEBUG_VALUE: parse_tcfile:tcfile_in <- $r14
	#DEBUG_VALUE: parse_tcfile:h <- [DW_OP_plus_uconst 16, DW_OP_deref] $rsp
	#DEBUG_VALUE: parse_tcfile:info <- [DW_OP_plus_uconst 96, DW_OP_deref] $rsp
	#DEBUG_VALUE: parse_tcfile:timecodes <- $r12
	#DEBUG_VALUE: parse_tcfile:fpss <- 0
	#DEBUG_VALUE: parse_tcfile:num <- $r15
	#DEBUG_VALUE: parse_tcfile:timecodes_num <- [DW_OP_plus_uconst 24, DW_OP_deref] $rsp
	.loc	0 282 13 is_stmt 1              # x264_src/input/timecode.c:282:13
	movq	%r13, %rdi
	movl	$256, %esi                      # imm = 0x100
	movq	%r14, %rdx
	callq	fgets@PLT
.Ltmp135:
	.loc	0 283 17                        # x264_src/input/timecode.c:283:17
	movzbl	128(%rsp), %eax
	cmpq	$35, %rax
	.loc	0 283 32 is_stmt 0              # x264_src/input/timecode.c:283:32
	ja	.LBB0_58
.Ltmp136:
# %bb.57:                               # %for.body413.lr.ph.split.i
                                        #   in Loop: Header=BB0_53 Depth=1
	#DEBUG_VALUE: open_file:psz_filename <- [DW_OP_LLVM_entry_value 1] $rdi
	#DEBUG_VALUE: open_file:p_handle <- [DW_OP_LLVM_entry_value 1] $rsi
	#DEBUG_VALUE: open_file:info <- [DW_OP_plus_uconst 96] [$rsp+0]
	#DEBUG_VALUE: open_file:opt <- [DW_OP_LLVM_entry_value 1] $rcx
	#DEBUG_VALUE: open_file:h <- [DW_OP_plus_uconst 16, DW_OP_deref] $rsp
	#DEBUG_VALUE: open_file:tcfile_in <- $r14
	#DEBUG_VALUE: parse_tcfile:tcfile_in <- $r14
	#DEBUG_VALUE: parse_tcfile:h <- [DW_OP_plus_uconst 16, DW_OP_deref] $rsp
	#DEBUG_VALUE: parse_tcfile:info <- [DW_OP_plus_uconst 96, DW_OP_deref] $rsp
	#DEBUG_VALUE: parse_tcfile:timecodes <- $r12
	#DEBUG_VALUE: parse_tcfile:fpss <- 0
	#DEBUG_VALUE: parse_tcfile:num <- $r15
	#DEBUG_VALUE: parse_tcfile:timecodes_num <- [DW_OP_plus_uconst 24, DW_OP_deref] $rsp
	.loc	0 0 32                          # x264_src/input/timecode.c:0:32
	btq	%rax, %rbx
	jb	.LBB0_61
.Ltmp137:
.LBB0_58:                               # %if.end431.i
                                        #   in Loop: Header=BB0_53 Depth=1
	#DEBUG_VALUE: open_file:psz_filename <- [DW_OP_LLVM_entry_value 1] $rdi
	#DEBUG_VALUE: open_file:p_handle <- [DW_OP_LLVM_entry_value 1] $rsi
	#DEBUG_VALUE: open_file:info <- [DW_OP_plus_uconst 96] [$rsp+0]
	#DEBUG_VALUE: open_file:opt <- [DW_OP_LLVM_entry_value 1] $rcx
	#DEBUG_VALUE: open_file:h <- [DW_OP_plus_uconst 16, DW_OP_deref] $rsp
	#DEBUG_VALUE: open_file:tcfile_in <- $r14
	#DEBUG_VALUE: parse_tcfile:tcfile_in <- $r14
	#DEBUG_VALUE: parse_tcfile:h <- [DW_OP_plus_uconst 16, DW_OP_deref] $rsp
	#DEBUG_VALUE: parse_tcfile:info <- [DW_OP_plus_uconst 96, DW_OP_deref] $rsp
	#DEBUG_VALUE: parse_tcfile:timecodes <- $r12
	#DEBUG_VALUE: parse_tcfile:fpss <- 0
	#DEBUG_VALUE: parse_tcfile:num <- $r15
	#DEBUG_VALUE: parse_tcfile:timecodes_num <- [DW_OP_plus_uconst 24, DW_OP_deref] $rsp
	.loc	0 285 41 is_stmt 1              # x264_src/input/timecode.c:285:41
	leaq	(%r12,%r15,8), %rbp
	.loc	0 285 19 is_stmt 0              # x264_src/input/timecode.c:285:19
	movl	$.L.str.17, %esi
	movq	%r13, %rdi
	movq	%rbp, %rdx
	xorl	%eax, %eax
	callq	__isoc99_sscanf@PLT
.Ltmp138:
	#DEBUG_VALUE: parse_tcfile:ret <- $eax
	.loc	0 0 19                          # x264_src/input/timecode.c:0:19
	movsd	(%r12,%r15,8), %xmm0            # xmm0 = mem[0],zero
	.loc	0 286 28 is_stmt 1              # x264_src/input/timecode.c:286:28
	mulsd	.LCPI0_0(%rip), %xmm0
	movsd	%xmm0, (%r12,%r15,8)
.Ltmp139:
	.loc	0 287 21                        # x264_src/input/timecode.c:287:21
	cmpl	$1, %eax
	.loc	0 287 26 is_stmt 0              # x264_src/input/timecode.c:287:26
	jne	.LBB0_185
.Ltmp140:
# %bb.59:                               # %lor.lhs.false441.i
                                        #   in Loop: Header=BB0_53 Depth=1
	#DEBUG_VALUE: open_file:psz_filename <- [DW_OP_LLVM_entry_value 1] $rdi
	#DEBUG_VALUE: open_file:p_handle <- [DW_OP_LLVM_entry_value 1] $rsi
	#DEBUG_VALUE: open_file:info <- [DW_OP_plus_uconst 96] [$rsp+0]
	#DEBUG_VALUE: open_file:opt <- [DW_OP_LLVM_entry_value 1] $rcx
	#DEBUG_VALUE: open_file:h <- [DW_OP_plus_uconst 16, DW_OP_deref] $rsp
	#DEBUG_VALUE: open_file:tcfile_in <- $r14
	#DEBUG_VALUE: parse_tcfile:tcfile_in <- $r14
	#DEBUG_VALUE: parse_tcfile:h <- [DW_OP_plus_uconst 16, DW_OP_deref] $rsp
	#DEBUG_VALUE: parse_tcfile:info <- [DW_OP_plus_uconst 96, DW_OP_deref] $rsp
	#DEBUG_VALUE: parse_tcfile:timecodes <- $r12
	#DEBUG_VALUE: parse_tcfile:fpss <- 0
	#DEBUG_VALUE: parse_tcfile:ret <- $eax
	#DEBUG_VALUE: parse_tcfile:num <- $r15
	#DEBUG_VALUE: parse_tcfile:timecodes_num <- [DW_OP_plus_uconst 24, DW_OP_deref] $rsp
	.loc	0 287 47                        # x264_src/input/timecode.c:287:47
	movsd	-8(%rbp), %xmm1                 # xmm1 = mem[0],zero
	.loc	0 287 44                        # x264_src/input/timecode.c:287:44
	ucomisd	%xmm0, %xmm1
.Ltmp141:
	.loc	0 287 17                        # x264_src/input/timecode.c:287:17
	jae	.LBB0_185
.Ltmp142:
# %bb.60:                               # %if.end451.i
                                        #   in Loop: Header=BB0_53 Depth=1
	#DEBUG_VALUE: open_file:psz_filename <- [DW_OP_LLVM_entry_value 1] $rdi
	#DEBUG_VALUE: open_file:p_handle <- [DW_OP_LLVM_entry_value 1] $rsi
	#DEBUG_VALUE: open_file:info <- [DW_OP_plus_uconst 96] [$rsp+0]
	#DEBUG_VALUE: open_file:opt <- [DW_OP_LLVM_entry_value 1] $rcx
	#DEBUG_VALUE: open_file:h <- [DW_OP_plus_uconst 16, DW_OP_deref] $rsp
	#DEBUG_VALUE: open_file:tcfile_in <- $r14
	#DEBUG_VALUE: parse_tcfile:tcfile_in <- $r14
	#DEBUG_VALUE: parse_tcfile:h <- [DW_OP_plus_uconst 16, DW_OP_deref] $rsp
	#DEBUG_VALUE: parse_tcfile:info <- [DW_OP_plus_uconst 96, DW_OP_deref] $rsp
	#DEBUG_VALUE: parse_tcfile:timecodes <- $r12
	#DEBUG_VALUE: parse_tcfile:fpss <- 0
	#DEBUG_VALUE: parse_tcfile:ret <- $eax
	#DEBUG_VALUE: parse_tcfile:num <- $r15
	#DEBUG_VALUE: parse_tcfile:timecodes_num <- [DW_OP_plus_uconst 24, DW_OP_deref] $rsp
	.loc	0 292 13 is_stmt 1              # x264_src/input/timecode.c:292:13
	incq	%r15
.Ltmp143:
	#DEBUG_VALUE: parse_tcfile:num <- $r15
	.loc	0 0 13 is_stmt 0                # x264_src/input/timecode.c:0:13
	cmpq	24(%rsp), %r15                  # 8-byte Folded Reload
	setl	%al
.Ltmp144:
	cmpq	48(%rsp), %r15                  # 8-byte Folded Reload
	movq	16(%rsp), %rbp                  # 8-byte Reload
.Ltmp145:
	.loc	0 280 9 is_stmt 1               # x264_src/input/timecode.c:280:9
	jne	.LBB0_53
.Ltmp146:
.LBB0_61:                               # %for.end453.i
	#DEBUG_VALUE: open_file:psz_filename <- [DW_OP_LLVM_entry_value 1] $rdi
	#DEBUG_VALUE: open_file:p_handle <- [DW_OP_LLVM_entry_value 1] $rsi
	#DEBUG_VALUE: open_file:info <- [DW_OP_plus_uconst 96] [$rsp+0]
	#DEBUG_VALUE: open_file:opt <- [DW_OP_LLVM_entry_value 1] $rcx
	#DEBUG_VALUE: open_file:h <- [DW_OP_plus_uconst 16, DW_OP_deref] $rsp
	#DEBUG_VALUE: open_file:tcfile_in <- $r14
	#DEBUG_VALUE: parse_tcfile:tcfile_in <- $r14
	#DEBUG_VALUE: parse_tcfile:h <- [DW_OP_plus_uconst 16, DW_OP_deref] $rsp
	#DEBUG_VALUE: parse_tcfile:info <- [DW_OP_plus_uconst 96, DW_OP_deref] $rsp
	#DEBUG_VALUE: parse_tcfile:timecodes <- $r12
	#DEBUG_VALUE: parse_tcfile:fpss <- 0
	#DEBUG_VALUE: parse_tcfile:timecodes_num <- [DW_OP_plus_uconst 24, DW_OP_deref] $rsp
	.loc	0 0 9 is_stmt 0                 # x264_src/input/timecode.c:0:9
	movq	24(%rsp), %r13                  # 8-byte Reload
.Ltmp147:
	.loc	0 295 27 is_stmt 1              # x264_src/input/timecode.c:295:27
	cmpl	$1, %r13d
.Ltmp148:
	.loc	0 295 13 is_stmt 0              # x264_src/input/timecode.c:295:13
	jne	.LBB0_71
.Ltmp149:
# %bb.62:                               # %if.end555.thread.i
	#DEBUG_VALUE: open_file:psz_filename <- [DW_OP_LLVM_entry_value 1] $rdi
	#DEBUG_VALUE: open_file:p_handle <- [DW_OP_LLVM_entry_value 1] $rsi
	#DEBUG_VALUE: open_file:info <- [DW_OP_plus_uconst 96] [$rsp+0]
	#DEBUG_VALUE: open_file:opt <- [DW_OP_LLVM_entry_value 1] $rcx
	#DEBUG_VALUE: open_file:h <- [DW_OP_plus_uconst 16, DW_OP_deref] $rsp
	#DEBUG_VALUE: open_file:tcfile_in <- $r14
	#DEBUG_VALUE: parse_tcfile:tcfile_in <- $r14
	#DEBUG_VALUE: parse_tcfile:h <- [DW_OP_plus_uconst 16, DW_OP_deref] $rsp
	#DEBUG_VALUE: parse_tcfile:info <- [DW_OP_plus_uconst 96, DW_OP_deref] $rsp
	#DEBUG_VALUE: parse_tcfile:timecodes <- $r12
	#DEBUG_VALUE: parse_tcfile:fpss <- 0
	#DEBUG_VALUE: parse_tcfile:timecodes_num <- [DW_OP_plus_uconst 24, DW_OP_deref] $rsp
	.loc	0 0 13                          # x264_src/input/timecode.c:0:13
	movq	96(%rsp), %rbx                  # 8-byte Reload
.Ltmp150:
	.loc	0 296 37 is_stmt 1              # x264_src/input/timecode.c:296:37
	movl	4(%rbx), %eax
	.loc	0 296 29 is_stmt 0              # x264_src/input/timecode.c:296:29
	movq	%rax, 88(%rbp)
	xorl	%r15d, %r15d
.Ltmp151:
	#DEBUG_VALUE: parse_tcfile:fpss <- 0
	.loc	0 333 13 is_stmt 1              # x264_src/input/timecode.c:333:13
	jmp	.LBB0_107
.Ltmp152:
.LBB0_63:
	#DEBUG_VALUE: open_file:psz_filename <- [DW_OP_LLVM_entry_value 1] $rdi
	#DEBUG_VALUE: open_file:p_handle <- [DW_OP_LLVM_entry_value 1] $rsi
	#DEBUG_VALUE: open_file:info <- [DW_OP_plus_uconst 96] [$rsp+0]
	#DEBUG_VALUE: open_file:opt <- [DW_OP_LLVM_entry_value 1] $rcx
	#DEBUG_VALUE: open_file:h <- [DW_OP_plus_uconst 16, DW_OP_deref] $rsp
	#DEBUG_VALUE: open_file:tcfile_in <- $r14
	#DEBUG_VALUE: end <- [DW_OP_deref] $rsp
	#DEBUG_VALUE: parse_tcfile:tcfile_in <- $r14
	#DEBUG_VALUE: parse_tcfile:h <- [DW_OP_plus_uconst 16, DW_OP_deref] $rsp
	#DEBUG_VALUE: parse_tcfile:info <- [DW_OP_plus_uconst 96, DW_OP_deref] $rsp
	#DEBUG_VALUE: parse_tcfile:timecodes <- 0
	#DEBUG_VALUE: parse_tcfile:fpss <- 0
	#DEBUG_VALUE: parse_tcfile:num <- $r12d
	#DEBUG_VALUE: prev_start <- -1
	#DEBUG_VALUE: prev_end <- -1
	#DEBUG_VALUE: file_pos <- [DW_OP_plus_uconst 112, DW_OP_deref] $rsp
	#DEBUG_VALUE: parse_tcfile:seq_num <- 0
	.loc	0 0 13 is_stmt 0                # x264_src/input/timecode.c:0:13
	movl	$0, 48(%rsp)                    # 4-byte Folded Spill
.Ltmp153:
.LBB0_64:                               # %for.end107.i
	#DEBUG_VALUE: open_file:psz_filename <- [DW_OP_LLVM_entry_value 1] $rdi
	#DEBUG_VALUE: open_file:p_handle <- [DW_OP_LLVM_entry_value 1] $rsi
	#DEBUG_VALUE: open_file:info <- [DW_OP_plus_uconst 96] [$rsp+0]
	#DEBUG_VALUE: open_file:opt <- [DW_OP_LLVM_entry_value 1] $rcx
	#DEBUG_VALUE: open_file:h <- [DW_OP_plus_uconst 16, DW_OP_deref] $rsp
	#DEBUG_VALUE: open_file:tcfile_in <- $r14
	#DEBUG_VALUE: end <- [DW_OP_deref] $rsp
	#DEBUG_VALUE: parse_tcfile:tcfile_in <- $r14
	#DEBUG_VALUE: parse_tcfile:h <- [DW_OP_plus_uconst 16, DW_OP_deref] $rsp
	#DEBUG_VALUE: parse_tcfile:info <- [DW_OP_plus_uconst 96, DW_OP_deref] $rsp
	#DEBUG_VALUE: parse_tcfile:timecodes <- 0
	#DEBUG_VALUE: parse_tcfile:fpss <- 0
	#DEBUG_VALUE: parse_tcfile:num <- $r12d
	#DEBUG_VALUE: file_pos <- [DW_OP_plus_uconst 112, DW_OP_deref] $rsp
	.loc	0 172 48 is_stmt 1              # x264_src/input/timecode.c:172:48
	movl	96(%rbp), %eax
.Ltmp154:
	.loc	0 170 17                        # x264_src/input/timecode.c:170:17
	movl	100(%rbp), %ebx
	.loc	0 170 14 is_stmt 0              # x264_src/input/timecode.c:170:14
	testl	%ebx, %ebx
.Ltmp155:
	.loc	0 170 13                        # x264_src/input/timecode.c:170:13
	jne	.LBB0_66
.Ltmp156:
# %bb.65:                               # %if.then110.i
	#DEBUG_VALUE: open_file:psz_filename <- [DW_OP_LLVM_entry_value 1] $rdi
	#DEBUG_VALUE: open_file:p_handle <- [DW_OP_LLVM_entry_value 1] $rsi
	#DEBUG_VALUE: open_file:info <- [DW_OP_plus_uconst 96] [$rsp+0]
	#DEBUG_VALUE: open_file:opt <- [DW_OP_LLVM_entry_value 1] $rcx
	#DEBUG_VALUE: open_file:h <- [DW_OP_plus_uconst 16, DW_OP_deref] $rsp
	#DEBUG_VALUE: open_file:tcfile_in <- $r14
	#DEBUG_VALUE: end <- [DW_OP_deref] $rsp
	#DEBUG_VALUE: parse_tcfile:tcfile_in <- $r14
	#DEBUG_VALUE: parse_tcfile:h <- [DW_OP_plus_uconst 16, DW_OP_deref] $rsp
	#DEBUG_VALUE: parse_tcfile:info <- [DW_OP_plus_uconst 96, DW_OP_deref] $rsp
	#DEBUG_VALUE: parse_tcfile:timecodes <- 0
	#DEBUG_VALUE: parse_tcfile:fpss <- 0
	#DEBUG_VALUE: parse_tcfile:num <- $r12d
	#DEBUG_VALUE: file_pos <- [DW_OP_plus_uconst 112, DW_OP_deref] $rsp
	.loc	0 171 33 is_stmt 1              # x264_src/input/timecode.c:171:33
	movl	(%rsp), %ebx
	.loc	0 171 41 is_stmt 0              # x264_src/input/timecode.c:171:41
	subl	%eax, %ebx
	incl	%ebx
	.loc	0 171 31                        # x264_src/input/timecode.c:171:31
	movl	%ebx, 100(%rbp)
.Ltmp157:
.LBB0_66:                               # %if.end115.i
	#DEBUG_VALUE: open_file:psz_filename <- [DW_OP_LLVM_entry_value 1] $rdi
	#DEBUG_VALUE: open_file:p_handle <- [DW_OP_LLVM_entry_value 1] $rsi
	#DEBUG_VALUE: open_file:info <- [DW_OP_plus_uconst 96] [$rsp+0]
	#DEBUG_VALUE: open_file:opt <- [DW_OP_LLVM_entry_value 1] $rcx
	#DEBUG_VALUE: open_file:h <- [DW_OP_plus_uconst 16, DW_OP_deref] $rsp
	#DEBUG_VALUE: open_file:tcfile_in <- $r14
	#DEBUG_VALUE: end <- [DW_OP_deref] $rsp
	#DEBUG_VALUE: parse_tcfile:tcfile_in <- $r14
	#DEBUG_VALUE: parse_tcfile:h <- [DW_OP_plus_uconst 16, DW_OP_deref] $rsp
	#DEBUG_VALUE: parse_tcfile:info <- [DW_OP_plus_uconst 96, DW_OP_deref] $rsp
	#DEBUG_VALUE: parse_tcfile:timecodes <- 0
	#DEBUG_VALUE: parse_tcfile:fpss <- 0
	#DEBUG_VALUE: parse_tcfile:num <- $r12d
	#DEBUG_VALUE: file_pos <- [DW_OP_plus_uconst 112, DW_OP_deref] $rsp
	.loc	0 172 43 is_stmt 1              # x264_src/input/timecode.c:172:43
	addl	%eax, %ebx
.Ltmp158:
	#DEBUG_VALUE: parse_tcfile:timecodes_num <- $ebx
	.loc	0 173 9                         # x264_src/input/timecode.c:173:9
	movq	%r14, %rdi
	movq	112(%rsp), %rsi                 # 8-byte Reload
	xorl	%edx, %edx
	callq	fseek@PLT
.Ltmp159:
	.loc	0 175 29                        # x264_src/input/timecode.c:175:29
	movslq	%ebx, %rdi
	.loc	0 175 43 is_stmt 0              # x264_src/input/timecode.c:175:43
	shlq	$3, %rdi
	.loc	0 175 21                        # x264_src/input/timecode.c:175:21
	callq	malloc@PLT
.Ltmp160:
	#DEBUG_VALUE: parse_tcfile:timecodes <- $rax
	.loc	0 176 14 is_stmt 1              # x264_src/input/timecode.c:176:14
	testq	%rax, %rax
.Ltmp161:
	.loc	0 176 13 is_stmt 0              # x264_src/input/timecode.c:176:13
	je	.LBB0_193
.Ltmp162:
# %bb.67:                               # %if.end124.i
	#DEBUG_VALUE: open_file:psz_filename <- [DW_OP_LLVM_entry_value 1] $rdi
	#DEBUG_VALUE: open_file:p_handle <- [DW_OP_LLVM_entry_value 1] $rsi
	#DEBUG_VALUE: open_file:info <- [DW_OP_plus_uconst 96] [$rsp+0]
	#DEBUG_VALUE: open_file:opt <- [DW_OP_LLVM_entry_value 1] $rcx
	#DEBUG_VALUE: open_file:h <- [DW_OP_plus_uconst 16, DW_OP_deref] $rsp
	#DEBUG_VALUE: open_file:tcfile_in <- $r14
	#DEBUG_VALUE: end <- [DW_OP_deref] $rsp
	#DEBUG_VALUE: parse_tcfile:tcfile_in <- $r14
	#DEBUG_VALUE: parse_tcfile:h <- [DW_OP_plus_uconst 16, DW_OP_deref] $rsp
	#DEBUG_VALUE: parse_tcfile:info <- [DW_OP_plus_uconst 96, DW_OP_deref] $rsp
	#DEBUG_VALUE: parse_tcfile:timecodes <- $rax
	#DEBUG_VALUE: parse_tcfile:fpss <- 0
	#DEBUG_VALUE: parse_tcfile:num <- $r12d
	#DEBUG_VALUE: parse_tcfile:timecodes_num <- $ebx
	#DEBUG_VALUE: file_pos <- [DW_OP_plus_uconst 112, DW_OP_deref] $rsp
	.loc	0 0 13                          # x264_src/input/timecode.c:0:13
	movq	%rax, %r12
.Ltmp163:
	movq	40(%rsp), %rax                  # 8-byte Reload
.Ltmp164:
	.loc	0 178 13 is_stmt 1              # x264_src/input/timecode.c:178:13
	cmpl	$0, (%rax)
	.loc	0 178 34 is_stmt 0              # x264_src/input/timecode.c:178:34
	jne	.LBB0_69
.Ltmp165:
# %bb.68:                               # %lor.lhs.false127.i
	#DEBUG_VALUE: open_file:psz_filename <- [DW_OP_LLVM_entry_value 1] $rdi
	#DEBUG_VALUE: open_file:p_handle <- [DW_OP_LLVM_entry_value 1] $rsi
	#DEBUG_VALUE: open_file:info <- [DW_OP_plus_uconst 96] [$rsp+0]
	#DEBUG_VALUE: open_file:opt <- [DW_OP_LLVM_entry_value 1] $rcx
	#DEBUG_VALUE: open_file:h <- [DW_OP_plus_uconst 16, DW_OP_deref] $rsp
	#DEBUG_VALUE: open_file:tcfile_in <- $r14
	#DEBUG_VALUE: end <- [DW_OP_deref] $rsp
	#DEBUG_VALUE: parse_tcfile:tcfile_in <- $r14
	#DEBUG_VALUE: parse_tcfile:h <- [DW_OP_plus_uconst 16, DW_OP_deref] $rsp
	#DEBUG_VALUE: parse_tcfile:info <- [DW_OP_plus_uconst 96, DW_OP_deref] $rsp
	#DEBUG_VALUE: parse_tcfile:timecodes <- $r12
	#DEBUG_VALUE: parse_tcfile:fpss <- 0
	#DEBUG_VALUE: parse_tcfile:timecodes_num <- $ebx
	#DEBUG_VALUE: file_pos <- [DW_OP_plus_uconst 112, DW_OP_deref] $rsp
	.loc	0 0 34                          # x264_src/input/timecode.c:0:34
	movq	88(%rsp), %rax                  # 8-byte Reload
	.loc	0 178 37                        # x264_src/input/timecode.c:178:37
	cmpl	$0, (%rax)
.Ltmp166:
	.loc	0 178 13                        # x264_src/input/timecode.c:178:13
	je	.LBB0_110
.Ltmp167:
.LBB0_69:                               # %if.then130.i
	#DEBUG_VALUE: open_file:psz_filename <- [DW_OP_LLVM_entry_value 1] $rdi
	#DEBUG_VALUE: open_file:p_handle <- [DW_OP_LLVM_entry_value 1] $rsi
	#DEBUG_VALUE: open_file:info <- [DW_OP_plus_uconst 96] [$rsp+0]
	#DEBUG_VALUE: open_file:opt <- [DW_OP_LLVM_entry_value 1] $rcx
	#DEBUG_VALUE: open_file:h <- [DW_OP_plus_uconst 16, DW_OP_deref] $rsp
	#DEBUG_VALUE: open_file:tcfile_in <- $r14
	#DEBUG_VALUE: end <- [DW_OP_deref] $rsp
	#DEBUG_VALUE: parse_tcfile:tcfile_in <- $r14
	#DEBUG_VALUE: parse_tcfile:h <- [DW_OP_plus_uconst 16, DW_OP_deref] $rsp
	#DEBUG_VALUE: parse_tcfile:info <- [DW_OP_plus_uconst 96, DW_OP_deref] $rsp
	#DEBUG_VALUE: parse_tcfile:timecodes <- $r12
	#DEBUG_VALUE: parse_tcfile:fpss <- 0
	#DEBUG_VALUE: parse_tcfile:timecodes_num <- $ebx
	#DEBUG_VALUE: file_pos <- [DW_OP_plus_uconst 112, DW_OP_deref] $rsp
	.loc	0 180 28 is_stmt 1              # x264_src/input/timecode.c:180:28
	movslq	48(%rsp), %rax                  # 4-byte Folded Reload
	leaq	8(,%rax,8), %rdi
	.loc	0 180 20 is_stmt 0              # x264_src/input/timecode.c:180:20
	callq	malloc@PLT
.Ltmp168:
	movq	%rax, %r15
.Ltmp169:
	#DEBUG_VALUE: parse_tcfile:fpss <- $r15
	.loc	0 181 18 is_stmt 1              # x264_src/input/timecode.c:181:18
	testq	%rax, %rax
.Ltmp170:
	.loc	0 181 17 is_stmt 0              # x264_src/input/timecode.c:181:17
	jne	.LBB0_111
.Ltmp171:
# %bb.70:
	#DEBUG_VALUE: open_file:psz_filename <- [DW_OP_LLVM_entry_value 1] $rdi
	#DEBUG_VALUE: open_file:p_handle <- [DW_OP_LLVM_entry_value 1] $rsi
	#DEBUG_VALUE: open_file:info <- [DW_OP_plus_uconst 96] [$rsp+0]
	#DEBUG_VALUE: open_file:opt <- [DW_OP_LLVM_entry_value 1] $rcx
	#DEBUG_VALUE: open_file:h <- [DW_OP_plus_uconst 16, DW_OP_deref] $rsp
	#DEBUG_VALUE: open_file:tcfile_in <- $r14
	#DEBUG_VALUE: end <- [DW_OP_deref] $rsp
	#DEBUG_VALUE: parse_tcfile:tcfile_in <- $r14
	#DEBUG_VALUE: parse_tcfile:h <- [DW_OP_plus_uconst 16, DW_OP_deref] $rsp
	#DEBUG_VALUE: parse_tcfile:info <- [DW_OP_plus_uconst 96, DW_OP_deref] $rsp
	#DEBUG_VALUE: parse_tcfile:timecodes <- $r12
	#DEBUG_VALUE: parse_tcfile:fpss <- $r15
	#DEBUG_VALUE: parse_tcfile:timecodes_num <- $ebx
	#DEBUG_VALUE: file_pos <- [DW_OP_plus_uconst 112, DW_OP_deref] $rsp
	.loc	0 0 17                          # x264_src/input/timecode.c:0:17
	xorl	%r15d, %r15d
.Ltmp172:
	#DEBUG_VALUE: parse_tcfile:fpss <- $rax
	.loc	0 181 17                        # x264_src/input/timecode.c:181:17
	jmp	.LBB0_190
.Ltmp173:
.LBB0_71:                               # %if.else458.i
	#DEBUG_VALUE: open_file:psz_filename <- [DW_OP_LLVM_entry_value 1] $rdi
	#DEBUG_VALUE: open_file:p_handle <- [DW_OP_LLVM_entry_value 1] $rsi
	#DEBUG_VALUE: open_file:info <- [DW_OP_plus_uconst 96] [$rsp+0]
	#DEBUG_VALUE: open_file:opt <- [DW_OP_LLVM_entry_value 1] $rcx
	#DEBUG_VALUE: open_file:h <- [DW_OP_plus_uconst 16, DW_OP_deref] $rsp
	#DEBUG_VALUE: open_file:tcfile_in <- $r14
	#DEBUG_VALUE: parse_tcfile:tcfile_in <- $r14
	#DEBUG_VALUE: parse_tcfile:h <- [DW_OP_plus_uconst 16, DW_OP_deref] $rsp
	#DEBUG_VALUE: parse_tcfile:info <- [DW_OP_plus_uconst 96, DW_OP_deref] $rsp
	#DEBUG_VALUE: parse_tcfile:timecodes <- $r12
	#DEBUG_VALUE: parse_tcfile:fpss <- 0
	#DEBUG_VALUE: parse_tcfile:timecodes_num <- [DW_OP_plus_uconst 24, DW_OP_deref] $rsp
	.loc	0 0 17                          # x264_src/input/timecode.c:0:17
	movq	40(%rsp), %rax                  # 8-byte Reload
.Ltmp174:
	.loc	0 297 18 is_stmt 1              # x264_src/input/timecode.c:297:18
	cmpl	$0, (%rax)
	movq	96(%rsp), %rbx                  # 8-byte Reload
.Ltmp175:
	.loc	0 297 18 is_stmt 0              # x264_src/input/timecode.c:297:18
	je	.LBB0_108
.Ltmp176:
# %bb.72:                               # %if.then461.i
	#DEBUG_VALUE: open_file:psz_filename <- [DW_OP_LLVM_entry_value 1] $rdi
	#DEBUG_VALUE: open_file:p_handle <- [DW_OP_LLVM_entry_value 1] $rsi
	#DEBUG_VALUE: open_file:info <- [DW_OP_plus_uconst 96] [$rsp+0]
	#DEBUG_VALUE: open_file:opt <- [DW_OP_LLVM_entry_value 1] $rcx
	#DEBUG_VALUE: open_file:h <- [DW_OP_plus_uconst 16, DW_OP_deref] $rsp
	#DEBUG_VALUE: open_file:tcfile_in <- $r14
	#DEBUG_VALUE: parse_tcfile:tcfile_in <- $r14
	#DEBUG_VALUE: parse_tcfile:h <- [DW_OP_plus_uconst 16, DW_OP_deref] $rsp
	#DEBUG_VALUE: parse_tcfile:info <- [DW_OP_plus_uconst 96, DW_OP_deref] $rsp
	#DEBUG_VALUE: parse_tcfile:timecodes <- $r12
	#DEBUG_VALUE: parse_tcfile:fpss <- 0
	#DEBUG_VALUE: parse_tcfile:timecodes_num <- [DW_OP_plus_uconst 24, DW_OP_deref] $rsp
	.loc	0 299 28 is_stmt 1              # x264_src/input/timecode.c:299:28
	movslq	%r13d, %rax
	.loc	0 299 48 is_stmt 0              # x264_src/input/timecode.c:299:48
	leaq	-8(,%rax,8), %rdi
	.loc	0 299 20                        # x264_src/input/timecode.c:299:20
	callq	malloc@PLT
.Ltmp177:
	#DEBUG_VALUE: parse_tcfile:fpss <- $rax
	.loc	0 300 18 is_stmt 1              # x264_src/input/timecode.c:300:18
	testq	%rax, %rax
.Ltmp178:
	.loc	0 300 17 is_stmt 0              # x264_src/input/timecode.c:300:17
	je	.LBB0_186
.Ltmp179:
# %bb.73:                               # %for.cond469.preheader.i
	#DEBUG_VALUE: open_file:psz_filename <- [DW_OP_LLVM_entry_value 1] $rdi
	#DEBUG_VALUE: open_file:p_handle <- [DW_OP_LLVM_entry_value 1] $rsi
	#DEBUG_VALUE: open_file:info <- [DW_OP_plus_uconst 96] [$rsp+0]
	#DEBUG_VALUE: open_file:opt <- [DW_OP_LLVM_entry_value 1] $rcx
	#DEBUG_VALUE: open_file:h <- [DW_OP_plus_uconst 16, DW_OP_deref] $rsp
	#DEBUG_VALUE: open_file:tcfile_in <- $r14
	#DEBUG_VALUE: parse_tcfile:tcfile_in <- $r14
	#DEBUG_VALUE: parse_tcfile:h <- [DW_OP_plus_uconst 16, DW_OP_deref] $rsp
	#DEBUG_VALUE: parse_tcfile:info <- [DW_OP_plus_uconst 96, DW_OP_deref] $rsp
	#DEBUG_VALUE: parse_tcfile:timecodes <- $r12
	#DEBUG_VALUE: parse_tcfile:fpss <- $rax
	#DEBUG_VALUE: parse_tcfile:timecodes_num <- [DW_OP_plus_uconst 24, DW_OP_deref] $rsp
	.loc	0 0 17                          # x264_src/input/timecode.c:0:17
	movq	%rax, 64(%rsp)                  # 8-byte Spill
.Ltmp180:
	#DEBUG_VALUE: parse_tcfile:fpss <- [DW_OP_plus_uconst 64, DW_OP_deref] $rsp
	leal	-1(%r13), %eax
	movl	%eax, 32(%rsp)                  # 4-byte Spill
	cmpl	$2, %r13d
.Ltmp181:
	#DEBUG_VALUE: parse_tcfile:num <- 0
	.loc	0 302 13 is_stmt 1              # x264_src/input/timecode.c:302:13
	jl	.LBB0_102
.Ltmp182:
# %bb.74:                               # %for.body473.lr.ph.i
	#DEBUG_VALUE: open_file:psz_filename <- [DW_OP_LLVM_entry_value 1] $rdi
	#DEBUG_VALUE: open_file:p_handle <- [DW_OP_LLVM_entry_value 1] $rsi
	#DEBUG_VALUE: open_file:info <- [DW_OP_plus_uconst 96] [$rsp+0]
	#DEBUG_VALUE: open_file:opt <- [DW_OP_LLVM_entry_value 1] $rcx
	#DEBUG_VALUE: open_file:h <- [DW_OP_plus_uconst 16, DW_OP_deref] $rsp
	#DEBUG_VALUE: open_file:tcfile_in <- $r14
	#DEBUG_VALUE: parse_tcfile:tcfile_in <- $r14
	#DEBUG_VALUE: parse_tcfile:h <- [DW_OP_plus_uconst 16, DW_OP_deref] $rsp
	#DEBUG_VALUE: parse_tcfile:info <- [DW_OP_plus_uconst 96, DW_OP_deref] $rsp
	#DEBUG_VALUE: parse_tcfile:timecodes <- $r12
	#DEBUG_VALUE: parse_tcfile:fpss <- [DW_OP_plus_uconst 64, DW_OP_deref] $rsp
	#DEBUG_VALUE: parse_tcfile:num <- 0
	#DEBUG_VALUE: parse_tcfile:timecodes_num <- [DW_OP_plus_uconst 24, DW_OP_deref] $rsp
	.loc	0 302 31 is_stmt 0              # x264_src/input/timecode.c:302:31
	movl	32(%rsp), %r15d                 # 4-byte Reload
.Ltmp183:
	.loc	0 305 30 is_stmt 1              # x264_src/input/timecode.c:305:30
	movq	88(%rbp), %rax
	xorl	%r13d, %r13d
	movsd	.LCPI0_1(%rip), %xmm1           # xmm1 = [1.0E+0,0.0E+0]
	jmp	.LBB0_76
.Ltmp184:
.LBB0_92:                               # %if.then527.i
                                        #   in Loop: Header=BB0_76 Depth=1
	#DEBUG_VALUE: open_file:psz_filename <- [DW_OP_LLVM_entry_value 1] $rdi
	#DEBUG_VALUE: open_file:p_handle <- [DW_OP_LLVM_entry_value 1] $rsi
	#DEBUG_VALUE: open_file:info <- [DW_OP_plus_uconst 96] [$rsp+0]
	#DEBUG_VALUE: open_file:opt <- [DW_OP_LLVM_entry_value 1] $rcx
	#DEBUG_VALUE: open_file:h <- [DW_OP_plus_uconst 16, DW_OP_deref] $rsp
	#DEBUG_VALUE: open_file:tcfile_in <- $r14
	#DEBUG_VALUE: parse_tcfile:tcfile_in <- $r14
	#DEBUG_VALUE: parse_tcfile:h <- [DW_OP_plus_uconst 16, DW_OP_deref] $rsp
	#DEBUG_VALUE: parse_tcfile:info <- [DW_OP_plus_uconst 96, DW_OP_deref] $rsp
	#DEBUG_VALUE: parse_tcfile:timecodes <- $r12
	#DEBUG_VALUE: parse_tcfile:fpss <- [DW_OP_plus_uconst 64, DW_OP_deref] $rsp
	#DEBUG_VALUE: parse_tcfile:num <- $r13
	#DEBUG_VALUE: parse_tcfile:timecodes_num <- [DW_OP_plus_uconst 24, DW_OP_deref] $rsp
	#DEBUG_VALUE: exponent <- [DW_OP_plus_uconst 72, DW_OP_deref_size 16, DW_OP_stack_value] $rsp
	#DEBUG_VALUE: fps_sig <- [DW_OP_plus_uconst 8, DW_OP_deref_size 16, DW_OP_stack_value] $rsp
	.loc	0 0 30 is_stmt 0                # x264_src/input/timecode.c:0:30
	movq	40(%rsp), %rcx                  # 8-byte Reload
.Ltmp185:
	.loc	0 322 46 is_stmt 1              # x264_src/input/timecode.c:322:46
	movl	$0, (%rcx)
.Ltmp186:
.LBB0_75:                               # %for.inc538.i
                                        #   in Loop: Header=BB0_76 Depth=1
	#DEBUG_VALUE: open_file:psz_filename <- [DW_OP_LLVM_entry_value 1] $rdi
	#DEBUG_VALUE: open_file:p_handle <- [DW_OP_LLVM_entry_value 1] $rsi
	#DEBUG_VALUE: open_file:info <- [DW_OP_plus_uconst 96] [$rsp+0]
	#DEBUG_VALUE: open_file:opt <- [DW_OP_LLVM_entry_value 1] $rcx
	#DEBUG_VALUE: open_file:h <- [DW_OP_plus_uconst 16, DW_OP_deref] $rsp
	#DEBUG_VALUE: open_file:tcfile_in <- $r14
	#DEBUG_VALUE: parse_tcfile:tcfile_in <- $r14
	#DEBUG_VALUE: parse_tcfile:h <- [DW_OP_plus_uconst 16, DW_OP_deref] $rsp
	#DEBUG_VALUE: parse_tcfile:info <- [DW_OP_plus_uconst 96, DW_OP_deref] $rsp
	#DEBUG_VALUE: parse_tcfile:timecodes <- $r12
	#DEBUG_VALUE: parse_tcfile:fpss <- [DW_OP_plus_uconst 64, DW_OP_deref] $rsp
	#DEBUG_VALUE: parse_tcfile:num <- $r13
	#DEBUG_VALUE: parse_tcfile:timecodes_num <- [DW_OP_plus_uconst 24, DW_OP_deref] $rsp
	.loc	0 0 0 is_stmt 0                 # x264_src/input/timecode.c:0:0
	incq	%r13
.Ltmp187:
	#DEBUG_VALUE: parse_tcfile:num <- $r13
	.loc	0 302 31 is_stmt 1              # x264_src/input/timecode.c:302:31
	cmpq	%r15, %r13
.Ltmp188:
	.loc	0 302 13 is_stmt 0              # x264_src/input/timecode.c:302:13
	je	.LBB0_102
.Ltmp189:
.LBB0_76:                               # %for.body473.i
                                        # =>This Loop Header: Depth=1
                                        #     Child Loop BB0_79 Depth 2
                                        #     Child Loop BB0_84 Depth 2
	#DEBUG_VALUE: open_file:psz_filename <- [DW_OP_LLVM_entry_value 1] $rdi
	#DEBUG_VALUE: open_file:p_handle <- [DW_OP_LLVM_entry_value 1] $rsi
	#DEBUG_VALUE: open_file:info <- [DW_OP_plus_uconst 96] [$rsp+0]
	#DEBUG_VALUE: open_file:opt <- [DW_OP_LLVM_entry_value 1] $rcx
	#DEBUG_VALUE: open_file:h <- [DW_OP_plus_uconst 16, DW_OP_deref] $rsp
	#DEBUG_VALUE: open_file:tcfile_in <- $r14
	#DEBUG_VALUE: parse_tcfile:tcfile_in <- $r14
	#DEBUG_VALUE: parse_tcfile:h <- [DW_OP_plus_uconst 16, DW_OP_deref] $rsp
	#DEBUG_VALUE: parse_tcfile:info <- [DW_OP_plus_uconst 96, DW_OP_deref] $rsp
	#DEBUG_VALUE: parse_tcfile:timecodes <- $r12
	#DEBUG_VALUE: parse_tcfile:fpss <- [DW_OP_plus_uconst 64, DW_OP_deref] $rsp
	#DEBUG_VALUE: parse_tcfile:timecodes_num <- [DW_OP_plus_uconst 24, DW_OP_deref] $rsp
	#DEBUG_VALUE: parse_tcfile:num <- $r13
	.loc	0 304 34 is_stmt 1              # x264_src/input/timecode.c:304:34
	movsd	8(%r12,%r13,8), %xmm2           # xmm2 = mem[0],zero
	.loc	0 304 53 is_stmt 0              # x264_src/input/timecode.c:304:53
	subsd	(%r12,%r13,8), %xmm2
	.loc	0 304 31                        # x264_src/input/timecode.c:304:31
	movapd	%xmm1, %xmm0
	divsd	%xmm2, %xmm0
	movq	64(%rsp), %rcx                  # 8-byte Reload
	.loc	0 304 27                        # x264_src/input/timecode.c:304:27
	movsd	%xmm0, (%rcx,%r13,8)
.Ltmp190:
	.loc	0 305 43 is_stmt 1              # x264_src/input/timecode.c:305:43
	testl	%eax, %eax
.Ltmp191:
	.loc	0 305 21 is_stmt 0              # x264_src/input/timecode.c:305:21
	js	.LBB0_75
.Ltmp192:
# %bb.77:                               # %if.then487.i
                                        #   in Loop: Header=BB0_76 Depth=1
	#DEBUG_VALUE: open_file:psz_filename <- [DW_OP_LLVM_entry_value 1] $rdi
	#DEBUG_VALUE: open_file:p_handle <- [DW_OP_LLVM_entry_value 1] $rsi
	#DEBUG_VALUE: open_file:info <- [DW_OP_plus_uconst 96] [$rsp+0]
	#DEBUG_VALUE: open_file:opt <- [DW_OP_LLVM_entry_value 1] $rcx
	#DEBUG_VALUE: open_file:h <- [DW_OP_plus_uconst 16, DW_OP_deref] $rsp
	#DEBUG_VALUE: open_file:tcfile_in <- $r14
	#DEBUG_VALUE: parse_tcfile:tcfile_in <- $r14
	#DEBUG_VALUE: parse_tcfile:h <- [DW_OP_plus_uconst 16, DW_OP_deref] $rsp
	#DEBUG_VALUE: parse_tcfile:info <- [DW_OP_plus_uconst 96, DW_OP_deref] $rsp
	#DEBUG_VALUE: parse_tcfile:timecodes <- $r12
	#DEBUG_VALUE: parse_tcfile:fpss <- [DW_OP_plus_uconst 64, DW_OP_deref] $rsp
	#DEBUG_VALUE: parse_tcfile:num <- $r13
	#DEBUG_VALUE: parse_tcfile:timecodes_num <- [DW_OP_plus_uconst 24, DW_OP_deref] $rsp
	#DEBUG_VALUE: i <- 1
	#DEBUG_VALUE: sigexp10:value <- $xmm0
	#DEBUG_VALUE: sigexp10:exponent <- undef
	.loc	0 0 21                          # x264_src/input/timecode.c:0:21
	movsd	%xmm0, 8(%rsp)                  # 8-byte Spill
.Ltmp193:
	#DEBUG_VALUE: sigexp10:value <- [DW_OP_plus_uconst 8, DW_OP_deref_size 16, DW_OP_stack_value] $rsp
	.loc	0 47 33 is_stmt 1               # x264_src/input/timecode.c:47:33
	callq	log10@PLT
.Ltmp194:
	.loc	0 47 26 is_stmt 0               # x264_src/input/timecode.c:47:26
	callq	floor@PLT
.Ltmp195:
	movapd	%xmm0, %xmm1
	.loc	0 47 17                         # x264_src/input/timecode.c:47:17
	movsd	.LCPI0_2(%rip), %xmm0           # xmm0 = [1.0E+1,0.0E+0]
	callq	pow@PLT
.Ltmp196:
	#DEBUG_VALUE: exponent <- $xmm0
	.loc	0 0 17                          # x264_src/input/timecode.c:0:17
	movsd	%xmm0, 72(%rsp)                 # 8-byte Spill
.Ltmp197:
	#DEBUG_VALUE: exponent <- [DW_OP_plus_uconst 72, DW_OP_deref_size 16, DW_OP_stack_value] $rsp
	movsd	8(%rsp), %xmm2                  # 8-byte Reload
                                        # xmm2 = mem[0],zero
	.loc	0 48 18 is_stmt 1               # x264_src/input/timecode.c:48:18
	divsd	%xmm0, %xmm2
.Ltmp198:
	#DEBUG_VALUE: fps_sig <- $xmm2
	.loc	0 0 18 is_stmt 0                # x264_src/input/timecode.c:0:18
	movq	80(%rbp), %rbx
.Ltmp199:
	.loc	0 314 42 is_stmt 1              # x264_src/input/timecode.c:314:42
	movq	%rbx, %xmm0
	punpckldq	.LCPI0_3(%rip), %xmm0   # xmm0 = xmm0[0],mem[0],xmm0[1],mem[1]
	subpd	.LCPI0_4(%rip), %xmm0
	movapd	%xmm0, %xmm1
	unpckhpd	%xmm0, %xmm1                    # xmm1 = xmm1[1],xmm0[1]
	addsd	%xmm0, %xmm1
	movapd	%xmm2, %xmm0
	movsd	%xmm2, 8(%rsp)                  # 8-byte Spill
.Ltmp200:
	#DEBUG_VALUE: fps_sig <- [DW_OP_plus_uconst 8, DW_OP_deref_size 16, DW_OP_stack_value] $rsp
	#DEBUG_VALUE: sigexp10:value <- undef
	.loc	0 0 42 is_stmt 0                # x264_src/input/timecode.c:0:42
	movapd	%xmm1, 48(%rsp)                 # 16-byte Spill
	.loc	0 314 50                        # x264_src/input/timecode.c:314:50
	mulsd	%xmm1, %xmm0
	.loc	0 314 35                        # x264_src/input/timecode.c:314:35
	callq	round@PLT
.Ltmp201:
	.loc	0 0 35                          # x264_src/input/timecode.c:0:35
	movsd	72(%rsp), %xmm2                 # 8-byte Reload
                                        # xmm2 = mem[0],zero
	.loc	0 314 62                        # x264_src/input/timecode.c:314:62
	mulsd	%xmm2, %xmm0
	.loc	0 314 35                        # x264_src/input/timecode.c:314:35
	cvttsd2si	%xmm0, %rax
	movq	%rax, %rcx
	sarq	$63, %rcx
	subsd	.LCPI0_5(%rip), %xmm0
	cvttsd2si	%xmm0, %rsi
	andq	%rcx, %rsi
	orq	%rax, %rsi
.Ltmp202:
	.loc	0 315 37 is_stmt 1              # x264_src/input/timecode.c:315:37
	movq	%rsi, %rax
	shrq	$32, %rax
	.loc	0 315 50 is_stmt 0              # x264_src/input/timecode.c:315:50
	jne	.LBB0_82
.Ltmp203:
# %bb.78:                               # %lor.lhs.false503.i.preheader
                                        #   in Loop: Header=BB0_76 Depth=1
	#DEBUG_VALUE: open_file:psz_filename <- [DW_OP_LLVM_entry_value 1] $rdi
	#DEBUG_VALUE: open_file:p_handle <- [DW_OP_LLVM_entry_value 1] $rsi
	#DEBUG_VALUE: open_file:info <- [DW_OP_plus_uconst 96] [$rsp+0]
	#DEBUG_VALUE: open_file:opt <- [DW_OP_LLVM_entry_value 1] $rcx
	#DEBUG_VALUE: open_file:h <- [DW_OP_plus_uconst 16, DW_OP_deref] $rsp
	#DEBUG_VALUE: open_file:tcfile_in <- $r14
	#DEBUG_VALUE: parse_tcfile:tcfile_in <- $r14
	#DEBUG_VALUE: parse_tcfile:h <- [DW_OP_plus_uconst 16, DW_OP_deref] $rsp
	#DEBUG_VALUE: parse_tcfile:info <- [DW_OP_plus_uconst 96, DW_OP_deref] $rsp
	#DEBUG_VALUE: parse_tcfile:timecodes <- $r12
	#DEBUG_VALUE: parse_tcfile:fpss <- [DW_OP_plus_uconst 64, DW_OP_deref] $rsp
	#DEBUG_VALUE: parse_tcfile:num <- $r13
	#DEBUG_VALUE: parse_tcfile:timecodes_num <- [DW_OP_plus_uconst 24, DW_OP_deref] $rsp
	#DEBUG_VALUE: i <- 1
	#DEBUG_VALUE: exponent <- [DW_OP_plus_uconst 72, DW_OP_deref_size 16, DW_OP_stack_value] $rsp
	#DEBUG_VALUE: fps_sig <- [DW_OP_plus_uconst 8, DW_OP_deref_size 16, DW_OP_stack_value] $rsp
	.loc	0 311 21 is_stmt 1              # x264_src/input/timecode.c:311:21
	leaq	(%rbx,%rbx), %rbp
	movsd	8(%rsp), %xmm3                  # 8-byte Reload
                                        # xmm3 = mem[0],zero
	movapd	48(%rsp), %xmm1                 # 16-byte Reload
.Ltmp204:
	.p2align	4, 0x90
.LBB0_79:                               # %lor.lhs.false503.i
                                        #   Parent Loop BB0_76 Depth=1
                                        # =>  This Inner Loop Header: Depth=2
	#DEBUG_VALUE: open_file:psz_filename <- [DW_OP_LLVM_entry_value 1] $rdi
	#DEBUG_VALUE: open_file:p_handle <- [DW_OP_LLVM_entry_value 1] $rsi
	#DEBUG_VALUE: open_file:info <- [DW_OP_plus_uconst 96] [$rsp+0]
	#DEBUG_VALUE: open_file:opt <- [DW_OP_LLVM_entry_value 1] $rcx
	#DEBUG_VALUE: open_file:h <- [DW_OP_plus_uconst 16, DW_OP_deref] $rsp
	#DEBUG_VALUE: open_file:tcfile_in <- $r14
	#DEBUG_VALUE: parse_tcfile:tcfile_in <- $r14
	#DEBUG_VALUE: parse_tcfile:h <- [DW_OP_plus_uconst 16, DW_OP_deref] $rsp
	#DEBUG_VALUE: parse_tcfile:info <- [DW_OP_plus_uconst 96, DW_OP_deref] $rsp
	#DEBUG_VALUE: parse_tcfile:timecodes <- $r12
	#DEBUG_VALUE: parse_tcfile:fpss <- [DW_OP_plus_uconst 64, DW_OP_deref] $rsp
	#DEBUG_VALUE: parse_tcfile:num <- $r13
	#DEBUG_VALUE: parse_tcfile:timecodes_num <- [DW_OP_plus_uconst 24, DW_OP_deref] $rsp
	#DEBUG_VALUE: exponent <- [DW_OP_plus_uconst 72, DW_OP_deref_size 16, DW_OP_stack_value] $rsp
	#DEBUG_VALUE: fps_sig <- [DW_OP_plus_uconst 8, DW_OP_deref_size 16, DW_OP_stack_value] $rsp
	#DEBUG_VALUE: i <- [DW_OP_LLVM_arg 0, DW_OP_consts 2, DW_OP_LLVM_arg 1, DW_OP_mul, DW_OP_minus, DW_OP_LLVM_arg 1, DW_OP_div, DW_OP_consts 1, DW_OP_plus, DW_OP_stack_value] $rbp, $rbx
	.loc	0 315 60                        # x264_src/input/timecode.c:315:60
	xorps	%xmm0, %xmm0
	cvtsi2sd	%rsi, %xmm0
	.loc	0 315 76 is_stmt 0              # x264_src/input/timecode.c:315:76
	divsd	%xmm1, %xmm0
	.loc	0 315 87                        # x264_src/input/timecode.c:315:87
	divsd	%xmm2, %xmm0
	.loc	0 315 98                        # x264_src/input/timecode.c:315:98
	subsd	%xmm3, %xmm0
	.loc	0 315 53                        # x264_src/input/timecode.c:315:53
	andpd	.LCPI0_6(%rip), %xmm0
	.loc	0 315 110                       # x264_src/input/timecode.c:315:110
	movsd	.LCPI0_7(%rip), %xmm1           # xmm1 = [5.0000000000000004E-6,0.0E+0]
	ucomisd	%xmm0, %xmm1
.Ltmp205:
	#DEBUG_VALUE: i <- [DW_OP_plus_uconst 1, DW_OP_stack_value] $rbp
	.loc	0 315 29                        # x264_src/input/timecode.c:315:29
	ja	.LBB0_81
.Ltmp206:
# %bb.80:                               # %while.cond493.i
                                        #   in Loop: Header=BB0_79 Depth=2
	#DEBUG_VALUE: open_file:psz_filename <- [DW_OP_LLVM_entry_value 1] $rdi
	#DEBUG_VALUE: open_file:p_handle <- [DW_OP_LLVM_entry_value 1] $rsi
	#DEBUG_VALUE: open_file:info <- [DW_OP_plus_uconst 96] [$rsp+0]
	#DEBUG_VALUE: open_file:opt <- [DW_OP_LLVM_entry_value 1] $rcx
	#DEBUG_VALUE: open_file:h <- [DW_OP_plus_uconst 16, DW_OP_deref] $rsp
	#DEBUG_VALUE: open_file:tcfile_in <- $r14
	#DEBUG_VALUE: parse_tcfile:tcfile_in <- $r14
	#DEBUG_VALUE: parse_tcfile:h <- [DW_OP_plus_uconst 16, DW_OP_deref] $rsp
	#DEBUG_VALUE: parse_tcfile:info <- [DW_OP_plus_uconst 96, DW_OP_deref] $rsp
	#DEBUG_VALUE: parse_tcfile:timecodes <- $r12
	#DEBUG_VALUE: parse_tcfile:fpss <- [DW_OP_plus_uconst 64, DW_OP_deref] $rsp
	#DEBUG_VALUE: parse_tcfile:num <- $r13
	#DEBUG_VALUE: parse_tcfile:timecodes_num <- [DW_OP_plus_uconst 24, DW_OP_deref] $rsp
	#DEBUG_VALUE: i <- [DW_OP_plus_uconst 1, DW_OP_stack_value] $rbp
	#DEBUG_VALUE: exponent <- [DW_OP_plus_uconst 72, DW_OP_deref_size 16, DW_OP_stack_value] $rsp
	#DEBUG_VALUE: fps_sig <- [DW_OP_plus_uconst 8, DW_OP_deref_size 16, DW_OP_stack_value] $rsp
	.loc	0 0 29                          # x264_src/input/timecode.c:0:29
	movapd	%xmm3, %xmm1
.Ltmp207:
	#DEBUG_VALUE: i <- undef
	#DEBUG_VALUE: fps_den <- $rbp
	.loc	0 314 42 is_stmt 1              # x264_src/input/timecode.c:314:42
	movq	%rbp, %xmm0
	punpckldq	.LCPI0_3(%rip), %xmm0   # xmm0 = xmm0[0],mem[0],xmm0[1],mem[1]
	subpd	.LCPI0_4(%rip), %xmm0
	movapd	%xmm0, %xmm3
	unpckhpd	%xmm0, %xmm3                    # xmm3 = xmm3[1],xmm0[1]
	addsd	%xmm0, %xmm3
	movapd	%xmm3, 48(%rsp)                 # 16-byte Spill
	.loc	0 314 50 is_stmt 0              # x264_src/input/timecode.c:314:50
	movapd	%xmm1, %xmm0
	mulsd	%xmm3, %xmm0
	.loc	0 314 35                        # x264_src/input/timecode.c:314:35
	callq	round@PLT
.Ltmp208:
	.loc	0 0 35                          # x264_src/input/timecode.c:0:35
	movapd	48(%rsp), %xmm1                 # 16-byte Reload
	movsd	8(%rsp), %xmm3                  # 8-byte Reload
                                        # xmm3 = mem[0],zero
	movsd	72(%rsp), %xmm2                 # 8-byte Reload
                                        # xmm2 = mem[0],zero
	.loc	0 314 62                        # x264_src/input/timecode.c:314:62
	mulsd	%xmm2, %xmm0
	.loc	0 314 35                        # x264_src/input/timecode.c:314:35
	cvttsd2si	%xmm0, %rax
	movq	%rax, %rcx
	sarq	$63, %rcx
	subsd	.LCPI0_5(%rip), %xmm0
	cvttsd2si	%xmm0, %rsi
	andq	%rcx, %rsi
	orq	%rax, %rsi
.Ltmp209:
	#DEBUG_VALUE: fps_num <- $rsi
	.loc	0 315 37 is_stmt 1              # x264_src/input/timecode.c:315:37
	movq	%rsi, %rax
	shrq	$32, %rax
	.loc	0 315 50 is_stmt 0              # x264_src/input/timecode.c:315:50
	addq	%rbx, %rbp
.Ltmp210:
	.loc	0 315 37                        # x264_src/input/timecode.c:315:37
	testq	%rax, %rax
	je	.LBB0_79
	jmp	.LBB0_82
.Ltmp211:
.LBB0_81:                               # %while.end514.i
                                        #   in Loop: Header=BB0_76 Depth=1
	#DEBUG_VALUE: open_file:psz_filename <- [DW_OP_LLVM_entry_value 1] $rdi
	#DEBUG_VALUE: open_file:p_handle <- [DW_OP_LLVM_entry_value 1] $rsi
	#DEBUG_VALUE: open_file:info <- [DW_OP_plus_uconst 96] [$rsp+0]
	#DEBUG_VALUE: open_file:opt <- [DW_OP_LLVM_entry_value 1] $rcx
	#DEBUG_VALUE: open_file:h <- [DW_OP_plus_uconst 16, DW_OP_deref] $rsp
	#DEBUG_VALUE: open_file:tcfile_in <- $r14
	#DEBUG_VALUE: parse_tcfile:tcfile_in <- $r14
	#DEBUG_VALUE: parse_tcfile:h <- [DW_OP_plus_uconst 16, DW_OP_deref] $rsp
	#DEBUG_VALUE: parse_tcfile:info <- [DW_OP_plus_uconst 96, DW_OP_deref] $rsp
	#DEBUG_VALUE: parse_tcfile:timecodes <- $r12
	#DEBUG_VALUE: parse_tcfile:fpss <- [DW_OP_plus_uconst 64, DW_OP_deref] $rsp
	#DEBUG_VALUE: parse_tcfile:num <- $r13
	#DEBUG_VALUE: parse_tcfile:timecodes_num <- [DW_OP_plus_uconst 24, DW_OP_deref] $rsp
	#DEBUG_VALUE: i <- [DW_OP_plus_uconst 1, DW_OP_stack_value] $rbp
	#DEBUG_VALUE: exponent <- [DW_OP_plus_uconst 72, DW_OP_deref_size 16, DW_OP_stack_value] $rsp
	#DEBUG_VALUE: fps_sig <- [DW_OP_plus_uconst 8, DW_OP_deref_size 16, DW_OP_stack_value] $rsp
	.loc	0 319 39 is_stmt 1              # x264_src/input/timecode.c:319:39
	testq	%rsi, %rsi
	.loc	0 319 47 is_stmt 0              # x264_src/input/timecode.c:319:47
	je	.LBB0_90
.Ltmp212:
	.p2align	4, 0x90
.LBB0_82:                               # %land.lhs.true516.i
                                        #   in Loop: Header=BB0_76 Depth=1
	#DEBUG_VALUE: open_file:psz_filename <- [DW_OP_LLVM_entry_value 1] $rdi
	#DEBUG_VALUE: open_file:p_handle <- [DW_OP_LLVM_entry_value 1] $rsi
	#DEBUG_VALUE: open_file:info <- [DW_OP_plus_uconst 96] [$rsp+0]
	#DEBUG_VALUE: open_file:opt <- [DW_OP_LLVM_entry_value 1] $rcx
	#DEBUG_VALUE: open_file:h <- [DW_OP_plus_uconst 16, DW_OP_deref] $rsp
	#DEBUG_VALUE: open_file:tcfile_in <- $r14
	#DEBUG_VALUE: parse_tcfile:tcfile_in <- $r14
	#DEBUG_VALUE: parse_tcfile:h <- [DW_OP_plus_uconst 16, DW_OP_deref] $rsp
	#DEBUG_VALUE: parse_tcfile:info <- [DW_OP_plus_uconst 96, DW_OP_deref] $rsp
	#DEBUG_VALUE: parse_tcfile:timecodes <- $r12
	#DEBUG_VALUE: parse_tcfile:fpss <- [DW_OP_plus_uconst 64, DW_OP_deref] $rsp
	#DEBUG_VALUE: parse_tcfile:num <- $r13
	#DEBUG_VALUE: parse_tcfile:timecodes_num <- [DW_OP_plus_uconst 24, DW_OP_deref] $rsp
	#DEBUG_VALUE: exponent <- [DW_OP_plus_uconst 72, DW_OP_deref_size 16, DW_OP_stack_value] $rsp
	#DEBUG_VALUE: fps_sig <- [DW_OP_plus_uconst 8, DW_OP_deref_size 16, DW_OP_stack_value] $rsp
	.loc	0 0 47                          # x264_src/input/timecode.c:0:47
	movq	16(%rsp), %rbp                  # 8-byte Reload
	.loc	0 319 53                        # x264_src/input/timecode.c:319:53
	movq	88(%rbp), %rcx
	movq	%rcx, %rax
	movq	%rsi, %rdx
	.loc	0 319 50                        # x264_src/input/timecode.c:319:50
	testq	%rcx, %rcx
	movq	96(%rsp), %rbx                  # 8-byte Reload
	movsd	.LCPI0_1(%rip), %xmm1           # xmm1 = [1.0E+0,0.0E+0]
	.loc	0 319 39                        # x264_src/input/timecode.c:319:39
	jne	.LBB0_84
	jmp	.LBB0_91
.Ltmp213:
	.p2align	4, 0x90
.LBB0_85:                               #   in Loop: Header=BB0_84 Depth=2
	#DEBUG_VALUE: open_file:psz_filename <- [DW_OP_LLVM_entry_value 1] $rdi
	#DEBUG_VALUE: open_file:p_handle <- [DW_OP_LLVM_entry_value 1] $rsi
	#DEBUG_VALUE: open_file:info <- [DW_OP_plus_uconst 96] [$rsp+0]
	#DEBUG_VALUE: open_file:opt <- [DW_OP_LLVM_entry_value 1] $rcx
	#DEBUG_VALUE: open_file:h <- [DW_OP_plus_uconst 16, DW_OP_deref] $rsp
	#DEBUG_VALUE: open_file:tcfile_in <- $r14
	#DEBUG_VALUE: parse_tcfile:tcfile_in <- $r14
	#DEBUG_VALUE: parse_tcfile:h <- [DW_OP_plus_uconst 16, DW_OP_deref] $rsp
	#DEBUG_VALUE: parse_tcfile:info <- [DW_OP_plus_uconst 96, DW_OP_deref] $rsp
	#DEBUG_VALUE: parse_tcfile:timecodes <- $r12
	#DEBUG_VALUE: parse_tcfile:fpss <- [DW_OP_plus_uconst 64, DW_OP_deref] $rsp
	#DEBUG_VALUE: parse_tcfile:num <- $r13
	#DEBUG_VALUE: parse_tcfile:timecodes_num <- [DW_OP_plus_uconst 24, DW_OP_deref] $rsp
	#DEBUG_VALUE: exponent <- [DW_OP_plus_uconst 72, DW_OP_deref_size 16, DW_OP_stack_value] $rsp
	#DEBUG_VALUE: fps_sig <- [DW_OP_plus_uconst 8, DW_OP_deref_size 16, DW_OP_stack_value] $rsp
	#DEBUG_VALUE: gcd:b <- $rdi
	#DEBUG_VALUE: gcd:a <- $rax
                                        # kill: def $eax killed $eax killed $rax
	.loc	1 36 23 is_stmt 1               # x264_src/muxers.h:36:23
	xorl	%edx, %edx
	divl	%edi
.Ltmp214:
                                        # kill: def $edx killed $edx def $rdx
	#DEBUG_VALUE: c <- $rdx
	.loc	1 0 23 is_stmt 0                # x264_src/muxers.h:0:23
	movq	%rdi, %rax
.Ltmp215:
	.loc	1 37 14 is_stmt 1               # x264_src/muxers.h:37:14
	testq	%rdx, %rdx
.Ltmp216:
	#DEBUG_VALUE: gcd:b <- undef
	#DEBUG_VALUE: gcd:a <- undef
	.loc	1 0 14 is_stmt 0                # x264_src/muxers.h:0:14
	je	.LBB0_86
.Ltmp217:
.LBB0_84:                               # %while.body.i.i.i
                                        #   Parent Loop BB0_76 Depth=1
                                        # =>  This Inner Loop Header: Depth=2
	#DEBUG_VALUE: open_file:psz_filename <- [DW_OP_LLVM_entry_value 1] $rdi
	#DEBUG_VALUE: open_file:p_handle <- [DW_OP_LLVM_entry_value 1] $rsi
	#DEBUG_VALUE: open_file:info <- [DW_OP_plus_uconst 96] [$rsp+0]
	#DEBUG_VALUE: open_file:opt <- [DW_OP_LLVM_entry_value 1] $rcx
	#DEBUG_VALUE: open_file:h <- [DW_OP_plus_uconst 16, DW_OP_deref] $rsp
	#DEBUG_VALUE: open_file:tcfile_in <- $r14
	#DEBUG_VALUE: parse_tcfile:tcfile_in <- $r14
	#DEBUG_VALUE: parse_tcfile:h <- [DW_OP_plus_uconst 16, DW_OP_deref] $rsp
	#DEBUG_VALUE: parse_tcfile:info <- [DW_OP_plus_uconst 96, DW_OP_deref] $rsp
	#DEBUG_VALUE: parse_tcfile:timecodes <- $r12
	#DEBUG_VALUE: parse_tcfile:fpss <- [DW_OP_plus_uconst 64, DW_OP_deref] $rsp
	#DEBUG_VALUE: parse_tcfile:num <- $r13
	#DEBUG_VALUE: parse_tcfile:timecodes_num <- [DW_OP_plus_uconst 24, DW_OP_deref] $rsp
	#DEBUG_VALUE: exponent <- [DW_OP_plus_uconst 72, DW_OP_deref_size 16, DW_OP_stack_value] $rsp
	#DEBUG_VALUE: fps_sig <- [DW_OP_plus_uconst 8, DW_OP_deref_size 16, DW_OP_stack_value] $rsp
	movq	%rdx, %rdi
.Ltmp218:
	#DEBUG_VALUE: gcd:b <- $rdi
	#DEBUG_VALUE: gcd:a <- $rax
	.loc	1 36 23 is_stmt 1               # x264_src/muxers.h:36:23
	movq	%rax, %rdx
	orq	%rdi, %rdx
	shrq	$32, %rdx
	je	.LBB0_85
.Ltmp219:
# %bb.83:                               #   in Loop: Header=BB0_84 Depth=2
	#DEBUG_VALUE: open_file:psz_filename <- [DW_OP_LLVM_entry_value 1] $rdi
	#DEBUG_VALUE: open_file:p_handle <- [DW_OP_LLVM_entry_value 1] $rsi
	#DEBUG_VALUE: open_file:info <- [DW_OP_plus_uconst 96] [$rsp+0]
	#DEBUG_VALUE: open_file:opt <- [DW_OP_LLVM_entry_value 1] $rcx
	#DEBUG_VALUE: open_file:h <- [DW_OP_plus_uconst 16, DW_OP_deref] $rsp
	#DEBUG_VALUE: open_file:tcfile_in <- $r14
	#DEBUG_VALUE: parse_tcfile:tcfile_in <- $r14
	#DEBUG_VALUE: parse_tcfile:h <- [DW_OP_plus_uconst 16, DW_OP_deref] $rsp
	#DEBUG_VALUE: parse_tcfile:info <- [DW_OP_plus_uconst 96, DW_OP_deref] $rsp
	#DEBUG_VALUE: parse_tcfile:timecodes <- $r12
	#DEBUG_VALUE: parse_tcfile:fpss <- [DW_OP_plus_uconst 64, DW_OP_deref] $rsp
	#DEBUG_VALUE: parse_tcfile:num <- $r13
	#DEBUG_VALUE: parse_tcfile:timecodes_num <- [DW_OP_plus_uconst 24, DW_OP_deref] $rsp
	#DEBUG_VALUE: exponent <- [DW_OP_plus_uconst 72, DW_OP_deref_size 16, DW_OP_stack_value] $rsp
	#DEBUG_VALUE: fps_sig <- [DW_OP_plus_uconst 8, DW_OP_deref_size 16, DW_OP_stack_value] $rsp
	#DEBUG_VALUE: gcd:b <- $rdi
	#DEBUG_VALUE: gcd:a <- $rax
	cqto
.Ltmp220:
	idivq	%rdi
.Ltmp221:
	#DEBUG_VALUE: c <- $rdx
	.loc	1 0 23 is_stmt 0                # x264_src/muxers.h:0:23
	movq	%rdi, %rax
.Ltmp222:
	.loc	1 37 14 is_stmt 1               # x264_src/muxers.h:37:14
	testq	%rdx, %rdx
.Ltmp223:
	#DEBUG_VALUE: gcd:b <- undef
	#DEBUG_VALUE: gcd:a <- undef
	.loc	1 0 14 is_stmt 0                # x264_src/muxers.h:0:14
	jne	.LBB0_84
.Ltmp224:
.LBB0_86:                               # %lcm.exit.i
                                        #   in Loop: Header=BB0_76 Depth=1
	#DEBUG_VALUE: open_file:psz_filename <- [DW_OP_LLVM_entry_value 1] $rdi
	#DEBUG_VALUE: open_file:p_handle <- [DW_OP_LLVM_entry_value 1] $rsi
	#DEBUG_VALUE: open_file:info <- [DW_OP_plus_uconst 96] [$rsp+0]
	#DEBUG_VALUE: open_file:opt <- [DW_OP_LLVM_entry_value 1] $rcx
	#DEBUG_VALUE: open_file:h <- [DW_OP_plus_uconst 16, DW_OP_deref] $rsp
	#DEBUG_VALUE: open_file:tcfile_in <- $r14
	#DEBUG_VALUE: parse_tcfile:tcfile_in <- $r14
	#DEBUG_VALUE: parse_tcfile:h <- [DW_OP_plus_uconst 16, DW_OP_deref] $rsp
	#DEBUG_VALUE: parse_tcfile:info <- [DW_OP_plus_uconst 96, DW_OP_deref] $rsp
	#DEBUG_VALUE: parse_tcfile:timecodes <- $r12
	#DEBUG_VALUE: parse_tcfile:fpss <- [DW_OP_plus_uconst 64, DW_OP_deref] $rsp
	#DEBUG_VALUE: parse_tcfile:num <- $r13
	#DEBUG_VALUE: parse_tcfile:timecodes_num <- [DW_OP_plus_uconst 24, DW_OP_deref] $rsp
	#DEBUG_VALUE: exponent <- [DW_OP_plus_uconst 72, DW_OP_deref_size 16, DW_OP_stack_value] $rsp
	#DEBUG_VALUE: fps_sig <- [DW_OP_plus_uconst 8, DW_OP_deref_size 16, DW_OP_stack_value] $rsp
	.loc	1 46 16 is_stmt 1               # x264_src/muxers.h:46:16
	movq	%rcx, %rax
	orq	%rdi, %rax
	shrq	$32, %rax
	je	.LBB0_88
.Ltmp225:
# %bb.87:                               #   in Loop: Header=BB0_76 Depth=1
	#DEBUG_VALUE: open_file:psz_filename <- [DW_OP_LLVM_entry_value 1] $rdi
	#DEBUG_VALUE: open_file:p_handle <- [DW_OP_LLVM_entry_value 1] $rsi
	#DEBUG_VALUE: open_file:info <- [DW_OP_plus_uconst 96] [$rsp+0]
	#DEBUG_VALUE: open_file:opt <- [DW_OP_LLVM_entry_value 1] $rcx
	#DEBUG_VALUE: open_file:h <- [DW_OP_plus_uconst 16, DW_OP_deref] $rsp
	#DEBUG_VALUE: open_file:tcfile_in <- $r14
	#DEBUG_VALUE: parse_tcfile:tcfile_in <- $r14
	#DEBUG_VALUE: parse_tcfile:h <- [DW_OP_plus_uconst 16, DW_OP_deref] $rsp
	#DEBUG_VALUE: parse_tcfile:info <- [DW_OP_plus_uconst 96, DW_OP_deref] $rsp
	#DEBUG_VALUE: parse_tcfile:timecodes <- $r12
	#DEBUG_VALUE: parse_tcfile:fpss <- [DW_OP_plus_uconst 64, DW_OP_deref] $rsp
	#DEBUG_VALUE: parse_tcfile:num <- $r13
	#DEBUG_VALUE: parse_tcfile:timecodes_num <- [DW_OP_plus_uconst 24, DW_OP_deref] $rsp
	#DEBUG_VALUE: exponent <- [DW_OP_plus_uconst 72, DW_OP_deref_size 16, DW_OP_stack_value] $rsp
	#DEBUG_VALUE: fps_sig <- [DW_OP_plus_uconst 8, DW_OP_deref_size 16, DW_OP_stack_value] $rsp
	movq	%rcx, %rax
	cqto
	idivq	%rdi
	jmp	.LBB0_89
.Ltmp226:
.LBB0_88:                               #   in Loop: Header=BB0_76 Depth=1
	#DEBUG_VALUE: open_file:psz_filename <- [DW_OP_LLVM_entry_value 1] $rdi
	#DEBUG_VALUE: open_file:p_handle <- [DW_OP_LLVM_entry_value 1] $rsi
	#DEBUG_VALUE: open_file:info <- [DW_OP_plus_uconst 96] [$rsp+0]
	#DEBUG_VALUE: open_file:opt <- [DW_OP_LLVM_entry_value 1] $rcx
	#DEBUG_VALUE: open_file:h <- [DW_OP_plus_uconst 16, DW_OP_deref] $rsp
	#DEBUG_VALUE: open_file:tcfile_in <- $r14
	#DEBUG_VALUE: parse_tcfile:tcfile_in <- $r14
	#DEBUG_VALUE: parse_tcfile:h <- [DW_OP_plus_uconst 16, DW_OP_deref] $rsp
	#DEBUG_VALUE: parse_tcfile:info <- [DW_OP_plus_uconst 96, DW_OP_deref] $rsp
	#DEBUG_VALUE: parse_tcfile:timecodes <- $r12
	#DEBUG_VALUE: parse_tcfile:fpss <- [DW_OP_plus_uconst 64, DW_OP_deref] $rsp
	#DEBUG_VALUE: parse_tcfile:num <- $r13
	#DEBUG_VALUE: parse_tcfile:timecodes_num <- [DW_OP_plus_uconst 24, DW_OP_deref] $rsp
	#DEBUG_VALUE: exponent <- [DW_OP_plus_uconst 72, DW_OP_deref_size 16, DW_OP_stack_value] $rsp
	#DEBUG_VALUE: fps_sig <- [DW_OP_plus_uconst 8, DW_OP_deref_size 16, DW_OP_stack_value] $rsp
	movl	%ecx, %eax
	xorl	%edx, %edx
	divl	%edi
                                        # kill: def $eax killed $eax def $rax
.Ltmp227:
.LBB0_89:                               # %cond.end.i
                                        #   in Loop: Header=BB0_76 Depth=1
	#DEBUG_VALUE: open_file:psz_filename <- [DW_OP_LLVM_entry_value 1] $rdi
	#DEBUG_VALUE: open_file:p_handle <- [DW_OP_LLVM_entry_value 1] $rsi
	#DEBUG_VALUE: open_file:info <- [DW_OP_plus_uconst 96] [$rsp+0]
	#DEBUG_VALUE: open_file:opt <- [DW_OP_LLVM_entry_value 1] $rcx
	#DEBUG_VALUE: open_file:h <- [DW_OP_plus_uconst 16, DW_OP_deref] $rsp
	#DEBUG_VALUE: open_file:tcfile_in <- $r14
	#DEBUG_VALUE: parse_tcfile:tcfile_in <- $r14
	#DEBUG_VALUE: parse_tcfile:h <- [DW_OP_plus_uconst 16, DW_OP_deref] $rsp
	#DEBUG_VALUE: parse_tcfile:info <- [DW_OP_plus_uconst 96, DW_OP_deref] $rsp
	#DEBUG_VALUE: parse_tcfile:timecodes <- $r12
	#DEBUG_VALUE: parse_tcfile:fpss <- [DW_OP_plus_uconst 64, DW_OP_deref] $rsp
	#DEBUG_VALUE: parse_tcfile:num <- $r13
	#DEBUG_VALUE: parse_tcfile:timecodes_num <- [DW_OP_plus_uconst 24, DW_OP_deref] $rsp
	#DEBUG_VALUE: exponent <- [DW_OP_plus_uconst 72, DW_OP_deref_size 16, DW_OP_stack_value] $rsp
	#DEBUG_VALUE: fps_sig <- [DW_OP_plus_uconst 8, DW_OP_deref_size 16, DW_OP_stack_value] $rsp
	.loc	1 46 32 is_stmt 0               # x264_src/muxers.h:46:32
	imulq	%rsi, %rax
.Ltmp228:
	.loc	0 319 37 is_stmt 1              # x264_src/input/timecode.c:319:37
	movq	%rax, 88(%rbp)
.Ltmp229:
	.loc	0 320 41                        # x264_src/input/timecode.c:320:41
	movq	%rax, %rcx
	shrq	$32, %rcx
.Ltmp230:
	.loc	0 320 25 is_stmt 0              # x264_src/input/timecode.c:320:25
	je	.LBB0_75
	jmp	.LBB0_92
.Ltmp231:
.LBB0_90:                               #   in Loop: Header=BB0_76 Depth=1
	#DEBUG_VALUE: open_file:psz_filename <- [DW_OP_LLVM_entry_value 1] $rdi
	#DEBUG_VALUE: open_file:p_handle <- [DW_OP_LLVM_entry_value 1] $rsi
	#DEBUG_VALUE: open_file:info <- [DW_OP_plus_uconst 96] [$rsp+0]
	#DEBUG_VALUE: open_file:opt <- [DW_OP_LLVM_entry_value 1] $rcx
	#DEBUG_VALUE: open_file:h <- [DW_OP_plus_uconst 16, DW_OP_deref] $rsp
	#DEBUG_VALUE: open_file:tcfile_in <- $r14
	#DEBUG_VALUE: parse_tcfile:tcfile_in <- $r14
	#DEBUG_VALUE: parse_tcfile:h <- [DW_OP_plus_uconst 16, DW_OP_deref] $rsp
	#DEBUG_VALUE: parse_tcfile:info <- [DW_OP_plus_uconst 96, DW_OP_deref] $rsp
	#DEBUG_VALUE: parse_tcfile:timecodes <- $r12
	#DEBUG_VALUE: parse_tcfile:fpss <- [DW_OP_plus_uconst 64, DW_OP_deref] $rsp
	#DEBUG_VALUE: parse_tcfile:num <- $r13
	#DEBUG_VALUE: parse_tcfile:timecodes_num <- [DW_OP_plus_uconst 24, DW_OP_deref] $rsp
	#DEBUG_VALUE: i <- [DW_OP_plus_uconst 1, DW_OP_stack_value] $rbp
	#DEBUG_VALUE: exponent <- [DW_OP_plus_uconst 72, DW_OP_deref_size 16, DW_OP_stack_value] $rsp
	#DEBUG_VALUE: fps_sig <- [DW_OP_plus_uconst 8, DW_OP_deref_size 16, DW_OP_stack_value] $rsp
	.loc	0 0 25                          # x264_src/input/timecode.c:0:25
	xorl	%esi, %esi
	movq	16(%rsp), %rbp                  # 8-byte Reload
.Ltmp232:
	movq	96(%rsp), %rbx                  # 8-byte Reload
	movsd	.LCPI0_1(%rip), %xmm1           # xmm1 = [1.0E+0,0.0E+0]
.Ltmp233:
.LBB0_91:                               # %cond.false.i
                                        #   in Loop: Header=BB0_76 Depth=1
	#DEBUG_VALUE: open_file:psz_filename <- [DW_OP_LLVM_entry_value 1] $rdi
	#DEBUG_VALUE: open_file:p_handle <- [DW_OP_LLVM_entry_value 1] $rsi
	#DEBUG_VALUE: open_file:info <- [DW_OP_plus_uconst 96] [$rsp+0]
	#DEBUG_VALUE: open_file:opt <- [DW_OP_LLVM_entry_value 1] $rcx
	#DEBUG_VALUE: open_file:h <- [DW_OP_plus_uconst 16, DW_OP_deref] $rsp
	#DEBUG_VALUE: open_file:tcfile_in <- $r14
	#DEBUG_VALUE: parse_tcfile:tcfile_in <- $r14
	#DEBUG_VALUE: parse_tcfile:h <- [DW_OP_plus_uconst 16, DW_OP_deref] $rsp
	#DEBUG_VALUE: parse_tcfile:info <- [DW_OP_plus_uconst 96, DW_OP_deref] $rsp
	#DEBUG_VALUE: parse_tcfile:timecodes <- $r12
	#DEBUG_VALUE: parse_tcfile:fpss <- [DW_OP_plus_uconst 64, DW_OP_deref] $rsp
	#DEBUG_VALUE: parse_tcfile:num <- $r13
	#DEBUG_VALUE: parse_tcfile:timecodes_num <- [DW_OP_plus_uconst 24, DW_OP_deref] $rsp
	#DEBUG_VALUE: exponent <- [DW_OP_plus_uconst 72, DW_OP_deref_size 16, DW_OP_stack_value] $rsp
	#DEBUG_VALUE: fps_sig <- [DW_OP_plus_uconst 8, DW_OP_deref_size 16, DW_OP_stack_value] $rsp
	.loc	0 319 102 is_stmt 1             # x264_src/input/timecode.c:319:102
	movslq	%esi, %rax
	.loc	0 319 37 is_stmt 0              # x264_src/input/timecode.c:319:37
	movq	%rax, 88(%rbp)
.Ltmp234:
	.loc	0 320 41 is_stmt 1              # x264_src/input/timecode.c:320:41
	movq	%rax, %rcx
	shrq	$32, %rcx
.Ltmp235:
	.loc	0 320 25 is_stmt 0              # x264_src/input/timecode.c:320:25
	je	.LBB0_75
	jmp	.LBB0_92
.Ltmp236:
.LBB0_93:                               # %if.then.i
	#DEBUG_VALUE: open_file:psz_filename <- $r15
	#DEBUG_VALUE: open_file:p_handle <- [DW_OP_LLVM_entry_value 1] $rsi
	#DEBUG_VALUE: open_file:info <- [DW_OP_plus_uconst 96] [$rsp+0]
	#DEBUG_VALUE: open_file:opt <- $r12
	#DEBUG_VALUE: open_file:h <- [DW_OP_plus_uconst 16, DW_OP_deref] $rsp
	#DEBUG_VALUE: open_file:tcfile_in <- $r14
	#DEBUG_VALUE: parse_tcfile:tcfile_in <- $r14
	#DEBUG_VALUE: parse_tcfile:h <- [DW_OP_plus_uconst 16, DW_OP_deref] $rsp
	#DEBUG_VALUE: parse_tcfile:info <- [DW_OP_plus_uconst 96, DW_OP_deref] $rsp
	#DEBUG_VALUE: parse_tcfile:timecodes <- 0
	#DEBUG_VALUE: parse_tcfile:fpss <- 0
	.loc	0 115 18 is_stmt 1              # x264_src/input/timecode.c:115:18
	movq	stderr@GOTPCREL(%rip), %rax
	movq	(%rax), %rcx
	.loc	0 115 9 is_stmt 0               # x264_src/input/timecode.c:115:9
	movl	$.L.str.7, %edi
	movl	$46, %esi
.Ltmp237:
.LBB0_94:                               # %if.then52
	#DEBUG_VALUE: open_file:psz_filename <- [DW_OP_LLVM_entry_value 1] $rdi
	#DEBUG_VALUE: open_file:p_handle <- [DW_OP_LLVM_entry_value 1] $rsi
	#DEBUG_VALUE: open_file:info <- [DW_OP_plus_uconst 96] [$rsp+0]
	#DEBUG_VALUE: open_file:opt <- [DW_OP_LLVM_entry_value 1] $rcx
	#DEBUG_VALUE: open_file:h <- [DW_OP_plus_uconst 16, DW_OP_deref] $rsp
	#DEBUG_VALUE: open_file:tcfile_in <- $r14
	#DEBUG_VALUE: parse_tcfile:tcfile_in <- $r14
	#DEBUG_VALUE: parse_tcfile:h <- [DW_OP_plus_uconst 16, DW_OP_deref] $rsp
	#DEBUG_VALUE: parse_tcfile:info <- [DW_OP_plus_uconst 96, DW_OP_deref] $rsp
	#DEBUG_VALUE: parse_tcfile:timecodes <- 0
	#DEBUG_VALUE: parse_tcfile:fpss <- 0
	.loc	0 0 0                           # x264_src/input/timecode.c:0:0
	movl	$1, %edx
	callq	fwrite@PLT
.Ltmp238:
	.loc	0 116 9 is_stmt 1               # x264_src/input/timecode.c:116:9
	jmp	.LBB0_193
.Ltmp239:
.LBB0_95:                               # %if.then19
	#DEBUG_VALUE: open_file:psz_filename <- $rbx
	#DEBUG_VALUE: open_file:p_handle <- $r14
	#DEBUG_VALUE: open_file:info <- [DW_OP_plus_uconst 96] [$rsp+0]
	#DEBUG_VALUE: open_file:opt <- $r12
	#DEBUG_VALUE: open_file:ret <- $ebp
	#DEBUG_VALUE: open_file:h <- [DW_OP_plus_uconst 16, DW_OP_deref] $rsp
	.loc	0 405 22                        # x264_src/input/timecode.c:405:22
	movq	stderr@GOTPCREL(%rip), %rax
	movq	(%rax), %rcx
	.loc	0 405 13 is_stmt 0              # x264_src/input/timecode.c:405:13
	movl	$.L.str.2, %edi
	movl	$63, %esi
	jmp	.LBB0_97
.Ltmp240:
.LBB0_96:                               # %if.then
	#DEBUG_VALUE: open_file:psz_filename <- $r15
	#DEBUG_VALUE: open_file:p_handle <- $r14
	#DEBUG_VALUE: open_file:info <- $rbx
	#DEBUG_VALUE: open_file:opt <- $r12
	#DEBUG_VALUE: open_file:ret <- 0
	#DEBUG_VALUE: open_file:h <- $rax
	.loc	0 391 18 is_stmt 1              # x264_src/input/timecode.c:391:18
	movq	stderr@GOTPCREL(%rip), %rax
.Ltmp241:
	movq	(%rax), %rcx
	.loc	0 391 9 is_stmt 0               # x264_src/input/timecode.c:391:9
	movl	$.L.str, %edi
	movl	$32, %esi
.Ltmp242:
.LBB0_97:                               # %cleanup
	#DEBUG_VALUE: open_file:psz_filename <- [DW_OP_LLVM_entry_value 1] $rdi
	#DEBUG_VALUE: open_file:p_handle <- $r14
	#DEBUG_VALUE: open_file:info <- [DW_OP_LLVM_entry_value 1] $rdx
	#DEBUG_VALUE: open_file:opt <- $r12
	.loc	0 0 0                           # x264_src/input/timecode.c:0:0
	movl	$1, %edx
	callq	fwrite@PLT
.Ltmp243:
	jmp	.LBB0_196
.Ltmp244:
.LBB0_98:                               # %if.end22.i
	#DEBUG_VALUE: open_file:psz_filename <- [DW_OP_LLVM_entry_value 1] $rdi
	#DEBUG_VALUE: open_file:p_handle <- [DW_OP_LLVM_entry_value 1] $rsi
	#DEBUG_VALUE: open_file:info <- [DW_OP_plus_uconst 96] [$rsp+0]
	#DEBUG_VALUE: open_file:opt <- [DW_OP_LLVM_entry_value 1] $rcx
	#DEBUG_VALUE: open_file:h <- [DW_OP_plus_uconst 16, DW_OP_deref] $rsp
	#DEBUG_VALUE: open_file:tcfile_in <- $r14
	#DEBUG_VALUE: end <- [DW_OP_deref] $rsp
	#DEBUG_VALUE: parse_tcfile:tcfile_in <- $r14
	#DEBUG_VALUE: parse_tcfile:h <- [DW_OP_plus_uconst 16, DW_OP_deref] $rsp
	#DEBUG_VALUE: parse_tcfile:info <- [DW_OP_plus_uconst 96, DW_OP_deref] $rsp
	#DEBUG_VALUE: parse_tcfile:timecodes <- 0
	#DEBUG_VALUE: parse_tcfile:fpss <- 0
	#DEBUG_VALUE: parse_tcfile:num <- $r12d
	#DEBUG_VALUE: prev_start <- -1
	#DEBUG_VALUE: prev_end <- -1
	leaq	128(%rsp), %rdi
.Ltmp245:
	.loc	0 131 17 is_stmt 1              # x264_src/input/timecode.c:131:17
	movl	$.L.str.8, %esi
	movq	24(%rsp), %rbx                  # 8-byte Reload
	movq	%rbx, %rdx
	xorl	%eax, %eax
	callq	__isoc99_sscanf@PLT
.Ltmp246:
	.loc	0 131 62 is_stmt 0              # x264_src/input/timecode.c:131:62
	cmpl	$1, %eax
	.loc	0 131 67                        # x264_src/input/timecode.c:131:67
	je	.LBB0_20
.Ltmp247:
# %bb.99:                               # %land.lhs.true28.i
	#DEBUG_VALUE: open_file:psz_filename <- [DW_OP_LLVM_entry_value 1] $rdi
	#DEBUG_VALUE: open_file:p_handle <- [DW_OP_LLVM_entry_value 1] $rsi
	#DEBUG_VALUE: open_file:info <- [DW_OP_plus_uconst 96] [$rsp+0]
	#DEBUG_VALUE: open_file:opt <- [DW_OP_LLVM_entry_value 1] $rcx
	#DEBUG_VALUE: open_file:h <- [DW_OP_plus_uconst 16, DW_OP_deref] $rsp
	#DEBUG_VALUE: open_file:tcfile_in <- $r14
	#DEBUG_VALUE: end <- [DW_OP_deref] $rsp
	#DEBUG_VALUE: parse_tcfile:tcfile_in <- $r14
	#DEBUG_VALUE: parse_tcfile:h <- [DW_OP_plus_uconst 16, DW_OP_deref] $rsp
	#DEBUG_VALUE: parse_tcfile:info <- [DW_OP_plus_uconst 96, DW_OP_deref] $rsp
	#DEBUG_VALUE: parse_tcfile:timecodes <- 0
	#DEBUG_VALUE: parse_tcfile:fpss <- 0
	#DEBUG_VALUE: parse_tcfile:num <- $r12d
	#DEBUG_VALUE: prev_start <- -1
	#DEBUG_VALUE: prev_end <- -1
	.loc	0 0 67                          # x264_src/input/timecode.c:0:67
	leaq	128(%rsp), %rdi
	.loc	0 131 70                        # x264_src/input/timecode.c:131:70
	movl	$.L.str.9, %esi
	movq	%rbx, %rdx
	xorl	%eax, %eax
	callq	__isoc99_sscanf@PLT
.Ltmp248:
	.loc	0 131 115                       # x264_src/input/timecode.c:131:115
	cmpl	$1, %eax
.Ltmp249:
	.loc	0 131 17                        # x264_src/input/timecode.c:131:17
	je	.LBB0_20
.Ltmp250:
# %bb.100:                              # %if.then34.i
	#DEBUG_VALUE: open_file:psz_filename <- [DW_OP_LLVM_entry_value 1] $rdi
	#DEBUG_VALUE: open_file:p_handle <- [DW_OP_LLVM_entry_value 1] $rsi
	#DEBUG_VALUE: open_file:info <- [DW_OP_plus_uconst 96] [$rsp+0]
	#DEBUG_VALUE: open_file:opt <- [DW_OP_LLVM_entry_value 1] $rcx
	#DEBUG_VALUE: open_file:h <- [DW_OP_plus_uconst 16, DW_OP_deref] $rsp
	#DEBUG_VALUE: open_file:tcfile_in <- $r14
	#DEBUG_VALUE: end <- [DW_OP_deref] $rsp
	#DEBUG_VALUE: parse_tcfile:tcfile_in <- $r14
	#DEBUG_VALUE: parse_tcfile:h <- [DW_OP_plus_uconst 16, DW_OP_deref] $rsp
	#DEBUG_VALUE: parse_tcfile:info <- [DW_OP_plus_uconst 96, DW_OP_deref] $rsp
	#DEBUG_VALUE: parse_tcfile:timecodes <- 0
	#DEBUG_VALUE: parse_tcfile:fpss <- 0
	#DEBUG_VALUE: parse_tcfile:num <- $r12d
	#DEBUG_VALUE: prev_start <- -1
	#DEBUG_VALUE: prev_end <- -1
	.loc	0 133 26 is_stmt 1              # x264_src/input/timecode.c:133:26
	movq	stderr@GOTPCREL(%rip), %rax
	movq	(%rax), %rcx
	.loc	0 133 17 is_stmt 0              # x264_src/input/timecode.c:133:17
	movl	$.L.str.10, %edi
	movl	$62, %esi
	jmp	.LBB0_94
.Ltmp251:
.LBB0_101:                              # %if.then40
	#DEBUG_VALUE: open_file:psz_filename <- $r15
	#DEBUG_VALUE: open_file:p_handle <- $r14
	#DEBUG_VALUE: open_file:info <- [DW_OP_plus_uconst 96] [$rsp+0]
	#DEBUG_VALUE: open_file:opt <- $r12
	#DEBUG_VALUE: open_file:h <- [DW_OP_plus_uconst 16, DW_OP_deref] $rsp
	#DEBUG_VALUE: open_file:tcfile_in <- $rax
	.loc	0 423 18 is_stmt 1              # x264_src/input/timecode.c:423:18
	movq	stderr@GOTPCREL(%rip), %rax
.Ltmp252:
	movq	(%rax), %rdi
	.loc	0 423 9 is_stmt 0               # x264_src/input/timecode.c:423:9
	movl	$.L.str.4, %esi
	movq	%r15, %rdx
	xorl	%eax, %eax
	callq	fprintf@PLT
.Ltmp253:
	.loc	0 0 9                           # x264_src/input/timecode.c:0:9
	jmp	.LBB0_196
.Ltmp254:
.LBB0_102:                              # %for.end540.i
	#DEBUG_VALUE: open_file:psz_filename <- [DW_OP_LLVM_entry_value 1] $rdi
	#DEBUG_VALUE: open_file:p_handle <- [DW_OP_LLVM_entry_value 1] $rsi
	#DEBUG_VALUE: open_file:info <- [DW_OP_plus_uconst 96] [$rsp+0]
	#DEBUG_VALUE: open_file:opt <- [DW_OP_LLVM_entry_value 1] $rcx
	#DEBUG_VALUE: open_file:h <- [DW_OP_plus_uconst 16, DW_OP_deref] $rsp
	#DEBUG_VALUE: open_file:tcfile_in <- $r14
	#DEBUG_VALUE: parse_tcfile:tcfile_in <- $r14
	#DEBUG_VALUE: parse_tcfile:h <- [DW_OP_plus_uconst 16, DW_OP_deref] $rsp
	#DEBUG_VALUE: parse_tcfile:info <- [DW_OP_plus_uconst 96, DW_OP_deref] $rsp
	#DEBUG_VALUE: parse_tcfile:timecodes <- $r12
	#DEBUG_VALUE: parse_tcfile:fpss <- [DW_OP_plus_uconst 64, DW_OP_deref] $rsp
	#DEBUG_VALUE: parse_tcfile:timecodes_num <- [DW_OP_plus_uconst 24, DW_OP_deref] $rsp
	movq	88(%rsp), %rax                  # 8-byte Reload
.Ltmp255:
	.loc	0 327 17 is_stmt 1              # x264_src/input/timecode.c:327:17
	cmpl	$0, (%rax)
	movq	64(%rsp), %r15                  # 8-byte Reload
	.loc	0 327 38 is_stmt 0              # x264_src/input/timecode.c:327:38
	je	.LBB0_105
.Ltmp256:
# %bb.103:                              # %land.lhs.true543.i
	#DEBUG_VALUE: open_file:psz_filename <- [DW_OP_LLVM_entry_value 1] $rdi
	#DEBUG_VALUE: open_file:p_handle <- [DW_OP_LLVM_entry_value 1] $rsi
	#DEBUG_VALUE: open_file:info <- [DW_OP_plus_uconst 96] [$rsp+0]
	#DEBUG_VALUE: open_file:opt <- [DW_OP_LLVM_entry_value 1] $rcx
	#DEBUG_VALUE: open_file:h <- [DW_OP_plus_uconst 16, DW_OP_deref] $rsp
	#DEBUG_VALUE: open_file:tcfile_in <- $r14
	#DEBUG_VALUE: parse_tcfile:tcfile_in <- $r14
	#DEBUG_VALUE: parse_tcfile:h <- [DW_OP_plus_uconst 16, DW_OP_deref] $rsp
	#DEBUG_VALUE: parse_tcfile:info <- [DW_OP_plus_uconst 96, DW_OP_deref] $rsp
	#DEBUG_VALUE: parse_tcfile:timecodes <- $r12
	#DEBUG_VALUE: parse_tcfile:fpss <- [DW_OP_plus_uconst 64, DW_OP_deref] $rsp
	#DEBUG_VALUE: parse_tcfile:timecodes_num <- [DW_OP_plus_uconst 24, DW_OP_deref] $rsp
	.loc	0 0 38                          # x264_src/input/timecode.c:0:38
	movq	40(%rsp), %rax                  # 8-byte Reload
	.loc	0 327 42                        # x264_src/input/timecode.c:327:42
	cmpl	$0, (%rax)
.Ltmp257:
	.loc	0 327 17                        # x264_src/input/timecode.c:327:17
	jne	.LBB0_105
.Ltmp258:
# %bb.104:                              # %if.then546.i
	#DEBUG_VALUE: open_file:psz_filename <- [DW_OP_LLVM_entry_value 1] $rdi
	#DEBUG_VALUE: open_file:p_handle <- [DW_OP_LLVM_entry_value 1] $rsi
	#DEBUG_VALUE: open_file:info <- [DW_OP_plus_uconst 96] [$rsp+0]
	#DEBUG_VALUE: open_file:opt <- [DW_OP_LLVM_entry_value 1] $rcx
	#DEBUG_VALUE: open_file:h <- [DW_OP_plus_uconst 16, DW_OP_deref] $rsp
	#DEBUG_VALUE: open_file:tcfile_in <- $r14
	#DEBUG_VALUE: parse_tcfile:tcfile_in <- $r14
	#DEBUG_VALUE: parse_tcfile:h <- [DW_OP_plus_uconst 16, DW_OP_deref] $rsp
	#DEBUG_VALUE: parse_tcfile:info <- [DW_OP_plus_uconst 96, DW_OP_deref] $rsp
	#DEBUG_VALUE: parse_tcfile:timecodes <- $r12
	#DEBUG_VALUE: parse_tcfile:fpss <- [DW_OP_plus_uconst 64, DW_OP_deref] $rsp
	#DEBUG_VALUE: parse_tcfile:timecodes_num <- [DW_OP_plus_uconst 24, DW_OP_deref] $rsp
	.loc	0 328 21 is_stmt 1              # x264_src/input/timecode.c:328:21
	movq	%r15, %rdi
	movq	%rbp, %rsi
	movl	32(%rsp), %edx                  # 4-byte Reload
	callq	try_mkv_timebase_den
.Ltmp259:
	.loc	0 328 72 is_stmt 0              # x264_src/input/timecode.c:328:72
	testl	%eax, %eax
.Ltmp260:
	.loc	0 328 21                        # x264_src/input/timecode.c:328:21
	js	.LBB0_190
.Ltmp261:
.LBB0_105:                              # %if.end553.i
	#DEBUG_VALUE: open_file:psz_filename <- [DW_OP_LLVM_entry_value 1] $rdi
	#DEBUG_VALUE: open_file:p_handle <- [DW_OP_LLVM_entry_value 1] $rsi
	#DEBUG_VALUE: open_file:info <- [DW_OP_plus_uconst 96] [$rsp+0]
	#DEBUG_VALUE: open_file:opt <- [DW_OP_LLVM_entry_value 1] $rcx
	#DEBUG_VALUE: open_file:h <- [DW_OP_plus_uconst 16, DW_OP_deref] $rsp
	#DEBUG_VALUE: open_file:tcfile_in <- $r14
	#DEBUG_VALUE: parse_tcfile:tcfile_in <- $r14
	#DEBUG_VALUE: parse_tcfile:h <- [DW_OP_plus_uconst 16, DW_OP_deref] $rsp
	#DEBUG_VALUE: parse_tcfile:info <- [DW_OP_plus_uconst 96, DW_OP_deref] $rsp
	#DEBUG_VALUE: parse_tcfile:timecodes <- $r12
	#DEBUG_VALUE: parse_tcfile:fpss <- [DW_OP_plus_uconst 64, DW_OP_deref] $rsp
	#DEBUG_VALUE: parse_tcfile:timecodes_num <- [DW_OP_plus_uconst 24, DW_OP_deref] $rsp
	.loc	0 330 13 is_stmt 1              # x264_src/input/timecode.c:330:13
	movq	%r15, %rdi
	callq	free@PLT
.Ltmp262:
	.loc	0 0 13 is_stmt 0                # x264_src/input/timecode.c:0:13
	movq	24(%rsp), %r13                  # 8-byte Reload
	cmpl	$1, %r13d
.Ltmp263:
	#DEBUG_VALUE: parse_tcfile:fpss <- [DW_OP_plus_uconst 64, DW_OP_deref] $rsp
	.loc	0 333 13 is_stmt 1              # x264_src/input/timecode.c:333:13
	jg	.LBB0_109
.Ltmp264:
.LBB0_106:                              # %if.end555.i.if.else568.i_crit_edge
	#DEBUG_VALUE: open_file:psz_filename <- [DW_OP_LLVM_entry_value 1] $rdi
	#DEBUG_VALUE: open_file:p_handle <- [DW_OP_LLVM_entry_value 1] $rsi
	#DEBUG_VALUE: open_file:info <- [DW_OP_plus_uconst 96] [$rsp+0]
	#DEBUG_VALUE: open_file:opt <- [DW_OP_LLVM_entry_value 1] $rcx
	#DEBUG_VALUE: open_file:h <- [DW_OP_plus_uconst 16, DW_OP_deref] $rsp
	#DEBUG_VALUE: open_file:tcfile_in <- $r14
	#DEBUG_VALUE: parse_tcfile:tcfile_in <- $r14
	#DEBUG_VALUE: parse_tcfile:h <- [DW_OP_plus_uconst 16, DW_OP_deref] $rsp
	#DEBUG_VALUE: parse_tcfile:info <- [DW_OP_plus_uconst 96, DW_OP_deref] $rsp
	#DEBUG_VALUE: parse_tcfile:timecodes <- $r12
	#DEBUG_VALUE: parse_tcfile:fpss <- $r15
	#DEBUG_VALUE: parse_tcfile:timecodes_num <- [DW_OP_plus_uconst 24, DW_OP_deref] $rsp
	.loc	0 336 43                        # x264_src/input/timecode.c:336:43
	movl	4(%rbx), %eax
.Ltmp265:
.LBB0_107:                              # %if.else568.i
	#DEBUG_VALUE: open_file:psz_filename <- [DW_OP_LLVM_entry_value 1] $rdi
	#DEBUG_VALUE: open_file:p_handle <- [DW_OP_LLVM_entry_value 1] $rsi
	#DEBUG_VALUE: open_file:info <- [DW_OP_plus_uconst 96] [$rsp+0]
	#DEBUG_VALUE: open_file:opt <- [DW_OP_LLVM_entry_value 1] $rcx
	#DEBUG_VALUE: open_file:h <- [DW_OP_plus_uconst 16, DW_OP_deref] $rsp
	#DEBUG_VALUE: open_file:tcfile_in <- $r14
	#DEBUG_VALUE: parse_tcfile:tcfile_in <- $r14
	#DEBUG_VALUE: parse_tcfile:h <- [DW_OP_plus_uconst 16, DW_OP_deref] $rsp
	#DEBUG_VALUE: parse_tcfile:info <- [DW_OP_plus_uconst 96, DW_OP_deref] $rsp
	#DEBUG_VALUE: parse_tcfile:timecodes <- $r12
	#DEBUG_VALUE: parse_tcfile:timecodes_num <- [DW_OP_plus_uconst 24, DW_OP_deref] $rsp
	.loc	0 336 29 is_stmt 0              # x264_src/input/timecode.c:336:29
	movl	%eax, %eax
	xorps	%xmm0, %xmm0
	cvtsi2sd	%rax, %xmm0
	.loc	0 336 59                        # x264_src/input/timecode.c:336:59
	movl	8(%rbx), %eax
	.loc	0 336 53                        # x264_src/input/timecode.c:336:53
	xorps	%xmm1, %xmm1
	cvtsi2sd	%rax, %xmm1
	.loc	0 336 51                        # x264_src/input/timecode.c:336:51
	divsd	%xmm1, %xmm0
	.loc	0 336 27                        # x264_src/input/timecode.c:336:27
	movsd	%xmm0, 112(%rbp)
.Ltmp266:
	.loc	0 337 28 is_stmt 1              # x264_src/input/timecode.c:337:28
	movsd	-8(%r12,%r13,8), %xmm0          # xmm0 = mem[0],zero
	jmp	.LBB0_139
.Ltmp267:
.LBB0_108:
	#DEBUG_VALUE: open_file:psz_filename <- [DW_OP_LLVM_entry_value 1] $rdi
	#DEBUG_VALUE: open_file:p_handle <- [DW_OP_LLVM_entry_value 1] $rsi
	#DEBUG_VALUE: open_file:info <- [DW_OP_plus_uconst 96] [$rsp+0]
	#DEBUG_VALUE: open_file:opt <- [DW_OP_LLVM_entry_value 1] $rcx
	#DEBUG_VALUE: open_file:h <- [DW_OP_plus_uconst 16, DW_OP_deref] $rsp
	#DEBUG_VALUE: open_file:tcfile_in <- $r14
	#DEBUG_VALUE: parse_tcfile:tcfile_in <- $r14
	#DEBUG_VALUE: parse_tcfile:h <- [DW_OP_plus_uconst 16, DW_OP_deref] $rsp
	#DEBUG_VALUE: parse_tcfile:info <- [DW_OP_plus_uconst 96, DW_OP_deref] $rsp
	#DEBUG_VALUE: parse_tcfile:timecodes <- $r12
	#DEBUG_VALUE: parse_tcfile:fpss <- 0
	#DEBUG_VALUE: parse_tcfile:timecodes_num <- [DW_OP_plus_uconst 24, DW_OP_deref] $rsp
	.loc	0 0 28 is_stmt 0                # x264_src/input/timecode.c:0:28
	xorl	%r15d, %r15d
	cmpl	$1, %r13d
.Ltmp268:
	#DEBUG_VALUE: parse_tcfile:fpss <- $r15
	.loc	0 333 13 is_stmt 1              # x264_src/input/timecode.c:333:13
	jle	.LBB0_106
.Ltmp269:
.LBB0_109:                              # %if.then558.i
	#DEBUG_VALUE: open_file:psz_filename <- [DW_OP_LLVM_entry_value 1] $rdi
	#DEBUG_VALUE: open_file:p_handle <- [DW_OP_LLVM_entry_value 1] $rsi
	#DEBUG_VALUE: open_file:info <- [DW_OP_plus_uconst 96] [$rsp+0]
	#DEBUG_VALUE: open_file:opt <- [DW_OP_LLVM_entry_value 1] $rcx
	#DEBUG_VALUE: open_file:h <- [DW_OP_plus_uconst 16, DW_OP_deref] $rsp
	#DEBUG_VALUE: open_file:tcfile_in <- $r14
	#DEBUG_VALUE: parse_tcfile:tcfile_in <- $r14
	#DEBUG_VALUE: parse_tcfile:h <- [DW_OP_plus_uconst 16, DW_OP_deref] $rsp
	#DEBUG_VALUE: parse_tcfile:info <- [DW_OP_plus_uconst 96, DW_OP_deref] $rsp
	#DEBUG_VALUE: parse_tcfile:timecodes <- $r12
	#DEBUG_VALUE: parse_tcfile:fpss <- $r15
	#DEBUG_VALUE: parse_tcfile:timecodes_num <- [DW_OP_plus_uconst 24, DW_OP_deref] $rsp
	.loc	0 334 34                        # x264_src/input/timecode.c:334:34
	movl	%r13d, %eax
	movsd	-8(%r12,%rax,8), %xmm0          # xmm0 = mem[0],zero
	.loc	0 334 63 is_stmt 0              # x264_src/input/timecode.c:334:63
	movapd	%xmm0, %xmm1
	subsd	-16(%r12,%rax,8), %xmm1
	movsd	.LCPI0_1(%rip), %xmm2           # xmm2 = [1.0E+0,0.0E+0]
	.loc	0 334 31                        # x264_src/input/timecode.c:334:31
	divsd	%xmm1, %xmm2
	.loc	0 334 27                        # x264_src/input/timecode.c:334:27
	movsd	%xmm2, 112(%rbp)
	.loc	0 334 13                        # x264_src/input/timecode.c:334:13
	jmp	.LBB0_139
.Ltmp270:
.LBB0_110:
	#DEBUG_VALUE: open_file:psz_filename <- [DW_OP_LLVM_entry_value 1] $rdi
	#DEBUG_VALUE: open_file:p_handle <- [DW_OP_LLVM_entry_value 1] $rsi
	#DEBUG_VALUE: open_file:info <- [DW_OP_plus_uconst 96] [$rsp+0]
	#DEBUG_VALUE: open_file:opt <- [DW_OP_LLVM_entry_value 1] $rcx
	#DEBUG_VALUE: open_file:h <- [DW_OP_plus_uconst 16, DW_OP_deref] $rsp
	#DEBUG_VALUE: open_file:tcfile_in <- $r14
	#DEBUG_VALUE: end <- [DW_OP_deref] $rsp
	#DEBUG_VALUE: parse_tcfile:tcfile_in <- $r14
	#DEBUG_VALUE: parse_tcfile:h <- [DW_OP_plus_uconst 16, DW_OP_deref] $rsp
	#DEBUG_VALUE: parse_tcfile:info <- [DW_OP_plus_uconst 96, DW_OP_deref] $rsp
	#DEBUG_VALUE: parse_tcfile:timecodes <- $r12
	#DEBUG_VALUE: parse_tcfile:fpss <- 0
	#DEBUG_VALUE: parse_tcfile:timecodes_num <- $ebx
	#DEBUG_VALUE: file_pos <- [DW_OP_plus_uconst 112, DW_OP_deref] $rsp
	.loc	0 0 13                          # x264_src/input/timecode.c:0:13
	xorl	%r15d, %r15d
.Ltmp271:
.LBB0_111:                              # %if.end138.i
	#DEBUG_VALUE: open_file:psz_filename <- [DW_OP_LLVM_entry_value 1] $rdi
	#DEBUG_VALUE: open_file:p_handle <- [DW_OP_LLVM_entry_value 1] $rsi
	#DEBUG_VALUE: open_file:info <- [DW_OP_plus_uconst 96] [$rsp+0]
	#DEBUG_VALUE: open_file:opt <- [DW_OP_LLVM_entry_value 1] $rcx
	#DEBUG_VALUE: open_file:h <- [DW_OP_plus_uconst 16, DW_OP_deref] $rsp
	#DEBUG_VALUE: open_file:tcfile_in <- $r14
	#DEBUG_VALUE: end <- [DW_OP_deref] $rsp
	#DEBUG_VALUE: parse_tcfile:tcfile_in <- $r14
	#DEBUG_VALUE: parse_tcfile:h <- [DW_OP_plus_uconst 16, DW_OP_deref] $rsp
	#DEBUG_VALUE: parse_tcfile:info <- [DW_OP_plus_uconst 96, DW_OP_deref] $rsp
	#DEBUG_VALUE: parse_tcfile:timecodes <- $r12
	#DEBUG_VALUE: parse_tcfile:timecodes_num <- $ebx
	#DEBUG_VALUE: file_pos <- [DW_OP_plus_uconst 112, DW_OP_deref] $rsp
	#DEBUG_VALUE: parse_tcfile:fpss <- $r15
	.loc	0 185 38 is_stmt 1              # x264_src/input/timecode.c:185:38
	movsd	112(%rbp), %xmm0                # xmm0 = mem[0],zero
	.loc	0 185 22 is_stmt 0              # x264_src/input/timecode.c:185:22
	movq	%rbp, %rdi
	callq	correct_fps
.Ltmp272:
	#DEBUG_VALUE: assume_fps <- $xmm0
	.loc	0 0 22                          # x264_src/input/timecode.c:0:22
	xorpd	%xmm1, %xmm1
.Ltmp273:
	.loc	0 186 24 is_stmt 1              # x264_src/input/timecode.c:186:24
	ucomisd	%xmm0, %xmm1
	ja	.LBB0_190
.Ltmp274:
# %bb.112:                              # %if.end144.i
	#DEBUG_VALUE: open_file:psz_filename <- [DW_OP_LLVM_entry_value 1] $rdi
	#DEBUG_VALUE: open_file:p_handle <- [DW_OP_LLVM_entry_value 1] $rsi
	#DEBUG_VALUE: open_file:info <- [DW_OP_plus_uconst 96] [$rsp+0]
	#DEBUG_VALUE: open_file:opt <- [DW_OP_LLVM_entry_value 1] $rcx
	#DEBUG_VALUE: open_file:h <- [DW_OP_plus_uconst 16, DW_OP_deref] $rsp
	#DEBUG_VALUE: open_file:tcfile_in <- $r14
	#DEBUG_VALUE: end <- [DW_OP_deref] $rsp
	#DEBUG_VALUE: parse_tcfile:tcfile_in <- $r14
	#DEBUG_VALUE: parse_tcfile:h <- [DW_OP_plus_uconst 16, DW_OP_deref] $rsp
	#DEBUG_VALUE: parse_tcfile:info <- [DW_OP_plus_uconst 96, DW_OP_deref] $rsp
	#DEBUG_VALUE: parse_tcfile:timecodes <- $r12
	#DEBUG_VALUE: parse_tcfile:fpss <- $r15
	#DEBUG_VALUE: parse_tcfile:timecodes_num <- $ebx
	#DEBUG_VALUE: file_pos <- [DW_OP_plus_uconst 112, DW_OP_deref] $rsp
	#DEBUG_VALUE: assume_fps <- $xmm0
	.loc	0 0 24 is_stmt 0                # x264_src/input/timecode.c:0:24
	movq	%r15, 64(%rsp)                  # 8-byte Spill
.Ltmp275:
	#DEBUG_VALUE: parse_tcfile:fpss <- [DW_OP_plus_uconst 64, DW_OP_deref] $rsp
	.loc	0 188 22 is_stmt 1              # x264_src/input/timecode.c:188:22
	movq	$0, (%r12)
.Ltmp276:
	#DEBUG_VALUE: parse_tcfile:seq_num <- 0
	#DEBUG_VALUE: parse_tcfile:num <- 0
	.loc	0 0 22 is_stmt 0                # x264_src/input/timecode.c:0:22
	leal	-1(%rbx), %r8d
	movl	$0, 32(%rsp)                    # 4-byte Folded Spill
	movq	%rbx, 120(%rsp)                 # 8-byte Spill
.Ltmp277:
	#DEBUG_VALUE: parse_tcfile:timecodes_num <- [DW_OP_plus_uconst 120, DW_OP_deref] $rsp
	cmpl	$2, %ebx
	movl	%r8d, 48(%rsp)                  # 4-byte Spill
.Ltmp278:
	.loc	0 189 9 is_stmt 1               # x264_src/input/timecode.c:189:9
	jl	.LBB0_135
.Ltmp279:
# %bb.113:                              # %for.body150.lr.ph.lr.ph.i
	#DEBUG_VALUE: open_file:psz_filename <- [DW_OP_LLVM_entry_value 1] $rdi
	#DEBUG_VALUE: open_file:p_handle <- [DW_OP_LLVM_entry_value 1] $rsi
	#DEBUG_VALUE: open_file:info <- [DW_OP_plus_uconst 96] [$rsp+0]
	#DEBUG_VALUE: open_file:opt <- [DW_OP_LLVM_entry_value 1] $rcx
	#DEBUG_VALUE: open_file:h <- [DW_OP_plus_uconst 16, DW_OP_deref] $rsp
	#DEBUG_VALUE: open_file:tcfile_in <- $r14
	#DEBUG_VALUE: end <- [DW_OP_deref] $rsp
	#DEBUG_VALUE: parse_tcfile:tcfile_in <- $r14
	#DEBUG_VALUE: parse_tcfile:h <- [DW_OP_plus_uconst 16, DW_OP_deref] $rsp
	#DEBUG_VALUE: parse_tcfile:info <- [DW_OP_plus_uconst 96, DW_OP_deref] $rsp
	#DEBUG_VALUE: parse_tcfile:timecodes <- $r12
	#DEBUG_VALUE: parse_tcfile:fpss <- [DW_OP_plus_uconst 64, DW_OP_deref] $rsp
	#DEBUG_VALUE: parse_tcfile:num <- 0
	#DEBUG_VALUE: parse_tcfile:timecodes_num <- [DW_OP_plus_uconst 120, DW_OP_deref] $rsp
	#DEBUG_VALUE: file_pos <- [DW_OP_plus_uconst 112, DW_OP_deref] $rsp
	#DEBUG_VALUE: parse_tcfile:seq_num <- 0
	#DEBUG_VALUE: assume_fps <- $xmm0
	.loc	0 0 9 is_stmt 0                 # x264_src/input/timecode.c:0:9
	movsd	.LCPI0_1(%rip), %xmm1           # xmm1 = [1.0E+0,0.0E+0]
	divsd	%xmm0, %xmm1
	.loc	0 189 9                         # x264_src/input/timecode.c:189:9
	movl	%r8d, %ebp
	leaq	128(%rsp), %r15
	movabsq	$34359747584, %r13              # imm = 0x800002400
	xorl	%ebx, %ebx
	movl	$0, 32(%rsp)                    # 4-byte Folded Spill
	movsd	%xmm0, 8(%rsp)                  # 8-byte Spill
.Ltmp280:
	#DEBUG_VALUE: assume_fps <- [DW_OP_plus_uconst 8, DW_OP_deref_size 16, DW_OP_stack_value] $rsp
	.loc	0 0 9                           # x264_src/input/timecode.c:0:9
	movsd	%xmm1, 72(%rsp)                 # 8-byte Spill
.Ltmp281:
	#DEBUG_VALUE: parse_tcfile:num <- $ebx
	#DEBUG_VALUE: parse_tcfile:seq_num <- [DW_OP_plus_uconst 32, DW_OP_deref] $rsp
	jmp	.LBB0_115
.Ltmp282:
.LBB0_114:                              #   in Loop: Header=BB0_115 Depth=1
	#DEBUG_VALUE: open_file:psz_filename <- [DW_OP_LLVM_entry_value 1] $rdi
	#DEBUG_VALUE: open_file:p_handle <- [DW_OP_LLVM_entry_value 1] $rsi
	#DEBUG_VALUE: open_file:info <- [DW_OP_plus_uconst 96] [$rsp+0]
	#DEBUG_VALUE: open_file:opt <- [DW_OP_LLVM_entry_value 1] $rcx
	#DEBUG_VALUE: open_file:h <- [DW_OP_plus_uconst 16, DW_OP_deref] $rsp
	#DEBUG_VALUE: open_file:tcfile_in <- $r14
	#DEBUG_VALUE: parse_tcfile:tcfile_in <- $r14
	#DEBUG_VALUE: parse_tcfile:h <- [DW_OP_plus_uconst 16, DW_OP_deref] $rsp
	#DEBUG_VALUE: parse_tcfile:info <- [DW_OP_plus_uconst 96, DW_OP_deref] $rsp
	#DEBUG_VALUE: parse_tcfile:timecodes <- $r12
	#DEBUG_VALUE: parse_tcfile:fpss <- [DW_OP_plus_uconst 64, DW_OP_deref] $rsp
	#DEBUG_VALUE: parse_tcfile:timecodes_num <- [DW_OP_plus_uconst 120, DW_OP_deref] $rsp
	#DEBUG_VALUE: file_pos <- [DW_OP_plus_uconst 112, DW_OP_deref] $rsp
	#DEBUG_VALUE: parse_tcfile:seq_num <- [DW_OP_plus_uconst 32, DW_OP_deref] $rsp
	#DEBUG_VALUE: assume_fps <- [DW_OP_plus_uconst 8, DW_OP_deref_size 16, DW_OP_stack_value] $rsp
	movsd	8(%rsp), %xmm0                  # 8-byte Reload
                                        # xmm0 = mem[0],zero
.Ltmp283:
	#DEBUG_VALUE: parse_tcfile:num <- $ebx
	#DEBUG_VALUE: parse_tcfile:seq_num <- [DW_OP_plus_uconst 32, DW_OP_deref] $rsp
	cmpl	%r8d, %ebx
	.loc	0 189 9                         # x264_src/input/timecode.c:189:9
	jge	.LBB0_135
.Ltmp284:
	.p2align	4, 0x90
.LBB0_115:                              # %for.body150.us.i
                                        # =>This Loop Header: Depth=1
                                        #     Child Loop BB0_122 Depth 2
                                        #     Child Loop BB0_132 Depth 2
	#DEBUG_VALUE: open_file:psz_filename <- [DW_OP_LLVM_entry_value 1] $rdi
	#DEBUG_VALUE: open_file:p_handle <- [DW_OP_LLVM_entry_value 1] $rsi
	#DEBUG_VALUE: open_file:info <- [DW_OP_plus_uconst 96] [$rsp+0]
	#DEBUG_VALUE: open_file:opt <- [DW_OP_LLVM_entry_value 1] $rcx
	#DEBUG_VALUE: open_file:h <- [DW_OP_plus_uconst 16, DW_OP_deref] $rsp
	#DEBUG_VALUE: open_file:tcfile_in <- $r14
	#DEBUG_VALUE: parse_tcfile:tcfile_in <- $r14
	#DEBUG_VALUE: parse_tcfile:h <- [DW_OP_plus_uconst 16, DW_OP_deref] $rsp
	#DEBUG_VALUE: parse_tcfile:info <- [DW_OP_plus_uconst 96, DW_OP_deref] $rsp
	#DEBUG_VALUE: parse_tcfile:timecodes <- $r12
	#DEBUG_VALUE: parse_tcfile:fpss <- [DW_OP_plus_uconst 64, DW_OP_deref] $rsp
	#DEBUG_VALUE: parse_tcfile:num <- $ebx
	#DEBUG_VALUE: parse_tcfile:timecodes_num <- [DW_OP_plus_uconst 120, DW_OP_deref] $rsp
	#DEBUG_VALUE: file_pos <- [DW_OP_plus_uconst 112, DW_OP_deref] $rsp
	#DEBUG_VALUE: parse_tcfile:seq_num <- [DW_OP_plus_uconst 32, DW_OP_deref] $rsp
	#DEBUG_VALUE: assume_fps <- [DW_OP_plus_uconst 8, DW_OP_deref_size 16, DW_OP_stack_value] $rsp
	.loc	0 191 13 is_stmt 1              # x264_src/input/timecode.c:191:13
	movq	%r15, %rdi
	movl	$256, %esi                      # imm = 0x100
	movq	%r14, %rdx
	callq	fgets@PLT
.Ltmp285:
	.loc	0 192 17                        # x264_src/input/timecode.c:192:17
	movzbl	128(%rsp), %eax
	cmpq	$35, %rax
	.loc	0 192 32 is_stmt 0              # x264_src/input/timecode.c:192:32
	ja	.LBB0_117
.Ltmp286:
# %bb.116:                              # %for.body150.us.i
                                        #   in Loop: Header=BB0_115 Depth=1
	#DEBUG_VALUE: open_file:psz_filename <- [DW_OP_LLVM_entry_value 1] $rdi
	#DEBUG_VALUE: open_file:p_handle <- [DW_OP_LLVM_entry_value 1] $rsi
	#DEBUG_VALUE: open_file:info <- [DW_OP_plus_uconst 96] [$rsp+0]
	#DEBUG_VALUE: open_file:opt <- [DW_OP_LLVM_entry_value 1] $rcx
	#DEBUG_VALUE: open_file:h <- [DW_OP_plus_uconst 16, DW_OP_deref] $rsp
	#DEBUG_VALUE: open_file:tcfile_in <- $r14
	#DEBUG_VALUE: parse_tcfile:tcfile_in <- $r14
	#DEBUG_VALUE: parse_tcfile:h <- [DW_OP_plus_uconst 16, DW_OP_deref] $rsp
	#DEBUG_VALUE: parse_tcfile:info <- [DW_OP_plus_uconst 96, DW_OP_deref] $rsp
	#DEBUG_VALUE: parse_tcfile:timecodes <- $r12
	#DEBUG_VALUE: parse_tcfile:fpss <- [DW_OP_plus_uconst 64, DW_OP_deref] $rsp
	#DEBUG_VALUE: parse_tcfile:num <- $ebx
	#DEBUG_VALUE: parse_tcfile:timecodes_num <- [DW_OP_plus_uconst 120, DW_OP_deref] $rsp
	#DEBUG_VALUE: file_pos <- [DW_OP_plus_uconst 112, DW_OP_deref] $rsp
	#DEBUG_VALUE: parse_tcfile:seq_num <- [DW_OP_plus_uconst 32, DW_OP_deref] $rsp
	#DEBUG_VALUE: assume_fps <- [DW_OP_plus_uconst 8, DW_OP_deref_size 16, DW_OP_stack_value] $rsp
	.loc	0 0 32                          # x264_src/input/timecode.c:0:32
	btq	%rax, %r13
	jb	.LBB0_115
.Ltmp287:
.LBB0_117:                              # %if.end168.i
                                        #   in Loop: Header=BB0_115 Depth=1
	#DEBUG_VALUE: open_file:psz_filename <- [DW_OP_LLVM_entry_value 1] $rdi
	#DEBUG_VALUE: open_file:p_handle <- [DW_OP_LLVM_entry_value 1] $rsi
	#DEBUG_VALUE: open_file:info <- [DW_OP_plus_uconst 96] [$rsp+0]
	#DEBUG_VALUE: open_file:opt <- [DW_OP_LLVM_entry_value 1] $rcx
	#DEBUG_VALUE: open_file:h <- [DW_OP_plus_uconst 16, DW_OP_deref] $rsp
	#DEBUG_VALUE: open_file:tcfile_in <- $r14
	#DEBUG_VALUE: parse_tcfile:tcfile_in <- $r14
	#DEBUG_VALUE: parse_tcfile:h <- [DW_OP_plus_uconst 16, DW_OP_deref] $rsp
	#DEBUG_VALUE: parse_tcfile:info <- [DW_OP_plus_uconst 96, DW_OP_deref] $rsp
	#DEBUG_VALUE: parse_tcfile:timecodes <- $r12
	#DEBUG_VALUE: parse_tcfile:fpss <- [DW_OP_plus_uconst 64, DW_OP_deref] $rsp
	#DEBUG_VALUE: parse_tcfile:num <- $ebx
	#DEBUG_VALUE: parse_tcfile:timecodes_num <- [DW_OP_plus_uconst 120, DW_OP_deref] $rsp
	#DEBUG_VALUE: file_pos <- [DW_OP_plus_uconst 112, DW_OP_deref] $rsp
	#DEBUG_VALUE: parse_tcfile:seq_num <- [DW_OP_plus_uconst 32, DW_OP_deref] $rsp
	#DEBUG_VALUE: assume_fps <- [DW_OP_plus_uconst 8, DW_OP_deref_size 16, DW_OP_stack_value] $rsp
	.loc	0 194 19 is_stmt 1              # x264_src/input/timecode.c:194:19
	movl	$.L.str.13, %esi
	movq	%r15, %rdi
	leaq	4(%rsp), %rdx
	movq	%rsp, %rcx
	leaq	80(%rsp), %r8
	xorl	%eax, %eax
	callq	__isoc99_sscanf@PLT
.Ltmp288:
	#DEBUG_VALUE: parse_tcfile:ret <- $eax
	.loc	0 195 21                        # x264_src/input/timecode.c:195:21
	cmpl	$3, %eax
.Ltmp289:
	.loc	0 195 17 is_stmt 0              # x264_src/input/timecode.c:195:17
	jne	.LBB0_119
.Ltmp290:
# %bb.118:                              # %if.end168.if.end175_crit_edge.i
                                        #   in Loop: Header=BB0_115 Depth=1
	#DEBUG_VALUE: open_file:psz_filename <- [DW_OP_LLVM_entry_value 1] $rdi
	#DEBUG_VALUE: open_file:p_handle <- [DW_OP_LLVM_entry_value 1] $rsi
	#DEBUG_VALUE: open_file:info <- [DW_OP_plus_uconst 96] [$rsp+0]
	#DEBUG_VALUE: open_file:opt <- [DW_OP_LLVM_entry_value 1] $rcx
	#DEBUG_VALUE: open_file:h <- [DW_OP_plus_uconst 16, DW_OP_deref] $rsp
	#DEBUG_VALUE: open_file:tcfile_in <- $r14
	#DEBUG_VALUE: parse_tcfile:tcfile_in <- $r14
	#DEBUG_VALUE: parse_tcfile:h <- [DW_OP_plus_uconst 16, DW_OP_deref] $rsp
	#DEBUG_VALUE: parse_tcfile:info <- [DW_OP_plus_uconst 96, DW_OP_deref] $rsp
	#DEBUG_VALUE: parse_tcfile:timecodes <- $r12
	#DEBUG_VALUE: parse_tcfile:fpss <- [DW_OP_plus_uconst 64, DW_OP_deref] $rsp
	#DEBUG_VALUE: parse_tcfile:ret <- $eax
	#DEBUG_VALUE: parse_tcfile:num <- $ebx
	#DEBUG_VALUE: parse_tcfile:timecodes_num <- [DW_OP_plus_uconst 120, DW_OP_deref] $rsp
	#DEBUG_VALUE: file_pos <- [DW_OP_plus_uconst 112, DW_OP_deref] $rsp
	#DEBUG_VALUE: parse_tcfile:seq_num <- [DW_OP_plus_uconst 32, DW_OP_deref] $rsp
	#DEBUG_VALUE: assume_fps <- [DW_OP_plus_uconst 8, DW_OP_deref_size 16, DW_OP_stack_value] $rsp
	.loc	0 0 17                          # x264_src/input/timecode.c:0:17
	movl	4(%rsp), %eax
.Ltmp291:
	movl	48(%rsp), %r8d                  # 4-byte Reload
.Ltmp292:
	#DEBUG_VALUE: parse_tcfile:num <- undef
	.loc	0 197 32 is_stmt 1              # x264_src/input/timecode.c:197:32
	cmpl	%r8d, %ebx
	movsd	72(%rsp), %xmm1                 # 8-byte Reload
                                        # xmm1 = mem[0],zero
.Ltmp293:
	.loc	0 197 13 is_stmt 0              # x264_src/input/timecode.c:197:13
	jl	.LBB0_120
	jmp	.LBB0_125
.Ltmp294:
.LBB0_119:                              # %if.then173.i
                                        #   in Loop: Header=BB0_115 Depth=1
	#DEBUG_VALUE: open_file:psz_filename <- [DW_OP_LLVM_entry_value 1] $rdi
	#DEBUG_VALUE: open_file:p_handle <- [DW_OP_LLVM_entry_value 1] $rsi
	#DEBUG_VALUE: open_file:info <- [DW_OP_plus_uconst 96] [$rsp+0]
	#DEBUG_VALUE: open_file:opt <- [DW_OP_LLVM_entry_value 1] $rcx
	#DEBUG_VALUE: open_file:h <- [DW_OP_plus_uconst 16, DW_OP_deref] $rsp
	#DEBUG_VALUE: open_file:tcfile_in <- $r14
	#DEBUG_VALUE: parse_tcfile:tcfile_in <- $r14
	#DEBUG_VALUE: parse_tcfile:h <- [DW_OP_plus_uconst 16, DW_OP_deref] $rsp
	#DEBUG_VALUE: parse_tcfile:info <- [DW_OP_plus_uconst 96, DW_OP_deref] $rsp
	#DEBUG_VALUE: parse_tcfile:timecodes <- $r12
	#DEBUG_VALUE: parse_tcfile:fpss <- [DW_OP_plus_uconst 64, DW_OP_deref] $rsp
	#DEBUG_VALUE: parse_tcfile:ret <- $eax
	#DEBUG_VALUE: parse_tcfile:num <- $ebx
	#DEBUG_VALUE: parse_tcfile:timecodes_num <- [DW_OP_plus_uconst 120, DW_OP_deref] $rsp
	#DEBUG_VALUE: file_pos <- [DW_OP_plus_uconst 112, DW_OP_deref] $rsp
	#DEBUG_VALUE: parse_tcfile:seq_num <- [DW_OP_plus_uconst 32, DW_OP_deref] $rsp
	#DEBUG_VALUE: assume_fps <- [DW_OP_plus_uconst 8, DW_OP_deref_size 16, DW_OP_stack_value] $rsp
	.loc	0 0 13                          # x264_src/input/timecode.c:0:13
	movl	48(%rsp), %r8d                  # 4-byte Reload
.Ltmp295:
	.loc	0 196 29 is_stmt 1              # x264_src/input/timecode.c:196:29
	movl	%r8d, (%rsp)
.Ltmp296:
	#DEBUG_VALUE: end <- [DW_OP_deref] $rsp
	.loc	0 196 23 is_stmt 0              # x264_src/input/timecode.c:196:23
	movl	%r8d, 4(%rsp)
	movl	%r8d, %eax
.Ltmp297:
	#DEBUG_VALUE: parse_tcfile:num <- undef
	.loc	0 197 32 is_stmt 1              # x264_src/input/timecode.c:197:32
	cmpl	%r8d, %ebx
	movsd	72(%rsp), %xmm1                 # 8-byte Reload
                                        # xmm1 = mem[0],zero
.Ltmp298:
	.loc	0 197 13 is_stmt 0              # x264_src/input/timecode.c:197:13
	jge	.LBB0_125
.Ltmp299:
.LBB0_120:                              # %if.end175.i
                                        #   in Loop: Header=BB0_115 Depth=1
	#DEBUG_VALUE: open_file:psz_filename <- [DW_OP_LLVM_entry_value 1] $rdi
	#DEBUG_VALUE: open_file:p_handle <- [DW_OP_LLVM_entry_value 1] $rsi
	#DEBUG_VALUE: open_file:info <- [DW_OP_plus_uconst 96] [$rsp+0]
	#DEBUG_VALUE: open_file:opt <- [DW_OP_LLVM_entry_value 1] $rcx
	#DEBUG_VALUE: open_file:h <- [DW_OP_plus_uconst 16, DW_OP_deref] $rsp
	#DEBUG_VALUE: open_file:tcfile_in <- $r14
	#DEBUG_VALUE: parse_tcfile:tcfile_in <- $r14
	#DEBUG_VALUE: parse_tcfile:h <- [DW_OP_plus_uconst 16, DW_OP_deref] $rsp
	#DEBUG_VALUE: parse_tcfile:info <- [DW_OP_plus_uconst 96, DW_OP_deref] $rsp
	#DEBUG_VALUE: parse_tcfile:timecodes <- $r12
	#DEBUG_VALUE: parse_tcfile:fpss <- [DW_OP_plus_uconst 64, DW_OP_deref] $rsp
	#DEBUG_VALUE: parse_tcfile:timecodes_num <- [DW_OP_plus_uconst 120, DW_OP_deref] $rsp
	#DEBUG_VALUE: file_pos <- [DW_OP_plus_uconst 112, DW_OP_deref] $rsp
	#DEBUG_VALUE: parse_tcfile:seq_num <- [DW_OP_plus_uconst 32, DW_OP_deref] $rsp
	#DEBUG_VALUE: assume_fps <- [DW_OP_plus_uconst 8, DW_OP_deref_size 16, DW_OP_stack_value] $rsp
	cmpl	%eax, %ebx
	jge	.LBB0_125
.Ltmp300:
# %bb.121:                              # %for.body182.preheader.i
                                        #   in Loop: Header=BB0_115 Depth=1
	#DEBUG_VALUE: open_file:psz_filename <- [DW_OP_LLVM_entry_value 1] $rdi
	#DEBUG_VALUE: open_file:p_handle <- [DW_OP_LLVM_entry_value 1] $rsi
	#DEBUG_VALUE: open_file:info <- [DW_OP_plus_uconst 96] [$rsp+0]
	#DEBUG_VALUE: open_file:opt <- [DW_OP_LLVM_entry_value 1] $rcx
	#DEBUG_VALUE: open_file:h <- [DW_OP_plus_uconst 16, DW_OP_deref] $rsp
	#DEBUG_VALUE: open_file:tcfile_in <- $r14
	#DEBUG_VALUE: parse_tcfile:tcfile_in <- $r14
	#DEBUG_VALUE: parse_tcfile:h <- [DW_OP_plus_uconst 16, DW_OP_deref] $rsp
	#DEBUG_VALUE: parse_tcfile:info <- [DW_OP_plus_uconst 96, DW_OP_deref] $rsp
	#DEBUG_VALUE: parse_tcfile:timecodes <- $r12
	#DEBUG_VALUE: parse_tcfile:fpss <- [DW_OP_plus_uconst 64, DW_OP_deref] $rsp
	#DEBUG_VALUE: parse_tcfile:timecodes_num <- [DW_OP_plus_uconst 120, DW_OP_deref] $rsp
	#DEBUG_VALUE: file_pos <- [DW_OP_plus_uconst 112, DW_OP_deref] $rsp
	#DEBUG_VALUE: parse_tcfile:seq_num <- [DW_OP_plus_uconst 32, DW_OP_deref] $rsp
	#DEBUG_VALUE: assume_fps <- [DW_OP_plus_uconst 8, DW_OP_deref_size 16, DW_OP_stack_value] $rsp
	movslq	%ebx, %rdx
	cltq
.Ltmp301:
	.loc	0 198 38 is_stmt 1              # x264_src/input/timecode.c:198:38
	movsd	(%r12,%rdx,8), %xmm0            # xmm0 = mem[0],zero
.Ltmp302:
	.loc	0 197 13                        # x264_src/input/timecode.c:197:13
	incq	%rdx
.Ltmp303:
	.p2align	4, 0x90
.LBB0_122:                              # %for.body182.i
                                        #   Parent Loop BB0_115 Depth=1
                                        # =>  This Inner Loop Header: Depth=2
	#DEBUG_VALUE: open_file:psz_filename <- [DW_OP_LLVM_entry_value 1] $rdi
	#DEBUG_VALUE: open_file:p_handle <- [DW_OP_LLVM_entry_value 1] $rsi
	#DEBUG_VALUE: open_file:info <- [DW_OP_plus_uconst 96] [$rsp+0]
	#DEBUG_VALUE: open_file:opt <- [DW_OP_LLVM_entry_value 1] $rcx
	#DEBUG_VALUE: open_file:h <- [DW_OP_plus_uconst 16, DW_OP_deref] $rsp
	#DEBUG_VALUE: open_file:tcfile_in <- $r14
	#DEBUG_VALUE: parse_tcfile:tcfile_in <- $r14
	#DEBUG_VALUE: parse_tcfile:h <- [DW_OP_plus_uconst 16, DW_OP_deref] $rsp
	#DEBUG_VALUE: parse_tcfile:info <- [DW_OP_plus_uconst 96, DW_OP_deref] $rsp
	#DEBUG_VALUE: parse_tcfile:timecodes <- $r12
	#DEBUG_VALUE: parse_tcfile:fpss <- [DW_OP_plus_uconst 64, DW_OP_deref] $rsp
	#DEBUG_VALUE: parse_tcfile:timecodes_num <- [DW_OP_plus_uconst 120, DW_OP_deref] $rsp
	#DEBUG_VALUE: file_pos <- [DW_OP_plus_uconst 112, DW_OP_deref] $rsp
	#DEBUG_VALUE: parse_tcfile:seq_num <- [DW_OP_plus_uconst 32, DW_OP_deref] $rsp
	#DEBUG_VALUE: assume_fps <- [DW_OP_plus_uconst 8, DW_OP_deref_size 16, DW_OP_stack_value] $rsp
	.loc	0 198 38                        # x264_src/input/timecode.c:198:38
	movq	%rdx, %rcx
.Ltmp304:
	#DEBUG_VALUE: parse_tcfile:num <- [DW_OP_LLVM_arg 0, DW_OP_LLVM_arg 1, DW_OP_minus, DW_OP_LLVM_arg 1, DW_OP_LLVM_convert 64 5, DW_OP_plus, DW_OP_stack_value] undef, undef
	.loc	0 198 53 is_stmt 0              # x264_src/input/timecode.c:198:53
	addsd	%xmm1, %xmm0
	.loc	0 198 36                        # x264_src/input/timecode.c:198:36
	movsd	%xmm0, (%r12,%rdx,8)
.Ltmp305:
	.loc	0 197 13 is_stmt 1              # x264_src/input/timecode.c:197:13
	incl	%ebx
.Ltmp306:
	#DEBUG_VALUE: parse_tcfile:num <- [DW_OP_LLVM_arg 0, DW_OP_LLVM_arg 1, DW_OP_minus, DW_OP_consts 1, DW_OP_LLVM_arg 1, DW_OP_LLVM_convert 64 5, DW_OP_plus, DW_OP_plus, DW_OP_stack_value] undef, undef
	.loc	0 197 32 is_stmt 0              # x264_src/input/timecode.c:197:32
	cmpq	%rbp, %rdx
.Ltmp307:
	.loc	0 197 13                        # x264_src/input/timecode.c:197:13
	jge	.LBB0_124
.Ltmp308:
# %bb.123:                              # %for.body182.i
                                        #   in Loop: Header=BB0_122 Depth=2
	#DEBUG_VALUE: open_file:psz_filename <- [DW_OP_LLVM_entry_value 1] $rdi
	#DEBUG_VALUE: open_file:p_handle <- [DW_OP_LLVM_entry_value 1] $rsi
	#DEBUG_VALUE: open_file:info <- [DW_OP_plus_uconst 96] [$rsp+0]
	#DEBUG_VALUE: open_file:opt <- [DW_OP_LLVM_entry_value 1] $rcx
	#DEBUG_VALUE: open_file:h <- [DW_OP_plus_uconst 16, DW_OP_deref] $rsp
	#DEBUG_VALUE: open_file:tcfile_in <- $r14
	#DEBUG_VALUE: parse_tcfile:tcfile_in <- $r14
	#DEBUG_VALUE: parse_tcfile:h <- [DW_OP_plus_uconst 16, DW_OP_deref] $rsp
	#DEBUG_VALUE: parse_tcfile:info <- [DW_OP_plus_uconst 96, DW_OP_deref] $rsp
	#DEBUG_VALUE: parse_tcfile:timecodes <- $r12
	#DEBUG_VALUE: parse_tcfile:fpss <- [DW_OP_plus_uconst 64, DW_OP_deref] $rsp
	#DEBUG_VALUE: parse_tcfile:timecodes_num <- [DW_OP_plus_uconst 120, DW_OP_deref] $rsp
	#DEBUG_VALUE: file_pos <- [DW_OP_plus_uconst 112, DW_OP_deref] $rsp
	#DEBUG_VALUE: parse_tcfile:seq_num <- [DW_OP_plus_uconst 32, DW_OP_deref] $rsp
	#DEBUG_VALUE: assume_fps <- [DW_OP_plus_uconst 8, DW_OP_deref_size 16, DW_OP_stack_value] $rsp
	leaq	1(%rcx), %rdx
	cmpq	%rax, %rcx
	jl	.LBB0_122
.Ltmp309:
.LBB0_124:                              # %for.end190.loopexit.i
                                        #   in Loop: Header=BB0_115 Depth=1
	#DEBUG_VALUE: open_file:psz_filename <- [DW_OP_LLVM_entry_value 1] $rdi
	#DEBUG_VALUE: open_file:p_handle <- [DW_OP_LLVM_entry_value 1] $rsi
	#DEBUG_VALUE: open_file:info <- [DW_OP_plus_uconst 96] [$rsp+0]
	#DEBUG_VALUE: open_file:opt <- [DW_OP_LLVM_entry_value 1] $rcx
	#DEBUG_VALUE: open_file:h <- [DW_OP_plus_uconst 16, DW_OP_deref] $rsp
	#DEBUG_VALUE: open_file:tcfile_in <- $r14
	#DEBUG_VALUE: parse_tcfile:tcfile_in <- $r14
	#DEBUG_VALUE: parse_tcfile:h <- [DW_OP_plus_uconst 16, DW_OP_deref] $rsp
	#DEBUG_VALUE: parse_tcfile:info <- [DW_OP_plus_uconst 96, DW_OP_deref] $rsp
	#DEBUG_VALUE: parse_tcfile:timecodes <- $r12
	#DEBUG_VALUE: parse_tcfile:fpss <- [DW_OP_plus_uconst 64, DW_OP_deref] $rsp
	#DEBUG_VALUE: parse_tcfile:timecodes_num <- [DW_OP_plus_uconst 120, DW_OP_deref] $rsp
	#DEBUG_VALUE: file_pos <- [DW_OP_plus_uconst 112, DW_OP_deref] $rsp
	#DEBUG_VALUE: parse_tcfile:seq_num <- [DW_OP_plus_uconst 32, DW_OP_deref] $rsp
	#DEBUG_VALUE: assume_fps <- [DW_OP_plus_uconst 8, DW_OP_deref_size 16, DW_OP_stack_value] $rsp
	.loc	0 197 32                        # x264_src/input/timecode.c:197:32
	cmpq	%rbp, %rcx
.Ltmp310:
	.loc	0 199 17 is_stmt 1              # x264_src/input/timecode.c:199:17
	jge	.LBB0_114
	jmp	.LBB0_126
.Ltmp311:
.LBB0_125:                              # %for.end190.i
                                        #   in Loop: Header=BB0_115 Depth=1
	#DEBUG_VALUE: open_file:psz_filename <- [DW_OP_LLVM_entry_value 1] $rdi
	#DEBUG_VALUE: open_file:p_handle <- [DW_OP_LLVM_entry_value 1] $rsi
	#DEBUG_VALUE: open_file:info <- [DW_OP_plus_uconst 96] [$rsp+0]
	#DEBUG_VALUE: open_file:opt <- [DW_OP_LLVM_entry_value 1] $rcx
	#DEBUG_VALUE: open_file:h <- [DW_OP_plus_uconst 16, DW_OP_deref] $rsp
	#DEBUG_VALUE: open_file:tcfile_in <- $r14
	#DEBUG_VALUE: parse_tcfile:tcfile_in <- $r14
	#DEBUG_VALUE: parse_tcfile:h <- [DW_OP_plus_uconst 16, DW_OP_deref] $rsp
	#DEBUG_VALUE: parse_tcfile:info <- [DW_OP_plus_uconst 96, DW_OP_deref] $rsp
	#DEBUG_VALUE: parse_tcfile:timecodes <- $r12
	#DEBUG_VALUE: parse_tcfile:fpss <- [DW_OP_plus_uconst 64, DW_OP_deref] $rsp
	#DEBUG_VALUE: parse_tcfile:timecodes_num <- [DW_OP_plus_uconst 120, DW_OP_deref] $rsp
	#DEBUG_VALUE: file_pos <- [DW_OP_plus_uconst 112, DW_OP_deref] $rsp
	#DEBUG_VALUE: parse_tcfile:seq_num <- [DW_OP_plus_uconst 32, DW_OP_deref] $rsp
	#DEBUG_VALUE: assume_fps <- [DW_OP_plus_uconst 8, DW_OP_deref_size 16, DW_OP_stack_value] $rsp
	.loc	0 197 32                        # x264_src/input/timecode.c:197:32
	cmpl	%r8d, %ebx
	jge	.LBB0_114
.Ltmp312:
.LBB0_126:                              # %if.then194.i
                                        #   in Loop: Header=BB0_115 Depth=1
	#DEBUG_VALUE: open_file:psz_filename <- [DW_OP_LLVM_entry_value 1] $rdi
	#DEBUG_VALUE: open_file:p_handle <- [DW_OP_LLVM_entry_value 1] $rsi
	#DEBUG_VALUE: open_file:info <- [DW_OP_plus_uconst 96] [$rsp+0]
	#DEBUG_VALUE: open_file:opt <- [DW_OP_LLVM_entry_value 1] $rcx
	#DEBUG_VALUE: open_file:h <- [DW_OP_plus_uconst 16, DW_OP_deref] $rsp
	#DEBUG_VALUE: open_file:tcfile_in <- $r14
	#DEBUG_VALUE: parse_tcfile:tcfile_in <- $r14
	#DEBUG_VALUE: parse_tcfile:h <- [DW_OP_plus_uconst 16, DW_OP_deref] $rsp
	#DEBUG_VALUE: parse_tcfile:info <- [DW_OP_plus_uconst 96, DW_OP_deref] $rsp
	#DEBUG_VALUE: parse_tcfile:timecodes <- $r12
	#DEBUG_VALUE: parse_tcfile:fpss <- [DW_OP_plus_uconst 64, DW_OP_deref] $rsp
	#DEBUG_VALUE: parse_tcfile:timecodes_num <- [DW_OP_plus_uconst 120, DW_OP_deref] $rsp
	#DEBUG_VALUE: file_pos <- [DW_OP_plus_uconst 112, DW_OP_deref] $rsp
	#DEBUG_VALUE: parse_tcfile:seq_num <- [DW_OP_plus_uconst 32, DW_OP_deref] $rsp
	#DEBUG_VALUE: assume_fps <- [DW_OP_plus_uconst 8, DW_OP_deref_size 16, DW_OP_stack_value] $rsp
	.loc	0 0 32 is_stmt 0                # x264_src/input/timecode.c:0:32
	movq	40(%rsp), %rax                  # 8-byte Reload
.Ltmp313:
	.loc	0 201 21 is_stmt 1              # x264_src/input/timecode.c:201:21
	cmpl	$0, (%rax)
	.loc	0 201 42 is_stmt 0              # x264_src/input/timecode.c:201:42
	jne	.LBB0_128
.Ltmp314:
# %bb.127:                              # %lor.lhs.false197.i
                                        #   in Loop: Header=BB0_115 Depth=1
	#DEBUG_VALUE: open_file:psz_filename <- [DW_OP_LLVM_entry_value 1] $rdi
	#DEBUG_VALUE: open_file:p_handle <- [DW_OP_LLVM_entry_value 1] $rsi
	#DEBUG_VALUE: open_file:info <- [DW_OP_plus_uconst 96] [$rsp+0]
	#DEBUG_VALUE: open_file:opt <- [DW_OP_LLVM_entry_value 1] $rcx
	#DEBUG_VALUE: open_file:h <- [DW_OP_plus_uconst 16, DW_OP_deref] $rsp
	#DEBUG_VALUE: open_file:tcfile_in <- $r14
	#DEBUG_VALUE: parse_tcfile:tcfile_in <- $r14
	#DEBUG_VALUE: parse_tcfile:h <- [DW_OP_plus_uconst 16, DW_OP_deref] $rsp
	#DEBUG_VALUE: parse_tcfile:info <- [DW_OP_plus_uconst 96, DW_OP_deref] $rsp
	#DEBUG_VALUE: parse_tcfile:timecodes <- $r12
	#DEBUG_VALUE: parse_tcfile:fpss <- [DW_OP_plus_uconst 64, DW_OP_deref] $rsp
	#DEBUG_VALUE: parse_tcfile:timecodes_num <- [DW_OP_plus_uconst 120, DW_OP_deref] $rsp
	#DEBUG_VALUE: file_pos <- [DW_OP_plus_uconst 112, DW_OP_deref] $rsp
	#DEBUG_VALUE: parse_tcfile:seq_num <- [DW_OP_plus_uconst 32, DW_OP_deref] $rsp
	#DEBUG_VALUE: assume_fps <- [DW_OP_plus_uconst 8, DW_OP_deref_size 16, DW_OP_stack_value] $rsp
	.loc	0 0 42                          # x264_src/input/timecode.c:0:42
	movq	88(%rsp), %rax                  # 8-byte Reload
	.loc	0 201 45                        # x264_src/input/timecode.c:201:45
	cmpl	$0, (%rax)
.Ltmp315:
	.loc	0 201 21                        # x264_src/input/timecode.c:201:21
	je	.LBB0_134
.Ltmp316:
.LBB0_128:                              # %if.then200.i
                                        #   in Loop: Header=BB0_115 Depth=1
	#DEBUG_VALUE: open_file:psz_filename <- [DW_OP_LLVM_entry_value 1] $rdi
	#DEBUG_VALUE: open_file:p_handle <- [DW_OP_LLVM_entry_value 1] $rsi
	#DEBUG_VALUE: open_file:info <- [DW_OP_plus_uconst 96] [$rsp+0]
	#DEBUG_VALUE: open_file:opt <- [DW_OP_LLVM_entry_value 1] $rcx
	#DEBUG_VALUE: open_file:h <- [DW_OP_plus_uconst 16, DW_OP_deref] $rsp
	#DEBUG_VALUE: open_file:tcfile_in <- $r14
	#DEBUG_VALUE: parse_tcfile:tcfile_in <- $r14
	#DEBUG_VALUE: parse_tcfile:h <- [DW_OP_plus_uconst 16, DW_OP_deref] $rsp
	#DEBUG_VALUE: parse_tcfile:info <- [DW_OP_plus_uconst 96, DW_OP_deref] $rsp
	#DEBUG_VALUE: parse_tcfile:timecodes <- $r12
	#DEBUG_VALUE: parse_tcfile:fpss <- [DW_OP_plus_uconst 64, DW_OP_deref] $rsp
	#DEBUG_VALUE: parse_tcfile:timecodes_num <- [DW_OP_plus_uconst 120, DW_OP_deref] $rsp
	#DEBUG_VALUE: file_pos <- [DW_OP_plus_uconst 112, DW_OP_deref] $rsp
	#DEBUG_VALUE: parse_tcfile:seq_num <- [DW_OP_plus_uconst 32, DW_OP_deref] $rsp
	#DEBUG_VALUE: assume_fps <- [DW_OP_plus_uconst 8, DW_OP_deref_size 16, DW_OP_stack_value] $rsp
	.loc	0 202 39 is_stmt 1              # x264_src/input/timecode.c:202:39
	movsd	80(%rsp), %xmm0                 # xmm0 = mem[0],zero
	movl	32(%rsp), %ecx                  # 4-byte Reload
	.loc	0 202 21 is_stmt 0              # x264_src/input/timecode.c:202:21
	movslq	%ecx, %rax
	.loc	0 202 33                        # x264_src/input/timecode.c:202:33
	incl	%ecx
.Ltmp317:
	#DEBUG_VALUE: parse_tcfile:seq_num <- $ecx
	.loc	0 0 33                          # x264_src/input/timecode.c:0:33
	movl	%ecx, 32(%rsp)                  # 4-byte Spill
.Ltmp318:
	#DEBUG_VALUE: parse_tcfile:seq_num <- [DW_OP_plus_uconst 32, DW_OP_deref] $rsp
	movq	64(%rsp), %rcx                  # 8-byte Reload
	.loc	0 202 37                        # x264_src/input/timecode.c:202:37
	movsd	%xmm0, (%rcx,%rax,8)
.Ltmp319:
.LBB0_129:                              # %if.end204.i
                                        #   in Loop: Header=BB0_115 Depth=1
	#DEBUG_VALUE: open_file:psz_filename <- [DW_OP_LLVM_entry_value 1] $rdi
	#DEBUG_VALUE: open_file:p_handle <- [DW_OP_LLVM_entry_value 1] $rsi
	#DEBUG_VALUE: open_file:info <- [DW_OP_plus_uconst 96] [$rsp+0]
	#DEBUG_VALUE: open_file:opt <- [DW_OP_LLVM_entry_value 1] $rcx
	#DEBUG_VALUE: open_file:h <- [DW_OP_plus_uconst 16, DW_OP_deref] $rsp
	#DEBUG_VALUE: open_file:tcfile_in <- $r14
	#DEBUG_VALUE: parse_tcfile:tcfile_in <- $r14
	#DEBUG_VALUE: parse_tcfile:h <- [DW_OP_plus_uconst 16, DW_OP_deref] $rsp
	#DEBUG_VALUE: parse_tcfile:info <- [DW_OP_plus_uconst 96, DW_OP_deref] $rsp
	#DEBUG_VALUE: parse_tcfile:timecodes <- $r12
	#DEBUG_VALUE: parse_tcfile:fpss <- [DW_OP_plus_uconst 64, DW_OP_deref] $rsp
	#DEBUG_VALUE: parse_tcfile:timecodes_num <- [DW_OP_plus_uconst 120, DW_OP_deref] $rsp
	#DEBUG_VALUE: file_pos <- [DW_OP_plus_uconst 112, DW_OP_deref] $rsp
	#DEBUG_VALUE: parse_tcfile:seq_num <- [DW_OP_plus_uconst 32, DW_OP_deref] $rsp
	#DEBUG_VALUE: assume_fps <- [DW_OP_plus_uconst 8, DW_OP_deref_size 16, DW_OP_stack_value] $rsp
	#DEBUG_VALUE: parse_tcfile:seq_num <- [DW_OP_plus_uconst 32, DW_OP_deref] $rsp
	.loc	0 0 37                          # x264_src/input/timecode.c:0:37
	movq	16(%rsp), %rdi                  # 8-byte Reload
	.loc	0 203 27 is_stmt 1              # x264_src/input/timecode.c:203:27
	callq	correct_fps
.Ltmp320:
	.loc	0 203 25 is_stmt 0              # x264_src/input/timecode.c:203:25
	movsd	%xmm0, 80(%rsp)
.Ltmp321:
	.loc	0 204 29 is_stmt 1              # x264_src/input/timecode.c:204:29
	xorpd	%xmm1, %xmm1
	ucomisd	%xmm0, %xmm1
.Ltmp322:
	.loc	0 204 21 is_stmt 0              # x264_src/input/timecode.c:204:21
	ja	.LBB0_182
.Ltmp323:
# %bb.130:                              # %if.end209.i
                                        #   in Loop: Header=BB0_115 Depth=1
	#DEBUG_VALUE: open_file:psz_filename <- [DW_OP_LLVM_entry_value 1] $rdi
	#DEBUG_VALUE: open_file:p_handle <- [DW_OP_LLVM_entry_value 1] $rsi
	#DEBUG_VALUE: open_file:info <- [DW_OP_plus_uconst 96] [$rsp+0]
	#DEBUG_VALUE: open_file:opt <- [DW_OP_LLVM_entry_value 1] $rcx
	#DEBUG_VALUE: open_file:h <- [DW_OP_plus_uconst 16, DW_OP_deref] $rsp
	#DEBUG_VALUE: open_file:tcfile_in <- $r14
	#DEBUG_VALUE: parse_tcfile:tcfile_in <- $r14
	#DEBUG_VALUE: parse_tcfile:h <- [DW_OP_plus_uconst 16, DW_OP_deref] $rsp
	#DEBUG_VALUE: parse_tcfile:info <- [DW_OP_plus_uconst 96, DW_OP_deref] $rsp
	#DEBUG_VALUE: parse_tcfile:timecodes <- $r12
	#DEBUG_VALUE: parse_tcfile:fpss <- [DW_OP_plus_uconst 64, DW_OP_deref] $rsp
	#DEBUG_VALUE: parse_tcfile:timecodes_num <- [DW_OP_plus_uconst 120, DW_OP_deref] $rsp
	#DEBUG_VALUE: file_pos <- [DW_OP_plus_uconst 112, DW_OP_deref] $rsp
	#DEBUG_VALUE: parse_tcfile:seq_num <- [DW_OP_plus_uconst 32, DW_OP_deref] $rsp
	#DEBUG_VALUE: assume_fps <- [DW_OP_plus_uconst 8, DW_OP_deref_size 16, DW_OP_stack_value] $rsp
	.loc	0 206 28 is_stmt 1              # x264_src/input/timecode.c:206:28
	movl	4(%rsp), %ebx
.Ltmp324:
	#DEBUG_VALUE: parse_tcfile:num <- $ebx
	.loc	0 0 28 is_stmt 0                # x264_src/input/timecode.c:0:28
	movslq	(%rsp), %rax
.Ltmp325:
	.loc	0 206 39                        # x264_src/input/timecode.c:206:39
	cmpl	%eax, %ebx
	setg	%cl
	movl	48(%rsp), %r8d                  # 4-byte Reload
	.loc	0 206 46                        # x264_src/input/timecode.c:206:46
	cmpl	%r8d, %ebx
	setge	%dl
.Ltmp326:
	.loc	0 206 17                        # x264_src/input/timecode.c:206:17
	orb	%cl, %dl
	jne	.LBB0_114
.Ltmp327:
# %bb.131:                              # %for.body218.lr.ph.i
                                        #   in Loop: Header=BB0_115 Depth=1
	#DEBUG_VALUE: open_file:psz_filename <- [DW_OP_LLVM_entry_value 1] $rdi
	#DEBUG_VALUE: open_file:p_handle <- [DW_OP_LLVM_entry_value 1] $rsi
	#DEBUG_VALUE: open_file:info <- [DW_OP_plus_uconst 96] [$rsp+0]
	#DEBUG_VALUE: open_file:opt <- [DW_OP_LLVM_entry_value 1] $rcx
	#DEBUG_VALUE: open_file:h <- [DW_OP_plus_uconst 16, DW_OP_deref] $rsp
	#DEBUG_VALUE: open_file:tcfile_in <- $r14
	#DEBUG_VALUE: parse_tcfile:tcfile_in <- $r14
	#DEBUG_VALUE: parse_tcfile:h <- [DW_OP_plus_uconst 16, DW_OP_deref] $rsp
	#DEBUG_VALUE: parse_tcfile:info <- [DW_OP_plus_uconst 96, DW_OP_deref] $rsp
	#DEBUG_VALUE: parse_tcfile:timecodes <- $r12
	#DEBUG_VALUE: parse_tcfile:fpss <- [DW_OP_plus_uconst 64, DW_OP_deref] $rsp
	#DEBUG_VALUE: parse_tcfile:num <- $ebx
	#DEBUG_VALUE: parse_tcfile:timecodes_num <- [DW_OP_plus_uconst 120, DW_OP_deref] $rsp
	#DEBUG_VALUE: file_pos <- [DW_OP_plus_uconst 112, DW_OP_deref] $rsp
	#DEBUG_VALUE: parse_tcfile:seq_num <- [DW_OP_plus_uconst 32, DW_OP_deref] $rsp
	#DEBUG_VALUE: assume_fps <- [DW_OP_plus_uconst 8, DW_OP_deref_size 16, DW_OP_stack_value] $rsp
	.loc	0 0 17                          # x264_src/input/timecode.c:0:17
	movslq	%ebx, %rcx
	movsd	.LCPI0_1(%rip), %xmm1           # xmm1 = [1.0E+0,0.0E+0]
	divsd	%xmm0, %xmm1
.Ltmp328:
	.loc	0 207 42 is_stmt 1              # x264_src/input/timecode.c:207:42
	movsd	(%r12,%rcx,8), %xmm0            # xmm0 = mem[0],zero
.Ltmp329:
	.p2align	4, 0x90
.LBB0_132:                              # %for.body218.i
                                        #   Parent Loop BB0_115 Depth=1
                                        # =>  This Inner Loop Header: Depth=2
	#DEBUG_VALUE: open_file:psz_filename <- [DW_OP_LLVM_entry_value 1] $rdi
	#DEBUG_VALUE: open_file:p_handle <- [DW_OP_LLVM_entry_value 1] $rsi
	#DEBUG_VALUE: open_file:info <- [DW_OP_plus_uconst 96] [$rsp+0]
	#DEBUG_VALUE: open_file:opt <- [DW_OP_LLVM_entry_value 1] $rcx
	#DEBUG_VALUE: open_file:h <- [DW_OP_plus_uconst 16, DW_OP_deref] $rsp
	#DEBUG_VALUE: open_file:tcfile_in <- $r14
	#DEBUG_VALUE: parse_tcfile:tcfile_in <- $r14
	#DEBUG_VALUE: parse_tcfile:h <- [DW_OP_plus_uconst 16, DW_OP_deref] $rsp
	#DEBUG_VALUE: parse_tcfile:info <- [DW_OP_plus_uconst 96, DW_OP_deref] $rsp
	#DEBUG_VALUE: parse_tcfile:timecodes <- $r12
	#DEBUG_VALUE: parse_tcfile:fpss <- [DW_OP_plus_uconst 64, DW_OP_deref] $rsp
	#DEBUG_VALUE: parse_tcfile:timecodes_num <- [DW_OP_plus_uconst 120, DW_OP_deref] $rsp
	#DEBUG_VALUE: file_pos <- [DW_OP_plus_uconst 112, DW_OP_deref] $rsp
	#DEBUG_VALUE: parse_tcfile:seq_num <- [DW_OP_plus_uconst 32, DW_OP_deref] $rsp
	#DEBUG_VALUE: assume_fps <- [DW_OP_plus_uconst 8, DW_OP_deref_size 16, DW_OP_stack_value] $rsp
	#DEBUG_VALUE: parse_tcfile:num <- $rcx
	.loc	0 207 57 is_stmt 0              # x264_src/input/timecode.c:207:57
	addsd	%xmm1, %xmm0
	.loc	0 207 35                        # x264_src/input/timecode.c:207:35
	leaq	1(%rcx), %rbx
	.loc	0 207 40                        # x264_src/input/timecode.c:207:40
	movsd	%xmm0, 8(%r12,%rcx,8)
.Ltmp330:
	#DEBUG_VALUE: parse_tcfile:num <- $rbx
	.loc	0 206 39 is_stmt 1              # x264_src/input/timecode.c:206:39
	cmpq	%rax, %rcx
.Ltmp331:
	.loc	0 206 17 is_stmt 0              # x264_src/input/timecode.c:206:17
	jge	.LBB0_114
.Ltmp332:
# %bb.133:                              # %for.body218.i
                                        #   in Loop: Header=BB0_132 Depth=2
	#DEBUG_VALUE: open_file:psz_filename <- [DW_OP_LLVM_entry_value 1] $rdi
	#DEBUG_VALUE: open_file:p_handle <- [DW_OP_LLVM_entry_value 1] $rsi
	#DEBUG_VALUE: open_file:info <- [DW_OP_plus_uconst 96] [$rsp+0]
	#DEBUG_VALUE: open_file:opt <- [DW_OP_LLVM_entry_value 1] $rcx
	#DEBUG_VALUE: open_file:h <- [DW_OP_plus_uconst 16, DW_OP_deref] $rsp
	#DEBUG_VALUE: open_file:tcfile_in <- $r14
	#DEBUG_VALUE: parse_tcfile:tcfile_in <- $r14
	#DEBUG_VALUE: parse_tcfile:h <- [DW_OP_plus_uconst 16, DW_OP_deref] $rsp
	#DEBUG_VALUE: parse_tcfile:info <- [DW_OP_plus_uconst 96, DW_OP_deref] $rsp
	#DEBUG_VALUE: parse_tcfile:timecodes <- $r12
	#DEBUG_VALUE: parse_tcfile:fpss <- [DW_OP_plus_uconst 64, DW_OP_deref] $rsp
	#DEBUG_VALUE: parse_tcfile:num <- $rbx
	#DEBUG_VALUE: parse_tcfile:timecodes_num <- [DW_OP_plus_uconst 120, DW_OP_deref] $rsp
	#DEBUG_VALUE: file_pos <- [DW_OP_plus_uconst 112, DW_OP_deref] $rsp
	#DEBUG_VALUE: parse_tcfile:seq_num <- [DW_OP_plus_uconst 32, DW_OP_deref] $rsp
	#DEBUG_VALUE: assume_fps <- [DW_OP_plus_uconst 8, DW_OP_deref_size 16, DW_OP_stack_value] $rsp
	.loc	0 0 17                          # x264_src/input/timecode.c:0:17
	movq	%rbx, %rcx
	.loc	0 206 17                        # x264_src/input/timecode.c:206:17
	cmpq	%rbp, %rbx
	jl	.LBB0_132
	jmp	.LBB0_114
.Ltmp333:
.LBB0_134:                              # %lor.lhs.false197.if.end204_crit_edge.i
                                        #   in Loop: Header=BB0_115 Depth=1
	#DEBUG_VALUE: open_file:psz_filename <- [DW_OP_LLVM_entry_value 1] $rdi
	#DEBUG_VALUE: open_file:p_handle <- [DW_OP_LLVM_entry_value 1] $rsi
	#DEBUG_VALUE: open_file:info <- [DW_OP_plus_uconst 96] [$rsp+0]
	#DEBUG_VALUE: open_file:opt <- [DW_OP_LLVM_entry_value 1] $rcx
	#DEBUG_VALUE: open_file:h <- [DW_OP_plus_uconst 16, DW_OP_deref] $rsp
	#DEBUG_VALUE: open_file:tcfile_in <- $r14
	#DEBUG_VALUE: parse_tcfile:tcfile_in <- $r14
	#DEBUG_VALUE: parse_tcfile:h <- [DW_OP_plus_uconst 16, DW_OP_deref] $rsp
	#DEBUG_VALUE: parse_tcfile:info <- [DW_OP_plus_uconst 96, DW_OP_deref] $rsp
	#DEBUG_VALUE: parse_tcfile:timecodes <- $r12
	#DEBUG_VALUE: parse_tcfile:fpss <- [DW_OP_plus_uconst 64, DW_OP_deref] $rsp
	#DEBUG_VALUE: parse_tcfile:timecodes_num <- [DW_OP_plus_uconst 120, DW_OP_deref] $rsp
	#DEBUG_VALUE: file_pos <- [DW_OP_plus_uconst 112, DW_OP_deref] $rsp
	#DEBUG_VALUE: parse_tcfile:seq_num <- [DW_OP_plus_uconst 32, DW_OP_deref] $rsp
	#DEBUG_VALUE: assume_fps <- [DW_OP_plus_uconst 8, DW_OP_deref_size 16, DW_OP_stack_value] $rsp
	.loc	0 203 40 is_stmt 1              # x264_src/input/timecode.c:203:40
	movsd	80(%rsp), %xmm0                 # xmm0 = mem[0],zero
	.loc	0 201 21                        # x264_src/input/timecode.c:201:21
	jmp	.LBB0_129
.Ltmp334:
.LBB0_135:                              # %for.end230.i
	#DEBUG_VALUE: open_file:psz_filename <- [DW_OP_LLVM_entry_value 1] $rdi
	#DEBUG_VALUE: open_file:p_handle <- [DW_OP_LLVM_entry_value 1] $rsi
	#DEBUG_VALUE: open_file:info <- [DW_OP_plus_uconst 96] [$rsp+0]
	#DEBUG_VALUE: open_file:opt <- [DW_OP_LLVM_entry_value 1] $rcx
	#DEBUG_VALUE: open_file:h <- [DW_OP_plus_uconst 16, DW_OP_deref] $rsp
	#DEBUG_VALUE: open_file:tcfile_in <- $r14
	#DEBUG_VALUE: parse_tcfile:tcfile_in <- $r14
	#DEBUG_VALUE: parse_tcfile:h <- [DW_OP_plus_uconst 16, DW_OP_deref] $rsp
	#DEBUG_VALUE: parse_tcfile:info <- [DW_OP_plus_uconst 96, DW_OP_deref] $rsp
	#DEBUG_VALUE: parse_tcfile:timecodes <- $r12
	#DEBUG_VALUE: parse_tcfile:fpss <- [DW_OP_plus_uconst 64, DW_OP_deref] $rsp
	#DEBUG_VALUE: parse_tcfile:timecodes_num <- [DW_OP_plus_uconst 120, DW_OP_deref] $rsp
	#DEBUG_VALUE: file_pos <- [DW_OP_plus_uconst 112, DW_OP_deref] $rsp
	#DEBUG_VALUE: assume_fps <- $xmm0
	.loc	0 0 21 is_stmt 0                # x264_src/input/timecode.c:0:21
	movq	40(%rsp), %rax                  # 8-byte Reload
.Ltmp335:
	.loc	0 210 13 is_stmt 1              # x264_src/input/timecode.c:210:13
	cmpl	$0, (%rax)
	.loc	0 210 34 is_stmt 0              # x264_src/input/timecode.c:210:34
	je	.LBB0_154
.Ltmp336:
# %bb.136:
	#DEBUG_VALUE: open_file:psz_filename <- [DW_OP_LLVM_entry_value 1] $rdi
	#DEBUG_VALUE: open_file:p_handle <- [DW_OP_LLVM_entry_value 1] $rsi
	#DEBUG_VALUE: open_file:info <- [DW_OP_plus_uconst 96] [$rsp+0]
	#DEBUG_VALUE: open_file:opt <- [DW_OP_LLVM_entry_value 1] $rcx
	#DEBUG_VALUE: open_file:h <- [DW_OP_plus_uconst 16, DW_OP_deref] $rsp
	#DEBUG_VALUE: open_file:tcfile_in <- $r14
	#DEBUG_VALUE: parse_tcfile:tcfile_in <- $r14
	#DEBUG_VALUE: parse_tcfile:h <- [DW_OP_plus_uconst 16, DW_OP_deref] $rsp
	#DEBUG_VALUE: parse_tcfile:info <- [DW_OP_plus_uconst 96, DW_OP_deref] $rsp
	#DEBUG_VALUE: parse_tcfile:timecodes <- $r12
	#DEBUG_VALUE: parse_tcfile:fpss <- [DW_OP_plus_uconst 64, DW_OP_deref] $rsp
	#DEBUG_VALUE: parse_tcfile:timecodes_num <- [DW_OP_plus_uconst 120, DW_OP_deref] $rsp
	#DEBUG_VALUE: file_pos <- [DW_OP_plus_uconst 112, DW_OP_deref] $rsp
	#DEBUG_VALUE: assume_fps <- $xmm0
	.loc	0 0 34                          # x264_src/input/timecode.c:0:34
	movq	16(%rsp), %rbp                  # 8-byte Reload
	movq	64(%rsp), %r15                  # 8-byte Reload
.Ltmp337:
.LBB0_137:                              # %if.then336.i
	#DEBUG_VALUE: open_file:psz_filename <- [DW_OP_LLVM_entry_value 1] $rdi
	#DEBUG_VALUE: open_file:p_handle <- [DW_OP_LLVM_entry_value 1] $rsi
	#DEBUG_VALUE: open_file:info <- [DW_OP_plus_uconst 96] [$rsp+0]
	#DEBUG_VALUE: open_file:opt <- [DW_OP_LLVM_entry_value 1] $rcx
	#DEBUG_VALUE: open_file:h <- [DW_OP_plus_uconst 16, DW_OP_deref] $rsp
	#DEBUG_VALUE: open_file:tcfile_in <- $r14
	#DEBUG_VALUE: parse_tcfile:tcfile_in <- $r14
	#DEBUG_VALUE: parse_tcfile:h <- [DW_OP_plus_uconst 16, DW_OP_deref] $rsp
	#DEBUG_VALUE: parse_tcfile:info <- [DW_OP_plus_uconst 96, DW_OP_deref] $rsp
	#DEBUG_VALUE: parse_tcfile:timecodes <- $r12
	#DEBUG_VALUE: parse_tcfile:fpss <- [DW_OP_plus_uconst 64, DW_OP_deref] $rsp
	#DEBUG_VALUE: parse_tcfile:timecodes_num <- [DW_OP_plus_uconst 120, DW_OP_deref] $rsp
	#DEBUG_VALUE: file_pos <- [DW_OP_plus_uconst 112, DW_OP_deref] $rsp
	#DEBUG_VALUE: assume_fps <- $xmm0
	movsd	%xmm0, 8(%rsp)                  # 8-byte Spill
.Ltmp338:
	#DEBUG_VALUE: assume_fps <- [DW_OP_plus_uconst 8, DW_OP_deref_size 16, DW_OP_stack_value] $rsp
	.loc	0 239 13 is_stmt 1              # x264_src/input/timecode.c:239:13
	movq	%r15, %rdi
	callq	free@PLT
.Ltmp339:
	.loc	0 0 13 is_stmt 0                # x264_src/input/timecode.c:0:13
	movsd	8(%rsp), %xmm0                  # 8-byte Reload
                                        # xmm0 = mem[0],zero
	movl	48(%rsp), %r8d                  # 4-byte Reload
.Ltmp340:
.LBB0_138:                              # %if.end337.i
	#DEBUG_VALUE: open_file:psz_filename <- [DW_OP_LLVM_entry_value 1] $rdi
	#DEBUG_VALUE: open_file:p_handle <- [DW_OP_LLVM_entry_value 1] $rsi
	#DEBUG_VALUE: open_file:info <- [DW_OP_plus_uconst 96] [$rsp+0]
	#DEBUG_VALUE: open_file:opt <- [DW_OP_LLVM_entry_value 1] $rcx
	#DEBUG_VALUE: open_file:h <- [DW_OP_plus_uconst 16, DW_OP_deref] $rsp
	#DEBUG_VALUE: open_file:tcfile_in <- $r14
	#DEBUG_VALUE: parse_tcfile:tcfile_in <- $r14
	#DEBUG_VALUE: parse_tcfile:h <- [DW_OP_plus_uconst 16, DW_OP_deref] $rsp
	#DEBUG_VALUE: parse_tcfile:info <- [DW_OP_plus_uconst 96, DW_OP_deref] $rsp
	#DEBUG_VALUE: parse_tcfile:timecodes <- $r12
	#DEBUG_VALUE: parse_tcfile:fpss <- [DW_OP_plus_uconst 64, DW_OP_deref] $rsp
	#DEBUG_VALUE: parse_tcfile:timecodes_num <- [DW_OP_plus_uconst 120, DW_OP_deref] $rsp
	#DEBUG_VALUE: file_pos <- [DW_OP_plus_uconst 112, DW_OP_deref] $rsp
	.loc	0 241 23 is_stmt 1              # x264_src/input/timecode.c:241:23
	movsd	%xmm0, 112(%rbp)
	.loc	0 242 28                        # x264_src/input/timecode.c:242:28
	movslq	%r8d, %rax
	movsd	(%r12,%rax,8), %xmm0            # xmm0 = mem[0],zero
.Ltmp341:
.LBB0_139:                              # %cleanup580.i
	#DEBUG_VALUE: open_file:psz_filename <- [DW_OP_LLVM_entry_value 1] $rdi
	#DEBUG_VALUE: open_file:p_handle <- [DW_OP_LLVM_entry_value 1] $rsi
	#DEBUG_VALUE: open_file:info <- [DW_OP_plus_uconst 96] [$rsp+0]
	#DEBUG_VALUE: open_file:opt <- [DW_OP_LLVM_entry_value 1] $rcx
	#DEBUG_VALUE: open_file:h <- [DW_OP_plus_uconst 16, DW_OP_deref] $rsp
	#DEBUG_VALUE: open_file:tcfile_in <- $r14
	#DEBUG_VALUE: parse_tcfile:tcfile_in <- $r14
	#DEBUG_VALUE: parse_tcfile:h <- [DW_OP_plus_uconst 16, DW_OP_deref] $rsp
	#DEBUG_VALUE: parse_tcfile:info <- [DW_OP_plus_uconst 96, DW_OP_deref] $rsp
	#DEBUG_VALUE: parse_tcfile:timecodes <- $r12
	.loc	0 0 0 is_stmt 0                 # x264_src/input/timecode.c:0:0
	movsd	%xmm0, 120(%rbp)
.Ltmp342:
	#DEBUG_VALUE: parse_tcfile:timecodes <- undef
	#DEBUG_VALUE: parse_tcfile:fpss <- $r15
	#DEBUG_VALUE: parse_tcfile:timecodes <- $r12
	#DEBUG_VALUE: parse_tcfile:fpss <- $r15
	movq	40(%rsp), %rax                  # 8-byte Reload
.Ltmp343:
	.loc	0 340 9 is_stmt 1               # x264_src/input/timecode.c:340:9
	cmpl	$0, (%rax)
	.loc	0 340 30 is_stmt 0              # x264_src/input/timecode.c:340:30
	jne	.LBB0_148
.Ltmp344:
# %bb.140:                              # %lor.lhs.false586.i
	#DEBUG_VALUE: open_file:psz_filename <- [DW_OP_LLVM_entry_value 1] $rdi
	#DEBUG_VALUE: open_file:p_handle <- [DW_OP_LLVM_entry_value 1] $rsi
	#DEBUG_VALUE: open_file:info <- [DW_OP_plus_uconst 96] [$rsp+0]
	#DEBUG_VALUE: open_file:opt <- [DW_OP_LLVM_entry_value 1] $rcx
	#DEBUG_VALUE: open_file:h <- [DW_OP_plus_uconst 16, DW_OP_deref] $rsp
	#DEBUG_VALUE: open_file:tcfile_in <- $r14
	#DEBUG_VALUE: parse_tcfile:tcfile_in <- $r14
	#DEBUG_VALUE: parse_tcfile:h <- [DW_OP_plus_uconst 16, DW_OP_deref] $rsp
	#DEBUG_VALUE: parse_tcfile:info <- [DW_OP_plus_uconst 96, DW_OP_deref] $rsp
	#DEBUG_VALUE: parse_tcfile:timecodes <- $r12
	#DEBUG_VALUE: parse_tcfile:fpss <- $r15
	.loc	0 0 30                          # x264_src/input/timecode.c:0:30
	movq	88(%rsp), %rax                  # 8-byte Reload
	.loc	0 340 33                        # x264_src/input/timecode.c:340:33
	cmpl	$0, (%rax)
.Ltmp345:
	.loc	0 340 9                         # x264_src/input/timecode.c:340:9
	jne	.LBB0_148
.Ltmp346:
# %bb.141:                              # %if.else601.i
	#DEBUG_VALUE: open_file:psz_filename <- [DW_OP_LLVM_entry_value 1] $rdi
	#DEBUG_VALUE: open_file:p_handle <- [DW_OP_LLVM_entry_value 1] $rsi
	#DEBUG_VALUE: open_file:info <- [DW_OP_plus_uconst 96] [$rsp+0]
	#DEBUG_VALUE: open_file:opt <- [DW_OP_LLVM_entry_value 1] $rcx
	#DEBUG_VALUE: open_file:h <- [DW_OP_plus_uconst 16, DW_OP_deref] $rsp
	#DEBUG_VALUE: open_file:tcfile_in <- $r14
	#DEBUG_VALUE: parse_tcfile:tcfile_in <- $r14
	#DEBUG_VALUE: parse_tcfile:h <- [DW_OP_plus_uconst 16, DW_OP_deref] $rsp
	#DEBUG_VALUE: parse_tcfile:info <- [DW_OP_plus_uconst 96, DW_OP_deref] $rsp
	#DEBUG_VALUE: parse_tcfile:timecodes <- $r12
	#DEBUG_VALUE: parse_tcfile:fpss <- $r15
	.loc	0 0 9                           # x264_src/input/timecode.c:0:9
	movabsq	$-4294967296, %rax              # imm = 0xFFFFFFFF00000000
	movq	88(%rbp), %rcx
.Ltmp347:
	.loc	0 347 43 is_stmt 1              # x264_src/input/timecode.c:347:43
	addq	%rax, %rcx
	incq	%rax
	cmpq	%rax, %rcx
	jb	.LBB0_183
.Ltmp348:
.LBB0_142:                              # %if.end611.i
	#DEBUG_VALUE: open_file:psz_filename <- [DW_OP_LLVM_entry_value 1] $rdi
	#DEBUG_VALUE: open_file:p_handle <- [DW_OP_LLVM_entry_value 1] $rsi
	#DEBUG_VALUE: open_file:info <- [DW_OP_plus_uconst 96] [$rsp+0]
	#DEBUG_VALUE: open_file:opt <- [DW_OP_LLVM_entry_value 1] $rcx
	#DEBUG_VALUE: open_file:h <- [DW_OP_plus_uconst 16, DW_OP_deref] $rsp
	#DEBUG_VALUE: open_file:tcfile_in <- $r14
	#DEBUG_VALUE: parse_tcfile:tcfile_in <- $r14
	#DEBUG_VALUE: parse_tcfile:h <- [DW_OP_plus_uconst 16, DW_OP_deref] $rsp
	#DEBUG_VALUE: parse_tcfile:info <- [DW_OP_plus_uconst 96, DW_OP_deref] $rsp
	#DEBUG_VALUE: parse_tcfile:timecodes <- $r12
	#DEBUG_VALUE: parse_tcfile:fpss <- $r15
	.loc	0 354 25                        # x264_src/input/timecode.c:354:25
	movslq	100(%rbp), %rbx
	.loc	0 354 40 is_stmt 0              # x264_src/input/timecode.c:354:40
	leaq	(,%rbx,8), %rdi
	.loc	0 354 14                        # x264_src/input/timecode.c:354:14
	callq	malloc@PLT
.Ltmp349:
	.loc	0 354 12                        # x264_src/input/timecode.c:354:12
	movq	%rax, 104(%rbp)
.Ltmp350:
	.loc	0 355 10 is_stmt 1              # x264_src/input/timecode.c:355:10
	testq	%rax, %rax
	je	.LBB0_190
.Ltmp351:
# %bb.143:                              # %if.end619.i
	#DEBUG_VALUE: open_file:psz_filename <- [DW_OP_LLVM_entry_value 1] $rdi
	#DEBUG_VALUE: open_file:p_handle <- [DW_OP_LLVM_entry_value 1] $rsi
	#DEBUG_VALUE: open_file:info <- [DW_OP_plus_uconst 96] [$rsp+0]
	#DEBUG_VALUE: open_file:opt <- [DW_OP_LLVM_entry_value 1] $rcx
	#DEBUG_VALUE: open_file:h <- [DW_OP_plus_uconst 16, DW_OP_deref] $rsp
	#DEBUG_VALUE: open_file:tcfile_in <- $r14
	#DEBUG_VALUE: parse_tcfile:tcfile_in <- $r14
	#DEBUG_VALUE: parse_tcfile:h <- [DW_OP_plus_uconst 16, DW_OP_deref] $rsp
	#DEBUG_VALUE: parse_tcfile:info <- [DW_OP_plus_uconst 96, DW_OP_deref] $rsp
	#DEBUG_VALUE: parse_tcfile:timecodes <- $r12
	#DEBUG_VALUE: parse_tcfile:fpss <- $r15
	.loc	0 357 47                        # x264_src/input/timecode.c:357:47
	movslq	96(%rbp), %rcx
	.loc	0 357 56 is_stmt 0              # x264_src/input/timecode.c:357:56
	movsd	88(%rbp), %xmm1                 # xmm1 = mem[0],zero
	movsd	.LCPI0_3(%rip), %xmm2           # xmm2 = [1127219200,1160773632,0,0]
	unpcklps	%xmm2, %xmm1                    # xmm1 = xmm1[0],xmm2[0],xmm1[1],xmm2[1]
	movapd	.LCPI0_4(%rip), %xmm3           # xmm3 = [4.503599627370496E+15,1.9342813113834067E+25]
	subpd	%xmm3, %xmm1
	movapd	%xmm1, %xmm0
	unpckhpd	%xmm1, %xmm0                    # xmm0 = xmm0[1],xmm1[1]
	addsd	%xmm1, %xmm0
	.loc	0 357 82                        # x264_src/input/timecode.c:357:82
	movsd	80(%rbp), %xmm1                 # xmm1 = mem[0],zero
	unpcklps	%xmm2, %xmm1                    # xmm1 = xmm1[0],xmm2[0],xmm1[1],xmm2[1]
	subpd	%xmm3, %xmm1
	movapd	%xmm1, %xmm2
	unpckhpd	%xmm1, %xmm2                    # xmm2 = xmm2[1],xmm1[1]
	addsd	%xmm1, %xmm2
	.loc	0 357 80                        # x264_src/input/timecode.c:357:80
	divsd	%xmm2, %xmm0
	.loc	0 357 99                        # x264_src/input/timecode.c:357:99
	mulsd	(%r12,%rcx,8), %xmm0
.Ltmp352:
	#DEBUG_VALUE: parse_tcfile:pts_seek_offset <- undef
	.loc	0 358 15 is_stmt 1              # x264_src/input/timecode.c:358:15
	movq	$0, (%rax)
.Ltmp353:
	#DEBUG_VALUE: parse_tcfile:num <- 1
	.loc	0 359 23                        # x264_src/input/timecode.c:359:23
	cmpl	$2, %ebx
	movq	96(%rsp), %rbx                  # 8-byte Reload
.Ltmp354:
	.loc	0 359 5 is_stmt 0               # x264_src/input/timecode.c:359:5
	jl	.LBB0_147
.Ltmp355:
# %bb.144:                              # %for.body636.i.preheader
	#DEBUG_VALUE: open_file:psz_filename <- [DW_OP_LLVM_entry_value 1] $rdi
	#DEBUG_VALUE: open_file:p_handle <- [DW_OP_LLVM_entry_value 1] $rsi
	#DEBUG_VALUE: open_file:info <- [DW_OP_plus_uconst 96] [$rsp+0]
	#DEBUG_VALUE: open_file:opt <- [DW_OP_LLVM_entry_value 1] $rcx
	#DEBUG_VALUE: open_file:h <- [DW_OP_plus_uconst 16, DW_OP_deref] $rsp
	#DEBUG_VALUE: open_file:tcfile_in <- $r14
	#DEBUG_VALUE: parse_tcfile:tcfile_in <- $r14
	#DEBUG_VALUE: parse_tcfile:h <- [DW_OP_plus_uconst 16, DW_OP_deref] $rsp
	#DEBUG_VALUE: parse_tcfile:info <- [DW_OP_plus_uconst 96, DW_OP_deref] $rsp
	#DEBUG_VALUE: parse_tcfile:timecodes <- $r12
	#DEBUG_VALUE: parse_tcfile:fpss <- $r15
	#DEBUG_VALUE: parse_tcfile:num <- 1
	.loc	0 0 5                           # x264_src/input/timecode.c:0:5
	addsd	.LCPI0_9(%rip), %xmm0
	cvttsd2si	%xmm0, %rcx
.Ltmp356:
	#DEBUG_VALUE: parse_tcfile:pts_seek_offset <- $rcx
	movl	$1, %edx
	movdqa	.LCPI0_10(%rip), %xmm0          # xmm0 = [4294967295,4294967295]
	movdqa	.LCPI0_11(%rip), %xmm1          # xmm1 = [4841369599423283200,4841369599423283200]
	movdqa	.LCPI0_12(%rip), %xmm2          # xmm2 = [4985484787499139072,4985484787499139072]
	movapd	.LCPI0_13(%rip), %xmm3          # xmm3 = [1.9342813118337666E+25,1.9342813118337666E+25]
	movsd	.LCPI0_9(%rip), %xmm4           # xmm4 = [5.0E-1,0.0E+0]
.Ltmp357:
	.p2align	4, 0x90
.LBB0_145:                              # %for.body636.i
                                        # =>This Inner Loop Header: Depth=1
	#DEBUG_VALUE: open_file:psz_filename <- [DW_OP_LLVM_entry_value 1] $rdi
	#DEBUG_VALUE: open_file:p_handle <- [DW_OP_LLVM_entry_value 1] $rsi
	#DEBUG_VALUE: open_file:info <- [DW_OP_plus_uconst 96] [$rsp+0]
	#DEBUG_VALUE: open_file:opt <- [DW_OP_LLVM_entry_value 1] $rcx
	#DEBUG_VALUE: open_file:h <- [DW_OP_plus_uconst 16, DW_OP_deref] $rsp
	#DEBUG_VALUE: open_file:tcfile_in <- $r14
	#DEBUG_VALUE: parse_tcfile:tcfile_in <- $r14
	#DEBUG_VALUE: parse_tcfile:h <- [DW_OP_plus_uconst 16, DW_OP_deref] $rsp
	#DEBUG_VALUE: parse_tcfile:info <- [DW_OP_plus_uconst 96, DW_OP_deref] $rsp
	#DEBUG_VALUE: parse_tcfile:timecodes <- $r12
	#DEBUG_VALUE: parse_tcfile:fpss <- $r15
	#DEBUG_VALUE: parse_tcfile:pts_seek_offset <- $rcx
	#DEBUG_VALUE: parse_tcfile:num <- $rdx
	.loc	0 361 47 is_stmt 1              # x264_src/input/timecode.c:361:47
	movslq	96(%rbp), %rsi
	.loc	0 361 34 is_stmt 0              # x264_src/input/timecode.c:361:34
	addq	%rdx, %rsi
	.loc	0 361 91                        # x264_src/input/timecode.c:361:91
	movdqu	80(%rbp), %xmm5
	.loc	0 361 62                        # x264_src/input/timecode.c:361:62
	movdqa	%xmm5, %xmm6
	pand	%xmm0, %xmm6
	por	%xmm1, %xmm6
	psrlq	$32, %xmm5
	por	%xmm2, %xmm5
	subpd	%xmm3, %xmm5
	addpd	%xmm6, %xmm5
	.loc	0 361 86                        # x264_src/input/timecode.c:361:86
	movapd	%xmm5, %xmm6
	unpckhpd	%xmm5, %xmm6                    # xmm6 = xmm6[1],xmm5[1]
	divsd	%xmm5, %xmm6
	.loc	0 361 105                       # x264_src/input/timecode.c:361:105
	mulsd	(%r12,%rsi,8), %xmm6
	addsd	%xmm4, %xmm6
	.loc	0 361 23                        # x264_src/input/timecode.c:361:23
	cvttsd2si	%xmm6, %rsi
	.loc	0 361 21                        # x264_src/input/timecode.c:361:21
	movq	%rsi, (%rax,%rdx,8)
	.loc	0 362 12 is_stmt 1              # x264_src/input/timecode.c:362:12
	movq	104(%rbp), %rax
	.loc	0 362 21 is_stmt 0              # x264_src/input/timecode.c:362:21
	subq	%rcx, (%rax,%rdx,8)
.Ltmp358:
	.loc	0 363 16 is_stmt 1              # x264_src/input/timecode.c:363:16
	movq	104(%rbp), %rax
	.loc	0 363 13 is_stmt 0              # x264_src/input/timecode.c:363:13
	movq	(%rax,%rdx,8), %rsi
	.loc	0 363 25                        # x264_src/input/timecode.c:363:25
	cmpq	-8(%rax,%rdx,8), %rsi
.Ltmp359:
	.loc	0 363 13                        # x264_src/input/timecode.c:363:13
	jle	.LBB0_189
.Ltmp360:
# %bb.146:                              # %for.inc667.i
                                        #   in Loop: Header=BB0_145 Depth=1
	#DEBUG_VALUE: open_file:psz_filename <- [DW_OP_LLVM_entry_value 1] $rdi
	#DEBUG_VALUE: open_file:p_handle <- [DW_OP_LLVM_entry_value 1] $rsi
	#DEBUG_VALUE: open_file:info <- [DW_OP_plus_uconst 96] [$rsp+0]
	#DEBUG_VALUE: open_file:opt <- [DW_OP_LLVM_entry_value 1] $rcx
	#DEBUG_VALUE: open_file:h <- [DW_OP_plus_uconst 16, DW_OP_deref] $rsp
	#DEBUG_VALUE: open_file:tcfile_in <- $r14
	#DEBUG_VALUE: parse_tcfile:tcfile_in <- $r14
	#DEBUG_VALUE: parse_tcfile:h <- [DW_OP_plus_uconst 16, DW_OP_deref] $rsp
	#DEBUG_VALUE: parse_tcfile:info <- [DW_OP_plus_uconst 96, DW_OP_deref] $rsp
	#DEBUG_VALUE: parse_tcfile:timecodes <- $r12
	#DEBUG_VALUE: parse_tcfile:fpss <- $r15
	#DEBUG_VALUE: parse_tcfile:num <- $rdx
	#DEBUG_VALUE: parse_tcfile:pts_seek_offset <- $rcx
	.loc	0 359 47 is_stmt 1              # x264_src/input/timecode.c:359:47
	incq	%rdx
.Ltmp361:
	#DEBUG_VALUE: parse_tcfile:num <- $rdx
	.loc	0 359 28 is_stmt 0              # x264_src/input/timecode.c:359:28
	movslq	100(%rbp), %rsi
	.loc	0 359 23                        # x264_src/input/timecode.c:359:23
	cmpq	%rsi, %rdx
.Ltmp362:
	.loc	0 359 5                         # x264_src/input/timecode.c:359:5
	jl	.LBB0_145
.Ltmp363:
.LBB0_147:                              # %if.end58
	#DEBUG_VALUE: open_file:psz_filename <- [DW_OP_LLVM_entry_value 1] $rdi
	#DEBUG_VALUE: open_file:p_handle <- [DW_OP_LLVM_entry_value 1] $rsi
	#DEBUG_VALUE: open_file:info <- [DW_OP_plus_uconst 96] [$rsp+0]
	#DEBUG_VALUE: open_file:opt <- [DW_OP_LLVM_entry_value 1] $rcx
	#DEBUG_VALUE: open_file:h <- [DW_OP_plus_uconst 16, DW_OP_deref] $rsp
	#DEBUG_VALUE: open_file:tcfile_in <- $r14
	#DEBUG_VALUE: parse_tcfile:tcfile_in <- $r14
	#DEBUG_VALUE: parse_tcfile:h <- [DW_OP_plus_uconst 16, DW_OP_deref] $rsp
	#DEBUG_VALUE: parse_tcfile:info <- [DW_OP_plus_uconst 96, DW_OP_deref] $rsp
	#DEBUG_VALUE: parse_tcfile:timecodes <- $r12
	#DEBUG_VALUE: parse_tcfile:fpss <- $r15
	.loc	0 370 5 is_stmt 1               # x264_src/input/timecode.c:370:5
	movq	%r12, %rdi
	callq	free@PLT
.Ltmp364:
	.loc	0 440 5                         # x264_src/input/timecode.c:440:5
	movq	%r14, %rdi
	callq	fclose@PLT
.Ltmp365:
	.loc	0 442 29                        # x264_src/input/timecode.c:442:29
	movdqu	80(%rbp), %xmm0
	.loc	0 442 26 is_stmt 0              # x264_src/input/timecode.c:442:26
	pshufd	$232, %xmm0, %xmm0              # xmm0 = xmm0[0,2,2,3]
	.loc	0 442 24                        # x264_src/input/timecode.c:442:24
	movq	%xmm0, 32(%rbx)
	.loc	0 444 15 is_stmt 1              # x264_src/input/timecode.c:444:15
	movl	$1, 40(%rbx)
	xorl	%eax, %eax
	jmp	.LBB0_197
.Ltmp366:
.LBB0_148:                              # %if.then589.i
	#DEBUG_VALUE: open_file:psz_filename <- [DW_OP_LLVM_entry_value 1] $rdi
	#DEBUG_VALUE: open_file:p_handle <- [DW_OP_LLVM_entry_value 1] $rsi
	#DEBUG_VALUE: open_file:info <- [DW_OP_plus_uconst 96] [$rsp+0]
	#DEBUG_VALUE: open_file:opt <- [DW_OP_LLVM_entry_value 1] $rcx
	#DEBUG_VALUE: open_file:h <- [DW_OP_plus_uconst 16, DW_OP_deref] $rsp
	#DEBUG_VALUE: open_file:tcfile_in <- $r14
	#DEBUG_VALUE: parse_tcfile:tcfile_in <- $r14
	#DEBUG_VALUE: parse_tcfile:h <- [DW_OP_plus_uconst 16, DW_OP_deref] $rsp
	#DEBUG_VALUE: parse_tcfile:info <- [DW_OP_plus_uconst 96, DW_OP_deref] $rsp
	#DEBUG_VALUE: parse_tcfile:timecodes <- $r12
	#DEBUG_VALUE: parse_tcfile:fpss <- $r15
	.loc	0 342 30                        # x264_src/input/timecode.c:342:30
	movq	80(%rbp), %rsi
	.loc	0 342 47 is_stmt 0              # x264_src/input/timecode.c:342:47
	movq	88(%rbp), %rcx
	#DEBUG_VALUE: gcd:b <- $rcx
	#DEBUG_VALUE: gcd:a <- $rsi
	movq	%rsi, %rax
	movq	%rcx, %rdx
	jmp	.LBB0_150
.Ltmp367:
	.p2align	4, 0x90
.LBB0_151:                              #   in Loop: Header=BB0_150 Depth=1
	#DEBUG_VALUE: open_file:psz_filename <- [DW_OP_LLVM_entry_value 1] $rdi
	#DEBUG_VALUE: open_file:p_handle <- [DW_OP_LLVM_entry_value 1] $rsi
	#DEBUG_VALUE: open_file:info <- [DW_OP_plus_uconst 96] [$rsp+0]
	#DEBUG_VALUE: open_file:opt <- [DW_OP_LLVM_entry_value 1] $rcx
	#DEBUG_VALUE: open_file:h <- [DW_OP_plus_uconst 16, DW_OP_deref] $rsp
	#DEBUG_VALUE: open_file:tcfile_in <- $r14
	#DEBUG_VALUE: parse_tcfile:tcfile_in <- $r14
	#DEBUG_VALUE: parse_tcfile:h <- [DW_OP_plus_uconst 16, DW_OP_deref] $rsp
	#DEBUG_VALUE: parse_tcfile:info <- [DW_OP_plus_uconst 96, DW_OP_deref] $rsp
	#DEBUG_VALUE: parse_tcfile:timecodes <- $r12
	#DEBUG_VALUE: parse_tcfile:fpss <- $r15
	#DEBUG_VALUE: gcd:b <- $rdi
	#DEBUG_VALUE: gcd:a <- $rax
                                        # kill: def $eax killed $eax killed $rax
	.loc	1 36 23 is_stmt 1               # x264_src/muxers.h:36:23
	xorl	%edx, %edx
	divl	%edi
.Ltmp368:
                                        # kill: def $edx killed $edx def $rdx
	#DEBUG_VALUE: c <- $rdx
	.loc	1 0 23 is_stmt 0                # x264_src/muxers.h:0:23
	movq	%rdi, %rax
.Ltmp369:
	.loc	1 37 14 is_stmt 1               # x264_src/muxers.h:37:14
	testq	%rdx, %rdx
.Ltmp370:
	#DEBUG_VALUE: gcd:b <- undef
	#DEBUG_VALUE: gcd:a <- undef
	.loc	1 0 14 is_stmt 0                # x264_src/muxers.h:0:14
	je	.LBB0_152
.Ltmp371:
.LBB0_150:                              # %while.body.i.i
                                        # =>This Inner Loop Header: Depth=1
	#DEBUG_VALUE: open_file:psz_filename <- [DW_OP_LLVM_entry_value 1] $rdi
	#DEBUG_VALUE: open_file:p_handle <- [DW_OP_LLVM_entry_value 1] $rsi
	#DEBUG_VALUE: open_file:info <- [DW_OP_plus_uconst 96] [$rsp+0]
	#DEBUG_VALUE: open_file:opt <- [DW_OP_LLVM_entry_value 1] $rcx
	#DEBUG_VALUE: open_file:h <- [DW_OP_plus_uconst 16, DW_OP_deref] $rsp
	#DEBUG_VALUE: open_file:tcfile_in <- $r14
	#DEBUG_VALUE: parse_tcfile:tcfile_in <- $r14
	#DEBUG_VALUE: parse_tcfile:h <- [DW_OP_plus_uconst 16, DW_OP_deref] $rsp
	#DEBUG_VALUE: parse_tcfile:info <- [DW_OP_plus_uconst 96, DW_OP_deref] $rsp
	#DEBUG_VALUE: parse_tcfile:timecodes <- $r12
	#DEBUG_VALUE: parse_tcfile:fpss <- $r15
	movq	%rdx, %rdi
.Ltmp372:
	#DEBUG_VALUE: gcd:b <- $rdi
	#DEBUG_VALUE: gcd:a <- $rax
	.loc	1 36 23 is_stmt 1               # x264_src/muxers.h:36:23
	movq	%rax, %rdx
	orq	%rdi, %rdx
	shrq	$32, %rdx
	je	.LBB0_151
.Ltmp373:
# %bb.149:                              #   in Loop: Header=BB0_150 Depth=1
	#DEBUG_VALUE: open_file:psz_filename <- [DW_OP_LLVM_entry_value 1] $rdi
	#DEBUG_VALUE: open_file:p_handle <- [DW_OP_LLVM_entry_value 1] $rsi
	#DEBUG_VALUE: open_file:info <- [DW_OP_plus_uconst 96] [$rsp+0]
	#DEBUG_VALUE: open_file:opt <- [DW_OP_LLVM_entry_value 1] $rcx
	#DEBUG_VALUE: open_file:h <- [DW_OP_plus_uconst 16, DW_OP_deref] $rsp
	#DEBUG_VALUE: open_file:tcfile_in <- $r14
	#DEBUG_VALUE: parse_tcfile:tcfile_in <- $r14
	#DEBUG_VALUE: parse_tcfile:h <- [DW_OP_plus_uconst 16, DW_OP_deref] $rsp
	#DEBUG_VALUE: parse_tcfile:info <- [DW_OP_plus_uconst 96, DW_OP_deref] $rsp
	#DEBUG_VALUE: parse_tcfile:timecodes <- $r12
	#DEBUG_VALUE: parse_tcfile:fpss <- $r15
	#DEBUG_VALUE: gcd:b <- $rdi
	#DEBUG_VALUE: gcd:a <- $rax
	cqto
.Ltmp374:
	idivq	%rdi
.Ltmp375:
	#DEBUG_VALUE: c <- $rdx
	.loc	1 0 23 is_stmt 0                # x264_src/muxers.h:0:23
	movq	%rdi, %rax
.Ltmp376:
	.loc	1 37 14 is_stmt 1               # x264_src/muxers.h:37:14
	testq	%rdx, %rdx
.Ltmp377:
	#DEBUG_VALUE: gcd:b <- undef
	#DEBUG_VALUE: gcd:a <- undef
	.loc	1 0 14 is_stmt 0                # x264_src/muxers.h:0:14
	jne	.LBB0_150
.Ltmp378:
.LBB0_152:                              # %gcd.exit.i
	#DEBUG_VALUE: open_file:psz_filename <- [DW_OP_LLVM_entry_value 1] $rdi
	#DEBUG_VALUE: open_file:p_handle <- [DW_OP_LLVM_entry_value 1] $rsi
	#DEBUG_VALUE: open_file:info <- [DW_OP_plus_uconst 96] [$rsp+0]
	#DEBUG_VALUE: open_file:opt <- [DW_OP_LLVM_entry_value 1] $rcx
	#DEBUG_VALUE: open_file:h <- [DW_OP_plus_uconst 16, DW_OP_deref] $rsp
	#DEBUG_VALUE: open_file:tcfile_in <- $r14
	#DEBUG_VALUE: parse_tcfile:tcfile_in <- $r14
	#DEBUG_VALUE: parse_tcfile:h <- [DW_OP_plus_uconst 16, DW_OP_deref] $rsp
	#DEBUG_VALUE: parse_tcfile:info <- [DW_OP_plus_uconst 96, DW_OP_deref] $rsp
	#DEBUG_VALUE: parse_tcfile:timecodes <- $r12
	#DEBUG_VALUE: parse_tcfile:fpss <- $r15
	#DEBUG_VALUE: i <- $rdi
	.loc	0 343 25 is_stmt 1              # x264_src/input/timecode.c:343:25
	movq	%rsi, %rax
	orq	%rdi, %rax
	shrq	$32, %rax
	jne	.LBB0_176
.Ltmp379:
# %bb.153:
	#DEBUG_VALUE: open_file:psz_filename <- [DW_OP_LLVM_entry_value 1] $rdi
	#DEBUG_VALUE: open_file:p_handle <- [DW_OP_LLVM_entry_value 1] $rsi
	#DEBUG_VALUE: open_file:info <- [DW_OP_plus_uconst 96] [$rsp+0]
	#DEBUG_VALUE: open_file:opt <- [DW_OP_LLVM_entry_value 1] $rcx
	#DEBUG_VALUE: open_file:h <- [DW_OP_plus_uconst 16, DW_OP_deref] $rsp
	#DEBUG_VALUE: open_file:tcfile_in <- $r14
	#DEBUG_VALUE: parse_tcfile:tcfile_in <- $r14
	#DEBUG_VALUE: parse_tcfile:h <- [DW_OP_plus_uconst 16, DW_OP_deref] $rsp
	#DEBUG_VALUE: parse_tcfile:info <- [DW_OP_plus_uconst 96, DW_OP_deref] $rsp
	#DEBUG_VALUE: parse_tcfile:timecodes <- $r12
	#DEBUG_VALUE: parse_tcfile:fpss <- $r15
	#DEBUG_VALUE: i <- $rdi
	movl	%esi, %eax
	xorl	%edx, %edx
	divl	%edi
	movl	%eax, %r8d
	jmp	.LBB0_177
.Ltmp380:
.LBB0_154:                              # %lor.lhs.false233.i
	#DEBUG_VALUE: open_file:psz_filename <- [DW_OP_LLVM_entry_value 1] $rdi
	#DEBUG_VALUE: open_file:p_handle <- [DW_OP_LLVM_entry_value 1] $rsi
	#DEBUG_VALUE: open_file:info <- [DW_OP_plus_uconst 96] [$rsp+0]
	#DEBUG_VALUE: open_file:opt <- [DW_OP_LLVM_entry_value 1] $rcx
	#DEBUG_VALUE: open_file:h <- [DW_OP_plus_uconst 16, DW_OP_deref] $rsp
	#DEBUG_VALUE: open_file:tcfile_in <- $r14
	#DEBUG_VALUE: parse_tcfile:tcfile_in <- $r14
	#DEBUG_VALUE: parse_tcfile:h <- [DW_OP_plus_uconst 16, DW_OP_deref] $rsp
	#DEBUG_VALUE: parse_tcfile:info <- [DW_OP_plus_uconst 96, DW_OP_deref] $rsp
	#DEBUG_VALUE: parse_tcfile:timecodes <- $r12
	#DEBUG_VALUE: parse_tcfile:fpss <- [DW_OP_plus_uconst 64, DW_OP_deref] $rsp
	#DEBUG_VALUE: parse_tcfile:timecodes_num <- [DW_OP_plus_uconst 120, DW_OP_deref] $rsp
	#DEBUG_VALUE: file_pos <- [DW_OP_plus_uconst 112, DW_OP_deref] $rsp
	#DEBUG_VALUE: assume_fps <- $xmm0
	.loc	0 0 25 is_stmt 0                # x264_src/input/timecode.c:0:25
	movq	88(%rsp), %rax                  # 8-byte Reload
.Ltmp381:
	.loc	0 210 37 is_stmt 1              # x264_src/input/timecode.c:210:37
	cmpl	$0, (%rax)
	movq	16(%rsp), %rbp                  # 8-byte Reload
	movq	64(%rsp), %r15                  # 8-byte Reload
.Ltmp382:
	.loc	0 210 13 is_stmt 0              # x264_src/input/timecode.c:210:13
	je	.LBB0_188
.Ltmp383:
# %bb.155:                              # %if.then246.i
	#DEBUG_VALUE: open_file:psz_filename <- [DW_OP_LLVM_entry_value 1] $rdi
	#DEBUG_VALUE: open_file:p_handle <- [DW_OP_LLVM_entry_value 1] $rsi
	#DEBUG_VALUE: open_file:info <- [DW_OP_plus_uconst 96] [$rsp+0]
	#DEBUG_VALUE: open_file:opt <- [DW_OP_LLVM_entry_value 1] $rcx
	#DEBUG_VALUE: open_file:h <- [DW_OP_plus_uconst 16, DW_OP_deref] $rsp
	#DEBUG_VALUE: open_file:tcfile_in <- $r14
	#DEBUG_VALUE: parse_tcfile:tcfile_in <- $r14
	#DEBUG_VALUE: parse_tcfile:h <- [DW_OP_plus_uconst 16, DW_OP_deref] $rsp
	#DEBUG_VALUE: parse_tcfile:info <- [DW_OP_plus_uconst 96, DW_OP_deref] $rsp
	#DEBUG_VALUE: parse_tcfile:timecodes <- $r12
	#DEBUG_VALUE: parse_tcfile:fpss <- [DW_OP_plus_uconst 64, DW_OP_deref] $rsp
	#DEBUG_VALUE: parse_tcfile:timecodes_num <- [DW_OP_plus_uconst 120, DW_OP_deref] $rsp
	#DEBUG_VALUE: file_pos <- [DW_OP_plus_uconst 112, DW_OP_deref] $rsp
	#DEBUG_VALUE: assume_fps <- $xmm0
	.loc	0 211 32 is_stmt 1              # x264_src/input/timecode.c:211:32
	movq	112(%rbp), %xmm0                # xmm0 = mem[0],zero
.Ltmp384:
	.loc	0 211 13 is_stmt 0              # x264_src/input/timecode.c:211:13
	movslq	32(%rsp), %rdx                  # 4-byte Folded Reload
	.loc	0 211 27                        # x264_src/input/timecode.c:211:27
	movq	%xmm0, (%r15,%rdx,8)
.Ltmp385:
	.loc	0 217 56 is_stmt 1              # x264_src/input/timecode.c:217:56
	incl	%edx
	.loc	0 217 17 is_stmt 0              # x264_src/input/timecode.c:217:17
	movq	%r15, %rdi
	movq	%rbp, %rsi
                                        # kill: def $edx killed $edx killed $rdx
	callq	try_mkv_timebase_den
.Ltmp386:
	.loc	0 217 62                        # x264_src/input/timecode.c:217:62
	testl	%eax, %eax
.Ltmp387:
	.loc	0 217 17                        # x264_src/input/timecode.c:217:17
	js	.LBB0_190
.Ltmp388:
# %bb.156:                              # %if.end252.i
	#DEBUG_VALUE: open_file:psz_filename <- [DW_OP_LLVM_entry_value 1] $rdi
	#DEBUG_VALUE: open_file:p_handle <- [DW_OP_LLVM_entry_value 1] $rsi
	#DEBUG_VALUE: open_file:info <- [DW_OP_plus_uconst 96] [$rsp+0]
	#DEBUG_VALUE: open_file:opt <- [DW_OP_LLVM_entry_value 1] $rcx
	#DEBUG_VALUE: open_file:h <- [DW_OP_plus_uconst 16, DW_OP_deref] $rsp
	#DEBUG_VALUE: open_file:tcfile_in <- $r14
	#DEBUG_VALUE: parse_tcfile:tcfile_in <- $r14
	#DEBUG_VALUE: parse_tcfile:h <- [DW_OP_plus_uconst 16, DW_OP_deref] $rsp
	#DEBUG_VALUE: parse_tcfile:info <- [DW_OP_plus_uconst 96, DW_OP_deref] $rsp
	#DEBUG_VALUE: parse_tcfile:timecodes <- $r12
	#DEBUG_VALUE: parse_tcfile:fpss <- [DW_OP_plus_uconst 64, DW_OP_deref] $rsp
	#DEBUG_VALUE: parse_tcfile:timecodes_num <- [DW_OP_plus_uconst 120, DW_OP_deref] $rsp
	#DEBUG_VALUE: file_pos <- [DW_OP_plus_uconst 112, DW_OP_deref] $rsp
	.loc	0 219 13 is_stmt 1              # x264_src/input/timecode.c:219:13
	movq	%r14, %rdi
	movq	112(%rsp), %rsi                 # 8-byte Reload
	xorl	%edx, %edx
	callq	fseek@PLT
.Ltmp389:
	.loc	0 0 13 is_stmt 0                # x264_src/input/timecode.c:0:13
	movq	24(%rsp), %rax                  # 8-byte Reload
	.loc	0 220 43 is_stmt 1              # x264_src/input/timecode.c:220:43
	movsd	(%rax), %xmm0                   # xmm0 = mem[0],zero
	#DEBUG_VALUE: sigexp10:value <- $xmm0
.Ltmp390:
	#DEBUG_VALUE: sigexp10:exponent <- undef
	.loc	0 0 43 is_stmt 0                # x264_src/input/timecode.c:0:43
	movsd	%xmm0, 8(%rsp)                  # 8-byte Spill
.Ltmp391:
	#DEBUG_VALUE: sigexp10:value <- [DW_OP_plus_uconst 8, DW_OP_deref_size 16, DW_OP_stack_value] $rsp
	.loc	0 47 33 is_stmt 1               # x264_src/input/timecode.c:47:33
	callq	log10@PLT
.Ltmp392:
	.loc	0 47 26 is_stmt 0               # x264_src/input/timecode.c:47:26
	callq	floor@PLT
.Ltmp393:
	movaps	%xmm0, %xmm1
	movsd	.LCPI0_2(%rip), %xmm0           # xmm0 = [1.0E+1,0.0E+0]
	.loc	0 47 17                         # x264_src/input/timecode.c:47:17
	callq	pow@PLT
.Ltmp394:
	#DEBUG_VALUE: exponent <- $xmm0
	.loc	0 0 17                          # x264_src/input/timecode.c:0:17
	movsd	%xmm0, 72(%rsp)                 # 8-byte Spill
.Ltmp395:
	#DEBUG_VALUE: exponent <- [DW_OP_plus_uconst 72, DW_OP_deref_size 16, DW_OP_stack_value] $rsp
	movsd	8(%rsp), %xmm1                  # 8-byte Reload
                                        # xmm1 = mem[0],zero
	.loc	0 48 18 is_stmt 1               # x264_src/input/timecode.c:48:18
	divsd	%xmm0, %xmm1
.Ltmp396:
	#DEBUG_VALUE: assume_fps_sig <- $xmm1
	.loc	0 0 18 is_stmt 0                # x264_src/input/timecode.c:0:18
	movsd	.LCPI0_8(%rip), %xmm0           # xmm0 = [1.0E+9,0.0E+0]
.Ltmp397:
	.loc	0 221 71 is_stmt 1              # x264_src/input/timecode.c:221:71
	divsd	%xmm1, %xmm0
	.loc	0 221 47 is_stmt 0              # x264_src/input/timecode.c:221:47
	callq	round@PLT
.Ltmp398:
	.loc	0 221 90                        # x264_src/input/timecode.c:221:90
	divsd	72(%rsp), %xmm0                 # 8-byte Folded Reload
	.loc	0 221 43                        # x264_src/input/timecode.c:221:43
	movsd	.LCPI0_8(%rip), %xmm1           # xmm1 = [1.0E+9,0.0E+0]
	divsd	%xmm0, %xmm1
.Ltmp399:
	#DEBUG_VALUE: assume_fps <- $xmm1
	#DEBUG_VALUE: parse_tcfile:num <- 0
	.loc	0 0 43                          # x264_src/input/timecode.c:0:43
	movapd	%xmm1, %xmm0
	cmpl	$2, 120(%rsp)                   # 4-byte Folded Reload
.Ltmp400:
	.loc	0 222 13 is_stmt 1              # x264_src/input/timecode.c:222:13
	jl	.LBB0_137
.Ltmp401:
# %bb.157:                              # %for.body263.lr.ph.lr.ph.i
	#DEBUG_VALUE: open_file:psz_filename <- [DW_OP_LLVM_entry_value 1] $rdi
	#DEBUG_VALUE: open_file:p_handle <- [DW_OP_LLVM_entry_value 1] $rsi
	#DEBUG_VALUE: open_file:info <- [DW_OP_plus_uconst 96] [$rsp+0]
	#DEBUG_VALUE: open_file:opt <- [DW_OP_LLVM_entry_value 1] $rcx
	#DEBUG_VALUE: open_file:h <- [DW_OP_plus_uconst 16, DW_OP_deref] $rsp
	#DEBUG_VALUE: open_file:tcfile_in <- $r14
	#DEBUG_VALUE: parse_tcfile:tcfile_in <- $r14
	#DEBUG_VALUE: parse_tcfile:h <- [DW_OP_plus_uconst 16, DW_OP_deref] $rsp
	#DEBUG_VALUE: parse_tcfile:info <- [DW_OP_plus_uconst 96, DW_OP_deref] $rsp
	#DEBUG_VALUE: parse_tcfile:timecodes <- $r12
	#DEBUG_VALUE: parse_tcfile:fpss <- [DW_OP_plus_uconst 64, DW_OP_deref] $rsp
	#DEBUG_VALUE: parse_tcfile:num <- 0
	#DEBUG_VALUE: parse_tcfile:timecodes_num <- [DW_OP_plus_uconst 120, DW_OP_deref] $rsp
	#DEBUG_VALUE: file_pos <- [DW_OP_plus_uconst 112, DW_OP_deref] $rsp
	#DEBUG_VALUE: assume_fps <- $xmm0
	#DEBUG_VALUE: exponent <- [DW_OP_plus_uconst 72, DW_OP_deref_size 16, DW_OP_stack_value] $rsp
	.loc	0 0 13 is_stmt 0                # x264_src/input/timecode.c:0:13
	movsd	.LCPI0_1(%rip), %xmm2           # xmm2 = [1.0E+0,0.0E+0]
	movsd	%xmm0, 8(%rsp)                  # 8-byte Spill
.Ltmp402:
	#DEBUG_VALUE: assume_fps <- [DW_OP_plus_uconst 8, DW_OP_deref_size 16, DW_OP_stack_value] $rsp
	divsd	%xmm0, %xmm2
	.loc	0 222 13                        # x264_src/input/timecode.c:222:13
	movl	48(%rsp), %r13d                 # 4-byte Reload
	leaq	128(%rsp), %r15
	movabsq	$34359747584, %rbp              # imm = 0x800002400
	xorl	%ebx, %ebx
	movsd	%xmm2, 32(%rsp)                 # 8-byte Spill
.Ltmp403:
	#DEBUG_VALUE: parse_tcfile:num <- $ebx
	.loc	0 0 13                          # x264_src/input/timecode.c:0:13
	jmp	.LBB0_159
.Ltmp404:
.LBB0_158:                              # %for.cond259.loopexit.i
                                        #   in Loop: Header=BB0_159 Depth=1
	#DEBUG_VALUE: open_file:psz_filename <- [DW_OP_LLVM_entry_value 1] $rdi
	#DEBUG_VALUE: open_file:p_handle <- [DW_OP_LLVM_entry_value 1] $rsi
	#DEBUG_VALUE: open_file:info <- [DW_OP_plus_uconst 96] [$rsp+0]
	#DEBUG_VALUE: open_file:opt <- [DW_OP_LLVM_entry_value 1] $rcx
	#DEBUG_VALUE: open_file:h <- [DW_OP_plus_uconst 16, DW_OP_deref] $rsp
	#DEBUG_VALUE: open_file:tcfile_in <- $r14
	#DEBUG_VALUE: parse_tcfile:tcfile_in <- $r14
	#DEBUG_VALUE: parse_tcfile:h <- [DW_OP_plus_uconst 16, DW_OP_deref] $rsp
	#DEBUG_VALUE: parse_tcfile:info <- [DW_OP_plus_uconst 96, DW_OP_deref] $rsp
	#DEBUG_VALUE: parse_tcfile:timecodes <- $r12
	#DEBUG_VALUE: parse_tcfile:fpss <- [DW_OP_plus_uconst 64, DW_OP_deref] $rsp
	#DEBUG_VALUE: parse_tcfile:timecodes_num <- [DW_OP_plus_uconst 120, DW_OP_deref] $rsp
	#DEBUG_VALUE: file_pos <- [DW_OP_plus_uconst 112, DW_OP_deref] $rsp
	#DEBUG_VALUE: assume_fps <- [DW_OP_plus_uconst 8, DW_OP_deref_size 16, DW_OP_stack_value] $rsp
	#DEBUG_VALUE: exponent <- [DW_OP_plus_uconst 24, DW_OP_deref_size 16, DW_OP_stack_value] $rsp
	#DEBUG_VALUE: parse_tcfile:num <- $eax
	movl	%eax, %ebx
	cmpl	%r8d, %eax
	.loc	0 222 13                        # x264_src/input/timecode.c:222:13
	jge	.LBB0_187
.Ltmp405:
	.p2align	4, 0x90
.LBB0_159:                              # %for.body263.us.i
                                        # =>This Loop Header: Depth=1
                                        #     Child Loop BB0_166 Depth 2
                                        #     Child Loop BB0_168 Depth 2
                                        #     Child Loop BB0_171 Depth 2
	#DEBUG_VALUE: open_file:psz_filename <- [DW_OP_LLVM_entry_value 1] $rdi
	#DEBUG_VALUE: open_file:p_handle <- [DW_OP_LLVM_entry_value 1] $rsi
	#DEBUG_VALUE: open_file:info <- [DW_OP_plus_uconst 96] [$rsp+0]
	#DEBUG_VALUE: open_file:opt <- [DW_OP_LLVM_entry_value 1] $rcx
	#DEBUG_VALUE: open_file:h <- [DW_OP_plus_uconst 16, DW_OP_deref] $rsp
	#DEBUG_VALUE: open_file:tcfile_in <- $r14
	#DEBUG_VALUE: parse_tcfile:tcfile_in <- $r14
	#DEBUG_VALUE: parse_tcfile:h <- [DW_OP_plus_uconst 16, DW_OP_deref] $rsp
	#DEBUG_VALUE: parse_tcfile:info <- [DW_OP_plus_uconst 96, DW_OP_deref] $rsp
	#DEBUG_VALUE: parse_tcfile:timecodes <- $r12
	#DEBUG_VALUE: parse_tcfile:fpss <- [DW_OP_plus_uconst 64, DW_OP_deref] $rsp
	#DEBUG_VALUE: parse_tcfile:num <- $ebx
	#DEBUG_VALUE: parse_tcfile:timecodes_num <- [DW_OP_plus_uconst 120, DW_OP_deref] $rsp
	#DEBUG_VALUE: file_pos <- [DW_OP_plus_uconst 112, DW_OP_deref] $rsp
	#DEBUG_VALUE: assume_fps <- [DW_OP_plus_uconst 8, DW_OP_deref_size 16, DW_OP_stack_value] $rsp
	.loc	0 224 17 is_stmt 1              # x264_src/input/timecode.c:224:17
	movq	%r15, %rdi
	movl	$256, %esi                      # imm = 0x100
	movq	%r14, %rdx
	callq	fgets@PLT
.Ltmp406:
	.loc	0 225 21                        # x264_src/input/timecode.c:225:21
	movzbl	128(%rsp), %eax
	cmpq	$35, %rax
	.loc	0 225 36 is_stmt 0              # x264_src/input/timecode.c:225:36
	ja	.LBB0_161
.Ltmp407:
# %bb.160:                              # %for.body263.us.i
                                        #   in Loop: Header=BB0_159 Depth=1
	#DEBUG_VALUE: open_file:psz_filename <- [DW_OP_LLVM_entry_value 1] $rdi
	#DEBUG_VALUE: open_file:p_handle <- [DW_OP_LLVM_entry_value 1] $rsi
	#DEBUG_VALUE: open_file:info <- [DW_OP_plus_uconst 96] [$rsp+0]
	#DEBUG_VALUE: open_file:opt <- [DW_OP_LLVM_entry_value 1] $rcx
	#DEBUG_VALUE: open_file:h <- [DW_OP_plus_uconst 16, DW_OP_deref] $rsp
	#DEBUG_VALUE: open_file:tcfile_in <- $r14
	#DEBUG_VALUE: parse_tcfile:tcfile_in <- $r14
	#DEBUG_VALUE: parse_tcfile:h <- [DW_OP_plus_uconst 16, DW_OP_deref] $rsp
	#DEBUG_VALUE: parse_tcfile:info <- [DW_OP_plus_uconst 96, DW_OP_deref] $rsp
	#DEBUG_VALUE: parse_tcfile:timecodes <- $r12
	#DEBUG_VALUE: parse_tcfile:fpss <- [DW_OP_plus_uconst 64, DW_OP_deref] $rsp
	#DEBUG_VALUE: parse_tcfile:num <- $ebx
	#DEBUG_VALUE: parse_tcfile:timecodes_num <- [DW_OP_plus_uconst 120, DW_OP_deref] $rsp
	#DEBUG_VALUE: file_pos <- [DW_OP_plus_uconst 112, DW_OP_deref] $rsp
	#DEBUG_VALUE: assume_fps <- [DW_OP_plus_uconst 8, DW_OP_deref_size 16, DW_OP_stack_value] $rsp
	.loc	0 0 36                          # x264_src/input/timecode.c:0:36
	btq	%rax, %rbp
	jb	.LBB0_159
.Ltmp408:
.LBB0_161:                              # %if.end281.i
                                        #   in Loop: Header=BB0_159 Depth=1
	#DEBUG_VALUE: open_file:psz_filename <- [DW_OP_LLVM_entry_value 1] $rdi
	#DEBUG_VALUE: open_file:p_handle <- [DW_OP_LLVM_entry_value 1] $rsi
	#DEBUG_VALUE: open_file:info <- [DW_OP_plus_uconst 96] [$rsp+0]
	#DEBUG_VALUE: open_file:opt <- [DW_OP_LLVM_entry_value 1] $rcx
	#DEBUG_VALUE: open_file:h <- [DW_OP_plus_uconst 16, DW_OP_deref] $rsp
	#DEBUG_VALUE: open_file:tcfile_in <- $r14
	#DEBUG_VALUE: parse_tcfile:tcfile_in <- $r14
	#DEBUG_VALUE: parse_tcfile:h <- [DW_OP_plus_uconst 16, DW_OP_deref] $rsp
	#DEBUG_VALUE: parse_tcfile:info <- [DW_OP_plus_uconst 96, DW_OP_deref] $rsp
	#DEBUG_VALUE: parse_tcfile:timecodes <- $r12
	#DEBUG_VALUE: parse_tcfile:fpss <- [DW_OP_plus_uconst 64, DW_OP_deref] $rsp
	#DEBUG_VALUE: parse_tcfile:num <- $ebx
	#DEBUG_VALUE: parse_tcfile:timecodes_num <- [DW_OP_plus_uconst 120, DW_OP_deref] $rsp
	#DEBUG_VALUE: file_pos <- [DW_OP_plus_uconst 112, DW_OP_deref] $rsp
	#DEBUG_VALUE: assume_fps <- [DW_OP_plus_uconst 8, DW_OP_deref_size 16, DW_OP_stack_value] $rsp
	.loc	0 227 23 is_stmt 1              # x264_src/input/timecode.c:227:23
	movl	$.L.str.13, %esi
	movq	%r15, %rdi
	leaq	4(%rsp), %rdx
	movq	%rsp, %rcx
	leaq	80(%rsp), %r8
	xorl	%eax, %eax
	callq	__isoc99_sscanf@PLT
.Ltmp409:
	#DEBUG_VALUE: parse_tcfile:ret <- $eax
	.loc	0 228 25                        # x264_src/input/timecode.c:228:25
	cmpl	$3, %eax
.Ltmp410:
	.loc	0 228 21 is_stmt 0              # x264_src/input/timecode.c:228:21
	je	.LBB0_163
.Ltmp411:
# %bb.162:                              # %if.then286.i
                                        #   in Loop: Header=BB0_159 Depth=1
	#DEBUG_VALUE: open_file:psz_filename <- [DW_OP_LLVM_entry_value 1] $rdi
	#DEBUG_VALUE: open_file:p_handle <- [DW_OP_LLVM_entry_value 1] $rsi
	#DEBUG_VALUE: open_file:info <- [DW_OP_plus_uconst 96] [$rsp+0]
	#DEBUG_VALUE: open_file:opt <- [DW_OP_LLVM_entry_value 1] $rcx
	#DEBUG_VALUE: open_file:h <- [DW_OP_plus_uconst 16, DW_OP_deref] $rsp
	#DEBUG_VALUE: open_file:tcfile_in <- $r14
	#DEBUG_VALUE: parse_tcfile:tcfile_in <- $r14
	#DEBUG_VALUE: parse_tcfile:h <- [DW_OP_plus_uconst 16, DW_OP_deref] $rsp
	#DEBUG_VALUE: parse_tcfile:info <- [DW_OP_plus_uconst 96, DW_OP_deref] $rsp
	#DEBUG_VALUE: parse_tcfile:timecodes <- $r12
	#DEBUG_VALUE: parse_tcfile:fpss <- [DW_OP_plus_uconst 64, DW_OP_deref] $rsp
	#DEBUG_VALUE: parse_tcfile:ret <- $eax
	#DEBUG_VALUE: parse_tcfile:num <- $ebx
	#DEBUG_VALUE: parse_tcfile:timecodes_num <- [DW_OP_plus_uconst 120, DW_OP_deref] $rsp
	#DEBUG_VALUE: file_pos <- [DW_OP_plus_uconst 112, DW_OP_deref] $rsp
	#DEBUG_VALUE: assume_fps <- [DW_OP_plus_uconst 8, DW_OP_deref_size 16, DW_OP_stack_value] $rsp
	.loc	0 0 21                          # x264_src/input/timecode.c:0:21
	movl	48(%rsp), %eax                  # 4-byte Reload
.Ltmp412:
	.loc	0 229 33 is_stmt 1              # x264_src/input/timecode.c:229:33
	movl	%eax, (%rsp)
.Ltmp413:
	#DEBUG_VALUE: end <- [DW_OP_deref] $rsp
	.loc	0 229 27 is_stmt 0              # x264_src/input/timecode.c:229:27
	movl	%eax, 4(%rsp)
.Ltmp414:
.LBB0_163:                              # %if.end288.i
                                        #   in Loop: Header=BB0_159 Depth=1
	#DEBUG_VALUE: open_file:psz_filename <- [DW_OP_LLVM_entry_value 1] $rdi
	#DEBUG_VALUE: open_file:p_handle <- [DW_OP_LLVM_entry_value 1] $rsi
	#DEBUG_VALUE: open_file:info <- [DW_OP_plus_uconst 96] [$rsp+0]
	#DEBUG_VALUE: open_file:opt <- [DW_OP_LLVM_entry_value 1] $rcx
	#DEBUG_VALUE: open_file:h <- [DW_OP_plus_uconst 16, DW_OP_deref] $rsp
	#DEBUG_VALUE: open_file:tcfile_in <- $r14
	#DEBUG_VALUE: parse_tcfile:tcfile_in <- $r14
	#DEBUG_VALUE: parse_tcfile:h <- [DW_OP_plus_uconst 16, DW_OP_deref] $rsp
	#DEBUG_VALUE: parse_tcfile:info <- [DW_OP_plus_uconst 96, DW_OP_deref] $rsp
	#DEBUG_VALUE: parse_tcfile:timecodes <- $r12
	#DEBUG_VALUE: parse_tcfile:fpss <- [DW_OP_plus_uconst 64, DW_OP_deref] $rsp
	#DEBUG_VALUE: parse_tcfile:num <- $ebx
	#DEBUG_VALUE: parse_tcfile:timecodes_num <- [DW_OP_plus_uconst 120, DW_OP_deref] $rsp
	#DEBUG_VALUE: file_pos <- [DW_OP_plus_uconst 112, DW_OP_deref] $rsp
	#DEBUG_VALUE: assume_fps <- [DW_OP_plus_uconst 8, DW_OP_deref_size 16, DW_OP_stack_value] $rsp
	.loc	0 230 41 is_stmt 1              # x264_src/input/timecode.c:230:41
	movsd	80(%rsp), %xmm0                 # xmm0 = mem[0],zero
	#DEBUG_VALUE: sigexp10:value <- $xmm0
.Ltmp415:
	#DEBUG_VALUE: sigexp10:exponent <- undef
	.loc	0 0 41 is_stmt 0                # x264_src/input/timecode.c:0:41
	movsd	%xmm0, 72(%rsp)                 # 8-byte Spill
.Ltmp416:
	#DEBUG_VALUE: sigexp10:value <- [DW_OP_plus_uconst 72, DW_OP_deref_size 16, DW_OP_stack_value] $rsp
	.loc	0 47 33 is_stmt 1               # x264_src/input/timecode.c:47:33
	callq	log10@PLT
.Ltmp417:
	.loc	0 47 26 is_stmt 0               # x264_src/input/timecode.c:47:26
	callq	floor@PLT
.Ltmp418:
	movaps	%xmm0, %xmm1
	.loc	0 47 17                         # x264_src/input/timecode.c:47:17
	movsd	.LCPI0_2(%rip), %xmm0           # xmm0 = [1.0E+1,0.0E+0]
	callq	pow@PLT
.Ltmp419:
	#DEBUG_VALUE: exponent <- $xmm0
	.loc	0 0 17                          # x264_src/input/timecode.c:0:17
	movsd	%xmm0, 24(%rsp)                 # 8-byte Spill
.Ltmp420:
	#DEBUG_VALUE: exponent <- [DW_OP_plus_uconst 24, DW_OP_deref_size 16, DW_OP_stack_value] $rsp
	movsd	72(%rsp), %xmm1                 # 8-byte Reload
                                        # xmm1 = mem[0],zero
	.loc	0 48 18 is_stmt 1               # x264_src/input/timecode.c:48:18
	divsd	%xmm0, %xmm1
.Ltmp421:
	#DEBUG_VALUE: seq_fps_sig <- $xmm1
	.loc	0 0 18 is_stmt 0                # x264_src/input/timecode.c:0:18
	movsd	.LCPI0_8(%rip), %xmm0           # xmm0 = [1.0E+9,0.0E+0]
.Ltmp422:
	.loc	0 231 72 is_stmt 1              # x264_src/input/timecode.c:231:72
	divsd	%xmm1, %xmm0
	.loc	0 231 48 is_stmt 0              # x264_src/input/timecode.c:231:48
	callq	round@PLT
.Ltmp423:
	.loc	0 231 88                        # x264_src/input/timecode.c:231:88
	divsd	24(%rsp), %xmm0                 # 8-byte Folded Reload
	.loc	0 231 44                        # x264_src/input/timecode.c:231:44
	movsd	.LCPI0_8(%rip), %xmm1           # xmm1 = [1.0E+9,0.0E+0]
	divsd	%xmm0, %xmm1
	.loc	0 231 25                        # x264_src/input/timecode.c:231:25
	movsd	%xmm1, 80(%rsp)
	movl	4(%rsp), %eax
	movl	48(%rsp), %r8d                  # 4-byte Reload
	.loc	0 232 17 is_stmt 1              # x264_src/input/timecode.c:232:17
	cmpl	%eax, %r8d
	movl	%eax, %edx
	cmovll	%r8d, %edx
.Ltmp424:
	#DEBUG_VALUE: parse_tcfile:num <- undef
	.loc	0 232 36 is_stmt 0              # x264_src/input/timecode.c:232:36
	cmpl	%edx, %ebx
	movsd	32(%rsp), %xmm2                 # 8-byte Reload
                                        # xmm2 = mem[0],zero
.Ltmp425:
	.loc	0 232 17                        # x264_src/input/timecode.c:232:17
	jge	.LBB0_169
.Ltmp426:
# %bb.164:                              # %for.body301.preheader.i
                                        #   in Loop: Header=BB0_159 Depth=1
	#DEBUG_VALUE: open_file:psz_filename <- [DW_OP_LLVM_entry_value 1] $rdi
	#DEBUG_VALUE: open_file:p_handle <- [DW_OP_LLVM_entry_value 1] $rsi
	#DEBUG_VALUE: open_file:info <- [DW_OP_plus_uconst 96] [$rsp+0]
	#DEBUG_VALUE: open_file:opt <- [DW_OP_LLVM_entry_value 1] $rcx
	#DEBUG_VALUE: open_file:h <- [DW_OP_plus_uconst 16, DW_OP_deref] $rsp
	#DEBUG_VALUE: open_file:tcfile_in <- $r14
	#DEBUG_VALUE: parse_tcfile:tcfile_in <- $r14
	#DEBUG_VALUE: parse_tcfile:h <- [DW_OP_plus_uconst 16, DW_OP_deref] $rsp
	#DEBUG_VALUE: parse_tcfile:info <- [DW_OP_plus_uconst 96, DW_OP_deref] $rsp
	#DEBUG_VALUE: parse_tcfile:timecodes <- $r12
	#DEBUG_VALUE: parse_tcfile:fpss <- [DW_OP_plus_uconst 64, DW_OP_deref] $rsp
	#DEBUG_VALUE: parse_tcfile:timecodes_num <- [DW_OP_plus_uconst 120, DW_OP_deref] $rsp
	#DEBUG_VALUE: file_pos <- [DW_OP_plus_uconst 112, DW_OP_deref] $rsp
	#DEBUG_VALUE: assume_fps <- [DW_OP_plus_uconst 8, DW_OP_deref_size 16, DW_OP_stack_value] $rsp
	#DEBUG_VALUE: exponent <- [DW_OP_plus_uconst 24, DW_OP_deref_size 16, DW_OP_stack_value] $rsp
	movslq	%ebx, %rsi
.Ltmp427:
	.loc	0 233 42 is_stmt 1              # x264_src/input/timecode.c:233:42
	movsd	(%r12,%rsi,8), %xmm0            # xmm0 = mem[0],zero
.Ltmp428:
	.loc	0 232 17                        # x264_src/input/timecode.c:232:17
	movl	%edx, %edi
	subl	%ebx, %edi
	andl	$3, %edi
	je	.LBB0_173
.Ltmp429:
# %bb.165:                              # %for.body301.i.prol.preheader
                                        #   in Loop: Header=BB0_159 Depth=1
	#DEBUG_VALUE: open_file:psz_filename <- [DW_OP_LLVM_entry_value 1] $rdi
	#DEBUG_VALUE: open_file:p_handle <- [DW_OP_LLVM_entry_value 1] $rsi
	#DEBUG_VALUE: open_file:info <- [DW_OP_plus_uconst 96] [$rsp+0]
	#DEBUG_VALUE: open_file:opt <- [DW_OP_LLVM_entry_value 1] $rcx
	#DEBUG_VALUE: open_file:h <- [DW_OP_plus_uconst 16, DW_OP_deref] $rsp
	#DEBUG_VALUE: open_file:tcfile_in <- $r14
	#DEBUG_VALUE: parse_tcfile:tcfile_in <- $r14
	#DEBUG_VALUE: parse_tcfile:h <- [DW_OP_plus_uconst 16, DW_OP_deref] $rsp
	#DEBUG_VALUE: parse_tcfile:info <- [DW_OP_plus_uconst 96, DW_OP_deref] $rsp
	#DEBUG_VALUE: parse_tcfile:timecodes <- $r12
	#DEBUG_VALUE: parse_tcfile:fpss <- [DW_OP_plus_uconst 64, DW_OP_deref] $rsp
	#DEBUG_VALUE: parse_tcfile:timecodes_num <- [DW_OP_plus_uconst 120, DW_OP_deref] $rsp
	#DEBUG_VALUE: file_pos <- [DW_OP_plus_uconst 112, DW_OP_deref] $rsp
	#DEBUG_VALUE: assume_fps <- [DW_OP_plus_uconst 8, DW_OP_deref_size 16, DW_OP_stack_value] $rsp
	#DEBUG_VALUE: exponent <- [DW_OP_plus_uconst 24, DW_OP_deref_size 16, DW_OP_stack_value] $rsp
	shll	$3, %edi
	movq	%rsi, %rcx
.Ltmp430:
	.p2align	4, 0x90
.LBB0_166:                              # %for.body301.i.prol
                                        #   Parent Loop BB0_159 Depth=1
                                        # =>  This Inner Loop Header: Depth=2
	#DEBUG_VALUE: open_file:psz_filename <- [DW_OP_LLVM_entry_value 1] $rdi
	#DEBUG_VALUE: open_file:p_handle <- [DW_OP_LLVM_entry_value 1] $rsi
	#DEBUG_VALUE: open_file:info <- [DW_OP_plus_uconst 96] [$rsp+0]
	#DEBUG_VALUE: open_file:opt <- [DW_OP_LLVM_entry_value 1] $rcx
	#DEBUG_VALUE: open_file:h <- [DW_OP_plus_uconst 16, DW_OP_deref] $rsp
	#DEBUG_VALUE: open_file:tcfile_in <- $r14
	#DEBUG_VALUE: parse_tcfile:tcfile_in <- $r14
	#DEBUG_VALUE: parse_tcfile:h <- [DW_OP_plus_uconst 16, DW_OP_deref] $rsp
	#DEBUG_VALUE: parse_tcfile:info <- [DW_OP_plus_uconst 96, DW_OP_deref] $rsp
	#DEBUG_VALUE: parse_tcfile:timecodes <- $r12
	#DEBUG_VALUE: parse_tcfile:fpss <- [DW_OP_plus_uconst 64, DW_OP_deref] $rsp
	#DEBUG_VALUE: parse_tcfile:timecodes_num <- [DW_OP_plus_uconst 120, DW_OP_deref] $rsp
	#DEBUG_VALUE: file_pos <- [DW_OP_plus_uconst 112, DW_OP_deref] $rsp
	#DEBUG_VALUE: assume_fps <- [DW_OP_plus_uconst 8, DW_OP_deref_size 16, DW_OP_stack_value] $rsp
	#DEBUG_VALUE: exponent <- [DW_OP_plus_uconst 24, DW_OP_deref_size 16, DW_OP_stack_value] $rsp
	#DEBUG_VALUE: parse_tcfile:num <- $rcx
	.loc	0 233 57                        # x264_src/input/timecode.c:233:57
	addsd	%xmm2, %xmm0
	.loc	0 233 40 is_stmt 0              # x264_src/input/timecode.c:233:40
	movsd	%xmm0, 8(%r12,%rcx,8)
	.loc	0 233 35                        # x264_src/input/timecode.c:233:35
	incq	%rcx
.Ltmp431:
	#DEBUG_VALUE: parse_tcfile:num <- $rcx
	.loc	0 232 17 is_stmt 1              # x264_src/input/timecode.c:232:17
	addq	$-8, %rdi
	jne	.LBB0_166
.Ltmp432:
# %bb.167:                              # %for.body301.i.prol.loopexit
                                        #   in Loop: Header=BB0_159 Depth=1
	#DEBUG_VALUE: open_file:psz_filename <- [DW_OP_LLVM_entry_value 1] $rdi
	#DEBUG_VALUE: open_file:p_handle <- [DW_OP_LLVM_entry_value 1] $rsi
	#DEBUG_VALUE: open_file:info <- [DW_OP_plus_uconst 96] [$rsp+0]
	#DEBUG_VALUE: open_file:opt <- [DW_OP_LLVM_entry_value 1] $rcx
	#DEBUG_VALUE: open_file:h <- [DW_OP_plus_uconst 16, DW_OP_deref] $rsp
	#DEBUG_VALUE: open_file:tcfile_in <- $r14
	#DEBUG_VALUE: parse_tcfile:tcfile_in <- $r14
	#DEBUG_VALUE: parse_tcfile:h <- [DW_OP_plus_uconst 16, DW_OP_deref] $rsp
	#DEBUG_VALUE: parse_tcfile:info <- [DW_OP_plus_uconst 96, DW_OP_deref] $rsp
	#DEBUG_VALUE: parse_tcfile:timecodes <- $r12
	#DEBUG_VALUE: parse_tcfile:fpss <- [DW_OP_plus_uconst 64, DW_OP_deref] $rsp
	#DEBUG_VALUE: parse_tcfile:num <- $rcx
	#DEBUG_VALUE: parse_tcfile:timecodes_num <- [DW_OP_plus_uconst 120, DW_OP_deref] $rsp
	#DEBUG_VALUE: file_pos <- [DW_OP_plus_uconst 112, DW_OP_deref] $rsp
	#DEBUG_VALUE: assume_fps <- [DW_OP_plus_uconst 8, DW_OP_deref_size 16, DW_OP_stack_value] $rsp
	#DEBUG_VALUE: exponent <- [DW_OP_plus_uconst 24, DW_OP_deref_size 16, DW_OP_stack_value] $rsp
	.loc	0 232 0 is_stmt 0               # x264_src/input/timecode.c:232:0
	movslq	%edx, %rdx
	.loc	0 232 17                        # x264_src/input/timecode.c:232:17
	subq	%rdx, %rsi
	cmpq	$-4, %rsi
	ja	.LBB0_169
.Ltmp433:
	.p2align	4, 0x90
.LBB0_168:                              # %for.body301.i
                                        #   Parent Loop BB0_159 Depth=1
                                        # =>  This Inner Loop Header: Depth=2
	#DEBUG_VALUE: open_file:psz_filename <- [DW_OP_LLVM_entry_value 1] $rdi
	#DEBUG_VALUE: open_file:p_handle <- [DW_OP_LLVM_entry_value 1] $rsi
	#DEBUG_VALUE: open_file:info <- [DW_OP_plus_uconst 96] [$rsp+0]
	#DEBUG_VALUE: open_file:opt <- [DW_OP_LLVM_entry_value 1] $rcx
	#DEBUG_VALUE: open_file:h <- [DW_OP_plus_uconst 16, DW_OP_deref] $rsp
	#DEBUG_VALUE: open_file:tcfile_in <- $r14
	#DEBUG_VALUE: parse_tcfile:tcfile_in <- $r14
	#DEBUG_VALUE: parse_tcfile:h <- [DW_OP_plus_uconst 16, DW_OP_deref] $rsp
	#DEBUG_VALUE: parse_tcfile:info <- [DW_OP_plus_uconst 96, DW_OP_deref] $rsp
	#DEBUG_VALUE: parse_tcfile:timecodes <- $r12
	#DEBUG_VALUE: parse_tcfile:fpss <- [DW_OP_plus_uconst 64, DW_OP_deref] $rsp
	#DEBUG_VALUE: parse_tcfile:timecodes_num <- [DW_OP_plus_uconst 120, DW_OP_deref] $rsp
	#DEBUG_VALUE: file_pos <- [DW_OP_plus_uconst 112, DW_OP_deref] $rsp
	#DEBUG_VALUE: assume_fps <- [DW_OP_plus_uconst 8, DW_OP_deref_size 16, DW_OP_stack_value] $rsp
	#DEBUG_VALUE: exponent <- [DW_OP_plus_uconst 24, DW_OP_deref_size 16, DW_OP_stack_value] $rsp
	#DEBUG_VALUE: parse_tcfile:num <- $rcx
	.loc	0 233 57 is_stmt 1              # x264_src/input/timecode.c:233:57
	addsd	%xmm2, %xmm0
	.loc	0 233 40 is_stmt 0              # x264_src/input/timecode.c:233:40
	movsd	%xmm0, 8(%r12,%rcx,8)
.Ltmp434:
	#DEBUG_VALUE: parse_tcfile:num <- [DW_OP_plus_uconst 1, DW_OP_stack_value] $rcx
	.loc	0 233 57                        # x264_src/input/timecode.c:233:57
	addsd	%xmm2, %xmm0
	.loc	0 233 40                        # x264_src/input/timecode.c:233:40
	movsd	%xmm0, 16(%r12,%rcx,8)
.Ltmp435:
	#DEBUG_VALUE: parse_tcfile:num <- [DW_OP_plus_uconst 2, DW_OP_stack_value] $rcx
	.loc	0 233 57                        # x264_src/input/timecode.c:233:57
	addsd	%xmm2, %xmm0
	.loc	0 233 40                        # x264_src/input/timecode.c:233:40
	movsd	%xmm0, 24(%r12,%rcx,8)
.Ltmp436:
	#DEBUG_VALUE: parse_tcfile:num <- [DW_OP_plus_uconst 3, DW_OP_stack_value] $rcx
	.loc	0 233 57                        # x264_src/input/timecode.c:233:57
	addsd	%xmm2, %xmm0
	.loc	0 233 40                        # x264_src/input/timecode.c:233:40
	movsd	%xmm0, 32(%r12,%rcx,8)
	.loc	0 233 35                        # x264_src/input/timecode.c:233:35
	addq	$4, %rcx
.Ltmp437:
	#DEBUG_VALUE: parse_tcfile:num <- $rcx
	.loc	0 232 36 is_stmt 1              # x264_src/input/timecode.c:232:36
	cmpq	%rcx, %rdx
.Ltmp438:
	.loc	0 232 17 is_stmt 0              # x264_src/input/timecode.c:232:17
	jne	.LBB0_168
.Ltmp439:
.LBB0_169:                              # %for.cond312.preheader.i
                                        #   in Loop: Header=BB0_159 Depth=1
	#DEBUG_VALUE: open_file:psz_filename <- [DW_OP_LLVM_entry_value 1] $rdi
	#DEBUG_VALUE: open_file:p_handle <- [DW_OP_LLVM_entry_value 1] $rsi
	#DEBUG_VALUE: open_file:info <- [DW_OP_plus_uconst 96] [$rsp+0]
	#DEBUG_VALUE: open_file:opt <- [DW_OP_LLVM_entry_value 1] $rcx
	#DEBUG_VALUE: open_file:h <- [DW_OP_plus_uconst 16, DW_OP_deref] $rsp
	#DEBUG_VALUE: open_file:tcfile_in <- $r14
	#DEBUG_VALUE: parse_tcfile:tcfile_in <- $r14
	#DEBUG_VALUE: parse_tcfile:h <- [DW_OP_plus_uconst 16, DW_OP_deref] $rsp
	#DEBUG_VALUE: parse_tcfile:info <- [DW_OP_plus_uconst 96, DW_OP_deref] $rsp
	#DEBUG_VALUE: parse_tcfile:timecodes <- $r12
	#DEBUG_VALUE: parse_tcfile:fpss <- [DW_OP_plus_uconst 64, DW_OP_deref] $rsp
	#DEBUG_VALUE: parse_tcfile:timecodes_num <- [DW_OP_plus_uconst 120, DW_OP_deref] $rsp
	#DEBUG_VALUE: file_pos <- [DW_OP_plus_uconst 112, DW_OP_deref] $rsp
	#DEBUG_VALUE: assume_fps <- [DW_OP_plus_uconst 8, DW_OP_deref_size 16, DW_OP_stack_value] $rsp
	#DEBUG_VALUE: exponent <- [DW_OP_plus_uconst 24, DW_OP_deref_size 16, DW_OP_stack_value] $rsp
	.loc	0 0 17                          # x264_src/input/timecode.c:0:17
	movslq	(%rsp), %rcx
.Ltmp440:
	#DEBUG_VALUE: parse_tcfile:num <- undef
	.loc	0 234 39 is_stmt 1              # x264_src/input/timecode.c:234:39
	cmpl	%ecx, %eax
	setg	%dl
	.loc	0 234 46 is_stmt 0              # x264_src/input/timecode.c:234:46
	cmpl	%r8d, %eax
	setge	%sil
.Ltmp441:
	.loc	0 234 17                        # x264_src/input/timecode.c:234:17
	orb	%dl, %sil
	jne	.LBB0_158
.Ltmp442:
# %bb.170:                              # %for.body320.lr.ph.i
                                        #   in Loop: Header=BB0_159 Depth=1
	#DEBUG_VALUE: open_file:psz_filename <- [DW_OP_LLVM_entry_value 1] $rdi
	#DEBUG_VALUE: open_file:p_handle <- [DW_OP_LLVM_entry_value 1] $rsi
	#DEBUG_VALUE: open_file:info <- [DW_OP_plus_uconst 96] [$rsp+0]
	#DEBUG_VALUE: open_file:opt <- [DW_OP_LLVM_entry_value 1] $rcx
	#DEBUG_VALUE: open_file:h <- [DW_OP_plus_uconst 16, DW_OP_deref] $rsp
	#DEBUG_VALUE: open_file:tcfile_in <- $r14
	#DEBUG_VALUE: parse_tcfile:tcfile_in <- $r14
	#DEBUG_VALUE: parse_tcfile:h <- [DW_OP_plus_uconst 16, DW_OP_deref] $rsp
	#DEBUG_VALUE: parse_tcfile:info <- [DW_OP_plus_uconst 96, DW_OP_deref] $rsp
	#DEBUG_VALUE: parse_tcfile:timecodes <- $r12
	#DEBUG_VALUE: parse_tcfile:fpss <- [DW_OP_plus_uconst 64, DW_OP_deref] $rsp
	#DEBUG_VALUE: parse_tcfile:timecodes_num <- [DW_OP_plus_uconst 120, DW_OP_deref] $rsp
	#DEBUG_VALUE: file_pos <- [DW_OP_plus_uconst 112, DW_OP_deref] $rsp
	#DEBUG_VALUE: assume_fps <- [DW_OP_plus_uconst 8, DW_OP_deref_size 16, DW_OP_stack_value] $rsp
	#DEBUG_VALUE: exponent <- [DW_OP_plus_uconst 24, DW_OP_deref_size 16, DW_OP_stack_value] $rsp
	.loc	0 0 17                          # x264_src/input/timecode.c:0:17
	movslq	%eax, %rdx
	movsd	.LCPI0_1(%rip), %xmm0           # xmm0 = [1.0E+0,0.0E+0]
	divsd	%xmm1, %xmm0
.Ltmp443:
	.loc	0 235 42 is_stmt 1              # x264_src/input/timecode.c:235:42
	movsd	(%r12,%rdx,8), %xmm1            # xmm1 = mem[0],zero
.Ltmp444:
	.p2align	4, 0x90
.LBB0_171:                              # %for.body320.i
                                        #   Parent Loop BB0_159 Depth=1
                                        # =>  This Inner Loop Header: Depth=2
	#DEBUG_VALUE: open_file:psz_filename <- [DW_OP_LLVM_entry_value 1] $rdi
	#DEBUG_VALUE: open_file:p_handle <- [DW_OP_LLVM_entry_value 1] $rsi
	#DEBUG_VALUE: open_file:info <- [DW_OP_plus_uconst 96] [$rsp+0]
	#DEBUG_VALUE: open_file:opt <- [DW_OP_LLVM_entry_value 1] $rcx
	#DEBUG_VALUE: open_file:h <- [DW_OP_plus_uconst 16, DW_OP_deref] $rsp
	#DEBUG_VALUE: open_file:tcfile_in <- $r14
	#DEBUG_VALUE: parse_tcfile:tcfile_in <- $r14
	#DEBUG_VALUE: parse_tcfile:h <- [DW_OP_plus_uconst 16, DW_OP_deref] $rsp
	#DEBUG_VALUE: parse_tcfile:info <- [DW_OP_plus_uconst 96, DW_OP_deref] $rsp
	#DEBUG_VALUE: parse_tcfile:timecodes <- $r12
	#DEBUG_VALUE: parse_tcfile:fpss <- [DW_OP_plus_uconst 64, DW_OP_deref] $rsp
	#DEBUG_VALUE: parse_tcfile:timecodes_num <- [DW_OP_plus_uconst 120, DW_OP_deref] $rsp
	#DEBUG_VALUE: file_pos <- [DW_OP_plus_uconst 112, DW_OP_deref] $rsp
	#DEBUG_VALUE: assume_fps <- [DW_OP_plus_uconst 8, DW_OP_deref_size 16, DW_OP_stack_value] $rsp
	#DEBUG_VALUE: exponent <- [DW_OP_plus_uconst 24, DW_OP_deref_size 16, DW_OP_stack_value] $rsp
	#DEBUG_VALUE: parse_tcfile:num <- $rdx
	.loc	0 235 57 is_stmt 0              # x264_src/input/timecode.c:235:57
	addsd	%xmm0, %xmm1
	.loc	0 235 35                        # x264_src/input/timecode.c:235:35
	leaq	1(%rdx), %rax
	.loc	0 235 40                        # x264_src/input/timecode.c:235:40
	movsd	%xmm1, 8(%r12,%rdx,8)
.Ltmp445:
	#DEBUG_VALUE: parse_tcfile:num <- $rax
	.loc	0 234 39 is_stmt 1              # x264_src/input/timecode.c:234:39
	cmpq	%rcx, %rdx
.Ltmp446:
	.loc	0 234 17 is_stmt 0              # x264_src/input/timecode.c:234:17
	jge	.LBB0_158
.Ltmp447:
# %bb.172:                              # %for.body320.i
                                        #   in Loop: Header=BB0_171 Depth=2
	#DEBUG_VALUE: open_file:psz_filename <- [DW_OP_LLVM_entry_value 1] $rdi
	#DEBUG_VALUE: open_file:p_handle <- [DW_OP_LLVM_entry_value 1] $rsi
	#DEBUG_VALUE: open_file:info <- [DW_OP_plus_uconst 96] [$rsp+0]
	#DEBUG_VALUE: open_file:opt <- [DW_OP_LLVM_entry_value 1] $rcx
	#DEBUG_VALUE: open_file:h <- [DW_OP_plus_uconst 16, DW_OP_deref] $rsp
	#DEBUG_VALUE: open_file:tcfile_in <- $r14
	#DEBUG_VALUE: parse_tcfile:tcfile_in <- $r14
	#DEBUG_VALUE: parse_tcfile:h <- [DW_OP_plus_uconst 16, DW_OP_deref] $rsp
	#DEBUG_VALUE: parse_tcfile:info <- [DW_OP_plus_uconst 96, DW_OP_deref] $rsp
	#DEBUG_VALUE: parse_tcfile:timecodes <- $r12
	#DEBUG_VALUE: parse_tcfile:fpss <- [DW_OP_plus_uconst 64, DW_OP_deref] $rsp
	#DEBUG_VALUE: parse_tcfile:num <- $rax
	#DEBUG_VALUE: parse_tcfile:timecodes_num <- [DW_OP_plus_uconst 120, DW_OP_deref] $rsp
	#DEBUG_VALUE: file_pos <- [DW_OP_plus_uconst 112, DW_OP_deref] $rsp
	#DEBUG_VALUE: assume_fps <- [DW_OP_plus_uconst 8, DW_OP_deref_size 16, DW_OP_stack_value] $rsp
	#DEBUG_VALUE: exponent <- [DW_OP_plus_uconst 24, DW_OP_deref_size 16, DW_OP_stack_value] $rsp
	.loc	0 0 17                          # x264_src/input/timecode.c:0:17
	movq	%rax, %rdx
	.loc	0 234 17                        # x264_src/input/timecode.c:234:17
	cmpq	%r13, %rax
	jl	.LBB0_171
	jmp	.LBB0_158
.Ltmp448:
.LBB0_173:                              #   in Loop: Header=BB0_159 Depth=1
	#DEBUG_VALUE: open_file:psz_filename <- [DW_OP_LLVM_entry_value 1] $rdi
	#DEBUG_VALUE: open_file:p_handle <- [DW_OP_LLVM_entry_value 1] $rsi
	#DEBUG_VALUE: open_file:info <- [DW_OP_plus_uconst 96] [$rsp+0]
	#DEBUG_VALUE: open_file:opt <- [DW_OP_LLVM_entry_value 1] $rcx
	#DEBUG_VALUE: open_file:h <- [DW_OP_plus_uconst 16, DW_OP_deref] $rsp
	#DEBUG_VALUE: open_file:tcfile_in <- $r14
	#DEBUG_VALUE: parse_tcfile:tcfile_in <- $r14
	#DEBUG_VALUE: parse_tcfile:h <- [DW_OP_plus_uconst 16, DW_OP_deref] $rsp
	#DEBUG_VALUE: parse_tcfile:info <- [DW_OP_plus_uconst 96, DW_OP_deref] $rsp
	#DEBUG_VALUE: parse_tcfile:timecodes <- $r12
	#DEBUG_VALUE: parse_tcfile:fpss <- [DW_OP_plus_uconst 64, DW_OP_deref] $rsp
	#DEBUG_VALUE: parse_tcfile:timecodes_num <- [DW_OP_plus_uconst 120, DW_OP_deref] $rsp
	#DEBUG_VALUE: file_pos <- [DW_OP_plus_uconst 112, DW_OP_deref] $rsp
	#DEBUG_VALUE: assume_fps <- [DW_OP_plus_uconst 8, DW_OP_deref_size 16, DW_OP_stack_value] $rsp
	#DEBUG_VALUE: exponent <- [DW_OP_plus_uconst 24, DW_OP_deref_size 16, DW_OP_stack_value] $rsp
	.loc	0 0 17                          # x264_src/input/timecode.c:0:17
	movq	%rsi, %rcx
.Ltmp449:
	.loc	0 232 0 is_stmt 1               # x264_src/input/timecode.c:232:0
	movslq	%edx, %rdx
	.loc	0 232 17 is_stmt 0              # x264_src/input/timecode.c:232:17
	subq	%rdx, %rsi
	cmpq	$-4, %rsi
	jbe	.LBB0_168
	jmp	.LBB0_169
.Ltmp450:
.LBB0_174:                              # %if.then390.i
	#DEBUG_VALUE: open_file:psz_filename <- [DW_OP_LLVM_entry_value 1] $rdi
	#DEBUG_VALUE: open_file:p_handle <- [DW_OP_LLVM_entry_value 1] $rsi
	#DEBUG_VALUE: open_file:info <- [DW_OP_plus_uconst 96] [$rsp+0]
	#DEBUG_VALUE: open_file:opt <- [DW_OP_LLVM_entry_value 1] $rcx
	#DEBUG_VALUE: open_file:h <- [DW_OP_plus_uconst 16, DW_OP_deref] $rsp
	#DEBUG_VALUE: open_file:tcfile_in <- $r14
	#DEBUG_VALUE: parse_tcfile:tcfile_in <- $r14
	#DEBUG_VALUE: parse_tcfile:h <- [DW_OP_plus_uconst 16, DW_OP_deref] $rsp
	#DEBUG_VALUE: parse_tcfile:info <- [DW_OP_plus_uconst 96, DW_OP_deref] $rsp
	#DEBUG_VALUE: parse_tcfile:timecodes <- 0
	#DEBUG_VALUE: parse_tcfile:fpss <- 0
	#DEBUG_VALUE: file_pos <- $r15
	#DEBUG_VALUE: parse_tcfile:timecodes_num <- $ebx
	.loc	0 264 22 is_stmt 1              # x264_src/input/timecode.c:264:22
	movq	stderr@GOTPCREL(%rip), %rax
	movq	(%rax), %rcx
	.loc	0 264 13 is_stmt 0              # x264_src/input/timecode.c:264:13
	movl	$.L.str.16, %edi
	movl	$59, %esi
	jmp	.LBB0_94
.Ltmp451:
.LBB0_175:                              # %if.then40.i
	#DEBUG_VALUE: open_file:psz_filename <- [DW_OP_LLVM_entry_value 1] $rdi
	#DEBUG_VALUE: open_file:p_handle <- [DW_OP_LLVM_entry_value 1] $rsi
	#DEBUG_VALUE: open_file:info <- [DW_OP_plus_uconst 96] [$rsp+0]
	#DEBUG_VALUE: open_file:opt <- [DW_OP_LLVM_entry_value 1] $rcx
	#DEBUG_VALUE: open_file:h <- [DW_OP_plus_uconst 16, DW_OP_deref] $rsp
	#DEBUG_VALUE: open_file:tcfile_in <- $r14
	#DEBUG_VALUE: end <- [DW_OP_deref] $rsp
	#DEBUG_VALUE: parse_tcfile:tcfile_in <- $r14
	#DEBUG_VALUE: parse_tcfile:h <- [DW_OP_plus_uconst 16, DW_OP_deref] $rsp
	#DEBUG_VALUE: parse_tcfile:info <- [DW_OP_plus_uconst 96, DW_OP_deref] $rsp
	#DEBUG_VALUE: parse_tcfile:timecodes <- 0
	#DEBUG_VALUE: parse_tcfile:fpss <- 0
	#DEBUG_VALUE: prev_start <- -1
	#DEBUG_VALUE: prev_end <- -1
	.loc	0 140 22 is_stmt 1              # x264_src/input/timecode.c:140:22
	movq	stderr@GOTPCREL(%rip), %rax
	movq	(%rax), %rdi
	.loc	0 140 13 is_stmt 0              # x264_src/input/timecode.c:140:13
	movl	$.L.str.11, %esi
	movb	$1, %al
	callq	fprintf@PLT
.Ltmp452:
	.loc	0 141 13 is_stmt 1              # x264_src/input/timecode.c:141:13
	jmp	.LBB0_193
.Ltmp453:
.LBB0_176:
	#DEBUG_VALUE: open_file:psz_filename <- [DW_OP_LLVM_entry_value 1] $rdi
	#DEBUG_VALUE: open_file:p_handle <- [DW_OP_LLVM_entry_value 1] $rsi
	#DEBUG_VALUE: open_file:info <- [DW_OP_plus_uconst 96] [$rsp+0]
	#DEBUG_VALUE: open_file:opt <- [DW_OP_LLVM_entry_value 1] $rcx
	#DEBUG_VALUE: open_file:h <- [DW_OP_plus_uconst 16, DW_OP_deref] $rsp
	#DEBUG_VALUE: open_file:tcfile_in <- $r14
	#DEBUG_VALUE: parse_tcfile:tcfile_in <- $r14
	#DEBUG_VALUE: parse_tcfile:h <- [DW_OP_plus_uconst 16, DW_OP_deref] $rsp
	#DEBUG_VALUE: parse_tcfile:info <- [DW_OP_plus_uconst 96, DW_OP_deref] $rsp
	#DEBUG_VALUE: parse_tcfile:timecodes <- $r12
	#DEBUG_VALUE: parse_tcfile:fpss <- $r15
	#DEBUG_VALUE: i <- $rdi
	.loc	0 343 25                        # x264_src/input/timecode.c:343:25
	movq	%rsi, %rax
	xorl	%edx, %edx
	divq	%rdi
	movq	%rax, %r8
.Ltmp454:
.LBB0_177:
	#DEBUG_VALUE: open_file:psz_filename <- [DW_OP_LLVM_entry_value 1] $rdi
	#DEBUG_VALUE: open_file:p_handle <- [DW_OP_LLVM_entry_value 1] $rsi
	#DEBUG_VALUE: open_file:info <- [DW_OP_plus_uconst 96] [$rsp+0]
	#DEBUG_VALUE: open_file:opt <- [DW_OP_LLVM_entry_value 1] $rcx
	#DEBUG_VALUE: open_file:h <- [DW_OP_plus_uconst 16, DW_OP_deref] $rsp
	#DEBUG_VALUE: open_file:tcfile_in <- $r14
	#DEBUG_VALUE: parse_tcfile:tcfile_in <- $r14
	#DEBUG_VALUE: parse_tcfile:h <- [DW_OP_plus_uconst 16, DW_OP_deref] $rsp
	#DEBUG_VALUE: parse_tcfile:info <- [DW_OP_plus_uconst 96, DW_OP_deref] $rsp
	#DEBUG_VALUE: parse_tcfile:timecodes <- $r12
	#DEBUG_VALUE: parse_tcfile:fpss <- $r15
	#DEBUG_VALUE: i <- $rdi
	movq	%r8, 80(%rbp)
	.loc	0 344 25                        # x264_src/input/timecode.c:344:25
	movq	%rcx, %rax
	orq	%rdi, %rax
	shrq	$32, %rax
	jne	.LBB0_179
.Ltmp455:
# %bb.178:
	#DEBUG_VALUE: open_file:psz_filename <- [DW_OP_LLVM_entry_value 1] $rdi
	#DEBUG_VALUE: open_file:p_handle <- [DW_OP_LLVM_entry_value 1] $rsi
	#DEBUG_VALUE: open_file:info <- [DW_OP_plus_uconst 96] [$rsp+0]
	#DEBUG_VALUE: open_file:opt <- [DW_OP_LLVM_entry_value 1] $rcx
	#DEBUG_VALUE: open_file:h <- [DW_OP_plus_uconst 16, DW_OP_deref] $rsp
	#DEBUG_VALUE: open_file:tcfile_in <- $r14
	#DEBUG_VALUE: parse_tcfile:tcfile_in <- $r14
	#DEBUG_VALUE: parse_tcfile:h <- [DW_OP_plus_uconst 16, DW_OP_deref] $rsp
	#DEBUG_VALUE: parse_tcfile:info <- [DW_OP_plus_uconst 96, DW_OP_deref] $rsp
	#DEBUG_VALUE: parse_tcfile:timecodes <- $r12
	#DEBUG_VALUE: parse_tcfile:fpss <- $r15
	#DEBUG_VALUE: i <- $rdi
	movl	%ecx, %eax
	xorl	%edx, %edx
	divl	%edi
                                        # kill: def $eax killed $eax def $rax
	jmp	.LBB0_180
.Ltmp456:
.LBB0_179:
	#DEBUG_VALUE: open_file:psz_filename <- [DW_OP_LLVM_entry_value 1] $rdi
	#DEBUG_VALUE: open_file:p_handle <- [DW_OP_LLVM_entry_value 1] $rsi
	#DEBUG_VALUE: open_file:info <- [DW_OP_plus_uconst 96] [$rsp+0]
	#DEBUG_VALUE: open_file:opt <- [DW_OP_LLVM_entry_value 1] $rcx
	#DEBUG_VALUE: open_file:h <- [DW_OP_plus_uconst 16, DW_OP_deref] $rsp
	#DEBUG_VALUE: open_file:tcfile_in <- $r14
