	.text
	.file	"cabac.c"
	.file	0 "/home/yjs/workspace/x264-test/src" "x264_src/encoder/cabac.c" md5 0x2860fe716c1784c4555c09d3147821f9
	.file	1 "/usr/include/x86_64-linux-gnu/bits" "types.h" md5 0xd108b5f93a74c50510d7d9bc0ab36df9
	.file	2 "/usr/include/x86_64-linux-gnu/bits" "stdint-uintn.h" md5 0x2bf2ae53c58c01b1a1b9383b5195125c
	.file	3 "x264_src/common" "predict.h" md5 0x5f9c3dfea82ca04aa9f99900c2f3609a
	.file	4 "/usr/include/x86_64-linux-gnu/bits" "stdint-intn.h" md5 0x55bcbdc3159515ebd91d351a70d505f4
	.file	5 "x264_src/common" "common.h" md5 0x5afac7bf2f5673f1628c455d7d320ad7
	.file	6 "x264_src/common" "macroblock.h" md5 0x15f4a9c1d53f4196a5f2b80807bb8b1a
	.globl	x264_cabac_mb_skip              # -- Begin function x264_cabac_mb_skip
	.p2align	4, 0x90
	.type	x264_cabac_mb_skip,@function
x264_cabac_mb_skip:                     # @x264_cabac_mb_skip
.Lfunc_begin0:
	.loc	0 283 0                         # x264_src/encoder/cabac.c:283:0
	.cfi_startproc
# %bb.0:                                # %entry
	#DEBUG_VALUE: x264_cabac_mb_skip:h <- $rdi
	#DEBUG_VALUE: x264_cabac_mb_skip:b_skip <- $esi
	movl	%esi, %edx
.Ltmp0:
	.loc	0 284 23 prologue_end           # x264_src/encoder/cabac.c:284:23
	movl	16488(%rdi), %esi
.Ltmp1:
	#DEBUG_VALUE: x264_cabac_mb_skip:b_skip <- $edx
	.loc	0 0 23 is_stmt 0                # x264_src/encoder/cabac.c:0:23
	xorl	%eax, %eax
	movl	$0, %ecx
	.loc	0 284 35                        # x264_src/encoder/cabac.c:284:35
	testb	$1, %sil
	.loc	0 284 46                        # x264_src/encoder/cabac.c:284:46
	je	.LBB0_2
.Ltmp2:
# %bb.1:                                # %land.rhs
	#DEBUG_VALUE: x264_cabac_mb_skip:h <- $rdi
	#DEBUG_VALUE: x264_cabac_mb_skip:b_skip <- $edx
	.loc	0 284 50                        # x264_src/encoder/cabac.c:284:50
	movl	16584(%rdi), %ecx
	cmpl	$6, %ecx
	setne	%r8b
	cmpl	$18, %ecx
	setne	%cl
	andb	%r8b, %cl
	movzbl	%cl, %ecx
.Ltmp3:
.LBB0_2:                                # %land.end
	#DEBUG_VALUE: x264_cabac_mb_skip:h <- $rdi
	#DEBUG_VALUE: x264_cabac_mb_skip:b_skip <- $edx
	.loc	0 285 35 is_stmt 1              # x264_src/encoder/cabac.c:285:35
	testb	$2, %sil
	.loc	0 285 45 is_stmt 0              # x264_src/encoder/cabac.c:285:45
	je	.LBB0_4
.Ltmp4:
# %bb.3:                                # %land.rhs9
	#DEBUG_VALUE: x264_cabac_mb_skip:h <- $rdi
	#DEBUG_VALUE: x264_cabac_mb_skip:b_skip <- $edx
	.loc	0 285 49                        # x264_src/encoder/cabac.c:285:49
	movl	16580(%rdi), %eax
	cmpl	$6, %eax
	setne	%sil
	cmpl	$18, %eax
	setne	%al
	andb	%sil, %al
	movzbl	%al, %eax
.Ltmp5:
.LBB0_4:                                # %land.end18
	#DEBUG_VALUE: x264_cabac_mb_skip:h <- $rdi
	#DEBUG_VALUE: x264_cabac_mb_skip:b_skip <- $edx
	.loc	0 286 29 is_stmt 1              # x264_src/encoder/cabac.c:286:29
	cmpl	$0, 7248(%rdi)
	.loc	0 286 13 is_stmt 0              # x264_src/encoder/cabac.c:286:13
	leal	11(%rax,%rcx), %r8d
	leal	24(%rax,%rcx), %esi
	cmovel	%r8d, %esi
.Ltmp6:
	#DEBUG_VALUE: x264_cabac_mb_skip:ctx <- $esi
	.loc	0 287 37 is_stmt 1              # x264_src/encoder/cabac.c:287:37
	addq	$13904, %rdi                    # imm = 0x3650
.Ltmp7:
	#DEBUG_VALUE: x264_cabac_mb_skip:h <- [DW_OP_LLVM_entry_value 1] $rdi
	.loc	0 287 5 is_stmt 0               # x264_src/encoder/cabac.c:287:5
	jmp	x264_cabac_encode_decision_c@PLT # TAILCALL
.Ltmp8:
.Lfunc_end0:
	.size	x264_cabac_mb_skip, .Lfunc_end0-x264_cabac_mb_skip
	.cfi_endproc
	.file	7 "x264_src/common" "cabac.h" md5 0x22d062fb0f207ca9dcf17e0003a54ffb
                                        # -- End function
	.globl	x264_macroblock_write_cabac     # -- Begin function x264_macroblock_write_cabac
	.p2align	4, 0x90
	.type	x264_macroblock_write_cabac,@function
x264_macroblock_write_cabac:            # @x264_macroblock_write_cabac
.Lfunc_begin1:
	.loc	0 756 0 is_stmt 1               # x264_src/encoder/cabac.c:756:0
	.cfi_startproc
# %bb.0:                                # %entry
	#DEBUG_VALUE: x264_macroblock_write_cabac:h <- $rdi
	#DEBUG_VALUE: x264_macroblock_write_cabac:cb <- $rsi
	pushq	%rbp
	.cfi_def_cfa_offset 16
	pushq	%r15
	.cfi_def_cfa_offset 24
	pushq	%r14
	.cfi_def_cfa_offset 32
	pushq	%r13
	.cfi_def_cfa_offset 40
	pushq	%r12
	.cfi_def_cfa_offset 48
	pushq	%rbx
	.cfi_def_cfa_offset 56
	subq	$56, %rsp
	.cfi_def_cfa_offset 112
	.cfi_offset %rbx, -56
	.cfi_offset %r12, -48
	.cfi_offset %r13, -40
	.cfi_offset %r14, -32
	.cfi_offset %r15, -24
	.cfi_offset %rbp, -16
	movq	%rsi, %r13
	movq	%rdi, %rbx
.Ltmp9:
	#DEBUG_VALUE: x264_cabac_pos:cb <- $r13
	.loc	7 78 25 prologue_end            # x264_src/common/cabac.h:78:25
	movl	16(%rsi), %r14d
	.loc	7 78 19 is_stmt 0               # x264_src/common/cabac.h:78:19
	subl	24(%rsi), %r14d
.Ltmp10:
	.loc	0 757 33 is_stmt 1              # x264_src/encoder/cabac.c:757:33
	movslq	17384(%rdi), %r15
.Ltmp11:
	#DEBUG_VALUE: x264_macroblock_write_cabac:i_mb_type <- undef
	.loc	7 78 12                         # x264_src/common/cabac.h:78:12
	subl	12(%rsi), %r14d
	shll	$3, %r14d
	subl	8(%rsi), %r14d
.Ltmp12:
	#DEBUG_VALUE: x264_macroblock_write_cabac:i_mb_pos_start <- undef
	#DEBUG_VALUE: x264_cabac_mb_type:h <- $rbx
	#DEBUG_VALUE: x264_cabac_mb_type:cb <- $r13
	#DEBUG_VALUE: x264_cabac_mb_type:i_mb_type <- undef
	.loc	0 74 9                          # x264_src/encoder/cabac.c:74:9
	cmpl	$0, 7268(%rdi)
	.loc	0 74 23 is_stmt 0               # x264_src/encoder/cabac.c:74:23
	je	.LBB1_5
.Ltmp13:
# %bb.1:                                # %land.lhs.true.i
	#DEBUG_VALUE: x264_macroblock_write_cabac:h <- $rbx
	#DEBUG_VALUE: x264_macroblock_write_cabac:cb <- $r13
	#DEBUG_VALUE: x264_cabac_mb_type:h <- $rbx
	#DEBUG_VALUE: x264_cabac_mb_type:cb <- $r13
	.loc	0 75 25 is_stmt 1               # x264_src/encoder/cabac.c:75:25
	testb	$1, 16388(%rbx)
	.loc	0 75 30 is_stmt 0               # x264_src/encoder/cabac.c:75:30
	je	.LBB1_4
.Ltmp14:
# %bb.2:                                # %lor.lhs.false.i
	#DEBUG_VALUE: x264_macroblock_write_cabac:h <- $rbx
	#DEBUG_VALUE: x264_macroblock_write_cabac:cb <- $r13
	#DEBUG_VALUE: x264_cabac_mb_type:h <- $rbx
	#DEBUG_VALUE: x264_cabac_mb_type:cb <- $r13
	.loc	0 75 33                         # x264_src/encoder/cabac.c:75:33
	movq	16616(%rbx), %rax
	movslq	16392(%rbx), %rcx
	movslq	16372(%rbx), %rdx
	subq	%rdx, %rcx
	movzbl	(%rax,%rcx), %eax
	cmpl	$18, %eax
	je	.LBB1_4
.Ltmp15:
# %bb.3:                                # %lor.lhs.false.i
	#DEBUG_VALUE: x264_macroblock_write_cabac:h <- $rbx
	#DEBUG_VALUE: x264_macroblock_write_cabac:cb <- $r13
	#DEBUG_VALUE: x264_cabac_mb_type:h <- $rbx
	#DEBUG_VALUE: x264_cabac_mb_type:cb <- $r13
	cmpl	$6, %eax
	jne	.LBB1_5
.Ltmp16:
.LBB1_4:                                # %if.then.i
	#DEBUG_VALUE: x264_macroblock_write_cabac:h <- $rbx
	#DEBUG_VALUE: x264_macroblock_write_cabac:cb <- $r13
	#DEBUG_VALUE: x264_cabac_mb_type:h <- $rbx
	#DEBUG_VALUE: x264_cabac_mb_type:cb <- $r13
	.loc	0 77 63 is_stmt 1               # x264_src/encoder/cabac.c:77:63
	movl	25772(%rbx), %esi
	.loc	0 77 49 is_stmt 0               # x264_src/encoder/cabac.c:77:49
	addl	$70, %esi
	.loc	0 77 93                         # x264_src/encoder/cabac.c:77:93
	movl	16436(%rbx), %edx
	.loc	0 77 9                          # x264_src/encoder/cabac.c:77:9
	movq	%r13, %rdi
	callq	x264_cabac_encode_decision_c@PLT
.Ltmp17:
.LBB1_5:                                # %if.end.i
	#DEBUG_VALUE: x264_macroblock_write_cabac:h <- $rbx
	#DEBUG_VALUE: x264_macroblock_write_cabac:cb <- $r13
	#DEBUG_VALUE: x264_cabac_mb_type:h <- $rbx
	#DEBUG_VALUE: x264_cabac_mb_type:cb <- $r13
	.loc	0 80 15 is_stmt 1               # x264_src/encoder/cabac.c:80:15
	movl	7248(%rbx), %eax
.Ltmp18:
	.loc	0 80 9 is_stmt 0                # x264_src/encoder/cabac.c:80:9
	testl	%eax, %eax
	movq	%r13, 8(%rsp)                   # 8-byte Spill
.Ltmp19:
	#DEBUG_VALUE: x264_cabac_mb_type:cb <- [DW_OP_plus_uconst 8, DW_OP_deref] $rsp
	#DEBUG_VALUE: x264_macroblock_write_cabac:cb <- [DW_OP_plus_uconst 8] [$rsp+0]
	je	.LBB1_12
.Ltmp20:
# %bb.6:                                # %if.end.i
	#DEBUG_VALUE: x264_macroblock_write_cabac:h <- $rbx
	#DEBUG_VALUE: x264_macroblock_write_cabac:cb <- [DW_OP_plus_uconst 8] [$rsp+0]
	#DEBUG_VALUE: x264_cabac_mb_type:h <- $rbx
	#DEBUG_VALUE: x264_cabac_mb_type:cb <- [DW_OP_plus_uconst 8, DW_OP_deref] $rsp
	cmpl	$2, %eax
	jne	.LBB1_15
.Ltmp21:
# %bb.7:                                # %if.then26.i
	#DEBUG_VALUE: x264_macroblock_write_cabac:h <- $rbx
	#DEBUG_VALUE: x264_macroblock_write_cabac:cb <- [DW_OP_plus_uconst 8] [$rsp+0]
	#DEBUG_VALUE: x264_cabac_mb_type:h <- $rbx
	#DEBUG_VALUE: x264_cabac_mb_type:cb <- [DW_OP_plus_uconst 8, DW_OP_deref] $rsp
	#DEBUG_VALUE: ctx <- 0
	.loc	0 83 20 is_stmt 1               # x264_src/encoder/cabac.c:83:20
	movl	16488(%rbx), %eax
	xorl	%ecx, %ecx
	.loc	0 83 32 is_stmt 0               # x264_src/encoder/cabac.c:83:32
	testb	$1, %al
	.loc	0 83 43                         # x264_src/encoder/cabac.c:83:43
	je	.LBB1_9
.Ltmp22:
# %bb.8:                                # %land.lhs.true30.i
	#DEBUG_VALUE: x264_macroblock_write_cabac:h <- $rbx
	#DEBUG_VALUE: x264_macroblock_write_cabac:cb <- [DW_OP_plus_uconst 8] [$rsp+0]
	#DEBUG_VALUE: x264_cabac_mb_type:h <- $rbx
	#DEBUG_VALUE: x264_cabac_mb_type:cb <- [DW_OP_plus_uconst 8, DW_OP_deref] $rsp
	#DEBUG_VALUE: ctx <- 0
	.loc	0 83 67                         # x264_src/encoder/cabac.c:83:67
	xorl	%ecx, %ecx
	cmpl	$0, 16584(%rbx)
	setne	%cl
.Ltmp23:
.LBB1_9:                                # %if.end35.i
	#DEBUG_VALUE: x264_macroblock_write_cabac:h <- $rbx
	#DEBUG_VALUE: x264_macroblock_write_cabac:cb <- [DW_OP_plus_uconst 8] [$rsp+0]
	#DEBUG_VALUE: x264_cabac_mb_type:h <- $rbx
	#DEBUG_VALUE: x264_cabac_mb_type:cb <- [DW_OP_plus_uconst 8, DW_OP_deref] $rsp
	#DEBUG_VALUE: ctx <- 0
	#DEBUG_VALUE: ctx <- $ecx
	.loc	0 85 32 is_stmt 1               # x264_src/encoder/cabac.c:85:32
	testb	$2, %al
	.loc	0 85 42 is_stmt 0               # x264_src/encoder/cabac.c:85:42
	je	.LBB1_11
.Ltmp24:
# %bb.10:                               # %land.lhs.true40.i
	#DEBUG_VALUE: x264_macroblock_write_cabac:h <- $rbx
	#DEBUG_VALUE: x264_macroblock_write_cabac:cb <- [DW_OP_plus_uconst 8] [$rsp+0]
	#DEBUG_VALUE: x264_cabac_mb_type:h <- $rbx
	#DEBUG_VALUE: x264_cabac_mb_type:cb <- [DW_OP_plus_uconst 8, DW_OP_deref] $rsp
	#DEBUG_VALUE: ctx <- $ecx
	.loc	0 85 13                         # x264_src/encoder/cabac.c:85:13
	cmpl	$1, 16580(%rbx)
	sbbl	$-1, %ecx
.Ltmp25:
.LBB1_11:                               # %if.end46.i
	#DEBUG_VALUE: x264_macroblock_write_cabac:h <- $rbx
	#DEBUG_VALUE: x264_macroblock_write_cabac:cb <- [DW_OP_plus_uconst 8] [$rsp+0]
	#DEBUG_VALUE: x264_cabac_mb_type:h <- $rbx
	#DEBUG_VALUE: x264_cabac_mb_type:cb <- [DW_OP_plus_uconst 8, DW_OP_deref] $rsp
	#DEBUG_VALUE: ctx <- $ecx
	.loc	0 88 54 is_stmt 1               # x264_src/encoder/cabac.c:88:54
	addl	$3, %ecx
.Ltmp26:
	.loc	0 88 9 is_stmt 0                # x264_src/encoder/cabac.c:88:9
	subq	$8, %rsp
.Ltmp27:
	.cfi_adjust_cfa_offset 8
	movq	%rbx, %rdi
	movq	%r13, %rsi
	movl	%r15d, %edx
	movl	$6, %r8d
	movl	$7, %r9d
	pushq	$10
	.cfi_adjust_cfa_offset 8
	pushq	$9
	.cfi_adjust_cfa_offset 8
	pushq	$8
.Ltmp28:
	.cfi_adjust_cfa_offset 8
	.loc	0 0 0                           # x264_src/encoder/cabac.c:0:0
	callq	x264_cabac_mb_type_intra
.Ltmp29:
	addq	$32, %rsp
.Ltmp30:
	.cfi_adjust_cfa_offset -32
	.loc	0 769 19 is_stmt 1              # x264_src/encoder/cabac.c:769:19
	cmpl	$3, %r15d
.Ltmp31:
	.loc	0 769 9 is_stmt 0               # x264_src/encoder/cabac.c:769:9
	jne	.LBB1_30
.Ltmp32:
.LBB1_27:                               # %if.then
	#DEBUG_VALUE: x264_macroblock_write_cabac:h <- $rbx
	#DEBUG_VALUE: x264_macroblock_write_cabac:cb <- [DW_OP_plus_uconst 8] [$rsp+0]
	#DEBUG_VALUE: x264_cabac_pos:cb <- [DW_OP_plus_uconst 8, DW_OP_deref] $rsp
	.loc	7 78 17 is_stmt 1               # x264_src/common/cabac.h:78:17
	movl	24(%r13), %r12d
	.loc	7 78 19 is_stmt 0               # x264_src/common/cabac.h:78:19
	subl	16(%r13), %r12d
	.loc	7 78 12                         # x264_src/common/cabac.h:78:12
	addl	12(%r13), %r12d
	shll	$3, %r12d
	addl	8(%r13), %r12d
.Ltmp33:
	#DEBUG_VALUE: x264_macroblock_write_cabac:i_mb_pos_tex <- $r12d
	.loc	0 772 49 is_stmt 1              # x264_src/encoder/cabac.c:772:49
	addl	26712(%rbx), %r14d
	.loc	0 772 33 is_stmt 0              # x264_src/encoder/cabac.c:772:33
	addl	%r12d, %r14d
	movl	%r14d, 26712(%rbx)
	.loc	0 774 21 is_stmt 1              # x264_src/encoder/cabac.c:774:21
	movq	24(%r13), %rdi
	.loc	0 774 24 is_stmt 0              # x264_src/encoder/cabac.c:774:24
	movq	21344(%rbx), %rsi
	.loc	0 774 9                         # x264_src/encoder/cabac.c:774:9
	movl	$256, %edx                      # imm = 0x100
	callq	memcpy@PLT
.Ltmp34:
	.loc	0 775 15 is_stmt 1              # x264_src/encoder/cabac.c:775:15
	movq	24(%r13), %rax
	leaq	256(%rax), %rcx
	movq	%rcx, 24(%r13)
.Ltmp35:
	#DEBUG_VALUE: i <- 0
	#DEBUG_VALUE: i <- 0
	.loc	0 777 34                        # x264_src/encoder/cabac.c:777:34
	movq	21352(%rbx), %rcx
	.loc	0 777 13 is_stmt 0              # x264_src/encoder/cabac.c:777:13
	movq	(%rcx), %rcx
	movq	%rcx, 256(%rax)
.Ltmp36:
	#DEBUG_VALUE: i <- 1
	.loc	0 777 25                        # x264_src/encoder/cabac.c:777:25
	movq	24(%r13), %rax
	.loc	0 777 34                        # x264_src/encoder/cabac.c:777:34
	movq	21352(%rbx), %rcx
	.loc	0 777 13                        # x264_src/encoder/cabac.c:777:13
	movq	16(%rcx), %rcx
	movq	%rcx, 8(%rax)
.Ltmp37:
	#DEBUG_VALUE: i <- 2
	.loc	0 777 25                        # x264_src/encoder/cabac.c:777:25
	movq	24(%r13), %rax
	.loc	0 777 34                        # x264_src/encoder/cabac.c:777:34
	movq	21352(%rbx), %rcx
	.loc	0 777 13                        # x264_src/encoder/cabac.c:777:13
	movq	32(%rcx), %rcx
	movq	%rcx, 16(%rax)
.Ltmp38:
	#DEBUG_VALUE: i <- 3
	.loc	0 777 25                        # x264_src/encoder/cabac.c:777:25
	movq	24(%r13), %rax
	.loc	0 777 34                        # x264_src/encoder/cabac.c:777:34
	movq	21352(%rbx), %rcx
	.loc	0 777 13                        # x264_src/encoder/cabac.c:777:13
	movq	48(%rcx), %rcx
	movq	%rcx, 24(%rax)
.Ltmp39:
	#DEBUG_VALUE: i <- 4
	.loc	0 777 25                        # x264_src/encoder/cabac.c:777:25
	movq	24(%r13), %rax
	.loc	0 777 34                        # x264_src/encoder/cabac.c:777:34
	movq	21352(%rbx), %rcx
	.loc	0 777 13                        # x264_src/encoder/cabac.c:777:13
	movq	64(%rcx), %rcx
	movq	%rcx, 32(%rax)
.Ltmp40:
	#DEBUG_VALUE: i <- 5
	.loc	0 777 25                        # x264_src/encoder/cabac.c:777:25
	movq	24(%r13), %rax
	.loc	0 777 34                        # x264_src/encoder/cabac.c:777:34
	movq	21352(%rbx), %rcx
	.loc	0 777 13                        # x264_src/encoder/cabac.c:777:13
	movq	80(%rcx), %rcx
	movq	%rcx, 40(%rax)
.Ltmp41:
	#DEBUG_VALUE: i <- 6
	.loc	0 777 25                        # x264_src/encoder/cabac.c:777:25
	movq	24(%r13), %rax
	.loc	0 777 34                        # x264_src/encoder/cabac.c:777:34
	movq	21352(%rbx), %rcx
	.loc	0 777 13                        # x264_src/encoder/cabac.c:777:13
	movq	96(%rcx), %rcx
	movq	%rcx, 48(%rax)
.Ltmp42:
	#DEBUG_VALUE: i <- 7
	.loc	0 777 25                        # x264_src/encoder/cabac.c:777:25
	movq	24(%r13), %rax
	.loc	0 777 34                        # x264_src/encoder/cabac.c:777:34
	movq	21352(%rbx), %rcx
	.loc	0 777 13                        # x264_src/encoder/cabac.c:777:13
	movq	112(%rcx), %rcx
	movq	%rcx, 56(%rax)
.Ltmp43:
	#DEBUG_VALUE: i <- 8
	.loc	0 778 15 is_stmt 1              # x264_src/encoder/cabac.c:778:15
	movq	24(%r13), %rax
	leaq	64(%rax), %rcx
	movq	%rcx, 24(%r13)
.Ltmp44:
	#DEBUG_VALUE: i <- 0
	#DEBUG_VALUE: i <- 0
	.loc	0 780 34                        # x264_src/encoder/cabac.c:780:34
	movq	21360(%rbx), %rcx
	.loc	0 780 13 is_stmt 0              # x264_src/encoder/cabac.c:780:13
	movq	(%rcx), %rcx
	movq	%rcx, 64(%rax)
.Ltmp45:
	#DEBUG_VALUE: i <- 1
	.loc	0 780 25                        # x264_src/encoder/cabac.c:780:25
	movq	24(%r13), %rax
	.loc	0 780 34                        # x264_src/encoder/cabac.c:780:34
	movq	21360(%rbx), %rcx
	.loc	0 780 13                        # x264_src/encoder/cabac.c:780:13
	movq	16(%rcx), %rcx
	movq	%rcx, 8(%rax)
.Ltmp46:
	#DEBUG_VALUE: i <- 2
	.loc	0 780 25                        # x264_src/encoder/cabac.c:780:25
	movq	24(%r13), %rax
	.loc	0 780 34                        # x264_src/encoder/cabac.c:780:34
	movq	21360(%rbx), %rcx
	.loc	0 780 13                        # x264_src/encoder/cabac.c:780:13
	movq	32(%rcx), %rcx
	movq	%rcx, 16(%rax)
.Ltmp47:
	#DEBUG_VALUE: i <- 3
	.loc	0 780 25                        # x264_src/encoder/cabac.c:780:25
	movq	24(%r13), %rax
	.loc	0 780 34                        # x264_src/encoder/cabac.c:780:34
	movq	21360(%rbx), %rcx
	.loc	0 780 13                        # x264_src/encoder/cabac.c:780:13
	movq	48(%rcx), %rcx
	movq	%rcx, 24(%rax)
.Ltmp48:
	#DEBUG_VALUE: i <- 4
	.loc	0 780 25                        # x264_src/encoder/cabac.c:780:25
	movq	24(%r13), %rax
	.loc	0 780 34                        # x264_src/encoder/cabac.c:780:34
	movq	21360(%rbx), %rcx
	.loc	0 780 13                        # x264_src/encoder/cabac.c:780:13
	movq	64(%rcx), %rcx
	movq	%rcx, 32(%rax)
.Ltmp49:
	#DEBUG_VALUE: i <- 5
	.loc	0 780 25                        # x264_src/encoder/cabac.c:780:25
	movq	24(%r13), %rax
	.loc	0 780 34                        # x264_src/encoder/cabac.c:780:34
	movq	21360(%rbx), %rcx
	.loc	0 780 13                        # x264_src/encoder/cabac.c:780:13
	movq	80(%rcx), %rcx
	movq	%rcx, 40(%rax)
.Ltmp50:
	#DEBUG_VALUE: i <- 6
	.loc	0 780 25                        # x264_src/encoder/cabac.c:780:25
	movq	24(%r13), %rax
	.loc	0 780 34                        # x264_src/encoder/cabac.c:780:34
	movq	21360(%rbx), %rcx
	.loc	0 780 13                        # x264_src/encoder/cabac.c:780:13
	movq	96(%rcx), %rcx
	movq	%rcx, 48(%rax)
.Ltmp51:
	#DEBUG_VALUE: i <- 7
	.loc	0 780 25                        # x264_src/encoder/cabac.c:780:25
	movq	24(%r13), %rax
	.loc	0 780 34                        # x264_src/encoder/cabac.c:780:34
	movq	21360(%rbx), %rcx
	.loc	0 780 13                        # x264_src/encoder/cabac.c:780:13
	movq	112(%rcx), %rcx
	movq	%rcx, 56(%rax)
.Ltmp52:
	#DEBUG_VALUE: i <- 8
	.loc	0 781 15 is_stmt 1              # x264_src/encoder/cabac.c:781:15
	addq	$64, 24(%r13)
	.loc	0 783 9                         # x264_src/encoder/cabac.c:783:9
	movq	%r13, %rdi
	callq	x264_cabac_encode_init_core@PLT
.Ltmp53:
	.loc	0 786 9                         # x264_src/encoder/cabac.c:786:9
	jmp	.LBB1_231
.Ltmp54:
.LBB1_12:                               # %if.then52.i
	#DEBUG_VALUE: x264_macroblock_write_cabac:h <- $rbx
	#DEBUG_VALUE: x264_macroblock_write_cabac:cb <- [DW_OP_plus_uconst 8] [$rsp+0]
	#DEBUG_VALUE: x264_cabac_mb_type:h <- $rbx
	#DEBUG_VALUE: x264_cabac_mb_type:cb <- [DW_OP_plus_uconst 8, DW_OP_deref] $rsp
	.loc	0 93 13                         # x264_src/encoder/cabac.c:93:13
	cmpl	$5, %r15d
	je	.LBB1_25
.Ltmp55:
# %bb.13:                               # %if.then52.i
	#DEBUG_VALUE: x264_macroblock_write_cabac:h <- $rbx
	#DEBUG_VALUE: x264_macroblock_write_cabac:cb <- [DW_OP_plus_uconst 8] [$rsp+0]
	#DEBUG_VALUE: x264_cabac_mb_type:h <- $rbx
	#DEBUG_VALUE: x264_cabac_mb_type:cb <- [DW_OP_plus_uconst 8, DW_OP_deref] $rsp
	cmpl	$4, %r15d
	jne	.LBB1_26
.Ltmp56:
# %bb.14:                               # %if.else.thread
	#DEBUG_VALUE: x264_macroblock_write_cabac:h <- $rbx
	#DEBUG_VALUE: x264_macroblock_write_cabac:cb <- [DW_OP_plus_uconst 8] [$rsp+0]
	#DEBUG_VALUE: x264_cabac_mb_type:h <- $rbx
	#DEBUG_VALUE: x264_cabac_mb_type:cb <- [DW_OP_plus_uconst 8, DW_OP_deref] $rsp
	.loc	0 0 13 is_stmt 0                # x264_src/encoder/cabac.c:0:13
	movl	$0, 20(%rsp)                    # 4-byte Folded Spill
.Ltmp57:
	.loc	0 95 13 is_stmt 1               # x264_src/encoder/cabac.c:95:13
	movq	%r13, %rdi
	movl	$14, %esi
	xorl	%edx, %edx
	callq	x264_cabac_encode_decision_c@PLT
.Ltmp58:
	.loc	0 96 72                         # x264_src/encoder/cabac.c:96:72
	xorl	%edx, %edx
	cmpl	$16, 17388(%rbx)
	setne	%dl
	.loc	0 96 13 is_stmt 0               # x264_src/encoder/cabac.c:96:13
	movq	%r13, %rdi
	movl	$15, %esi
	callq	x264_cabac_encode_decision_c@PLT
.Ltmp59:
	.loc	0 97 60 is_stmt 1               # x264_src/encoder/cabac.c:97:60
	movl	17388(%rbx), %eax
	.loc	0 97 72 is_stmt 0               # x264_src/encoder/cabac.c:97:72
	xorl	%esi, %esi
	cmpl	$16, %eax
	sete	%sil
	.loc	0 97 52                         # x264_src/encoder/cabac.c:97:52
	xorl	$17, %esi
	.loc	0 97 103                        # x264_src/encoder/cabac.c:97:103
	xorl	%edx, %edx
	cmpl	$14, %eax
	sete	%dl
	.loc	0 97 13                         # x264_src/encoder/cabac.c:97:13
	movq	%r13, %rdi
	callq	x264_cabac_encode_decision_c@PLT
.Ltmp60:
	.loc	0 0 13                          # x264_src/encoder/cabac.c:0:13
	jmp	.LBB1_53
.Ltmp61:
.LBB1_15:                               # %if.else75.i
	#DEBUG_VALUE: x264_macroblock_write_cabac:h <- $rbx
	#DEBUG_VALUE: x264_macroblock_write_cabac:cb <- [DW_OP_plus_uconst 8] [$rsp+0]
	#DEBUG_VALUE: x264_cabac_mb_type:h <- $rbx
	#DEBUG_VALUE: x264_cabac_mb_type:cb <- [DW_OP_plus_uconst 8, DW_OP_deref] $rsp
	#DEBUG_VALUE: ctx <- 0
	.loc	0 117 20 is_stmt 1              # x264_src/encoder/cabac.c:117:20
	movl	16488(%rbx), %eax
	xorl	%esi, %esi
	.loc	0 117 32 is_stmt 0              # x264_src/encoder/cabac.c:117:32
	testb	$1, %al
	.loc	0 117 43                        # x264_src/encoder/cabac.c:117:43
	je	.LBB1_17
.Ltmp62:
# %bb.16:                               # %land.lhs.true81.i
	#DEBUG_VALUE: x264_macroblock_write_cabac:h <- $rbx
	#DEBUG_VALUE: x264_macroblock_write_cabac:cb <- [DW_OP_plus_uconst 8] [$rsp+0]
	#DEBUG_VALUE: x264_cabac_mb_type:h <- $rbx
	#DEBUG_VALUE: x264_cabac_mb_type:cb <- [DW_OP_plus_uconst 8, DW_OP_deref] $rsp
	#DEBUG_VALUE: ctx <- 0
	.loc	0 117 52                        # x264_src/encoder/cabac.c:117:52
	movl	16584(%rbx), %ecx
	.loc	0 117 77                        # x264_src/encoder/cabac.c:117:77
	cmpl	$18, %ecx
	setne	%dl
	cmpl	$7, %ecx
	setne	%cl
	andb	%dl, %cl
	movzbl	%cl, %esi
.Ltmp63:
.LBB1_17:                               # %if.end93.i
	#DEBUG_VALUE: x264_macroblock_write_cabac:h <- $rbx
	#DEBUG_VALUE: x264_macroblock_write_cabac:cb <- [DW_OP_plus_uconst 8] [$rsp+0]
	#DEBUG_VALUE: x264_cabac_mb_type:h <- $rbx
	#DEBUG_VALUE: x264_cabac_mb_type:cb <- [DW_OP_plus_uconst 8, DW_OP_deref] $rsp
	#DEBUG_VALUE: ctx <- 0
	#DEBUG_VALUE: ctx <- $esi
	.loc	0 119 32 is_stmt 1              # x264_src/encoder/cabac.c:119:32
	testb	$2, %al
	.loc	0 119 42 is_stmt 0              # x264_src/encoder/cabac.c:119:42
	je	.LBB1_21
.Ltmp64:
# %bb.18:                               # %land.lhs.true98.i
	#DEBUG_VALUE: x264_macroblock_write_cabac:h <- $rbx
	#DEBUG_VALUE: x264_macroblock_write_cabac:cb <- [DW_OP_plus_uconst 8] [$rsp+0]
	#DEBUG_VALUE: x264_cabac_mb_type:h <- $rbx
	#DEBUG_VALUE: x264_cabac_mb_type:cb <- [DW_OP_plus_uconst 8, DW_OP_deref] $rsp
	#DEBUG_VALUE: ctx <- $esi
	.loc	0 119 51                        # x264_src/encoder/cabac.c:119:51
	movl	16580(%rbx), %eax
	.loc	0 119 75                        # x264_src/encoder/cabac.c:119:75
	cmpl	$7, %eax
	je	.LBB1_21
.Ltmp65:
# %bb.19:                               # %land.lhs.true98.i
	#DEBUG_VALUE: x264_macroblock_write_cabac:h <- $rbx
	#DEBUG_VALUE: x264_macroblock_write_cabac:cb <- [DW_OP_plus_uconst 8] [$rsp+0]
	#DEBUG_VALUE: x264_cabac_mb_type:h <- $rbx
	#DEBUG_VALUE: x264_cabac_mb_type:cb <- [DW_OP_plus_uconst 8, DW_OP_deref] $rsp
	#DEBUG_VALUE: ctx <- $esi
	cmpl	$18, %eax
	je	.LBB1_21
.Ltmp66:
# %bb.20:                               # %if.then108.i
	#DEBUG_VALUE: x264_macroblock_write_cabac:h <- $rbx
	#DEBUG_VALUE: x264_macroblock_write_cabac:cb <- [DW_OP_plus_uconst 8] [$rsp+0]
	#DEBUG_VALUE: x264_cabac_mb_type:h <- $rbx
	#DEBUG_VALUE: x264_cabac_mb_type:cb <- [DW_OP_plus_uconst 8, DW_OP_deref] $rsp
	#DEBUG_VALUE: ctx <- $esi
	.loc	0 120 16 is_stmt 1              # x264_src/encoder/cabac.c:120:16
	incl	%esi
.Ltmp67:
	#DEBUG_VALUE: ctx <- $esi
.LBB1_21:                               # %if.end110.i
	#DEBUG_VALUE: x264_macroblock_write_cabac:h <- $rbx
	#DEBUG_VALUE: x264_macroblock_write_cabac:cb <- [DW_OP_plus_uconst 8] [$rsp+0]
	#DEBUG_VALUE: x264_cabac_mb_type:h <- $rbx
	#DEBUG_VALUE: x264_cabac_mb_type:cb <- [DW_OP_plus_uconst 8, DW_OP_deref] $rsp
	#DEBUG_VALUE: ctx <- $esi
	.loc	0 0 0 is_stmt 0                 # x264_src/encoder/cabac.c:0:0
	addl	$27, %esi
.Ltmp68:
	#DEBUG_VALUE: ctx <- undef
	.loc	0 122 23 is_stmt 1              # x264_src/encoder/cabac.c:122:23
	cmpl	$7, %r15d
.Ltmp69:
	.loc	0 122 13 is_stmt 0              # x264_src/encoder/cabac.c:122:13
	jne	.LBB1_23
.Ltmp70:
# %bb.22:                               # %if.else.thread1855
	#DEBUG_VALUE: x264_macroblock_write_cabac:h <- $rbx
	#DEBUG_VALUE: x264_macroblock_write_cabac:cb <- [DW_OP_plus_uconst 8] [$rsp+0]
	#DEBUG_VALUE: x264_cabac_mb_type:h <- $rbx
	#DEBUG_VALUE: x264_cabac_mb_type:cb <- [DW_OP_plus_uconst 8, DW_OP_deref] $rsp
	.loc	0 0 13                          # x264_src/encoder/cabac.c:0:13
	movl	$0, 24(%rsp)                    # 4-byte Folded Spill
.Ltmp71:
	.loc	0 124 13 is_stmt 1              # x264_src/encoder/cabac.c:124:13
	movq	%r13, %rdi
	xorl	%edx, %edx
	callq	x264_cabac_encode_decision_c@PLT
.Ltmp72:
	.loc	0 0 13 is_stmt 0                # x264_src/encoder/cabac.c:0:13
	movl	$0, 20(%rsp)                    # 4-byte Folded Spill
.Ltmp73:
	.loc	0 808 14 is_stmt 1              # x264_src/encoder/cabac.c:808:14
	jmp	.LBB1_155
.Ltmp74:
.LBB1_23:                               # %if.end115.i
	#DEBUG_VALUE: x264_macroblock_write_cabac:h <- $rbx
	#DEBUG_VALUE: x264_macroblock_write_cabac:cb <- [DW_OP_plus_uconst 8] [$rsp+0]
	#DEBUG_VALUE: x264_cabac_mb_type:h <- $rbx
	#DEBUG_VALUE: x264_cabac_mb_type:cb <- [DW_OP_plus_uconst 8, DW_OP_deref] $rsp
	.loc	0 127 9                         # x264_src/encoder/cabac.c:127:9
	movq	%r13, %rdi
	movl	$1, %edx
	callq	x264_cabac_encode_decision_c@PLT
.Ltmp75:
	.loc	0 129 23                        # x264_src/encoder/cabac.c:129:23
	cmpl	$17, %r15d
.Ltmp76:
	.loc	0 129 13 is_stmt 0              # x264_src/encoder/cabac.c:129:13
	jne	.LBB1_28
.Ltmp77:
# %bb.24:                               # %if.else.thread1852
	#DEBUG_VALUE: x264_macroblock_write_cabac:h <- $rbx
	#DEBUG_VALUE: x264_macroblock_write_cabac:cb <- [DW_OP_plus_uconst 8] [$rsp+0]
	#DEBUG_VALUE: x264_cabac_mb_type:h <- $rbx
	#DEBUG_VALUE: x264_cabac_mb_type:cb <- [DW_OP_plus_uconst 8, DW_OP_deref] $rsp
	.loc	0 131 13 is_stmt 1              # x264_src/encoder/cabac.c:131:13
	movq	%r13, %rdi
	movl	$30, %esi
	movl	$1, %edx
	callq	x264_cabac_encode_decision_c@PLT
.Ltmp78:
	.loc	0 132 13                        # x264_src/encoder/cabac.c:132:13
	movq	%r13, %rdi
	movl	$31, %esi
	movl	$1, %edx
	callq	x264_cabac_encode_decision_c@PLT
.Ltmp79:
	.loc	0 133 13                        # x264_src/encoder/cabac.c:133:13
	movq	%r13, %rdi
	movl	$32, %esi
	movl	$1, %edx
	callq	x264_cabac_encode_decision_c@PLT
.Ltmp80:
	.loc	0 134 13                        # x264_src/encoder/cabac.c:134:13
	movq	%r13, %rdi
	movl	$32, %esi
	movl	$1, %edx
	callq	x264_cabac_encode_decision_c@PLT
.Ltmp81:
	.loc	0 135 13                        # x264_src/encoder/cabac.c:135:13
	movq	%r13, %rdi
	movl	$32, %esi
	movl	$1, %edx
	callq	x264_cabac_encode_decision_c@PLT
.Ltmp82:
	.loc	0 0 13 is_stmt 0                # x264_src/encoder/cabac.c:0:13
	movl	$0, 20(%rsp)                    # 4-byte Folded Spill
	jmp	.LBB1_60
.Ltmp83:
.LBB1_25:                               # %if.else.thread1849
	#DEBUG_VALUE: x264_macroblock_write_cabac:h <- $rbx
	#DEBUG_VALUE: x264_macroblock_write_cabac:cb <- [DW_OP_plus_uconst 8] [$rsp+0]
	#DEBUG_VALUE: x264_cabac_mb_type:h <- $rbx
	#DEBUG_VALUE: x264_cabac_mb_type:cb <- [DW_OP_plus_uconst 8, DW_OP_deref] $rsp
	movl	$0, 20(%rsp)                    # 4-byte Folded Spill
.Ltmp84:
	.loc	0 101 13 is_stmt 1              # x264_src/encoder/cabac.c:101:13
	movq	%r13, %rdi
	movl	$14, %esi
	xorl	%edx, %edx
	callq	x264_cabac_encode_decision_c@PLT
.Ltmp85:
	.loc	0 102 13                        # x264_src/encoder/cabac.c:102:13
	movq	%r13, %rdi
	movl	$15, %esi
	xorl	%edx, %edx
	callq	x264_cabac_encode_decision_c@PLT
.Ltmp86:
	.loc	0 103 13                        # x264_src/encoder/cabac.c:103:13
	movq	%r13, %rdi
	movl	$16, %esi
	movl	$1, %edx
	callq	x264_cabac_encode_decision_c@PLT
.Ltmp87:
	.loc	0 0 13 is_stmt 0                # x264_src/encoder/cabac.c:0:13
	jmp	.LBB1_58
.Ltmp88:
.LBB1_26:                               # %if.else72.i
	#DEBUG_VALUE: x264_macroblock_write_cabac:h <- $rbx
	#DEBUG_VALUE: x264_macroblock_write_cabac:cb <- [DW_OP_plus_uconst 8] [$rsp+0]
	#DEBUG_VALUE: x264_cabac_mb_type:h <- $rbx
	#DEBUG_VALUE: x264_cabac_mb_type:cb <- [DW_OP_plus_uconst 8, DW_OP_deref] $rsp
	.loc	0 108 13 is_stmt 1              # x264_src/encoder/cabac.c:108:13
	movq	%r13, %rdi
	movl	$14, %esi
	movl	$1, %edx
	callq	x264_cabac_encode_decision_c@PLT
.Ltmp89:
	.loc	0 111 13                        # x264_src/encoder/cabac.c:111:13
	subq	$8, %rsp
.Ltmp90:
	.cfi_adjust_cfa_offset 8
	movq	%rbx, %rdi
	movq	%r13, %rsi
	movl	%r15d, %edx
	movl	$17, %ecx
	movl	$18, %r8d
	movl	$19, %r9d
	pushq	$20
	.cfi_adjust_cfa_offset 8
	pushq	$20
	.cfi_adjust_cfa_offset 8
	pushq	$19
.Ltmp91:
	.cfi_adjust_cfa_offset 8
	.loc	0 0 0 is_stmt 0                 # x264_src/encoder/cabac.c:0:0
	callq	x264_cabac_mb_type_intra
.Ltmp92:
	addq	$32, %rsp
.Ltmp93:
	.cfi_adjust_cfa_offset -32
	.loc	0 769 19 is_stmt 1              # x264_src/encoder/cabac.c:769:19
	cmpl	$3, %r15d
.Ltmp94:
	.loc	0 769 9 is_stmt 0               # x264_src/encoder/cabac.c:769:9
	je	.LBB1_27
.Ltmp95:
.LBB1_30:                               # %if.end
	#DEBUG_VALUE: x264_macroblock_write_cabac:h <- $rbx
	#DEBUG_VALUE: x264_macroblock_write_cabac:cb <- [DW_OP_plus_uconst 8] [$rsp+0]
	.loc	0 790 9 is_stmt 1               # x264_src/encoder/cabac.c:790:9
	cmpl	$2, %r15d
	sete	%al
	movl	%eax, 20(%rsp)                  # 4-byte Spill
	ja	.LBB1_51
.Ltmp96:
# %bb.31:                               # %if.then48
	#DEBUG_VALUE: x264_macroblock_write_cabac:h <- $rbx
	#DEBUG_VALUE: x264_macroblock_write_cabac:cb <- [DW_OP_plus_uconst 8] [$rsp+0]
	.loc	0 0 9 is_stmt 0                 # x264_src/encoder/cabac.c:0:9
	movl	%r14d, 36(%rsp)                 # 4-byte Spill
.Ltmp97:
	.loc	0 792 16 is_stmt 1              # x264_src/encoder/cabac.c:792:16
	movq	3328(%rbx), %rax
	.loc	0 792 13 is_stmt 0              # x264_src/encoder/cabac.c:792:13
	cmpl	$0, 60(%rax)
	setne	%al
	cmpl	$2, %r15d
	setne	%cl
	.loc	0 792 42                        # x264_src/encoder/cabac.c:792:42
	andb	%al, %cl
	cmpb	$1, %cl
	jne	.LBB1_33
.Ltmp98:
# %bb.32:                               # %if.end51.thread
	#DEBUG_VALUE: x264_macroblock_write_cabac:h <- $rbx
	#DEBUG_VALUE: x264_macroblock_write_cabac:cb <- [DW_OP_plus_uconst 8] [$rsp+0]
	.loc	0 793 13 is_stmt 1              # x264_src/encoder/cabac.c:793:13
	movl	17396(%rbx), %edx
	movl	$399, %esi                      # imm = 0x18F
.Ltmp99:
	#DEBUG_VALUE: x264_cabac_mb_transform_size:h <- undef
	#DEBUG_VALUE: x264_cabac_mb_transform_size:cb <- [DW_OP_plus_uconst 8, DW_OP_deref] $rsp
	.loc	0 330 19                        # x264_src/encoder/cabac.c:330:19
	addl	25768(%rbx), %esi
.Ltmp100:
	#DEBUG_VALUE: x264_cabac_mb_transform_size:ctx <- $esi
	.loc	0 331 5                         # x264_src/encoder/cabac.c:331:5
	movq	%r13, %rdi
	callq	x264_cabac_encode_decision_c@PLT
.Ltmp101:
	.loc	0 795 13                        # x264_src/encoder/cabac.c:795:13
	jmp	.LBB1_34
.Ltmp102:
.LBB1_28:                               # %if.else120.i
	#DEBUG_VALUE: x264_macroblock_write_cabac:h <- $rbx
	#DEBUG_VALUE: x264_macroblock_write_cabac:cb <- [DW_OP_plus_uconst 8] [$rsp+0]
	#DEBUG_VALUE: x264_cabac_mb_type:h <- $rbx
	#DEBUG_VALUE: x264_cabac_mb_type:cb <- [DW_OP_plus_uconst 8, DW_OP_deref] $rsp
	.loc	0 137 18                        # x264_src/encoder/cabac.c:137:18
	cmpl	$3, %r15d
	ja	.LBB1_47
.Ltmp103:
# %bb.29:                               # %if.then132.i
	#DEBUG_VALUE: x264_macroblock_write_cabac:h <- $rbx
	#DEBUG_VALUE: x264_macroblock_write_cabac:cb <- [DW_OP_plus_uconst 8] [$rsp+0]
	#DEBUG_VALUE: x264_cabac_mb_type:h <- $rbx
	#DEBUG_VALUE: x264_cabac_mb_type:cb <- [DW_OP_plus_uconst 8, DW_OP_deref] $rsp
	.loc	0 140 13                        # x264_src/encoder/cabac.c:140:13
	movq	%r13, %rdi
	movl	$30, %esi
	movl	$1, %edx
	callq	x264_cabac_encode_decision_c@PLT
.Ltmp104:
	.loc	0 141 13                        # x264_src/encoder/cabac.c:141:13
	movq	%r13, %rdi
	movl	$31, %esi
	movl	$1, %edx
	callq	x264_cabac_encode_decision_c@PLT
.Ltmp105:
	.loc	0 142 13                        # x264_src/encoder/cabac.c:142:13
	movq	%r13, %rdi
	movl	$32, %esi
	movl	$1, %edx
	callq	x264_cabac_encode_decision_c@PLT
.Ltmp106:
	.loc	0 143 13                        # x264_src/encoder/cabac.c:143:13
	movq	%r13, %rdi
	movl	$32, %esi
	xorl	%edx, %edx
	callq	x264_cabac_encode_decision_c@PLT
.Ltmp107:
	.loc	0 144 13                        # x264_src/encoder/cabac.c:144:13
	movq	%r13, %rdi
	movl	$32, %esi
	movl	$1, %edx
	callq	x264_cabac_encode_decision_c@PLT
.Ltmp108:
	.loc	0 147 13                        # x264_src/encoder/cabac.c:147:13
	subq	$8, %rsp
.Ltmp109:
	.cfi_adjust_cfa_offset 8
	movq	%rbx, %rdi
	movq	%r13, %rsi
	movl	%r15d, %edx
	movl	$32, %ecx
	movl	$33, %r8d
	movl	$34, %r9d
	pushq	$35
	.cfi_adjust_cfa_offset 8
	pushq	$35
	.cfi_adjust_cfa_offset 8
	pushq	$34
.Ltmp110:
	.cfi_adjust_cfa_offset 8
	.loc	0 0 0 is_stmt 0                 # x264_src/encoder/cabac.c:0:0
	callq	x264_cabac_mb_type_intra
.Ltmp111:
	addq	$32, %rsp
.Ltmp112:
	.cfi_adjust_cfa_offset -32
	.loc	0 769 19 is_stmt 1              # x264_src/encoder/cabac.c:769:19
	cmpl	$3, %r15d
.Ltmp113:
	.loc	0 769 9 is_stmt 0               # x264_src/encoder/cabac.c:769:9
	je	.LBB1_27
	jmp	.LBB1_30
.Ltmp114:
.LBB1_33:                               # %if.end51
	#DEBUG_VALUE: x264_macroblock_write_cabac:h <- $rbx
	#DEBUG_VALUE: x264_macroblock_write_cabac:cb <- [DW_OP_plus_uconst 8] [$rsp+0]
	.loc	0 0 9                           # x264_src/encoder/cabac.c:0:9
	cmpl	$2, %r15d
.Ltmp115:
	.loc	0 795 13 is_stmt 1              # x264_src/encoder/cabac.c:795:13
	je	.LBB1_40
.Ltmp116:
.LBB1_34:                               # %if.then53
	#DEBUG_VALUE: x264_macroblock_write_cabac:h <- $rbx
	#DEBUG_VALUE: x264_macroblock_write_cabac:cb <- [DW_OP_plus_uconst 8] [$rsp+0]
	.loc	0 797 22                        # x264_src/encoder/cabac.c:797:22
	xorl	%eax, %eax
	cmpl	$0, 17396(%rbx)
	setne	%al
	leaq	(%rax,%rax,2), %r14
	incq	%r14
	xorl	%r15d, %r15d
.Ltmp117:
	#DEBUG_VALUE: di <- undef
	#DEBUG_VALUE: i <- 0
	.loc	0 0 22 is_stmt 0                # x264_src/encoder/cabac.c:0:22
	jmp	.LBB1_36
.Ltmp118:
	.p2align	4, 0x90
.LBB1_35:                               # %if.else.i
                                        #   in Loop: Header=BB1_36 Depth=1
	#DEBUG_VALUE: x264_macroblock_write_cabac:h <- $rbx
	#DEBUG_VALUE: x264_macroblock_write_cabac:cb <- [DW_OP_plus_uconst 8] [$rsp+0]
	#DEBUG_VALUE: i <- $r15
	#DEBUG_VALUE: i_pred <- [DW_OP_LLVM_convert 8 5, DW_OP_LLVM_convert 32 5, DW_OP_stack_value] $bpl
	#DEBUG_VALUE: x264_cabac_mb_intra4x4_pred_mode:i_pred <- [DW_OP_LLVM_convert 8 5, DW_OP_LLVM_convert 32 5, DW_OP_stack_value] $bpl
	#DEBUG_VALUE: i_mode <- [DW_OP_LLVM_convert 8 5, DW_OP_LLVM_convert 32 5, DW_OP_stack_value] $r12b
	#DEBUG_VALUE: x264_cabac_mb_intra4x4_pred_mode:i_mode <- [DW_OP_LLVM_convert 8 5, DW_OP_LLVM_convert 32 5, DW_OP_stack_value] $r12b
	#DEBUG_VALUE: x264_cabac_mb_intra4x4_pred_mode:cb <- [DW_OP_plus_uconst 8, DW_OP_deref] $rsp
	#DEBUG_VALUE: i_mode <- $r12d
	#DEBUG_VALUE: x264_cabac_mb_intra4x4_pred_mode:i_mode <- $r12d
	#DEBUG_VALUE: i_pred <- [DW_OP_LLVM_convert 8 5, DW_OP_LLVM_convert 32 5, DW_OP_stack_value] $bpl
	#DEBUG_VALUE: x264_cabac_mb_intra4x4_pred_mode:i_pred <- [DW_OP_LLVM_convert 8 5, DW_OP_LLVM_convert 32 5, DW_OP_stack_value] $bpl
	.loc	0 187 9 is_stmt 1               # x264_src/encoder/cabac.c:187:9
	movq	%r13, %rdi
	movl	$68, %esi
	xorl	%edx, %edx
	callq	x264_cabac_encode_decision_c@PLT
.Ltmp119:
	.loc	0 188 20                        # x264_src/encoder/cabac.c:188:20
	xorl	%r13d, %r13d
	cmpb	%bpl, %r12b
	setg	%r13b
.Ltmp120:
	.loc	0 188 13 is_stmt 0              # x264_src/encoder/cabac.c:188:13
	movl	%r12d, %ebp
.Ltmp121:
	subl	%r13d, %ebp
.Ltmp122:
	#DEBUG_VALUE: x264_cabac_mb_intra4x4_pred_mode:i_mode <- $ebp
	.loc	0 190 58 is_stmt 1              # x264_src/encoder/cabac.c:190:58
	movl	%ebp, %edx
	andl	$1, %edx
	movq	8(%rsp), %rdi                   # 8-byte Reload
	.loc	0 190 9 is_stmt 0               # x264_src/encoder/cabac.c:190:9
	movl	$69, %esi
	callq	x264_cabac_encode_decision_c@PLT
.Ltmp123:
	.loc	0 191 53 is_stmt 1              # x264_src/encoder/cabac.c:191:53
	negb	%r13b
	movzbl	%r13b, %eax
	movq	8(%rsp), %r13                   # 8-byte Reload
	addl	%r12d, %eax
	shrb	%al
	movzbl	%al, %edx
	.loc	0 191 58 is_stmt 0              # x264_src/encoder/cabac.c:191:58
	andl	$1, %edx
	.loc	0 191 9                         # x264_src/encoder/cabac.c:191:9
	movq	%r13, %rdi
	movl	$69, %esi
	callq	x264_cabac_encode_decision_c@PLT
.Ltmp124:
	.loc	0 192 53 is_stmt 1              # x264_src/encoder/cabac.c:192:53
	sarl	$2, %ebp
.Ltmp125:
	.loc	0 192 9 is_stmt 0               # x264_src/encoder/cabac.c:192:9
	movq	%r13, %rdi
	movl	$69, %esi
	movl	%ebp, %edx
.Ltmp126:
	.loc	0 0 0                           # x264_src/encoder/cabac.c:0:0
	callq	x264_cabac_encode_decision_c@PLT
.Ltmp127:
	.loc	0 798 39 is_stmt 1              # x264_src/encoder/cabac.c:798:39
	addq	%r14, %r15
.Ltmp128:
	#DEBUG_VALUE: i <- $r15
	.loc	0 798 31 is_stmt 0              # x264_src/encoder/cabac.c:798:31
	cmpq	$16, %r15
.Ltmp129:
	.loc	0 798 13                        # x264_src/encoder/cabac.c:798:13
	jae	.LBB1_40
.Ltmp130:
.LBB1_36:                               # %for.body60
                                        # =>This Inner Loop Header: Depth=1
	#DEBUG_VALUE: x264_macroblock_write_cabac:h <- $rbx
	#DEBUG_VALUE: x264_macroblock_write_cabac:cb <- [DW_OP_plus_uconst 8] [$rsp+0]
	#DEBUG_VALUE: i <- $r15
	#DEBUG_VALUE: x264_mb_predict_intra4x4_mode:h <- $rbx
	#DEBUG_VALUE: x264_mb_predict_intra4x4_mode:idx <- $r15
	.loc	6 368 51 is_stmt 1              # x264_src/common/macroblock.h:368:51
	movslq	x264_scan8(,%r15,4), %rax
	.loc	6 368 20 is_stmt 0              # x264_src/common/macroblock.h:368:20
	movsbq	25023(%rbx,%rax), %rcx
.Ltmp131:
	#DEBUG_VALUE: x264_mb_predict_intra4x4_mode:ma <- undef
	.loc	6 369 20 is_stmt 1              # x264_src/common/macroblock.h:369:20
	movsbq	25016(%rbx,%rax), %rdx
	.loc	6 370 20                        # x264_src/common/macroblock.h:370:20
	movzbl	x264_mb_pred_mode4x4_fix+1(%rcx), %esi
.Ltmp132:
	#DEBUG_VALUE: x264_mb_predict_intra4x4_mode:mb <- undef
	movzbl	x264_mb_pred_mode4x4_fix+1(%rdx), %ecx
	cmpb	%cl, %sil
	cmovll	%esi, %ecx
.Ltmp133:
	#DEBUG_VALUE: x264_mb_predict_intra4x4_mode:m <- [DW_OP_LLVM_convert 8 5, DW_OP_LLVM_convert 32 5, DW_OP_stack_value] $cl
	.loc	6 0 20 is_stmt 0                # x264_src/common/macroblock.h:0:20
	movl	$2, %ebp
.Ltmp134:
	.loc	6 373 11 is_stmt 1              # x264_src/common/macroblock.h:373:11
	testb	%cl, %cl
.Ltmp135:
	.loc	6 373 9 is_stmt 0               # x264_src/common/macroblock.h:373:9
	js	.LBB1_38
.Ltmp136:
# %bb.37:                               # %for.body60
                                        #   in Loop: Header=BB1_36 Depth=1
	#DEBUG_VALUE: x264_macroblock_write_cabac:h <- $rbx
	#DEBUG_VALUE: x264_macroblock_write_cabac:cb <- [DW_OP_plus_uconst 8] [$rsp+0]
	#DEBUG_VALUE: i <- $r15
	#DEBUG_VALUE: x264_mb_predict_intra4x4_mode:h <- $rbx
	#DEBUG_VALUE: x264_mb_predict_intra4x4_mode:idx <- $r15
	#DEBUG_VALUE: x264_mb_predict_intra4x4_mode:m <- [DW_OP_LLVM_convert 8 5, DW_OP_LLVM_convert 32 5, DW_OP_stack_value] $cl
	.loc	6 0 9                           # x264_src/common/macroblock.h:0:9
	movl	%ecx, %ebp
.Ltmp137:
.LBB1_38:                               # %for.body60
                                        #   in Loop: Header=BB1_36 Depth=1
	#DEBUG_VALUE: x264_macroblock_write_cabac:h <- $rbx
	#DEBUG_VALUE: x264_macroblock_write_cabac:cb <- [DW_OP_plus_uconst 8] [$rsp+0]
	#DEBUG_VALUE: i <- $r15
	#DEBUG_VALUE: i_pred <- [DW_OP_LLVM_convert 8 5, DW_OP_LLVM_convert 32 5, DW_OP_stack_value] $bpl
	#DEBUG_VALUE: x264_cabac_mb_intra4x4_pred_mode:i_pred <- [DW_OP_LLVM_convert 8 5, DW_OP_LLVM_convert 32 5, DW_OP_stack_value] $bpl
	.loc	0 801 36 is_stmt 1              # x264_src/encoder/cabac.c:801:36
	movsbq	25024(%rbx,%rax), %rax
	movsbl	x264_mb_pred_mode4x4_fix+1(%rax), %r12d
.Ltmp138:
	#DEBUG_VALUE: i_mode <- [DW_OP_LLVM_convert 8 5, DW_OP_LLVM_convert 32 5, DW_OP_stack_value] $r12b
	#DEBUG_VALUE: x264_cabac_mb_intra4x4_pred_mode:i_mode <- [DW_OP_LLVM_convert 8 5, DW_OP_LLVM_convert 32 5, DW_OP_stack_value] $r12b
	#DEBUG_VALUE: x264_cabac_mb_intra4x4_pred_mode:cb <- [DW_OP_plus_uconst 8, DW_OP_deref] $rsp
	.loc	0 183 16                        # x264_src/encoder/cabac.c:183:16
	cmpb	%r12b, %bpl
.Ltmp139:
	.loc	0 183 9 is_stmt 0               # x264_src/encoder/cabac.c:183:9
	jne	.LBB1_35
.Ltmp140:
# %bb.39:                               # %if.then.i1016
                                        #   in Loop: Header=BB1_36 Depth=1
	#DEBUG_VALUE: x264_macroblock_write_cabac:h <- $rbx
	#DEBUG_VALUE: x264_macroblock_write_cabac:cb <- [DW_OP_plus_uconst 8] [$rsp+0]
	#DEBUG_VALUE: i <- $r15
	#DEBUG_VALUE: i_pred <- [DW_OP_LLVM_convert 8 5, DW_OP_LLVM_convert 32 5, DW_OP_stack_value] $bpl
	#DEBUG_VALUE: x264_cabac_mb_intra4x4_pred_mode:i_pred <- [DW_OP_LLVM_convert 8 5, DW_OP_LLVM_convert 32 5, DW_OP_stack_value] $bpl
	#DEBUG_VALUE: i_mode <- [DW_OP_LLVM_convert 8 5, DW_OP_LLVM_convert 32 5, DW_OP_stack_value] $r12b
	#DEBUG_VALUE: x264_cabac_mb_intra4x4_pred_mode:i_mode <- [DW_OP_LLVM_convert 8 5, DW_OP_LLVM_convert 32 5, DW_OP_stack_value] $r12b
	#DEBUG_VALUE: x264_cabac_mb_intra4x4_pred_mode:cb <- [DW_OP_plus_uconst 8, DW_OP_deref] $rsp
	.loc	0 184 9 is_stmt 1               # x264_src/encoder/cabac.c:184:9
	movq	%r13, %rdi
	movl	$68, %esi
	movl	$1, %edx
	.loc	0 0 0 is_stmt 0                 # x264_src/encoder/cabac.c:0:0
	callq	x264_cabac_encode_decision_c@PLT
.Ltmp141:
	.loc	0 798 39 is_stmt 1              # x264_src/encoder/cabac.c:798:39
	addq	%r14, %r15
.Ltmp142:
	#DEBUG_VALUE: i <- undef
	.loc	0 798 31 is_stmt 0              # x264_src/encoder/cabac.c:798:31
	cmpq	$16, %r15
.Ltmp143:
	.loc	0 798 13                        # x264_src/encoder/cabac.c:798:13
	jb	.LBB1_36
.Ltmp144:
.LBB1_40:                               # %if.end73
	#DEBUG_VALUE: x264_macroblock_write_cabac:h <- $rbx
	#DEBUG_VALUE: x264_macroblock_write_cabac:cb <- [DW_OP_plus_uconst 8] [$rsp+0]
	#DEBUG_VALUE: x264_cabac_mb_intra_chroma_pred_mode:h <- $rbx
	#DEBUG_VALUE: x264_cabac_mb_intra_chroma_pred_mode:cb <- [DW_OP_plus_uconst 8, DW_OP_deref] $rsp
	#DEBUG_VALUE: x264_cabac_mb_intra_chroma_pred_mode:i_mode <- undef
	#DEBUG_VALUE: x264_cabac_mb_intra_chroma_pred_mode:ctx <- 0
	.loc	0 202 16 is_stmt 1              # x264_src/encoder/cabac.c:202:16
	movl	16488(%rbx), %eax
	xorl	%esi, %esi
	.loc	0 202 28 is_stmt 0              # x264_src/encoder/cabac.c:202:28
	testb	$1, %al
	.loc	0 202 39                        # x264_src/encoder/cabac.c:202:39
	je	.LBB1_42
.Ltmp145:
# %bb.41:                               # %land.lhs.true.i1021
	#DEBUG_VALUE: x264_macroblock_write_cabac:h <- $rbx
	#DEBUG_VALUE: x264_macroblock_write_cabac:cb <- [DW_OP_plus_uconst 8] [$rsp+0]
	#DEBUG_VALUE: x264_cabac_mb_intra_chroma_pred_mode:h <- $rbx
	#DEBUG_VALUE: x264_cabac_mb_intra_chroma_pred_mode:cb <- [DW_OP_plus_uconst 8, DW_OP_deref] $rsp
	#DEBUG_VALUE: x264_cabac_mb_intra_chroma_pred_mode:ctx <- 0
	.loc	0 202 48                        # x264_src/encoder/cabac.c:202:48
	movq	16664(%rbx), %rcx
	.loc	0 202 71                        # x264_src/encoder/cabac.c:202:71
	movslq	16600(%rbx), %rdx
	.loc	0 202 85                        # x264_src/encoder/cabac.c:202:85
	xorl	%esi, %esi
	cmpb	$0, (%rcx,%rdx)
	setne	%sil
.Ltmp146:
.LBB1_42:                               # %if.end.i1023
	#DEBUG_VALUE: x264_macroblock_write_cabac:h <- $rbx
	#DEBUG_VALUE: x264_macroblock_write_cabac:cb <- [DW_OP_plus_uconst 8] [$rsp+0]
	#DEBUG_VALUE: x264_cabac_mb_intra_chroma_pred_mode:h <- $rbx
	#DEBUG_VALUE: x264_cabac_mb_intra_chroma_pred_mode:cb <- [DW_OP_plus_uconst 8, DW_OP_deref] $rsp
	#DEBUG_VALUE: x264_cabac_mb_intra_chroma_pred_mode:ctx <- 0
	.loc	0 0 0                           # x264_src/encoder/cabac.c:0:0
	movslq	17412(%rbx), %r14
.Ltmp147:
	#DEBUG_VALUE: x264_cabac_mb_intra_chroma_pred_mode:ctx <- $esi
	.loc	0 204 28 is_stmt 1              # x264_src/encoder/cabac.c:204:28
	testb	$2, %al
	.loc	0 204 38 is_stmt 0              # x264_src/encoder/cabac.c:204:38
	je	.LBB1_44
.Ltmp148:
# %bb.43:                               # %land.lhs.true12.i
	#DEBUG_VALUE: x264_macroblock_write_cabac:h <- $rbx
	#DEBUG_VALUE: x264_macroblock_write_cabac:cb <- [DW_OP_plus_uconst 8] [$rsp+0]
	#DEBUG_VALUE: x264_cabac_mb_intra_chroma_pred_mode:h <- $rbx
	#DEBUG_VALUE: x264_cabac_mb_intra_chroma_pred_mode:cb <- [DW_OP_plus_uconst 8, DW_OP_deref] $rsp
	#DEBUG_VALUE: x264_cabac_mb_intra_chroma_pred_mode:ctx <- $esi
	.loc	0 204 47                        # x264_src/encoder/cabac.c:204:47
	movq	16664(%rbx), %rax
	.loc	0 204 70                        # x264_src/encoder/cabac.c:204:70
	movslq	16604(%rbx), %rcx
.Ltmp149:
	.loc	0 204 9                         # x264_src/encoder/cabac.c:204:9
	cmpb	$1, (%rax,%rcx)
	sbbl	$-1, %esi
.Ltmp150:
.LBB1_44:                               # %if.end23.i
	#DEBUG_VALUE: x264_macroblock_write_cabac:h <- $rbx
	#DEBUG_VALUE: x264_macroblock_write_cabac:cb <- [DW_OP_plus_uconst 8] [$rsp+0]
	#DEBUG_VALUE: x264_cabac_mb_intra_chroma_pred_mode:h <- $rbx
	#DEBUG_VALUE: x264_cabac_mb_intra_chroma_pred_mode:cb <- [DW_OP_plus_uconst 8, DW_OP_deref] $rsp
	#DEBUG_VALUE: x264_cabac_mb_intra_chroma_pred_mode:ctx <- $esi
	.loc	0 207 45 is_stmt 1              # x264_src/encoder/cabac.c:207:45
	addl	$64, %esi
.Ltmp151:
	.loc	0 207 59 is_stmt 0              # x264_src/encoder/cabac.c:207:59
	leaq	-1(%r14), %r15
	xorl	%edx, %edx
	cmpq	$3, %r15
	setb	%dl
	.loc	0 207 5                         # x264_src/encoder/cabac.c:207:5
	movq	%r13, %rdi
	callq	x264_cabac_encode_decision_c@PLT
.Ltmp152:
	.loc	0 0 5                           # x264_src/encoder/cabac.c:0:5
	movb	$1, %al
	movl	%eax, 24(%rsp)                  # 4-byte Spill
	.loc	0 207 59                        # x264_src/encoder/cabac.c:207:59
	cmpq	$2, %r15
	.loc	0 208 9 is_stmt 1               # x264_src/encoder/cabac.c:208:9
	ja	.LBB1_154
.Ltmp153:
# %bb.45:                               # %if.then28.i
	#DEBUG_VALUE: x264_macroblock_write_cabac:h <- $rbx
	#DEBUG_VALUE: x264_macroblock_write_cabac:cb <- [DW_OP_plus_uconst 8] [$rsp+0]
	#DEBUG_VALUE: x264_cabac_mb_intra_chroma_pred_mode:h <- $rbx
	#DEBUG_VALUE: x264_cabac_mb_intra_chroma_pred_mode:cb <- [DW_OP_plus_uconst 8, DW_OP_deref] $rsp
	.loc	0 210 56                        # x264_src/encoder/cabac.c:210:56
	movl	%r14d, %ebp
	andl	$-2, %ebp
	xorl	%edx, %edx
	cmpl	$2, %ebp
	sete	%dl
	.loc	0 210 9 is_stmt 0               # x264_src/encoder/cabac.c:210:9
	movq	%r13, %rdi
	movl	$67, %esi
	callq	x264_cabac_encode_decision_c@PLT
.Ltmp154:
	.loc	0 210 56                        # x264_src/encoder/cabac.c:210:56
	cmpl	$2, %ebp
	.loc	0 211 13 is_stmt 1              # x264_src/encoder/cabac.c:211:13
	jne	.LBB1_154
.Ltmp155:
# %bb.46:                               # %if.then33.i
	#DEBUG_VALUE: x264_macroblock_write_cabac:h <- $rbx
	#DEBUG_VALUE: x264_macroblock_write_cabac:cb <- [DW_OP_plus_uconst 8] [$rsp+0]
	#DEBUG_VALUE: x264_cabac_mb_intra_chroma_pred_mode:h <- $rbx
	#DEBUG_VALUE: x264_cabac_mb_intra_chroma_pred_mode:cb <- [DW_OP_plus_uconst 8, DW_OP_deref] $rsp
	.loc	0 212 65                        # x264_src/encoder/cabac.c:212:65
	xorl	%edx, %edx
	cmpl	$3, %r14d
	sete	%dl
	.loc	0 212 13 is_stmt 0              # x264_src/encoder/cabac.c:212:13
	movq	%r13, %rdi
	movl	$67, %esi
	callq	x264_cabac_encode_decision_c@PLT
.Ltmp156:
	.loc	0 0 13                          # x264_src/encoder/cabac.c:0:13
	jmp	.LBB1_154
.Ltmp157:
.LBB1_47:                               # %if.else133.i
	#DEBUG_VALUE: x264_macroblock_write_cabac:h <- $rbx
	#DEBUG_VALUE: x264_macroblock_write_cabac:cb <- [DW_OP_plus_uconst 8] [$rsp+0]
	#DEBUG_VALUE: x264_cabac_mb_type:h <- $rbx
	#DEBUG_VALUE: x264_cabac_mb_type:cb <- [DW_OP_plus_uconst 8, DW_OP_deref] $rsp
	.loc	0 164 51 is_stmt 1              # x264_src/encoder/cabac.c:164:51
	leal	(%r15,%r15,2), %eax
	.loc	0 164 64 is_stmt 0              # x264_src/encoder/cabac.c:164:64
	movl	17388(%rbx), %ecx
	.loc	0 164 55                        # x264_src/encoder/cabac.c:164:55
	addl	%ecx, %eax
	addl	$-38, %eax
.Ltmp158:
	#DEBUG_VALUE: idx <- $eax
	.loc	0 165 24 is_stmt 1              # x264_src/encoder/cabac.c:165:24
	cltq
.Ltmp159:
	movzbl	x264_cabac_mb_type.i_mb_bits(%rax), %ebp
.Ltmp160:
	#DEBUG_VALUE: bits <- $ebp
	.loc	0 167 60                        # x264_src/encoder/cabac.c:167:60
	movl	%ebp, %r12d
	andl	$1, %r12d
	.loc	0 167 13 is_stmt 0              # x264_src/encoder/cabac.c:167:13
	movq	%r13, %rdi
	movl	$30, %esi
	movl	%r12d, %edx
	callq	x264_cabac_encode_decision_c@PLT
.Ltmp161:
	.loc	0 0 13                          # x264_src/encoder/cabac.c:0:13
	movl	$32, %esi
	.loc	0 168 49 is_stmt 1              # x264_src/encoder/cabac.c:168:49
	subl	%r12d, %esi
	.loc	0 168 65 is_stmt 0              # x264_src/encoder/cabac.c:168:65
	movl	%ebp, %edx
	shrl	%edx
	.loc	0 168 69                        # x264_src/encoder/cabac.c:168:69
	andl	$1, %edx
	.loc	0 168 13                        # x264_src/encoder/cabac.c:168:13
	movq	%r13, %rdi
	callq	x264_cabac_encode_decision_c@PLT
.Ltmp162:
	.loc	0 168 80                        # x264_src/encoder/cabac.c:168:80
	movl	%ebp, %edx
	shrl	$2, %edx
.Ltmp163:
	#DEBUG_VALUE: bits <- $edx
	.loc	0 169 22 is_stmt 1              # x264_src/encoder/cabac.c:169:22
	cmpl	$1, %edx
.Ltmp164:
	.loc	0 169 17 is_stmt 0              # x264_src/encoder/cabac.c:169:17
	je	.LBB1_50
.Ltmp165:
# %bb.48:                               # %if.then149.i
	#DEBUG_VALUE: x264_macroblock_write_cabac:h <- $rbx
	#DEBUG_VALUE: x264_macroblock_write_cabac:cb <- [DW_OP_plus_uconst 8] [$rsp+0]
	#DEBUG_VALUE: x264_cabac_mb_type:h <- $rbx
	#DEBUG_VALUE: x264_cabac_mb_type:cb <- [DW_OP_plus_uconst 8, DW_OP_deref] $rsp
	#DEBUG_VALUE: bits <- $edx
	.loc	0 171 59 is_stmt 1              # x264_src/encoder/cabac.c:171:59
	andl	$1, %edx
.Ltmp166:
	.loc	0 171 17 is_stmt 0              # x264_src/encoder/cabac.c:171:17
	movq	%r13, %rdi
	movl	$32, %esi
	callq	x264_cabac_encode_decision_c@PLT
.Ltmp167:
	.loc	0 171 70                        # x264_src/encoder/cabac.c:171:70
	movl	%ebp, %edx
	shrl	$3, %edx
.Ltmp168:
	#DEBUG_VALUE: bits <- $edx
	.loc	0 172 59 is_stmt 1              # x264_src/encoder/cabac.c:172:59
	andl	$1, %edx
.Ltmp169:
	.loc	0 172 17 is_stmt 0              # x264_src/encoder/cabac.c:172:17
	movq	%r13, %rdi
	movl	$32, %esi
	callq	x264_cabac_encode_decision_c@PLT
.Ltmp170:
	.loc	0 172 70                        # x264_src/encoder/cabac.c:172:70
	movl	%ebp, %edx
	shrl	$4, %edx
.Ltmp171:
	#DEBUG_VALUE: bits <- $edx
	.loc	0 173 59 is_stmt 1              # x264_src/encoder/cabac.c:173:59
	andl	$1, %edx
.Ltmp172:
	.loc	0 173 17 is_stmt 0              # x264_src/encoder/cabac.c:173:17
	movq	%r13, %rdi
	movl	$32, %esi
	callq	x264_cabac_encode_decision_c@PLT
.Ltmp173:
	.loc	0 173 70                        # x264_src/encoder/cabac.c:173:70
	shrl	$5, %ebp
.Ltmp174:
	#DEBUG_VALUE: bits <- $ebp
	.loc	0 174 26 is_stmt 1              # x264_src/encoder/cabac.c:174:26
	cmpl	$1, %ebp
.Ltmp175:
	.loc	0 174 21 is_stmt 0              # x264_src/encoder/cabac.c:174:21
	je	.LBB1_50
.Ltmp176:
# %bb.49:                               # %if.then158.i
	#DEBUG_VALUE: x264_macroblock_write_cabac:h <- $rbx
	#DEBUG_VALUE: x264_macroblock_write_cabac:cb <- [DW_OP_plus_uconst 8] [$rsp+0]
	#DEBUG_VALUE: x264_cabac_mb_type:h <- $rbx
	#DEBUG_VALUE: x264_cabac_mb_type:cb <- [DW_OP_plus_uconst 8, DW_OP_deref] $rsp
	#DEBUG_VALUE: bits <- $ebp
	.loc	0 175 68 is_stmt 1              # x264_src/encoder/cabac.c:175:68
	andl	$1, %ebp
.Ltmp177:
	.loc	0 175 21 is_stmt 0              # x264_src/encoder/cabac.c:175:21
	movq	%r13, %rdi
	movl	$32, %esi
	movl	%ebp, %edx
	callq	x264_cabac_encode_decision_c@PLT
.Ltmp178:
.LBB1_50:                               # %if.else
	#DEBUG_VALUE: x264_macroblock_write_cabac:h <- $rbx
	#DEBUG_VALUE: x264_macroblock_write_cabac:cb <- [DW_OP_plus_uconst 8] [$rsp+0]
	#DEBUG_VALUE: x264_cabac_mb_type:h <- $rbx
	#DEBUG_VALUE: x264_cabac_mb_type:cb <- [DW_OP_plus_uconst 8, DW_OP_deref] $rsp
	.loc	0 0 21                          # x264_src/encoder/cabac.c:0:21
	movl	$0, 20(%rsp)                    # 4-byte Folded Spill
.Ltmp179:
.LBB1_51:                               # %if.else
	#DEBUG_VALUE: x264_macroblock_write_cabac:h <- $rbx
	#DEBUG_VALUE: x264_macroblock_write_cabac:cb <- [DW_OP_plus_uconst 8] [$rsp+0]
	.loc	0 808 14 is_stmt 1              # x264_src/encoder/cabac.c:808:14
	leal	-4(%r15), %eax
	cmpl	$13, %eax
	ja	.LBB1_126
.Ltmp180:
# %bb.52:                               # %if.else
	#DEBUG_VALUE: x264_macroblock_write_cabac:h <- $rbx
	#DEBUG_VALUE: x264_macroblock_write_cabac:cb <- [DW_OP_plus_uconst 8] [$rsp+0]
	jmpq	*.LJTI1_0(,%rax,8)
.Ltmp181:
.LBB1_53:                               # %if.then76
	#DEBUG_VALUE: x264_macroblock_write_cabac:h <- $rbx
	#DEBUG_VALUE: x264_macroblock_write_cabac:cb <- [DW_OP_plus_uconst 8] [$rsp+0]
	.loc	0 810 19                        # x264_src/encoder/cabac.c:810:19
	movl	17388(%rbx), %ecx
	.loc	0 0 0 is_stmt 0                 # x264_src/encoder/cabac.c:0:0
	movl	21416(%rbx), %eax
.Ltmp182:
	.loc	0 810 13                        # x264_src/encoder/cabac.c:810:13
	cmpl	$14, %ecx
	je	.LBB1_66
.Ltmp183:
# %bb.54:                               # %if.then76
	#DEBUG_VALUE: x264_macroblock_write_cabac:h <- $rbx
	#DEBUG_VALUE: x264_macroblock_write_cabac:cb <- [DW_OP_plus_uconst 8] [$rsp+0]
	cmpl	$16, %ecx
	jne	.LBB1_69
.Ltmp184:
# %bb.55:                               # %if.then80
	#DEBUG_VALUE: x264_macroblock_write_cabac:h <- $rbx
	#DEBUG_VALUE: x264_macroblock_write_cabac:cb <- [DW_OP_plus_uconst 8] [$rsp+0]
	.loc	0 0 0                           # x264_src/encoder/cabac.c:0:0
	cmpl	$2, %eax
.Ltmp185:
	.loc	0 812 17 is_stmt 1              # x264_src/encoder/cabac.c:812:17
	jl	.LBB1_57
.Ltmp186:
# %bb.56:                               # %if.then86
	#DEBUG_VALUE: x264_macroblock_write_cabac:h <- $rbx
	#DEBUG_VALUE: x264_macroblock_write_cabac:cb <- [DW_OP_plus_uconst 8] [$rsp+0]
	.loc	0 814 17                        # x264_src/encoder/cabac.c:814:17
	movq	%rbx, %rdi
	movq	%r13, %rsi
	xorl	%edx, %edx
	xorl	%ecx, %ecx
	callq	x264_cabac_mb_ref
.Ltmp187:
.LBB1_57:                               # %do.body
	#DEBUG_VALUE: x264_macroblock_write_cabac:h <- $rbx
	#DEBUG_VALUE: x264_macroblock_write_cabac:cb <- [DW_OP_plus_uconst 8] [$rsp+0]
	#DEBUG_VALUE: x264_macroblock_cache_mvd:h <- $rbx
	#DEBUG_VALUE: x264_macroblock_cache_mvd:x <- 0
	#DEBUG_VALUE: x264_macroblock_cache_mvd:y <- 0
	#DEBUG_VALUE: x264_macroblock_cache_mvd:width <- 4
	#DEBUG_VALUE: x264_macroblock_cache_mvd:height <- 4
	#DEBUG_VALUE: x264_macroblock_cache_mvd:i_list <- 0
	#DEBUG_VALUE: x264_macroblock_cache_mvd:mvd_cache <- [DW_OP_plus_uconst 25544, DW_OP_stack_value] $rbx
	#DEBUG_VALUE: x264_macroblock_cache_rect:dst <- [DW_OP_plus_uconst 25544, DW_OP_stack_value] $rbx
	#DEBUG_VALUE: x264_macroblock_cache_rect:d <- [DW_OP_plus_uconst 25544, DW_OP_stack_value] $rbx
	.loc	0 0 17 is_stmt 0                # x264_src/encoder/cabac.c:0:17
	movl	$0, 24(%rsp)                    # 4-byte Folded Spill
.Ltmp188:
	.loc	0 816 13 is_stmt 1              # x264_src/encoder/cabac.c:816:13
	movq	%rbx, %rdi
	movq	%r13, %rsi
	xorl	%edx, %edx
	xorl	%ecx, %ecx
	movl	$4, %r8d
	callq	x264_cabac_mb_mvd
.Ltmp189:
	#DEBUG_VALUE: mvd <- $ax
	#DEBUG_VALUE: x264_macroblock_cache_mvd:mvd <- $ax
	#DEBUG_VALUE: x264_macroblock_cache_rect:v <- [DW_OP_LLVM_convert 16 7, DW_OP_LLVM_convert 32 7, DW_OP_stack_value] $ax
	#DEBUG_VALUE: x264_macroblock_cache_rect:v2 <- $ax
	.file	8 "x264_src/common" "rectangle.h" md5 0xd042158b8d3023ac6d42be3fb9b0d384
	.loc	8 124 68                        # x264_src/common/rectangle.h:124:68
	movzwl	%ax, %eax
.Ltmp190:
	#DEBUG_VALUE: x264_macroblock_cache_rect:v4 <- [DW_OP_constu 65537, DW_OP_mul, DW_OP_stack_value] $eax
	.loc	8 0 68 is_stmt 0                # x264_src/common/rectangle.h:0:68
	movabsq	$281479271743489, %rcx          # imm = 0x1000100010001
.Ltmp191:
	#DEBUG_VALUE: x264_macroblock_cache_rect:w <- [DW_OP_constu 1, DW_OP_shl, DW_OP_stack_value] 4
	#DEBUG_VALUE: x264_macroblock_cache_rect:h <- 4
	#DEBUG_VALUE: x264_macroblock_cache_rect:s <- 2
	.loc	8 27 22 is_stmt 1               # x264_src/common/rectangle.h:27:22
	imulq	%rax, %rcx
.Ltmp192:
	#DEBUG_VALUE: x264_macroblock_cache_rect:v8 <- $rcx
	#DEBUG_VALUE: x264_macroblock_cache_rect:s <- 16
	.loc	8 52 26                         # x264_src/common/rectangle.h:52:26
	movq	%rcx, 25544(%rbx)
	.loc	8 54 26                         # x264_src/common/rectangle.h:54:26
	movq	%rcx, 25560(%rbx)
	.loc	8 56 26                         # x264_src/common/rectangle.h:56:26
	movq	%rcx, 25576(%rbx)
	.loc	8 57 26                         # x264_src/common/rectangle.h:57:26
	movq	%rcx, 25592(%rbx)
.Ltmp193:
	.loc	0 817 9                         # x264_src/encoder/cabac.c:817:9
	jmp	.LBB1_155
.Ltmp194:
.LBB1_58:                               # %for.cond149.preheader
	#DEBUG_VALUE: x264_macroblock_write_cabac:h <- $rbx
	#DEBUG_VALUE: x264_macroblock_write_cabac:cb <- [DW_OP_plus_uconst 8] [$rsp+0]
	#DEBUG_VALUE: i <- 0
	.loc	0 843 48                        # x264_src/encoder/cabac.c:843:48
	movzbl	17392(%rbx), %ebp
.Ltmp195:
	#DEBUG_VALUE: x264_cabac_mb_sub_p_partition:i_sub <- [DW_OP_LLVM_convert 8 7, DW_OP_LLVM_convert 32 7, DW_OP_stack_value] $bpl
	#DEBUG_VALUE: x264_cabac_mb_sub_p_partition:cb <- [DW_OP_plus_uconst 8, DW_OP_deref] $rsp
	.loc	0 298 5                         # x264_src/encoder/cabac.c:298:5
	movq	%r13, %rdi
	movl	$21, %esi
.Ltmp196:
	.loc	0 293 15                        # x264_src/encoder/cabac.c:293:15
	cmpb	$3, %bpl
.Ltmp197:
	.loc	0 293 9 is_stmt 0               # x264_src/encoder/cabac.c:293:9
	jne	.LBB1_62
.Ltmp198:
# %bb.59:                               # %if.then.i1063
	#DEBUG_VALUE: x264_macroblock_write_cabac:h <- $rbx
	#DEBUG_VALUE: x264_macroblock_write_cabac:cb <- [DW_OP_plus_uconst 8] [$rsp+0]
	#DEBUG_VALUE: i <- 0
	#DEBUG_VALUE: x264_cabac_mb_sub_p_partition:i_sub <- [DW_OP_LLVM_convert 8 7, DW_OP_LLVM_convert 32 7, DW_OP_stack_value] $bpl
	#DEBUG_VALUE: x264_cabac_mb_sub_p_partition:cb <- [DW_OP_plus_uconst 8, DW_OP_deref] $rsp
	.loc	0 295 9 is_stmt 1               # x264_src/encoder/cabac.c:295:9
	movl	$1, %edx
	jmp	.LBB1_73
.Ltmp199:
.LBB1_60:                               # %for.cond183.preheader
	#DEBUG_VALUE: x264_macroblock_write_cabac:h <- $rbx
	#DEBUG_VALUE: x264_macroblock_write_cabac:cb <- [DW_OP_plus_uconst 8] [$rsp+0]
	#DEBUG_VALUE: i <- 0
	.loc	0 861 48                        # x264_src/encoder/cabac.c:861:48
	movzbl	17392(%rbx), %ebp
.Ltmp200:
	#DEBUG_VALUE: x264_cabac_mb_sub_b_partition:i_sub <- [DW_OP_LLVM_convert 8 7, DW_OP_LLVM_convert 32 7, DW_OP_stack_value] $bpl
	#DEBUG_VALUE: x264_cabac_mb_sub_b_partition:cb <- [DW_OP_plus_uconst 8, DW_OP_deref] $rsp
	.loc	0 315 5                         # x264_src/encoder/cabac.c:315:5
	movq	%r13, %rdi
	movl	$36, %esi
.Ltmp201:
	.loc	0 310 15                        # x264_src/encoder/cabac.c:310:15
	cmpb	$12, %bpl
.Ltmp202:
	.loc	0 310 9 is_stmt 0               # x264_src/encoder/cabac.c:310:9
	jne	.LBB1_64
.Ltmp203:
# %bb.61:                               # %x264_cabac_mb_sub_b_partition.exit
	#DEBUG_VALUE: x264_macroblock_write_cabac:h <- $rbx
	#DEBUG_VALUE: x264_macroblock_write_cabac:cb <- [DW_OP_plus_uconst 8] [$rsp+0]
	#DEBUG_VALUE: i <- 0
	#DEBUG_VALUE: x264_cabac_mb_sub_b_partition:i_sub <- [DW_OP_LLVM_convert 8 7, DW_OP_LLVM_convert 32 7, DW_OP_stack_value] $bpl
	#DEBUG_VALUE: x264_cabac_mb_sub_b_partition:cb <- [DW_OP_plus_uconst 8, DW_OP_deref] $rsp
	.loc	0 0 0                           # x264_src/encoder/cabac.c:0:0
	xorl	%edx, %edx
	jmp	.LBB1_233
.Ltmp204:
.LBB1_62:                               # %if.end.i1059
	#DEBUG_VALUE: x264_macroblock_write_cabac:h <- $rbx
	#DEBUG_VALUE: x264_macroblock_write_cabac:cb <- [DW_OP_plus_uconst 8] [$rsp+0]
	#DEBUG_VALUE: i <- 0
	#DEBUG_VALUE: x264_cabac_mb_sub_p_partition:i_sub <- [DW_OP_LLVM_convert 8 7, DW_OP_LLVM_convert 32 7, DW_OP_stack_value] $bpl
	#DEBUG_VALUE: x264_cabac_mb_sub_p_partition:cb <- [DW_OP_plus_uconst 8, DW_OP_deref] $rsp
	.loc	0 298 5 is_stmt 1               # x264_src/encoder/cabac.c:298:5
	xorl	%edx, %edx
	callq	x264_cabac_encode_decision_c@PLT
.Ltmp205:
	.loc	0 303 9                         # x264_src/encoder/cabac.c:303:9
	movq	%r13, %rdi
	movl	$22, %esi
.Ltmp206:
	.loc	0 299 15                        # x264_src/encoder/cabac.c:299:15
	cmpb	$1, %bpl
.Ltmp207:
	.loc	0 299 9 is_stmt 0               # x264_src/encoder/cabac.c:299:9
	jne	.LBB1_72
.Ltmp208:
# %bb.63:                               # %if.then2.i
	#DEBUG_VALUE: x264_macroblock_write_cabac:h <- $rbx
	#DEBUG_VALUE: x264_macroblock_write_cabac:cb <- [DW_OP_plus_uconst 8] [$rsp+0]
	#DEBUG_VALUE: i <- 0
	#DEBUG_VALUE: x264_cabac_mb_sub_p_partition:i_sub <- [DW_OP_LLVM_convert 8 7, DW_OP_LLVM_convert 32 7, DW_OP_stack_value] $bpl
	#DEBUG_VALUE: x264_cabac_mb_sub_p_partition:cb <- [DW_OP_plus_uconst 8, DW_OP_deref] $rsp
	.loc	0 300 9 is_stmt 1               # x264_src/encoder/cabac.c:300:9
	xorl	%edx, %edx
	jmp	.LBB1_73
.Ltmp209:
.LBB1_64:                               # %if.end.i1189
	#DEBUG_VALUE: x264_macroblock_write_cabac:h <- $rbx
	#DEBUG_VALUE: x264_macroblock_write_cabac:cb <- [DW_OP_plus_uconst 8] [$rsp+0]
	#DEBUG_VALUE: i <- 0
	#DEBUG_VALUE: x264_cabac_mb_sub_b_partition:i_sub <- [DW_OP_LLVM_convert 8 7, DW_OP_LLVM_convert 32 7, DW_OP_stack_value] $bpl
	#DEBUG_VALUE: x264_cabac_mb_sub_b_partition:cb <- [DW_OP_plus_uconst 8, DW_OP_deref] $rsp
	.loc	0 315 5                         # x264_src/encoder/cabac.c:315:5
	movl	$1, %edx
	callq	x264_cabac_encode_decision_c@PLT
.Ltmp210:
	.loc	0 324 5                         # x264_src/encoder/cabac.c:324:5
	movq	%r13, %rdi
	movl	$37, %esi
.Ltmp211:
	.loc	0 316 15                        # x264_src/encoder/cabac.c:316:15
	cmpb	$11, %bpl
.Ltmp212:
	.loc	0 316 9 is_stmt 0               # x264_src/encoder/cabac.c:316:9
	jne	.LBB1_232
.Ltmp213:
# %bb.65:                               # %if.then2.i1192
	#DEBUG_VALUE: x264_macroblock_write_cabac:h <- $rbx
	#DEBUG_VALUE: x264_macroblock_write_cabac:cb <- [DW_OP_plus_uconst 8] [$rsp+0]
	#DEBUG_VALUE: i <- 0
	#DEBUG_VALUE: x264_cabac_mb_sub_b_partition:i_sub <- [DW_OP_LLVM_convert 8 7, DW_OP_LLVM_convert 32 7, DW_OP_stack_value] $bpl
	#DEBUG_VALUE: x264_cabac_mb_sub_b_partition:cb <- [DW_OP_plus_uconst 8, DW_OP_deref] $rsp
	.loc	0 318 9 is_stmt 1               # x264_src/encoder/cabac.c:318:9
	movl	$1, %edx
	callq	x264_cabac_encode_decision_c@PLT
.Ltmp214:
	.loc	0 319 9                         # x264_src/encoder/cabac.c:319:9
	movq	%r13, %rdi
	movl	$38, %esi
	xorl	%edx, %edx
	callq	x264_cabac_encode_decision_c@PLT
.Ltmp215:
	.loc	0 320 9                         # x264_src/encoder/cabac.c:320:9
	movq	%r13, %rdi
	movl	$39, %esi
	xorl	%edx, %edx
	callq	x264_cabac_encode_decision_c@PLT
.Ltmp216:
	.loc	0 321 9                         # x264_src/encoder/cabac.c:321:9
	movq	%r13, %rdi
	movl	$39, %esi
.Ltmp217:
	.loc	0 0 0 is_stmt 0                 # x264_src/encoder/cabac.c:0:0
	xorl	%edx, %edx
	jmp	.LBB1_233
.Ltmp218:
.LBB1_66:                               # %if.then96
	#DEBUG_VALUE: x264_macroblock_write_cabac:h <- $rbx
	#DEBUG_VALUE: x264_macroblock_write_cabac:cb <- [DW_OP_plus_uconst 8] [$rsp+0]
	movl	%r14d, %ebp
.Ltmp219:
	cmpl	$2, %eax
.Ltmp220:
	.loc	0 820 17 is_stmt 1              # x264_src/encoder/cabac.c:820:17
	jl	.LBB1_68
.Ltmp221:
# %bb.67:                               # %if.then103
	#DEBUG_VALUE: x264_macroblock_write_cabac:h <- $rbx
	#DEBUG_VALUE: x264_macroblock_write_cabac:cb <- [DW_OP_plus_uconst 8] [$rsp+0]
	.loc	0 822 17                        # x264_src/encoder/cabac.c:822:17
	movq	%rbx, %rdi
	movq	%r13, %rsi
	xorl	%edx, %edx
	xorl	%ecx, %ecx
	callq	x264_cabac_mb_ref
.Ltmp222:
	.loc	0 823 17                        # x264_src/encoder/cabac.c:823:17
	movq	%rbx, %rdi
	movq	%r13, %rsi
	xorl	%edx, %edx
	movl	$8, %ecx
	callq	x264_cabac_mb_ref
.Ltmp223:
.LBB1_68:                               # %do.body105
	#DEBUG_VALUE: x264_macroblock_write_cabac:h <- $rbx
	#DEBUG_VALUE: x264_macroblock_write_cabac:cb <- [DW_OP_plus_uconst 8] [$rsp+0]
	#DEBUG_VALUE: x264_macroblock_cache_mvd:h <- $rbx
	#DEBUG_VALUE: x264_macroblock_cache_mvd:x <- 0
	#DEBUG_VALUE: x264_macroblock_cache_mvd:y <- 2
	#DEBUG_VALUE: x264_macroblock_cache_mvd:width <- 4
	#DEBUG_VALUE: x264_macroblock_cache_mvd:height <- 2
	#DEBUG_VALUE: x264_macroblock_cache_mvd:i_list <- 0
	#DEBUG_VALUE: x264_macroblock_cache_mvd:mvd_cache <- [DW_OP_plus_uconst 25576, DW_OP_stack_value] $rbx
	#DEBUG_VALUE: x264_macroblock_cache_rect:dst <- [DW_OP_plus_uconst 25576, DW_OP_stack_value] $rbx
	#DEBUG_VALUE: x264_macroblock_cache_rect:d <- [DW_OP_plus_uconst 25576, DW_OP_stack_value] $rbx
	#DEBUG_VALUE: x264_macroblock_cache_mvd:h <- $rbx
	#DEBUG_VALUE: x264_macroblock_cache_mvd:x <- 0
	#DEBUG_VALUE: x264_macroblock_cache_mvd:y <- 0
	#DEBUG_VALUE: x264_macroblock_cache_mvd:width <- 4
	#DEBUG_VALUE: x264_macroblock_cache_mvd:height <- 2
	#DEBUG_VALUE: x264_macroblock_cache_mvd:i_list <- 0
	#DEBUG_VALUE: x264_macroblock_cache_mvd:mvd_cache <- [DW_OP_plus_uconst 25544, DW_OP_stack_value] $rbx
	#DEBUG_VALUE: x264_macroblock_cache_rect:dst <- [DW_OP_plus_uconst 25544, DW_OP_stack_value] $rbx
	#DEBUG_VALUE: x264_macroblock_cache_rect:d <- [DW_OP_plus_uconst 25544, DW_OP_stack_value] $rbx
	.loc	0 0 17 is_stmt 0                # x264_src/encoder/cabac.c:0:17
	movl	$0, 24(%rsp)                    # 4-byte Folded Spill
.Ltmp224:
	.loc	0 825 13 is_stmt 1              # x264_src/encoder/cabac.c:825:13
	movq	%rbx, %rdi
	movq	%r13, %rsi
	xorl	%edx, %edx
	xorl	%ecx, %ecx
	movl	$4, %r8d
	callq	x264_cabac_mb_mvd
.Ltmp225:
	#DEBUG_VALUE: mvd <- $ax
	#DEBUG_VALUE: x264_macroblock_cache_mvd:mvd <- $ax
	#DEBUG_VALUE: x264_macroblock_cache_rect:v <- [DW_OP_LLVM_convert 16 7, DW_OP_LLVM_convert 32 7, DW_OP_stack_value] $ax
	#DEBUG_VALUE: x264_macroblock_cache_rect:v2 <- $ax
	.loc	8 124 68                        # x264_src/common/rectangle.h:124:68
	movzwl	%ax, %eax
.Ltmp226:
	#DEBUG_VALUE: x264_macroblock_cache_rect:v4 <- [DW_OP_constu 65537, DW_OP_mul, DW_OP_stack_value] $eax
	.loc	8 0 68 is_stmt 0                # x264_src/common/rectangle.h:0:68
	movabsq	$281479271743489, %r14          # imm = 0x1000100010001
.Ltmp227:
	#DEBUG_VALUE: x264_macroblock_cache_rect:w <- [DW_OP_constu 1, DW_OP_shl, DW_OP_stack_value] 4
	#DEBUG_VALUE: x264_macroblock_cache_rect:h <- 2
	#DEBUG_VALUE: x264_macroblock_cache_rect:s <- 2
	.loc	8 27 22 is_stmt 1               # x264_src/common/rectangle.h:27:22
	imulq	%r14, %rax
.Ltmp228:
	#DEBUG_VALUE: x264_macroblock_cache_rect:v8 <- $rax
	#DEBUG_VALUE: x264_macroblock_cache_rect:s <- 16
	.loc	8 52 26                         # x264_src/common/rectangle.h:52:26
	movq	%rax, 25544(%rbx)
	.loc	8 54 26                         # x264_src/common/rectangle.h:54:26
	movq	%rax, 25560(%rbx)
.Ltmp229:
	.loc	0 826 13                        # x264_src/encoder/cabac.c:826:13
	movq	%rbx, %rdi
	movq	%r13, %rsi
	xorl	%edx, %edx
	movl	$8, %ecx
	movl	$4, %r8d
	callq	x264_cabac_mb_mvd
.Ltmp230:
	#DEBUG_VALUE: mvd <- $ax
	#DEBUG_VALUE: x264_macroblock_cache_mvd:mvd <- $ax
	#DEBUG_VALUE: x264_macroblock_cache_rect:v <- [DW_OP_LLVM_convert 16 7, DW_OP_LLVM_convert 32 7, DW_OP_stack_value] $ax
	#DEBUG_VALUE: x264_macroblock_cache_rect:v2 <- $ax
	.loc	8 124 68                        # x264_src/common/rectangle.h:124:68
	movzwl	%ax, %eax
.Ltmp231:
	#DEBUG_VALUE: x264_macroblock_cache_rect:v4 <- [DW_OP_constu 65537, DW_OP_mul, DW_OP_stack_value] $eax
	#DEBUG_VALUE: x264_macroblock_cache_rect:w <- [DW_OP_constu 1, DW_OP_shl, DW_OP_stack_value] 4
	#DEBUG_VALUE: x264_macroblock_cache_rect:h <- 2
	#DEBUG_VALUE: x264_macroblock_cache_rect:s <- 2
	.loc	8 27 22                         # x264_src/common/rectangle.h:27:22
	imulq	%r14, %rax
.Ltmp232:
	#DEBUG_VALUE: x264_macroblock_cache_rect:v8 <- $rax
	#DEBUG_VALUE: x264_macroblock_cache_rect:s <- 16
	.loc	8 52 26                         # x264_src/common/rectangle.h:52:26
	movq	%rax, 25576(%rbx)
	.loc	8 54 26                         # x264_src/common/rectangle.h:54:26
	movq	%rax, 25592(%rbx)
	movl	%ebp, %r14d
.Ltmp233:
	.loc	0 827 9                         # x264_src/encoder/cabac.c:827:9
	jmp	.LBB1_155
.Ltmp234:
.LBB1_69:                               # %if.else119
	#DEBUG_VALUE: x264_macroblock_write_cabac:h <- $rbx
	#DEBUG_VALUE: x264_macroblock_write_cabac:cb <- [DW_OP_plus_uconst 8] [$rsp+0]
	.loc	0 0 0 is_stmt 0                 # x264_src/encoder/cabac.c:0:0
	cmpl	$2, %eax
.Ltmp235:
	.loc	0 830 17 is_stmt 1              # x264_src/encoder/cabac.c:830:17
	jl	.LBB1_71
.Ltmp236:
# %bb.70:                               # %if.then126
	#DEBUG_VALUE: x264_macroblock_write_cabac:h <- $rbx
	#DEBUG_VALUE: x264_macroblock_write_cabac:cb <- [DW_OP_plus_uconst 8] [$rsp+0]
	.loc	0 832 17                        # x264_src/encoder/cabac.c:832:17
	movq	%rbx, %rdi
	movq	%r13, %rsi
	xorl	%edx, %edx
	xorl	%ecx, %ecx
	callq	x264_cabac_mb_ref
.Ltmp237:
	.loc	0 833 17                        # x264_src/encoder/cabac.c:833:17
	movq	%rbx, %rdi
	movq	%r13, %rsi
	xorl	%edx, %edx
	movl	$4, %ecx
	callq	x264_cabac_mb_ref
.Ltmp238:
.LBB1_71:                               # %do.body128
	#DEBUG_VALUE: x264_macroblock_write_cabac:h <- $rbx
	#DEBUG_VALUE: x264_macroblock_write_cabac:cb <- [DW_OP_plus_uconst 8] [$rsp+0]
	#DEBUG_VALUE: x264_macroblock_cache_mvd:h <- $rbx
	#DEBUG_VALUE: x264_macroblock_cache_mvd:x <- 2
	#DEBUG_VALUE: x264_macroblock_cache_mvd:y <- 0
	#DEBUG_VALUE: x264_macroblock_cache_mvd:width <- 2
	#DEBUG_VALUE: x264_macroblock_cache_mvd:height <- 4
	#DEBUG_VALUE: x264_macroblock_cache_mvd:i_list <- 0
	#DEBUG_VALUE: x264_macroblock_cache_mvd:mvd_cache <- [DW_OP_plus_uconst 25548, DW_OP_stack_value] $rbx
	#DEBUG_VALUE: x264_macroblock_cache_rect:dst <- [DW_OP_plus_uconst 25548, DW_OP_stack_value] $rbx
	#DEBUG_VALUE: x264_macroblock_cache_rect:d <- [DW_OP_plus_uconst 25548, DW_OP_stack_value] $rbx
	#DEBUG_VALUE: x264_macroblock_cache_mvd:h <- $rbx
	#DEBUG_VALUE: x264_macroblock_cache_mvd:x <- 0
	#DEBUG_VALUE: x264_macroblock_cache_mvd:y <- 0
	#DEBUG_VALUE: x264_macroblock_cache_mvd:width <- 2
	#DEBUG_VALUE: x264_macroblock_cache_mvd:height <- 4
	#DEBUG_VALUE: x264_macroblock_cache_mvd:i_list <- 0
	#DEBUG_VALUE: x264_macroblock_cache_mvd:mvd_cache <- [DW_OP_plus_uconst 25544, DW_OP_stack_value] $rbx
	#DEBUG_VALUE: x264_macroblock_cache_rect:dst <- [DW_OP_plus_uconst 25544, DW_OP_stack_value] $rbx
	#DEBUG_VALUE: x264_macroblock_cache_rect:d <- [DW_OP_plus_uconst 25544, DW_OP_stack_value] $rbx
	.loc	0 0 17 is_stmt 0                # x264_src/encoder/cabac.c:0:17
	movl	$0, 24(%rsp)                    # 4-byte Folded Spill
.Ltmp239:
	.loc	0 835 13 is_stmt 1              # x264_src/encoder/cabac.c:835:13
	movq	%rbx, %rdi
	movq	%r13, %rsi
	xorl	%edx, %edx
	xorl	%ecx, %ecx
	movl	$2, %r8d
	callq	x264_cabac_mb_mvd
.Ltmp240:
	#DEBUG_VALUE: mvd <- $ax
	#DEBUG_VALUE: x264_macroblock_cache_mvd:mvd <- $ax
	#DEBUG_VALUE: x264_macroblock_cache_rect:v2 <- $ax
	.loc	8 124 68                        # x264_src/common/rectangle.h:124:68
	movzwl	%ax, %eax
.Ltmp241:
	#DEBUG_VALUE: x264_macroblock_cache_rect:v <- $eax
	#DEBUG_VALUE: x264_macroblock_cache_rect:w <- [DW_OP_constu 1, DW_OP_shl, DW_OP_stack_value] 2
	#DEBUG_VALUE: x264_macroblock_cache_rect:h <- 4
	#DEBUG_VALUE: x264_macroblock_cache_rect:s <- 2
	.loc	8 26 32                         # x264_src/common/rectangle.h:26:32
	movl	%eax, %ecx
	shll	$16, %ecx
	orl	%eax, %ecx
.Ltmp242:
	#DEBUG_VALUE: x264_macroblock_cache_rect:v4 <- $ecx
	#DEBUG_VALUE: x264_macroblock_cache_rect:v8 <- [DW_OP_LLVM_convert 32 7, DW_OP_LLVM_convert 64 7, DW_OP_constu 4294967297, DW_OP_mul, DW_OP_stack_value] $ecx
	#DEBUG_VALUE: x264_macroblock_cache_rect:s <- 16
	.loc	8 41 22                         # x264_src/common/rectangle.h:41:22
	movl	%ecx, 25544(%rbx)
	.loc	8 43 22                         # x264_src/common/rectangle.h:43:22
	movl	%ecx, 25560(%rbx)
	.loc	8 45 22                         # x264_src/common/rectangle.h:45:22
	movl	%ecx, 25576(%rbx)
	.loc	8 46 22                         # x264_src/common/rectangle.h:46:22
	movl	%ecx, 25592(%rbx)
.Ltmp243:
	.loc	0 836 13                        # x264_src/encoder/cabac.c:836:13
	movq	%rbx, %rdi
	movq	%r13, %rsi
	xorl	%edx, %edx
	movl	$4, %ecx
.Ltmp244:
	movl	$2, %r8d
	callq	x264_cabac_mb_mvd
.Ltmp245:
	#DEBUG_VALUE: mvd <- $ax
	#DEBUG_VALUE: x264_macroblock_cache_mvd:mvd <- $ax
	#DEBUG_VALUE: x264_macroblock_cache_rect:v2 <- $ax
	.loc	8 124 68                        # x264_src/common/rectangle.h:124:68
	movzwl	%ax, %eax
.Ltmp246:
	#DEBUG_VALUE: x264_macroblock_cache_rect:v <- $eax
	#DEBUG_VALUE: x264_macroblock_cache_rect:w <- [DW_OP_constu 1, DW_OP_shl, DW_OP_stack_value] 2
	#DEBUG_VALUE: x264_macroblock_cache_rect:h <- 4
	#DEBUG_VALUE: x264_macroblock_cache_rect:s <- 2
	.loc	8 26 32                         # x264_src/common/rectangle.h:26:32
	movl	%eax, %ecx
	shll	$16, %ecx
	orl	%eax, %ecx
.Ltmp247:
	#DEBUG_VALUE: x264_macroblock_cache_rect:v4 <- $ecx
	#DEBUG_VALUE: x264_macroblock_cache_rect:v8 <- [DW_OP_LLVM_convert 32 7, DW_OP_LLVM_convert 64 7, DW_OP_constu 4294967297, DW_OP_mul, DW_OP_stack_value] $ecx
	#DEBUG_VALUE: x264_macroblock_cache_rect:s <- 16
	.loc	8 41 22                         # x264_src/common/rectangle.h:41:22
	movl	%ecx, 25548(%rbx)
	.loc	8 43 22                         # x264_src/common/rectangle.h:43:22
	movl	%ecx, 25564(%rbx)
	.loc	8 45 22                         # x264_src/common/rectangle.h:45:22
	movl	%ecx, 25580(%rbx)
	.loc	8 46 22                         # x264_src/common/rectangle.h:46:22
	movl	%ecx, 25596(%rbx)
	jmp	.LBB1_155
.Ltmp248:
.LBB1_72:                               # %if.else.i1061
	#DEBUG_VALUE: x264_macroblock_write_cabac:h <- $rbx
	#DEBUG_VALUE: x264_macroblock_write_cabac:cb <- [DW_OP_plus_uconst 8] [$rsp+0]
	#DEBUG_VALUE: i <- 0
	#DEBUG_VALUE: x264_cabac_mb_sub_p_partition:i_sub <- [DW_OP_LLVM_convert 8 7, DW_OP_LLVM_convert 32 7, DW_OP_stack_value] $bpl
	#DEBUG_VALUE: x264_cabac_mb_sub_p_partition:cb <- [DW_OP_plus_uconst 8, DW_OP_deref] $rsp
	.loc	0 303 9                         # x264_src/encoder/cabac.c:303:9
	movl	$1, %edx
	callq	x264_cabac_encode_decision_c@PLT
.Ltmp249:
	.loc	0 304 51                        # x264_src/encoder/cabac.c:304:51
	xorl	%edx, %edx
	cmpb	$2, %bpl
	sete	%dl
	.loc	0 304 9 is_stmt 0               # x264_src/encoder/cabac.c:304:9
	movq	%r13, %rdi
	movl	$23, %esi
.Ltmp250:
.LBB1_73:                               # %x264_cabac_mb_sub_p_partition.exit
	#DEBUG_VALUE: x264_macroblock_write_cabac:h <- $rbx
	#DEBUG_VALUE: x264_macroblock_write_cabac:cb <- [DW_OP_plus_uconst 8] [$rsp+0]
	#DEBUG_VALUE: i <- 0
	#DEBUG_VALUE: x264_cabac_mb_sub_p_partition:i_sub <- [DW_OP_LLVM_convert 8 7, DW_OP_LLVM_convert 32 7, DW_OP_stack_value] $bpl
	#DEBUG_VALUE: x264_cabac_mb_sub_p_partition:cb <- [DW_OP_plus_uconst 8, DW_OP_deref] $rsp
	.loc	0 0 0                           # x264_src/encoder/cabac.c:0:0
	callq	x264_cabac_encode_decision_c@PLT
.Ltmp251:
	#DEBUG_VALUE: i <- 1
	.loc	0 843 48 is_stmt 1              # x264_src/encoder/cabac.c:843:48
	movzbl	17393(%rbx), %ebp
.Ltmp252:
	#DEBUG_VALUE: x264_cabac_mb_sub_p_partition:i_sub <- [DW_OP_LLVM_convert 8 7, DW_OP_LLVM_convert 32 7, DW_OP_stack_value] $bpl
	#DEBUG_VALUE: x264_cabac_mb_sub_p_partition:cb <- [DW_OP_plus_uconst 8, DW_OP_deref] $rsp
	.loc	0 295 9                         # x264_src/encoder/cabac.c:295:9
	movq	%r13, %rdi
	movl	$21, %esi
.Ltmp253:
	.loc	0 293 15                        # x264_src/encoder/cabac.c:293:15
	cmpb	$3, %bpl
.Ltmp254:
	.loc	0 293 9 is_stmt 0               # x264_src/encoder/cabac.c:293:9
	jne	.LBB1_75
.Ltmp255:
# %bb.74:                               # %if.then.i1063.1
	#DEBUG_VALUE: x264_macroblock_write_cabac:h <- $rbx
	#DEBUG_VALUE: x264_macroblock_write_cabac:cb <- [DW_OP_plus_uconst 8] [$rsp+0]
	#DEBUG_VALUE: i <- 1
	#DEBUG_VALUE: x264_cabac_mb_sub_p_partition:i_sub <- [DW_OP_LLVM_convert 8 7, DW_OP_LLVM_convert 32 7, DW_OP_stack_value] $bpl
	#DEBUG_VALUE: x264_cabac_mb_sub_p_partition:cb <- [DW_OP_plus_uconst 8, DW_OP_deref] $rsp
	.loc	0 295 9 is_stmt 1               # x264_src/encoder/cabac.c:295:9
	movl	$1, %edx
	jmp	.LBB1_78
.Ltmp256:
.LBB1_75:                               # %if.end.i1059.1
	#DEBUG_VALUE: x264_macroblock_write_cabac:h <- $rbx
	#DEBUG_VALUE: x264_macroblock_write_cabac:cb <- [DW_OP_plus_uconst 8] [$rsp+0]
	#DEBUG_VALUE: i <- 1
	#DEBUG_VALUE: x264_cabac_mb_sub_p_partition:i_sub <- [DW_OP_LLVM_convert 8 7, DW_OP_LLVM_convert 32 7, DW_OP_stack_value] $bpl
	#DEBUG_VALUE: x264_cabac_mb_sub_p_partition:cb <- [DW_OP_plus_uconst 8, DW_OP_deref] $rsp
	.loc	0 298 5                         # x264_src/encoder/cabac.c:298:5
	xorl	%edx, %edx
	callq	x264_cabac_encode_decision_c@PLT
.Ltmp257:
	.loc	0 300 9                         # x264_src/encoder/cabac.c:300:9
	movq	%r13, %rdi
	movl	$22, %esi
	.loc	0 299 15                        # x264_src/encoder/cabac.c:299:15
	cmpb	$1, %bpl
.Ltmp258:
	.loc	0 299 9 is_stmt 0               # x264_src/encoder/cabac.c:299:9
	jne	.LBB1_77
.Ltmp259:
# %bb.76:                               # %if.then2.i.1
	#DEBUG_VALUE: x264_macroblock_write_cabac:h <- $rbx
	#DEBUG_VALUE: x264_macroblock_write_cabac:cb <- [DW_OP_plus_uconst 8] [$rsp+0]
	#DEBUG_VALUE: i <- 1
	#DEBUG_VALUE: x264_cabac_mb_sub_p_partition:i_sub <- [DW_OP_LLVM_convert 8 7, DW_OP_LLVM_convert 32 7, DW_OP_stack_value] $bpl
	#DEBUG_VALUE: x264_cabac_mb_sub_p_partition:cb <- [DW_OP_plus_uconst 8, DW_OP_deref] $rsp
	.loc	0 300 9 is_stmt 1               # x264_src/encoder/cabac.c:300:9
	xorl	%edx, %edx
	jmp	.LBB1_78
.Ltmp260:
.LBB1_77:                               # %if.else.i1061.1
	#DEBUG_VALUE: x264_macroblock_write_cabac:h <- $rbx
	#DEBUG_VALUE: x264_macroblock_write_cabac:cb <- [DW_OP_plus_uconst 8] [$rsp+0]
	#DEBUG_VALUE: i <- 1
	#DEBUG_VALUE: x264_cabac_mb_sub_p_partition:i_sub <- [DW_OP_LLVM_convert 8 7, DW_OP_LLVM_convert 32 7, DW_OP_stack_value] $bpl
	#DEBUG_VALUE: x264_cabac_mb_sub_p_partition:cb <- [DW_OP_plus_uconst 8, DW_OP_deref] $rsp
	.loc	0 303 9                         # x264_src/encoder/cabac.c:303:9
	movl	$1, %edx
	callq	x264_cabac_encode_decision_c@PLT
.Ltmp261:
	.loc	0 304 51                        # x264_src/encoder/cabac.c:304:51
	xorl	%edx, %edx
	cmpb	$2, %bpl
	sete	%dl
	.loc	0 304 9 is_stmt 0               # x264_src/encoder/cabac.c:304:9
	movq	%r13, %rdi
	movl	$23, %esi
.Ltmp262:
.LBB1_78:                               # %x264_cabac_mb_sub_p_partition.exit.1
	#DEBUG_VALUE: x264_macroblock_write_cabac:h <- $rbx
	#DEBUG_VALUE: x264_macroblock_write_cabac:cb <- [DW_OP_plus_uconst 8] [$rsp+0]
	#DEBUG_VALUE: i <- 1
	#DEBUG_VALUE: x264_cabac_mb_sub_p_partition:i_sub <- [DW_OP_LLVM_convert 8 7, DW_OP_LLVM_convert 32 7, DW_OP_stack_value] $bpl
	#DEBUG_VALUE: x264_cabac_mb_sub_p_partition:cb <- [DW_OP_plus_uconst 8, DW_OP_deref] $rsp
	.loc	0 0 0                           # x264_src/encoder/cabac.c:0:0
	callq	x264_cabac_encode_decision_c@PLT
.Ltmp263:
	#DEBUG_VALUE: i <- 2
	.loc	0 843 48 is_stmt 1              # x264_src/encoder/cabac.c:843:48
	movzbl	17394(%rbx), %ebp
.Ltmp264:
	#DEBUG_VALUE: x264_cabac_mb_sub_p_partition:i_sub <- [DW_OP_LLVM_convert 8 7, DW_OP_LLVM_convert 32 7, DW_OP_stack_value] $bpl
	#DEBUG_VALUE: x264_cabac_mb_sub_p_partition:cb <- [DW_OP_plus_uconst 8, DW_OP_deref] $rsp
	.loc	0 295 9                         # x264_src/encoder/cabac.c:295:9
	movq	%r13, %rdi
	movl	$21, %esi
.Ltmp265:
	.loc	0 293 15                        # x264_src/encoder/cabac.c:293:15
	cmpb	$3, %bpl
.Ltmp266:
	.loc	0 293 9 is_stmt 0               # x264_src/encoder/cabac.c:293:9
	jne	.LBB1_80
.Ltmp267:
# %bb.79:                               # %if.then.i1063.2
	#DEBUG_VALUE: x264_macroblock_write_cabac:h <- $rbx
	#DEBUG_VALUE: x264_macroblock_write_cabac:cb <- [DW_OP_plus_uconst 8] [$rsp+0]
	#DEBUG_VALUE: i <- 2
	#DEBUG_VALUE: x264_cabac_mb_sub_p_partition:i_sub <- [DW_OP_LLVM_convert 8 7, DW_OP_LLVM_convert 32 7, DW_OP_stack_value] $bpl
	#DEBUG_VALUE: x264_cabac_mb_sub_p_partition:cb <- [DW_OP_plus_uconst 8, DW_OP_deref] $rsp
	.loc	0 295 9 is_stmt 1               # x264_src/encoder/cabac.c:295:9
	movl	$1, %edx
	jmp	.LBB1_83
.Ltmp268:
.LBB1_80:                               # %if.end.i1059.2
	#DEBUG_VALUE: x264_macroblock_write_cabac:h <- $rbx
	#DEBUG_VALUE: x264_macroblock_write_cabac:cb <- [DW_OP_plus_uconst 8] [$rsp+0]
	#DEBUG_VALUE: i <- 2
	#DEBUG_VALUE: x264_cabac_mb_sub_p_partition:i_sub <- [DW_OP_LLVM_convert 8 7, DW_OP_LLVM_convert 32 7, DW_OP_stack_value] $bpl
	#DEBUG_VALUE: x264_cabac_mb_sub_p_partition:cb <- [DW_OP_plus_uconst 8, DW_OP_deref] $rsp
	.loc	0 298 5                         # x264_src/encoder/cabac.c:298:5
	xorl	%edx, %edx
	callq	x264_cabac_encode_decision_c@PLT
.Ltmp269:
	.loc	0 300 9                         # x264_src/encoder/cabac.c:300:9
	movq	%r13, %rdi
	movl	$22, %esi
	.loc	0 299 15                        # x264_src/encoder/cabac.c:299:15
	cmpb	$1, %bpl
.Ltmp270:
	.loc	0 299 9 is_stmt 0               # x264_src/encoder/cabac.c:299:9
	jne	.LBB1_82
.Ltmp271:
# %bb.81:                               # %if.then2.i.2
	#DEBUG_VALUE: x264_macroblock_write_cabac:h <- $rbx
	#DEBUG_VALUE: x264_macroblock_write_cabac:cb <- [DW_OP_plus_uconst 8] [$rsp+0]
	#DEBUG_VALUE: i <- 2
	#DEBUG_VALUE: x264_cabac_mb_sub_p_partition:i_sub <- [DW_OP_LLVM_convert 8 7, DW_OP_LLVM_convert 32 7, DW_OP_stack_value] $bpl
	#DEBUG_VALUE: x264_cabac_mb_sub_p_partition:cb <- [DW_OP_plus_uconst 8, DW_OP_deref] $rsp
	.loc	0 300 9 is_stmt 1               # x264_src/encoder/cabac.c:300:9
	xorl	%edx, %edx
	jmp	.LBB1_83
.Ltmp272:
.LBB1_82:                               # %if.else.i1061.2
	#DEBUG_VALUE: x264_macroblock_write_cabac:h <- $rbx
	#DEBUG_VALUE: x264_macroblock_write_cabac:cb <- [DW_OP_plus_uconst 8] [$rsp+0]
	#DEBUG_VALUE: i <- 2
	#DEBUG_VALUE: x264_cabac_mb_sub_p_partition:i_sub <- [DW_OP_LLVM_convert 8 7, DW_OP_LLVM_convert 32 7, DW_OP_stack_value] $bpl
	#DEBUG_VALUE: x264_cabac_mb_sub_p_partition:cb <- [DW_OP_plus_uconst 8, DW_OP_deref] $rsp
	.loc	0 303 9                         # x264_src/encoder/cabac.c:303:9
	movl	$1, %edx
	callq	x264_cabac_encode_decision_c@PLT
.Ltmp273:
	.loc	0 304 51                        # x264_src/encoder/cabac.c:304:51
	xorl	%edx, %edx
	cmpb	$2, %bpl
	sete	%dl
	.loc	0 304 9 is_stmt 0               # x264_src/encoder/cabac.c:304:9
	movq	%r13, %rdi
	movl	$23, %esi
.Ltmp274:
.LBB1_83:                               # %x264_cabac_mb_sub_p_partition.exit.2
	#DEBUG_VALUE: x264_macroblock_write_cabac:h <- $rbx
	#DEBUG_VALUE: x264_macroblock_write_cabac:cb <- [DW_OP_plus_uconst 8] [$rsp+0]
	#DEBUG_VALUE: i <- 2
	#DEBUG_VALUE: x264_cabac_mb_sub_p_partition:i_sub <- [DW_OP_LLVM_convert 8 7, DW_OP_LLVM_convert 32 7, DW_OP_stack_value] $bpl
	#DEBUG_VALUE: x264_cabac_mb_sub_p_partition:cb <- [DW_OP_plus_uconst 8, DW_OP_deref] $rsp
	.loc	0 0 0                           # x264_src/encoder/cabac.c:0:0
	callq	x264_cabac_encode_decision_c@PLT
.Ltmp275:
	#DEBUG_VALUE: i <- 3
	.loc	0 843 48 is_stmt 1              # x264_src/encoder/cabac.c:843:48
	movzbl	17395(%rbx), %ebp
.Ltmp276:
	#DEBUG_VALUE: x264_cabac_mb_sub_p_partition:i_sub <- [DW_OP_LLVM_convert 8 7, DW_OP_LLVM_convert 32 7, DW_OP_stack_value] $bpl
	#DEBUG_VALUE: x264_cabac_mb_sub_p_partition:cb <- [DW_OP_plus_uconst 8, DW_OP_deref] $rsp
	.loc	0 295 9                         # x264_src/encoder/cabac.c:295:9
	movq	%r13, %rdi
	movl	$21, %esi
.Ltmp277:
	.loc	0 293 15                        # x264_src/encoder/cabac.c:293:15
	cmpb	$3, %bpl
.Ltmp278:
	.loc	0 293 9 is_stmt 0               # x264_src/encoder/cabac.c:293:9
	jne	.LBB1_85
.Ltmp279:
# %bb.84:                               # %if.then.i1063.3
	#DEBUG_VALUE: x264_macroblock_write_cabac:h <- $rbx
	#DEBUG_VALUE: x264_macroblock_write_cabac:cb <- [DW_OP_plus_uconst 8] [$rsp+0]
	#DEBUG_VALUE: i <- 3
	#DEBUG_VALUE: x264_cabac_mb_sub_p_partition:i_sub <- [DW_OP_LLVM_convert 8 7, DW_OP_LLVM_convert 32 7, DW_OP_stack_value] $bpl
	#DEBUG_VALUE: x264_cabac_mb_sub_p_partition:cb <- [DW_OP_plus_uconst 8, DW_OP_deref] $rsp
	.loc	0 295 9 is_stmt 1               # x264_src/encoder/cabac.c:295:9
	movl	$1, %edx
	jmp	.LBB1_88
.Ltmp280:
.LBB1_85:                               # %if.end.i1059.3
	#DEBUG_VALUE: x264_macroblock_write_cabac:h <- $rbx
	#DEBUG_VALUE: x264_macroblock_write_cabac:cb <- [DW_OP_plus_uconst 8] [$rsp+0]
	#DEBUG_VALUE: i <- 3
	#DEBUG_VALUE: x264_cabac_mb_sub_p_partition:i_sub <- [DW_OP_LLVM_convert 8 7, DW_OP_LLVM_convert 32 7, DW_OP_stack_value] $bpl
	#DEBUG_VALUE: x264_cabac_mb_sub_p_partition:cb <- [DW_OP_plus_uconst 8, DW_OP_deref] $rsp
	.loc	0 298 5                         # x264_src/encoder/cabac.c:298:5
	xorl	%edx, %edx
	callq	x264_cabac_encode_decision_c@PLT
.Ltmp281:
	.loc	0 300 9                         # x264_src/encoder/cabac.c:300:9
	movq	%r13, %rdi
	movl	$22, %esi
	.loc	0 299 15                        # x264_src/encoder/cabac.c:299:15
	cmpb	$1, %bpl
.Ltmp282:
	.loc	0 299 9 is_stmt 0               # x264_src/encoder/cabac.c:299:9
	jne	.LBB1_87
.Ltmp283:
# %bb.86:                               # %if.then2.i.3
	#DEBUG_VALUE: x264_macroblock_write_cabac:h <- $rbx
	#DEBUG_VALUE: x264_macroblock_write_cabac:cb <- [DW_OP_plus_uconst 8] [$rsp+0]
	#DEBUG_VALUE: i <- 3
	#DEBUG_VALUE: x264_cabac_mb_sub_p_partition:i_sub <- [DW_OP_LLVM_convert 8 7, DW_OP_LLVM_convert 32 7, DW_OP_stack_value] $bpl
	#DEBUG_VALUE: x264_cabac_mb_sub_p_partition:cb <- [DW_OP_plus_uconst 8, DW_OP_deref] $rsp
	.loc	0 300 9 is_stmt 1               # x264_src/encoder/cabac.c:300:9
	xorl	%edx, %edx
	jmp	.LBB1_88
.Ltmp284:
.LBB1_87:                               # %if.else.i1061.3
	#DEBUG_VALUE: x264_macroblock_write_cabac:h <- $rbx
	#DEBUG_VALUE: x264_macroblock_write_cabac:cb <- [DW_OP_plus_uconst 8] [$rsp+0]
	#DEBUG_VALUE: i <- 3
	#DEBUG_VALUE: x264_cabac_mb_sub_p_partition:i_sub <- [DW_OP_LLVM_convert 8 7, DW_OP_LLVM_convert 32 7, DW_OP_stack_value] $bpl
	#DEBUG_VALUE: x264_cabac_mb_sub_p_partition:cb <- [DW_OP_plus_uconst 8, DW_OP_deref] $rsp
	.loc	0 303 9                         # x264_src/encoder/cabac.c:303:9
	movl	$1, %edx
	callq	x264_cabac_encode_decision_c@PLT
.Ltmp285:
	.loc	0 304 51                        # x264_src/encoder/cabac.c:304:51
	xorl	%edx, %edx
	cmpb	$2, %bpl
	sete	%dl
	.loc	0 304 9 is_stmt 0               # x264_src/encoder/cabac.c:304:9
	movq	%r13, %rdi
	movl	$23, %esi
.Ltmp286:
.LBB1_88:                               # %x264_cabac_mb_sub_p_partition.exit.3
	#DEBUG_VALUE: x264_macroblock_write_cabac:h <- $rbx
	#DEBUG_VALUE: x264_macroblock_write_cabac:cb <- [DW_OP_plus_uconst 8] [$rsp+0]
	#DEBUG_VALUE: i <- 3
	#DEBUG_VALUE: x264_cabac_mb_sub_p_partition:i_sub <- [DW_OP_LLVM_convert 8 7, DW_OP_LLVM_convert 32 7, DW_OP_stack_value] $bpl
	#DEBUG_VALUE: x264_cabac_mb_sub_p_partition:cb <- [DW_OP_plus_uconst 8, DW_OP_deref] $rsp
	.loc	0 0 0                           # x264_src/encoder/cabac.c:0:0
	callq	x264_cabac_encode_decision_c@PLT
.Ltmp287:
	#DEBUG_VALUE: i <- 4
	movl	%r14d, 36(%rsp)                 # 4-byte Spill
.Ltmp288:
	.loc	0 846 33 is_stmt 1              # x264_src/encoder/cabac.c:846:33
	cmpl	$2, 21416(%rbx)
.Ltmp289:
	.loc	0 846 13 is_stmt 0              # x264_src/encoder/cabac.c:846:13
	jl	.LBB1_117
.Ltmp290:
# %bb.89:                               # %if.then167
	#DEBUG_VALUE: x264_macroblock_write_cabac:h <- $rbx
	#DEBUG_VALUE: x264_macroblock_write_cabac:cb <- [DW_OP_plus_uconst 8] [$rsp+0]
	#DEBUG_VALUE: x264_cabac_mb_ref:h <- $rbx
	#DEBUG_VALUE: x264_cabac_mb_ref:cb <- [DW_OP_plus_uconst 8, DW_OP_deref] $rsp
	#DEBUG_VALUE: x264_cabac_mb_ref:i_list <- 0
	#DEBUG_VALUE: x264_cabac_mb_ref:idx <- 0
	#DEBUG_VALUE: x264_cabac_mb_ref:i8 <- 12
	#DEBUG_VALUE: x264_cabac_mb_ref:i_refa <- undef
	.loc	0 338 24 is_stmt 1              # x264_src/encoder/cabac.c:338:24
	movzbl	25124(%rbx), %eax
.Ltmp291:
	#DEBUG_VALUE: x264_cabac_mb_ref:i_refb <- [DW_OP_LLVM_convert 8 5, DW_OP_LLVM_convert 32 5, DW_OP_stack_value] $al
	#DEBUG_VALUE: x264_cabac_mb_ref:ctx <- 0
	.loc	0 341 16                        # x264_src/encoder/cabac.c:341:16
	cmpb	$0, 25131(%rbx)
	.loc	0 341 20 is_stmt 0              # x264_src/encoder/cabac.c:341:20
	jle	.LBB1_251
.Ltmp292:
# %bb.90:                               # %land.lhs.true.i1073
	#DEBUG_VALUE: x264_macroblock_write_cabac:h <- $rbx
	#DEBUG_VALUE: x264_macroblock_write_cabac:cb <- [DW_OP_plus_uconst 8] [$rsp+0]
	#DEBUG_VALUE: x264_cabac_mb_ref:h <- $rbx
	#DEBUG_VALUE: x264_cabac_mb_ref:cb <- [DW_OP_plus_uconst 8, DW_OP_deref] $rsp
	#DEBUG_VALUE: x264_cabac_mb_ref:i_list <- 0
	#DEBUG_VALUE: x264_cabac_mb_ref:idx <- 0
	#DEBUG_VALUE: x264_cabac_mb_ref:i8 <- 12
	#DEBUG_VALUE: x264_cabac_mb_ref:i_refb <- [DW_OP_LLVM_convert 8 5, DW_OP_LLVM_convert 32 5, DW_OP_stack_value] $al
	#DEBUG_VALUE: x264_cabac_mb_ref:ctx <- 0
	.loc	0 341 24                        # x264_src/encoder/cabac.c:341:24
	xorl	%r12d, %r12d
	cmpb	$0, 25691(%rbx)
	sete	%r12b
.Ltmp293:
	#DEBUG_VALUE: x264_cabac_mb_ref:ctx <- $r12d
	.loc	0 343 16 is_stmt 1              # x264_src/encoder/cabac.c:343:16
	testb	%al, %al
	.loc	0 343 20 is_stmt 0              # x264_src/encoder/cabac.c:343:20
	jle	.LBB1_92
.Ltmp294:
.LBB1_91:                               # %land.lhs.true22.i
	#DEBUG_VALUE: x264_macroblock_write_cabac:h <- $rbx
	#DEBUG_VALUE: x264_macroblock_write_cabac:cb <- [DW_OP_plus_uconst 8] [$rsp+0]
	#DEBUG_VALUE: x264_cabac_mb_ref:h <- $rbx
	#DEBUG_VALUE: x264_cabac_mb_ref:cb <- [DW_OP_plus_uconst 8, DW_OP_deref] $rsp
	#DEBUG_VALUE: x264_cabac_mb_ref:i_list <- 0
	#DEBUG_VALUE: x264_cabac_mb_ref:idx <- 0
	#DEBUG_VALUE: x264_cabac_mb_ref:i8 <- 12
	#DEBUG_VALUE: x264_cabac_mb_ref:i_refb <- [DW_OP_LLVM_convert 8 5, DW_OP_LLVM_convert 32 5, DW_OP_stack_value] $al
	#DEBUG_VALUE: x264_cabac_mb_ref:ctx <- $r12d
	.loc	0 343 24                        # x264_src/encoder/cabac.c:343:24
	cmpb	$0, 25684(%rbx)
	leal	2(%r12), %eax
.Ltmp295:
	.loc	0 343 9                         # x264_src/encoder/cabac.c:343:9
	cmovnel	%r12d, %eax
	movl	%eax, %r12d
.Ltmp296:
.LBB1_92:                               # %if.end31.i
	#DEBUG_VALUE: x264_macroblock_write_cabac:h <- $rbx
	#DEBUG_VALUE: x264_macroblock_write_cabac:cb <- [DW_OP_plus_uconst 8] [$rsp+0]
	#DEBUG_VALUE: x264_cabac_mb_ref:h <- $rbx
	#DEBUG_VALUE: x264_cabac_mb_ref:cb <- [DW_OP_plus_uconst 8, DW_OP_deref] $rsp
	#DEBUG_VALUE: x264_cabac_mb_ref:i_list <- 0
	#DEBUG_VALUE: x264_cabac_mb_ref:idx <- 0
	#DEBUG_VALUE: x264_cabac_mb_ref:i8 <- 12
	#DEBUG_VALUE: x264_cabac_mb_ref:ctx <- $r12d
	.loc	0 346 22 is_stmt 1              # x264_src/encoder/cabac.c:346:22
	movsbl	25132(%rbx), %ebp
	testl	%ebp, %ebp
.Ltmp297:
	#DEBUG_VALUE: i_ref <- undef
	.loc	0 346 5 is_stmt 0               # x264_src/encoder/cabac.c:346:5
	jle	.LBB1_95
.Ltmp298:
# %bb.93:                               # %for.body.preheader.i
	#DEBUG_VALUE: x264_macroblock_write_cabac:h <- $rbx
	#DEBUG_VALUE: x264_macroblock_write_cabac:cb <- [DW_OP_plus_uconst 8] [$rsp+0]
	#DEBUG_VALUE: x264_cabac_mb_ref:h <- $rbx
	#DEBUG_VALUE: x264_cabac_mb_ref:cb <- [DW_OP_plus_uconst 8, DW_OP_deref] $rsp
	#DEBUG_VALUE: x264_cabac_mb_ref:i_list <- 0
	#DEBUG_VALUE: x264_cabac_mb_ref:idx <- 0
	#DEBUG_VALUE: x264_cabac_mb_ref:i8 <- 12
	#DEBUG_VALUE: x264_cabac_mb_ref:ctx <- $r12d
	#DEBUG_VALUE: i_ref <- $ebp
	incl	%ebp
.Ltmp299:
	.p2align	4, 0x90
.LBB1_94:                               # %for.body.i
                                        # =>This Inner Loop Header: Depth=1
	#DEBUG_VALUE: x264_macroblock_write_cabac:h <- $rbx
	#DEBUG_VALUE: x264_macroblock_write_cabac:cb <- [DW_OP_plus_uconst 8] [$rsp+0]
	#DEBUG_VALUE: x264_cabac_mb_ref:h <- $rbx
	#DEBUG_VALUE: x264_cabac_mb_ref:cb <- [DW_OP_plus_uconst 8, DW_OP_deref] $rsp
	#DEBUG_VALUE: x264_cabac_mb_ref:i_list <- 0
	#DEBUG_VALUE: x264_cabac_mb_ref:idx <- 0
	#DEBUG_VALUE: x264_cabac_mb_ref:i8 <- 12
	#DEBUG_VALUE: x264_cabac_mb_ref:ctx <- $r12d
	#DEBUG_VALUE: i_ref <- [DW_OP_constu 1, DW_OP_minus, DW_OP_stack_value] $ebp
	#DEBUG_VALUE: x264_cabac_mb_ref:ctx <- $r12d
	.loc	0 348 44 is_stmt 1              # x264_src/encoder/cabac.c:348:44
	leal	54(%r12), %esi
	.loc	0 348 9 is_stmt 0               # x264_src/encoder/cabac.c:348:9
	movq	%r13, %rdi
	movl	$1, %edx
	callq	x264_cabac_encode_decision_c@PLT
.Ltmp300:
	.loc	0 349 19 is_stmt 1              # x264_src/encoder/cabac.c:349:19
	shrl	$2, %r12d
.Ltmp301:
	.loc	0 349 23 is_stmt 0              # x264_src/encoder/cabac.c:349:23
	addl	$4, %r12d
.Ltmp302:
	#DEBUG_VALUE: x264_cabac_mb_ref:ctx <- $r12d
	#DEBUG_VALUE: i_ref <- [DW_OP_constu 2, DW_OP_minus, DW_OP_stack_value] $ebp
	.loc	0 346 57 is_stmt 1              # x264_src/encoder/cabac.c:346:57
	decl	%ebp
.Ltmp303:
	cmpl	$1, %ebp
.Ltmp304:
	.loc	0 346 5 is_stmt 0               # x264_src/encoder/cabac.c:346:5
	ja	.LBB1_94
.Ltmp305:
.LBB1_95:                               # %x264_cabac_mb_ref.exit
	#DEBUG_VALUE: x264_macroblock_write_cabac:h <- $rbx
	#DEBUG_VALUE: x264_macroblock_write_cabac:cb <- [DW_OP_plus_uconst 8] [$rsp+0]
	#DEBUG_VALUE: x264_cabac_mb_ref:h <- $rbx
	#DEBUG_VALUE: x264_cabac_mb_ref:cb <- [DW_OP_plus_uconst 8, DW_OP_deref] $rsp
	#DEBUG_VALUE: x264_cabac_mb_ref:i_list <- 0
	#DEBUG_VALUE: x264_cabac_mb_ref:idx <- 0
	#DEBUG_VALUE: x264_cabac_mb_ref:i8 <- 12
	#DEBUG_VALUE: x264_cabac_mb_ref:ctx <- $r12d
	.loc	0 351 40 is_stmt 1              # x264_src/encoder/cabac.c:351:40
	addl	$54, %r12d
.Ltmp306:
	.loc	0 0 40 is_stmt 0                # x264_src/encoder/cabac.c:0:40
	xorl	%r15d, %r15d
	.loc	0 351 5                         # x264_src/encoder/cabac.c:351:5
	movq	%r13, %rdi
	movl	%r12d, %esi
	xorl	%edx, %edx
	callq	x264_cabac_encode_decision_c@PLT
.Ltmp307:
	#DEBUG_VALUE: x264_cabac_mb_ref:h <- $rbx
	#DEBUG_VALUE: x264_cabac_mb_ref:cb <- [DW_OP_plus_uconst 8, DW_OP_deref] $rsp
	#DEBUG_VALUE: x264_cabac_mb_ref:i_list <- 0
	#DEBUG_VALUE: x264_cabac_mb_ref:idx <- 4
	#DEBUG_VALUE: x264_cabac_mb_ref:i8 <- 14
	#DEBUG_VALUE: x264_cabac_mb_ref:i_refa <- undef
	.loc	0 338 24 is_stmt 1              # x264_src/encoder/cabac.c:338:24
	movzbl	25126(%rbx), %eax
.Ltmp308:
	#DEBUG_VALUE: x264_cabac_mb_ref:i_refb <- [DW_OP_LLVM_convert 8 5, DW_OP_LLVM_convert 32 5, DW_OP_stack_value] $al
	#DEBUG_VALUE: x264_cabac_mb_ref:ctx <- 0
	.loc	0 341 16                        # x264_src/encoder/cabac.c:341:16
	cmpb	$0, 25133(%rbx)
	.loc	0 341 20 is_stmt 0              # x264_src/encoder/cabac.c:341:20
	jle	.LBB1_97
.Ltmp309:
# %bb.96:                               # %land.lhs.true.i1105
	#DEBUG_VALUE: x264_macroblock_write_cabac:h <- $rbx
	#DEBUG_VALUE: x264_macroblock_write_cabac:cb <- [DW_OP_plus_uconst 8] [$rsp+0]
	#DEBUG_VALUE: x264_cabac_mb_ref:h <- $rbx
	#DEBUG_VALUE: x264_cabac_mb_ref:cb <- [DW_OP_plus_uconst 8, DW_OP_deref] $rsp
	#DEBUG_VALUE: x264_cabac_mb_ref:i_list <- 0
	#DEBUG_VALUE: x264_cabac_mb_ref:idx <- 4
	#DEBUG_VALUE: x264_cabac_mb_ref:i8 <- 14
	#DEBUG_VALUE: x264_cabac_mb_ref:i_refb <- [DW_OP_LLVM_convert 8 5, DW_OP_LLVM_convert 32 5, DW_OP_stack_value] $al
	#DEBUG_VALUE: x264_cabac_mb_ref:ctx <- 0
	.loc	0 341 24                        # x264_src/encoder/cabac.c:341:24
	xorl	%r15d, %r15d
	cmpb	$0, 25693(%rbx)
	sete	%r15b
.Ltmp310:
.LBB1_97:                               # %if.end.i1080
	#DEBUG_VALUE: x264_macroblock_write_cabac:h <- $rbx
	#DEBUG_VALUE: x264_macroblock_write_cabac:cb <- [DW_OP_plus_uconst 8] [$rsp+0]
	#DEBUG_VALUE: x264_cabac_mb_ref:h <- $rbx
	#DEBUG_VALUE: x264_cabac_mb_ref:cb <- [DW_OP_plus_uconst 8, DW_OP_deref] $rsp
	#DEBUG_VALUE: x264_cabac_mb_ref:i_list <- 0
	#DEBUG_VALUE: x264_cabac_mb_ref:idx <- 4
	#DEBUG_VALUE: x264_cabac_mb_ref:i8 <- 14
	#DEBUG_VALUE: x264_cabac_mb_ref:i_refb <- [DW_OP_LLVM_convert 8 5, DW_OP_LLVM_convert 32 5, DW_OP_stack_value] $al
	#DEBUG_VALUE: x264_cabac_mb_ref:ctx <- 0
	#DEBUG_VALUE: x264_cabac_mb_ref:ctx <- $r15d
	.loc	0 343 16 is_stmt 1              # x264_src/encoder/cabac.c:343:16
	testb	%al, %al
	.loc	0 343 20 is_stmt 0              # x264_src/encoder/cabac.c:343:20
	jle	.LBB1_99
.Ltmp311:
# %bb.98:                               # %land.lhs.true22.i1099
	#DEBUG_VALUE: x264_macroblock_write_cabac:h <- $rbx
	#DEBUG_VALUE: x264_macroblock_write_cabac:cb <- [DW_OP_plus_uconst 8] [$rsp+0]
	#DEBUG_VALUE: x264_cabac_mb_ref:h <- $rbx
	#DEBUG_VALUE: x264_cabac_mb_ref:cb <- [DW_OP_plus_uconst 8, DW_OP_deref] $rsp
	#DEBUG_VALUE: x264_cabac_mb_ref:i_list <- 0
	#DEBUG_VALUE: x264_cabac_mb_ref:idx <- 4
	#DEBUG_VALUE: x264_cabac_mb_ref:i8 <- 14
	#DEBUG_VALUE: x264_cabac_mb_ref:i_refb <- [DW_OP_LLVM_convert 8 5, DW_OP_LLVM_convert 32 5, DW_OP_stack_value] $al
	#DEBUG_VALUE: x264_cabac_mb_ref:ctx <- $r15d
	.loc	0 343 24                        # x264_src/encoder/cabac.c:343:24
	cmpb	$0, 25686(%rbx)
	leal	2(%r15), %eax
.Ltmp312:
	.loc	0 343 9                         # x264_src/encoder/cabac.c:343:9
	cmovnel	%r15d, %eax
	movl	%eax, %r15d
.Ltmp313:
.LBB1_99:                               # %if.end31.i1083
	#DEBUG_VALUE: x264_macroblock_write_cabac:h <- $rbx
	#DEBUG_VALUE: x264_macroblock_write_cabac:cb <- [DW_OP_plus_uconst 8] [$rsp+0]
	#DEBUG_VALUE: x264_cabac_mb_ref:h <- $rbx
	#DEBUG_VALUE: x264_cabac_mb_ref:cb <- [DW_OP_plus_uconst 8, DW_OP_deref] $rsp
	#DEBUG_VALUE: x264_cabac_mb_ref:i_list <- 0
	#DEBUG_VALUE: x264_cabac_mb_ref:idx <- 4
	#DEBUG_VALUE: x264_cabac_mb_ref:i8 <- 14
	#DEBUG_VALUE: x264_cabac_mb_ref:ctx <- $r15d
	.loc	0 346 22 is_stmt 1              # x264_src/encoder/cabac.c:346:22
	movsbl	25134(%rbx), %ebp
	testl	%ebp, %ebp
.Ltmp314:
	#DEBUG_VALUE: i_ref <- undef
	.loc	0 346 5 is_stmt 0               # x264_src/encoder/cabac.c:346:5
	jle	.LBB1_102
.Ltmp315:
# %bb.100:                              # %for.body.preheader.i1089
	#DEBUG_VALUE: x264_macroblock_write_cabac:h <- $rbx
	#DEBUG_VALUE: x264_macroblock_write_cabac:cb <- [DW_OP_plus_uconst 8] [$rsp+0]
	#DEBUG_VALUE: x264_cabac_mb_ref:h <- $rbx
	#DEBUG_VALUE: x264_cabac_mb_ref:cb <- [DW_OP_plus_uconst 8, DW_OP_deref] $rsp
	#DEBUG_VALUE: x264_cabac_mb_ref:i_list <- 0
	#DEBUG_VALUE: x264_cabac_mb_ref:idx <- 4
	#DEBUG_VALUE: x264_cabac_mb_ref:i8 <- 14
	#DEBUG_VALUE: x264_cabac_mb_ref:ctx <- $r15d
	#DEBUG_VALUE: i_ref <- $ebp
	incl	%ebp
.Ltmp316:
	.p2align	4, 0x90
.LBB1_101:                              # %for.body.i1091
                                        # =>This Inner Loop Header: Depth=1
	#DEBUG_VALUE: x264_macroblock_write_cabac:h <- $rbx
	#DEBUG_VALUE: x264_macroblock_write_cabac:cb <- [DW_OP_plus_uconst 8] [$rsp+0]
	#DEBUG_VALUE: x264_cabac_mb_ref:h <- $rbx
	#DEBUG_VALUE: x264_cabac_mb_ref:cb <- [DW_OP_plus_uconst 8, DW_OP_deref] $rsp
	#DEBUG_VALUE: x264_cabac_mb_ref:i_list <- 0
	#DEBUG_VALUE: x264_cabac_mb_ref:idx <- 4
	#DEBUG_VALUE: x264_cabac_mb_ref:i8 <- 14
	#DEBUG_VALUE: x264_cabac_mb_ref:ctx <- $r15d
	#DEBUG_VALUE: i_ref <- [DW_OP_constu 1, DW_OP_minus, DW_OP_stack_value] $ebp
	#DEBUG_VALUE: x264_cabac_mb_ref:ctx <- $r15d
	.loc	0 348 44 is_stmt 1              # x264_src/encoder/cabac.c:348:44
	leal	54(%r15), %esi
	.loc	0 348 9 is_stmt 0               # x264_src/encoder/cabac.c:348:9
	movq	%r13, %rdi
	movl	$1, %edx
	callq	x264_cabac_encode_decision_c@PLT
.Ltmp317:
	.loc	0 349 19 is_stmt 1              # x264_src/encoder/cabac.c:349:19
	shrl	$2, %r15d
.Ltmp318:
	.loc	0 349 23 is_stmt 0              # x264_src/encoder/cabac.c:349:23
	addl	$4, %r15d
.Ltmp319:
	#DEBUG_VALUE: x264_cabac_mb_ref:ctx <- $r15d
	#DEBUG_VALUE: i_ref <- [DW_OP_constu 2, DW_OP_minus, DW_OP_stack_value] $ebp
	.loc	0 346 57 is_stmt 1              # x264_src/encoder/cabac.c:346:57
	decl	%ebp
.Ltmp320:
	cmpl	$1, %ebp
.Ltmp321:
	.loc	0 346 5 is_stmt 0               # x264_src/encoder/cabac.c:346:5
	ja	.LBB1_101
.Ltmp322:
.LBB1_102:                              # %x264_cabac_mb_ref.exit1110
	#DEBUG_VALUE: x264_macroblock_write_cabac:h <- $rbx
	#DEBUG_VALUE: x264_macroblock_write_cabac:cb <- [DW_OP_plus_uconst 8] [$rsp+0]
	#DEBUG_VALUE: x264_cabac_mb_ref:h <- $rbx
	#DEBUG_VALUE: x264_cabac_mb_ref:cb <- [DW_OP_plus_uconst 8, DW_OP_deref] $rsp
	#DEBUG_VALUE: x264_cabac_mb_ref:i_list <- 0
	#DEBUG_VALUE: x264_cabac_mb_ref:idx <- 4
	#DEBUG_VALUE: x264_cabac_mb_ref:i8 <- 14
	#DEBUG_VALUE: x264_cabac_mb_ref:ctx <- $r15d
	.loc	0 351 40 is_stmt 1              # x264_src/encoder/cabac.c:351:40
	addl	$54, %r15d
.Ltmp323:
	.loc	0 0 40 is_stmt 0                # x264_src/encoder/cabac.c:0:40
	xorl	%r12d, %r12d
	.loc	0 351 5                         # x264_src/encoder/cabac.c:351:5
	movq	%r13, %rdi
	movl	%r15d, %esi
	xorl	%edx, %edx
	callq	x264_cabac_encode_decision_c@PLT
.Ltmp324:
	#DEBUG_VALUE: x264_cabac_mb_ref:h <- $rbx
	#DEBUG_VALUE: x264_cabac_mb_ref:cb <- [DW_OP_plus_uconst 8, DW_OP_deref] $rsp
	#DEBUG_VALUE: x264_cabac_mb_ref:i_list <- 0
	#DEBUG_VALUE: x264_cabac_mb_ref:idx <- 8
	#DEBUG_VALUE: x264_cabac_mb_ref:i8 <- 28
	#DEBUG_VALUE: x264_cabac_mb_ref:i_refa <- undef
	.loc	0 338 24 is_stmt 1              # x264_src/encoder/cabac.c:338:24
	movzbl	25140(%rbx), %eax
.Ltmp325:
	#DEBUG_VALUE: x264_cabac_mb_ref:i_refb <- [DW_OP_LLVM_convert 8 5, DW_OP_LLVM_convert 32 5, DW_OP_stack_value] $al
	#DEBUG_VALUE: x264_cabac_mb_ref:ctx <- 0
	.loc	0 341 16                        # x264_src/encoder/cabac.c:341:16
	cmpb	$0, 25147(%rbx)
	.loc	0 341 20 is_stmt 0              # x264_src/encoder/cabac.c:341:20
	jle	.LBB1_104
.Ltmp326:
# %bb.103:                              # %land.lhs.true.i1140
	#DEBUG_VALUE: x264_macroblock_write_cabac:h <- $rbx
	#DEBUG_VALUE: x264_macroblock_write_cabac:cb <- [DW_OP_plus_uconst 8] [$rsp+0]
	#DEBUG_VALUE: x264_cabac_mb_ref:h <- $rbx
	#DEBUG_VALUE: x264_cabac_mb_ref:cb <- [DW_OP_plus_uconst 8, DW_OP_deref] $rsp
	#DEBUG_VALUE: x264_cabac_mb_ref:i_list <- 0
	#DEBUG_VALUE: x264_cabac_mb_ref:idx <- 8
	#DEBUG_VALUE: x264_cabac_mb_ref:i8 <- 28
	#DEBUG_VALUE: x264_cabac_mb_ref:i_refb <- [DW_OP_LLVM_convert 8 5, DW_OP_LLVM_convert 32 5, DW_OP_stack_value] $al
	#DEBUG_VALUE: x264_cabac_mb_ref:ctx <- 0
	.loc	0 341 24                        # x264_src/encoder/cabac.c:341:24
	xorl	%r12d, %r12d
	cmpb	$0, 25707(%rbx)
	sete	%r12b
.Ltmp327:
.LBB1_104:                              # %if.end.i1115
	#DEBUG_VALUE: x264_macroblock_write_cabac:h <- $rbx
	#DEBUG_VALUE: x264_macroblock_write_cabac:cb <- [DW_OP_plus_uconst 8] [$rsp+0]
	#DEBUG_VALUE: x264_cabac_mb_ref:h <- $rbx
	#DEBUG_VALUE: x264_cabac_mb_ref:cb <- [DW_OP_plus_uconst 8, DW_OP_deref] $rsp
	#DEBUG_VALUE: x264_cabac_mb_ref:i_list <- 0
	#DEBUG_VALUE: x264_cabac_mb_ref:idx <- 8
	#DEBUG_VALUE: x264_cabac_mb_ref:i8 <- 28
	#DEBUG_VALUE: x264_cabac_mb_ref:i_refb <- [DW_OP_LLVM_convert 8 5, DW_OP_LLVM_convert 32 5, DW_OP_stack_value] $al
	#DEBUG_VALUE: x264_cabac_mb_ref:ctx <- 0
	#DEBUG_VALUE: x264_cabac_mb_ref:ctx <- $r12d
	.loc	0 343 16 is_stmt 1              # x264_src/encoder/cabac.c:343:16
	testb	%al, %al
	.loc	0 343 20 is_stmt 0              # x264_src/encoder/cabac.c:343:20
	jle	.LBB1_106
.Ltmp328:
# %bb.105:                              # %land.lhs.true22.i1134
	#DEBUG_VALUE: x264_macroblock_write_cabac:h <- $rbx
	#DEBUG_VALUE: x264_macroblock_write_cabac:cb <- [DW_OP_plus_uconst 8] [$rsp+0]
	#DEBUG_VALUE: x264_cabac_mb_ref:h <- $rbx
	#DEBUG_VALUE: x264_cabac_mb_ref:cb <- [DW_OP_plus_uconst 8, DW_OP_deref] $rsp
	#DEBUG_VALUE: x264_cabac_mb_ref:i_list <- 0
	#DEBUG_VALUE: x264_cabac_mb_ref:idx <- 8
	#DEBUG_VALUE: x264_cabac_mb_ref:i8 <- 28
	#DEBUG_VALUE: x264_cabac_mb_ref:i_refb <- [DW_OP_LLVM_convert 8 5, DW_OP_LLVM_convert 32 5, DW_OP_stack_value] $al
	#DEBUG_VALUE: x264_cabac_mb_ref:ctx <- $r12d
	.loc	0 343 24                        # x264_src/encoder/cabac.c:343:24
	cmpb	$0, 25700(%rbx)
	leal	2(%r12), %eax
.Ltmp329:
	.loc	0 343 9                         # x264_src/encoder/cabac.c:343:9
	cmovnel	%r12d, %eax
	movl	%eax, %r12d
.Ltmp330:
.LBB1_106:                              # %if.end31.i1118
	#DEBUG_VALUE: x264_macroblock_write_cabac:h <- $rbx
	#DEBUG_VALUE: x264_macroblock_write_cabac:cb <- [DW_OP_plus_uconst 8] [$rsp+0]
	#DEBUG_VALUE: x264_cabac_mb_ref:h <- $rbx
	#DEBUG_VALUE: x264_cabac_mb_ref:cb <- [DW_OP_plus_uconst 8, DW_OP_deref] $rsp
	#DEBUG_VALUE: x264_cabac_mb_ref:i_list <- 0
	#DEBUG_VALUE: x264_cabac_mb_ref:idx <- 8
	#DEBUG_VALUE: x264_cabac_mb_ref:i8 <- 28
	#DEBUG_VALUE: x264_cabac_mb_ref:ctx <- $r12d
	.loc	0 346 22 is_stmt 1              # x264_src/encoder/cabac.c:346:22
	movsbl	25148(%rbx), %ebp
	testl	%ebp, %ebp
.Ltmp331:
	#DEBUG_VALUE: i_ref <- undef
	.loc	0 346 5 is_stmt 0               # x264_src/encoder/cabac.c:346:5
	jle	.LBB1_109
.Ltmp332:
# %bb.107:                              # %for.body.preheader.i1124
	#DEBUG_VALUE: x264_macroblock_write_cabac:h <- $rbx
	#DEBUG_VALUE: x264_macroblock_write_cabac:cb <- [DW_OP_plus_uconst 8] [$rsp+0]
	#DEBUG_VALUE: x264_cabac_mb_ref:h <- $rbx
	#DEBUG_VALUE: x264_cabac_mb_ref:cb <- [DW_OP_plus_uconst 8, DW_OP_deref] $rsp
	#DEBUG_VALUE: x264_cabac_mb_ref:i_list <- 0
	#DEBUG_VALUE: x264_cabac_mb_ref:idx <- 8
	#DEBUG_VALUE: x264_cabac_mb_ref:i8 <- 28
	#DEBUG_VALUE: x264_cabac_mb_ref:ctx <- $r12d
	#DEBUG_VALUE: i_ref <- $ebp
	incl	%ebp
.Ltmp333:
	.p2align	4, 0x90
.LBB1_108:                              # %for.body.i1126
                                        # =>This Inner Loop Header: Depth=1
	#DEBUG_VALUE: x264_macroblock_write_cabac:h <- $rbx
	#DEBUG_VALUE: x264_macroblock_write_cabac:cb <- [DW_OP_plus_uconst 8] [$rsp+0]
	#DEBUG_VALUE: x264_cabac_mb_ref:h <- $rbx
	#DEBUG_VALUE: x264_cabac_mb_ref:cb <- [DW_OP_plus_uconst 8, DW_OP_deref] $rsp
	#DEBUG_VALUE: x264_cabac_mb_ref:i_list <- 0
	#DEBUG_VALUE: x264_cabac_mb_ref:idx <- 8
	#DEBUG_VALUE: x264_cabac_mb_ref:i8 <- 28
	#DEBUG_VALUE: x264_cabac_mb_ref:ctx <- $r12d
	#DEBUG_VALUE: i_ref <- [DW_OP_constu 1, DW_OP_minus, DW_OP_stack_value] $ebp
	#DEBUG_VALUE: x264_cabac_mb_ref:ctx <- $r12d
	.loc	0 348 44 is_stmt 1              # x264_src/encoder/cabac.c:348:44
	leal	54(%r12), %esi
	.loc	0 348 9 is_stmt 0               # x264_src/encoder/cabac.c:348:9
	movq	%r13, %rdi
	movl	$1, %edx
	callq	x264_cabac_encode_decision_c@PLT
.Ltmp334:
	.loc	0 349 19 is_stmt 1              # x264_src/encoder/cabac.c:349:19
	shrl	$2, %r12d
.Ltmp335:
	.loc	0 349 23 is_stmt 0              # x264_src/encoder/cabac.c:349:23
	addl	$4, %r12d
.Ltmp336:
	#DEBUG_VALUE: x264_cabac_mb_ref:ctx <- $r12d
	#DEBUG_VALUE: i_ref <- [DW_OP_constu 2, DW_OP_minus, DW_OP_stack_value] $ebp
	.loc	0 346 57 is_stmt 1              # x264_src/encoder/cabac.c:346:57
	decl	%ebp
.Ltmp337:
	cmpl	$1, %ebp
.Ltmp338:
	.loc	0 346 5 is_stmt 0               # x264_src/encoder/cabac.c:346:5
	ja	.LBB1_108
.Ltmp339:
.LBB1_109:                              # %x264_cabac_mb_ref.exit1145
	#DEBUG_VALUE: x264_macroblock_write_cabac:h <- $rbx
	#DEBUG_VALUE: x264_macroblock_write_cabac:cb <- [DW_OP_plus_uconst 8] [$rsp+0]
	#DEBUG_VALUE: x264_cabac_mb_ref:h <- $rbx
	#DEBUG_VALUE: x264_cabac_mb_ref:cb <- [DW_OP_plus_uconst 8, DW_OP_deref] $rsp
	#DEBUG_VALUE: x264_cabac_mb_ref:i_list <- 0
	#DEBUG_VALUE: x264_cabac_mb_ref:idx <- 8
	#DEBUG_VALUE: x264_cabac_mb_ref:i8 <- 28
	#DEBUG_VALUE: x264_cabac_mb_ref:ctx <- $r12d
	.loc	0 351 40 is_stmt 1              # x264_src/encoder/cabac.c:351:40
	addl	$54, %r12d
.Ltmp340:
	.loc	0 0 40 is_stmt 0                # x264_src/encoder/cabac.c:0:40
	xorl	%r15d, %r15d
	.loc	0 351 5                         # x264_src/encoder/cabac.c:351:5
	movq	%r13, %rdi
	movl	%r12d, %esi
	xorl	%edx, %edx
	callq	x264_cabac_encode_decision_c@PLT
.Ltmp341:
	#DEBUG_VALUE: x264_cabac_mb_ref:h <- $rbx
	#DEBUG_VALUE: x264_cabac_mb_ref:cb <- [DW_OP_plus_uconst 8, DW_OP_deref] $rsp
	#DEBUG_VALUE: x264_cabac_mb_ref:i_list <- 0
	#DEBUG_VALUE: x264_cabac_mb_ref:idx <- 12
	#DEBUG_VALUE: x264_cabac_mb_ref:i8 <- 30
	#DEBUG_VALUE: x264_cabac_mb_ref:i_refa <- undef
	.loc	0 338 24 is_stmt 1              # x264_src/encoder/cabac.c:338:24
	movzbl	25142(%rbx), %eax
.Ltmp342:
	#DEBUG_VALUE: x264_cabac_mb_ref:i_refb <- [DW_OP_LLVM_convert 8 5, DW_OP_LLVM_convert 32 5, DW_OP_stack_value] $al
	#DEBUG_VALUE: x264_cabac_mb_ref:ctx <- 0
	.loc	0 341 16                        # x264_src/encoder/cabac.c:341:16
	cmpb	$0, 25149(%rbx)
	.loc	0 341 20 is_stmt 0              # x264_src/encoder/cabac.c:341:20
	jle	.LBB1_111
.Ltmp343:
# %bb.110:                              # %land.lhs.true.i1175
	#DEBUG_VALUE: x264_macroblock_write_cabac:h <- $rbx
	#DEBUG_VALUE: x264_macroblock_write_cabac:cb <- [DW_OP_plus_uconst 8] [$rsp+0]
	#DEBUG_VALUE: x264_cabac_mb_ref:h <- $rbx
	#DEBUG_VALUE: x264_cabac_mb_ref:cb <- [DW_OP_plus_uconst 8, DW_OP_deref] $rsp
	#DEBUG_VALUE: x264_cabac_mb_ref:i_list <- 0
	#DEBUG_VALUE: x264_cabac_mb_ref:idx <- 12
	#DEBUG_VALUE: x264_cabac_mb_ref:i8 <- 30
	#DEBUG_VALUE: x264_cabac_mb_ref:i_refb <- [DW_OP_LLVM_convert 8 5, DW_OP_LLVM_convert 32 5, DW_OP_stack_value] $al
	#DEBUG_VALUE: x264_cabac_mb_ref:ctx <- 0
	.loc	0 341 24                        # x264_src/encoder/cabac.c:341:24
	xorl	%r15d, %r15d
	cmpb	$0, 25709(%rbx)
	sete	%r15b
.Ltmp344:
.LBB1_111:                              # %if.end.i1150
	#DEBUG_VALUE: x264_macroblock_write_cabac:h <- $rbx
	#DEBUG_VALUE: x264_macroblock_write_cabac:cb <- [DW_OP_plus_uconst 8] [$rsp+0]
	#DEBUG_VALUE: x264_cabac_mb_ref:h <- $rbx
	#DEBUG_VALUE: x264_cabac_mb_ref:cb <- [DW_OP_plus_uconst 8, DW_OP_deref] $rsp
	#DEBUG_VALUE: x264_cabac_mb_ref:i_list <- 0
	#DEBUG_VALUE: x264_cabac_mb_ref:idx <- 12
	#DEBUG_VALUE: x264_cabac_mb_ref:i8 <- 30
	#DEBUG_VALUE: x264_cabac_mb_ref:i_refb <- [DW_OP_LLVM_convert 8 5, DW_OP_LLVM_convert 32 5, DW_OP_stack_value] $al
	#DEBUG_VALUE: x264_cabac_mb_ref:ctx <- 0
	#DEBUG_VALUE: x264_cabac_mb_ref:ctx <- $r15d
	.loc	0 343 16 is_stmt 1              # x264_src/encoder/cabac.c:343:16
	testb	%al, %al
	.loc	0 343 20 is_stmt 0              # x264_src/encoder/cabac.c:343:20
	jle	.LBB1_113
.Ltmp345:
# %bb.112:                              # %land.lhs.true22.i1169
	#DEBUG_VALUE: x264_macroblock_write_cabac:h <- $rbx
	#DEBUG_VALUE: x264_macroblock_write_cabac:cb <- [DW_OP_plus_uconst 8] [$rsp+0]
	#DEBUG_VALUE: x264_cabac_mb_ref:h <- $rbx
	#DEBUG_VALUE: x264_cabac_mb_ref:cb <- [DW_OP_plus_uconst 8, DW_OP_deref] $rsp
	#DEBUG_VALUE: x264_cabac_mb_ref:i_list <- 0
	#DEBUG_VALUE: x264_cabac_mb_ref:idx <- 12
	#DEBUG_VALUE: x264_cabac_mb_ref:i8 <- 30
	#DEBUG_VALUE: x264_cabac_mb_ref:i_refb <- [DW_OP_LLVM_convert 8 5, DW_OP_LLVM_convert 32 5, DW_OP_stack_value] $al
	#DEBUG_VALUE: x264_cabac_mb_ref:ctx <- $r15d
	.loc	0 343 24                        # x264_src/encoder/cabac.c:343:24
	cmpb	$0, 25702(%rbx)
	leal	2(%r15), %eax
.Ltmp346:
	.loc	0 343 9                         # x264_src/encoder/cabac.c:343:9
	cmovnel	%r15d, %eax
	movl	%eax, %r15d
.Ltmp347:
.LBB1_113:                              # %if.end31.i1153
	#DEBUG_VALUE: x264_macroblock_write_cabac:h <- $rbx
	#DEBUG_VALUE: x264_macroblock_write_cabac:cb <- [DW_OP_plus_uconst 8] [$rsp+0]
	#DEBUG_VALUE: x264_cabac_mb_ref:h <- $rbx
	#DEBUG_VALUE: x264_cabac_mb_ref:cb <- [DW_OP_plus_uconst 8, DW_OP_deref] $rsp
	#DEBUG_VALUE: x264_cabac_mb_ref:i_list <- 0
	#DEBUG_VALUE: x264_cabac_mb_ref:idx <- 12
	#DEBUG_VALUE: x264_cabac_mb_ref:i8 <- 30
	#DEBUG_VALUE: x264_cabac_mb_ref:ctx <- $r15d
	.loc	0 346 22 is_stmt 1              # x264_src/encoder/cabac.c:346:22
	movsbl	25150(%rbx), %ebp
	testl	%ebp, %ebp
.Ltmp348:
	#DEBUG_VALUE: i_ref <- undef
	.loc	0 346 5 is_stmt 0               # x264_src/encoder/cabac.c:346:5
	jle	.LBB1_116
.Ltmp349:
# %bb.114:                              # %for.body.preheader.i1159
	#DEBUG_VALUE: x264_macroblock_write_cabac:h <- $rbx
	#DEBUG_VALUE: x264_macroblock_write_cabac:cb <- [DW_OP_plus_uconst 8] [$rsp+0]
	#DEBUG_VALUE: x264_cabac_mb_ref:h <- $rbx
	#DEBUG_VALUE: x264_cabac_mb_ref:cb <- [DW_OP_plus_uconst 8, DW_OP_deref] $rsp
	#DEBUG_VALUE: x264_cabac_mb_ref:i_list <- 0
	#DEBUG_VALUE: x264_cabac_mb_ref:idx <- 12
	#DEBUG_VALUE: x264_cabac_mb_ref:i8 <- 30
	#DEBUG_VALUE: x264_cabac_mb_ref:ctx <- $r15d
	#DEBUG_VALUE: i_ref <- $ebp
	incl	%ebp
.Ltmp350:
	.p2align	4, 0x90
.LBB1_115:                              # %for.body.i1161
                                        # =>This Inner Loop Header: Depth=1
	#DEBUG_VALUE: x264_macroblock_write_cabac:h <- $rbx
	#DEBUG_VALUE: x264_macroblock_write_cabac:cb <- [DW_OP_plus_uconst 8] [$rsp+0]
	#DEBUG_VALUE: x264_cabac_mb_ref:h <- $rbx
	#DEBUG_VALUE: x264_cabac_mb_ref:cb <- [DW_OP_plus_uconst 8, DW_OP_deref] $rsp
	#DEBUG_VALUE: x264_cabac_mb_ref:i_list <- 0
	#DEBUG_VALUE: x264_cabac_mb_ref:idx <- 12
	#DEBUG_VALUE: x264_cabac_mb_ref:i8 <- 30
	#DEBUG_VALUE: x264_cabac_mb_ref:ctx <- $r15d
	#DEBUG_VALUE: i_ref <- [DW_OP_constu 1, DW_OP_minus, DW_OP_stack_value] $ebp
	#DEBUG_VALUE: x264_cabac_mb_ref:ctx <- $r15d
	.loc	0 348 44 is_stmt 1              # x264_src/encoder/cabac.c:348:44
	leal	54(%r15), %esi
	.loc	0 348 9 is_stmt 0               # x264_src/encoder/cabac.c:348:9
	movq	%r13, %rdi
	movl	$1, %edx
	callq	x264_cabac_encode_decision_c@PLT
.Ltmp351:
	.loc	0 349 19 is_stmt 1              # x264_src/encoder/cabac.c:349:19
	shrl	$2, %r15d
.Ltmp352:
	.loc	0 349 23 is_stmt 0              # x264_src/encoder/cabac.c:349:23
	addl	$4, %r15d
.Ltmp353:
	#DEBUG_VALUE: x264_cabac_mb_ref:ctx <- $r15d
	#DEBUG_VALUE: i_ref <- [DW_OP_constu 2, DW_OP_minus, DW_OP_stack_value] $ebp
	.loc	0 346 57 is_stmt 1              # x264_src/encoder/cabac.c:346:57
	decl	%ebp
.Ltmp354:
	cmpl	$1, %ebp
.Ltmp355:
	.loc	0 346 5 is_stmt 0               # x264_src/encoder/cabac.c:346:5
	ja	.LBB1_115
.Ltmp356:
.LBB1_116:                              # %x264_cabac_mb_ref.exit1180
	#DEBUG_VALUE: x264_macroblock_write_cabac:h <- $rbx
	#DEBUG_VALUE: x264_macroblock_write_cabac:cb <- [DW_OP_plus_uconst 8] [$rsp+0]
	#DEBUG_VALUE: x264_cabac_mb_ref:h <- $rbx
	#DEBUG_VALUE: x264_cabac_mb_ref:cb <- [DW_OP_plus_uconst 8, DW_OP_deref] $rsp
	#DEBUG_VALUE: x264_cabac_mb_ref:i_list <- 0
	#DEBUG_VALUE: x264_cabac_mb_ref:idx <- 12
	#DEBUG_VALUE: x264_cabac_mb_ref:i8 <- 30
	#DEBUG_VALUE: x264_cabac_mb_ref:ctx <- $r15d
	.loc	0 351 40 is_stmt 1              # x264_src/encoder/cabac.c:351:40
	addl	$54, %r15d
.Ltmp357:
	.loc	0 351 5 is_stmt 0               # x264_src/encoder/cabac.c:351:5
	movq	%r13, %rdi
	movl	%r15d, %esi
	xorl	%edx, %edx
	callq	x264_cabac_encode_decision_c@PLT
.Ltmp358:
.LBB1_117:                              # %if.end168
	#DEBUG_VALUE: x264_macroblock_write_cabac:h <- $rbx
	#DEBUG_VALUE: x264_macroblock_write_cabac:cb <- [DW_OP_plus_uconst 8] [$rsp+0]
	.loc	0 0 5                           # x264_src/encoder/cabac.c:0:5
	leaq	17392(%rbx), %r15
	movq	$-16, %r14
	#DEBUG_VALUE: i <- 0
	jmp	.LBB1_120
.Ltmp359:
	.p2align	4, 0x90
.LBB1_118:                              # %do.body42.i
                                        #   in Loop: Header=BB1_120 Depth=1
	#DEBUG_VALUE: x264_macroblock_write_cabac:h <- $rbx
	#DEBUG_VALUE: x264_macroblock_write_cabac:cb <- [DW_OP_plus_uconst 8] [$rsp+0]
	#DEBUG_VALUE: i <- [DW_OP_consts 18446744073709551600, DW_OP_minus, DW_OP_consts 4, DW_OP_div, DW_OP_stack_value] $r14
	#DEBUG_VALUE: x264_cabac_mb8x8_mvd:h <- $rbx
	#DEBUG_VALUE: x264_cabac_mb8x8_mvd:cb <- [DW_OP_plus_uconst 8, DW_OP_deref] $rsp
	#DEBUG_VALUE: x264_cabac_mb8x8_mvd:i <- [DW_OP_consts 18446744073709551600, DW_OP_minus, DW_OP_consts 4, DW_OP_div, DW_OP_stack_value] $r14
	#DEBUG_VALUE: x264_cabac_mb_mvd:mvp <- [DW_OP_plus_uconst 4, DW_OP_deref] $rsp
	#DEBUG_VALUE: x264_cabac_mb_mvd:h <- $rbx
	#DEBUG_VALUE: x264_cabac_mb_mvd:cb <- [DW_OP_plus_uconst 8, DW_OP_deref] $rsp
	#DEBUG_VALUE: x264_cabac_mb_mvd:i_list <- 0
	#DEBUG_VALUE: x264_cabac_mb_mvd:idx <- [DW_OP_plus_uconst 16, DW_OP_stack_value] $r14
	#DEBUG_VALUE: x264_cabac_mb_mvd:width <- 1
	.loc	0 423 5 is_stmt 1               # x264_src/encoder/cabac.c:423:5
	leal	16(%r14), %edx
	movq	%rbx, %rdi
	xorl	%esi, %esi
	movl	$1, %ecx
	leaq	4(%rsp), %r8
	callq	x264_mb_predict_mv@PLT
.Ltmp360:
	.loc	0 424 34                        # x264_src/encoder/cabac.c:424:34
	movslq	x264_scan8+64(,%r14,4), %rax
	.loc	0 424 11 is_stmt 0              # x264_src/encoder/cabac.c:424:11
	movswl	25200(%rbx,%rax,4), %edx
	.loc	0 424 56                        # x264_src/encoder/cabac.c:424:56
	movswl	4(%rsp), %ecx
	.loc	0 424 54                        # x264_src/encoder/cabac.c:424:54
	subl	%ecx, %edx
.Ltmp361:
	#DEBUG_VALUE: x264_cabac_mb_mvd:mdx <- $edx
	.loc	0 425 11 is_stmt 1              # x264_src/encoder/cabac.c:425:11
	movswl	25202(%rbx,%rax,4), %ebp
	.loc	0 425 56 is_stmt 0              # x264_src/encoder/cabac.c:425:56
	movswl	6(%rsp), %ecx
	.loc	0 425 54                        # x264_src/encoder/cabac.c:425:54
	subl	%ecx, %ebp
.Ltmp362:
	#DEBUG_VALUE: x264_cabac_mb_mvd:mdy <- $ebp
	.loc	0 426 21 is_stmt 1              # x264_src/encoder/cabac.c:426:21
	movzbl	25518(%rbx,%rax,2), %ecx
	movzbl	25519(%rbx,%rax,2), %esi
	movzbl	25504(%rbx,%rax,2), %edi
.Ltmp363:
	.loc	5 239 33                        # x264_src/common/common.h:239:33
	addl	%ecx, %edi
.Ltmp364:
	.loc	0 426 21                        # x264_src/encoder/cabac.c:426:21
	movzbl	25505(%rbx,%rax,2), %eax
.Ltmp365:
	#DEBUG_VALUE: x264_cabac_mvd_sum:mvdleft <- undef
	#DEBUG_VALUE: x264_cabac_mvd_sum:mvdtop <- undef
	#DEBUG_VALUE: x264_cabac_mvd_sum:amvd0 <- $edi
	.loc	5 240 33                        # x264_src/common/common.h:240:33
	addl	%esi, %eax
.Ltmp366:
	#DEBUG_VALUE: x264_cabac_mvd_sum:amvd1 <- $eax
	.loc	5 241 20                        # x264_src/common/common.h:241:20
	xorl	%ecx, %ecx
	cmpl	$3, %edi
	setae	%cl
.Ltmp367:
	#DEBUG_VALUE: x264_cabac_mvd_sum:amvd0 <- undef
	.loc	5 241 34 is_stmt 0              # x264_src/common/common.h:241:34
	cmpl	$33, %edi
	.loc	5 241 25                        # x264_src/common/common.h:241:25
	sbbl	$-1, %ecx
	.loc	5 242 20 is_stmt 1              # x264_src/common/common.h:242:20
	xorl	%r12d, %r12d
	cmpl	$3, %eax
	setae	%r12b
.Ltmp368:
	#DEBUG_VALUE: x264_cabac_mvd_sum:amvd1 <- undef
	.loc	5 242 34 is_stmt 0              # x264_src/common/common.h:242:34
	cmpl	$33, %eax
	.loc	5 242 25                        # x264_src/common/common.h:242:25
	sbbl	$-1, %r12d
.Ltmp369:
	#DEBUG_VALUE: x264_cabac_mb_mvd:amvd <- [DW_OP_LLVM_arg 0, DW_OP_constu 8, DW_OP_shl, DW_OP_LLVM_arg 1, DW_OP_or, DW_OP_stack_value] $r12d, $ecx
	.loc	0 430 11 is_stmt 1              # x264_src/encoder/cabac.c:430:11
	movq	%r13, %rdi
	xorl	%esi, %esi
	callq	x264_cabac_mb_mvd_cpn
.Ltmp370:
	movl	%eax, %r13d
.Ltmp371:
	#DEBUG_VALUE: x264_cabac_mb_mvd:mdx <- $r13d
	#DEBUG_VALUE: pack8to16:a <- $r13d
	.loc	0 0 11 is_stmt 0                # x264_src/encoder/cabac.c:0:11
	movq	8(%rsp), %rdi                   # 8-byte Reload
	.loc	0 431 11 is_stmt 1              # x264_src/encoder/cabac.c:431:11
	movl	$1, %esi
	movl	%ebp, %edx
	movl	%r12d, %ecx
	callq	x264_cabac_mb_mvd_cpn
.Ltmp372:
	#DEBUG_VALUE: x264_cabac_mb_mvd:mdy <- $eax
	#DEBUG_VALUE: pack8to16:b <- $eax
	.loc	6 329 17                        # x264_src/common/macroblock.h:329:17
	shll	$8, %eax
.Ltmp373:
	.loc	6 329 13 is_stmt 0              # x264_src/common/macroblock.h:329:13
	addl	%r13d, %eax
.Ltmp374:
	#DEBUG_VALUE: mvd <- $ax
	.loc	0 455 13 is_stmt 1              # x264_src/encoder/cabac.c:455:13
	movzbl	block_idx_x+16(%r14), %ecx
	movzbl	block_idx_y+16(%r14), %edx
.Ltmp375:
	#DEBUG_VALUE: x264_macroblock_cache_mvd:h <- $rbx
	#DEBUG_VALUE: x264_macroblock_cache_mvd:x <- undef
	#DEBUG_VALUE: x264_macroblock_cache_mvd:y <- undef
	#DEBUG_VALUE: x264_macroblock_cache_mvd:width <- 1
	#DEBUG_VALUE: x264_macroblock_cache_mvd:height <- 2
	#DEBUG_VALUE: x264_macroblock_cache_mvd:i_list <- 0
	#DEBUG_VALUE: x264_macroblock_cache_mvd:mvd <- $ax
	.loc	8 120 60                        # x264_src/common/rectangle.h:120:60
	leal	(%rcx,%rdx,8), %ecx
.Ltmp376:
	#DEBUG_VALUE: x264_macroblock_cache_rect:w <- [DW_OP_constu 1, DW_OP_shl, DW_OP_stack_value] 1
	#DEBUG_VALUE: x264_macroblock_cache_rect:h <- 2
	#DEBUG_VALUE: x264_macroblock_cache_rect:v <- [DW_OP_LLVM_convert 16 7, DW_OP_LLVM_convert 32 7, DW_OP_stack_value] $ax
	#DEBUG_VALUE: x264_macroblock_cache_rect:v2 <- $ax
	#DEBUG_VALUE: x264_macroblock_cache_rect:v4 <- [DW_OP_LLVM_convert 16 7, DW_OP_LLVM_convert 32 7, DW_OP_constu 65537, DW_OP_mul, DW_OP_stack_value] $ax
	#DEBUG_VALUE: x264_macroblock_cache_rect:v8 <- [DW_OP_LLVM_convert 16 7, DW_OP_LLVM_convert 32 7, DW_OP_constu 65537, DW_OP_mul, DW_OP_LLVM_convert 32 7, DW_OP_LLVM_convert 64 7, DW_OP_constu 4294967297, DW_OP_mul, DW_OP_stack_value] $ax
	#DEBUG_VALUE: x264_macroblock_cache_rect:s <- 16
	#DEBUG_VALUE: x264_macroblock_cache_mvd:mvd_cache <- undef
	#DEBUG_VALUE: x264_macroblock_cache_rect:dst <- undef
	#DEBUG_VALUE: x264_macroblock_cache_rect:d <- undef
	.loc	8 32 22                         # x264_src/common/rectangle.h:32:22
	movw	%ax, 25544(%rbx,%rcx,2)
	.loc	8 34 22                         # x264_src/common/rectangle.h:34:22
	movw	%ax, 25560(%rbx,%rcx,2)
.Ltmp377:
	#DEBUG_VALUE: x264_cabac_mb_mvd:mvp <- [DW_OP_plus_uconst 4, DW_OP_deref] $rsp
	#DEBUG_VALUE: x264_cabac_mb_mvd:h <- $rbx
	#DEBUG_VALUE: x264_cabac_mb_mvd:cb <- [DW_OP_plus_uconst 8, DW_OP_deref] $rsp
	#DEBUG_VALUE: x264_cabac_mb_mvd:i_list <- 0
	#DEBUG_VALUE: x264_cabac_mb_mvd:idx <- [DW_OP_plus_uconst 17, DW_OP_stack_value] $r14
	#DEBUG_VALUE: x264_cabac_mb_mvd:width <- 1
	.loc	0 423 5                         # x264_src/encoder/cabac.c:423:5
	leal	17(%r14), %edx
	movq	%rbx, %rdi
	xorl	%esi, %esi
	movl	$1, %ecx
	leaq	4(%rsp), %r8
	callq	x264_mb_predict_mv@PLT
.Ltmp378:
	.loc	0 424 34                        # x264_src/encoder/cabac.c:424:34
	movslq	x264_scan8+68(,%r14,4), %rax
	.loc	0 424 11 is_stmt 0              # x264_src/encoder/cabac.c:424:11
	movswl	25200(%rbx,%rax,4), %edx
	.loc	0 424 56                        # x264_src/encoder/cabac.c:424:56
	movswl	4(%rsp), %ecx
	.loc	0 424 54                        # x264_src/encoder/cabac.c:424:54
	subl	%ecx, %edx
.Ltmp379:
	#DEBUG_VALUE: x264_cabac_mb_mvd:mdx <- $edx
	.loc	0 425 11 is_stmt 1              # x264_src/encoder/cabac.c:425:11
	movswl	25202(%rbx,%rax,4), %ebp
	.loc	0 425 56 is_stmt 0              # x264_src/encoder/cabac.c:425:56
	movswl	6(%rsp), %ecx
	.loc	0 425 54                        # x264_src/encoder/cabac.c:425:54
	subl	%ecx, %ebp
.Ltmp380:
	#DEBUG_VALUE: x264_cabac_mb_mvd:mdy <- $ebp
	.loc	0 426 21 is_stmt 1              # x264_src/encoder/cabac.c:426:21
	movzbl	25518(%rbx,%rax,2), %ecx
	movzbl	25519(%rbx,%rax,2), %esi
	movzbl	25504(%rbx,%rax,2), %edi
.Ltmp381:
	.loc	5 239 33                        # x264_src/common/common.h:239:33
	addl	%ecx, %edi
.Ltmp382:
	.loc	0 426 21                        # x264_src/encoder/cabac.c:426:21
	movzbl	25505(%rbx,%rax,2), %eax
.Ltmp383:
	#DEBUG_VALUE: x264_cabac_mvd_sum:mvdleft <- undef
	#DEBUG_VALUE: x264_cabac_mvd_sum:mvdtop <- undef
	#DEBUG_VALUE: x264_cabac_mvd_sum:amvd0 <- $edi
	.loc	5 240 33                        # x264_src/common/common.h:240:33
	addl	%esi, %eax
.Ltmp384:
	#DEBUG_VALUE: x264_cabac_mvd_sum:amvd1 <- $eax
	.loc	5 241 20                        # x264_src/common/common.h:241:20
	xorl	%ecx, %ecx
	cmpl	$3, %edi
	setae	%cl
.Ltmp385:
	#DEBUG_VALUE: x264_cabac_mvd_sum:amvd0 <- undef
	.loc	5 241 34 is_stmt 0              # x264_src/common/common.h:241:34
	cmpl	$33, %edi
	.loc	5 241 25                        # x264_src/common/common.h:241:25
	sbbl	$-1, %ecx
	.loc	5 242 20 is_stmt 1              # x264_src/common/common.h:242:20
	xorl	%r12d, %r12d
	cmpl	$3, %eax
	setae	%r12b
.Ltmp386:
	#DEBUG_VALUE: x264_cabac_mvd_sum:amvd1 <- undef
	.loc	5 242 34 is_stmt 0              # x264_src/common/common.h:242:34
	cmpl	$33, %eax
	.loc	5 242 25                        # x264_src/common/common.h:242:25
	sbbl	$-1, %r12d
.Ltmp387:
	#DEBUG_VALUE: x264_cabac_mb_mvd:amvd <- [DW_OP_LLVM_arg 0, DW_OP_constu 8, DW_OP_shl, DW_OP_LLVM_arg 1, DW_OP_or, DW_OP_stack_value] $r12d, $ecx
	.loc	5 0 25                          # x264_src/common/common.h:0:25
	movq	8(%rsp), %rdi                   # 8-byte Reload
.Ltmp388:
	.loc	0 430 11 is_stmt 1              # x264_src/encoder/cabac.c:430:11
	xorl	%esi, %esi
	callq	x264_cabac_mb_mvd_cpn
.Ltmp389:
	movl	%eax, %r13d
.Ltmp390:
	#DEBUG_VALUE: x264_cabac_mb_mvd:mdx <- $r13d
	#DEBUG_VALUE: pack8to16:a <- $r13d
	.loc	0 0 11 is_stmt 0                # x264_src/encoder/cabac.c:0:11
	movq	8(%rsp), %rdi                   # 8-byte Reload
	.loc	0 431 11 is_stmt 1              # x264_src/encoder/cabac.c:431:11
	movl	$1, %esi
	movl	%ebp, %edx
	movl	%r12d, %ecx
	callq	x264_cabac_mb_mvd_cpn
.Ltmp391:
	#DEBUG_VALUE: x264_cabac_mb_mvd:mdy <- $eax
	#DEBUG_VALUE: pack8to16:b <- $eax
	.loc	6 329 17                        # x264_src/common/macroblock.h:329:17
	shll	$8, %eax
.Ltmp392:
	.loc	6 329 13 is_stmt 0              # x264_src/common/macroblock.h:329:13
	addl	%r13d, %eax
.Ltmp393:
	#DEBUG_VALUE: mvd <- $ax
	.loc	6 0 13                          # x264_src/common/macroblock.h:0:13
	movq	8(%rsp), %r13                   # 8-byte Reload
.Ltmp394:
	.loc	0 456 13 is_stmt 1              # x264_src/encoder/cabac.c:456:13
	movzbl	block_idx_x+17(%r14), %ecx
	movzbl	block_idx_y+17(%r14), %edx
.Ltmp395:
	#DEBUG_VALUE: x264_macroblock_cache_mvd:h <- $rbx
	#DEBUG_VALUE: x264_macroblock_cache_mvd:x <- undef
	#DEBUG_VALUE: x264_macroblock_cache_mvd:y <- undef
	#DEBUG_VALUE: x264_macroblock_cache_mvd:width <- 1
	#DEBUG_VALUE: x264_macroblock_cache_mvd:height <- 2
	#DEBUG_VALUE: x264_macroblock_cache_mvd:i_list <- 0
	#DEBUG_VALUE: x264_macroblock_cache_mvd:mvd <- $ax
	.loc	8 120 60                        # x264_src/common/rectangle.h:120:60
	leal	(%rcx,%rdx,8), %ecx
.Ltmp396:
	#DEBUG_VALUE: x264_macroblock_cache_rect:w <- [DW_OP_constu 1, DW_OP_shl, DW_OP_stack_value] 1
	#DEBUG_VALUE: x264_macroblock_cache_rect:h <- 2
	#DEBUG_VALUE: x264_macroblock_cache_rect:v <- [DW_OP_LLVM_convert 16 7, DW_OP_LLVM_convert 32 7, DW_OP_stack_value] $ax
	#DEBUG_VALUE: x264_macroblock_cache_rect:v2 <- $ax
	#DEBUG_VALUE: x264_macroblock_cache_rect:v4 <- [DW_OP_LLVM_convert 16 7, DW_OP_LLVM_convert 32 7, DW_OP_constu 65537, DW_OP_mul, DW_OP_stack_value] $ax
	#DEBUG_VALUE: x264_macroblock_cache_rect:v8 <- [DW_OP_LLVM_convert 16 7, DW_OP_LLVM_convert 32 7, DW_OP_constu 65537, DW_OP_mul, DW_OP_LLVM_convert 32 7, DW_OP_LLVM_convert 64 7, DW_OP_constu 4294967297, DW_OP_mul, DW_OP_stack_value] $ax
	#DEBUG_VALUE: x264_macroblock_cache_rect:s <- 16
	#DEBUG_VALUE: x264_macroblock_cache_mvd:mvd_cache <- undef
	#DEBUG_VALUE: x264_macroblock_cache_rect:dst <- undef
	#DEBUG_VALUE: x264_macroblock_cache_rect:d <- undef
	.loc	8 32 22                         # x264_src/common/rectangle.h:32:22
	movw	%ax, 25544(%rbx,%rcx,2)
	.loc	8 34 22                         # x264_src/common/rectangle.h:34:22
	movw	%ax, 25560(%rbx,%rcx,2)
.Ltmp397:
.LBB1_119:                              # %x264_cabac_mb8x8_mvd.exit
                                        #   in Loop: Header=BB1_120 Depth=1
	#DEBUG_VALUE: x264_macroblock_write_cabac:h <- $rbx
	#DEBUG_VALUE: x264_macroblock_write_cabac:cb <- [DW_OP_plus_uconst 8] [$rsp+0]
	#DEBUG_VALUE: i <- [DW_OP_consts 18446744073709551600, DW_OP_minus, DW_OP_consts 4, DW_OP_div, DW_OP_stack_value] $r14
	#DEBUG_VALUE: i <- [DW_OP_consts 18446744073709551600, DW_OP_minus, DW_OP_consts 4, DW_OP_div, DW_OP_consts 1, DW_OP_plus, DW_OP_stack_value] $r14
	.loc	0 854 27                        # x264_src/encoder/cabac.c:854:27
	incq	%r15
	addq	$4, %r14
.Ltmp398:
	.loc	0 854 9 is_stmt 0               # x264_src/encoder/cabac.c:854:9
	je	.LBB1_153
.Ltmp399:
.LBB1_120:                              # %for.body174
                                        # =>This Inner Loop Header: Depth=1
	#DEBUG_VALUE: x264_macroblock_write_cabac:h <- $rbx
	#DEBUG_VALUE: x264_macroblock_write_cabac:cb <- [DW_OP_plus_uconst 8] [$rsp+0]
	#DEBUG_VALUE: i <- [DW_OP_consts 18446744073709551600, DW_OP_minus, DW_OP_consts 4, DW_OP_div, DW_OP_stack_value] $r14
	#DEBUG_VALUE: x264_cabac_mb8x8_mvd:h <- $rbx
	#DEBUG_VALUE: x264_cabac_mb8x8_mvd:cb <- [DW_OP_plus_uconst 8, DW_OP_deref] $rsp
	#DEBUG_VALUE: x264_cabac_mb8x8_mvd:i <- [DW_OP_consts 18446744073709551600, DW_OP_minus, DW_OP_consts 4, DW_OP_div, DW_OP_stack_value] $r14
	.loc	0 445 13 is_stmt 1              # x264_src/encoder/cabac.c:445:13
	movzbl	(%r15), %eax
	cmpq	$3, %rax
	.loc	0 445 5 is_stmt 0               # x264_src/encoder/cabac.c:445:5
	ja	.LBB1_119
.Ltmp400:
# %bb.121:                              # %for.body174
                                        #   in Loop: Header=BB1_120 Depth=1
	#DEBUG_VALUE: x264_macroblock_write_cabac:h <- $rbx
	#DEBUG_VALUE: x264_macroblock_write_cabac:cb <- [DW_OP_plus_uconst 8] [$rsp+0]
	#DEBUG_VALUE: i <- [DW_OP_consts 18446744073709551600, DW_OP_minus, DW_OP_consts 4, DW_OP_div, DW_OP_stack_value] $r14
	#DEBUG_VALUE: x264_cabac_mb8x8_mvd:h <- $rbx
	#DEBUG_VALUE: x264_cabac_mb8x8_mvd:cb <- [DW_OP_plus_uconst 8, DW_OP_deref] $rsp
	#DEBUG_VALUE: x264_cabac_mb8x8_mvd:i <- [DW_OP_consts 18446744073709551600, DW_OP_minus, DW_OP_consts 4, DW_OP_div, DW_OP_stack_value] $r14
	jmpq	*.LJTI1_1(,%rax,8)
.Ltmp401:
.LBB1_122:                              # %do.body75.i
                                        #   in Loop: Header=BB1_120 Depth=1
	#DEBUG_VALUE: x264_macroblock_write_cabac:h <- $rbx
	#DEBUG_VALUE: x264_macroblock_write_cabac:cb <- [DW_OP_plus_uconst 8] [$rsp+0]
	#DEBUG_VALUE: i <- [DW_OP_consts 18446744073709551600, DW_OP_minus, DW_OP_consts 4, DW_OP_div, DW_OP_stack_value] $r14
	#DEBUG_VALUE: x264_cabac_mb8x8_mvd:h <- $rbx
	#DEBUG_VALUE: x264_cabac_mb8x8_mvd:cb <- [DW_OP_plus_uconst 8, DW_OP_deref] $rsp
	#DEBUG_VALUE: x264_cabac_mb8x8_mvd:i <- [DW_OP_consts 18446744073709551600, DW_OP_minus, DW_OP_consts 4, DW_OP_div, DW_OP_stack_value] $r14
	#DEBUG_VALUE: x264_cabac_mb_mvd:mvp <- [DW_OP_plus_uconst 4, DW_OP_deref] $rsp
	#DEBUG_VALUE: x264_cabac_mb_mvd:h <- $rbx
	#DEBUG_VALUE: x264_cabac_mb_mvd:cb <- [DW_OP_plus_uconst 8, DW_OP_deref] $rsp
	#DEBUG_VALUE: x264_cabac_mb_mvd:i_list <- 0
	#DEBUG_VALUE: x264_cabac_mb_mvd:idx <- [DW_OP_plus_uconst 16, DW_OP_stack_value] $r14
	#DEBUG_VALUE: x264_cabac_mb_mvd:width <- 1
	.loc	0 423 5 is_stmt 1               # x264_src/encoder/cabac.c:423:5
	leal	16(%r14), %edx
	movq	%rbx, %rdi
	xorl	%esi, %esi
	movl	$1, %ecx
	leaq	4(%rsp), %r8
	callq	x264_mb_predict_mv@PLT
.Ltmp402:
	.loc	0 424 34                        # x264_src/encoder/cabac.c:424:34
	movslq	x264_scan8+64(,%r14,4), %rax
	.loc	0 424 11 is_stmt 0              # x264_src/encoder/cabac.c:424:11
	movswl	25200(%rbx,%rax,4), %edx
	.loc	0 424 56                        # x264_src/encoder/cabac.c:424:56
	movswl	4(%rsp), %ecx
	.loc	0 424 54                        # x264_src/encoder/cabac.c:424:54
	subl	%ecx, %edx
.Ltmp403:
	#DEBUG_VALUE: x264_cabac_mb_mvd:mdx <- $edx
	.loc	0 425 11 is_stmt 1              # x264_src/encoder/cabac.c:425:11
	movswl	25202(%rbx,%rax,4), %ebp
	.loc	0 425 56 is_stmt 0              # x264_src/encoder/cabac.c:425:56
	movswl	6(%rsp), %ecx
	.loc	0 425 54                        # x264_src/encoder/cabac.c:425:54
	subl	%ecx, %ebp
.Ltmp404:
	#DEBUG_VALUE: x264_cabac_mb_mvd:mdy <- $ebp
	.loc	0 426 21 is_stmt 1              # x264_src/encoder/cabac.c:426:21
	movzbl	25518(%rbx,%rax,2), %ecx
	movzbl	25519(%rbx,%rax,2), %esi
	movzbl	25504(%rbx,%rax,2), %edi
.Ltmp405:
	.loc	5 239 33                        # x264_src/common/common.h:239:33
	addl	%ecx, %edi
.Ltmp406:
	.loc	0 426 21                        # x264_src/encoder/cabac.c:426:21
	movzbl	25505(%rbx,%rax,2), %eax
.Ltmp407:
	#DEBUG_VALUE: x264_cabac_mvd_sum:mvdleft <- undef
	#DEBUG_VALUE: x264_cabac_mvd_sum:mvdtop <- undef
	#DEBUG_VALUE: x264_cabac_mvd_sum:amvd0 <- $edi
	.loc	5 240 33                        # x264_src/common/common.h:240:33
	addl	%esi, %eax
.Ltmp408:
	#DEBUG_VALUE: x264_cabac_mvd_sum:amvd1 <- $eax
	.loc	5 241 20                        # x264_src/common/common.h:241:20
	xorl	%ecx, %ecx
	cmpl	$3, %edi
	setae	%cl
.Ltmp409:
	#DEBUG_VALUE: x264_cabac_mvd_sum:amvd0 <- undef
	.loc	5 241 34 is_stmt 0              # x264_src/common/common.h:241:34
	cmpl	$33, %edi
	.loc	5 241 25                        # x264_src/common/common.h:241:25
	sbbl	$-1, %ecx
	.loc	5 242 20 is_stmt 1              # x264_src/common/common.h:242:20
	xorl	%r12d, %r12d
	cmpl	$3, %eax
	setae	%r12b
.Ltmp410:
	#DEBUG_VALUE: x264_cabac_mvd_sum:amvd1 <- undef
	.loc	5 242 34 is_stmt 0              # x264_src/common/common.h:242:34
	cmpl	$33, %eax
	.loc	5 242 25                        # x264_src/common/common.h:242:25
	sbbl	$-1, %r12d
.Ltmp411:
	#DEBUG_VALUE: x264_cabac_mb_mvd:amvd <- [DW_OP_LLVM_arg 0, DW_OP_constu 8, DW_OP_shl, DW_OP_LLVM_arg 1, DW_OP_or, DW_OP_stack_value] $r12d, $ecx
	.loc	0 430 11 is_stmt 1              # x264_src/encoder/cabac.c:430:11
	movq	%r13, %rdi
	xorl	%esi, %esi
	callq	x264_cabac_mb_mvd_cpn
.Ltmp412:
	movl	%eax, %r13d
.Ltmp413:
	#DEBUG_VALUE: x264_cabac_mb_mvd:mdx <- $r13d
	#DEBUG_VALUE: pack8to16:a <- $r13d
	.loc	0 0 11 is_stmt 0                # x264_src/encoder/cabac.c:0:11
	movq	8(%rsp), %rdi                   # 8-byte Reload
	.loc	0 431 11 is_stmt 1              # x264_src/encoder/cabac.c:431:11
	movl	$1, %esi
	movl	%ebp, %edx
	movl	%r12d, %ecx
	callq	x264_cabac_mb_mvd_cpn
.Ltmp414:
	#DEBUG_VALUE: x264_cabac_mb_mvd:mdy <- $eax
	#DEBUG_VALUE: pack8to16:b <- $eax
	.loc	6 329 17                        # x264_src/common/macroblock.h:329:17
	shll	$8, %eax
.Ltmp415:
	.loc	6 329 13 is_stmt 0              # x264_src/common/macroblock.h:329:13
	addl	%r13d, %eax
.Ltmp416:
	#DEBUG_VALUE: mvd <- $ax
	.loc	0 459 13 is_stmt 1              # x264_src/encoder/cabac.c:459:13
	movzbl	block_idx_x+16(%r14), %ecx
	movzbl	block_idx_y+16(%r14), %edx
.Ltmp417:
	#DEBUG_VALUE: x264_macroblock_cache_mvd:h <- $rbx
	#DEBUG_VALUE: x264_macroblock_cache_mvd:x <- undef
	#DEBUG_VALUE: x264_macroblock_cache_mvd:y <- undef
	#DEBUG_VALUE: x264_macroblock_cache_mvd:width <- 1
	#DEBUG_VALUE: x264_macroblock_cache_mvd:height <- 1
	#DEBUG_VALUE: x264_macroblock_cache_mvd:i_list <- 0
	#DEBUG_VALUE: x264_macroblock_cache_mvd:mvd <- $ax
	.loc	8 120 60                        # x264_src/common/rectangle.h:120:60
	leal	(%rcx,%rdx,8), %ecx
.Ltmp418:
	#DEBUG_VALUE: x264_macroblock_cache_rect:w <- [DW_OP_constu 1, DW_OP_shl, DW_OP_stack_value] 1
	#DEBUG_VALUE: x264_macroblock_cache_rect:h <- 1
	#DEBUG_VALUE: x264_macroblock_cache_rect:v <- [DW_OP_LLVM_convert 16 7, DW_OP_LLVM_convert 32 7, DW_OP_stack_value] $ax
	#DEBUG_VALUE: x264_macroblock_cache_rect:v2 <- $ax
	#DEBUG_VALUE: x264_macroblock_cache_rect:v4 <- [DW_OP_LLVM_convert 16 7, DW_OP_LLVM_convert 32 7, DW_OP_constu 65537, DW_OP_mul, DW_OP_stack_value] $ax
	#DEBUG_VALUE: x264_macroblock_cache_rect:v8 <- [DW_OP_LLVM_convert 16 7, DW_OP_LLVM_convert 32 7, DW_OP_constu 65537, DW_OP_mul, DW_OP_LLVM_convert 32 7, DW_OP_LLVM_convert 64 7, DW_OP_constu 4294967297, DW_OP_mul, DW_OP_stack_value] $ax
	#DEBUG_VALUE: x264_macroblock_cache_rect:s <- 16
	#DEBUG_VALUE: x264_macroblock_cache_mvd:mvd_cache <- undef
	#DEBUG_VALUE: x264_macroblock_cache_rect:dst <- undef
	#DEBUG_VALUE: x264_macroblock_cache_rect:d <- undef
	.loc	8 32 22                         # x264_src/common/rectangle.h:32:22
	movw	%ax, 25544(%rbx,%rcx,2)
.Ltmp419:
	#DEBUG_VALUE: x264_cabac_mb_mvd:mvp <- [DW_OP_plus_uconst 4, DW_OP_deref] $rsp
	#DEBUG_VALUE: x264_cabac_mb_mvd:h <- $rbx
	#DEBUG_VALUE: x264_cabac_mb_mvd:cb <- [DW_OP_plus_uconst 8, DW_OP_deref] $rsp
	#DEBUG_VALUE: x264_cabac_mb_mvd:i_list <- 0
	#DEBUG_VALUE: x264_cabac_mb_mvd:idx <- [DW_OP_plus_uconst 17, DW_OP_stack_value] $r14
	#DEBUG_VALUE: x264_cabac_mb_mvd:width <- 1
	.loc	0 423 5                         # x264_src/encoder/cabac.c:423:5
	leal	17(%r14), %edx
	movq	%rbx, %rdi
	xorl	%esi, %esi
	movl	$1, %ecx
	leaq	4(%rsp), %r8
	callq	x264_mb_predict_mv@PLT
.Ltmp420:
	.loc	0 424 34                        # x264_src/encoder/cabac.c:424:34
	movslq	x264_scan8+68(,%r14,4), %rax
	.loc	0 424 11 is_stmt 0              # x264_src/encoder/cabac.c:424:11
	movswl	25200(%rbx,%rax,4), %edx
	.loc	0 424 56                        # x264_src/encoder/cabac.c:424:56
	movswl	4(%rsp), %ecx
	.loc	0 424 54                        # x264_src/encoder/cabac.c:424:54
	subl	%ecx, %edx
.Ltmp421:
	#DEBUG_VALUE: x264_cabac_mb_mvd:mdx <- $edx
	.loc	0 425 11 is_stmt 1              # x264_src/encoder/cabac.c:425:11
	movswl	25202(%rbx,%rax,4), %ebp
	.loc	0 425 56 is_stmt 0              # x264_src/encoder/cabac.c:425:56
	movswl	6(%rsp), %ecx
	.loc	0 425 54                        # x264_src/encoder/cabac.c:425:54
	subl	%ecx, %ebp
.Ltmp422:
	#DEBUG_VALUE: x264_cabac_mb_mvd:mdy <- $ebp
	.loc	0 426 21 is_stmt 1              # x264_src/encoder/cabac.c:426:21
	movzbl	25518(%rbx,%rax,2), %ecx
	movzbl	25519(%rbx,%rax,2), %esi
	movzbl	25504(%rbx,%rax,2), %edi
.Ltmp423:
	.loc	5 239 33                        # x264_src/common/common.h:239:33
	addl	%ecx, %edi
.Ltmp424:
	.loc	0 426 21                        # x264_src/encoder/cabac.c:426:21
	movzbl	25505(%rbx,%rax,2), %eax
.Ltmp425:
	#DEBUG_VALUE: x264_cabac_mvd_sum:mvdleft <- undef
	#DEBUG_VALUE: x264_cabac_mvd_sum:mvdtop <- undef
	#DEBUG_VALUE: x264_cabac_mvd_sum:amvd0 <- $edi
	.loc	5 240 33                        # x264_src/common/common.h:240:33
	addl	%esi, %eax
.Ltmp426:
	#DEBUG_VALUE: x264_cabac_mvd_sum:amvd1 <- $eax
	.loc	5 241 20                        # x264_src/common/common.h:241:20
	xorl	%ecx, %ecx
	cmpl	$3, %edi
	setae	%cl
.Ltmp427:
	#DEBUG_VALUE: x264_cabac_mvd_sum:amvd0 <- undef
	.loc	5 241 34 is_stmt 0              # x264_src/common/common.h:241:34
	cmpl	$33, %edi
	.loc	5 241 25                        # x264_src/common/common.h:241:25
	sbbl	$-1, %ecx
	.loc	5 242 20 is_stmt 1              # x264_src/common/common.h:242:20
	xorl	%r12d, %r12d
	cmpl	$3, %eax
	setae	%r12b
.Ltmp428:
	#DEBUG_VALUE: x264_cabac_mvd_sum:amvd1 <- undef
	.loc	5 242 34 is_stmt 0              # x264_src/common/common.h:242:34
	cmpl	$33, %eax
	.loc	5 242 25                        # x264_src/common/common.h:242:25
	sbbl	$-1, %r12d
.Ltmp429:
	#DEBUG_VALUE: x264_cabac_mb_mvd:amvd <- [DW_OP_LLVM_arg 0, DW_OP_constu 8, DW_OP_shl, DW_OP_LLVM_arg 1, DW_OP_or, DW_OP_stack_value] $r12d, $ecx
	.loc	5 0 25                          # x264_src/common/common.h:0:25
	movq	8(%rsp), %rdi                   # 8-byte Reload
.Ltmp430:
	.loc	0 430 11 is_stmt 1              # x264_src/encoder/cabac.c:430:11
	xorl	%esi, %esi
	callq	x264_cabac_mb_mvd_cpn
.Ltmp431:
	movl	%eax, %r13d
.Ltmp432:
	#DEBUG_VALUE: x264_cabac_mb_mvd:mdx <- $r13d
	#DEBUG_VALUE: pack8to16:a <- $r13d
	.loc	0 0 11 is_stmt 0                # x264_src/encoder/cabac.c:0:11
	movq	8(%rsp), %rdi                   # 8-byte Reload
	.loc	0 431 11 is_stmt 1              # x264_src/encoder/cabac.c:431:11
	movl	$1, %esi
	movl	%ebp, %edx
	movl	%r12d, %ecx
	callq	x264_cabac_mb_mvd_cpn
.Ltmp433:
	#DEBUG_VALUE: x264_cabac_mb_mvd:mdy <- $eax
	#DEBUG_VALUE: pack8to16:b <- $eax
	.loc	6 329 17                        # x264_src/common/macroblock.h:329:17
	shll	$8, %eax
.Ltmp434:
	.loc	6 329 13 is_stmt 0              # x264_src/common/macroblock.h:329:13
	addl	%r13d, %eax
.Ltmp435:
	#DEBUG_VALUE: mvd <- $ax
	.loc	0 460 13 is_stmt 1              # x264_src/encoder/cabac.c:460:13
	movzbl	block_idx_x+17(%r14), %ecx
	movzbl	block_idx_y+17(%r14), %edx
.Ltmp436:
	#DEBUG_VALUE: x264_macroblock_cache_mvd:h <- $rbx
	#DEBUG_VALUE: x264_macroblock_cache_mvd:x <- undef
	#DEBUG_VALUE: x264_macroblock_cache_mvd:y <- undef
	#DEBUG_VALUE: x264_macroblock_cache_mvd:width <- 1
	#DEBUG_VALUE: x264_macroblock_cache_mvd:height <- 1
	#DEBUG_VALUE: x264_macroblock_cache_mvd:i_list <- 0
	#DEBUG_VALUE: x264_macroblock_cache_mvd:mvd <- $ax
	.loc	8 120 60                        # x264_src/common/rectangle.h:120:60
	leal	(%rcx,%rdx,8), %ecx
.Ltmp437:
	#DEBUG_VALUE: x264_macroblock_cache_rect:w <- [DW_OP_constu 1, DW_OP_shl, DW_OP_stack_value] 1
	#DEBUG_VALUE: x264_macroblock_cache_rect:h <- 1
	#DEBUG_VALUE: x264_macroblock_cache_rect:v <- [DW_OP_LLVM_convert 16 7, DW_OP_LLVM_convert 32 7, DW_OP_stack_value] $ax
	#DEBUG_VALUE: x264_macroblock_cache_rect:v2 <- $ax
	#DEBUG_VALUE: x264_macroblock_cache_rect:v4 <- [DW_OP_LLVM_convert 16 7, DW_OP_LLVM_convert 32 7, DW_OP_constu 65537, DW_OP_mul, DW_OP_stack_value] $ax
	#DEBUG_VALUE: x264_macroblock_cache_rect:v8 <- [DW_OP_LLVM_convert 16 7, DW_OP_LLVM_convert 32 7, DW_OP_constu 65537, DW_OP_mul, DW_OP_LLVM_convert 32 7, DW_OP_LLVM_convert 64 7, DW_OP_constu 4294967297, DW_OP_mul, DW_OP_stack_value] $ax
	#DEBUG_VALUE: x264_macroblock_cache_rect:s <- 16
	#DEBUG_VALUE: x264_macroblock_cache_mvd:mvd_cache <- undef
	#DEBUG_VALUE: x264_macroblock_cache_rect:dst <- undef
	#DEBUG_VALUE: x264_macroblock_cache_rect:d <- undef
	.loc	8 32 22                         # x264_src/common/rectangle.h:32:22
	movw	%ax, 25544(%rbx,%rcx,2)
.Ltmp438:
	#DEBUG_VALUE: x264_cabac_mb_mvd:mvp <- [DW_OP_plus_uconst 4, DW_OP_deref] $rsp
	#DEBUG_VALUE: x264_cabac_mb_mvd:h <- $rbx
	#DEBUG_VALUE: x264_cabac_mb_mvd:cb <- [DW_OP_plus_uconst 8, DW_OP_deref] $rsp
	#DEBUG_VALUE: x264_cabac_mb_mvd:i_list <- 0
	#DEBUG_VALUE: x264_cabac_mb_mvd:idx <- [DW_OP_plus_uconst 18, DW_OP_stack_value] $r14
	#DEBUG_VALUE: x264_cabac_mb_mvd:width <- 1
	.loc	0 423 5                         # x264_src/encoder/cabac.c:423:5
	leal	18(%r14), %edx
	movq	%rbx, %rdi
	xorl	%esi, %esi
	movl	$1, %ecx
	leaq	4(%rsp), %r8
	callq	x264_mb_predict_mv@PLT
.Ltmp439:
	.loc	0 424 34                        # x264_src/encoder/cabac.c:424:34
	movslq	x264_scan8+72(,%r14,4), %rax
	.loc	0 424 11 is_stmt 0              # x264_src/encoder/cabac.c:424:11
	movswl	25200(%rbx,%rax,4), %edx
	.loc	0 424 56                        # x264_src/encoder/cabac.c:424:56
	movswl	4(%rsp), %ecx
	.loc	0 424 54                        # x264_src/encoder/cabac.c:424:54
	subl	%ecx, %edx
.Ltmp440:
	#DEBUG_VALUE: x264_cabac_mb_mvd:mdx <- $edx
	.loc	0 425 11 is_stmt 1              # x264_src/encoder/cabac.c:425:11
	movswl	25202(%rbx,%rax,4), %ebp
	.loc	0 425 56 is_stmt 0              # x264_src/encoder/cabac.c:425:56
	movswl	6(%rsp), %ecx
	.loc	0 425 54                        # x264_src/encoder/cabac.c:425:54
	subl	%ecx, %ebp
.Ltmp441:
	#DEBUG_VALUE: x264_cabac_mb_mvd:mdy <- $ebp
	.loc	0 426 21 is_stmt 1              # x264_src/encoder/cabac.c:426:21
	movzbl	25518(%rbx,%rax,2), %ecx
	movzbl	25519(%rbx,%rax,2), %esi
	movzbl	25504(%rbx,%rax,2), %edi
.Ltmp442:
	.loc	5 239 33                        # x264_src/common/common.h:239:33
	addl	%ecx, %edi
.Ltmp443:
	.loc	0 426 21                        # x264_src/encoder/cabac.c:426:21
	movzbl	25505(%rbx,%rax,2), %eax
.Ltmp444:
	#DEBUG_VALUE: x264_cabac_mvd_sum:mvdleft <- undef
	#DEBUG_VALUE: x264_cabac_mvd_sum:mvdtop <- undef
	#DEBUG_VALUE: x264_cabac_mvd_sum:amvd0 <- $edi
	.loc	5 240 33                        # x264_src/common/common.h:240:33
	addl	%esi, %eax
.Ltmp445:
	#DEBUG_VALUE: x264_cabac_mvd_sum:amvd1 <- $eax
	.loc	5 241 20                        # x264_src/common/common.h:241:20
	xorl	%ecx, %ecx
	cmpl	$3, %edi
	setae	%cl
.Ltmp446:
	#DEBUG_VALUE: x264_cabac_mvd_sum:amvd0 <- undef
	.loc	5 241 34 is_stmt 0              # x264_src/common/common.h:241:34
	cmpl	$33, %edi
	.loc	5 241 25                        # x264_src/common/common.h:241:25
	sbbl	$-1, %ecx
	.loc	5 242 20 is_stmt 1              # x264_src/common/common.h:242:20
	xorl	%r12d, %r12d
	cmpl	$3, %eax
	setae	%r12b
.Ltmp447:
	#DEBUG_VALUE: x264_cabac_mvd_sum:amvd1 <- undef
	.loc	5 242 34 is_stmt 0              # x264_src/common/common.h:242:34
	cmpl	$33, %eax
	.loc	5 242 25                        # x264_src/common/common.h:242:25
	sbbl	$-1, %r12d
.Ltmp448:
	#DEBUG_VALUE: x264_cabac_mb_mvd:amvd <- [DW_OP_LLVM_arg 0, DW_OP_constu 8, DW_OP_shl, DW_OP_LLVM_arg 1, DW_OP_or, DW_OP_stack_value] $r12d, $ecx
	.loc	5 0 25                          # x264_src/common/common.h:0:25
	movq	8(%rsp), %rdi                   # 8-byte Reload
.Ltmp449:
	.loc	0 430 11 is_stmt 1              # x264_src/encoder/cabac.c:430:11
	xorl	%esi, %esi
	callq	x264_cabac_mb_mvd_cpn
.Ltmp450:
	movl	%eax, %r13d
.Ltmp451:
	#DEBUG_VALUE: x264_cabac_mb_mvd:mdx <- $r13d
	#DEBUG_VALUE: pack8to16:a <- $r13d
	.loc	0 0 11 is_stmt 0                # x264_src/encoder/cabac.c:0:11
	movq	8(%rsp), %rdi                   # 8-byte Reload
	.loc	0 431 11 is_stmt 1              # x264_src/encoder/cabac.c:431:11
	movl	$1, %esi
	movl	%ebp, %edx
	movl	%r12d, %ecx
	callq	x264_cabac_mb_mvd_cpn
.Ltmp452:
	#DEBUG_VALUE: x264_cabac_mb_mvd:mdy <- $eax
	#DEBUG_VALUE: pack8to16:b <- $eax
	.loc	6 329 17                        # x264_src/common/macroblock.h:329:17
	shll	$8, %eax
.Ltmp453:
	.loc	6 329 13 is_stmt 0              # x264_src/common/macroblock.h:329:13
	addl	%r13d, %eax
.Ltmp454:
	#DEBUG_VALUE: mvd <- $ax
	.loc	0 461 13 is_stmt 1              # x264_src/encoder/cabac.c:461:13
	movzbl	block_idx_x+18(%r14), %ecx
	movzbl	block_idx_y+18(%r14), %edx
.Ltmp455:
	#DEBUG_VALUE: x264_macroblock_cache_mvd:h <- $rbx
	#DEBUG_VALUE: x264_macroblock_cache_mvd:x <- undef
	#DEBUG_VALUE: x264_macroblock_cache_mvd:y <- undef
	#DEBUG_VALUE: x264_macroblock_cache_mvd:width <- 1
	#DEBUG_VALUE: x264_macroblock_cache_mvd:height <- 1
	#DEBUG_VALUE: x264_macroblock_cache_mvd:i_list <- 0
	#DEBUG_VALUE: x264_macroblock_cache_mvd:mvd <- $ax
	.loc	8 120 60                        # x264_src/common/rectangle.h:120:60
	leal	(%rcx,%rdx,8), %ecx
.Ltmp456:
	#DEBUG_VALUE: x264_macroblock_cache_rect:w <- [DW_OP_constu 1, DW_OP_shl, DW_OP_stack_value] 1
	#DEBUG_VALUE: x264_macroblock_cache_rect:h <- 1
	#DEBUG_VALUE: x264_macroblock_cache_rect:v <- [DW_OP_LLVM_convert 16 7, DW_OP_LLVM_convert 32 7, DW_OP_stack_value] $ax
	#DEBUG_VALUE: x264_macroblock_cache_rect:v2 <- $ax
	#DEBUG_VALUE: x264_macroblock_cache_rect:v4 <- [DW_OP_LLVM_convert 16 7, DW_OP_LLVM_convert 32 7, DW_OP_constu 65537, DW_OP_mul, DW_OP_stack_value] $ax
	#DEBUG_VALUE: x264_macroblock_cache_rect:v8 <- [DW_OP_LLVM_convert 16 7, DW_OP_LLVM_convert 32 7, DW_OP_constu 65537, DW_OP_mul, DW_OP_LLVM_convert 32 7, DW_OP_LLVM_convert 64 7, DW_OP_constu 4294967297, DW_OP_mul, DW_OP_stack_value] $ax
	#DEBUG_VALUE: x264_macroblock_cache_rect:s <- 16
	#DEBUG_VALUE: x264_macroblock_cache_mvd:mvd_cache <- undef
	#DEBUG_VALUE: x264_macroblock_cache_rect:dst <- undef
	#DEBUG_VALUE: x264_macroblock_cache_rect:d <- undef
	.loc	8 32 22                         # x264_src/common/rectangle.h:32:22
	movw	%ax, 25544(%rbx,%rcx,2)
.Ltmp457:
	#DEBUG_VALUE: x264_cabac_mb_mvd:mvp <- [DW_OP_plus_uconst 4, DW_OP_deref] $rsp
	#DEBUG_VALUE: x264_cabac_mb_mvd:h <- $rbx
	#DEBUG_VALUE: x264_cabac_mb_mvd:cb <- [DW_OP_plus_uconst 8, DW_OP_deref] $rsp
	#DEBUG_VALUE: x264_cabac_mb_mvd:i_list <- 0
	#DEBUG_VALUE: x264_cabac_mb_mvd:idx <- [DW_OP_plus_uconst 19, DW_OP_stack_value] $r14
	#DEBUG_VALUE: x264_cabac_mb_mvd:width <- 1
	.loc	0 423 5                         # x264_src/encoder/cabac.c:423:5
	leal	19(%r14), %edx
	movq	%rbx, %rdi
	xorl	%esi, %esi
	movl	$1, %ecx
	leaq	4(%rsp), %r8
	callq	x264_mb_predict_mv@PLT
.Ltmp458:
	.loc	0 424 34                        # x264_src/encoder/cabac.c:424:34
	movslq	x264_scan8+76(,%r14,4), %rax
	.loc	0 424 11 is_stmt 0              # x264_src/encoder/cabac.c:424:11
	movswl	25200(%rbx,%rax,4), %edx
	.loc	0 424 56                        # x264_src/encoder/cabac.c:424:56
	movswl	4(%rsp), %ecx
	.loc	0 424 54                        # x264_src/encoder/cabac.c:424:54
	subl	%ecx, %edx
.Ltmp459:
	#DEBUG_VALUE: x264_cabac_mb_mvd:mdx <- $edx
	.loc	0 425 11 is_stmt 1              # x264_src/encoder/cabac.c:425:11
	movswl	25202(%rbx,%rax,4), %ebp
	.loc	0 425 56 is_stmt 0              # x264_src/encoder/cabac.c:425:56
	movswl	6(%rsp), %ecx
	.loc	0 425 54                        # x264_src/encoder/cabac.c:425:54
	subl	%ecx, %ebp
.Ltmp460:
	#DEBUG_VALUE: x264_cabac_mb_mvd:mdy <- $ebp
	.loc	0 426 21 is_stmt 1              # x264_src/encoder/cabac.c:426:21
	movzbl	25518(%rbx,%rax,2), %ecx
	movzbl	25519(%rbx,%rax,2), %esi
	movzbl	25504(%rbx,%rax,2), %edi
.Ltmp461:
	.loc	5 239 33                        # x264_src/common/common.h:239:33
	addl	%ecx, %edi
.Ltmp462:
	.loc	0 426 21                        # x264_src/encoder/cabac.c:426:21
	movzbl	25505(%rbx,%rax,2), %eax
.Ltmp463:
	#DEBUG_VALUE: x264_cabac_mvd_sum:mvdleft <- undef
	#DEBUG_VALUE: x264_cabac_mvd_sum:mvdtop <- undef
	#DEBUG_VALUE: x264_cabac_mvd_sum:amvd0 <- $edi
	.loc	5 240 33                        # x264_src/common/common.h:240:33
	addl	%esi, %eax
.Ltmp464:
	#DEBUG_VALUE: x264_cabac_mvd_sum:amvd1 <- $eax
	.loc	5 241 20                        # x264_src/common/common.h:241:20
	xorl	%ecx, %ecx
	cmpl	$3, %edi
	setae	%cl
.Ltmp465:
	#DEBUG_VALUE: x264_cabac_mvd_sum:amvd0 <- undef
	.loc	5 241 34 is_stmt 0              # x264_src/common/common.h:241:34
	cmpl	$33, %edi
	.loc	5 241 25                        # x264_src/common/common.h:241:25
	sbbl	$-1, %ecx
	.loc	5 242 20 is_stmt 1              # x264_src/common/common.h:242:20
	xorl	%r12d, %r12d
	cmpl	$3, %eax
	setae	%r12b
.Ltmp466:
	#DEBUG_VALUE: x264_cabac_mvd_sum:amvd1 <- undef
	.loc	5 242 34 is_stmt 0              # x264_src/common/common.h:242:34
	cmpl	$33, %eax
	.loc	5 242 25                        # x264_src/common/common.h:242:25
	sbbl	$-1, %r12d
.Ltmp467:
	#DEBUG_VALUE: x264_cabac_mb_mvd:amvd <- [DW_OP_LLVM_arg 0, DW_OP_constu 8, DW_OP_shl, DW_OP_LLVM_arg 1, DW_OP_or, DW_OP_stack_value] $r12d, $ecx
	.loc	5 0 25                          # x264_src/common/common.h:0:25
	movq	8(%rsp), %rdi                   # 8-byte Reload
.Ltmp468:
	.loc	0 430 11 is_stmt 1              # x264_src/encoder/cabac.c:430:11
	xorl	%esi, %esi
	callq	x264_cabac_mb_mvd_cpn
.Ltmp469:
	movl	%eax, %r13d
.Ltmp470:
	#DEBUG_VALUE: x264_cabac_mb_mvd:mdx <- $r13d
	#DEBUG_VALUE: pack8to16:a <- $r13d
	.loc	0 0 11 is_stmt 0                # x264_src/encoder/cabac.c:0:11
	movq	8(%rsp), %rdi                   # 8-byte Reload
	.loc	0 431 11 is_stmt 1              # x264_src/encoder/cabac.c:431:11
	movl	$1, %esi
	movl	%ebp, %edx
	movl	%r12d, %ecx
	callq	x264_cabac_mb_mvd_cpn
.Ltmp471:
	#DEBUG_VALUE: x264_cabac_mb_mvd:mdy <- $eax
	#DEBUG_VALUE: pack8to16:b <- $eax
	.loc	6 329 17                        # x264_src/common/macroblock.h:329:17
	shll	$8, %eax
.Ltmp472:
	.loc	6 329 13 is_stmt 0              # x264_src/common/macroblock.h:329:13
	addl	%r13d, %eax
.Ltmp473:
	#DEBUG_VALUE: mvd <- $ax
	.loc	6 0 13                          # x264_src/common/macroblock.h:0:13
	movq	8(%rsp), %r13                   # 8-byte Reload
.Ltmp474:
	.loc	0 462 13 is_stmt 1              # x264_src/encoder/cabac.c:462:13
	movzbl	block_idx_x+19(%r14), %ecx
	movzbl	block_idx_y+19(%r14), %edx
.Ltmp475:
	#DEBUG_VALUE: x264_macroblock_cache_mvd:h <- $rbx
	#DEBUG_VALUE: x264_macroblock_cache_mvd:x <- undef
	#DEBUG_VALUE: x264_macroblock_cache_mvd:y <- undef
	#DEBUG_VALUE: x264_macroblock_cache_mvd:width <- 1
	#DEBUG_VALUE: x264_macroblock_cache_mvd:height <- 1
	#DEBUG_VALUE: x264_macroblock_cache_mvd:i_list <- 0
	#DEBUG_VALUE: x264_macroblock_cache_mvd:mvd <- $ax
	.loc	8 120 60                        # x264_src/common/rectangle.h:120:60
	leal	(%rcx,%rdx,8), %ecx
.Ltmp476:
	#DEBUG_VALUE: x264_macroblock_cache_rect:w <- [DW_OP_constu 1, DW_OP_shl, DW_OP_stack_value] 1
	#DEBUG_VALUE: x264_macroblock_cache_rect:h <- 1
	#DEBUG_VALUE: x264_macroblock_cache_rect:v <- [DW_OP_LLVM_convert 16 7, DW_OP_LLVM_convert 32 7, DW_OP_stack_value] $ax
	#DEBUG_VALUE: x264_macroblock_cache_rect:v2 <- $ax
	#DEBUG_VALUE: x264_macroblock_cache_rect:v4 <- [DW_OP_LLVM_convert 16 7, DW_OP_LLVM_convert 32 7, DW_OP_constu 65537, DW_OP_mul, DW_OP_stack_value] $ax
	#DEBUG_VALUE: x264_macroblock_cache_rect:v8 <- [DW_OP_LLVM_convert 16 7, DW_OP_LLVM_convert 32 7, DW_OP_constu 65537, DW_OP_mul, DW_OP_LLVM_convert 32 7, DW_OP_LLVM_convert 64 7, DW_OP_constu 4294967297, DW_OP_mul, DW_OP_stack_value] $ax
	#DEBUG_VALUE: x264_macroblock_cache_rect:s <- 16
	#DEBUG_VALUE: x264_macroblock_cache_mvd:mvd_cache <- undef
	#DEBUG_VALUE: x264_macroblock_cache_rect:dst <- undef
	#DEBUG_VALUE: x264_macroblock_cache_rect:d <- undef
	.loc	8 32 22                         # x264_src/common/rectangle.h:32:22
	movw	%ax, 25544(%rbx,%rcx,2)
	jmp	.LBB1_119
.Ltmp477:
	.p2align	4, 0x90
.LBB1_123:                              # %do.body.i
                                        #   in Loop: Header=BB1_120 Depth=1
	#DEBUG_VALUE: x264_macroblock_write_cabac:h <- $rbx
	#DEBUG_VALUE: x264_macroblock_write_cabac:cb <- [DW_OP_plus_uconst 8] [$rsp+0]
	#DEBUG_VALUE: i <- [DW_OP_consts 18446744073709551600, DW_OP_minus, DW_OP_consts 4, DW_OP_div, DW_OP_stack_value] $r14
	#DEBUG_VALUE: x264_cabac_mb8x8_mvd:h <- $rbx
	#DEBUG_VALUE: x264_cabac_mb8x8_mvd:cb <- [DW_OP_plus_uconst 8, DW_OP_deref] $rsp
	#DEBUG_VALUE: x264_cabac_mb8x8_mvd:i <- [DW_OP_consts 18446744073709551600, DW_OP_minus, DW_OP_consts 4, DW_OP_div, DW_OP_stack_value] $r14
	#DEBUG_VALUE: x264_cabac_mb_mvd:mvp <- [DW_OP_plus_uconst 4, DW_OP_deref] $rsp
	#DEBUG_VALUE: x264_cabac_mb_mvd:h <- $rbx
	#DEBUG_VALUE: x264_cabac_mb_mvd:cb <- [DW_OP_plus_uconst 8, DW_OP_deref] $rsp
	#DEBUG_VALUE: x264_cabac_mb_mvd:i_list <- 0
	#DEBUG_VALUE: x264_cabac_mb_mvd:idx <- [DW_OP_plus_uconst 16, DW_OP_stack_value] $r14
	#DEBUG_VALUE: x264_cabac_mb_mvd:width <- 2
	.loc	0 423 5                         # x264_src/encoder/cabac.c:423:5
	leal	16(%r14), %edx
	movq	%rbx, %rdi
	xorl	%esi, %esi
	movl	$2, %ecx
	leaq	4(%rsp), %r8
	callq	x264_mb_predict_mv@PLT
.Ltmp478:
	.loc	0 424 34                        # x264_src/encoder/cabac.c:424:34
	movslq	x264_scan8+64(,%r14,4), %rax
	.loc	0 424 11 is_stmt 0              # x264_src/encoder/cabac.c:424:11
	movswl	25200(%rbx,%rax,4), %edx
	.loc	0 424 56                        # x264_src/encoder/cabac.c:424:56
	movswl	4(%rsp), %ecx
	.loc	0 424 54                        # x264_src/encoder/cabac.c:424:54
	subl	%ecx, %edx
.Ltmp479:
	#DEBUG_VALUE: x264_cabac_mb_mvd:mdx <- $edx
	.loc	0 425 11 is_stmt 1              # x264_src/encoder/cabac.c:425:11
	movswl	25202(%rbx,%rax,4), %ebp
	.loc	0 425 56 is_stmt 0              # x264_src/encoder/cabac.c:425:56
	movswl	6(%rsp), %ecx
	.loc	0 425 54                        # x264_src/encoder/cabac.c:425:54
	subl	%ecx, %ebp
.Ltmp480:
	#DEBUG_VALUE: x264_cabac_mb_mvd:mdy <- $ebp
	.loc	0 426 21 is_stmt 1              # x264_src/encoder/cabac.c:426:21
	movzbl	25518(%rbx,%rax,2), %ecx
	movzbl	25519(%rbx,%rax,2), %esi
	movzbl	25504(%rbx,%rax,2), %edi
.Ltmp481:
	.loc	5 239 33                        # x264_src/common/common.h:239:33
	addl	%ecx, %edi
.Ltmp482:
	.loc	0 426 21                        # x264_src/encoder/cabac.c:426:21
	movzbl	25505(%rbx,%rax,2), %eax
.Ltmp483:
	#DEBUG_VALUE: x264_cabac_mvd_sum:mvdleft <- undef
	#DEBUG_VALUE: x264_cabac_mvd_sum:mvdtop <- undef
	#DEBUG_VALUE: x264_cabac_mvd_sum:amvd0 <- $edi
	.loc	5 240 33                        # x264_src/common/common.h:240:33
	addl	%esi, %eax
.Ltmp484:
	#DEBUG_VALUE: x264_cabac_mvd_sum:amvd1 <- $eax
	.loc	5 241 20                        # x264_src/common/common.h:241:20
	xorl	%ecx, %ecx
	cmpl	$3, %edi
	setae	%cl
.Ltmp485:
	#DEBUG_VALUE: x264_cabac_mvd_sum:amvd0 <- undef
	.loc	5 241 34 is_stmt 0              # x264_src/common/common.h:241:34
	cmpl	$33, %edi
	.loc	5 241 25                        # x264_src/common/common.h:241:25
	sbbl	$-1, %ecx
	.loc	5 242 20 is_stmt 1              # x264_src/common/common.h:242:20
	xorl	%r12d, %r12d
	cmpl	$3, %eax
	setae	%r12b
.Ltmp486:
	#DEBUG_VALUE: x264_cabac_mvd_sum:amvd1 <- undef
	.loc	5 242 34 is_stmt 0              # x264_src/common/common.h:242:34
	cmpl	$33, %eax
	.loc	5 242 25                        # x264_src/common/common.h:242:25
	sbbl	$-1, %r12d
.Ltmp487:
	#DEBUG_VALUE: x264_cabac_mb_mvd:amvd <- [DW_OP_LLVM_arg 0, DW_OP_constu 8, DW_OP_shl, DW_OP_LLVM_arg 1, DW_OP_or, DW_OP_stack_value] $r12d, $ecx
	.loc	0 430 11 is_stmt 1              # x264_src/encoder/cabac.c:430:11
	movq	%r13, %rdi
	xorl	%esi, %esi
	callq	x264_cabac_mb_mvd_cpn
.Ltmp488:
	movl	%eax, %r13d
.Ltmp489:
	#DEBUG_VALUE: x264_cabac_mb_mvd:mdx <- $r13d
	#DEBUG_VALUE: pack8to16:a <- $r13d
	.loc	0 0 11 is_stmt 0                # x264_src/encoder/cabac.c:0:11
	movq	8(%rsp), %rdi                   # 8-byte Reload
	.loc	0 431 11 is_stmt 1              # x264_src/encoder/cabac.c:431:11
	movl	$1, %esi
	movl	%ebp, %edx
	movl	%r12d, %ecx
	callq	x264_cabac_mb_mvd_cpn
.Ltmp490:
	#DEBUG_VALUE: x264_cabac_mb_mvd:mdy <- $eax
	#DEBUG_VALUE: pack8to16:b <- $eax
	.loc	6 329 17                        # x264_src/common/macroblock.h:329:17
	shll	$8, %eax
.Ltmp491:
	.loc	6 329 13 is_stmt 0              # x264_src/common/macroblock.h:329:13
	addl	%r13d, %eax
.Ltmp492:
	#DEBUG_VALUE: mvd <- [DW_OP_LLVM_convert 32 7, DW_OP_LLVM_convert 16 7, DW_OP_stack_value] $eax
	.loc	6 0 13                          # x264_src/common/macroblock.h:0:13
	movq	8(%rsp), %r13                   # 8-byte Reload
.Ltmp493:
	.loc	0 448 13 is_stmt 1              # x264_src/encoder/cabac.c:448:13
	movzbl	block_idx_x+16(%r14), %ecx
	movzbl	block_idx_y+16(%r14), %edx
.Ltmp494:
	#DEBUG_VALUE: x264_macroblock_cache_mvd:h <- $rbx
	#DEBUG_VALUE: x264_macroblock_cache_mvd:x <- undef
	#DEBUG_VALUE: x264_macroblock_cache_mvd:y <- undef
	#DEBUG_VALUE: x264_macroblock_cache_mvd:width <- 2
	#DEBUG_VALUE: x264_macroblock_cache_mvd:height <- 2
	#DEBUG_VALUE: x264_macroblock_cache_mvd:i_list <- 0
	#DEBUG_VALUE: x264_macroblock_cache_mvd:mvd <- [DW_OP_LLVM_convert 32 7, DW_OP_LLVM_convert 16 7, DW_OP_stack_value] $eax
	.loc	8 120 60                        # x264_src/common/rectangle.h:120:60
	leal	(%rcx,%rdx,8), %ecx
.Ltmp495:
	#DEBUG_VALUE: x264_macroblock_cache_mvd:mvd_cache <- undef
	.loc	8 124 68                        # x264_src/common/rectangle.h:124:68
	movzwl	%ax, %edx
.Ltmp496:
	#DEBUG_VALUE: x264_macroblock_cache_rect:v <- $edx
	#DEBUG_VALUE: x264_macroblock_cache_rect:w <- [DW_OP_constu 1, DW_OP_shl, DW_OP_stack_value] 2
	#DEBUG_VALUE: x264_macroblock_cache_rect:h <- 2
	#DEBUG_VALUE: x264_macroblock_cache_rect:s <- 2
	#DEBUG_VALUE: x264_macroblock_cache_rect:v2 <- $eax
	#DEBUG_VALUE: x264_macroblock_cache_rect:dst <- undef
	#DEBUG_VALUE: x264_macroblock_cache_rect:d <- undef
	.loc	8 26 32                         # x264_src/common/rectangle.h:26:32
	shll	$16, %eax
.Ltmp497:
	orl	%edx, %eax
.Ltmp498:
	#DEBUG_VALUE: x264_macroblock_cache_rect:v4 <- $eax
	#DEBUG_VALUE: x264_macroblock_cache_rect:v8 <- [DW_OP_LLVM_convert 32 7, DW_OP_LLVM_convert 64 7, DW_OP_constu 4294967297, DW_OP_mul, DW_OP_stack_value] $eax
	#DEBUG_VALUE: x264_macroblock_cache_rect:s <- 16
	.loc	8 41 22                         # x264_src/common/rectangle.h:41:22
	movl	%eax, 25544(%rbx,%rcx,2)
	.loc	8 43 22                         # x264_src/common/rectangle.h:43:22
	movl	%eax, 25560(%rbx,%rcx,2)
.Ltmp499:
	.loc	0 449 13                        # x264_src/encoder/cabac.c:449:13
	jmp	.LBB1_119
.Ltmp500:
.LBB1_124:                              # %do.body10.i
                                        #   in Loop: Header=BB1_120 Depth=1
	#DEBUG_VALUE: x264_macroblock_write_cabac:h <- $rbx
	#DEBUG_VALUE: x264_macroblock_write_cabac:cb <- [DW_OP_plus_uconst 8] [$rsp+0]
	#DEBUG_VALUE: i <- [DW_OP_consts 18446744073709551600, DW_OP_minus, DW_OP_consts 4, DW_OP_div, DW_OP_stack_value] $r14
	#DEBUG_VALUE: x264_cabac_mb8x8_mvd:h <- $rbx
	#DEBUG_VALUE: x264_cabac_mb8x8_mvd:cb <- [DW_OP_plus_uconst 8, DW_OP_deref] $rsp
	#DEBUG_VALUE: x264_cabac_mb8x8_mvd:i <- [DW_OP_consts 18446744073709551600, DW_OP_minus, DW_OP_consts 4, DW_OP_div, DW_OP_stack_value] $r14
	#DEBUG_VALUE: x264_cabac_mb_mvd:mvp <- [DW_OP_plus_uconst 4, DW_OP_deref] $rsp
	#DEBUG_VALUE: x264_cabac_mb_mvd:h <- $rbx
	#DEBUG_VALUE: x264_cabac_mb_mvd:cb <- [DW_OP_plus_uconst 8, DW_OP_deref] $rsp
	#DEBUG_VALUE: x264_cabac_mb_mvd:i_list <- 0
	#DEBUG_VALUE: x264_cabac_mb_mvd:idx <- [DW_OP_plus_uconst 16, DW_OP_stack_value] $r14
	#DEBUG_VALUE: x264_cabac_mb_mvd:width <- 2
	.loc	0 423 5                         # x264_src/encoder/cabac.c:423:5
	leal	16(%r14), %edx
	movq	%rbx, %rdi
	xorl	%esi, %esi
	movl	$2, %ecx
	leaq	4(%rsp), %r8
	callq	x264_mb_predict_mv@PLT
.Ltmp501:
	.loc	0 424 34                        # x264_src/encoder/cabac.c:424:34
	movslq	x264_scan8+64(,%r14,4), %rax
	.loc	0 424 11 is_stmt 0              # x264_src/encoder/cabac.c:424:11
	movswl	25200(%rbx,%rax,4), %edx
	.loc	0 424 56                        # x264_src/encoder/cabac.c:424:56
	movswl	4(%rsp), %ecx
	.loc	0 424 54                        # x264_src/encoder/cabac.c:424:54
	subl	%ecx, %edx
.Ltmp502:
	#DEBUG_VALUE: x264_cabac_mb_mvd:mdx <- $edx
	.loc	0 425 11 is_stmt 1              # x264_src/encoder/cabac.c:425:11
	movswl	25202(%rbx,%rax,4), %ebp
	.loc	0 425 56 is_stmt 0              # x264_src/encoder/cabac.c:425:56
	movswl	6(%rsp), %ecx
	.loc	0 425 54                        # x264_src/encoder/cabac.c:425:54
	subl	%ecx, %ebp
.Ltmp503:
	#DEBUG_VALUE: x264_cabac_mb_mvd:mdy <- $ebp
	.loc	0 426 21 is_stmt 1              # x264_src/encoder/cabac.c:426:21
	movzbl	25518(%rbx,%rax,2), %ecx
	movzbl	25519(%rbx,%rax,2), %esi
	movzbl	25504(%rbx,%rax,2), %edi
.Ltmp504:
	.loc	5 239 33                        # x264_src/common/common.h:239:33
	addl	%ecx, %edi
.Ltmp505:
	.loc	0 426 21                        # x264_src/encoder/cabac.c:426:21
	movzbl	25505(%rbx,%rax,2), %eax
.Ltmp506:
	#DEBUG_VALUE: x264_cabac_mvd_sum:mvdleft <- undef
	#DEBUG_VALUE: x264_cabac_mvd_sum:mvdtop <- undef
	#DEBUG_VALUE: x264_cabac_mvd_sum:amvd0 <- $edi
	.loc	5 240 33                        # x264_src/common/common.h:240:33
	addl	%esi, %eax
.Ltmp507:
	#DEBUG_VALUE: x264_cabac_mvd_sum:amvd1 <- $eax
	.loc	5 241 20                        # x264_src/common/common.h:241:20
	xorl	%ecx, %ecx
	cmpl	$3, %edi
	setae	%cl
.Ltmp508:
	#DEBUG_VALUE: x264_cabac_mvd_sum:amvd0 <- undef
	.loc	5 241 34 is_stmt 0              # x264_src/common/common.h:241:34
	cmpl	$33, %edi
	.loc	5 241 25                        # x264_src/common/common.h:241:25
	sbbl	$-1, %ecx
	.loc	5 242 20 is_stmt 1              # x264_src/common/common.h:242:20
	xorl	%r12d, %r12d
	cmpl	$3, %eax
	setae	%r12b
.Ltmp509:
	#DEBUG_VALUE: x264_cabac_mvd_sum:amvd1 <- undef
	.loc	5 242 34 is_stmt 0              # x264_src/common/common.h:242:34
	cmpl	$33, %eax
	.loc	5 242 25                        # x264_src/common/common.h:242:25
	sbbl	$-1, %r12d
.Ltmp510:
	#DEBUG_VALUE: x264_cabac_mb_mvd:amvd <- [DW_OP_LLVM_arg 0, DW_OP_constu 8, DW_OP_shl, DW_OP_LLVM_arg 1, DW_OP_or, DW_OP_stack_value] $r12d, $ecx
	.loc	0 430 11 is_stmt 1              # x264_src/encoder/cabac.c:430:11
	movq	%r13, %rdi
	xorl	%esi, %esi
	callq	x264_cabac_mb_mvd_cpn
.Ltmp511:
	movl	%eax, %r13d
.Ltmp512:
	#DEBUG_VALUE: x264_cabac_mb_mvd:mdx <- $r13d
	#DEBUG_VALUE: pack8to16:a <- $r13d
	.loc	0 0 11 is_stmt 0                # x264_src/encoder/cabac.c:0:11
	movq	8(%rsp), %rdi                   # 8-byte Reload
	.loc	0 431 11 is_stmt 1              # x264_src/encoder/cabac.c:431:11
	movl	$1, %esi
	movl	%ebp, %edx
	movl	%r12d, %ecx
	callq	x264_cabac_mb_mvd_cpn
.Ltmp513:
	#DEBUG_VALUE: x264_cabac_mb_mvd:mdy <- $eax
	#DEBUG_VALUE: pack8to16:b <- $eax
	.loc	6 329 17                        # x264_src/common/macroblock.h:329:17
	shll	$8, %eax
.Ltmp514:
	.loc	6 329 13 is_stmt 0              # x264_src/common/macroblock.h:329:13
	addl	%r13d, %eax
.Ltmp515:
	#DEBUG_VALUE: mvd <- [DW_OP_LLVM_convert 32 7, DW_OP_LLVM_convert 16 7, DW_OP_stack_value] $eax
	.loc	0 451 13 is_stmt 1              # x264_src/encoder/cabac.c:451:13
	movzbl	block_idx_x+16(%r14), %ecx
	movzbl	block_idx_y+16(%r14), %edx
.Ltmp516:
	#DEBUG_VALUE: x264_macroblock_cache_mvd:h <- $rbx
	#DEBUG_VALUE: x264_macroblock_cache_mvd:x <- undef
	#DEBUG_VALUE: x264_macroblock_cache_mvd:y <- undef
	#DEBUG_VALUE: x264_macroblock_cache_mvd:width <- 2
	#DEBUG_VALUE: x264_macroblock_cache_mvd:height <- 1
	#DEBUG_VALUE: x264_macroblock_cache_mvd:i_list <- 0
	#DEBUG_VALUE: x264_macroblock_cache_mvd:mvd <- [DW_OP_LLVM_convert 32 7, DW_OP_LLVM_convert 16 7, DW_OP_stack_value] $eax
	.loc	8 120 60                        # x264_src/common/rectangle.h:120:60
	leal	(%rcx,%rdx,8), %ecx
.Ltmp517:
	#DEBUG_VALUE: x264_macroblock_cache_mvd:mvd_cache <- undef
	.loc	8 124 68                        # x264_src/common/rectangle.h:124:68
	movzwl	%ax, %edx
.Ltmp518:
	#DEBUG_VALUE: x264_macroblock_cache_rect:v <- $edx
	#DEBUG_VALUE: x264_macroblock_cache_rect:w <- [DW_OP_constu 1, DW_OP_shl, DW_OP_stack_value] 2
	#DEBUG_VALUE: x264_macroblock_cache_rect:h <- 1
	#DEBUG_VALUE: x264_macroblock_cache_rect:s <- 2
	#DEBUG_VALUE: x264_macroblock_cache_rect:v2 <- $eax
	#DEBUG_VALUE: x264_macroblock_cache_rect:dst <- undef
	#DEBUG_VALUE: x264_macroblock_cache_rect:d <- undef
	.loc	8 26 32                         # x264_src/common/rectangle.h:26:32
	shll	$16, %eax
.Ltmp519:
	orl	%edx, %eax
.Ltmp520:
	#DEBUG_VALUE: x264_macroblock_cache_rect:v4 <- $eax
	#DEBUG_VALUE: x264_macroblock_cache_rect:v8 <- [DW_OP_LLVM_convert 32 7, DW_OP_LLVM_convert 64 7, DW_OP_constu 4294967297, DW_OP_mul, DW_OP_stack_value] $eax
	#DEBUG_VALUE: x264_macroblock_cache_rect:s <- 16
	.loc	8 41 22                         # x264_src/common/rectangle.h:41:22
	movl	%eax, 25544(%rbx,%rcx,2)
.Ltmp521:
	#DEBUG_VALUE: x264_cabac_mb_mvd:mvp <- [DW_OP_plus_uconst 4, DW_OP_deref] $rsp
	#DEBUG_VALUE: x264_cabac_mb_mvd:h <- $rbx
	#DEBUG_VALUE: x264_cabac_mb_mvd:cb <- [DW_OP_plus_uconst 8, DW_OP_deref] $rsp
	#DEBUG_VALUE: x264_cabac_mb_mvd:i_list <- 0
	#DEBUG_VALUE: x264_cabac_mb_mvd:idx <- [DW_OP_plus_uconst 18, DW_OP_stack_value] $r14
	#DEBUG_VALUE: x264_cabac_mb_mvd:width <- 2
	.loc	0 423 5                         # x264_src/encoder/cabac.c:423:5
	leal	18(%r14), %edx
.Ltmp522:
	movq	%rbx, %rdi
	xorl	%esi, %esi
	movl	$2, %ecx
	leaq	4(%rsp), %r8
	callq	x264_mb_predict_mv@PLT
.Ltmp523:
	.loc	0 424 34                        # x264_src/encoder/cabac.c:424:34
	movslq	x264_scan8+72(,%r14,4), %rax
	.loc	0 424 11 is_stmt 0              # x264_src/encoder/cabac.c:424:11
	movswl	25200(%rbx,%rax,4), %edx
	.loc	0 424 56                        # x264_src/encoder/cabac.c:424:56
	movswl	4(%rsp), %ecx
	.loc	0 424 54                        # x264_src/encoder/cabac.c:424:54
	subl	%ecx, %edx
.Ltmp524:
	#DEBUG_VALUE: x264_cabac_mb_mvd:mdx <- $edx
	.loc	0 425 11 is_stmt 1              # x264_src/encoder/cabac.c:425:11
	movswl	25202(%rbx,%rax,4), %ebp
	.loc	0 425 56 is_stmt 0              # x264_src/encoder/cabac.c:425:56
	movswl	6(%rsp), %ecx
	.loc	0 425 54                        # x264_src/encoder/cabac.c:425:54
	subl	%ecx, %ebp
.Ltmp525:
	#DEBUG_VALUE: x264_cabac_mb_mvd:mdy <- $ebp
	.loc	0 426 21 is_stmt 1              # x264_src/encoder/cabac.c:426:21
	movzbl	25518(%rbx,%rax,2), %ecx
	movzbl	25519(%rbx,%rax,2), %esi
	movzbl	25504(%rbx,%rax,2), %edi
.Ltmp526:
	.loc	5 239 33                        # x264_src/common/common.h:239:33
	addl	%ecx, %edi
.Ltmp527:
	.loc	0 426 21                        # x264_src/encoder/cabac.c:426:21
	movzbl	25505(%rbx,%rax,2), %eax
.Ltmp528:
	#DEBUG_VALUE: x264_cabac_mvd_sum:mvdleft <- undef
	#DEBUG_VALUE: x264_cabac_mvd_sum:mvdtop <- undef
	#DEBUG_VALUE: x264_cabac_mvd_sum:amvd0 <- $edi
	.loc	5 240 33                        # x264_src/common/common.h:240:33
	addl	%esi, %eax
.Ltmp529:
	#DEBUG_VALUE: x264_cabac_mvd_sum:amvd1 <- $eax
	.loc	5 241 20                        # x264_src/common/common.h:241:20
	xorl	%ecx, %ecx
	cmpl	$3, %edi
	setae	%cl
.Ltmp530:
	#DEBUG_VALUE: x264_cabac_mvd_sum:amvd0 <- undef
	.loc	5 241 34 is_stmt 0              # x264_src/common/common.h:241:34
	cmpl	$33, %edi
	.loc	5 241 25                        # x264_src/common/common.h:241:25
	sbbl	$-1, %ecx
	.loc	5 242 20 is_stmt 1              # x264_src/common/common.h:242:20
	xorl	%r12d, %r12d
	cmpl	$3, %eax
	setae	%r12b
.Ltmp531:
	#DEBUG_VALUE: x264_cabac_mvd_sum:amvd1 <- undef
	.loc	5 242 34 is_stmt 0              # x264_src/common/common.h:242:34
	cmpl	$33, %eax
	.loc	5 242 25                        # x264_src/common/common.h:242:25
	sbbl	$-1, %r12d
.Ltmp532:
	#DEBUG_VALUE: x264_cabac_mb_mvd:amvd <- [DW_OP_LLVM_arg 0, DW_OP_constu 8, DW_OP_shl, DW_OP_LLVM_arg 1, DW_OP_or, DW_OP_stack_value] $r12d, $ecx
	.loc	5 0 25                          # x264_src/common/common.h:0:25
	movq	8(%rsp), %rdi                   # 8-byte Reload
.Ltmp533:
	.loc	0 430 11 is_stmt 1              # x264_src/encoder/cabac.c:430:11
	xorl	%esi, %esi
	callq	x264_cabac_mb_mvd_cpn
.Ltmp534:
	movl	%eax, %r13d
.Ltmp535:
	#DEBUG_VALUE: x264_cabac_mb_mvd:mdx <- $r13d
	#DEBUG_VALUE: pack8to16:a <- $r13d
	.loc	0 0 11 is_stmt 0                # x264_src/encoder/cabac.c:0:11
	movq	8(%rsp), %rdi                   # 8-byte Reload
	.loc	0 431 11 is_stmt 1              # x264_src/encoder/cabac.c:431:11
	movl	$1, %esi
	movl	%ebp, %edx
	movl	%r12d, %ecx
	callq	x264_cabac_mb_mvd_cpn
.Ltmp536:
	#DEBUG_VALUE: x264_cabac_mb_mvd:mdy <- $eax
	#DEBUG_VALUE: pack8to16:b <- $eax
	.loc	6 329 17                        # x264_src/common/macroblock.h:329:17
	shll	$8, %eax
.Ltmp537:
	.loc	6 329 13 is_stmt 0              # x264_src/common/macroblock.h:329:13
	addl	%r13d, %eax
.Ltmp538:
	#DEBUG_VALUE: mvd <- [DW_OP_LLVM_convert 32 7, DW_OP_LLVM_convert 16 7, DW_OP_stack_value] $eax
	.loc	6 0 13                          # x264_src/common/macroblock.h:0:13
	movq	8(%rsp), %r13                   # 8-byte Reload
.Ltmp539:
	.loc	0 452 13 is_stmt 1              # x264_src/encoder/cabac.c:452:13
	movzbl	block_idx_x+18(%r14), %ecx
	movzbl	block_idx_y+18(%r14), %edx
.Ltmp540:
	#DEBUG_VALUE: x264_macroblock_cache_mvd:h <- $rbx
	#DEBUG_VALUE: x264_macroblock_cache_mvd:x <- undef
	#DEBUG_VALUE: x264_macroblock_cache_mvd:y <- undef
	#DEBUG_VALUE: x264_macroblock_cache_mvd:width <- 2
	#DEBUG_VALUE: x264_macroblock_cache_mvd:height <- 1
	#DEBUG_VALUE: x264_macroblock_cache_mvd:i_list <- 0
	#DEBUG_VALUE: x264_macroblock_cache_mvd:mvd <- [DW_OP_LLVM_convert 32 7, DW_OP_LLVM_convert 16 7, DW_OP_stack_value] $eax
	.loc	8 120 60                        # x264_src/common/rectangle.h:120:60
	leal	(%rcx,%rdx,8), %ecx
.Ltmp541:
	#DEBUG_VALUE: x264_macroblock_cache_mvd:mvd_cache <- undef
	.loc	8 124 68                        # x264_src/common/rectangle.h:124:68
	movzwl	%ax, %edx
.Ltmp542:
	#DEBUG_VALUE: x264_macroblock_cache_rect:v <- $edx
	#DEBUG_VALUE: x264_macroblock_cache_rect:w <- [DW_OP_constu 1, DW_OP_shl, DW_OP_stack_value] 2
	#DEBUG_VALUE: x264_macroblock_cache_rect:h <- 1
	#DEBUG_VALUE: x264_macroblock_cache_rect:s <- 2
	#DEBUG_VALUE: x264_macroblock_cache_rect:v2 <- $eax
	#DEBUG_VALUE: x264_macroblock_cache_rect:dst <- undef
	#DEBUG_VALUE: x264_macroblock_cache_rect:d <- undef
	.loc	8 26 32                         # x264_src/common/rectangle.h:26:32
	shll	$16, %eax
.Ltmp543:
	orl	%edx, %eax
.Ltmp544:
	#DEBUG_VALUE: x264_macroblock_cache_rect:v4 <- $eax
	#DEBUG_VALUE: x264_macroblock_cache_rect:v8 <- [DW_OP_LLVM_convert 32 7, DW_OP_LLVM_convert 64 7, DW_OP_constu 4294967297, DW_OP_mul, DW_OP_stack_value] $eax
	#DEBUG_VALUE: x264_macroblock_cache_rect:s <- 16
	.loc	8 41 22                         # x264_src/common/rectangle.h:41:22
	movl	%eax, 25544(%rbx,%rcx,2)
.Ltmp545:
	.loc	0 453 13                        # x264_src/encoder/cabac.c:453:13
	jmp	.LBB1_119
.Ltmp546:
.LBB1_126:                              # %if.then317
	#DEBUG_VALUE: x264_macroblock_write_cabac:h <- $rbx
	#DEBUG_VALUE: x264_macroblock_write_cabac:cb <- [DW_OP_plus_uconst 8] [$rsp+0]
	.loc	0 885 38                        # x264_src/encoder/cabac.c:885:38
	leaq	x264_mb_type_list_table(,%r15,4), %rax
.Ltmp547:
	#DEBUG_VALUE: b_list <- $rax
	.loc	0 0 38 is_stmt 0                # x264_src/encoder/cabac.c:0:38
	movq	%rax, 24(%rsp)                  # 8-byte Spill
.Ltmp548:
	#DEBUG_VALUE: b_list <- [DW_OP_plus_uconst 24, DW_OP_deref] $rsp
	.loc	0 886 33 is_stmt 1              # x264_src/encoder/cabac.c:886:33
	cmpl	$2, 21416(%rbx)
.Ltmp549:
	.loc	0 886 13 is_stmt 0              # x264_src/encoder/cabac.c:886:13
	jl	.LBB1_132
.Ltmp550:
# %bb.127:                              # %if.then326
	#DEBUG_VALUE: x264_macroblock_write_cabac:h <- $rbx
	#DEBUG_VALUE: x264_macroblock_write_cabac:cb <- [DW_OP_plus_uconst 8] [$rsp+0]
	#DEBUG_VALUE: b_list <- [DW_OP_plus_uconst 24, DW_OP_deref] $rsp
	.loc	0 0 13                          # x264_src/encoder/cabac.c:0:13
	movq	24(%rsp), %rax                  # 8-byte Reload
.Ltmp551:
	.loc	0 888 17 is_stmt 1              # x264_src/encoder/cabac.c:888:17
	cmpb	$0, (%rax)
.Ltmp552:
	.loc	0 888 17 is_stmt 0              # x264_src/encoder/cabac.c:888:17
	je	.LBB1_129
.Ltmp553:
# %bb.128:                              # %if.then330
	#DEBUG_VALUE: x264_macroblock_write_cabac:h <- $rbx
	#DEBUG_VALUE: x264_macroblock_write_cabac:cb <- [DW_OP_plus_uconst 8] [$rsp+0]
	#DEBUG_VALUE: b_list <- [DW_OP_plus_uconst 24, DW_OP_deref] $rsp
	.loc	0 889 17 is_stmt 1              # x264_src/encoder/cabac.c:889:17
	movq	%rbx, %rdi
	movq	%r13, %rsi
	xorl	%edx, %edx
	xorl	%ecx, %ecx
	callq	x264_cabac_mb_ref
.Ltmp554:
.LBB1_129:                              # %if.end331
	#DEBUG_VALUE: x264_macroblock_write_cabac:h <- $rbx
	#DEBUG_VALUE: x264_macroblock_write_cabac:cb <- [DW_OP_plus_uconst 8] [$rsp+0]
	#DEBUG_VALUE: b_list <- [DW_OP_plus_uconst 24, DW_OP_deref] $rsp
	.loc	0 0 17 is_stmt 0                # x264_src/encoder/cabac.c:0:17
	movq	24(%rsp), %rax                  # 8-byte Reload
.Ltmp555:
	.loc	0 890 17 is_stmt 1              # x264_src/encoder/cabac.c:890:17
	cmpb	$0, 1(%rax)
	.loc	0 890 30 is_stmt 0              # x264_src/encoder/cabac.c:890:30
	je	.LBB1_132
.Ltmp556:
# %bb.130:                              # %land.lhs.true336
	#DEBUG_VALUE: x264_macroblock_write_cabac:h <- $rbx
	#DEBUG_VALUE: x264_macroblock_write_cabac:cb <- [DW_OP_plus_uconst 8] [$rsp+0]
	#DEBUG_VALUE: b_list <- [DW_OP_plus_uconst 24, DW_OP_deref] $rsp
	.loc	0 890 39                        # x264_src/encoder/cabac.c:890:39
	movl	17388(%rbx), %eax
	.loc	0 890 51                        # x264_src/encoder/cabac.c:890:51
	cmpl	$16, %eax
.Ltmp557:
	.loc	0 890 17                        # x264_src/encoder/cabac.c:890:17
	je	.LBB1_132
.Ltmp558:
# %bb.131:                              # %if.then341
	#DEBUG_VALUE: x264_macroblock_write_cabac:h <- $rbx
	#DEBUG_VALUE: x264_macroblock_write_cabac:cb <- [DW_OP_plus_uconst 8] [$rsp+0]
	#DEBUG_VALUE: b_list <- [DW_OP_plus_uconst 24, DW_OP_deref] $rsp
	.loc	0 891 70 is_stmt 1              # x264_src/encoder/cabac.c:891:70
	cmpl	$15, %eax
	sete	%cl
	movl	$8, %eax
	.loc	0 891 48 is_stmt 0              # x264_src/encoder/cabac.c:891:48
	shrl	%cl, %eax
	.loc	0 891 17                        # x264_src/encoder/cabac.c:891:17
	movq	%rbx, %rdi
	movq	%r13, %rsi
	xorl	%edx, %edx
	movl	%eax, %ecx
	callq	x264_cabac_mb_ref
.Ltmp559:
.LBB1_132:                              # %if.end347
	#DEBUG_VALUE: x264_macroblock_write_cabac:h <- $rbx
	#DEBUG_VALUE: x264_macroblock_write_cabac:cb <- [DW_OP_plus_uconst 8] [$rsp+0]
	#DEBUG_VALUE: b_list <- [DW_OP_plus_uconst 24, DW_OP_deref] $rsp
	.loc	0 0 17                          # x264_src/encoder/cabac.c:0:17
	movl	%r14d, 36(%rsp)                 # 4-byte Spill
.Ltmp560:
	.loc	0 893 33 is_stmt 1              # x264_src/encoder/cabac.c:893:33
	cmpl	$2, 21420(%rbx)
.Ltmp561:
	.loc	0 893 13 is_stmt 0              # x264_src/encoder/cabac.c:893:13
	jl	.LBB1_138
.Ltmp562:
# %bb.133:                              # %if.then354
	#DEBUG_VALUE: x264_macroblock_write_cabac:h <- $rbx
	#DEBUG_VALUE: x264_macroblock_write_cabac:cb <- [DW_OP_plus_uconst 8] [$rsp+0]
	#DEBUG_VALUE: b_list <- [DW_OP_plus_uconst 24, DW_OP_deref] $rsp
	.loc	0 0 13                          # x264_src/encoder/cabac.c:0:13
	movq	24(%rsp), %rax                  # 8-byte Reload
.Ltmp563:
	.loc	0 895 17 is_stmt 1              # x264_src/encoder/cabac.c:895:17
	cmpb	$0, 2(%rax)
.Ltmp564:
	.loc	0 895 17 is_stmt 0              # x264_src/encoder/cabac.c:895:17
	je	.LBB1_135
.Ltmp565:
# %bb.134:                              # %if.then358
	#DEBUG_VALUE: x264_macroblock_write_cabac:h <- $rbx
	#DEBUG_VALUE: x264_macroblock_write_cabac:cb <- [DW_OP_plus_uconst 8] [$rsp+0]
	#DEBUG_VALUE: b_list <- [DW_OP_plus_uconst 24, DW_OP_deref] $rsp
	.loc	0 896 17 is_stmt 1              # x264_src/encoder/cabac.c:896:17
	movq	%rbx, %rdi
	movq	%r13, %rsi
	movl	$1, %edx
	xorl	%ecx, %ecx
	callq	x264_cabac_mb_ref
.Ltmp566:
.LBB1_135:                              # %if.end359
	#DEBUG_VALUE: x264_macroblock_write_cabac:h <- $rbx
	#DEBUG_VALUE: x264_macroblock_write_cabac:cb <- [DW_OP_plus_uconst 8] [$rsp+0]
	#DEBUG_VALUE: b_list <- [DW_OP_plus_uconst 24, DW_OP_deref] $rsp
	.loc	0 0 17 is_stmt 0                # x264_src/encoder/cabac.c:0:17
	movq	24(%rsp), %rax                  # 8-byte Reload
.Ltmp567:
	.loc	0 897 17 is_stmt 1              # x264_src/encoder/cabac.c:897:17
	cmpb	$0, 3(%rax)
	.loc	0 897 30 is_stmt 0              # x264_src/encoder/cabac.c:897:30
	je	.LBB1_138
.Ltmp568:
# %bb.136:                              # %land.lhs.true364
	#DEBUG_VALUE: x264_macroblock_write_cabac:h <- $rbx
	#DEBUG_VALUE: x264_macroblock_write_cabac:cb <- [DW_OP_plus_uconst 8] [$rsp+0]
	#DEBUG_VALUE: b_list <- [DW_OP_plus_uconst 24, DW_OP_deref] $rsp
	.loc	0 897 39                        # x264_src/encoder/cabac.c:897:39
	movl	17388(%rbx), %eax
	.loc	0 897 51                        # x264_src/encoder/cabac.c:897:51
	cmpl	$16, %eax
.Ltmp569:
	.loc	0 897 17                        # x264_src/encoder/cabac.c:897:17
	je	.LBB1_138
.Ltmp570:
# %bb.137:                              # %if.then369
	#DEBUG_VALUE: x264_macroblock_write_cabac:h <- $rbx
	#DEBUG_VALUE: x264_macroblock_write_cabac:cb <- [DW_OP_plus_uconst 8] [$rsp+0]
	#DEBUG_VALUE: b_list <- [DW_OP_plus_uconst 24, DW_OP_deref] $rsp
	.loc	0 898 70 is_stmt 1              # x264_src/encoder/cabac.c:898:70
	cmpl	$15, %eax
	sete	%cl
	movl	$8, %eax
	.loc	0 898 48 is_stmt 0              # x264_src/encoder/cabac.c:898:48
	shrl	%cl, %eax
	.loc	0 898 17                        # x264_src/encoder/cabac.c:898:17
	movq	%rbx, %rdi
	movq	%r13, %rsi
	movl	$1, %edx
	movl	%eax, %ecx
	callq	x264_cabac_mb_ref
.Ltmp571:
.LBB1_138:                              # %if.end376
	#DEBUG_VALUE: x264_macroblock_write_cabac:h <- $rbx
	#DEBUG_VALUE: x264_macroblock_write_cabac:cb <- [DW_OP_plus_uconst 8] [$rsp+0]
	#DEBUG_VALUE: b_list <- [DW_OP_plus_uconst 24, DW_OP_deref] $rsp
	#DEBUG_VALUE: x264_macroblock_write_cabac:i_list <- 0
	.loc	0 0 17                          # x264_src/encoder/cabac.c:0:17
	leaq	25200(%rbx), %rax
	movq	%rax, 48(%rsp)                  # 8-byte Spill
	leaq	25520(%rbx), %r14
	movb	$1, %al
	xorl	%r12d, %r12d
	jmp	.LBB1_141
.Ltmp572:
	.p2align	4, 0x90
.LBB1_139:                              # %for.inc460
                                        #   in Loop: Header=BB1_141 Depth=1
	#DEBUG_VALUE: x264_macroblock_write_cabac:h <- $rbx
	#DEBUG_VALUE: x264_macroblock_write_cabac:cb <- [DW_OP_plus_uconst 8] [$rsp+0]
	#DEBUG_VALUE: b_list <- [DW_OP_plus_uconst 24, DW_OP_deref] $rsp
	movq	8(%rsp), %r13                   # 8-byte Reload
.Ltmp573:
.LBB1_140:                              # %for.inc460
                                        #   in Loop: Header=BB1_141 Depth=1
	#DEBUG_VALUE: x264_macroblock_write_cabac:h <- $rbx
	#DEBUG_VALUE: x264_macroblock_write_cabac:cb <- [DW_OP_plus_uconst 8] [$rsp+0]
	#DEBUG_VALUE: b_list <- [DW_OP_plus_uconst 24, DW_OP_deref] $rsp
	#DEBUG_VALUE: x264_macroblock_write_cabac:i_list <- [DW_OP_plus_uconst 1, DW_OP_stack_value] undef
	movl	$1, %r12d
	xorl	%eax, %eax
.Ltmp574:
	.loc	0 900 9 is_stmt 1               # x264_src/encoder/cabac.c:900:9
	testb	$1, 40(%rsp)                    # 1-byte Folded Reload
	je	.LBB1_153
.Ltmp575:
.LBB1_141:                              # %for.body380
                                        # =>This Inner Loop Header: Depth=1
	#DEBUG_VALUE: x264_macroblock_write_cabac:h <- $rbx
	#DEBUG_VALUE: x264_macroblock_write_cabac:cb <- [DW_OP_plus_uconst 8] [$rsp+0]
	#DEBUG_VALUE: b_list <- [DW_OP_plus_uconst 24, DW_OP_deref] $rsp
                                        # kill: def $al killed $al killed $eax
	#DEBUG_VALUE: x264_macroblock_write_cabac:i_list <- $r12
	.loc	0 0 9 is_stmt 0                 # x264_src/encoder/cabac.c:0:9
	movb	%al, 40(%rsp)                   # 1-byte Spill
.Ltmp576:
	.loc	0 902 23 is_stmt 1              # x264_src/encoder/cabac.c:902:23
	movl	17388(%rbx), %ecx
	movq	24(%rsp), %rax                  # 8-byte Reload
	.loc	0 0 0 is_stmt 0                 # x264_src/encoder/cabac.c:0:0
	movzbl	(%rax,%r12,2), %eax
.Ltmp577:
	.loc	0 902 17                        # x264_src/encoder/cabac.c:902:17
	cmpl	$14, %ecx
	je	.LBB1_145
.Ltmp578:
# %bb.142:                              # %for.body380
                                        #   in Loop: Header=BB1_141 Depth=1
	#DEBUG_VALUE: x264_macroblock_write_cabac:h <- $rbx
	#DEBUG_VALUE: x264_macroblock_write_cabac:cb <- [DW_OP_plus_uconst 8] [$rsp+0]
	#DEBUG_VALUE: b_list <- [DW_OP_plus_uconst 24, DW_OP_deref] $rsp
	#DEBUG_VALUE: x264_macroblock_write_cabac:i_list <- $r12
	cmpl	$16, %ecx
	jne	.LBB1_149
.Ltmp579:
# %bb.143:                              # %if.then385
                                        #   in Loop: Header=BB1_141 Depth=1
	#DEBUG_VALUE: x264_macroblock_write_cabac:h <- $rbx
	#DEBUG_VALUE: x264_macroblock_write_cabac:cb <- [DW_OP_plus_uconst 8] [$rsp+0]
	#DEBUG_VALUE: b_list <- [DW_OP_plus_uconst 24, DW_OP_deref] $rsp
	#DEBUG_VALUE: x264_macroblock_write_cabac:i_list <- $r12
	.loc	0 0 0                           # x264_src/encoder/cabac.c:0:0
	testb	%al, %al
.Ltmp580:
	.loc	0 904 21 is_stmt 1              # x264_src/encoder/cabac.c:904:21
	je	.LBB1_140
.Ltmp581:
# %bb.144:                              # %do.body391
                                        #   in Loop: Header=BB1_141 Depth=1
	#DEBUG_VALUE: x264_macroblock_write_cabac:h <- $rbx
	#DEBUG_VALUE: x264_macroblock_write_cabac:cb <- [DW_OP_plus_uconst 8] [$rsp+0]
	#DEBUG_VALUE: b_list <- [DW_OP_plus_uconst 24, DW_OP_deref] $rsp
	#DEBUG_VALUE: x264_macroblock_write_cabac:i_list <- $r12
	#DEBUG_VALUE: x264_cabac_mb_mvd:mvp <- [DW_OP_plus_uconst 4, DW_OP_deref] $rsp
	#DEBUG_VALUE: x264_cabac_mb_mvd:h <- $rbx
	#DEBUG_VALUE: x264_cabac_mb_mvd:cb <- [DW_OP_plus_uconst 8, DW_OP_deref] $rsp
	#DEBUG_VALUE: x264_cabac_mb_mvd:i_list <- $r12
	#DEBUG_VALUE: x264_cabac_mb_mvd:idx <- 0
	#DEBUG_VALUE: x264_cabac_mb_mvd:width <- 4
	.loc	0 423 5                         # x264_src/encoder/cabac.c:423:5
	movq	%rbx, %rdi
	movl	%r12d, %esi
	xorl	%edx, %edx
	movl	$4, %ecx
	leaq	4(%rsp), %r8
	callq	x264_mb_predict_mv@PLT
.Ltmp582:
	.loc	0 424 11                        # x264_src/encoder/cabac.c:424:11
	leaq	(%r12,%r12,4), %r15
	movq	%r15, %rax
	shlq	$5, %rax
	movq	48(%rsp), %rsi                  # 8-byte Reload
	movswl	48(%rsi,%rax), %edx
	.loc	0 424 56 is_stmt 0              # x264_src/encoder/cabac.c:424:56
	movswl	4(%rsp), %ecx
	.loc	0 424 54                        # x264_src/encoder/cabac.c:424:54
	subl	%ecx, %edx
.Ltmp583:
	#DEBUG_VALUE: x264_cabac_mb_mvd:mdx <- $edx
	.loc	0 425 11 is_stmt 1              # x264_src/encoder/cabac.c:425:11
	movswl	50(%rsi,%rax), %ebp
	.loc	0 425 56 is_stmt 0              # x264_src/encoder/cabac.c:425:56
	movswl	6(%rsp), %eax
	.loc	0 425 54                        # x264_src/encoder/cabac.c:425:54
	subl	%eax, %ebp
.Ltmp584:
	#DEBUG_VALUE: x264_cabac_mb_mvd:mdy <- $ebp
	.loc	0 426 40 is_stmt 1              # x264_src/encoder/cabac.c:426:40
	shlq	$4, %r15
.Ltmp585:
	#DEBUG_VALUE: mvd <- [DW_OP_LLVM_convert 32 7, DW_OP_LLVM_convert 16 7, DW_OP_stack_value] undef
	#DEBUG_VALUE: x264_macroblock_cache_mvd:h <- $rbx
	#DEBUG_VALUE: x264_macroblock_cache_mvd:x <- 0
	#DEBUG_VALUE: x264_macroblock_cache_mvd:y <- 0
	#DEBUG_VALUE: x264_macroblock_cache_mvd:width <- 4
	#DEBUG_VALUE: x264_macroblock_cache_mvd:height <- 4
	#DEBUG_VALUE: x264_macroblock_cache_mvd:i_list <- $r12
	#DEBUG_VALUE: x264_macroblock_cache_mvd:mvd <- [DW_OP_LLVM_convert 32 7, DW_OP_LLVM_convert 16 7, DW_OP_stack_value] undef
	#DEBUG_VALUE: x264_macroblock_cache_mvd:mvd_cache <- [DW_OP_LLVM_arg 0, DW_OP_LLVM_arg 1, DW_OP_plus, DW_OP_plus_uconst 24, DW_OP_stack_value] $r14, $r15
	#DEBUG_VALUE: x264_macroblock_cache_rect:dst <- [DW_OP_LLVM_arg 0, DW_OP_LLVM_arg 1, DW_OP_plus, DW_OP_plus_uconst 24, DW_OP_stack_value] $r14, $r15
	#DEBUG_VALUE: x264_macroblock_cache_rect:d <- [DW_OP_LLVM_arg 0, DW_OP_LLVM_arg 1, DW_OP_plus, DW_OP_plus_uconst 24, DW_OP_stack_value] $r14, $r15
	.loc	0 426 21 is_stmt 0              # x264_src/encoder/cabac.c:426:21
	movzbl	22(%r14,%r15), %eax
	movzbl	23(%r14,%r15), %ecx
	movzbl	8(%r14,%r15), %esi
.Ltmp586:
	.loc	5 239 33 is_stmt 1              # x264_src/common/common.h:239:33
	addl	%eax, %esi
.Ltmp587:
	.loc	0 426 21                        # x264_src/encoder/cabac.c:426:21
	movzbl	9(%r14,%r15), %eax
.Ltmp588:
	#DEBUG_VALUE: x264_cabac_mvd_sum:mvdleft <- undef
	#DEBUG_VALUE: x264_cabac_mvd_sum:mvdtop <- undef
	#DEBUG_VALUE: x264_cabac_mvd_sum:amvd0 <- $esi
	.loc	5 240 33                        # x264_src/common/common.h:240:33
	addl	%ecx, %eax
.Ltmp589:
	#DEBUG_VALUE: x264_cabac_mvd_sum:amvd1 <- $eax
	.loc	5 241 20                        # x264_src/common/common.h:241:20
	xorl	%ecx, %ecx
	cmpl	$3, %esi
	setae	%cl
.Ltmp590:
	#DEBUG_VALUE: x264_cabac_mvd_sum:amvd0 <- undef
	.loc	5 241 34 is_stmt 0              # x264_src/common/common.h:241:34
	cmpl	$33, %esi
	.loc	5 241 25                        # x264_src/common/common.h:241:25
	sbbl	$-1, %ecx
	.loc	5 242 20 is_stmt 1              # x264_src/common/common.h:242:20
	xorl	%r12d, %r12d
.Ltmp591:
	cmpl	$3, %eax
	setae	%r12b
.Ltmp592:
	#DEBUG_VALUE: x264_cabac_mvd_sum:amvd1 <- undef
	.loc	5 242 34 is_stmt 0              # x264_src/common/common.h:242:34
	cmpl	$33, %eax
	.loc	5 242 25                        # x264_src/common/common.h:242:25
	sbbl	$-1, %r12d
.Ltmp593:
	#DEBUG_VALUE: x264_cabac_mb_mvd:amvd <- [DW_OP_LLVM_arg 0, DW_OP_constu 8, DW_OP_shl, DW_OP_LLVM_arg 1, DW_OP_or, DW_OP_stack_value] $r12d, $ecx
	.loc	0 430 11 is_stmt 1              # x264_src/encoder/cabac.c:430:11
	movq	%r13, %rdi
	xorl	%esi, %esi
	callq	x264_cabac_mb_mvd_cpn
.Ltmp594:
	movl	%eax, %r13d
.Ltmp595:
	#DEBUG_VALUE: x264_cabac_mb_mvd:mdx <- $r13d
	#DEBUG_VALUE: pack8to16:a <- $r13d
	.loc	0 0 11 is_stmt 0                # x264_src/encoder/cabac.c:0:11
	movq	8(%rsp), %rdi                   # 8-byte Reload
	.loc	0 431 11 is_stmt 1              # x264_src/encoder/cabac.c:431:11
	movl	$1, %esi
	movl	%ebp, %edx
	movl	%r12d, %ecx
	callq	x264_cabac_mb_mvd_cpn
.Ltmp596:
                                        # kill: def $eax killed $eax def $rax
	#DEBUG_VALUE: x264_cabac_mb_mvd:mdy <- $eax
	#DEBUG_VALUE: pack8to16:b <- $eax
	.loc	6 329 17                        # x264_src/common/macroblock.h:329:17
	shll	$8, %eax
.Ltmp597:
	.loc	6 329 13 is_stmt 0              # x264_src/common/macroblock.h:329:13
	addl	%r13d, %eax
.Ltmp598:
	#DEBUG_VALUE: x264_macroblock_cache_mvd:mvd <- [DW_OP_LLVM_convert 32 7, DW_OP_LLVM_convert 16 7, DW_OP_stack_value] $eax
	#DEBUG_VALUE: mvd <- [DW_OP_LLVM_convert 32 7, DW_OP_LLVM_convert 16 7, DW_OP_stack_value] $eax
	.loc	6 0 13                          # x264_src/common/macroblock.h:0:13
	movq	8(%rsp), %r13                   # 8-byte Reload
.Ltmp599:
	.loc	8 124 68 is_stmt 1              # x264_src/common/rectangle.h:124:68
	movzwl	%ax, %ecx
.Ltmp600:
	#DEBUG_VALUE: x264_macroblock_cache_rect:v <- $ecx
	#DEBUG_VALUE: x264_macroblock_cache_rect:w <- [DW_OP_constu 1, DW_OP_shl, DW_OP_stack_value] 4
	#DEBUG_VALUE: x264_macroblock_cache_rect:h <- 4
	#DEBUG_VALUE: x264_macroblock_cache_rect:s <- 2
	#DEBUG_VALUE: x264_macroblock_cache_rect:v2 <- $eax
	.loc	8 26 32                         # x264_src/common/rectangle.h:26:32
	shll	$16, %eax
.Ltmp601:
	orl	%ecx, %eax
.Ltmp602:
	#DEBUG_VALUE: x264_macroblock_cache_rect:v4 <- $eax
	.loc	8 27 22                         # x264_src/common/rectangle.h:27:22
	movabsq	$4294967297, %rcx               # imm = 0x100000001
.Ltmp603:
	imulq	%rcx, %rax
.Ltmp604:
	#DEBUG_VALUE: x264_macroblock_cache_rect:v8 <- $rax
	#DEBUG_VALUE: x264_macroblock_cache_rect:s <- 16
	.loc	8 52 26                         # x264_src/common/rectangle.h:52:26
	movq	%rax, 24(%r14,%r15)
	.loc	8 54 26                         # x264_src/common/rectangle.h:54:26
	movq	%rax, 40(%r14,%r15)
	.loc	8 56 26                         # x264_src/common/rectangle.h:56:26
	movq	%rax, 56(%r14,%r15)
	.loc	8 57 26                         # x264_src/common/rectangle.h:57:26
	movq	%rax, 72(%r14,%r15)
.Ltmp605:
	.loc	0 904 41                        # x264_src/encoder/cabac.c:904:41
	jmp	.LBB1_140
.Ltmp606:
	.p2align	4, 0x90
.LBB1_145:                              # %if.then404
                                        #   in Loop: Header=BB1_141 Depth=1
	#DEBUG_VALUE: x264_macroblock_write_cabac:h <- $rbx
	#DEBUG_VALUE: x264_macroblock_write_cabac:cb <- [DW_OP_plus_uconst 8] [$rsp+0]
	#DEBUG_VALUE: b_list <- [DW_OP_plus_uconst 24, DW_OP_deref] $rsp
	#DEBUG_VALUE: x264_macroblock_write_cabac:i_list <- $r12
	.loc	0 0 0 is_stmt 0                 # x264_src/encoder/cabac.c:0:0
	testb	%al, %al
.Ltmp607:
	.loc	0 908 21 is_stmt 1              # x264_src/encoder/cabac.c:908:21
	je	.LBB1_147
.Ltmp608:
# %bb.146:                              # %do.body410
                                        #   in Loop: Header=BB1_141 Depth=1
	#DEBUG_VALUE: x264_macroblock_write_cabac:h <- $rbx
	#DEBUG_VALUE: x264_macroblock_write_cabac:cb <- [DW_OP_plus_uconst 8] [$rsp+0]
	#DEBUG_VALUE: b_list <- [DW_OP_plus_uconst 24, DW_OP_deref] $rsp
	#DEBUG_VALUE: x264_macroblock_write_cabac:i_list <- $r12
	#DEBUG_VALUE: x264_cabac_mb_mvd:mvp <- [DW_OP_plus_uconst 4, DW_OP_deref] $rsp
	#DEBUG_VALUE: x264_cabac_mb_mvd:h <- $rbx
	#DEBUG_VALUE: x264_cabac_mb_mvd:cb <- [DW_OP_plus_uconst 8, DW_OP_deref] $rsp
	#DEBUG_VALUE: x264_cabac_mb_mvd:i_list <- $r12
	#DEBUG_VALUE: x264_cabac_mb_mvd:idx <- 0
	#DEBUG_VALUE: x264_cabac_mb_mvd:width <- 4
	.loc	0 423 5                         # x264_src/encoder/cabac.c:423:5
	movq	%rbx, %rdi
	movl	%r12d, %esi
	xorl	%edx, %edx
	movl	$4, %ecx
	leaq	4(%rsp), %r8
	callq	x264_mb_predict_mv@PLT
.Ltmp609:
	.loc	0 424 11                        # x264_src/encoder/cabac.c:424:11
	leaq	(%r12,%r12,4), %r15
	movq	%r15, %rax
	shlq	$5, %rax
	movq	48(%rsp), %rsi                  # 8-byte Reload
	movswl	48(%rsi,%rax), %edx
	.loc	0 424 56 is_stmt 0              # x264_src/encoder/cabac.c:424:56
	movswl	4(%rsp), %ecx
	.loc	0 424 54                        # x264_src/encoder/cabac.c:424:54
	subl	%ecx, %edx
.Ltmp610:
	#DEBUG_VALUE: x264_cabac_mb_mvd:mdx <- $edx
	.loc	0 425 11 is_stmt 1              # x264_src/encoder/cabac.c:425:11
	movswl	50(%rsi,%rax), %ebp
	.loc	0 425 56 is_stmt 0              # x264_src/encoder/cabac.c:425:56
	movswl	6(%rsp), %eax
	.loc	0 425 54                        # x264_src/encoder/cabac.c:425:54
	subl	%eax, %ebp
.Ltmp611:
	#DEBUG_VALUE: x264_cabac_mb_mvd:mdy <- $ebp
	.loc	0 426 40 is_stmt 1              # x264_src/encoder/cabac.c:426:40
	shlq	$4, %r15
.Ltmp612:
	#DEBUG_VALUE: mvd <- [DW_OP_LLVM_convert 32 7, DW_OP_LLVM_convert 16 7, DW_OP_stack_value] undef
	#DEBUG_VALUE: x264_macroblock_cache_mvd:h <- $rbx
	#DEBUG_VALUE: x264_macroblock_cache_mvd:x <- 0
	#DEBUG_VALUE: x264_macroblock_cache_mvd:y <- 0
	#DEBUG_VALUE: x264_macroblock_cache_mvd:width <- 4
	#DEBUG_VALUE: x264_macroblock_cache_mvd:height <- 2
	#DEBUG_VALUE: x264_macroblock_cache_mvd:i_list <- $r12
	#DEBUG_VALUE: x264_macroblock_cache_mvd:mvd <- [DW_OP_LLVM_convert 32 7, DW_OP_LLVM_convert 16 7, DW_OP_stack_value] undef
	#DEBUG_VALUE: x264_macroblock_cache_mvd:mvd_cache <- [DW_OP_LLVM_arg 0, DW_OP_LLVM_arg 1, DW_OP_plus, DW_OP_plus_uconst 24, DW_OP_stack_value] $r14, $r15
	#DEBUG_VALUE: x264_macroblock_cache_rect:dst <- [DW_OP_LLVM_arg 0, DW_OP_LLVM_arg 1, DW_OP_plus, DW_OP_plus_uconst 24, DW_OP_stack_value] $r14, $r15
	#DEBUG_VALUE: x264_macroblock_cache_rect:d <- [DW_OP_LLVM_arg 0, DW_OP_LLVM_arg 1, DW_OP_plus, DW_OP_plus_uconst 24, DW_OP_stack_value] $r14, $r15
	.loc	0 426 21 is_stmt 0              # x264_src/encoder/cabac.c:426:21
	movzbl	22(%r14,%r15), %eax
	movzbl	23(%r14,%r15), %ecx
	movzbl	8(%r14,%r15), %esi
.Ltmp613:
	.loc	5 239 33 is_stmt 1              # x264_src/common/common.h:239:33
	addl	%eax, %esi
.Ltmp614:
	.loc	0 426 21                        # x264_src/encoder/cabac.c:426:21
	movzbl	9(%r14,%r15), %eax
.Ltmp615:
	#DEBUG_VALUE: x264_cabac_mvd_sum:mvdleft <- undef
	#DEBUG_VALUE: x264_cabac_mvd_sum:mvdtop <- undef
	#DEBUG_VALUE: x264_cabac_mvd_sum:amvd0 <- $esi
	.loc	5 240 33                        # x264_src/common/common.h:240:33
	addl	%ecx, %eax
.Ltmp616:
	#DEBUG_VALUE: x264_cabac_mvd_sum:amvd1 <- $eax
	.loc	5 241 20                        # x264_src/common/common.h:241:20
	xorl	%ecx, %ecx
	cmpl	$3, %esi
	setae	%cl
.Ltmp617:
	#DEBUG_VALUE: x264_cabac_mvd_sum:amvd0 <- undef
	.loc	5 241 34 is_stmt 0              # x264_src/common/common.h:241:34
	cmpl	$33, %esi
	.loc	5 241 25                        # x264_src/common/common.h:241:25
	sbbl	$-1, %ecx
	.loc	5 242 20 is_stmt 1              # x264_src/common/common.h:242:20
	xorl	%r13d, %r13d
	cmpl	$3, %eax
	setae	%r13b
.Ltmp618:
	#DEBUG_VALUE: x264_cabac_mvd_sum:amvd1 <- undef
	.loc	5 242 34 is_stmt 0              # x264_src/common/common.h:242:34
	cmpl	$33, %eax
	.loc	5 242 25                        # x264_src/common/common.h:242:25
	sbbl	$-1, %r13d
.Ltmp619:
	#DEBUG_VALUE: x264_cabac_mb_mvd:amvd <- [DW_OP_LLVM_arg 0, DW_OP_constu 8, DW_OP_shl, DW_OP_LLVM_arg 1, DW_OP_or, DW_OP_stack_value] $r13d, $ecx
	.loc	5 0 25                          # x264_src/common/common.h:0:25
	movq	8(%rsp), %rdi                   # 8-byte Reload
.Ltmp620:
	.loc	0 430 11 is_stmt 1              # x264_src/encoder/cabac.c:430:11
	xorl	%esi, %esi
	callq	x264_cabac_mb_mvd_cpn
.Ltmp621:
	.loc	0 0 11 is_stmt 0                # x264_src/encoder/cabac.c:0:11
	movl	%eax, 44(%rsp)                  # 4-byte Spill
.Ltmp622:
	#DEBUG_VALUE: x264_cabac_mb_mvd:mdx <- [DW_OP_plus_uconst 44, DW_OP_deref] $rsp
	#DEBUG_VALUE: pack8to16:a <- [DW_OP_plus_uconst 44, DW_OP_deref] $rsp
	movq	8(%rsp), %rdi                   # 8-byte Reload
	.loc	0 431 11 is_stmt 1              # x264_src/encoder/cabac.c:431:11
	movl	$1, %esi
	movl	%ebp, %edx
	movl	%r13d, %ecx
	movq	8(%rsp), %r13                   # 8-byte Reload
	callq	x264_cabac_mb_mvd_cpn
.Ltmp623:
                                        # kill: def $eax killed $eax def $rax
	#DEBUG_VALUE: x264_cabac_mb_mvd:mdy <- $eax
	#DEBUG_VALUE: pack8to16:b <- $eax
	.loc	6 329 17                        # x264_src/common/macroblock.h:329:17
	shll	$8, %eax
.Ltmp624:
	.loc	6 329 13 is_stmt 0              # x264_src/common/macroblock.h:329:13
	addl	44(%rsp), %eax                  # 4-byte Folded Reload
.Ltmp625:
	#DEBUG_VALUE: x264_macroblock_cache_mvd:mvd <- [DW_OP_LLVM_convert 32 7, DW_OP_LLVM_convert 16 7, DW_OP_stack_value] $eax
	#DEBUG_VALUE: mvd <- [DW_OP_LLVM_convert 32 7, DW_OP_LLVM_convert 16 7, DW_OP_stack_value] $eax
	.loc	8 124 68 is_stmt 1              # x264_src/common/rectangle.h:124:68
	movzwl	%ax, %ecx
.Ltmp626:
	#DEBUG_VALUE: x264_macroblock_cache_rect:v <- $ecx
	#DEBUG_VALUE: x264_macroblock_cache_rect:w <- [DW_OP_constu 1, DW_OP_shl, DW_OP_stack_value] 4
	#DEBUG_VALUE: x264_macroblock_cache_rect:h <- 2
	#DEBUG_VALUE: x264_macroblock_cache_rect:s <- 2
	#DEBUG_VALUE: x264_macroblock_cache_rect:v2 <- $eax
	.loc	8 26 32                         # x264_src/common/rectangle.h:26:32
	shll	$16, %eax
.Ltmp627:
	orl	%ecx, %eax
.Ltmp628:
	#DEBUG_VALUE: x264_macroblock_cache_rect:v4 <- $eax
	.loc	8 27 22                         # x264_src/common/rectangle.h:27:22
	movabsq	$4294967297, %rcx               # imm = 0x100000001
.Ltmp629:
	imulq	%rcx, %rax
.Ltmp630:
	#DEBUG_VALUE: x264_macroblock_cache_rect:v8 <- $rax
	#DEBUG_VALUE: x264_macroblock_cache_rect:s <- 16
	.loc	8 52 26                         # x264_src/common/rectangle.h:52:26
	movq	%rax, 24(%r14,%r15)
	.loc	8 54 26                         # x264_src/common/rectangle.h:54:26
	movq	%rax, 40(%r14,%r15)
.Ltmp631:
.LBB1_147:                              # %if.end417
                                        #   in Loop: Header=BB1_141 Depth=1
	#DEBUG_VALUE: x264_macroblock_write_cabac:h <- $rbx
	#DEBUG_VALUE: x264_macroblock_write_cabac:cb <- [DW_OP_plus_uconst 8] [$rsp+0]
	#DEBUG_VALUE: b_list <- [DW_OP_plus_uconst 24, DW_OP_deref] $rsp
	#DEBUG_VALUE: x264_macroblock_write_cabac:i_list <- $r12
	.loc	8 0 26 is_stmt 0                # x264_src/common/rectangle.h:0:26
	movq	24(%rsp), %rax                  # 8-byte Reload
.Ltmp632:
	.loc	0 909 21 is_stmt 1              # x264_src/encoder/cabac.c:909:21
	cmpb	$0, 1(%rax,%r12,2)
.Ltmp633:
	.loc	0 909 21 is_stmt 0              # x264_src/encoder/cabac.c:909:21
	je	.LBB1_140
.Ltmp634:
# %bb.148:                              # %do.body423
                                        #   in Loop: Header=BB1_141 Depth=1
	#DEBUG_VALUE: x264_macroblock_write_cabac:h <- $rbx
	#DEBUG_VALUE: x264_macroblock_write_cabac:cb <- [DW_OP_plus_uconst 8] [$rsp+0]
	#DEBUG_VALUE: b_list <- [DW_OP_plus_uconst 24, DW_OP_deref] $rsp
	#DEBUG_VALUE: x264_macroblock_write_cabac:i_list <- $r12
	#DEBUG_VALUE: x264_cabac_mb_mvd:mvp <- [DW_OP_plus_uconst 4, DW_OP_deref] $rsp
	#DEBUG_VALUE: x264_cabac_mb_mvd:h <- $rbx
	#DEBUG_VALUE: x264_cabac_mb_mvd:cb <- [DW_OP_plus_uconst 8, DW_OP_deref] $rsp
	#DEBUG_VALUE: x264_cabac_mb_mvd:i_list <- $r12
	#DEBUG_VALUE: x264_cabac_mb_mvd:idx <- 8
	#DEBUG_VALUE: x264_cabac_mb_mvd:width <- 4
	.loc	0 423 5 is_stmt 1               # x264_src/encoder/cabac.c:423:5
	movq	%rbx, %rdi
	movl	%r12d, %esi
	movl	$8, %edx
	movl	$4, %ecx
	leaq	4(%rsp), %r8
	callq	x264_mb_predict_mv@PLT
.Ltmp635:
	.loc	0 424 11                        # x264_src/encoder/cabac.c:424:11
	leaq	(%r12,%r12,4), %r13
	movq	%r13, %rax
	shlq	$5, %rax
	movq	48(%rsp), %rsi                  # 8-byte Reload
	movswl	112(%rsi,%rax), %edx
	.loc	0 424 56 is_stmt 0              # x264_src/encoder/cabac.c:424:56
	movswl	4(%rsp), %ecx
	.loc	0 424 54                        # x264_src/encoder/cabac.c:424:54
	subl	%ecx, %edx
.Ltmp636:
	#DEBUG_VALUE: x264_cabac_mb_mvd:mdx <- $edx
	.loc	0 425 11 is_stmt 1              # x264_src/encoder/cabac.c:425:11
	movswl	114(%rsi,%rax), %ebp
	.loc	0 425 56 is_stmt 0              # x264_src/encoder/cabac.c:425:56
	movswl	6(%rsp), %eax
	.loc	0 425 54                        # x264_src/encoder/cabac.c:425:54
	subl	%eax, %ebp
.Ltmp637:
	#DEBUG_VALUE: x264_cabac_mb_mvd:mdy <- $ebp
	.loc	0 426 40 is_stmt 1              # x264_src/encoder/cabac.c:426:40
	shlq	$4, %r13
.Ltmp638:
	#DEBUG_VALUE: mvd <- [DW_OP_LLVM_convert 32 7, DW_OP_LLVM_convert 16 7, DW_OP_stack_value] undef
	#DEBUG_VALUE: x264_macroblock_cache_mvd:h <- $rbx
	#DEBUG_VALUE: x264_macroblock_cache_mvd:x <- 0
	#DEBUG_VALUE: x264_macroblock_cache_mvd:y <- 2
	#DEBUG_VALUE: x264_macroblock_cache_mvd:width <- 4
	#DEBUG_VALUE: x264_macroblock_cache_mvd:height <- 2
	#DEBUG_VALUE: x264_macroblock_cache_mvd:i_list <- $r12
	#DEBUG_VALUE: x264_macroblock_cache_mvd:mvd <- [DW_OP_LLVM_convert 32 7, DW_OP_LLVM_convert 16 7, DW_OP_stack_value] undef
	#DEBUG_VALUE: x264_macroblock_cache_mvd:mvd_cache <- [DW_OP_LLVM_arg 0, DW_OP_LLVM_arg 1, DW_OP_plus, DW_OP_plus_uconst 56, DW_OP_stack_value] $r14, $r13
	#DEBUG_VALUE: x264_macroblock_cache_rect:dst <- [DW_OP_LLVM_arg 0, DW_OP_LLVM_arg 1, DW_OP_plus, DW_OP_plus_uconst 56, DW_OP_stack_value] $r14, $r13
	#DEBUG_VALUE: x264_macroblock_cache_rect:d <- [DW_OP_LLVM_arg 0, DW_OP_LLVM_arg 1, DW_OP_plus, DW_OP_plus_uconst 56, DW_OP_stack_value] $r14, $r13
	.loc	0 426 21 is_stmt 0              # x264_src/encoder/cabac.c:426:21
	movzbl	54(%r14,%r13), %eax
	movzbl	55(%r14,%r13), %ecx
	movzbl	40(%r14,%r13), %esi
.Ltmp639:
	.loc	5 239 33 is_stmt 1              # x264_src/common/common.h:239:33
	addl	%eax, %esi
.Ltmp640:
	.loc	0 426 21                        # x264_src/encoder/cabac.c:426:21
	movzbl	41(%r14,%r13), %eax
.Ltmp641:
	#DEBUG_VALUE: x264_cabac_mvd_sum:mvdleft <- undef
	#DEBUG_VALUE: x264_cabac_mvd_sum:mvdtop <- undef
	#DEBUG_VALUE: x264_cabac_mvd_sum:amvd0 <- $esi
	.loc	5 240 33                        # x264_src/common/common.h:240:33
	addl	%ecx, %eax
.Ltmp642:
	#DEBUG_VALUE: x264_cabac_mvd_sum:amvd1 <- $eax
	.loc	5 241 20                        # x264_src/common/common.h:241:20
	xorl	%ecx, %ecx
	cmpl	$3, %esi
	setae	%cl
.Ltmp643:
	#DEBUG_VALUE: x264_cabac_mvd_sum:amvd0 <- undef
	.loc	5 241 34 is_stmt 0              # x264_src/common/common.h:241:34
	cmpl	$33, %esi
	.loc	5 241 25                        # x264_src/common/common.h:241:25
	sbbl	$-1, %ecx
	.loc	5 242 20 is_stmt 1              # x264_src/common/common.h:242:20
	xorl	%r15d, %r15d
	cmpl	$3, %eax
	setae	%r15b
.Ltmp644:
	#DEBUG_VALUE: x264_cabac_mvd_sum:amvd1 <- undef
	.loc	5 242 34 is_stmt 0              # x264_src/common/common.h:242:34
	cmpl	$33, %eax
	.loc	5 242 25                        # x264_src/common/common.h:242:25
	sbbl	$-1, %r15d
.Ltmp645:
	#DEBUG_VALUE: x264_cabac_mb_mvd:amvd <- [DW_OP_LLVM_arg 0, DW_OP_constu 8, DW_OP_shl, DW_OP_LLVM_arg 1, DW_OP_or, DW_OP_stack_value] $r15d, $ecx
	.loc	5 0 25                          # x264_src/common/common.h:0:25
	movq	8(%rsp), %rdi                   # 8-byte Reload
.Ltmp646:
	.loc	0 430 11 is_stmt 1              # x264_src/encoder/cabac.c:430:11
	xorl	%esi, %esi
	callq	x264_cabac_mb_mvd_cpn
.Ltmp647:
	movl	%eax, %r12d
.Ltmp648:
	#DEBUG_VALUE: x264_cabac_mb_mvd:mdx <- $r12d
	#DEBUG_VALUE: pack8to16:a <- $r12d
	.loc	0 0 11 is_stmt 0                # x264_src/encoder/cabac.c:0:11
	movq	8(%rsp), %rdi                   # 8-byte Reload
	.loc	0 431 11 is_stmt 1              # x264_src/encoder/cabac.c:431:11
	movl	$1, %esi
	movl	%ebp, %edx
	movl	%r15d, %ecx
	callq	x264_cabac_mb_mvd_cpn
.Ltmp649:
                                        # kill: def $eax killed $eax def $rax
	#DEBUG_VALUE: x264_cabac_mb_mvd:mdy <- $eax
	#DEBUG_VALUE: pack8to16:b <- $eax
	.loc	6 329 17                        # x264_src/common/macroblock.h:329:17
	shll	$8, %eax
.Ltmp650:
	.loc	6 329 13 is_stmt 0              # x264_src/common/macroblock.h:329:13
	addl	%r12d, %eax
.Ltmp651:
	#DEBUG_VALUE: x264_macroblock_cache_mvd:mvd <- [DW_OP_LLVM_convert 32 7, DW_OP_LLVM_convert 16 7, DW_OP_stack_value] $eax
	#DEBUG_VALUE: mvd <- [DW_OP_LLVM_convert 32 7, DW_OP_LLVM_convert 16 7, DW_OP_stack_value] $eax
	.loc	8 124 68 is_stmt 1              # x264_src/common/rectangle.h:124:68
	movzwl	%ax, %ecx
.Ltmp652:
	#DEBUG_VALUE: x264_macroblock_cache_rect:v <- $ecx
	#DEBUG_VALUE: x264_macroblock_cache_rect:w <- [DW_OP_constu 1, DW_OP_shl, DW_OP_stack_value] 4
	#DEBUG_VALUE: x264_macroblock_cache_rect:h <- 2
	#DEBUG_VALUE: x264_macroblock_cache_rect:s <- 2
	#DEBUG_VALUE: x264_macroblock_cache_rect:v2 <- $eax
	.loc	8 26 32                         # x264_src/common/rectangle.h:26:32
	shll	$16, %eax
.Ltmp653:
	orl	%ecx, %eax
.Ltmp654:
	#DEBUG_VALUE: x264_macroblock_cache_rect:v4 <- $eax
	.loc	8 27 22                         # x264_src/common/rectangle.h:27:22
	movabsq	$4294967297, %rcx               # imm = 0x100000001
.Ltmp655:
	imulq	%rcx, %rax
.Ltmp656:
	#DEBUG_VALUE: x264_macroblock_cache_rect:v8 <- $rax
	#DEBUG_VALUE: x264_macroblock_cache_rect:s <- 16
	.loc	8 52 26                         # x264_src/common/rectangle.h:52:26
	movq	%rax, 56(%r14,%r13)
	.loc	8 54 26                         # x264_src/common/rectangle.h:54:26
	movq	%rax, 72(%r14,%r13)
	jmp	.LBB1_139
.Ltmp657:
	.p2align	4, 0x90
.LBB1_149:                              # %if.else431
                                        #   in Loop: Header=BB1_141 Depth=1
	#DEBUG_VALUE: x264_macroblock_write_cabac:h <- $rbx
	#DEBUG_VALUE: x264_macroblock_write_cabac:cb <- [DW_OP_plus_uconst 8] [$rsp+0]
	#DEBUG_VALUE: b_list <- [DW_OP_plus_uconst 24, DW_OP_deref] $rsp
	#DEBUG_VALUE: x264_macroblock_write_cabac:i_list <- $r12
	.loc	0 0 0 is_stmt 0                 # x264_src/encoder/cabac.c:0:0
	testb	%al, %al
.Ltmp658:
	.loc	0 913 21 is_stmt 1              # x264_src/encoder/cabac.c:913:21
	je	.LBB1_151
.Ltmp659:
# %bb.150:                              # %do.body437
                                        #   in Loop: Header=BB1_141 Depth=1
	#DEBUG_VALUE: x264_macroblock_write_cabac:h <- $rbx
	#DEBUG_VALUE: x264_macroblock_write_cabac:cb <- [DW_OP_plus_uconst 8] [$rsp+0]
	#DEBUG_VALUE: b_list <- [DW_OP_plus_uconst 24, DW_OP_deref] $rsp
	#DEBUG_VALUE: x264_macroblock_write_cabac:i_list <- $r12
	#DEBUG_VALUE: x264_cabac_mb_mvd:mvp <- [DW_OP_plus_uconst 4, DW_OP_deref] $rsp
	#DEBUG_VALUE: x264_cabac_mb_mvd:h <- $rbx
	#DEBUG_VALUE: x264_cabac_mb_mvd:cb <- [DW_OP_plus_uconst 8, DW_OP_deref] $rsp
	#DEBUG_VALUE: x264_cabac_mb_mvd:i_list <- $r12
	#DEBUG_VALUE: x264_cabac_mb_mvd:idx <- 0
	#DEBUG_VALUE: x264_cabac_mb_mvd:width <- 2
	.loc	0 423 5                         # x264_src/encoder/cabac.c:423:5
	movq	%rbx, %rdi
	movl	%r12d, %esi
	xorl	%edx, %edx
	movl	$2, %ecx
	leaq	4(%rsp), %r8
	callq	x264_mb_predict_mv@PLT
.Ltmp660:
	.loc	0 424 11                        # x264_src/encoder/cabac.c:424:11
	leaq	(%r12,%r12,4), %r13
	movq	%r13, %rax
	shlq	$5, %rax
	movq	48(%rsp), %rsi                  # 8-byte Reload
	movswl	48(%rsi,%rax), %edx
	.loc	0 424 56 is_stmt 0              # x264_src/encoder/cabac.c:424:56
	movswl	4(%rsp), %ecx
	.loc	0 424 54                        # x264_src/encoder/cabac.c:424:54
	subl	%ecx, %edx
.Ltmp661:
	#DEBUG_VALUE: x264_cabac_mb_mvd:mdx <- $edx
	.loc	0 425 11 is_stmt 1              # x264_src/encoder/cabac.c:425:11
	movswl	50(%rsi,%rax), %ebp
	.loc	0 425 56 is_stmt 0              # x264_src/encoder/cabac.c:425:56
	movswl	6(%rsp), %eax
	.loc	0 425 54                        # x264_src/encoder/cabac.c:425:54
	subl	%eax, %ebp
.Ltmp662:
	#DEBUG_VALUE: x264_cabac_mb_mvd:mdy <- $ebp
	.loc	0 426 40 is_stmt 1              # x264_src/encoder/cabac.c:426:40
	shlq	$4, %r13
.Ltmp663:
	#DEBUG_VALUE: mvd <- [DW_OP_LLVM_convert 32 7, DW_OP_LLVM_convert 16 7, DW_OP_stack_value] undef
	#DEBUG_VALUE: x264_macroblock_cache_mvd:h <- $rbx
	#DEBUG_VALUE: x264_macroblock_cache_mvd:x <- 0
	#DEBUG_VALUE: x264_macroblock_cache_mvd:y <- 0
	#DEBUG_VALUE: x264_macroblock_cache_mvd:width <- 2
	#DEBUG_VALUE: x264_macroblock_cache_mvd:height <- 4
	#DEBUG_VALUE: x264_macroblock_cache_mvd:i_list <- $r12
	#DEBUG_VALUE: x264_macroblock_cache_mvd:mvd <- [DW_OP_LLVM_convert 32 7, DW_OP_LLVM_convert 16 7, DW_OP_stack_value] undef
	#DEBUG_VALUE: x264_macroblock_cache_mvd:mvd_cache <- [DW_OP_LLVM_arg 0, DW_OP_LLVM_arg 1, DW_OP_plus, DW_OP_plus_uconst 24, DW_OP_stack_value] $r14, $r13
	#DEBUG_VALUE: x264_macroblock_cache_rect:dst <- [DW_OP_LLVM_arg 0, DW_OP_LLVM_arg 1, DW_OP_plus, DW_OP_plus_uconst 24, DW_OP_stack_value] $r14, $r13
	#DEBUG_VALUE: x264_macroblock_cache_rect:d <- [DW_OP_LLVM_arg 0, DW_OP_LLVM_arg 1, DW_OP_plus, DW_OP_plus_uconst 24, DW_OP_stack_value] $r14, $r13
	.loc	0 426 21 is_stmt 0              # x264_src/encoder/cabac.c:426:21
	movzbl	22(%r14,%r13), %eax
	movzbl	23(%r14,%r13), %ecx
	movzbl	8(%r14,%r13), %esi
.Ltmp664:
	.loc	5 239 33 is_stmt 1              # x264_src/common/common.h:239:33
	addl	%eax, %esi
.Ltmp665:
	.loc	0 426 21                        # x264_src/encoder/cabac.c:426:21
	movzbl	9(%r14,%r13), %eax
.Ltmp666:
	#DEBUG_VALUE: x264_cabac_mvd_sum:mvdleft <- undef
	#DEBUG_VALUE: x264_cabac_mvd_sum:mvdtop <- undef
	#DEBUG_VALUE: x264_cabac_mvd_sum:amvd0 <- $esi
	.loc	5 240 33                        # x264_src/common/common.h:240:33
	addl	%ecx, %eax
.Ltmp667:
	#DEBUG_VALUE: x264_cabac_mvd_sum:amvd1 <- $eax
	.loc	5 241 20                        # x264_src/common/common.h:241:20
	xorl	%ecx, %ecx
	cmpl	$3, %esi
	setae	%cl
.Ltmp668:
	#DEBUG_VALUE: x264_cabac_mvd_sum:amvd0 <- undef
	.loc	5 241 34 is_stmt 0              # x264_src/common/common.h:241:34
	cmpl	$33, %esi
	.loc	5 241 25                        # x264_src/common/common.h:241:25
	sbbl	$-1, %ecx
	.loc	5 242 20 is_stmt 1              # x264_src/common/common.h:242:20
	xorl	%r15d, %r15d
	cmpl	$3, %eax
	setae	%r15b
.Ltmp669:
	#DEBUG_VALUE: x264_cabac_mvd_sum:amvd1 <- undef
	.loc	5 242 34 is_stmt 0              # x264_src/common/common.h:242:34
	cmpl	$33, %eax
	.loc	5 242 25                        # x264_src/common/common.h:242:25
	sbbl	$-1, %r15d
.Ltmp670:
	#DEBUG_VALUE: x264_cabac_mb_mvd:amvd <- [DW_OP_LLVM_arg 0, DW_OP_constu 8, DW_OP_shl, DW_OP_LLVM_arg 1, DW_OP_or, DW_OP_stack_value] $r15d, $ecx
	.loc	5 0 25                          # x264_src/common/common.h:0:25
	movq	8(%rsp), %rdi                   # 8-byte Reload
.Ltmp671:
	.loc	0 430 11 is_stmt 1              # x264_src/encoder/cabac.c:430:11
	xorl	%esi, %esi
	callq	x264_cabac_mb_mvd_cpn
.Ltmp672:
	.loc	0 0 11 is_stmt 0                # x264_src/encoder/cabac.c:0:11
	movl	%eax, 44(%rsp)                  # 4-byte Spill
.Ltmp673:
	#DEBUG_VALUE: x264_cabac_mb_mvd:mdx <- [DW_OP_plus_uconst 44, DW_OP_deref] $rsp
	#DEBUG_VALUE: pack8to16:a <- [DW_OP_plus_uconst 44, DW_OP_deref] $rsp
	movq	8(%rsp), %rdi                   # 8-byte Reload
	.loc	0 431 11 is_stmt 1              # x264_src/encoder/cabac.c:431:11
	movl	$1, %esi
	movl	%ebp, %edx
	movl	%r15d, %ecx
	callq	x264_cabac_mb_mvd_cpn
.Ltmp674:
	#DEBUG_VALUE: x264_cabac_mb_mvd:mdy <- $eax
	#DEBUG_VALUE: pack8to16:b <- $eax
	.loc	6 329 17                        # x264_src/common/macroblock.h:329:17
	shll	$8, %eax
.Ltmp675:
	.loc	6 329 13 is_stmt 0              # x264_src/common/macroblock.h:329:13
	addl	44(%rsp), %eax                  # 4-byte Folded Reload
.Ltmp676:
	#DEBUG_VALUE: x264_macroblock_cache_mvd:mvd <- [DW_OP_LLVM_convert 32 7, DW_OP_LLVM_convert 16 7, DW_OP_stack_value] $eax
	#DEBUG_VALUE: mvd <- [DW_OP_LLVM_convert 32 7, DW_OP_LLVM_convert 16 7, DW_OP_stack_value] $eax
	.loc	8 124 68 is_stmt 1              # x264_src/common/rectangle.h:124:68
	movzwl	%ax, %ecx
.Ltmp677:
	#DEBUG_VALUE: x264_macroblock_cache_rect:v <- $ecx
	#DEBUG_VALUE: x264_macroblock_cache_rect:w <- [DW_OP_constu 1, DW_OP_shl, DW_OP_stack_value] 2
	#DEBUG_VALUE: x264_macroblock_cache_rect:h <- 4
	#DEBUG_VALUE: x264_macroblock_cache_rect:s <- 2
	#DEBUG_VALUE: x264_macroblock_cache_rect:v2 <- $eax
	.loc	8 26 32                         # x264_src/common/rectangle.h:26:32
	shll	$16, %eax
.Ltmp678:
	orl	%ecx, %eax
.Ltmp679:
	#DEBUG_VALUE: x264_macroblock_cache_rect:v4 <- $eax
	#DEBUG_VALUE: x264_macroblock_cache_rect:v8 <- [DW_OP_LLVM_convert 32 7, DW_OP_LLVM_convert 64 7, DW_OP_constu 4294967297, DW_OP_mul, DW_OP_stack_value] $eax
	#DEBUG_VALUE: x264_macroblock_cache_rect:s <- 16
	.loc	8 41 22                         # x264_src/common/rectangle.h:41:22
	movl	%eax, 24(%r14,%r13)
	.loc	8 43 22                         # x264_src/common/rectangle.h:43:22
	movl	%eax, 40(%r14,%r13)
	.loc	8 45 22                         # x264_src/common/rectangle.h:45:22
	movl	%eax, 56(%r14,%r13)
	.loc	8 46 22                         # x264_src/common/rectangle.h:46:22
	movl	%eax, 72(%r14,%r13)
	movq	8(%rsp), %r13                   # 8-byte Reload
.Ltmp680:
.LBB1_151:                              # %if.end444
                                        #   in Loop: Header=BB1_141 Depth=1
	#DEBUG_VALUE: x264_macroblock_write_cabac:h <- $rbx
	#DEBUG_VALUE: x264_macroblock_write_cabac:cb <- [DW_OP_plus_uconst 8] [$rsp+0]
	#DEBUG_VALUE: b_list <- [DW_OP_plus_uconst 24, DW_OP_deref] $rsp
	#DEBUG_VALUE: x264_macroblock_write_cabac:i_list <- $r12
	.loc	8 0 22 is_stmt 0                # x264_src/common/rectangle.h:0:22
	movq	24(%rsp), %rax                  # 8-byte Reload
.Ltmp681:
	.loc	0 914 21 is_stmt 1              # x264_src/encoder/cabac.c:914:21
	cmpb	$0, 1(%rax,%r12,2)
.Ltmp682:
	.loc	0 914 21 is_stmt 0              # x264_src/encoder/cabac.c:914:21
	je	.LBB1_140
.Ltmp683:
# %bb.152:                              # %do.body450
                                        #   in Loop: Header=BB1_141 Depth=1
	#DEBUG_VALUE: x264_macroblock_write_cabac:h <- $rbx
	#DEBUG_VALUE: x264_macroblock_write_cabac:cb <- [DW_OP_plus_uconst 8] [$rsp+0]
	#DEBUG_VALUE: b_list <- [DW_OP_plus_uconst 24, DW_OP_deref] $rsp
	#DEBUG_VALUE: x264_macroblock_write_cabac:i_list <- $r12
	#DEBUG_VALUE: x264_cabac_mb_mvd:mvp <- [DW_OP_plus_uconst 4, DW_OP_deref] $rsp
	#DEBUG_VALUE: x264_cabac_mb_mvd:h <- $rbx
	#DEBUG_VALUE: x264_cabac_mb_mvd:cb <- [DW_OP_plus_uconst 8, DW_OP_deref] $rsp
	#DEBUG_VALUE: x264_cabac_mb_mvd:i_list <- $r12
	#DEBUG_VALUE: x264_cabac_mb_mvd:idx <- 4
	#DEBUG_VALUE: x264_cabac_mb_mvd:width <- 2
	.loc	0 423 5 is_stmt 1               # x264_src/encoder/cabac.c:423:5
	movq	%rbx, %rdi
	movl	%r12d, %esi
	movl	$4, %edx
	movl	$2, %ecx
	leaq	4(%rsp), %r8
	callq	x264_mb_predict_mv@PLT
.Ltmp684:
	.loc	0 424 11                        # x264_src/encoder/cabac.c:424:11
	leaq	(%r12,%r12,4), %r13
	movq	%r13, %rax
	shlq	$5, %rax
	movq	48(%rsp), %rsi                  # 8-byte Reload
	movswl	56(%rsi,%rax), %edx
	.loc	0 424 56 is_stmt 0              # x264_src/encoder/cabac.c:424:56
	movswl	4(%rsp), %ecx
	.loc	0 424 54                        # x264_src/encoder/cabac.c:424:54
	subl	%ecx, %edx
.Ltmp685:
	#DEBUG_VALUE: x264_cabac_mb_mvd:mdx <- $edx
	.loc	0 425 11 is_stmt 1              # x264_src/encoder/cabac.c:425:11
	movswl	58(%rsi,%rax), %ebp
	.loc	0 425 56 is_stmt 0              # x264_src/encoder/cabac.c:425:56
	movswl	6(%rsp), %eax
	.loc	0 425 54                        # x264_src/encoder/cabac.c:425:54
	subl	%eax, %ebp
.Ltmp686:
	#DEBUG_VALUE: x264_cabac_mb_mvd:mdy <- $ebp
	.loc	0 426 40 is_stmt 1              # x264_src/encoder/cabac.c:426:40
	shlq	$4, %r13
.Ltmp687:
	#DEBUG_VALUE: mvd <- [DW_OP_LLVM_convert 32 7, DW_OP_LLVM_convert 16 7, DW_OP_stack_value] undef
	#DEBUG_VALUE: x264_macroblock_cache_mvd:h <- $rbx
	#DEBUG_VALUE: x264_macroblock_cache_mvd:x <- 2
	#DEBUG_VALUE: x264_macroblock_cache_mvd:y <- 0
	#DEBUG_VALUE: x264_macroblock_cache_mvd:width <- 2
	#DEBUG_VALUE: x264_macroblock_cache_mvd:height <- 4
	#DEBUG_VALUE: x264_macroblock_cache_mvd:i_list <- $r12
	#DEBUG_VALUE: x264_macroblock_cache_mvd:mvd <- [DW_OP_LLVM_convert 32 7, DW_OP_LLVM_convert 16 7, DW_OP_stack_value] undef
	#DEBUG_VALUE: x264_macroblock_cache_mvd:mvd_cache <- [DW_OP_LLVM_arg 0, DW_OP_LLVM_arg 1, DW_OP_plus, DW_OP_plus_uconst 28, DW_OP_stack_value] $r14, $r13
	#DEBUG_VALUE: x264_macroblock_cache_rect:dst <- [DW_OP_LLVM_arg 0, DW_OP_LLVM_arg 1, DW_OP_plus, DW_OP_plus_uconst 28, DW_OP_stack_value] $r14, $r13
	#DEBUG_VALUE: x264_macroblock_cache_rect:d <- [DW_OP_LLVM_arg 0, DW_OP_LLVM_arg 1, DW_OP_plus, DW_OP_plus_uconst 28, DW_OP_stack_value] $r14, $r13
	.loc	0 426 21 is_stmt 0              # x264_src/encoder/cabac.c:426:21
	movzbl	26(%r14,%r13), %eax
	movzbl	27(%r14,%r13), %ecx
	movzbl	12(%r14,%r13), %esi
.Ltmp688:
	.loc	5 239 33 is_stmt 1              # x264_src/common/common.h:239:33
	addl	%eax, %esi
.Ltmp689:
	.loc	0 426 21                        # x264_src/encoder/cabac.c:426:21
	movzbl	13(%r14,%r13), %eax
.Ltmp690:
	#DEBUG_VALUE: x264_cabac_mvd_sum:mvdleft <- undef
	#DEBUG_VALUE: x264_cabac_mvd_sum:mvdtop <- undef
	#DEBUG_VALUE: x264_cabac_mvd_sum:amvd0 <- $esi
	.loc	5 240 33                        # x264_src/common/common.h:240:33
	addl	%ecx, %eax
.Ltmp691:
	#DEBUG_VALUE: x264_cabac_mvd_sum:amvd1 <- $eax
	.loc	5 241 20                        # x264_src/common/common.h:241:20
	xorl	%ecx, %ecx
	cmpl	$3, %esi
	setae	%cl
.Ltmp692:
	#DEBUG_VALUE: x264_cabac_mvd_sum:amvd0 <- undef
	.loc	5 241 34 is_stmt 0              # x264_src/common/common.h:241:34
	cmpl	$33, %esi
	.loc	5 241 25                        # x264_src/common/common.h:241:25
	sbbl	$-1, %ecx
	.loc	5 242 20 is_stmt 1              # x264_src/common/common.h:242:20
	xorl	%r15d, %r15d
	cmpl	$3, %eax
	setae	%r15b
.Ltmp693:
	#DEBUG_VALUE: x264_cabac_mvd_sum:amvd1 <- undef
	.loc	5 242 34 is_stmt 0              # x264_src/common/common.h:242:34
	cmpl	$33, %eax
	.loc	5 242 25                        # x264_src/common/common.h:242:25
	sbbl	$-1, %r15d
.Ltmp694:
	#DEBUG_VALUE: x264_cabac_mb_mvd:amvd <- [DW_OP_LLVM_arg 0, DW_OP_constu 8, DW_OP_shl, DW_OP_LLVM_arg 1, DW_OP_or, DW_OP_stack_value] $r15d, $ecx
	.loc	5 0 25                          # x264_src/common/common.h:0:25
	movq	8(%rsp), %rdi                   # 8-byte Reload
.Ltmp695:
	.loc	0 430 11 is_stmt 1              # x264_src/encoder/cabac.c:430:11
	xorl	%esi, %esi
	callq	x264_cabac_mb_mvd_cpn
.Ltmp696:
	movl	%eax, %r12d
.Ltmp697:
	#DEBUG_VALUE: x264_cabac_mb_mvd:mdx <- $r12d
	#DEBUG_VALUE: pack8to16:a <- $r12d
	.loc	0 0 11 is_stmt 0                # x264_src/encoder/cabac.c:0:11
	movq	8(%rsp), %rdi                   # 8-byte Reload
	.loc	0 431 11 is_stmt 1              # x264_src/encoder/cabac.c:431:11
	movl	$1, %esi
	movl	%ebp, %edx
	movl	%r15d, %ecx
	callq	x264_cabac_mb_mvd_cpn
.Ltmp698:
	#DEBUG_VALUE: x264_cabac_mb_mvd:mdy <- $eax
	#DEBUG_VALUE: pack8to16:b <- $eax
	.loc	6 329 17                        # x264_src/common/macroblock.h:329:17
	shll	$8, %eax
.Ltmp699:
	.loc	6 329 13 is_stmt 0              # x264_src/common/macroblock.h:329:13
	addl	%r12d, %eax
.Ltmp700:
	#DEBUG_VALUE: x264_macroblock_cache_mvd:mvd <- [DW_OP_LLVM_convert 32 7, DW_OP_LLVM_convert 16 7, DW_OP_stack_value] $eax
	#DEBUG_VALUE: mvd <- [DW_OP_LLVM_convert 32 7, DW_OP_LLVM_convert 16 7, DW_OP_stack_value] $eax
	.loc	8 124 68 is_stmt 1              # x264_src/common/rectangle.h:124:68
	movzwl	%ax, %ecx
.Ltmp701:
	#DEBUG_VALUE: x264_macroblock_cache_rect:v <- $ecx
	#DEBUG_VALUE: x264_macroblock_cache_rect:w <- [DW_OP_constu 1, DW_OP_shl, DW_OP_stack_value] 2
	#DEBUG_VALUE: x264_macroblock_cache_rect:h <- 4
	#DEBUG_VALUE: x264_macroblock_cache_rect:s <- 2
	#DEBUG_VALUE: x264_macroblock_cache_rect:v2 <- $eax
	.loc	8 26 32                         # x264_src/common/rectangle.h:26:32
	shll	$16, %eax
.Ltmp702:
	orl	%ecx, %eax
.Ltmp703:
	#DEBUG_VALUE: x264_macroblock_cache_rect:v4 <- $eax
	#DEBUG_VALUE: x264_macroblock_cache_rect:v8 <- [DW_OP_LLVM_convert 32 7, DW_OP_LLVM_convert 64 7, DW_OP_constu 4294967297, DW_OP_mul, DW_OP_stack_value] $eax
	#DEBUG_VALUE: x264_macroblock_cache_rect:s <- 16
	.loc	8 41 22                         # x264_src/common/rectangle.h:41:22
	movl	%eax, 28(%r14,%r13)
	.loc	8 43 22                         # x264_src/common/rectangle.h:43:22
	movl	%eax, 44(%r14,%r13)
	.loc	8 45 22                         # x264_src/common/rectangle.h:45:22
	movl	%eax, 60(%r14,%r13)
	.loc	8 46 22                         # x264_src/common/rectangle.h:46:22
	movl	%eax, 76(%r14,%r13)
	jmp	.LBB1_139
.Ltmp704:
.LBB1_153:
	#DEBUG_VALUE: x264_macroblock_write_cabac:h <- $rbx
	#DEBUG_VALUE: x264_macroblock_write_cabac:cb <- [DW_OP_plus_uconst 8] [$rsp+0]
	.loc	8 0 22 is_stmt 0                # x264_src/common/rectangle.h:0:22
	movl	$0, 24(%rsp)                    # 4-byte Folded Spill
.Ltmp705:
.LBB1_154:                              # %if.end467
	#DEBUG_VALUE: x264_macroblock_write_cabac:h <- $rbx
	#DEBUG_VALUE: x264_macroblock_write_cabac:cb <- [DW_OP_plus_uconst 8] [$rsp+0]
	movl	36(%rsp), %r14d                 # 4-byte Reload
	jmp	.LBB1_155
.Ltmp706:
.LBB1_232:                              # %if.end3.i
	#DEBUG_VALUE: x264_macroblock_write_cabac:h <- $rbx
	#DEBUG_VALUE: x264_macroblock_write_cabac:cb <- [DW_OP_plus_uconst 8] [$rsp+0]
	#DEBUG_VALUE: i <- 0
	#DEBUG_VALUE: x264_cabac_mb_sub_b_partition:i_sub <- [DW_OP_LLVM_convert 8 7, DW_OP_LLVM_convert 32 7, DW_OP_stack_value] $bpl
	#DEBUG_VALUE: x264_cabac_mb_sub_b_partition:cb <- [DW_OP_plus_uconst 8, DW_OP_deref] $rsp
	.loc	0 324 5 is_stmt 1               # x264_src/encoder/cabac.c:324:5
	xorl	%edx, %edx
	callq	x264_cabac_encode_decision_c@PLT
.Ltmp707:
	.loc	0 325 47                        # x264_src/encoder/cabac.c:325:47
	xorl	%edx, %edx
	cmpb	$7, %bpl
	sete	%dl
	.loc	0 325 5 is_stmt 0               # x264_src/encoder/cabac.c:325:5
	movq	%r13, %rdi
	movl	$39, %esi
.Ltmp708:
.LBB1_233:                              # %x264_cabac_mb_sub_b_partition.exit
	#DEBUG_VALUE: x264_macroblock_write_cabac:h <- $rbx
	#DEBUG_VALUE: x264_macroblock_write_cabac:cb <- [DW_OP_plus_uconst 8] [$rsp+0]
	#DEBUG_VALUE: i <- 0
	#DEBUG_VALUE: x264_cabac_mb_sub_b_partition:i_sub <- [DW_OP_LLVM_convert 8 7, DW_OP_LLVM_convert 32 7, DW_OP_stack_value] $bpl
	#DEBUG_VALUE: x264_cabac_mb_sub_b_partition:cb <- [DW_OP_plus_uconst 8, DW_OP_deref] $rsp
	.loc	0 0 0                           # x264_src/encoder/cabac.c:0:0
	callq	x264_cabac_encode_decision_c@PLT
.Ltmp709:
	#DEBUG_VALUE: i <- 1
	.loc	0 861 48 is_stmt 1              # x264_src/encoder/cabac.c:861:48
	movzbl	17393(%rbx), %ebp
.Ltmp710:
	#DEBUG_VALUE: x264_cabac_mb_sub_b_partition:i_sub <- [DW_OP_LLVM_convert 8 7, DW_OP_LLVM_convert 32 7, DW_OP_stack_value] $bpl
	#DEBUG_VALUE: x264_cabac_mb_sub_b_partition:cb <- [DW_OP_plus_uconst 8, DW_OP_deref] $rsp
	.loc	0 312 9                         # x264_src/encoder/cabac.c:312:9
	movq	%r13, %rdi
	movl	$36, %esi
.Ltmp711:
	.loc	0 310 15                        # x264_src/encoder/cabac.c:310:15
	cmpb	$12, %bpl
.Ltmp712:
	.loc	0 310 9 is_stmt 0               # x264_src/encoder/cabac.c:310:9
	je	.LBB1_236
.Ltmp713:
# %bb.234:                              # %if.end.i1189.1
	#DEBUG_VALUE: x264_macroblock_write_cabac:h <- $rbx
	#DEBUG_VALUE: x264_macroblock_write_cabac:cb <- [DW_OP_plus_uconst 8] [$rsp+0]
	#DEBUG_VALUE: i <- 1
	#DEBUG_VALUE: x264_cabac_mb_sub_b_partition:i_sub <- [DW_OP_LLVM_convert 8 7, DW_OP_LLVM_convert 32 7, DW_OP_stack_value] $bpl
	#DEBUG_VALUE: x264_cabac_mb_sub_b_partition:cb <- [DW_OP_plus_uconst 8, DW_OP_deref] $rsp
	.loc	0 315 5 is_stmt 1               # x264_src/encoder/cabac.c:315:5
	movl	$1, %edx
	callq	x264_cabac_encode_decision_c@PLT
.Ltmp714:
	.loc	0 318 9                         # x264_src/encoder/cabac.c:318:9
	movq	%r13, %rdi
	movl	$37, %esi
.Ltmp715:
	.loc	0 316 15                        # x264_src/encoder/cabac.c:316:15
	cmpb	$11, %bpl
.Ltmp716:
	.loc	0 316 9 is_stmt 0               # x264_src/encoder/cabac.c:316:9
	jne	.LBB1_237
.Ltmp717:
# %bb.235:                              # %if.then2.i1192.1
	#DEBUG_VALUE: x264_macroblock_write_cabac:h <- $rbx
	#DEBUG_VALUE: x264_macroblock_write_cabac:cb <- [DW_OP_plus_uconst 8] [$rsp+0]
	#DEBUG_VALUE: i <- 1
	#DEBUG_VALUE: x264_cabac_mb_sub_b_partition:i_sub <- [DW_OP_LLVM_convert 8 7, DW_OP_LLVM_convert 32 7, DW_OP_stack_value] $bpl
	#DEBUG_VALUE: x264_cabac_mb_sub_b_partition:cb <- [DW_OP_plus_uconst 8, DW_OP_deref] $rsp
	.loc	0 318 9 is_stmt 1               # x264_src/encoder/cabac.c:318:9
	movl	$1, %edx
	callq	x264_cabac_encode_decision_c@PLT
.Ltmp718:
	.loc	0 319 9                         # x264_src/encoder/cabac.c:319:9
	movq	%r13, %rdi
	movl	$38, %esi
	xorl	%edx, %edx
	callq	x264_cabac_encode_decision_c@PLT
.Ltmp719:
	.loc	0 320 9                         # x264_src/encoder/cabac.c:320:9
	movq	%r13, %rdi
	movl	$39, %esi
	xorl	%edx, %edx
	callq	x264_cabac_encode_decision_c@PLT
.Ltmp720:
	.loc	0 321 9                         # x264_src/encoder/cabac.c:321:9
	movq	%r13, %rdi
	movl	$39, %esi
.Ltmp721:
.LBB1_236:                              # %x264_cabac_mb_sub_b_partition.exit.1
	#DEBUG_VALUE: x264_macroblock_write_cabac:h <- $rbx
	#DEBUG_VALUE: x264_macroblock_write_cabac:cb <- [DW_OP_plus_uconst 8] [$rsp+0]
	#DEBUG_VALUE: i <- 1
	#DEBUG_VALUE: x264_cabac_mb_sub_b_partition:i_sub <- [DW_OP_LLVM_convert 8 7, DW_OP_LLVM_convert 32 7, DW_OP_stack_value] $bpl
	#DEBUG_VALUE: x264_cabac_mb_sub_b_partition:cb <- [DW_OP_plus_uconst 8, DW_OP_deref] $rsp
	.loc	0 0 0 is_stmt 0                 # x264_src/encoder/cabac.c:0:0
	xorl	%edx, %edx
	jmp	.LBB1_238
.Ltmp722:
.LBB1_237:                              # %if.end3.i.1
	#DEBUG_VALUE: x264_macroblock_write_cabac:h <- $rbx
	#DEBUG_VALUE: x264_macroblock_write_cabac:cb <- [DW_OP_plus_uconst 8] [$rsp+0]
	#DEBUG_VALUE: i <- 1
	#DEBUG_VALUE: x264_cabac_mb_sub_b_partition:i_sub <- [DW_OP_LLVM_convert 8 7, DW_OP_LLVM_convert 32 7, DW_OP_stack_value] $bpl
	#DEBUG_VALUE: x264_cabac_mb_sub_b_partition:cb <- [DW_OP_plus_uconst 8, DW_OP_deref] $rsp
	.loc	0 324 5 is_stmt 1               # x264_src/encoder/cabac.c:324:5
	xorl	%edx, %edx
	callq	x264_cabac_encode_decision_c@PLT
.Ltmp723:
	.loc	0 325 47                        # x264_src/encoder/cabac.c:325:47
	xorl	%edx, %edx
	cmpb	$7, %bpl
	sete	%dl
	.loc	0 325 5 is_stmt 0               # x264_src/encoder/cabac.c:325:5
	movq	%r13, %rdi
	movl	$39, %esi
.Ltmp724:
.LBB1_238:                              # %x264_cabac_mb_sub_b_partition.exit.1
	#DEBUG_VALUE: x264_macroblock_write_cabac:h <- $rbx
	#DEBUG_VALUE: x264_macroblock_write_cabac:cb <- [DW_OP_plus_uconst 8] [$rsp+0]
	#DEBUG_VALUE: i <- 1
	#DEBUG_VALUE: x264_cabac_mb_sub_b_partition:i_sub <- [DW_OP_LLVM_convert 8 7, DW_OP_LLVM_convert 32 7, DW_OP_stack_value] $bpl
	#DEBUG_VALUE: x264_cabac_mb_sub_b_partition:cb <- [DW_OP_plus_uconst 8, DW_OP_deref] $rsp
	.loc	0 0 0                           # x264_src/encoder/cabac.c:0:0
	callq	x264_cabac_encode_decision_c@PLT
.Ltmp725:
	#DEBUG_VALUE: i <- 2
	.loc	0 861 48 is_stmt 1              # x264_src/encoder/cabac.c:861:48
	movzbl	17394(%rbx), %ebp
.Ltmp726:
	#DEBUG_VALUE: x264_cabac_mb_sub_b_partition:i_sub <- [DW_OP_LLVM_convert 8 7, DW_OP_LLVM_convert 32 7, DW_OP_stack_value] $bpl
	#DEBUG_VALUE: x264_cabac_mb_sub_b_partition:cb <- [DW_OP_plus_uconst 8, DW_OP_deref] $rsp
	.loc	0 312 9                         # x264_src/encoder/cabac.c:312:9
	movq	%r13, %rdi
	movl	$36, %esi
.Ltmp727:
	.loc	0 310 15                        # x264_src/encoder/cabac.c:310:15
	cmpb	$12, %bpl
.Ltmp728:
	.loc	0 310 9 is_stmt 0               # x264_src/encoder/cabac.c:310:9
	je	.LBB1_241
.Ltmp729:
# %bb.239:                              # %if.end.i1189.2
	#DEBUG_VALUE: x264_macroblock_write_cabac:h <- $rbx
	#DEBUG_VALUE: x264_macroblock_write_cabac:cb <- [DW_OP_plus_uconst 8] [$rsp+0]
	#DEBUG_VALUE: i <- 2
	#DEBUG_VALUE: x264_cabac_mb_sub_b_partition:i_sub <- [DW_OP_LLVM_convert 8 7, DW_OP_LLVM_convert 32 7, DW_OP_stack_value] $bpl
	#DEBUG_VALUE: x264_cabac_mb_sub_b_partition:cb <- [DW_OP_plus_uconst 8, DW_OP_deref] $rsp
	.loc	0 315 5 is_stmt 1               # x264_src/encoder/cabac.c:315:5
	movl	$1, %edx
	callq	x264_cabac_encode_decision_c@PLT
.Ltmp730:
	.loc	0 318 9                         # x264_src/encoder/cabac.c:318:9
	movq	%r13, %rdi
	movl	$37, %esi
.Ltmp731:
	.loc	0 316 15                        # x264_src/encoder/cabac.c:316:15
	cmpb	$11, %bpl
.Ltmp732:
	.loc	0 316 9 is_stmt 0               # x264_src/encoder/cabac.c:316:9
	jne	.LBB1_242
.Ltmp733:
# %bb.240:                              # %if.then2.i1192.2
	#DEBUG_VALUE: x264_macroblock_write_cabac:h <- $rbx
	#DEBUG_VALUE: x264_macroblock_write_cabac:cb <- [DW_OP_plus_uconst 8] [$rsp+0]
	#DEBUG_VALUE: i <- 2
	#DEBUG_VALUE: x264_cabac_mb_sub_b_partition:i_sub <- [DW_OP_LLVM_convert 8 7, DW_OP_LLVM_convert 32 7, DW_OP_stack_value] $bpl
	#DEBUG_VALUE: x264_cabac_mb_sub_b_partition:cb <- [DW_OP_plus_uconst 8, DW_OP_deref] $rsp
	.loc	0 318 9 is_stmt 1               # x264_src/encoder/cabac.c:318:9
	movl	$1, %edx
	callq	x264_cabac_encode_decision_c@PLT
.Ltmp734:
	.loc	0 319 9                         # x264_src/encoder/cabac.c:319:9
	movq	%r13, %rdi
	movl	$38, %esi
	xorl	%edx, %edx
	callq	x264_cabac_encode_decision_c@PLT
.Ltmp735:
	.loc	0 320 9                         # x264_src/encoder/cabac.c:320:9
	movq	%r13, %rdi
	movl	$39, %esi
	xorl	%edx, %edx
	callq	x264_cabac_encode_decision_c@PLT
.Ltmp736:
	.loc	0 321 9                         # x264_src/encoder/cabac.c:321:9
	movq	%r13, %rdi
	movl	$39, %esi
.Ltmp737:
.LBB1_241:                              # %x264_cabac_mb_sub_b_partition.exit.2
	#DEBUG_VALUE: x264_macroblock_write_cabac:h <- $rbx
	#DEBUG_VALUE: x264_macroblock_write_cabac:cb <- [DW_OP_plus_uconst 8] [$rsp+0]
	#DEBUG_VALUE: i <- 2
	#DEBUG_VALUE: x264_cabac_mb_sub_b_partition:i_sub <- [DW_OP_LLVM_convert 8 7, DW_OP_LLVM_convert 32 7, DW_OP_stack_value] $bpl
	#DEBUG_VALUE: x264_cabac_mb_sub_b_partition:cb <- [DW_OP_plus_uconst 8, DW_OP_deref] $rsp
	.loc	0 0 0 is_stmt 0                 # x264_src/encoder/cabac.c:0:0
	xorl	%edx, %edx
	jmp	.LBB1_243
.Ltmp738:
.LBB1_242:                              # %if.end3.i.2
	#DEBUG_VALUE: x264_macroblock_write_cabac:h <- $rbx
	#DEBUG_VALUE: x264_macroblock_write_cabac:cb <- [DW_OP_plus_uconst 8] [$rsp+0]
	#DEBUG_VALUE: i <- 2
	#DEBUG_VALUE: x264_cabac_mb_sub_b_partition:i_sub <- [DW_OP_LLVM_convert 8 7, DW_OP_LLVM_convert 32 7, DW_OP_stack_value] $bpl
	#DEBUG_VALUE: x264_cabac_mb_sub_b_partition:cb <- [DW_OP_plus_uconst 8, DW_OP_deref] $rsp
	.loc	0 324 5 is_stmt 1               # x264_src/encoder/cabac.c:324:5
	xorl	%edx, %edx
	callq	x264_cabac_encode_decision_c@PLT
.Ltmp739:
	.loc	0 325 47                        # x264_src/encoder/cabac.c:325:47
	xorl	%edx, %edx
	cmpb	$7, %bpl
	sete	%dl
	.loc	0 325 5 is_stmt 0               # x264_src/encoder/cabac.c:325:5
	movq	%r13, %rdi
	movl	$39, %esi
.Ltmp740:
.LBB1_243:                              # %x264_cabac_mb_sub_b_partition.exit.2
	#DEBUG_VALUE: x264_macroblock_write_cabac:h <- $rbx
	#DEBUG_VALUE: x264_macroblock_write_cabac:cb <- [DW_OP_plus_uconst 8] [$rsp+0]
	#DEBUG_VALUE: i <- 2
	#DEBUG_VALUE: x264_cabac_mb_sub_b_partition:i_sub <- [DW_OP_LLVM_convert 8 7, DW_OP_LLVM_convert 32 7, DW_OP_stack_value] $bpl
	#DEBUG_VALUE: x264_cabac_mb_sub_b_partition:cb <- [DW_OP_plus_uconst 8, DW_OP_deref] $rsp
	.loc	0 0 0                           # x264_src/encoder/cabac.c:0:0
	callq	x264_cabac_encode_decision_c@PLT
.Ltmp741:
	#DEBUG_VALUE: i <- 3
	.loc	0 861 48 is_stmt 1              # x264_src/encoder/cabac.c:861:48
	movzbl	17395(%rbx), %ebp
.Ltmp742:
	#DEBUG_VALUE: x264_cabac_mb_sub_b_partition:i_sub <- [DW_OP_LLVM_convert 8 7, DW_OP_LLVM_convert 32 7, DW_OP_stack_value] $bpl
	#DEBUG_VALUE: x264_cabac_mb_sub_b_partition:cb <- [DW_OP_plus_uconst 8, DW_OP_deref] $rsp
	.loc	0 312 9                         # x264_src/encoder/cabac.c:312:9
	movq	%r13, %rdi
	movl	$36, %esi
.Ltmp743:
	.loc	0 310 15                        # x264_src/encoder/cabac.c:310:15
	cmpb	$12, %bpl
.Ltmp744:
	.loc	0 310 9 is_stmt 0               # x264_src/encoder/cabac.c:310:9
	je	.LBB1_246
.Ltmp745:
# %bb.244:                              # %if.end.i1189.3
	#DEBUG_VALUE: x264_macroblock_write_cabac:h <- $rbx
	#DEBUG_VALUE: x264_macroblock_write_cabac:cb <- [DW_OP_plus_uconst 8] [$rsp+0]
	#DEBUG_VALUE: i <- 3
	#DEBUG_VALUE: x264_cabac_mb_sub_b_partition:i_sub <- [DW_OP_LLVM_convert 8 7, DW_OP_LLVM_convert 32 7, DW_OP_stack_value] $bpl
	#DEBUG_VALUE: x264_cabac_mb_sub_b_partition:cb <- [DW_OP_plus_uconst 8, DW_OP_deref] $rsp
	.loc	0 315 5 is_stmt 1               # x264_src/encoder/cabac.c:315:5
	movl	$1, %edx
	callq	x264_cabac_encode_decision_c@PLT
.Ltmp746:
	.loc	0 318 9                         # x264_src/encoder/cabac.c:318:9
	movq	%r13, %rdi
	movl	$37, %esi
.Ltmp747:
	.loc	0 316 15                        # x264_src/encoder/cabac.c:316:15
	cmpb	$11, %bpl
.Ltmp748:
	.loc	0 316 9 is_stmt 0               # x264_src/encoder/cabac.c:316:9
	jne	.LBB1_247
.Ltmp749:
# %bb.245:                              # %if.then2.i1192.3
	#DEBUG_VALUE: x264_macroblock_write_cabac:h <- $rbx
	#DEBUG_VALUE: x264_macroblock_write_cabac:cb <- [DW_OP_plus_uconst 8] [$rsp+0]
	#DEBUG_VALUE: i <- 3
	#DEBUG_VALUE: x264_cabac_mb_sub_b_partition:i_sub <- [DW_OP_LLVM_convert 8 7, DW_OP_LLVM_convert 32 7, DW_OP_stack_value] $bpl
	#DEBUG_VALUE: x264_cabac_mb_sub_b_partition:cb <- [DW_OP_plus_uconst 8, DW_OP_deref] $rsp
	.loc	0 318 9 is_stmt 1               # x264_src/encoder/cabac.c:318:9
	movl	$1, %edx
	callq	x264_cabac_encode_decision_c@PLT
.Ltmp750:
	.loc	0 319 9                         # x264_src/encoder/cabac.c:319:9
	movq	%r13, %rdi
	movl	$38, %esi
	xorl	%edx, %edx
	callq	x264_cabac_encode_decision_c@PLT
.Ltmp751:
	.loc	0 320 9                         # x264_src/encoder/cabac.c:320:9
	movq	%r13, %rdi
	movl	$39, %esi
	xorl	%edx, %edx
	callq	x264_cabac_encode_decision_c@PLT
.Ltmp752:
	.loc	0 321 9                         # x264_src/encoder/cabac.c:321:9
	movq	%r13, %rdi
	movl	$39, %esi
.Ltmp753:
.LBB1_246:                              # %x264_cabac_mb_sub_b_partition.exit.3
	#DEBUG_VALUE: x264_macroblock_write_cabac:h <- $rbx
	#DEBUG_VALUE: x264_macroblock_write_cabac:cb <- [DW_OP_plus_uconst 8] [$rsp+0]
	#DEBUG_VALUE: i <- 3
	#DEBUG_VALUE: x264_cabac_mb_sub_b_partition:i_sub <- [DW_OP_LLVM_convert 8 7, DW_OP_LLVM_convert 32 7, DW_OP_stack_value] $bpl
	#DEBUG_VALUE: x264_cabac_mb_sub_b_partition:cb <- [DW_OP_plus_uconst 8, DW_OP_deref] $rsp
	.loc	0 0 0 is_stmt 0                 # x264_src/encoder/cabac.c:0:0
	xorl	%edx, %edx
	callq	x264_cabac_encode_decision_c@PLT
.Ltmp754:
	#DEBUG_VALUE: i <- 4
	.loc	0 864 33 is_stmt 1              # x264_src/encoder/cabac.c:864:33
	cmpl	$1, 21416(%rbx)
.Ltmp755:
	.loc	0 875 51                        # x264_src/encoder/cabac.c:875:51
	movzbl	17392(%rbx), %eax
.Ltmp756:
	.loc	0 864 13                        # x264_src/encoder/cabac.c:864:13
	jg	.LBB1_248
.Ltmp757:
.LBB1_290:                              # %if.end222
	#DEBUG_VALUE: x264_macroblock_write_cabac:h <- $rbx
	#DEBUG_VALUE: x264_macroblock_write_cabac:cb <- [DW_OP_plus_uconst 8] [$rsp+0]
	.loc	0 869 33                        # x264_src/encoder/cabac.c:869:33
	cmpl	$2, 21420(%rbx)
.Ltmp758:
	.loc	0 869 13 is_stmt 0              # x264_src/encoder/cabac.c:869:13
	jl	.LBB1_291
.Ltmp759:
.LBB1_307:                              # %for.cond231.preheader
	#DEBUG_VALUE: x264_macroblock_write_cabac:h <- $rbx
	#DEBUG_VALUE: x264_macroblock_write_cabac:cb <- [DW_OP_plus_uconst 8] [$rsp+0]
	#DEBUG_VALUE: i <- 0
	.loc	0 871 21 is_stmt 1              # x264_src/encoder/cabac.c:871:21
	movzbl	%al, %eax
	cmpb	$0, x264_mb_partition_listX_table+17(%rax)
.Ltmp760:
	.loc	0 871 21 is_stmt 0              # x264_src/encoder/cabac.c:871:21
	je	.LBB1_318
.Ltmp761:
# %bb.308:                              # %if.then243
	#DEBUG_VALUE: x264_macroblock_write_cabac:h <- $rbx
	#DEBUG_VALUE: x264_macroblock_write_cabac:cb <- [DW_OP_plus_uconst 8] [$rsp+0]
	#DEBUG_VALUE: i <- 0
	#DEBUG_VALUE: x264_cabac_mb_ref:h <- $rbx
	#DEBUG_VALUE: x264_cabac_mb_ref:cb <- [DW_OP_plus_uconst 8, DW_OP_deref] $rsp
	#DEBUG_VALUE: x264_cabac_mb_ref:i_list <- 1
	#DEBUG_VALUE: x264_cabac_mb_ref:idx <- 0
	#DEBUG_VALUE: x264_cabac_mb_ref:i8 <- 12
	#DEBUG_VALUE: x264_cabac_mb_ref:i_refa <- undef
	.loc	0 338 24 is_stmt 1              # x264_src/encoder/cabac.c:338:24
	movzbl	25164(%rbx), %eax
.Ltmp762:
	#DEBUG_VALUE: x264_cabac_mb_ref:i_refb <- [DW_OP_LLVM_convert 8 5, DW_OP_LLVM_convert 32 5, DW_OP_stack_value] $al
	#DEBUG_VALUE: x264_cabac_mb_ref:ctx <- 0
	.loc	0 341 16                        # x264_src/encoder/cabac.c:341:16
	cmpb	$0, 25171(%rbx)
	.loc	0 341 20 is_stmt 0              # x264_src/encoder/cabac.c:341:20
	jle	.LBB1_311
.Ltmp763:
# %bb.309:                              # %land.lhs.true.i1268
	#DEBUG_VALUE: x264_macroblock_write_cabac:h <- $rbx
	#DEBUG_VALUE: x264_macroblock_write_cabac:cb <- [DW_OP_plus_uconst 8] [$rsp+0]
	#DEBUG_VALUE: i <- 0
	#DEBUG_VALUE: x264_cabac_mb_ref:h <- $rbx
	#DEBUG_VALUE: x264_cabac_mb_ref:cb <- [DW_OP_plus_uconst 8, DW_OP_deref] $rsp
	#DEBUG_VALUE: x264_cabac_mb_ref:i_list <- 1
	#DEBUG_VALUE: x264_cabac_mb_ref:idx <- 0
	#DEBUG_VALUE: x264_cabac_mb_ref:i8 <- 12
	#DEBUG_VALUE: x264_cabac_mb_ref:i_refb <- [DW_OP_LLVM_convert 8 5, DW_OP_LLVM_convert 32 5, DW_OP_stack_value] $al
	#DEBUG_VALUE: x264_cabac_mb_ref:ctx <- 0
	.loc	0 341 24                        # x264_src/encoder/cabac.c:341:24
	xorl	%r15d, %r15d
	cmpb	$0, 25691(%rbx)
	sete	%r15b
	jmp	.LBB1_312
.Ltmp764:
.LBB1_247:                              # %if.end3.i.3
	#DEBUG_VALUE: x264_macroblock_write_cabac:h <- $rbx
	#DEBUG_VALUE: x264_macroblock_write_cabac:cb <- [DW_OP_plus_uconst 8] [$rsp+0]
	#DEBUG_VALUE: i <- 3
	#DEBUG_VALUE: x264_cabac_mb_sub_b_partition:i_sub <- [DW_OP_LLVM_convert 8 7, DW_OP_LLVM_convert 32 7, DW_OP_stack_value] $bpl
	#DEBUG_VALUE: x264_cabac_mb_sub_b_partition:cb <- [DW_OP_plus_uconst 8, DW_OP_deref] $rsp
	.loc	0 324 5 is_stmt 1               # x264_src/encoder/cabac.c:324:5
	xorl	%edx, %edx
	callq	x264_cabac_encode_decision_c@PLT
.Ltmp765:
	.loc	0 325 47                        # x264_src/encoder/cabac.c:325:47
	xorl	%edx, %edx
	cmpb	$7, %bpl
	sete	%dl
	.loc	0 325 5 is_stmt 0               # x264_src/encoder/cabac.c:325:5
	movq	%r13, %rdi
	movl	$39, %esi
	.loc	0 0 0                           # x264_src/encoder/cabac.c:0:0
	callq	x264_cabac_encode_decision_c@PLT
.Ltmp766:
	#DEBUG_VALUE: i <- 4
	.loc	0 864 33 is_stmt 1              # x264_src/encoder/cabac.c:864:33
	cmpl	$1, 21416(%rbx)
.Ltmp767:
	.loc	0 875 51                        # x264_src/encoder/cabac.c:875:51
	movzbl	17392(%rbx), %eax
.Ltmp768:
	.loc	0 864 13                        # x264_src/encoder/cabac.c:864:13
	jle	.LBB1_290
.Ltmp769:
.LBB1_248:                              # %for.cond204.preheader
	#DEBUG_VALUE: x264_macroblock_write_cabac:h <- $rbx
	#DEBUG_VALUE: x264_macroblock_write_cabac:cb <- [DW_OP_plus_uconst 8] [$rsp+0]
	.loc	0 0 0 is_stmt 0                 # x264_src/encoder/cabac.c:0:0
	movzbl	%al, %eax
.Ltmp770:
	#DEBUG_VALUE: i <- 0
	.loc	0 866 21 is_stmt 1              # x264_src/encoder/cabac.c:866:21
	cmpb	$0, x264_mb_partition_listX_table(%rax)
.Ltmp771:
	.loc	0 866 21 is_stmt 0              # x264_src/encoder/cabac.c:866:21
	je	.LBB1_259
.Ltmp772:
# %bb.249:                              # %if.then216
	#DEBUG_VALUE: x264_macroblock_write_cabac:h <- $rbx
	#DEBUG_VALUE: x264_macroblock_write_cabac:cb <- [DW_OP_plus_uconst 8] [$rsp+0]
	#DEBUG_VALUE: i <- 0
	#DEBUG_VALUE: x264_cabac_mb_ref:h <- $rbx
	#DEBUG_VALUE: x264_cabac_mb_ref:cb <- [DW_OP_plus_uconst 8, DW_OP_deref] $rsp
	#DEBUG_VALUE: x264_cabac_mb_ref:i_list <- 0
	#DEBUG_VALUE: x264_cabac_mb_ref:idx <- 0
	#DEBUG_VALUE: x264_cabac_mb_ref:i8 <- 12
	#DEBUG_VALUE: x264_cabac_mb_ref:i_refa <- undef
	.loc	0 338 24 is_stmt 1              # x264_src/encoder/cabac.c:338:24
	movzbl	25124(%rbx), %eax
.Ltmp773:
	#DEBUG_VALUE: x264_cabac_mb_ref:i_refb <- [DW_OP_LLVM_convert 8 5, DW_OP_LLVM_convert 32 5, DW_OP_stack_value] $al
	#DEBUG_VALUE: x264_cabac_mb_ref:ctx <- 0
	.loc	0 341 16                        # x264_src/encoder/cabac.c:341:16
	cmpb	$0, 25131(%rbx)
	.loc	0 341 20 is_stmt 0              # x264_src/encoder/cabac.c:341:20
	jle	.LBB1_252
.Ltmp774:
# %bb.250:                              # %land.lhs.true.i1226
	#DEBUG_VALUE: x264_macroblock_write_cabac:h <- $rbx
	#DEBUG_VALUE: x264_macroblock_write_cabac:cb <- [DW_OP_plus_uconst 8] [$rsp+0]
	#DEBUG_VALUE: i <- 0
	#DEBUG_VALUE: x264_cabac_mb_ref:h <- $rbx
	#DEBUG_VALUE: x264_cabac_mb_ref:cb <- [DW_OP_plus_uconst 8, DW_OP_deref] $rsp
	#DEBUG_VALUE: x264_cabac_mb_ref:i_list <- 0
	#DEBUG_VALUE: x264_cabac_mb_ref:idx <- 0
	#DEBUG_VALUE: x264_cabac_mb_ref:i8 <- 12
	#DEBUG_VALUE: x264_cabac_mb_ref:i_refb <- [DW_OP_LLVM_convert 8 5, DW_OP_LLVM_convert 32 5, DW_OP_stack_value] $al
	#DEBUG_VALUE: x264_cabac_mb_ref:ctx <- 0
	.loc	0 341 24                        # x264_src/encoder/cabac.c:341:24
	xorl	%r15d, %r15d
	cmpb	$0, 25691(%rbx)
	sete	%r15b
	jmp	.LBB1_253
.Ltmp775:
.LBB1_251:
	#DEBUG_VALUE: x264_macroblock_write_cabac:h <- $rbx
	#DEBUG_VALUE: x264_macroblock_write_cabac:cb <- [DW_OP_plus_uconst 8] [$rsp+0]
	#DEBUG_VALUE: x264_cabac_mb_ref:h <- $rbx
	#DEBUG_VALUE: x264_cabac_mb_ref:cb <- [DW_OP_plus_uconst 8, DW_OP_deref] $rsp
	#DEBUG_VALUE: x264_cabac_mb_ref:i_list <- 0
	#DEBUG_VALUE: x264_cabac_mb_ref:idx <- 0
	#DEBUG_VALUE: x264_cabac_mb_ref:i8 <- 12
	#DEBUG_VALUE: x264_cabac_mb_ref:i_refb <- [DW_OP_LLVM_convert 8 5, DW_OP_LLVM_convert 32 5, DW_OP_stack_value] $al
	#DEBUG_VALUE: x264_cabac_mb_ref:ctx <- 0
	.loc	0 0 24                          # x264_src/encoder/cabac.c:0:24
	xorl	%r12d, %r12d
.Ltmp776:
	#DEBUG_VALUE: x264_cabac_mb_ref:ctx <- $r12d
	.loc	0 343 16 is_stmt 1              # x264_src/encoder/cabac.c:343:16
	testb	%al, %al
	.loc	0 343 20 is_stmt 0              # x264_src/encoder/cabac.c:343:20
	jg	.LBB1_91
	jmp	.LBB1_92
.Ltmp777:
.LBB1_311:
	#DEBUG_VALUE: x264_macroblock_write_cabac:h <- $rbx
	#DEBUG_VALUE: x264_macroblock_write_cabac:cb <- [DW_OP_plus_uconst 8] [$rsp+0]
	#DEBUG_VALUE: i <- 0
	#DEBUG_VALUE: x264_cabac_mb_ref:h <- $rbx
	#DEBUG_VALUE: x264_cabac_mb_ref:cb <- [DW_OP_plus_uconst 8, DW_OP_deref] $rsp
	#DEBUG_VALUE: x264_cabac_mb_ref:i_list <- 1
	#DEBUG_VALUE: x264_cabac_mb_ref:idx <- 0
	#DEBUG_VALUE: x264_cabac_mb_ref:i8 <- 12
	#DEBUG_VALUE: x264_cabac_mb_ref:i_refb <- [DW_OP_LLVM_convert 8 5, DW_OP_LLVM_convert 32 5, DW_OP_stack_value] $al
	#DEBUG_VALUE: x264_cabac_mb_ref:ctx <- 0
	.loc	0 0 20                          # x264_src/encoder/cabac.c:0:20
	xorl	%r15d, %r15d
.Ltmp778:
.LBB1_312:                              # %if.end.i1242
	#DEBUG_VALUE: x264_macroblock_write_cabac:h <- $rbx
	#DEBUG_VALUE: x264_macroblock_write_cabac:cb <- [DW_OP_plus_uconst 8] [$rsp+0]
	#DEBUG_VALUE: i <- 0
	#DEBUG_VALUE: x264_cabac_mb_ref:h <- $rbx
	#DEBUG_VALUE: x264_cabac_mb_ref:cb <- [DW_OP_plus_uconst 8, DW_OP_deref] $rsp
	#DEBUG_VALUE: x264_cabac_mb_ref:i_list <- 1
	#DEBUG_VALUE: x264_cabac_mb_ref:idx <- 0
	#DEBUG_VALUE: x264_cabac_mb_ref:i8 <- 12
	#DEBUG_VALUE: x264_cabac_mb_ref:i_refb <- [DW_OP_LLVM_convert 8 5, DW_OP_LLVM_convert 32 5, DW_OP_stack_value] $al
	#DEBUG_VALUE: x264_cabac_mb_ref:ctx <- 0
	#DEBUG_VALUE: x264_cabac_mb_ref:ctx <- $r15d
	.loc	0 343 16                        # x264_src/encoder/cabac.c:343:16
	testb	%al, %al
	.loc	0 343 20                        # x264_src/encoder/cabac.c:343:20
	jle	.LBB1_314
.Ltmp779:
# %bb.313:                              # %land.lhs.true22.i1262
	#DEBUG_VALUE: x264_macroblock_write_cabac:h <- $rbx
	#DEBUG_VALUE: x264_macroblock_write_cabac:cb <- [DW_OP_plus_uconst 8] [$rsp+0]
	#DEBUG_VALUE: i <- 0
	#DEBUG_VALUE: x264_cabac_mb_ref:h <- $rbx
	#DEBUG_VALUE: x264_cabac_mb_ref:cb <- [DW_OP_plus_uconst 8, DW_OP_deref] $rsp
	#DEBUG_VALUE: x264_cabac_mb_ref:i_list <- 1
	#DEBUG_VALUE: x264_cabac_mb_ref:idx <- 0
	#DEBUG_VALUE: x264_cabac_mb_ref:i8 <- 12
	#DEBUG_VALUE: x264_cabac_mb_ref:i_refb <- [DW_OP_LLVM_convert 8 5, DW_OP_LLVM_convert 32 5, DW_OP_stack_value] $al
	#DEBUG_VALUE: x264_cabac_mb_ref:ctx <- $r15d
	.loc	0 343 24                        # x264_src/encoder/cabac.c:343:24
	cmpb	$0, 25684(%rbx)
	leal	2(%r15), %eax
.Ltmp780:
	.loc	0 343 9                         # x264_src/encoder/cabac.c:343:9
	cmovnel	%r15d, %eax
	movl	%eax, %r15d
.Ltmp781:
.LBB1_314:                              # %if.end31.i1245
	#DEBUG_VALUE: x264_macroblock_write_cabac:h <- $rbx
	#DEBUG_VALUE: x264_macroblock_write_cabac:cb <- [DW_OP_plus_uconst 8] [$rsp+0]
	#DEBUG_VALUE: i <- 0
	#DEBUG_VALUE: x264_cabac_mb_ref:h <- $rbx
	#DEBUG_VALUE: x264_cabac_mb_ref:cb <- [DW_OP_plus_uconst 8, DW_OP_deref] $rsp
	#DEBUG_VALUE: x264_cabac_mb_ref:i_list <- 1
	#DEBUG_VALUE: x264_cabac_mb_ref:idx <- 0
	#DEBUG_VALUE: x264_cabac_mb_ref:i8 <- 12
	#DEBUG_VALUE: x264_cabac_mb_ref:ctx <- $r15d
	.loc	0 346 22 is_stmt 1              # x264_src/encoder/cabac.c:346:22
	movsbl	25172(%rbx), %ebp
	testl	%ebp, %ebp
.Ltmp782:
	#DEBUG_VALUE: i_ref <- undef
	.loc	0 346 5 is_stmt 0               # x264_src/encoder/cabac.c:346:5
	jle	.LBB1_317
.Ltmp783:
# %bb.315:                              # %for.body.preheader.i1252
	#DEBUG_VALUE: x264_macroblock_write_cabac:h <- $rbx
	#DEBUG_VALUE: x264_macroblock_write_cabac:cb <- [DW_OP_plus_uconst 8] [$rsp+0]
	#DEBUG_VALUE: i <- 0
	#DEBUG_VALUE: x264_cabac_mb_ref:h <- $rbx
	#DEBUG_VALUE: x264_cabac_mb_ref:cb <- [DW_OP_plus_uconst 8, DW_OP_deref] $rsp
	#DEBUG_VALUE: x264_cabac_mb_ref:i_list <- 1
	#DEBUG_VALUE: x264_cabac_mb_ref:idx <- 0
	#DEBUG_VALUE: x264_cabac_mb_ref:i8 <- 12
	#DEBUG_VALUE: x264_cabac_mb_ref:ctx <- $r15d
	#DEBUG_VALUE: i_ref <- $ebp
	incl	%ebp
.Ltmp784:
	.p2align	4, 0x90
.LBB1_316:                              # %for.body.i1254
                                        # =>This Inner Loop Header: Depth=1
	#DEBUG_VALUE: x264_macroblock_write_cabac:h <- $rbx
	#DEBUG_VALUE: x264_macroblock_write_cabac:cb <- [DW_OP_plus_uconst 8] [$rsp+0]
	#DEBUG_VALUE: i <- 0
	#DEBUG_VALUE: x264_cabac_mb_ref:h <- $rbx
	#DEBUG_VALUE: x264_cabac_mb_ref:cb <- [DW_OP_plus_uconst 8, DW_OP_deref] $rsp
	#DEBUG_VALUE: x264_cabac_mb_ref:i_list <- 1
	#DEBUG_VALUE: x264_cabac_mb_ref:idx <- 0
	#DEBUG_VALUE: x264_cabac_mb_ref:i8 <- 12
	#DEBUG_VALUE: x264_cabac_mb_ref:ctx <- $r15d
	#DEBUG_VALUE: i_ref <- [DW_OP_constu 1, DW_OP_minus, DW_OP_stack_value] $ebp
	#DEBUG_VALUE: x264_cabac_mb_ref:ctx <- $r15d
	.loc	0 348 44 is_stmt 1              # x264_src/encoder/cabac.c:348:44
	leal	54(%r15), %esi
	.loc	0 348 9 is_stmt 0               # x264_src/encoder/cabac.c:348:9
	movq	%r13, %rdi
	movl	$1, %edx
	callq	x264_cabac_encode_decision_c@PLT
.Ltmp785:
	.loc	0 349 19 is_stmt 1              # x264_src/encoder/cabac.c:349:19
	shrl	$2, %r15d
.Ltmp786:
	.loc	0 349 23 is_stmt 0              # x264_src/encoder/cabac.c:349:23
	addl	$4, %r15d
.Ltmp787:
	#DEBUG_VALUE: x264_cabac_mb_ref:ctx <- $r15d
	#DEBUG_VALUE: i_ref <- [DW_OP_constu 2, DW_OP_minus, DW_OP_stack_value] $ebp
	.loc	0 346 57 is_stmt 1              # x264_src/encoder/cabac.c:346:57
	decl	%ebp
.Ltmp788:
	cmpl	$1, %ebp
.Ltmp789:
	.loc	0 346 5 is_stmt 0               # x264_src/encoder/cabac.c:346:5
	ja	.LBB1_316
.Ltmp790:
.LBB1_317:                              # %x264_cabac_mb_ref.exit1273
	#DEBUG_VALUE: x264_macroblock_write_cabac:h <- $rbx
	#DEBUG_VALUE: x264_macroblock_write_cabac:cb <- [DW_OP_plus_uconst 8] [$rsp+0]
	#DEBUG_VALUE: i <- 0
	#DEBUG_VALUE: x264_cabac_mb_ref:h <- $rbx
	#DEBUG_VALUE: x264_cabac_mb_ref:cb <- [DW_OP_plus_uconst 8, DW_OP_deref] $rsp
	#DEBUG_VALUE: x264_cabac_mb_ref:i_list <- 1
	#DEBUG_VALUE: x264_cabac_mb_ref:idx <- 0
	#DEBUG_VALUE: x264_cabac_mb_ref:i8 <- 12
	#DEBUG_VALUE: x264_cabac_mb_ref:ctx <- $r15d
	.loc	0 351 40 is_stmt 1              # x264_src/encoder/cabac.c:351:40
	addl	$54, %r15d
.Ltmp791:
	.loc	0 351 5 is_stmt 0               # x264_src/encoder/cabac.c:351:5
	movq	%r13, %rdi
	movl	%r15d, %esi
	xorl	%edx, %edx
	callq	x264_cabac_encode_decision_c@PLT
.Ltmp792:
.LBB1_318:                              # %for.inc246
	#DEBUG_VALUE: x264_macroblock_write_cabac:h <- $rbx
	#DEBUG_VALUE: x264_macroblock_write_cabac:cb <- [DW_OP_plus_uconst 8] [$rsp+0]
	#DEBUG_VALUE: i <- 0
	#DEBUG_VALUE: i <- 1
	.loc	0 871 55 is_stmt 1              # x264_src/encoder/cabac.c:871:55
	movzbl	17393(%rbx), %eax
	.loc	0 871 21 is_stmt 0              # x264_src/encoder/cabac.c:871:21
	cmpb	$0, x264_mb_partition_listX_table+17(%rax)
.Ltmp793:
	.loc	0 871 21                        # x264_src/encoder/cabac.c:871:21
	je	.LBB1_328
.Ltmp794:
# %bb.319:                              # %if.then243.1
	#DEBUG_VALUE: x264_macroblock_write_cabac:h <- $rbx
	#DEBUG_VALUE: x264_macroblock_write_cabac:cb <- [DW_OP_plus_uconst 8] [$rsp+0]
	#DEBUG_VALUE: i <- 1
	#DEBUG_VALUE: x264_cabac_mb_ref:h <- $rbx
	#DEBUG_VALUE: x264_cabac_mb_ref:cb <- [DW_OP_plus_uconst 8, DW_OP_deref] $rsp
	#DEBUG_VALUE: x264_cabac_mb_ref:i_list <- 1
	#DEBUG_VALUE: x264_cabac_mb_ref:idx <- 4
	#DEBUG_VALUE: x264_cabac_mb_ref:i8 <- 14
	#DEBUG_VALUE: x264_cabac_mb_ref:i_refa <- undef
	.loc	0 338 24 is_stmt 1              # x264_src/encoder/cabac.c:338:24
	movzbl	25166(%rbx), %eax
.Ltmp795:
	#DEBUG_VALUE: x264_cabac_mb_ref:i_refb <- [DW_OP_LLVM_convert 8 5, DW_OP_LLVM_convert 32 5, DW_OP_stack_value] $al
	#DEBUG_VALUE: x264_cabac_mb_ref:ctx <- 0
	.loc	0 341 16                        # x264_src/encoder/cabac.c:341:16
	cmpb	$0, 25173(%rbx)
	.loc	0 341 20 is_stmt 0              # x264_src/encoder/cabac.c:341:20
	jle	.LBB1_321
.Ltmp796:
# %bb.320:                              # %land.lhs.true.i1268.1
	#DEBUG_VALUE: x264_macroblock_write_cabac:h <- $rbx
	#DEBUG_VALUE: x264_macroblock_write_cabac:cb <- [DW_OP_plus_uconst 8] [$rsp+0]
	#DEBUG_VALUE: i <- 1
	#DEBUG_VALUE: x264_cabac_mb_ref:h <- $rbx
	#DEBUG_VALUE: x264_cabac_mb_ref:cb <- [DW_OP_plus_uconst 8, DW_OP_deref] $rsp
	#DEBUG_VALUE: x264_cabac_mb_ref:i_list <- 1
	#DEBUG_VALUE: x264_cabac_mb_ref:idx <- 4
	#DEBUG_VALUE: x264_cabac_mb_ref:i8 <- 14
	#DEBUG_VALUE: x264_cabac_mb_ref:i_refb <- [DW_OP_LLVM_convert 8 5, DW_OP_LLVM_convert 32 5, DW_OP_stack_value] $al
	#DEBUG_VALUE: x264_cabac_mb_ref:ctx <- 0
	.loc	0 341 24                        # x264_src/encoder/cabac.c:341:24
	xorl	%r15d, %r15d
	cmpb	$0, 25693(%rbx)
	sete	%r15b
	jmp	.LBB1_322
.Ltmp797:
.LBB1_252:
	#DEBUG_VALUE: x264_macroblock_write_cabac:h <- $rbx
	#DEBUG_VALUE: x264_macroblock_write_cabac:cb <- [DW_OP_plus_uconst 8] [$rsp+0]
	#DEBUG_VALUE: i <- 0
	#DEBUG_VALUE: x264_cabac_mb_ref:h <- $rbx
	#DEBUG_VALUE: x264_cabac_mb_ref:cb <- [DW_OP_plus_uconst 8, DW_OP_deref] $rsp
	#DEBUG_VALUE: x264_cabac_mb_ref:i_list <- 0
	#DEBUG_VALUE: x264_cabac_mb_ref:idx <- 0
	#DEBUG_VALUE: x264_cabac_mb_ref:i8 <- 12
	#DEBUG_VALUE: x264_cabac_mb_ref:i_refb <- [DW_OP_LLVM_convert 8 5, DW_OP_LLVM_convert 32 5, DW_OP_stack_value] $al
	#DEBUG_VALUE: x264_cabac_mb_ref:ctx <- 0
	.loc	0 0 24                          # x264_src/encoder/cabac.c:0:24
	xorl	%r15d, %r15d
.Ltmp798:
.LBB1_253:                              # %if.end.i1201
	#DEBUG_VALUE: x264_macroblock_write_cabac:h <- $rbx
	#DEBUG_VALUE: x264_macroblock_write_cabac:cb <- [DW_OP_plus_uconst 8] [$rsp+0]
	#DEBUG_VALUE: i <- 0
	#DEBUG_VALUE: x264_cabac_mb_ref:h <- $rbx
	#DEBUG_VALUE: x264_cabac_mb_ref:cb <- [DW_OP_plus_uconst 8, DW_OP_deref] $rsp
	#DEBUG_VALUE: x264_cabac_mb_ref:i_list <- 0
	#DEBUG_VALUE: x264_cabac_mb_ref:idx <- 0
	#DEBUG_VALUE: x264_cabac_mb_ref:i8 <- 12
	#DEBUG_VALUE: x264_cabac_mb_ref:i_refb <- [DW_OP_LLVM_convert 8 5, DW_OP_LLVM_convert 32 5, DW_OP_stack_value] $al
	#DEBUG_VALUE: x264_cabac_mb_ref:ctx <- 0
	#DEBUG_VALUE: x264_cabac_mb_ref:ctx <- $r15d
	.loc	0 343 16 is_stmt 1              # x264_src/encoder/cabac.c:343:16
	testb	%al, %al
	.loc	0 343 20 is_stmt 0              # x264_src/encoder/cabac.c:343:20
	jle	.LBB1_255
.Ltmp799:
# %bb.254:                              # %land.lhs.true22.i1220
	#DEBUG_VALUE: x264_macroblock_write_cabac:h <- $rbx
	#DEBUG_VALUE: x264_macroblock_write_cabac:cb <- [DW_OP_plus_uconst 8] [$rsp+0]
	#DEBUG_VALUE: i <- 0
	#DEBUG_VALUE: x264_cabac_mb_ref:h <- $rbx
	#DEBUG_VALUE: x264_cabac_mb_ref:cb <- [DW_OP_plus_uconst 8, DW_OP_deref] $rsp
	#DEBUG_VALUE: x264_cabac_mb_ref:i_list <- 0
	#DEBUG_VALUE: x264_cabac_mb_ref:idx <- 0
