	.text
	.file	"encoder.c"
	.file	0 "/home/yjs/workspace/x264-test/src" "x264_src/encoder/encoder.c" md5 0x11d332f3cd54995855f9b0a3c96f40a5
	.file	1 "/usr/include/x86_64-linux-gnu/bits" "types.h" md5 0xd108b5f93a74c50510d7d9bc0ab36df9
	.file	2 "/usr/include/x86_64-linux-gnu/bits" "stdint-uintn.h" md5 0x2bf2ae53c58c01b1a1b9383b5195125c
	.file	3 "x264_src/common" "macroblock.h" md5 0x15f4a9c1d53f4196a5f2b80807bb8b1a
	.file	4 "x264_src/common" "bs.h" md5 0x5e3e135f4389fadb006d4bc4f2055a86
	.file	5 "x264_src/common" "common.h" md5 0x5afac7bf2f5673f1628c455d7d320ad7
	.file	6 "x264_src/common" "predict.h" md5 0x5f9c3dfea82ca04aa9f99900c2f3609a
	.file	7 "/usr/include/x86_64-linux-gnu/bits" "stdint-intn.h" md5 0x55bcbdc3159515ebd91d351a70d505f4
	.file	8 "x264_src/common" "set.h" md5 0x36bc2db0356ac829288e85d371259e00
	.file	9 "x264_src" "x264.h" md5 0x0b04871e4f52d5a4d8833c501cba2584
	.file	10 "x264_src/common" "pixel.h" md5 0xe9056d80edbb4dc2514d271d596c298e
	.file	11 "/usr/include" "stdint.h" md5 0xa48e64edacc5b19f56c99745232c963c
	.section	.rodata.cst16,"aM",@progbits,16
	.p2align	4, 0x0                          # -- Begin function x264_encoder_open_96
.LCPI0_0:
	.long	0                               # 0x0
	.long	4294967295                      # 0xffffffff
	.long	0                               # 0x0
	.long	0                               # 0x0
	.section	.rodata.cst8,"aM",@progbits,8
	.p2align	3, 0x0
.LCPI0_1:
	.quad	0x3fee666666666666              # double 0.94999999999999996
.LCPI0_3:
	.quad	0x412e848000000000              # double 1.0E+6
	.section	.rodata.cst4,"aM",@progbits,4
	.p2align	2, 0x0
.LCPI0_2:
	.long	0x3f800000                      # float 1
	.text
	.globl	x264_encoder_open_96
	.p2align	4, 0x90
	.type	x264_encoder_open_96,@function
x264_encoder_open_96:                   # @x264_encoder_open_96
.Lfunc_begin0:
	.loc	0 884 0                         # x264_src/encoder/encoder.c:884:0
	.cfi_startproc
# %bb.0:                                # %entry
	#DEBUG_VALUE: x264_encoder_open_96:param <- $rdi
	pushq	%rbp
	.cfi_def_cfa_offset 16
	pushq	%r15
	.cfi_def_cfa_offset 24
	pushq	%r14
	.cfi_def_cfa_offset 32
	pushq	%r13
	.cfi_def_cfa_offset 40
	pushq	%r12
	.cfi_def_cfa_offset 48
	pushq	%rbx
	.cfi_def_cfa_offset 56
	subq	$1032, %rsp                     # imm = 0x408
	.cfi_def_cfa_offset 1088
	.cfi_offset %rbx, -56
	.cfi_offset %r12, -48
	.cfi_offset %r13, -40
	.cfi_offset %r14, -32
	.cfi_offset %r15, -24
	.cfi_offset %rbp, -16
	movq	%rdi, %r14
.Ltmp0:
	.loc	0 889 5 prologue_end            # x264_src/encoder/encoder.c:889:5
	movl	$33344, %edi                    # imm = 0x8240
.Ltmp1:
	#DEBUG_VALUE: x264_encoder_open_96:param <- $r14
	callq	x264_malloc@PLT
.Ltmp2:
	movq	%rax, %rbx
.Ltmp3:
	#DEBUG_VALUE: x264_encoder_open_96:h <- $rbx
	.loc	0 889 5 is_stmt 0               # x264_src/encoder/encoder.c:889:5
	testq	%rax, %rax
.Ltmp4:
	.loc	0 889 5                         # x264_src/encoder/encoder.c:889:5
	je	.LBB0_69
.Ltmp5:
# %bb.1:                                # %do.end
	#DEBUG_VALUE: x264_encoder_open_96:param <- $r14
	#DEBUG_VALUE: x264_encoder_open_96:h <- $rbx
	.loc	0 889 5                         # x264_src/encoder/encoder.c:889:5
	movl	$33344, %edx                    # imm = 0x8240
	movq	%rbx, %rdi
	xorl	%esi, %esi
	callq	memset@PLT
.Ltmp6:
	.loc	0 892 5 is_stmt 1               # x264_src/encoder/encoder.c:892:5
	movl	$704, %edx                      # imm = 0x2C0
	movq	%rbx, %rdi
	movq	%r14, %rsi
	callq	memcpy@PLT
.Ltmp7:
	.loc	0 894 16                        # x264_src/encoder/encoder.c:894:16
	movq	696(%r14), %rax
	.loc	0 894 9 is_stmt 0               # x264_src/encoder/encoder.c:894:9
	testq	%rax, %rax
.Ltmp8:
	.loc	0 894 9                         # x264_src/encoder/encoder.c:894:9
	je	.LBB0_3
.Ltmp9:
# %bb.2:                                # %if.then6
	#DEBUG_VALUE: x264_encoder_open_96:param <- $r14
	#DEBUG_VALUE: x264_encoder_open_96:h <- $rbx
	.loc	0 895 9 is_stmt 1               # x264_src/encoder/encoder.c:895:9
	movq	%r14, %rdi
	callq	*%rax
.Ltmp10:
.LBB0_3:                                # %if.end8
	#DEBUG_VALUE: x264_encoder_open_96:param <- $r14
	#DEBUG_VALUE: x264_encoder_open_96:h <- $rbx
	.loc	0 897 9                         # x264_src/encoder/encoder.c:897:9
	movq	%rbx, %rdi
	callq	x264_validate_parameters
.Ltmp11:
	.loc	0 897 39 is_stmt 0              # x264_src/encoder/encoder.c:897:39
	testl	%eax, %eax
.Ltmp12:
	.loc	0 897 9                         # x264_src/encoder/encoder.c:897:9
	js	.LBB0_69
.Ltmp13:
# %bb.4:                                # %if.end11
	#DEBUG_VALUE: x264_encoder_open_96:param <- $r14
	#DEBUG_VALUE: x264_encoder_open_96:h <- $rbx
	.loc	0 900 18 is_stmt 1              # x264_src/encoder/encoder.c:900:18
	movq	152(%rbx), %rsi
	.loc	0 900 9 is_stmt 0               # x264_src/encoder/encoder.c:900:9
	testq	%rsi, %rsi
.Ltmp14:
	.loc	0 900 9                         # x264_src/encoder/encoder.c:900:9
	je	.LBB0_6
.Ltmp15:
# %bb.5:                                # %if.then14
	#DEBUG_VALUE: x264_encoder_open_96:param <- $r14
	#DEBUG_VALUE: x264_encoder_open_96:h <- $rbx
	.loc	0 901 13 is_stmt 1              # x264_src/encoder/encoder.c:901:13
	movq	%rbx, %rdi
	callq	x264_cqm_parse_file@PLT
.Ltmp16:
	.loc	0 901 61 is_stmt 0              # x264_src/encoder/encoder.c:901:61
	testl	%eax, %eax
.Ltmp17:
	.loc	0 901 13                        # x264_src/encoder/encoder.c:901:13
	js	.LBB0_69
.Ltmp18:
.LBB0_6:                                # %if.end21
	#DEBUG_VALUE: x264_encoder_open_96:param <- $r14
	#DEBUG_VALUE: x264_encoder_open_96:h <- $rbx
	.loc	0 904 21 is_stmt 1              # x264_src/encoder/encoder.c:904:21
	movq	568(%rbx), %rdi
	.loc	0 904 9 is_stmt 0               # x264_src/encoder/encoder.c:904:9
	testq	%rdi, %rdi
.Ltmp19:
	.loc	0 904 9                         # x264_src/encoder/encoder.c:904:9
	je	.LBB0_8
.Ltmp20:
# %bb.7:                                # %if.then24
	#DEBUG_VALUE: x264_encoder_open_96:param <- $r14
	#DEBUG_VALUE: x264_encoder_open_96:h <- $rbx
	.loc	0 905 36 is_stmt 1              # x264_src/encoder/encoder.c:905:36
	callq	spec_strdup@PLT
.Ltmp21:
	.loc	0 905 34 is_stmt 0              # x264_src/encoder/encoder.c:905:34
	movq	%rax, 568(%rbx)
.Ltmp22:
.LBB0_8:                                # %if.end32
	#DEBUG_VALUE: x264_encoder_open_96:param <- $r14
	#DEBUG_VALUE: x264_encoder_open_96:h <- $rbx
	.loc	0 906 21 is_stmt 1              # x264_src/encoder/encoder.c:906:21
	movq	584(%rbx), %rdi
	.loc	0 906 9 is_stmt 0               # x264_src/encoder/encoder.c:906:9
	testq	%rdi, %rdi
.Ltmp23:
	.loc	0 906 9                         # x264_src/encoder/encoder.c:906:9
	je	.LBB0_10
.Ltmp24:
# %bb.9:                                # %if.then36
	#DEBUG_VALUE: x264_encoder_open_96:param <- $r14
	#DEBUG_VALUE: x264_encoder_open_96:h <- $rbx
	.loc	0 907 35 is_stmt 1              # x264_src/encoder/encoder.c:907:35
	callq	spec_strdup@PLT
.Ltmp25:
	.loc	0 907 33 is_stmt 0              # x264_src/encoder/encoder.c:907:33
	movq	%rax, 584(%rbx)
.Ltmp26:
.LBB0_10:                               # %if.end44
	#DEBUG_VALUE: x264_encoder_open_96:param <- $r14
	#DEBUG_VALUE: x264_encoder_open_96:h <- $rbx
	.loc	0 909 5 is_stmt 1               # x264_src/encoder/encoder.c:909:5
	movq	%rbx, %rdi
	movq	%rbx, %rsi
	movl	$1, %edx
	callq	x264_set_aspect_ratio
.Ltmp27:
	.loc	0 911 37                        # x264_src/encoder/encoder.c:911:37
	leaq	652(%rbx), %rdi
	.loc	0 911 58 is_stmt 0              # x264_src/encoder/encoder.c:911:58
	leaq	656(%rbx), %rsi
	.loc	0 911 5                         # x264_src/encoder/encoder.c:911:5
	callq	x264_reduce_fraction@PLT
.Ltmp28:
	.loc	0 912 37 is_stmt 1              # x264_src/encoder/encoder.c:912:37
	leaq	660(%rbx), %rdi
	.loc	0 912 63 is_stmt 0              # x264_src/encoder/encoder.c:912:63
	leaq	664(%rbx), %rsi
	.loc	0 912 5                         # x264_src/encoder/encoder.c:912:5
	callq	x264_reduce_fraction@PLT
.Ltmp29:
	.loc	0 0 5                           # x264_src/encoder/encoder.c:0:5
	movl	$4294967295, %eax               # imm = 0xFFFFFFFF
	.loc	0 915 16 is_stmt 1              # x264_src/encoder/encoder.c:915:16
	movq	%rax, 1844(%rbx)
	.loc	0 917 21                        # x264_src/encoder/encoder.c:917:21
	movl	$0, 3336(%rbx)
	.loc	0 918 42                        # x264_src/encoder/encoder.c:918:42
	movl	664(%rbx), %r8d
.Ltmp30:
	#DEBUG_VALUE: x264_encoder_open_96:new_timebase_den <- $r8d
	.loc	0 919 9                         # x264_src/encoder/encoder.c:919:9
	cmpl	$0, 668(%rbx)
.Ltmp31:
	.loc	0 919 9 is_stmt 0               # x264_src/encoder/encoder.c:919:9
	je	.LBB0_13
.Ltmp32:
# %bb.11:                               # %if.then54
	#DEBUG_VALUE: x264_encoder_open_96:param <- $r14
	#DEBUG_VALUE: x264_encoder_open_96:h <- $rbx
	#DEBUG_VALUE: x264_encoder_open_96:new_timebase_den <- $r8d
	.loc	0 922 40 is_stmt 1              # x264_src/encoder/encoder.c:922:40
	cmpl	$0, 100(%rbx)
	je	.LBB0_13
.Ltmp33:
# %bb.12:                               # %cond.end
	#DEBUG_VALUE: x264_encoder_open_96:param <- $r14
	#DEBUG_VALUE: x264_encoder_open_96:h <- $rbx
	#DEBUG_VALUE: x264_encoder_open_96:new_timebase_den <- $r8d
	.loc	0 922 61 is_stmt 0              # x264_src/encoder/encoder.c:922:61
	cmpl	$1, 112(%rbx)
	movl	$3, %r14d
.Ltmp34:
	#DEBUG_VALUE: x264_encoder_open_96:param <- [DW_OP_LLVM_entry_value 1] $rdi
	sbbl	$0, %r14d
	.loc	0 922 38                        # x264_src/encoder/encoder.c:922:38
	movl	%r14d, 3340(%rbx)
.Ltmp35:
	.loc	0 925 56 is_stmt 1              # x264_src/encoder/encoder.c:925:56
	imull	%r8d, %r14d
.Ltmp36:
	#DEBUG_VALUE: x264_encoder_open_96:new_timebase_den <- $r14d
	.loc	0 927 32                        # x264_src/encoder/encoder.c:927:32
	movl	660(%rbx), %ecx
	.loc	0 926 13                        # x264_src/encoder/encoder.c:926:13
	movq	%r14, (%rsp)
	movl	$.L.str, %edx
	movq	%rbx, %rdi
	movl	$3, %esi
                                        # kill: def $r8d killed $r8d killed $r8
	movl	%ecx, %r9d
	xorl	%eax, %eax
	callq	x264_log@PLT
.Ltmp37:
	.loc	0 0 13 is_stmt 0                # x264_src/encoder/encoder.c:0:13
	movq	%r14, %r8
.Ltmp38:
	#DEBUG_VALUE: x264_encoder_open_96:new_timebase_den <- $r14
	.loc	0 934 30 is_stmt 1              # x264_src/encoder/encoder.c:934:30
	testl	$-2147483648, %r8d              # imm = 0x80000000
.Ltmp39:
	.loc	0 934 9 is_stmt 0               # x264_src/encoder/encoder.c:934:9
	jne	.LBB0_15
.Ltmp40:
.LBB0_17:                               # %if.end81
	#DEBUG_VALUE: x264_encoder_open_96:param <- [DW_OP_LLVM_entry_value 1] $rdi
	#DEBUG_VALUE: x264_encoder_open_96:h <- $rbx
	#DEBUG_VALUE: x264_encoder_open_96:new_timebase_den <- $r8
	.loc	0 939 29 is_stmt 1              # x264_src/encoder/encoder.c:939:29
	movl	%r8d, 664(%rbx)
	.loc	0 941 18                        # x264_src/encoder/encoder.c:941:18
	leaq	1896(%rbx), %rdi
	.loc	0 941 12 is_stmt 0              # x264_src/encoder/encoder.c:941:12
	movq	%rdi, 3200(%rbx)
	.loc	0 942 37 is_stmt 1              # x264_src/encoder/encoder.c:942:37
	movl	644(%rbx), %esi
	.loc	0 942 5 is_stmt 0               # x264_src/encoder/encoder.c:942:5
	movq	%rbx, %rdx
	callq	x264_sps_init@PLT
.Ltmp41:
	.loc	0 944 18 is_stmt 1              # x264_src/encoder/encoder.c:944:18
	leaq	3208(%rbx), %rdi
	.loc	0 944 12 is_stmt 0              # x264_src/encoder/encoder.c:944:12
	movq	%rdi, 3328(%rbx)
	.loc	0 945 37 is_stmt 1              # x264_src/encoder/encoder.c:945:37
	movl	644(%rbx), %esi
	.loc	0 945 61 is_stmt 0              # x264_src/encoder/encoder.c:945:61
	movq	3200(%rbx), %rcx
	.loc	0 945 5                         # x264_src/encoder/encoder.c:945:5
	movq	%rbx, %rdx
	callq	x264_pps_init@PLT
.Ltmp42:
	.loc	0 947 5 is_stmt 1               # x264_src/encoder/encoder.c:947:5
	movq	%rbx, %rdi
	movl	$1, %esi
	callq	x264_validate_levels@PLT
.Ltmp43:
	.loc	0 949 54                        # x264_src/encoder/encoder.c:949:54
	movq	3328(%rbx), %rax
	.loc	0 949 59 is_stmt 0              # x264_src/encoder/encoder.c:949:59
	movslq	44(%rax), %rax
	.loc	0 949 49                        # x264_src/encoder/encoder.c:949:49
	leaq	i_chroma_qp_table+12(%rax), %rax
	.loc	0 949 24                        # x264_src/encoder/encoder.c:949:24
	movq	%rax, 7216(%rbx)
.Ltmp44:
	.loc	0 951 9 is_stmt 1               # x264_src/encoder/encoder.c:951:9
	movq	%rbx, %rdi
	callq	x264_cqm_init@PLT
.Ltmp45:
	.loc	0 951 28 is_stmt 0              # x264_src/encoder/encoder.c:951:28
	testl	%eax, %eax
.Ltmp46:
	.loc	0 951 9                         # x264_src/encoder/encoder.c:951:9
	js	.LBB0_69
.Ltmp47:
# %bb.18:                               # %if.end100
	#DEBUG_VALUE: x264_encoder_open_96:param <- [DW_OP_LLVM_entry_value 1] $rdi
	#DEBUG_VALUE: x264_encoder_open_96:h <- $rbx
	.loc	0 954 27 is_stmt 1              # x264_src/encoder/encoder.c:954:27
	movq	3200(%rbx), %rdx
	.loc	0 954 53 is_stmt 0              # x264_src/encoder/encoder.c:954:53
	movl	1088(%rdx), %eax
	.loc	0 954 43                        # x264_src/encoder/encoder.c:954:43
	imull	1084(%rdx), %eax
	.loc	0 954 22                        # x264_src/encoder/encoder.c:954:22
	movl	%eax, 16368(%rbx)
.Ltmp48:
	.loc	0 957 18 is_stmt 1              # x264_src/encoder/encoder.c:957:18
	movl	104(%rbx), %ecx
	.loc	0 957 36 is_stmt 0              # x264_src/encoder/encoder.c:957:36
	cmpl	$2, %ecx
	.loc	0 957 60                        # x264_src/encoder/encoder.c:957:60
	jne	.LBB0_21
.Ltmp49:
# %bb.19:                               # %land.lhs.true
	#DEBUG_VALUE: x264_encoder_open_96:param <- [DW_OP_LLVM_entry_value 1] $rdi
	#DEBUG_VALUE: x264_encoder_open_96:h <- $rbx
	.loc	0 957 64                        # x264_src/encoder/encoder.c:957:64
	cmpl	$0, 576(%rbx)
.Ltmp50:
	.loc	0 957 9                         # x264_src/encoder/encoder.c:957:9
	je	.LBB0_20
.Ltmp51:
.LBB0_21:                               # %if.else122
	#DEBUG_VALUE: x264_encoder_open_96:param <- [DW_OP_LLVM_entry_value 1] $rdi
	#DEBUG_VALUE: x264_encoder_open_96:h <- $rbx
	.loc	0 960 38 is_stmt 1              # x264_src/encoder/encoder.c:960:38
	movl	100(%rbx), %edi
	movl	%edi, %ebp
.Ltmp52:
	.loc	0 961 21                        # x264_src/encoder/encoder.c:961:21
	movl	552(%rbx), %esi
	.loc	0 961 9 is_stmt 0               # x264_src/encoder/encoder.c:961:9
	testl	%esi, %esi
	.loc	0 961 31                        # x264_src/encoder/encoder.c:961:31
	jne	.LBB0_24
.Ltmp53:
.LBB0_23:                               # %lor.lhs.false
	#DEBUG_VALUE: x264_encoder_open_96:param <- [DW_OP_LLVM_entry_value 1] $rdi
	#DEBUG_VALUE: x264_encoder_open_96:h <- $rbx
	.loc	0 961 34                        # x264_src/encoder/encoder.c:961:34
	cmpl	$0, 528(%rbx)
.Ltmp54:
	.loc	0 961 9                         # x264_src/encoder/encoder.c:961:9
	jne	.LBB0_24
	jmp	.LBB0_25
.Ltmp55:
.LBB0_13:                               # %if.else
	#DEBUG_VALUE: x264_encoder_open_96:param <- $r14
	#DEBUG_VALUE: x264_encoder_open_96:h <- $rbx
	#DEBUG_VALUE: x264_encoder_open_96:new_timebase_den <- $r8d
	.loc	0 0 0                           # x264_src/encoder/encoder.c:0:0
	movl	$1, 3340(%rbx)
.Ltmp56:
	#DEBUG_VALUE: x264_encoder_open_96:new_timebase_den <- $r8
	.loc	0 934 30 is_stmt 1              # x264_src/encoder/encoder.c:934:30
	testl	$-2147483648, %r8d              # imm = 0x80000000
.Ltmp57:
	.loc	0 934 9 is_stmt 0               # x264_src/encoder/encoder.c:934:9
	je	.LBB0_17
.Ltmp58:
.LBB0_15:                               # %if.then80
	#DEBUG_VALUE: x264_encoder_open_96:param <- [DW_OP_LLVM_entry_value 1] $rdi
	#DEBUG_VALUE: x264_encoder_open_96:h <- $rbx
	#DEBUG_VALUE: x264_encoder_open_96:new_timebase_den <- $r8
	.loc	0 936 9 is_stmt 1               # x264_src/encoder/encoder.c:936:9
	movl	$.L.str.1, %edx
	movq	%rbx, %rdi
	xorl	%esi, %esi
	movq	%r8, %rcx
.Ltmp59:
.LBB0_16:                               # %fail
	#DEBUG_VALUE: x264_encoder_open_96:param <- [DW_OP_LLVM_entry_value 1] $rdi
	#DEBUG_VALUE: x264_encoder_open_96:h <- $rbx
	.loc	0 0 0 is_stmt 0                 # x264_src/encoder/encoder.c:0:0
	xorl	%eax, %eax
	callq	x264_log@PLT
.Ltmp60:
.LBB0_69:                               # %fail
	#DEBUG_VALUE: x264_encoder_open_96:param <- [DW_OP_LLVM_entry_value 1] $rdi
	#DEBUG_VALUE: x264_encoder_open_96:h <- $rbx
	#DEBUG_LABEL: x264_encoder_open_96:fail
	.loc	0 1141 5 is_stmt 1              # x264_src/encoder/encoder.c:1141:5
	movq	%rbx, %rdi
	callq	x264_free@PLT
.Ltmp61:
	.loc	0 0 5 is_stmt 0                 # x264_src/encoder/encoder.c:0:5
	xorl	%ebx, %ebx
.Ltmp62:
.LBB0_117:                              # %cleanup869
	#DEBUG_VALUE: x264_encoder_open_96:param <- [DW_OP_LLVM_entry_value 1] $rdi
	.loc	0 1143 1 is_stmt 1              # x264_src/encoder/encoder.c:1143:1
	movq	%rbx, %rax
	.loc	0 1143 1 epilogue_begin is_stmt 0 # x264_src/encoder/encoder.c:1143:1
	addq	$1032, %rsp                     # imm = 0x408
	.cfi_def_cfa_offset 56
	popq	%rbx
	.cfi_def_cfa_offset 48
	popq	%r12
	.cfi_def_cfa_offset 40
	popq	%r13
	.cfi_def_cfa_offset 32
	popq	%r14
	.cfi_def_cfa_offset 24
	popq	%r15
	.cfi_def_cfa_offset 16
	popq	%rbp
	.cfi_def_cfa_offset 8
	retq
.Ltmp63:
.LBB0_20:                               # %if.then110
	.cfi_def_cfa_offset 1088
	#DEBUG_VALUE: x264_encoder_open_96:param <- [DW_OP_LLVM_entry_value 1] $rdi
	#DEBUG_VALUE: x264_encoder_open_96:h <- $rbx
	.loc	0 958 29 is_stmt 1              # x264_src/encoder/encoder.c:958:29
	movl	100(%rbx), %edi
	cmpl	$4, %edi
	movl	$3, %ebp
	cmovgel	%edi, %ebp
	.loc	0 958 58 is_stmt 0              # x264_src/encoder/encoder.c:958:58
	shll	$2, %ebp
.Ltmp64:
	.loc	0 961 21 is_stmt 1              # x264_src/encoder/encoder.c:961:21
	movl	552(%rbx), %esi
	.loc	0 961 9 is_stmt 0               # x264_src/encoder/encoder.c:961:9
	testl	%esi, %esi
	.loc	0 961 31                        # x264_src/encoder/encoder.c:961:31
	je	.LBB0_23
.Ltmp65:
.LBB0_24:                               # %if.then134
	#DEBUG_VALUE: x264_encoder_open_96:param <- [DW_OP_LLVM_entry_value 1] $rdi
	#DEBUG_VALUE: x264_encoder_open_96:h <- $rbx
	.loc	0 962 29 is_stmt 1              # x264_src/encoder/encoder.c:962:29
	movl	556(%rbx), %eax
	cmpl	%eax, %ebp
	cmovlel	%eax, %ebp
.Ltmp66:
.LBB0_25:                               # %if.end152
	#DEBUG_VALUE: x264_encoder_open_96:param <- [DW_OP_LLVM_entry_value 1] $rdi
	#DEBUG_VALUE: x264_encoder_open_96:h <- $rbx
	#DEBUG_VALUE: x264_encoder_open_96:i_slicetype_length <- $ebp
	.loc	0 0 29 is_stmt 0                # x264_src/encoder/encoder.c:0:29
	movl	1852(%rbx), %eax
	.loc	0 964 45 is_stmt 1              # x264_src/encoder/encoder.c:964:45
	addl	%ebp, %eax
	.loc	0 965 35                        # x264_src/encoder/encoder.c:965:35
	movl	16(%rbx), %r8d
	.loc	0 965 23 is_stmt 0              # x264_src/encoder/encoder.c:965:23
	addl	%r8d, %eax
	decl	%eax
	xorl	%r8d, %r8d
	.loc	0 966 26 is_stmt 1              # x264_src/encoder/encoder.c:966:26
	cmpl	$0, 648(%rbx)
	.loc	0 966 47 is_stmt 0              # x264_src/encoder/encoder.c:966:47
	je	.LBB0_26
.Ltmp67:
# %bb.27:                               # %land.rhs
	#DEBUG_VALUE: x264_encoder_open_96:param <- [DW_OP_LLVM_entry_value 1] $rdi
	#DEBUG_VALUE: x264_encoder_open_96:h <- $rbx
	#DEBUG_VALUE: x264_encoder_open_96:i_slicetype_length <- $ebp
	.loc	0 0 47                          # x264_src/encoder/encoder.c:0:47
	movb	$1, %r9b
	.loc	0 966 75                        # x264_src/encoder/encoder.c:966:75
	cmpl	$2, 488(%rbx)
	.loc	0 966 90                        # x264_src/encoder/encoder.c:966:90
	je	.LBB0_30
.Ltmp68:
# %bb.28:                               # %lor.lhs.false167
	#DEBUG_VALUE: x264_encoder_open_96:param <- [DW_OP_LLVM_entry_value 1] $rdi
	#DEBUG_VALUE: x264_encoder_open_96:h <- $rbx
	#DEBUG_VALUE: x264_encoder_open_96:i_slicetype_length <- $ebp
	.loc	0 966 93                        # x264_src/encoder/encoder.c:966:93
	cmpl	$0, 560(%rbx)
	.loc	0 967 50 is_stmt 1              # x264_src/encoder/encoder.c:967:50
	jne	.LBB0_30
.Ltmp69:
# %bb.29:                               # %lor.rhs
	#DEBUG_VALUE: x264_encoder_open_96:param <- [DW_OP_LLVM_entry_value 1] $rdi
	#DEBUG_VALUE: x264_encoder_open_96:h <- $rbx
	#DEBUG_VALUE: x264_encoder_open_96:i_slicetype_length <- $ebp
	cmpl	$0, 528(%rbx)
	setne	%r9b
	jmp	.LBB0_30
.Ltmp70:
.LBB0_26:
	#DEBUG_VALUE: x264_encoder_open_96:param <- [DW_OP_LLVM_entry_value 1] $rdi
	#DEBUG_VALUE: x264_encoder_open_96:h <- $rbx
	#DEBUG_VALUE: x264_encoder_open_96:i_slicetype_length <- $ebp
	.loc	0 0 50 is_stmt 0                # x264_src/encoder/encoder.c:0:50
	xorl	%r9d, %r9d
.Ltmp71:
.LBB0_30:                               # %land.end
	#DEBUG_VALUE: x264_encoder_open_96:param <- [DW_OP_LLVM_entry_value 1] $rdi
	#DEBUG_VALUE: x264_encoder_open_96:h <- $rbx
	#DEBUG_VALUE: x264_encoder_open_96:i_slicetype_length <- $ebp
	.loc	0 966 47 is_stmt 1              # x264_src/encoder/encoder.c:966:47
	movzbl	%r9b, %r9d
	.loc	0 966 23 is_stmt 0              # x264_src/encoder/encoder.c:966:23
	addl	%r9d, %eax
	movl	%eax, 14612(%rbx)
	.loc	0 968 32 is_stmt 1              # x264_src/encoder/encoder.c:968:32
	testl	%edi, %edi
	je	.LBB0_32
.Ltmp72:
# %bb.31:                               # %cond.true181
	#DEBUG_VALUE: x264_encoder_open_96:param <- [DW_OP_LLVM_entry_value 1] $rdi
	#DEBUG_VALUE: x264_encoder_open_96:h <- $rbx
	#DEBUG_VALUE: x264_encoder_open_96:i_slicetype_length <- $ebp
	.loc	0 968 53 is_stmt 0              # x264_src/encoder/encoder.c:968:53
	cmpl	$1, 112(%rbx)
	movl	$2, %r8d
	sbbl	$0, %r8d
.Ltmp73:
.LBB0_32:                               # %cond.end187
	#DEBUG_VALUE: x264_encoder_open_96:param <- [DW_OP_LLVM_entry_value 1] $rdi
	#DEBUG_VALUE: x264_encoder_open_96:h <- $rbx
	#DEBUG_VALUE: x264_encoder_open_96:i_slicetype_length <- $ebp
	.loc	0 968 30                        # x264_src/encoder/encoder.c:968:30
	movl	%r8d, 14616(%rbx)
	.loc	0 970 37 is_stmt 1              # x264_src/encoder/encoder.c:970:37
	movl	80(%rbx), %edi
	.loc	0 970 26 is_stmt 0              # x264_src/encoder/encoder.c:970:26
	movl	%edi, 14604(%rbx)
	.loc	0 971 28 is_stmt 1              # x264_src/encoder/encoder.c:971:28
	movl	1288(%rdx), %r8d
	cmpl	%edi, %r8d
	cmovll	%r8d, %edi
	.loc	0 971 26 is_stmt 0              # x264_src/encoder/encoder.c:971:26
	movl	%edi, 14608(%rbx)
	.loc	0 972 40 is_stmt 1              # x264_src/encoder/encoder.c:972:40
	movl	1292(%rdx), %edx
	.loc	0 972 26 is_stmt 0              # x264_src/encoder/encoder.c:972:26
	movl	%edx, 14600(%rbx)
	.loc	0 973 32 is_stmt 1              # x264_src/encoder/encoder.c:973:32
	cmpl	$0, 576(%rbx)
	.loc	0 974 9                         # x264_src/encoder/encoder.c:974:9
	je	.LBB0_33
.Ltmp74:
# %bb.37:                               # %land.rhs250
	#DEBUG_VALUE: x264_encoder_open_96:param <- [DW_OP_LLVM_entry_value 1] $rdi
	#DEBUG_VALUE: x264_encoder_open_96:h <- $rbx
	#DEBUG_VALUE: x264_encoder_open_96:i_slicetype_length <- $ebp
	.loc	0 980 89                        # x264_src/encoder/encoder.c:980:89
	cmpl	$0, 528(%rbx)
	setg	%dl
	xorl	%ecx, %ecx
	jmp	.LBB0_38
.Ltmp75:
.LBB0_33:                               # %land.rhs214
	#DEBUG_VALUE: x264_encoder_open_96:param <- [DW_OP_LLVM_entry_value 1] $rdi
	#DEBUG_VALUE: x264_encoder_open_96:h <- $rbx
	#DEBUG_VALUE: x264_encoder_open_96:i_slicetype_length <- $ebp
	.loc	0 974 26                        # x264_src/encoder/encoder.c:974:26
	movl	488(%rbx), %edx
	.loc	0 975 11                        # x264_src/encoder/encoder.c:975:11
	addl	$-3, %edx
	cmpl	$-2, %edx
	setae	%dl
	testl	%ecx, %ecx
	setne	%dil
	movb	$1, %cl
	orb	%dl, %dil
	jne	.LBB0_36
.Ltmp76:
# %bb.34:                               # %lor.lhs.false230
	#DEBUG_VALUE: x264_encoder_open_96:param <- [DW_OP_LLVM_entry_value 1] $rdi
	#DEBUG_VALUE: x264_encoder_open_96:h <- $rbx
	#DEBUG_VALUE: x264_encoder_open_96:i_slicetype_length <- $ebp
	.loc	0 978 11                        # x264_src/encoder/encoder.c:978:11
	orl	92(%rbx), %esi
	jne	.LBB0_36
.Ltmp77:
# %bb.35:                               # %lor.rhs238
	#DEBUG_VALUE: x264_encoder_open_96:param <- [DW_OP_LLVM_entry_value 1] $rdi
	#DEBUG_VALUE: x264_encoder_open_96:h <- $rbx
	#DEBUG_VALUE: x264_encoder_open_96:i_slicetype_length <- $ebp
	.loc	0 979 47                        # x264_src/encoder/encoder.c:979:47
	cmpl	$2, 396(%rbx)
	sete	%cl
.Ltmp78:
.LBB0_36:                               # %land.end243.thread
	#DEBUG_VALUE: x264_encoder_open_96:param <- [DW_OP_LLVM_entry_value 1] $rdi
	#DEBUG_VALUE: x264_encoder_open_96:h <- $rbx
	#DEBUG_VALUE: x264_encoder_open_96:i_slicetype_length <- $ebp
	.loc	0 974 9                         # x264_src/encoder/encoder.c:974:9
	movzbl	%cl, %ecx
	xorl	%edx, %edx
.Ltmp79:
.LBB0_38:                               # %land.end256
	#DEBUG_VALUE: x264_encoder_open_96:param <- [DW_OP_LLVM_entry_value 1] $rdi
	#DEBUG_VALUE: x264_encoder_open_96:h <- $rbx
	#DEBUG_VALUE: x264_encoder_open_96:i_slicetype_length <- $ebp
	.loc	0 980 56                        # x264_src/encoder/encoder.c:980:56
	movzbl	%dl, %edx
	.loc	0 980 29 is_stmt 0              # x264_src/encoder/encoder.c:980:29
	orl	%ecx, %edx
	movl	%edx, 14672(%rbx)
	.loc	0 981 55 is_stmt 1              # x264_src/encoder/encoder.c:981:55
	movl	388(%rbx), %ecx
	.loc	0 981 35 is_stmt 0              # x264_src/encoder/encoder.c:981:35
	shrl	$5, %ecx
	andl	$1, %ecx
	.loc	0 981 33                        # x264_src/encoder/encoder.c:981:33
	movl	%ecx, 14676(%rbx)
	xorl	%ecx, %ecx
	.loc	0 983 33 is_stmt 1              # x264_src/encoder/encoder.c:983:33
	subl	84(%rbx), %ecx
	.loc	0 983 31 is_stmt 0              # x264_src/encoder/encoder.c:983:31
	movl	%ecx, 14592(%rbx)
	.loc	0 984 26 is_stmt 1              # x264_src/encoder/encoder.c:984:26
	movl	$0, 14596(%rbx)
.Ltmp80:
	.loc	0 987 5                         # x264_src/encoder/encoder.c:987:5
	leal	24(,%rax,8), %edi
.Ltmp81:
	.loc	0 985 29                        # x264_src/encoder/encoder.c:985:29
	pcmpeqd	%xmm0, %xmm0
	movdqa	%xmm0, 14656(%rbx)
.Ltmp82:
	.loc	0 987 5                         # x264_src/encoder/encoder.c:987:5
	callq	x264_malloc@PLT
.Ltmp83:
	movq	%rax, 14424(%rbx)
.Ltmp84:
	.loc	0 987 5 is_stmt 0               # x264_src/encoder/encoder.c:987:5
	testq	%rax, %rax
.Ltmp85:
	.loc	0 987 5                         # x264_src/encoder/encoder.c:987:5
	je	.LBB0_69
.Ltmp86:
# %bb.39:                               # %do.end289
	#DEBUG_VALUE: x264_encoder_open_96:param <- [DW_OP_LLVM_entry_value 1] $rdi
	#DEBUG_VALUE: x264_encoder_open_96:h <- $rbx
	#DEBUG_VALUE: x264_encoder_open_96:i_slicetype_length <- $ebp
	.loc	0 987 5                         # x264_src/encoder/encoder.c:987:5
	movslq	14612(%rbx), %rcx
	leaq	24(,%rcx,8), %rdx
	movq	%rax, %rdi
	xorl	%esi, %esi
	callq	memset@PLT
.Ltmp87:
	.loc	0 989 5 is_stmt 1               # x264_src/encoder/encoder.c:989:5
	movl	1852(%rbx), %eax
	leal	160(,%rax,8), %edi
	callq	x264_malloc@PLT
.Ltmp88:
	movq	%rax, 14432(%rbx)
.Ltmp89:
	.loc	0 989 5 is_stmt 0               # x264_src/encoder/encoder.c:989:5
	testq	%rax, %rax
.Ltmp90:
	.loc	0 989 5                         # x264_src/encoder/encoder.c:989:5
	je	.LBB0_69
.Ltmp91:
# %bb.40:                               # %do.end318
	#DEBUG_VALUE: x264_encoder_open_96:param <- [DW_OP_LLVM_entry_value 1] $rdi
	#DEBUG_VALUE: x264_encoder_open_96:h <- $rbx
	#DEBUG_VALUE: x264_encoder_open_96:i_slicetype_length <- $ebp
	.loc	0 989 5                         # x264_src/encoder/encoder.c:989:5
	movslq	1852(%rbx), %rcx
	leaq	160(,%rcx,8), %rdx
	movq	%rax, %rdi
	xorl	%esi, %esi
	callq	memset@PLT
.Ltmp92:
	.loc	0 990 5 is_stmt 1               # x264_src/encoder/encoder.c:990:5
	movl	100(%rbx), %eax
	addl	16(%rbx), %eax
	addl	1852(%rbx), %eax
	leal	24(,%rax,8), %edi
	callq	x264_malloc@PLT
.Ltmp93:
	movq	%rax, 14416(%rbx)
.Ltmp94:
	.loc	0 990 5 is_stmt 0               # x264_src/encoder/encoder.c:990:5
	testq	%rax, %rax
.Ltmp95:
	.loc	0 990 5                         # x264_src/encoder/encoder.c:990:5
	je	.LBB0_69
.Ltmp96:
# %bb.41:                               # %do.end349
	#DEBUG_VALUE: x264_encoder_open_96:param <- [DW_OP_LLVM_entry_value 1] $rdi
	#DEBUG_VALUE: x264_encoder_open_96:h <- $rbx
	#DEBUG_VALUE: x264_encoder_open_96:i_slicetype_length <- $ebp
	.loc	0 990 5                         # x264_src/encoder/encoder.c:990:5
	movl	16(%rbx), %ecx
	addl	100(%rbx), %ecx
	movl	1852(%rbx), %edx
	addl	%edx, %ecx
	addl	$3, %ecx
	movslq	%ecx, %rdx
	shlq	$3, %rdx
	movq	%rax, %rdi
	xorl	%esi, %esi
	callq	memset@PLT
.Ltmp97:
	.loc	0 992 42 is_stmt 1              # x264_src/encoder/encoder.c:992:42
	cmpl	$0, 396(%rbx)
.Ltmp98:
	.loc	0 992 9 is_stmt 0               # x264_src/encoder/encoder.c:992:9
	jle	.LBB0_44
.Ltmp99:
# %bb.42:                               # %do.body371
	#DEBUG_VALUE: x264_encoder_open_96:param <- [DW_OP_LLVM_entry_value 1] $rdi
	#DEBUG_VALUE: x264_encoder_open_96:h <- $rbx
	#DEBUG_VALUE: x264_encoder_open_96:i_slicetype_length <- $ebp
	.loc	0 993 9 is_stmt 1               # x264_src/encoder/encoder.c:993:9
	movl	1852(%rbx), %edi
	shll	$5, %edi
	callq	x264_malloc@PLT
.Ltmp100:
	movq	%rax, 14440(%rbx)
.Ltmp101:
	.loc	0 993 9 is_stmt 0               # x264_src/encoder/encoder.c:993:9
	testq	%rax, %rax
.Ltmp102:
	.loc	0 993 9                         # x264_src/encoder/encoder.c:993:9
	je	.LBB0_69
.Ltmp103:
# %bb.43:                               # %do.end385
	#DEBUG_VALUE: x264_encoder_open_96:param <- [DW_OP_LLVM_entry_value 1] $rdi
	#DEBUG_VALUE: x264_encoder_open_96:h <- $rbx
	#DEBUG_VALUE: x264_encoder_open_96:i_slicetype_length <- $ebp
	.loc	0 993 9                         # x264_src/encoder/encoder.c:993:9
	movslq	1852(%rbx), %rdx
	shlq	$5, %rdx
	movq	%rax, %rdi
	xorl	%esi, %esi
	callq	memset@PLT
.Ltmp104:
.LBB0_44:                               # %if.end394
	#DEBUG_VALUE: x264_encoder_open_96:param <- [DW_OP_LLVM_entry_value 1] $rdi
	#DEBUG_VALUE: x264_encoder_open_96:h <- $rbx
	#DEBUG_VALUE: x264_encoder_open_96:i_slicetype_length <- $ebp
	.loc	0 994 15 is_stmt 1              # x264_src/encoder/encoder.c:994:15
	movl	$0, 14696(%rbx)
	.loc	0 995 15                        # x264_src/encoder/encoder.c:995:15
	movl	$0, 14856(%rbx)
	.loc	0 996 20                        # x264_src/encoder/encoder.c:996:20
	movl	$0, 1880(%rbx)
	.loc	0 996 59 is_stmt 0              # x264_src/encoder/encoder.c:996:59
	movsd	.LCPI0_0(%rip), %xmm0           # xmm0 = [0,4294967295,0,0]
	movups	%xmm0, 1864(%rbx)
	.loc	0 998 5 is_stmt 1               # x264_src/encoder/encoder.c:998:5
	callq	x264_rdo_init@PLT
.Ltmp105:
	.loc	0 1001 39                       # x264_src/encoder/encoder.c:1001:39
	movl	(%rbx), %edi
	.loc	0 1001 47 is_stmt 0             # x264_src/encoder/encoder.c:1001:47
	leaq	31248(%rbx), %rsi
	.loc	0 1001 5                        # x264_src/encoder/encoder.c:1001:5
	callq	x264_predict_16x16_init@PLT
.Ltmp106:
	.loc	0 1002 38 is_stmt 1             # x264_src/encoder/encoder.c:1002:38
	movl	(%rbx), %edi
	.loc	0 1002 46 is_stmt 0             # x264_src/encoder/encoder.c:1002:46
	leaq	31304(%rbx), %rsi
	.loc	0 1002 5                        # x264_src/encoder/encoder.c:1002:5
	callq	x264_predict_8x8c_init@PLT
.Ltmp107:
	.loc	0 1003 37 is_stmt 1             # x264_src/encoder/encoder.c:1003:37
	movl	(%rbx), %edi
	.loc	0 1003 45 is_stmt 0             # x264_src/encoder/encoder.c:1003:45
	leaq	31360(%rbx), %rsi
	.loc	0 1003 62                       # x264_src/encoder/encoder.c:1003:62
	leaq	31552(%rbx), %rdx
	.loc	0 1003 5                        # x264_src/encoder/encoder.c:1003:5
	callq	x264_predict_8x8_init@PLT
.Ltmp108:
	.loc	0 1004 37 is_stmt 1             # x264_src/encoder/encoder.c:1004:37
	movl	(%rbx), %edi
	.loc	0 1004 45 is_stmt 0             # x264_src/encoder/encoder.c:1004:45
	leaq	31456(%rbx), %rsi
	.loc	0 1004 5                        # x264_src/encoder/encoder.c:1004:5
	callq	x264_predict_4x4_init@PLT
.Ltmp109:
	.loc	0 1005 10 is_stmt 1             # x264_src/encoder/encoder.c:1005:10
	cmpl	$0, 128(%rbx)
.Ltmp110:
	.loc	0 1005 9 is_stmt 0              # x264_src/encoder/encoder.c:1005:9
	jne	.LBB0_46
.Ltmp111:
# %bb.45:                               # %if.then407
	#DEBUG_VALUE: x264_encoder_open_96:param <- [DW_OP_LLVM_entry_value 1] $rdi
	#DEBUG_VALUE: x264_encoder_open_96:h <- $rbx
	#DEBUG_VALUE: x264_encoder_open_96:i_slicetype_length <- $ebp
	.loc	0 1006 9 is_stmt 1              # x264_src/encoder/encoder.c:1006:9
	xorl	%eax, %eax
	callq	x264_init_vlc_tables@PLT
.Ltmp112:
.LBB0_46:                               # %if.end408
	#DEBUG_VALUE: x264_encoder_open_96:param <- [DW_OP_LLVM_entry_value 1] $rdi
	#DEBUG_VALUE: x264_encoder_open_96:h <- $rbx
	#DEBUG_VALUE: x264_encoder_open_96:i_slicetype_length <- $ebp
	.loc	0 1007 31                       # x264_src/encoder/encoder.c:1007:31
	movl	(%rbx), %edi
	.loc	0 1007 40 is_stmt 0             # x264_src/encoder/encoder.c:1007:40
	leaq	31560(%rbx), %rsi
	.loc	0 1007 5                        # x264_src/encoder/encoder.c:1007:5
	callq	x264_pixel_init@PLT
.Ltmp113:
	.loc	0 1008 29 is_stmt 1             # x264_src/encoder/encoder.c:1008:29
	movl	(%rbx), %edi
	.loc	0 1008 38 is_stmt 0             # x264_src/encoder/encoder.c:1008:38
	leaq	32912(%rbx), %rsi
	.loc	0 1008 5                        # x264_src/encoder/encoder.c:1008:5
	callq	x264_dct_init@PLT
.Ltmp114:
	.loc	0 1009 41 is_stmt 1             # x264_src/encoder/encoder.c:1009:41
	leaq	33032(%rbx), %rsi
	.loc	0 1009 32 is_stmt 0             # x264_src/encoder/encoder.c:1009:32
	movl	(%rbx), %edi
	.loc	0 1009 59                       # x264_src/encoder/encoder.c:1009:59
	movl	136(%rbx), %edx
	.loc	0 1009 5                        # x264_src/encoder/encoder.c:1009:5
	callq	x264_zigzag_init@PLT
.Ltmp115:
	.loc	0 1010 28 is_stmt 1             # x264_src/encoder/encoder.c:1010:28
	movl	(%rbx), %edi
	.loc	0 1010 37 is_stmt 0             # x264_src/encoder/encoder.c:1010:37
	leaq	32616(%rbx), %rsi
	.loc	0 1010 5                        # x264_src/encoder/encoder.c:1010:5
	callq	x264_mc_init@PLT
.Ltmp116:
	.loc	0 1011 34 is_stmt 1             # x264_src/encoder/encoder.c:1011:34
	movl	(%rbx), %esi
	.loc	0 1011 43 is_stmt 0             # x264_src/encoder/encoder.c:1011:43
	leaq	33080(%rbx), %rdx
	.loc	0 1011 5                        # x264_src/encoder/encoder.c:1011:5
	movq	%rbx, %rdi
	callq	x264_quant_init@PLT
.Ltmp117:
	.loc	0 1012 33 is_stmt 1             # x264_src/encoder/encoder.c:1012:33
	movl	(%rbx), %edi
	.loc	0 1012 42 is_stmt 0             # x264_src/encoder/encoder.c:1012:42
	movq	%rbx, %rsi
	addq	$33256, %rsi                    # imm = 0x81E8
	.loc	0 1012 5                        # x264_src/encoder/encoder.c:1012:5
	callq	x264_deblock_init@PLT
.Ltmp118:
	.loc	0 1013 5 is_stmt 1              # x264_src/encoder/encoder.c:1013:5
	callq	x264_dct_init_weights@PLT
.Ltmp119:
	.loc	0 1015 5                        # x264_src/encoder/encoder.c:1015:5
	movq	%rbx, %rdi
	callq	mbcmp_init
.Ltmp120:
	.loc	0 0 5 is_stmt 0                 # x264_src/encoder/encoder.c:0:5
	movabsq	$16452428047346028, %rax        # imm = 0x3A73656974696C
	.loc	0 1017 15 is_stmt 1             # x264_src/encoder/encoder.c:1017:15
	movq	%rax, 48(%rsp)
	movdqu	.L.str.2(%rip), %xmm0
	movdqa	%xmm0, 32(%rsp)
	.loc	0 1017 13 is_stmt 0             # x264_src/encoder/encoder.c:1017:13
	leaq	55(%rsp), %rcx
.Ltmp121:
	#DEBUG_VALUE: x264_encoder_open_96:p <- $rcx
	#DEBUG_VALUE: i <- 0
	.loc	0 1018 39 is_stmt 1             # x264_src/encoder/encoder.c:1018:39
	movq	x264_cpu_names@GOTPCREL(%rip), %rax
	movl	16(%rax), %r13d
.Ltmp122:
	.loc	0 1034 19                       # x264_src/encoder/encoder.c:1034:19
	movl	(%rbx), %r12d
.Ltmp123:
	.loc	0 1018 5                        # x264_src/encoder/encoder.c:1018:5
	testl	%r13d, %r13d
	je	.LBB0_60
.Ltmp124:
# %bb.47:                               # %for.body.preheader
	#DEBUG_VALUE: x264_encoder_open_96:param <- [DW_OP_LLVM_entry_value 1] $rdi
	#DEBUG_VALUE: x264_encoder_open_96:h <- $rbx
	#DEBUG_VALUE: x264_encoder_open_96:i_slicetype_length <- $ebp
	#DEBUG_VALUE: x264_encoder_open_96:p <- $rcx
	#DEBUG_VALUE: i <- 0
	#DEBUG_VALUE: x264_encoder_open_96:p <- $rcx
	#DEBUG_VALUE: i <- 0
	.loc	0 0 5 is_stmt 0                 # x264_src/encoder/encoder.c:0:5
	movq	%rcx, 16(%rsp)                  # 8-byte Spill
.Ltmp125:
	#DEBUG_VALUE: x264_encoder_open_96:p <- [DW_OP_plus_uconst 16, DW_OP_deref] $rsp
	.loc	0 1020 14 is_stmt 1             # x264_src/encoder/encoder.c:1020:14
	movq	x264_cpu_names@GOTPCREL(%rip), %r15
	movl	$.L.str.3, %esi
	movq	%r15, %rdi
	callq	strcmp@PLT
.Ltmp126:
	testl	%eax, %eax
	setne	%al
	testl	$384, %r12d                     # imm = 0x180
	sete	%cl
	.loc	0 1021 13                       # x264_src/encoder/encoder.c:1021:13
	orb	%al, %cl
	cmpb	$1, %cl
	jne	.LBB0_51
.Ltmp127:
# %bb.48:                               # %if.end440.peel
	#DEBUG_VALUE: x264_encoder_open_96:param <- [DW_OP_LLVM_entry_value 1] $rdi
	#DEBUG_VALUE: x264_encoder_open_96:h <- $rbx
	#DEBUG_VALUE: x264_encoder_open_96:i_slicetype_length <- $ebp
	#DEBUG_VALUE: x264_encoder_open_96:p <- [DW_OP_plus_uconst 16, DW_OP_deref] $rsp
	#DEBUG_VALUE: i <- 0
	.loc	0 1023 14                       # x264_src/encoder/encoder.c:1023:14
	movq	x264_cpu_names@GOTPCREL(%rip), %rdi
	movl	$.L.str.4, %esi
	callq	strcmp@PLT
.Ltmp128:
	testl	%eax, %eax
	setne	%al
	movl	%r12d, %ecx
	andl	$1026, %ecx                     # imm = 0x402
	cmpl	$2, %ecx
	sete	%cl
	.loc	0 1024 13                       # x264_src/encoder/encoder.c:1024:13
	orb	%al, %cl
	cmpb	$1, %cl
	jne	.LBB0_51
.Ltmp129:
# %bb.49:                               # %if.end458.peel
	#DEBUG_VALUE: x264_encoder_open_96:param <- [DW_OP_LLVM_entry_value 1] $rdi
	#DEBUG_VALUE: x264_encoder_open_96:h <- $rbx
	#DEBUG_VALUE: x264_encoder_open_96:i_slicetype_length <- $ebp
	#DEBUG_VALUE: x264_encoder_open_96:p <- [DW_OP_plus_uconst 16, DW_OP_deref] $rsp
	#DEBUG_VALUE: i <- 0
	.loc	0 1026 14                       # x264_src/encoder/encoder.c:1026:14
	movq	x264_cpu_names@GOTPCREL(%rip), %rdi
	movl	$.L.str.5, %esi
	callq	strcmp@PLT
.Ltmp130:
	testl	%eax, %eax
	setne	%al
	testl	$16384, %r12d                   # imm = 0x4000
	sete	%cl
	.loc	0 1027 13                       # x264_src/encoder/encoder.c:1027:13
	orb	%al, %cl
	notl	%r12d
	testl	%r12d, %r13d
	sete	%al
	andb	%cl, %al
	cmpb	$1, %al
	jne	.LBB0_51
.Ltmp131:
# %bb.50:                               # %if.then495.peel
	#DEBUG_VALUE: x264_encoder_open_96:param <- [DW_OP_LLVM_entry_value 1] $rdi
	#DEBUG_VALUE: x264_encoder_open_96:h <- $rbx
	#DEBUG_VALUE: x264_encoder_open_96:i_slicetype_length <- $ebp
	#DEBUG_VALUE: x264_encoder_open_96:p <- [DW_OP_plus_uconst 16, DW_OP_deref] $rsp
	#DEBUG_VALUE: i <- 0
	.loc	0 1032 18                       # x264_src/encoder/encoder.c:1032:18
	movq	x264_cpu_names@GOTPCREL(%rip), %rdx
	movl	$.L.str.6, %esi
	leaq	55(%rsp), %r14
	movq	%r14, %rdi
	xorl	%eax, %eax
	callq	sprintf@PLT
.Ltmp132:
	.loc	0 1032 15 is_stmt 0             # x264_src/encoder/encoder.c:1032:15
	cltq
	addq	%rax, %r14
.Ltmp133:
	#DEBUG_VALUE: x264_encoder_open_96:p <- $r14
	.loc	0 0 15                          # x264_src/encoder/encoder.c:0:15
	movq	%r14, 16(%rsp)                  # 8-byte Spill
.Ltmp134:
	#DEBUG_VALUE: x264_encoder_open_96:p <- [DW_OP_plus_uconst 16, DW_OP_deref] $rsp
.LBB0_51:                               # %for.inc.peel
	#DEBUG_VALUE: x264_encoder_open_96:param <- [DW_OP_LLVM_entry_value 1] $rdi
	#DEBUG_VALUE: x264_encoder_open_96:h <- $rbx
	#DEBUG_VALUE: x264_encoder_open_96:i_slicetype_length <- $ebp
	#DEBUG_VALUE: x264_encoder_open_96:p <- [DW_OP_plus_uconst 16, DW_OP_deref] $rsp
	#DEBUG_VALUE: i <- 0
	#DEBUG_VALUE: x264_encoder_open_96:p <- [DW_OP_plus_uconst 16, DW_OP_deref] $rsp
	#DEBUG_VALUE: i <- 1
	.loc	0 1018 39 is_stmt 1             # x264_src/encoder/encoder.c:1018:39
	movl	36(%r15), %r13d
.Ltmp135:
	.loc	0 1018 5 is_stmt 0              # x264_src/encoder/encoder.c:1018:5
	testl	%r13d, %r13d
	je	.LBB0_59
.Ltmp136:
# %bb.52:                               # %for.body.preheader4
	#DEBUG_VALUE: x264_encoder_open_96:param <- [DW_OP_LLVM_entry_value 1] $rdi
	#DEBUG_VALUE: x264_encoder_open_96:h <- $rbx
	#DEBUG_VALUE: x264_encoder_open_96:i_slicetype_length <- $ebp
	#DEBUG_VALUE: x264_encoder_open_96:p <- [DW_OP_plus_uconst 16, DW_OP_deref] $rsp
	#DEBUG_VALUE: i <- 1
	.loc	0 0 5                           # x264_src/encoder/encoder.c:0:5
	addq	$56, %r15
	jmp	.LBB0_53
.Ltmp137:
	.p2align	4, 0x90
.LBB0_58:                               # %for.inc
                                        #   in Loop: Header=BB0_53 Depth=1
	#DEBUG_VALUE: x264_encoder_open_96:param <- [DW_OP_LLVM_entry_value 1] $rdi
	#DEBUG_VALUE: x264_encoder_open_96:h <- $rbx
	#DEBUG_VALUE: x264_encoder_open_96:i_slicetype_length <- $ebp
	#DEBUG_VALUE: x264_encoder_open_96:p <- [DW_OP_plus_uconst 16, DW_OP_deref] $rsp
	#DEBUG_VALUE: i <- [DW_OP_LLVM_arg 0, DW_OP_consts 56, DW_OP_LLVM_arg 0, DW_OP_plus, DW_OP_minus, DW_OP_consts 20, DW_OP_div, DW_OP_consts 2, DW_OP_plus, DW_OP_stack_value] undef
	#DEBUG_VALUE: x264_encoder_open_96:p <- [DW_OP_plus_uconst 16, DW_OP_deref] $rsp
	.loc	0 1018 39                       # x264_src/encoder/encoder.c:1018:39
	movl	(%r15), %r13d
.Ltmp138:
	.loc	0 1018 5                        # x264_src/encoder/encoder.c:1018:5
	addq	$20, %r15
	testl	%r13d, %r13d
	je	.LBB0_59
.Ltmp139:
.LBB0_53:                               # %for.body
                                        # =>This Inner Loop Header: Depth=1
	#DEBUG_VALUE: x264_encoder_open_96:param <- [DW_OP_LLVM_entry_value 1] $rdi
	#DEBUG_VALUE: x264_encoder_open_96:h <- $rbx
	#DEBUG_VALUE: x264_encoder_open_96:i_slicetype_length <- $ebp
	#DEBUG_VALUE: x264_encoder_open_96:p <- [DW_OP_plus_uconst 16, DW_OP_deref] $rsp
	#DEBUG_VALUE: i <- [DW_OP_LLVM_arg 0, DW_OP_consts 56, DW_OP_LLVM_arg 0, DW_OP_plus, DW_OP_minus, DW_OP_consts 20, DW_OP_div, DW_OP_consts 1, DW_OP_plus, DW_OP_stack_value] undef
	#DEBUG_VALUE: x264_encoder_open_96:p <- [DW_OP_plus_uconst 16, DW_OP_deref] $rsp
	.loc	0 1020 14 is_stmt 1             # x264_src/encoder/encoder.c:1020:14
	leaq	-36(%r15), %r12
	movl	$.L.str.3, %esi
	movq	%r12, %rdi
	callq	strcmp@PLT
.Ltmp140:
	testl	%eax, %eax
	setne	%al
.Ltmp141:
	.loc	0 1029 29                       # x264_src/encoder/encoder.c:1029:29
	movl	(%rbx), %r14d
	testl	$384, %r14d                     # imm = 0x180
	sete	%cl
.Ltmp142:
	.loc	0 1021 13                       # x264_src/encoder/encoder.c:1021:13
	orb	%al, %cl
	cmpb	$1, %cl
	jne	.LBB0_58
.Ltmp143:
# %bb.54:                               # %if.end440
                                        #   in Loop: Header=BB0_53 Depth=1
	#DEBUG_VALUE: x264_encoder_open_96:param <- [DW_OP_LLVM_entry_value 1] $rdi
	#DEBUG_VALUE: x264_encoder_open_96:h <- $rbx
	#DEBUG_VALUE: x264_encoder_open_96:i_slicetype_length <- $ebp
	#DEBUG_VALUE: x264_encoder_open_96:p <- [DW_OP_plus_uconst 16, DW_OP_deref] $rsp
	.loc	0 1023 14                       # x264_src/encoder/encoder.c:1023:14
	movl	$.L.str.4, %esi
	movq	%r12, %rdi
	callq	strcmp@PLT
.Ltmp144:
	testl	%eax, %eax
	setne	%al
	movl	%r14d, %ecx
	andl	$1026, %ecx                     # imm = 0x402
	cmpl	$2, %ecx
	sete	%cl
	.loc	0 1024 13                       # x264_src/encoder/encoder.c:1024:13
	orb	%al, %cl
	cmpb	$1, %cl
	jne	.LBB0_58
.Ltmp145:
# %bb.55:                               # %if.end458
                                        #   in Loop: Header=BB0_53 Depth=1
	#DEBUG_VALUE: x264_encoder_open_96:param <- [DW_OP_LLVM_entry_value 1] $rdi
	#DEBUG_VALUE: x264_encoder_open_96:h <- $rbx
	#DEBUG_VALUE: x264_encoder_open_96:i_slicetype_length <- $ebp
	#DEBUG_VALUE: x264_encoder_open_96:p <- [DW_OP_plus_uconst 16, DW_OP_deref] $rsp
	.loc	0 1026 14                       # x264_src/encoder/encoder.c:1026:14
	movl	$.L.str.5, %esi
	movq	%r12, %rdi
	callq	strcmp@PLT
.Ltmp146:
	testl	%eax, %eax
	setne	%al
	testl	$16384, %r14d                   # imm = 0x4000
	sete	%cl
	.loc	0 1027 13                       # x264_src/encoder/encoder.c:1027:13
	orb	%al, %cl
	notl	%r14d
	testl	%r14d, %r13d
	sete	%al
	andb	%cl, %al
	cmpb	$1, %al
	jne	.LBB0_58
.Ltmp147:
# %bb.56:                               # %lor.lhs.false485
                                        #   in Loop: Header=BB0_53 Depth=1
	#DEBUG_VALUE: x264_encoder_open_96:param <- [DW_OP_LLVM_entry_value 1] $rdi
	#DEBUG_VALUE: x264_encoder_open_96:h <- $rbx
	#DEBUG_VALUE: x264_encoder_open_96:i_slicetype_length <- $ebp
	#DEBUG_VALUE: x264_encoder_open_96:p <- [DW_OP_plus_uconst 16, DW_OP_deref] $rsp
	.loc	0 1031 43                       # x264_src/encoder/encoder.c:1031:43
	cmpl	-40(%r15), %r13d
	je	.LBB0_58
.Ltmp148:
# %bb.57:                               # %if.then495
                                        #   in Loop: Header=BB0_53 Depth=1
	#DEBUG_VALUE: x264_encoder_open_96:param <- [DW_OP_LLVM_entry_value 1] $rdi
	#DEBUG_VALUE: x264_encoder_open_96:h <- $rbx
	#DEBUG_VALUE: x264_encoder_open_96:i_slicetype_length <- $ebp
	#DEBUG_VALUE: x264_encoder_open_96:p <- [DW_OP_plus_uconst 16, DW_OP_deref] $rsp
	.loc	0 1032 18                       # x264_src/encoder/encoder.c:1032:18
	movl	$.L.str.6, %esi
	movq	16(%rsp), %r14                  # 8-byte Reload
	movq	%r14, %rdi
	movq	%r12, %rdx
	xorl	%eax, %eax
	callq	sprintf@PLT
.Ltmp149:
	.loc	0 1032 15 is_stmt 0             # x264_src/encoder/encoder.c:1032:15
	cltq
	addq	%rax, %r14
.Ltmp150:
	#DEBUG_VALUE: x264_encoder_open_96:p <- $r14
	.loc	0 0 15                          # x264_src/encoder/encoder.c:0:15
	movq	%r14, 16(%rsp)                  # 8-byte Spill
.Ltmp151:
	#DEBUG_VALUE: x264_encoder_open_96:p <- [DW_OP_plus_uconst 16, DW_OP_deref] $rsp
	jmp	.LBB0_58
.Ltmp152:
.LBB0_59:                               # %for.cond.cleanup.loopexit
	#DEBUG_VALUE: x264_encoder_open_96:param <- [DW_OP_LLVM_entry_value 1] $rdi
	#DEBUG_VALUE: x264_encoder_open_96:h <- $rbx
	#DEBUG_VALUE: x264_encoder_open_96:i_slicetype_length <- $ebp
	#DEBUG_VALUE: x264_encoder_open_96:p <- [DW_OP_plus_uconst 16, DW_OP_deref] $rsp
	.loc	0 1034 19 is_stmt 1             # x264_src/encoder/encoder.c:1034:19
	movl	(%rbx), %r12d
	movq	16(%rsp), %rcx                  # 8-byte Reload
.Ltmp153:
.LBB0_60:                               # %for.cond.cleanup
	#DEBUG_VALUE: x264_encoder_open_96:param <- [DW_OP_LLVM_entry_value 1] $rdi
	#DEBUG_VALUE: x264_encoder_open_96:h <- $rbx
	#DEBUG_VALUE: x264_encoder_open_96:i_slicetype_length <- $ebp
	#DEBUG_VALUE: x264_encoder_open_96:p <- $rcx
	.loc	0 1034 10 is_stmt 0             # x264_src/encoder/encoder.c:1034:10
	testl	%r12d, %r12d
.Ltmp154:
	.loc	0 1034 9                        # x264_src/encoder/encoder.c:1034:9
	jne	.LBB0_62
.Ltmp155:
# %bb.61:                               # %if.then507
	#DEBUG_VALUE: x264_encoder_open_96:param <- [DW_OP_LLVM_entry_value 1] $rdi
	#DEBUG_VALUE: x264_encoder_open_96:h <- $rbx
	#DEBUG_VALUE: x264_encoder_open_96:i_slicetype_length <- $ebp
	#DEBUG_VALUE: x264_encoder_open_96:p <- $rcx
	.loc	0 1035 14 is_stmt 1             # x264_src/encoder/encoder.c:1035:14
	movl	$2188654, 3(%rcx)               # imm = 0x21656E
	movl	$1852796448, (%rcx)             # imm = 0x6E6F6E20
.Ltmp156:
	#DEBUG_VALUE: x264_encoder_open_96:p <- undef
.LBB0_62:                               # %if.end511
	#DEBUG_VALUE: x264_encoder_open_96:param <- [DW_OP_LLVM_entry_value 1] $rdi
	#DEBUG_VALUE: x264_encoder_open_96:h <- $rbx
	#DEBUG_VALUE: x264_encoder_open_96:i_slicetype_length <- $ebp
	.loc	0 0 14 is_stmt 0                # x264_src/encoder/encoder.c:0:14
	leaq	32(%rsp), %rcx
	.loc	0 1036 5 is_stmt 1              # x264_src/encoder/encoder.c:1036:5
	movl	$.L.str.8, %edx
	movq	%rbx, %rdi
	movl	$2, %esi
	xorl	%eax, %eax
	callq	x264_log@PLT
.Ltmp157:
	.loc	0 1038 27                       # x264_src/encoder/encoder.c:1038:27
	movl	496(%rbx), %r14d
.Ltmp158:
	#DEBUG_VALUE: x264_encoder_open_96:qp <- $r14d
	.loc	0 1038 40 is_stmt 0             # x264_src/encoder/encoder.c:1038:40
	cmpl	500(%rbx), %r14d
.Ltmp159:
	.loc	0 1038 5                        # x264_src/encoder/encoder.c:1038:5
	jg	.LBB0_63
.Ltmp160:
.LBB0_68:                               # %for.body520
                                        # =>This Inner Loop Header: Depth=1
	#DEBUG_VALUE: x264_encoder_open_96:param <- [DW_OP_LLVM_entry_value 1] $rdi
	#DEBUG_VALUE: x264_encoder_open_96:h <- $rbx
	#DEBUG_VALUE: x264_encoder_open_96:i_slicetype_length <- $ebp
	#DEBUG_VALUE: x264_encoder_open_96:qp <- $r14d
	#DEBUG_VALUE: x264_encoder_open_96:qp <- $r14d
	.loc	0 1039 13 is_stmt 1             # x264_src/encoder/encoder.c:1039:13
	movq	%rbx, %rdi
	movl	%r14d, %esi
	callq	x264_analyse_init_costs@PLT
.Ltmp161:
	testl	%eax, %eax
.Ltmp162:
	#DEBUG_VALUE: x264_encoder_open_96:qp <- [DW_OP_plus_uconst 1, DW_OP_stack_value] $r14d
	.loc	0 1039 13 is_stmt 0             # x264_src/encoder/encoder.c:1039:13
	jne	.LBB0_69
.Ltmp163:
# %bb.67:                               # %for.cond515
                                        #   in Loop: Header=BB0_68 Depth=1
	#DEBUG_VALUE: x264_encoder_open_96:param <- [DW_OP_LLVM_entry_value 1] $rdi
	#DEBUG_VALUE: x264_encoder_open_96:h <- $rbx
	#DEBUG_VALUE: x264_encoder_open_96:i_slicetype_length <- $ebp
	#DEBUG_VALUE: x264_encoder_open_96:qp <- [DW_OP_plus_uconst 1, DW_OP_stack_value] $r14d
	.loc	0 1038 67 is_stmt 1             # x264_src/encoder/encoder.c:1038:67
	leal	1(%r14), %eax
.Ltmp164:
	#DEBUG_VALUE: x264_encoder_open_96:qp <- $eax
	.loc	0 1038 40 is_stmt 0             # x264_src/encoder/encoder.c:1038:40
	cmpl	500(%rbx), %r14d
	movl	%eax, %r14d
.Ltmp165:
	#DEBUG_VALUE: x264_encoder_open_96:qp <- $r14d
	.loc	0 1038 5                        # x264_src/encoder/encoder.c:1038:5
	jl	.LBB0_68
.Ltmp166:
.LBB0_63:                               # %for.end527
	#DEBUG_VALUE: x264_encoder_open_96:param <- [DW_OP_LLVM_entry_value 1] $rdi
	#DEBUG_VALUE: x264_encoder_open_96:h <- $rbx
	#DEBUG_VALUE: x264_encoder_open_96:i_slicetype_length <- $ebp
	#DEBUG_VALUE: x264_encoder_open_96:qp <- $r14d
	.loc	0 1041 9 is_stmt 1              # x264_src/encoder/encoder.c:1041:9
	movq	%rbx, %rdi
	movl	$12, %esi
	callq	x264_analyse_init_costs@PLT
.Ltmp167:
	testl	%eax, %eax
.Ltmp168:
	.loc	0 1041 9 is_stmt 0              # x264_src/encoder/encoder.c:1041:9
	jne	.LBB0_69
.Ltmp169:
# %bb.64:                               # %if.end531
	#DEBUG_VALUE: x264_encoder_open_96:param <- [DW_OP_LLVM_entry_value 1] $rdi
	#DEBUG_VALUE: x264_encoder_open_96:h <- $rbx
	#DEBUG_VALUE: x264_encoder_open_96:i_slicetype_length <- $ebp
	#DEBUG_VALUE: x264_encoder_open_96:qp <- $r14d
	.loc	0 1045 9 is_stmt 1              # x264_src/encoder/encoder.c:1045:9
	movq	3544(%rbx), %rax
	.loc	0 1045 29 is_stmt 0             # x264_src/encoder/encoder.c:1045:29
	cmpw	$24, 4026(%rax)
.Ltmp170:
	.loc	0 1045 9                        # x264_src/encoder/encoder.c:1045:9
	jne	.LBB0_65
.Ltmp171:
# %bb.70:                               # %if.end538
	#DEBUG_VALUE: x264_encoder_open_96:param <- [DW_OP_LLVM_entry_value 1] $rdi
	#DEBUG_VALUE: x264_encoder_open_96:h <- $rbx
	#DEBUG_VALUE: x264_encoder_open_96:i_slicetype_length <- $ebp
	#DEBUG_VALUE: x264_encoder_open_96:qp <- $r14d
	.loc	0 1052 18 is_stmt 1             # x264_src/encoder/encoder.c:1052:18
	movl	$392, 28(%rsp)                  # imm = 0x188
	movl	$-256, %eax
.Ltmp172:
	.loc	0 1053 26                       # x264_src/encoder/encoder.c:1053:26
	andl	28(%rsp), %eax
	cmpl	$256, %eax                      # imm = 0x100
.Ltmp173:
	.loc	0 1053 9 is_stmt 0              # x264_src/encoder/encoder.c:1053:9
	jne	.LBB0_71
.Ltmp174:
# %bb.72:                               # %if.end542
	#DEBUG_VALUE: x264_encoder_open_96:param <- [DW_OP_LLVM_entry_value 1] $rdi
	#DEBUG_VALUE: x264_encoder_open_96:h <- $rbx
	#DEBUG_VALUE: x264_encoder_open_96:i_slicetype_length <- $ebp
	#DEBUG_VALUE: x264_encoder_open_96:qp <- $r14d
	.loc	0 1063 18 is_stmt 1             # x264_src/encoder/encoder.c:1063:18
	movl	$0, 1760(%rbx)
	.loc	0 1064 26                       # x264_src/encoder/encoder.c:1064:26
	movl	20(%rbx), %eax
	imull	24(%rbx), %eax
	shll	$2, %eax
	xorps	%xmm0, %xmm0
	cvtsi2sd	%eax, %xmm0
	movsd	%xmm0, 16(%rsp)                 # 8-byte Spill
	cmpl	$2, 488(%rbx)
	jne	.LBB0_74
.Ltmp175:
# %bb.73:                               # %cond.true553
	#DEBUG_VALUE: x264_encoder_open_96:param <- [DW_OP_LLVM_entry_value 1] $rdi
	#DEBUG_VALUE: x264_encoder_open_96:h <- $rbx
	#DEBUG_VALUE: x264_encoder_open_96:i_slicetype_length <- $ebp
	#DEBUG_VALUE: x264_encoder_open_96:qp <- $r14d
	cvtsi2sdl	496(%rbx), %xmm1
	movsd	.LCPI0_1(%rip), %xmm0           # xmm0 = [9.4999999999999996E-1,0.0E+0]
	callq	pow@PLT
.Ltmp176:
	jmp	.LBB0_75
.Ltmp177:
.LBB0_65:                               # %if.then537
	#DEBUG_VALUE: x264_encoder_open_96:param <- [DW_OP_LLVM_entry_value 1] $rdi
	#DEBUG_VALUE: x264_encoder_open_96:h <- $rbx
	#DEBUG_VALUE: x264_encoder_open_96:i_slicetype_length <- $ebp
	#DEBUG_VALUE: x264_encoder_open_96:qp <- $r14d
	.loc	0 1047 9                        # x264_src/encoder/encoder.c:1047:9
	movl	$.L.str.9, %edx
	jmp	.LBB0_66
.Ltmp178:
.LBB0_71:                               # %if.then541
	#DEBUG_VALUE: x264_encoder_open_96:param <- [DW_OP_LLVM_entry_value 1] $rdi
	#DEBUG_VALUE: x264_encoder_open_96:h <- $rbx
	#DEBUG_VALUE: x264_encoder_open_96:i_slicetype_length <- $ebp
	#DEBUG_VALUE: x264_encoder_open_96:qp <- $r14d
	.loc	0 1055 9                        # x264_src/encoder/encoder.c:1055:9
	movl	$.L.str.10, %edx
	movq	%rbx, %rdi
	xorl	%esi, %esi
	xorl	%eax, %eax
	callq	x264_log@PLT
.Ltmp179:
	.loc	0 1057 9                        # x264_src/encoder/encoder.c:1057:9
	movl	$.L.str.11, %edx
	movq	%rbx, %rdi
	xorl	%esi, %esi
	xorl	%eax, %eax
	callq	x264_log@PLT
.Ltmp180:
	.loc	0 1058 9                        # x264_src/encoder/encoder.c:1058:9
	movl	$.L.str.12, %edx
.Ltmp181:
.LBB0_66:                               # %fail
	#DEBUG_VALUE: x264_encoder_open_96:param <- [DW_OP_LLVM_entry_value 1] $rdi
	#DEBUG_VALUE: x264_encoder_open_96:h <- $rbx
	#DEBUG_VALUE: x264_encoder_open_96:i_slicetype_length <- $ebp
	#DEBUG_VALUE: x264_encoder_open_96:qp <- $r14d
	.loc	0 0 0 is_stmt 0                 # x264_src/encoder/encoder.c:0:0
	movq	%rbx, %rdi
	xorl	%esi, %esi
	xorl	%eax, %eax
	callq	x264_log@PLT
.Ltmp182:
	.loc	0 1048 9 is_stmt 1              # x264_src/encoder/encoder.c:1048:9
	jmp	.LBB0_69
.Ltmp183:
.LBB0_74:                               # %cond.false559
	#DEBUG_VALUE: x264_encoder_open_96:param <- [DW_OP_LLVM_entry_value 1] $rdi
	#DEBUG_VALUE: x264_encoder_open_96:h <- $rbx
	#DEBUG_VALUE: x264_encoder_open_96:i_slicetype_length <- $ebp
	#DEBUG_VALUE: x264_encoder_open_96:qp <- $r14d
	.loc	0 1064 26                       # x264_src/encoder/encoder.c:1064:26
	cvtsi2sdl	492(%rbx), %xmm1
	movsd	.LCPI0_1(%rip), %xmm0           # xmm0 = [9.4999999999999996E-1,0.0E+0]
	callq	pow@PLT
.Ltmp184:
	movapd	%xmm0, %xmm1
	movss	.LCPI0_2(%rip), %xmm0           # xmm0 = [1.0E+0,0.0E+0,0.0E+0,0.0E+0]
	maxss	536(%rbx), %xmm0
	cvtss2sd	%xmm0, %xmm0
	mulsd	%xmm1, %xmm0
.Ltmp185:
.LBB0_75:                               # %cond.end577
	#DEBUG_VALUE: x264_encoder_open_96:param <- [DW_OP_LLVM_entry_value 1] $rdi
	#DEBUG_VALUE: x264_encoder_open_96:h <- $rbx
	#DEBUG_VALUE: x264_encoder_open_96:i_slicetype_length <- $ebp
	#DEBUG_VALUE: x264_encoder_open_96:qp <- $r14d
	mulsd	16(%rsp), %xmm0                 # 8-byte Folded Reload
	movl	$1000000, %eax                  # imm = 0xF4240
	movsd	.LCPI0_3(%rip), %xmm1           # xmm1 = [1.0E+6,0.0E+0]
	ucomisd	%xmm0, %xmm1
	ja	.LBB0_80
.Ltmp186:
# %bb.76:                               # %cond.false583
	#DEBUG_VALUE: x264_encoder_open_96:param <- [DW_OP_LLVM_entry_value 1] $rdi
	#DEBUG_VALUE: x264_encoder_open_96:h <- $rbx
	#DEBUG_VALUE: x264_encoder_open_96:i_slicetype_length <- $ebp
	#DEBUG_VALUE: x264_encoder_open_96:qp <- $r14d
	movl	20(%rbx), %eax
	imull	24(%rbx), %eax
	shll	$2, %eax
	xorps	%xmm0, %xmm0
	cvtsi2sd	%eax, %xmm0
	movsd	%xmm0, 16(%rsp)                 # 8-byte Spill
	cmpl	$2, 488(%rbx)
	jne	.LBB0_78
.Ltmp187:
# %bb.77:                               # %cond.true596
	#DEBUG_VALUE: x264_encoder_open_96:param <- [DW_OP_LLVM_entry_value 1] $rdi
	#DEBUG_VALUE: x264_encoder_open_96:h <- $rbx
	#DEBUG_VALUE: x264_encoder_open_96:i_slicetype_length <- $ebp
	#DEBUG_VALUE: x264_encoder_open_96:qp <- $r14d
	xorps	%xmm1, %xmm1
	cvtsi2sdl	496(%rbx), %xmm1
	movsd	.LCPI0_1(%rip), %xmm0           # xmm0 = [9.4999999999999996E-1,0.0E+0]
	callq	pow@PLT
.Ltmp188:
	jmp	.LBB0_79
.Ltmp189:
.LBB0_78:                               # %cond.false602
	#DEBUG_VALUE: x264_encoder_open_96:param <- [DW_OP_LLVM_entry_value 1] $rdi
	#DEBUG_VALUE: x264_encoder_open_96:h <- $rbx
	#DEBUG_VALUE: x264_encoder_open_96:i_slicetype_length <- $ebp
	#DEBUG_VALUE: x264_encoder_open_96:qp <- $r14d
	xorps	%xmm1, %xmm1
	cvtsi2sdl	492(%rbx), %xmm1
	movsd	.LCPI0_1(%rip), %xmm0           # xmm0 = [9.4999999999999996E-1,0.0E+0]
	callq	pow@PLT
.Ltmp190:
	movapd	%xmm0, %xmm1
	movss	.LCPI0_2(%rip), %xmm0           # xmm0 = [1.0E+0,0.0E+0,0.0E+0,0.0E+0]
	maxss	536(%rbx), %xmm0
	cvtss2sd	%xmm0, %xmm0
	mulsd	%xmm1, %xmm0
.Ltmp191:
.LBB0_79:                               # %cond.end622
	#DEBUG_VALUE: x264_encoder_open_96:param <- [DW_OP_LLVM_entry_value 1] $rdi
	#DEBUG_VALUE: x264_encoder_open_96:h <- $rbx
	#DEBUG_VALUE: x264_encoder_open_96:i_slicetype_length <- $ebp
	#DEBUG_VALUE: x264_encoder_open_96:qp <- $r14d
	mulsd	16(%rsp), %xmm0                 # 8-byte Folded Reload
	cvttsd2si	%xmm0, %eax
.Ltmp192:
.LBB0_80:                               # %cond.end625
	#DEBUG_VALUE: x264_encoder_open_96:param <- [DW_OP_LLVM_entry_value 1] $rdi
	#DEBUG_VALUE: x264_encoder_open_96:h <- $rbx
	#DEBUG_VALUE: x264_encoder_open_96:i_slicetype_length <- $ebp
	#DEBUG_VALUE: x264_encoder_open_96:qp <- $r14d
	.loc	0 1064 24 is_stmt 0             # x264_src/encoder/encoder.c:1064:24
	movl	%eax, 1776(%rbx)
.Ltmp193:
	.loc	0 1068 5 is_stmt 1              # x264_src/encoder/encoder.c:1068:5
	leal	(%rax,%rax,2), %eax
	movl	%eax, %edi
	shrl	$31, %edi
	addl	%eax, %edi
	sarl	%edi
	addl	$4, %edi
	callq	x264_malloc@PLT
.Ltmp194:
	movq	%rax, 1832(%rbx)
.Ltmp195:
	.loc	0 1068 5 is_stmt 0              # x264_src/encoder/encoder.c:1068:5
	testq	%rax, %rax
.Ltmp196:
	.loc	0 1068 5                        # x264_src/encoder/encoder.c:1068:5
	je	.LBB0_69
.Ltmp197:
# %bb.81:                               # %do.end640
	#DEBUG_VALUE: x264_encoder_open_96:param <- [DW_OP_LLVM_entry_value 1] $rdi
	#DEBUG_VALUE: x264_encoder_open_96:h <- $rbx
	#DEBUG_VALUE: x264_encoder_open_96:i_slicetype_length <- $ebp
	#DEBUG_VALUE: x264_encoder_open_96:qp <- $r14d
	.loc	0 1069 33 is_stmt 1             # x264_src/encoder/encoder.c:1069:33
	movl	1776(%rbx), %eax
	.loc	0 1069 45 is_stmt 0             # x264_src/encoder/encoder.c:1069:45
	leal	(%rax,%rax,2), %eax
	.loc	0 1069 48                       # x264_src/encoder/encoder.c:1069:48
	movl	%eax, %ecx
	shrl	$31, %ecx
	addl	%eax, %ecx
	sarl	%ecx
	.loc	0 1069 51                       # x264_src/encoder/encoder.c:1069:51
	addl	$4, %ecx
	.loc	0 1069 24                       # x264_src/encoder/encoder.c:1069:24
	movl	%ecx, 1840(%rbx)
	.loc	0 1071 18 is_stmt 1             # x264_src/encoder/encoder.c:1071:18
	movq	%rbx, 704(%rbx)
.Ltmp198:
	#DEBUG_VALUE: i <- 1
	.loc	0 1072 44                       # x264_src/encoder/encoder.c:1072:44
	cmpl	$1, 16(%rbx)
	.loc	0 1072 34 is_stmt 0             # x264_src/encoder/encoder.c:1072:34
	movl	4(%rbx), %eax
	.loc	0 1072 44                       # x264_src/encoder/encoder.c:1072:44
	sbbl	$-1, %eax
	.loc	0 1072 23                       # x264_src/encoder/encoder.c:1072:23
	cmpl	$2, %eax
.Ltmp199:
	.loc	0 1072 5                        # x264_src/encoder/encoder.c:1072:5
	jl	.LBB0_85
.Ltmp200:
# %bb.82:                               # %do.body662.preheader
	#DEBUG_VALUE: x264_encoder_open_96:param <- [DW_OP_LLVM_entry_value 1] $rdi
	#DEBUG_VALUE: x264_encoder_open_96:h <- $rbx
	#DEBUG_VALUE: x264_encoder_open_96:i_slicetype_length <- $ebp
	#DEBUG_VALUE: x264_encoder_open_96:qp <- $r14d
	#DEBUG_VALUE: i <- 1
	.loc	0 0 5                           # x264_src/encoder/encoder.c:0:5
	movl	$89, %r14d
.Ltmp201:
.LBB0_84:                               # %do.body662
                                        # =>This Inner Loop Header: Depth=1
	#DEBUG_VALUE: x264_encoder_open_96:param <- [DW_OP_LLVM_entry_value 1] $rdi
	#DEBUG_VALUE: x264_encoder_open_96:h <- $rbx
	#DEBUG_VALUE: x264_encoder_open_96:i_slicetype_length <- $ebp
	#DEBUG_VALUE: i <- [DW_OP_constu 88, DW_OP_minus, DW_OP_stack_value] $r14
	.loc	0 1073 9 is_stmt 1              # x264_src/encoder/encoder.c:1073:9
	movl	$33344, %edi                    # imm = 0x8240
	callq	x264_malloc@PLT
.Ltmp202:
	movq	%rax, (%rbx,%r14,8)
.Ltmp203:
	.loc	0 1073 9 is_stmt 0              # x264_src/encoder/encoder.c:1073:9
	testq	%rax, %rax
.Ltmp204:
	#DEBUG_VALUE: i <- [DW_OP_plus_uconst 1, DW_OP_stack_value] $r14
	.loc	0 1073 9                        # x264_src/encoder/encoder.c:1073:9
	je	.LBB0_69
.Ltmp205:
# %bb.83:                               # %for.cond648
                                        #   in Loop: Header=BB0_84 Depth=1
	#DEBUG_VALUE: x264_encoder_open_96:param <- [DW_OP_LLVM_entry_value 1] $rdi
	#DEBUG_VALUE: x264_encoder_open_96:h <- $rbx
	#DEBUG_VALUE: x264_encoder_open_96:i_slicetype_length <- $ebp
	#DEBUG_VALUE: i <- [DW_OP_plus_uconst 1, DW_OP_stack_value] $r14
	#DEBUG_VALUE: i <- [DW_OP_constu 87, DW_OP_minus, DW_OP_stack_value] $r14
	.loc	0 1072 34 is_stmt 1             # x264_src/encoder/encoder.c:1072:34
	movslq	4(%rbx), %rax
	.loc	0 1072 44 is_stmt 0             # x264_src/encoder/encoder.c:1072:44
	cmpl	$1, 16(%rbx)
	sbbq	$-1, %rax
	.loc	0 1072 23                       # x264_src/encoder/encoder.c:1072:23
	leaq	1(%r14), %rcx
	addq	$-87, %r14
.Ltmp206:
	cmpq	%rax, %r14
	movq	%rcx, %r14
.Ltmp207:
	.loc	0 1072 5                        # x264_src/encoder/encoder.c:1072:5
	jl	.LBB0_84
.Ltmp208:
.LBB0_85:                               # %for.end677
	#DEBUG_VALUE: x264_encoder_open_96:param <- [DW_OP_LLVM_entry_value 1] $rdi
	#DEBUG_VALUE: x264_encoder_open_96:h <- $rbx
	#DEBUG_VALUE: x264_encoder_open_96:i_slicetype_length <- $ebp
	.loc	0 1075 9 is_stmt 1              # x264_src/encoder/encoder.c:1075:9
	movq	%rbx, %rdi
	movl	%ebp, %esi
	callq	x264_lookahead_init@PLT
.Ltmp209:
	testl	%eax, %eax
.Ltmp210:
	.loc	0 1075 9 is_stmt 0              # x264_src/encoder/encoder.c:1075:9
	jne	.LBB0_69
.Ltmp211:
# %bb.86:                               # %for.cond683.preheader
	#DEBUG_VALUE: x264_encoder_open_96:param <- [DW_OP_LLVM_entry_value 1] $rdi
	#DEBUG_VALUE: x264_encoder_open_96:h <- $rbx
	#DEBUG_VALUE: x264_encoder_open_96:i_slicetype_length <- $ebp
	#DEBUG_VALUE: i <- 0
	.loc	0 1078 23 is_stmt 1             # x264_src/encoder/encoder.c:1078:23
	cmpl	$0, 4(%rbx)
.Ltmp212:
	.loc	0 1078 5 is_stmt 0              # x264_src/encoder/encoder.c:1078:5
	jle	.LBB0_105
.Ltmp213:
# %bb.87:                               # %if.then707.peel
	#DEBUG_VALUE: x264_encoder_open_96:param <- [DW_OP_LLVM_entry_value 1] $rdi
	#DEBUG_VALUE: x264_encoder_open_96:h <- $rbx
	#DEBUG_VALUE: x264_encoder_open_96:i_slicetype_length <- $ebp
	#DEBUG_VALUE: i <- 0
	#DEBUG_VALUE: i <- 0
	.loc	0 1080 39 is_stmt 1             # x264_src/encoder/encoder.c:1080:39
	movl	692(%rbx), %r14d
.Ltmp214:
	#DEBUG_VALUE: init_nal_count <- undef
	#DEBUG_VALUE: allocate_threadlocal_data <- [DW_OP_stack_value] 1
	.loc	0 1087 34                       # x264_src/encoder/encoder.c:1087:34
	movq	%rbx, %rdi
	movl	$1, %esi
	callq	x264_frame_pop_unused@PLT
.Ltmp215:
	.loc	0 1087 13 is_stmt 0             # x264_src/encoder/encoder.c:1087:13
	movq	704(%rbx), %rcx
	.loc	0 1087 32                       # x264_src/encoder/encoder.c:1087:32
	movq	%rax, 14688(%rcx)
.Ltmp216:
	.loc	0 1088 18 is_stmt 1             # x264_src/encoder/encoder.c:1088:18
	movq	704(%rbx), %rax
	cmpq	$0, 14688(%rax)
.Ltmp217:
	.loc	0 1088 17 is_stmt 0             # x264_src/encoder/encoder.c:1088:17
	je	.LBB0_69
.Ltmp218:
# %bb.88:                               # %do.body728.peel
	#DEBUG_VALUE: x264_encoder_open_96:param <- [DW_OP_LLVM_entry_value 1] $rdi
	#DEBUG_VALUE: x264_encoder_open_96:h <- $rbx
	#DEBUG_VALUE: x264_encoder_open_96:i_slicetype_length <- $ebp
	#DEBUG_VALUE: i <- 0
	#DEBUG_VALUE: allocate_threadlocal_data <- [DW_OP_stack_value] 1
	.loc	0 1094 9 is_stmt 1              # x264_src/encoder/encoder.c:1094:9
	movl	1776(%rbx), %edi
	callq	x264_malloc@PLT
.Ltmp219:
	movq	704(%rbx), %rcx
	movq	%rax, 1784(%rcx)
.Ltmp220:
	.loc	0 1094 9 is_stmt 0              # x264_src/encoder/encoder.c:1094:9
	movq	704(%rbx), %rax
	cmpq	$0, 1784(%rax)
.Ltmp221:
	.loc	0 1094 9                        # x264_src/encoder/encoder.c:1094:9
	je	.LBB0_69
.Ltmp222:
# %bb.89:                               # %do.body746.peel
	#DEBUG_VALUE: x264_encoder_open_96:param <- [DW_OP_LLVM_entry_value 1] $rdi
	#DEBUG_VALUE: x264_encoder_open_96:h <- $rbx
	#DEBUG_VALUE: x264_encoder_open_96:i_slicetype_length <- $ebp
	#DEBUG_VALUE: i <- 0
	#DEBUG_VALUE: allocate_threadlocal_data <- [DW_OP_stack_value] 1
	.loc	0 0 0                           # x264_src/encoder/encoder.c:0:0
	addl	$3, %r14d
.Ltmp223:
	#DEBUG_VALUE: init_nal_count <- $r14d
	.loc	0 1096 9 is_stmt 1              # x264_src/encoder/encoder.c:1096:9
	leal	(,%r14,8), %eax
	leal	(%rax,%rax,2), %edi
	callq	x264_malloc@PLT
.Ltmp224:
	movq	704(%rbx), %rcx
	movq	%rax, 1768(%rcx)
.Ltmp225:
	.loc	0 1096 9 is_stmt 0              # x264_src/encoder/encoder.c:1096:9
	movq	704(%rbx), %rax
	cmpq	$0, 1768(%rax)
.Ltmp226:
	.loc	0 1096 9                        # x264_src/encoder/encoder.c:1096:9
	je	.LBB0_69
.Ltmp227:
# %bb.90:                               # %land.lhs.true770.peel
	#DEBUG_VALUE: x264_encoder_open_96:param <- [DW_OP_LLVM_entry_value 1] $rdi
	#DEBUG_VALUE: x264_encoder_open_96:h <- $rbx
	#DEBUG_VALUE: x264_encoder_open_96:i_slicetype_length <- $ebp
	#DEBUG_VALUE: i <- 0
	#DEBUG_VALUE: init_nal_count <- $r14d
	#DEBUG_VALUE: allocate_threadlocal_data <- [DW_OP_stack_value] 1
	.loc	0 1097 44 is_stmt 1             # x264_src/encoder/encoder.c:1097:44
	movl	%r14d, 1764(%rax)
.Ltmp228:
	.loc	0 1099 74                       # x264_src/encoder/encoder.c:1099:74
	movq	704(%rbx), %rdi
	.loc	0 1099 42 is_stmt 0             # x264_src/encoder/encoder.c:1099:42
	callq	x264_macroblock_cache_allocate@PLT
.Ltmp229:
	.loc	0 1099 89                       # x264_src/encoder/encoder.c:1099:89
	testl	%eax, %eax
.Ltmp230:
	.loc	0 1099 13                       # x264_src/encoder/encoder.c:1099:13
	js	.LBB0_69
.Ltmp231:
# %bb.91:                               # %for.inc782.peel
	#DEBUG_VALUE: x264_encoder_open_96:param <- [DW_OP_LLVM_entry_value 1] $rdi
	#DEBUG_VALUE: x264_encoder_open_96:h <- $rbx
	#DEBUG_VALUE: x264_encoder_open_96:i_slicetype_length <- $ebp
	#DEBUG_VALUE: i <- 0
	#DEBUG_VALUE: i <- 1
	.loc	0 1078 34 is_stmt 1             # x264_src/encoder/encoder.c:1078:34
	movl	4(%rbx), %eax
	.loc	0 1078 23 is_stmt 0             # x264_src/encoder/encoder.c:1078:23
	cmpl	$2, %eax
.Ltmp232:
	.loc	0 1078 5                        # x264_src/encoder/encoder.c:1078:5
	jl	.LBB0_95
.Ltmp233:
# %bb.92:                               # %if.end705.preheader
	#DEBUG_VALUE: x264_encoder_open_96:param <- [DW_OP_LLVM_entry_value 1] $rdi
	#DEBUG_VALUE: x264_encoder_open_96:h <- $rbx
	#DEBUG_VALUE: x264_encoder_open_96:i_slicetype_length <- $ebp
	#DEBUG_VALUE: i <- 1
	.loc	0 0 5                           # x264_src/encoder/encoder.c:0:5
	movl	$89, %r14d
	jmp	.LBB0_93
.Ltmp234:
.LBB0_102:                              # %for.inc782
                                        #   in Loop: Header=BB0_93 Depth=1
	#DEBUG_VALUE: x264_encoder_open_96:param <- [DW_OP_LLVM_entry_value 1] $rdi
	#DEBUG_VALUE: x264_encoder_open_96:h <- $rbx
	#DEBUG_VALUE: i <- [DW_OP_constu 88, DW_OP_minus, DW_OP_stack_value] $r14
	#DEBUG_VALUE: i <- [DW_OP_constu 87, DW_OP_minus, DW_OP_stack_value] $r14
	.loc	0 1078 34                       # x264_src/encoder/encoder.c:1078:34
	movslq	4(%rbx), %rax
	.loc	0 1078 23                       # x264_src/encoder/encoder.c:1078:23
	leaq	1(%r14), %rcx
	addq	$-87, %r14
.Ltmp235:
	cmpq	%rax, %r14
	movq	%rcx, %r14
.Ltmp236:
	.loc	0 1078 5                        # x264_src/encoder/encoder.c:1078:5
	jge	.LBB0_95
.Ltmp237:
.LBB0_93:                               # %if.end705
                                        # =>This Inner Loop Header: Depth=1
	#DEBUG_VALUE: x264_encoder_open_96:param <- [DW_OP_LLVM_entry_value 1] $rdi
	#DEBUG_VALUE: x264_encoder_open_96:h <- $rbx
	#DEBUG_VALUE: i <- [DW_OP_constu 88, DW_OP_minus, DW_OP_stack_value] $r14
	.loc	0 1080 39 is_stmt 1             # x264_src/encoder/encoder.c:1080:39
	movl	692(%rbx), %r15d
.Ltmp238:
	#DEBUG_VALUE: init_nal_count <- undef
	.loc	0 1081 51                       # x264_src/encoder/encoder.c:1081:51
	movl	8(%rbx), %ebp
.Ltmp239:
	#DEBUG_VALUE: allocate_threadlocal_data <- undef
	.loc	0 1083 14                       # x264_src/encoder/encoder.c:1083:14
	movq	(%rbx,%r14,8), %rdi
	.loc	0 1083 29 is_stmt 0             # x264_src/encoder/encoder.c:1083:29
	movl	$33344, %edx                    # imm = 0x8240
	movq	%rbx, %rsi
	callq	memcpy@PLT
.Ltmp240:
	.loc	0 1081 42 is_stmt 1             # x264_src/encoder/encoder.c:1081:42
	testl	%ebp, %ebp
	.loc	0 1085 13                       # x264_src/encoder/encoder.c:1085:13
	je	.LBB0_94
.Ltmp241:
# %bb.97:                               # %if.else719
                                        #   in Loop: Header=BB0_93 Depth=1
	#DEBUG_VALUE: x264_encoder_open_96:param <- [DW_OP_LLVM_entry_value 1] $rdi
	#DEBUG_VALUE: x264_encoder_open_96:h <- $rbx
	#DEBUG_VALUE: i <- [DW_OP_constu 88, DW_OP_minus, DW_OP_stack_value] $r14
	.loc	0 1092 34                       # x264_src/encoder/encoder.c:1092:34
	movq	704(%rbx), %rax
	.loc	0 1092 48 is_stmt 0             # x264_src/encoder/encoder.c:1092:48
	movq	14688(%rax), %rax
	.loc	0 1092 13                       # x264_src/encoder/encoder.c:1092:13
	movq	(%rbx,%r14,8), %rcx
	.loc	0 1092 32                       # x264_src/encoder/encoder.c:1092:32
	movq	%rax, 14688(%rcx)
	jmp	.LBB0_98
.Ltmp242:
.LBB0_94:                               # %if.then707
                                        #   in Loop: Header=BB0_93 Depth=1
	#DEBUG_VALUE: x264_encoder_open_96:param <- [DW_OP_LLVM_entry_value 1] $rdi
	#DEBUG_VALUE: x264_encoder_open_96:h <- $rbx
	#DEBUG_VALUE: i <- [DW_OP_constu 88, DW_OP_minus, DW_OP_stack_value] $r14
	.loc	0 1087 34 is_stmt 1             # x264_src/encoder/encoder.c:1087:34
	movq	%rbx, %rdi
	movl	$1, %esi
	callq	x264_frame_pop_unused@PLT
.Ltmp243:
	.loc	0 1087 13 is_stmt 0             # x264_src/encoder/encoder.c:1087:13
	movq	(%rbx,%r14,8), %rcx
	.loc	0 1087 32                       # x264_src/encoder/encoder.c:1087:32
	movq	%rax, 14688(%rcx)
.Ltmp244:
	.loc	0 1088 18 is_stmt 1             # x264_src/encoder/encoder.c:1088:18
	movq	(%rbx,%r14,8), %rax
	cmpq	$0, 14688(%rax)
.Ltmp245:
	.loc	0 1088 17 is_stmt 0             # x264_src/encoder/encoder.c:1088:17
	je	.LBB0_69
.Ltmp246:
.LBB0_98:                               # %do.body728
                                        #   in Loop: Header=BB0_93 Depth=1
	#DEBUG_VALUE: x264_encoder_open_96:param <- [DW_OP_LLVM_entry_value 1] $rdi
	#DEBUG_VALUE: x264_encoder_open_96:h <- $rbx
	#DEBUG_VALUE: i <- [DW_OP_constu 88, DW_OP_minus, DW_OP_stack_value] $r14
	.loc	0 1094 9 is_stmt 1              # x264_src/encoder/encoder.c:1094:9
	movl	1776(%rbx), %edi
	callq	x264_malloc@PLT
.Ltmp247:
	movq	(%rbx,%r14,8), %rcx
	movq	%rax, 1784(%rcx)
.Ltmp248:
	.loc	0 1094 9 is_stmt 0              # x264_src/encoder/encoder.c:1094:9
	movq	(%rbx,%r14,8), %rax
	cmpq	$0, 1784(%rax)
.Ltmp249:
	.loc	0 1094 9                        # x264_src/encoder/encoder.c:1094:9
	je	.LBB0_69
.Ltmp250:
# %bb.99:                               # %do.body746
                                        #   in Loop: Header=BB0_93 Depth=1
	#DEBUG_VALUE: x264_encoder_open_96:param <- [DW_OP_LLVM_entry_value 1] $rdi
	#DEBUG_VALUE: x264_encoder_open_96:h <- $rbx
	#DEBUG_VALUE: i <- [DW_OP_constu 88, DW_OP_minus, DW_OP_stack_value] $r14
	.loc	0 0 0                           # x264_src/encoder/encoder.c:0:0
	addl	$3, %r15d
.Ltmp251:
	#DEBUG_VALUE: init_nal_count <- $r15d
	.loc	0 1096 9 is_stmt 1              # x264_src/encoder/encoder.c:1096:9
	leal	(,%r15,8), %eax
	leal	(%rax,%rax,2), %edi
	callq	x264_malloc@PLT
.Ltmp252:
	movq	(%rbx,%r14,8), %rcx
	movq	%rax, 1768(%rcx)
.Ltmp253:
	.loc	0 1096 9 is_stmt 0              # x264_src/encoder/encoder.c:1096:9
	movq	(%rbx,%r14,8), %rax
	cmpq	$0, 1768(%rax)
.Ltmp254:
	.loc	0 1096 9                        # x264_src/encoder/encoder.c:1096:9
	je	.LBB0_69
.Ltmp255:
# %bb.100:                              # %do.end764
                                        #   in Loop: Header=BB0_93 Depth=1
	#DEBUG_VALUE: x264_encoder_open_96:param <- [DW_OP_LLVM_entry_value 1] $rdi
	#DEBUG_VALUE: x264_encoder_open_96:h <- $rbx
	#DEBUG_VALUE: i <- [DW_OP_constu 88, DW_OP_minus, DW_OP_stack_value] $r14
	#DEBUG_VALUE: init_nal_count <- $r15d
	.loc	0 1097 44 is_stmt 1             # x264_src/encoder/encoder.c:1097:44
	movl	%r15d, 1764(%rax)
	.loc	0 1081 42                       # x264_src/encoder/encoder.c:1081:42
	testl	%ebp, %ebp
.Ltmp256:
	.loc	0 1099 39                       # x264_src/encoder/encoder.c:1099:39
	jne	.LBB0_102
.Ltmp257:
# %bb.101:                              # %land.lhs.true770
                                        #   in Loop: Header=BB0_93 Depth=1
	#DEBUG_VALUE: x264_encoder_open_96:param <- [DW_OP_LLVM_entry_value 1] $rdi
	#DEBUG_VALUE: x264_encoder_open_96:h <- $rbx
	#DEBUG_VALUE: i <- [DW_OP_constu 88, DW_OP_minus, DW_OP_stack_value] $r14
	#DEBUG_VALUE: init_nal_count <- $r15d
	.loc	0 1099 74 is_stmt 0             # x264_src/encoder/encoder.c:1099:74
	movq	(%rbx,%r14,8), %rdi
	.loc	0 1099 42                       # x264_src/encoder/encoder.c:1099:42
	callq	x264_macroblock_cache_allocate@PLT
.Ltmp258:
	.loc	0 1099 89                       # x264_src/encoder/encoder.c:1099:89
	testl	%eax, %eax
	jns	.LBB0_102
	jmp	.LBB0_69
.Ltmp259:
.LBB0_95:                               # %for.cond788.preheader
	#DEBUG_VALUE: x264_encoder_open_96:param <- [DW_OP_LLVM_entry_value 1] $rdi
	#DEBUG_VALUE: x264_encoder_open_96:h <- $rbx
	.loc	0 1103 23 is_stmt 1             # x264_src/encoder/encoder.c:1103:23
	testl	%eax, %eax
.Ltmp260:
	#DEBUG_VALUE: i <- 0
	.loc	0 1103 5 is_stmt 0              # x264_src/encoder/encoder.c:1103:5
	jle	.LBB0_105
.Ltmp261:
# %bb.96:                               # %for.body794.preheader
	#DEBUG_VALUE: x264_encoder_open_96:param <- [DW_OP_LLVM_entry_value 1] $rdi
	#DEBUG_VALUE: x264_encoder_open_96:h <- $rbx
	#DEBUG_VALUE: i <- 0
	.loc	0 0 5                           # x264_src/encoder/encoder.c:0:5
	xorl	%r14d, %r14d
.Ltmp262:
.LBB0_104:                              # %for.body794
                                        # =>This Inner Loop Header: Depth=1
	#DEBUG_VALUE: x264_encoder_open_96:param <- [DW_OP_LLVM_entry_value 1] $rdi
	#DEBUG_VALUE: x264_encoder_open_96:h <- $rbx
	#DEBUG_VALUE: i <- $r14
	.loc	0 1104 46 is_stmt 1             # x264_src/encoder/encoder.c:1104:46
	movq	704(%rbx,%r14,8), %rdi
	.loc	0 1104 13 is_stmt 0             # x264_src/encoder/encoder.c:1104:13
	xorl	%esi, %esi
	callq	x264_macroblock_thread_allocate@PLT
.Ltmp263:
	.loc	0 1104 64                       # x264_src/encoder/encoder.c:1104:64
	testl	%eax, %eax
.Ltmp264:
	#DEBUG_VALUE: i <- [DW_OP_plus_uconst 1, DW_OP_stack_value] $r14
	.loc	0 1104 13                       # x264_src/encoder/encoder.c:1104:13
	js	.LBB0_69
.Ltmp265:
# %bb.103:                              # %for.cond788
                                        #   in Loop: Header=BB0_104 Depth=1
	#DEBUG_VALUE: x264_encoder_open_96:param <- [DW_OP_LLVM_entry_value 1] $rdi
	#DEBUG_VALUE: x264_encoder_open_96:h <- $rbx
	#DEBUG_VALUE: i <- [DW_OP_plus_uconst 1, DW_OP_stack_value] $r14
	.loc	0 1103 46 is_stmt 1             # x264_src/encoder/encoder.c:1103:46
	incq	%r14
.Ltmp266:
	#DEBUG_VALUE: i <- $r14
	.loc	0 1103 34 is_stmt 0             # x264_src/encoder/encoder.c:1103:34
	movslq	4(%rbx), %rax
	.loc	0 1103 23                       # x264_src/encoder/encoder.c:1103:23
	cmpq	%rax, %r14
.Ltmp267:
	.loc	0 1103 5                        # x264_src/encoder/encoder.c:1103:5
	jl	.LBB0_104
.Ltmp268:
.LBB0_105:                              # %for.end807
	#DEBUG_VALUE: x264_encoder_open_96:param <- [DW_OP_LLVM_entry_value 1] $rdi
	#DEBUG_VALUE: x264_encoder_open_96:h <- $rbx
	.loc	0 1107 9 is_stmt 1              # x264_src/encoder/encoder.c:1107:9
	movq	%rbx, %rdi
	callq	x264_ratecontrol_new@PLT
.Ltmp269:
	.loc	0 1107 35 is_stmt 0             # x264_src/encoder/encoder.c:1107:35
	testl	%eax, %eax
.Ltmp270:
	.loc	0 1107 9                        # x264_src/encoder/encoder.c:1107:9
	js	.LBB0_69
.Ltmp271:
# %bb.106:                              # %if.end812
	#DEBUG_VALUE: x264_encoder_open_96:param <- [DW_OP_LLVM_entry_value 1] $rdi
	#DEBUG_VALUE: x264_encoder_open_96:h <- $rbx
	.loc	0 1110 9 is_stmt 1              # x264_src/encoder/encoder.c:1110:9
	cmpl	$0, 40(%rbx)
.Ltmp272:
	.loc	0 1110 9 is_stmt 0              # x264_src/encoder/encoder.c:1110:9
	je	.LBB0_108
.Ltmp273:
# %bb.107:                              # %if.then815
	#DEBUG_VALUE: x264_encoder_open_96:param <- [DW_OP_LLVM_entry_value 1] $rdi
	#DEBUG_VALUE: x264_encoder_open_96:h <- $rbx
	.loc	0 1112 71 is_stmt 1             # x264_src/encoder/encoder.c:1112:71
	movq	3200(%rbx), %rax
	.loc	0 1112 84 is_stmt 0             # x264_src/encoder/encoder.c:1112:84
	movl	1232(%rax), %ecx
	.loc	0 1112 9                        # x264_src/encoder/encoder.c:1112:9
	movl	$.L.str.13, %edx
	movq	%rbx, %rdi
	movl	$3, %esi
	xorl	%eax, %eax
	callq	x264_log@PLT
.Ltmp274:
	.loc	0 1113 64 is_stmt 1             # x264_src/encoder/encoder.c:1113:64
	movq	3200(%rbx), %rax
	.loc	0 1113 77 is_stmt 0             # x264_src/encoder/encoder.c:1113:77
	movl	1236(%rax), %ecx
	.loc	0 1113 9                        # x264_src/encoder/encoder.c:1113:9
	movl	$.L.str.14, %edx
	movq	%rbx, %rdi
	movl	$3, %esi
	xorl	%eax, %eax
	callq	x264_log@PLT
.Ltmp275:
.LBB0_108:                              # %if.end821
	#DEBUG_VALUE: x264_encoder_open_96:param <- [DW_OP_LLVM_entry_value 1] $rdi
	#DEBUG_VALUE: x264_encoder_open_96:h <- $rbx
	.loc	0 1116 18 is_stmt 1             # x264_src/encoder/encoder.c:1116:18
	movq	376(%rbx), %rdi
	.loc	0 1116 9 is_stmt 0              # x264_src/encoder/encoder.c:1116:9
	testq	%rdi, %rdi
.Ltmp276:
	.loc	0 1116 9                        # x264_src/encoder/encoder.c:1116:9
	je	.LBB0_111
.Ltmp277:
# %bb.109:                              # %if.then824
	#DEBUG_VALUE: x264_encoder_open_96:param <- [DW_OP_LLVM_entry_value 1] $rdi
	#DEBUG_VALUE: x264_encoder_open_96:h <- $rbx
	.loc	0 1119 19 is_stmt 1             # x264_src/encoder/encoder.c:1119:19
	movl	$.L.str.15, %esi
	callq	fopen@PLT
.Ltmp278:
	#DEBUG_VALUE: f <- $rax
	.loc	0 1120 14                       # x264_src/encoder/encoder.c:1120:14
	testq	%rax, %rax
.Ltmp279:
	.loc	0 1120 13 is_stmt 0             # x264_src/encoder/encoder.c:1120:13
	je	.LBB0_118
.Ltmp280:
# %bb.110:                              # %cleanup841.thread
	#DEBUG_VALUE: x264_encoder_open_96:param <- [DW_OP_LLVM_entry_value 1] $rdi
	#DEBUG_VALUE: x264_encoder_open_96:h <- $rbx
	#DEBUG_VALUE: f <- $rax
	.loc	0 1130 9 is_stmt 1              # x264_src/encoder/encoder.c:1130:9
	movq	%rax, %rdi
	callq	fclose@PLT
.Ltmp281:
.LBB0_111:                              # %if.end844
	#DEBUG_VALUE: x264_encoder_open_96:param <- [DW_OP_LLVM_entry_value 1] $rdi
	#DEBUG_VALUE: x264_encoder_open_96:h <- $rbx
	.loc	0 1134 12                       # x264_src/encoder/encoder.c:1134:12
	movq	3200(%rbx), %rax
	.loc	0 1134 17 is_stmt 0             # x264_src/encoder/encoder.c:1134:17
	movl	4(%rax), %ecx
	.loc	0 1134 9                        # x264_src/encoder/encoder.c:1134:9
	cmpl	$66, %ecx
	je	.LBB0_112
.Ltmp282:
# %bb.113:                              # %if.end844
	#DEBUG_VALUE: x264_encoder_open_96:param <- [DW_OP_LLVM_entry_value 1] $rdi
	#DEBUG_VALUE: x264_encoder_open_96:h <- $rbx
	cmpl	$77, %ecx
	jne	.LBB0_114
.Ltmp283:
# %bb.115:                              # %cond.end863.fold.split
	#DEBUG_VALUE: x264_encoder_open_96:param <- [DW_OP_LLVM_entry_value 1] $rdi
	#DEBUG_VALUE: x264_encoder_open_96:h <- $rbx
	.loc	0 0 9                           # x264_src/encoder/encoder.c:0:9
	movl	$.L.str.20, %ecx
	jmp	.LBB0_116
.Ltmp284:
.LBB0_112:
	#DEBUG_VALUE: x264_encoder_open_96:param <- [DW_OP_LLVM_entry_value 1] $rdi
	#DEBUG_VALUE: x264_encoder_open_96:h <- $rbx
	movl	$.L.str.19, %ecx
	jmp	.LBB0_116
.Ltmp285:
.LBB0_114:                              # %cond.false855
	#DEBUG_VALUE: x264_encoder_open_96:param <- [DW_OP_LLVM_entry_value 1] $rdi
	#DEBUG_VALUE: x264_encoder_open_96:h <- $rbx
	.loc	0 1136 31 is_stmt 1             # x264_src/encoder/encoder.c:1136:31
	cmpl	$100, %ecx
	.loc	0 1136 9 is_stmt 0              # x264_src/encoder/encoder.c:1136:9
	movl	$.L.str.21, %edx
	movl	$.L.str.22, %ecx
	cmoveq	%rdx, %rcx
.Ltmp286:
.LBB0_116:                              # %cond.end863
	#DEBUG_VALUE: x264_encoder_open_96:param <- [DW_OP_LLVM_entry_value 1] $rdi
	#DEBUG_VALUE: x264_encoder_open_96:h <- $rbx
	.loc	0 1137 42 is_stmt 1             # x264_src/encoder/encoder.c:1137:42
	movslq	8(%rax), %r9
	.loc	0 1137 77 is_stmt 0             # x264_src/encoder/encoder.c:1137:77
	imulq	$1717986919, %r9, %r8           # imm = 0x66666667
	movq	%r8, %rax
	shrq	$63, %rax
	sarq	$34, %r8
	addl	%eax, %r8d
	leal	(%r8,%r8), %eax
	leal	(%rax,%rax,4), %eax
	subl	%eax, %r9d
	.loc	0 1133 5 is_stmt 1              # x264_src/encoder/encoder.c:1133:5
	movl	$.L.str.18, %edx
	movq	%rbx, %rdi
	movl	$2, %esi
                                        # kill: def $r8d killed $r8d killed $r8
                                        # kill: def $r9d killed $r9d killed $r9
	xorl	%eax, %eax
	callq	x264_log@PLT
.Ltmp287:
	.loc	0 0 5 is_stmt 0                 # x264_src/encoder/encoder.c:0:5
	jmp	.LBB0_117
.Ltmp288:
.LBB0_118:                              # %cleanup841
	#DEBUG_VALUE: x264_encoder_open_96:param <- [DW_OP_LLVM_entry_value 1] $rdi
	#DEBUG_VALUE: x264_encoder_open_96:h <- $rbx
	#DEBUG_VALUE: f <- $rax
	.loc	0 1122 84 is_stmt 1             # x264_src/encoder/encoder.c:1122:84
	movq	376(%rbx), %rcx
	.loc	0 1122 13 is_stmt 0             # x264_src/encoder/encoder.c:1122:13
	movl	$.L.str.16, %edx
	movq	%rbx, %rdi
	xorl	%esi, %esi
	jmp	.LBB0_16
.Ltmp289:
.Lfunc_end0:
	.size	x264_encoder_open_96, .Lfunc_end0-x264_encoder_open_96
	.cfi_endproc
	.file	12 "x264_src/common" "mc.h" md5 0x04d0fbb98b637fe4174e4cc20d723861
	.file	13 "x264_src/common" "cabac.h" md5 0x22d062fb0f207ca9dcf17e0003a54ffb
	.file	14 "x264_src/common" "frame.h" md5 0x4a274a9291201f03b4af1f57e6a86f6f
	.file	15 "/home/yjs/workspace" "GPUISel-llvm/build/lib/clang/19/include/__stddef_size_t.h" md5 0x2c44e821a2b1951cde2eb0fb2e656867
	.file	16 "x264_src/common" "dct.h" md5 0xd983c98245ed7221137d0c4902e9385f
	.file	17 "x264_src/common" "quant.h" md5 0xd1558a6947b2031223cf5868b45335f7
	.file	18 "x264_src/encoder" "set.h" md5 0xc5157994f90d08c22a1bca39dbc9140e
	.file	19 "x264_src/encoder" "macroblock.h" md5 0x18b1d8cf424109157590a0769f6470b5
	.file	20 "/usr/include" "string.h" md5 0xf443da8025a0b7c1498fb6c554ec788d
	.file	21 "/usr/include" "stdio.h" md5 0xf31eefcc3f15835fc5a4023a625cf609
	.file	22 "x264_src/encoder" "analyse.h" md5 0xbcc4e1839a8c83d6cd319084cb483d0b
	.file	23 "/usr/include/x86_64-linux-gnu/bits" "mathcalls.h" md5 0x8c6e2d0d2bda65bc5ba1ca02b65383b7
	.file	24 "x264_src/encoder" "ratecontrol.h" md5 0xea8157999cd85ff61f807951cc1cb1cd
	.file	25 "/usr/include/x86_64-linux-gnu/bits/types" "struct_FILE.h" md5 0x1bad07471b7974df4ecc1d1c2ca207e6
	.file	26 "/usr/include/x86_64-linux-gnu/bits/types" "FILE.h" md5 0x571f9fb6223c42439075fdde11a0de5d
                                        # -- End function
	.section	.rodata.cst4,"aM",@progbits,4
	.p2align	2, 0x0                          # -- Begin function x264_validate_parameters
.LCPI1_0:
	.long	0x3f000000                      # float 0.5
.LCPI1_4:
	.long	0x424c0000                      # float 51
.LCPI1_6:
	.long	0x3f800000                      # float 1
.LCPI1_9:
	.long	0x41c80000                      # float 25
.LCPI1_14:
	.long	0x3e800000                      # float 0.25
.LCPI1_17:
	.long	0x40400000                      # float 3
	.section	.rodata.cst16,"aM",@progbits,16
	.p2align	4, 0x0
.LCPI1_1:
	.quad	0xbff4000000000000              # double -1.25
	.quad	0xbff4000000000000              # double -1.25
.LCPI1_2:
	.quad	0x7fffffffffffffff              # double NaN
	.quad	0x7fffffffffffffff              # double NaN
.LCPI1_3:
	.quad	0x3f847ae147ae147b              # double 0.01
	.quad	0x3f847ae147ae147b              # double 0.01
.LCPI1_5:
	.long	0x3f800000                      # float 1
	.long	0x3f800000                      # float 1
	.zero	4
	.zero	4
.LCPI1_7:
	.long	0xc0c00000                      # float -6
	.long	0x40c00000                      # float 6
	.zero	4
	.zero	4
.LCPI1_10:
	.long	6                               # 0x6
	.long	6                               # 0x6
	.zero	4
	.zero	4
.LCPI1_11:
	.long	4294967290                      # 0xfffffffa
	.long	4294967290                      # 0xfffffffa
	.zero	4
	.zero	4
.LCPI1_12:
	.long	32                              # 0x20
	.long	32                              # 0x20
	.zero	4
	.zero	4
.LCPI1_13:
	.long	0x41200000                      # float 10
	.long	0x41200000                      # float 10
	.zero	4
	.zero	4
.LCPI1_15:
	.long	0x43800000                      # float 256
	.long	0x43800000                      # float 256
	.zero	4
	.zero	4
.LCPI1_16:
	.quad	0x3fe0000000000000              # double 0.5
	.quad	0x3fe0000000000000              # double 0.5
.LCPI1_18:
	.long	1                               # 0x1
	.long	1                               # 0x1
	.zero	4
	.zero	4
	.section	.rodata.cst8,"aM",@progbits,8
	.p2align	3, 0x0
.LCPI1_8:
	.quad	0x3feff7ced916872b              # double 0.99899999999999999
	.text
	.p2align	4, 0x90
	.type	x264_validate_parameters,@function
x264_validate_parameters:               # @x264_validate_parameters
.Lfunc_begin1:
	.loc	0 380 0 is_stmt 1               # x264_src/encoder/encoder.c:380:0
	.cfi_startproc
# %bb.0:                                # %entry
	#DEBUG_VALUE: x264_validate_parameters:h <- $rdi
	pushq	%rbp
	.cfi_def_cfa_offset 16
	pushq	%r15
	.cfi_def_cfa_offset 24
	pushq	%r14
	.cfi_def_cfa_offset 32
	pushq	%r12
	.cfi_def_cfa_offset 40
	pushq	%rbx
	.cfi_def_cfa_offset 48
	subq	$32, %rsp
	.cfi_def_cfa_offset 80
	.cfi_offset %rbx, -48
	.cfi_offset %r12, -40
	.cfi_offset %r14, -32
	.cfi_offset %r15, -24
	.cfi_offset %rbp, -16
	.loc	0 395 18 prologue_end           # x264_src/encoder/encoder.c:395:18
	movl	20(%rdi), %ecx
	.loc	0 0 0 is_stmt 0                 # x264_src/encoder/encoder.c:0:0
	movl	24(%rdi), %r8d
	.loc	0 395 26                        # x264_src/encoder/encoder.c:395:26
	testl	%ecx, %ecx
	setle	%al
	testl	%r8d, %r8d
	setle	%dl
	.loc	0 395 31                        # x264_src/encoder/encoder.c:395:31
	orb	%al, %dl
	cmpb	$1, %dl
	jne	.LBB1_2
.Ltmp290:
# %bb.1:                                # %if.then
	#DEBUG_VALUE: x264_validate_parameters:h <- $rdi
	.loc	0 397 9 is_stmt 1               # x264_src/encoder/encoder.c:397:9
	movl	$.L.str.50, %edx
	jmp	.LBB1_13
.Ltmp291:
.LBB1_2:                                # %if.end
	#DEBUG_VALUE: x264_validate_parameters:h <- $rdi
	.loc	0 402 30                        # x264_src/encoder/encoder.c:402:30
	movl	%r8d, %eax
	orl	%ecx, %eax
	testb	$1, %al
	jne	.LBB1_12
.Ltmp292:
# %bb.3:                                # %if.end19
	#DEBUG_VALUE: x264_validate_parameters:h <- $rdi
	.loc	0 408 26                        # x264_src/encoder/encoder.c:408:26
	movzbl	28(%rdi), %eax
	cmpl	$1, %eax
.Ltmp293:
	#DEBUG_VALUE: x264_validate_parameters:i_csp <- undef
	.loc	0 409 32                        # x264_src/encoder/encoder.c:409:32
	je	.LBB1_5
.Ltmp294:
# %bb.4:                                # %if.end19
	#DEBUG_VALUE: x264_validate_parameters:h <- $rdi
	cmpl	$4, %eax
	jne	.LBB1_24
.Ltmp295:
.LBB1_5:                                # %if.end25
	#DEBUG_VALUE: x264_validate_parameters:h <- $rdi
	.loc	0 415 18                        # x264_src/encoder/encoder.c:415:18
	movl	4(%rdi), %eax
	.loc	0 415 28 is_stmt 0              # x264_src/encoder/encoder.c:415:28
	testl	%eax, %eax
	movq	%rdi, %rbx
.Ltmp296:
	.loc	0 415 9                         # x264_src/encoder/encoder.c:415:9
	jne	.LBB1_7
.Ltmp297:
# %bb.6:                                # %if.then28
	#DEBUG_VALUE: x264_validate_parameters:h <- $rbx
	.loc	0 416 30 is_stmt 1              # x264_src/encoder/encoder.c:416:30
	callq	x264_cpu_num_processors@PLT
.Ltmp298:
	.loc	0 0 30 is_stmt 0                # x264_src/encoder/encoder.c:0:30
	movq	%rbx, %rdi
	xorl	%ecx, %ecx
	.loc	0 416 59                        # x264_src/encoder/encoder.c:416:59
	cmpl	$1, 8(%rbx)
	adcl	$2, %ecx
	.loc	0 416 56                        # x264_src/encoder/encoder.c:416:56
	imull	%eax, %ecx
	.loc	0 416 89                        # x264_src/encoder/encoder.c:416:89
	movl	%ecx, %eax
	shrl	$31, %eax
	addl	%ecx, %eax
	sarl	%eax
.Ltmp299:
.LBB1_7:                                # %if.end33
	#DEBUG_VALUE: x264_validate_parameters:h <- $rbx
	#DEBUG_VALUE: x264_clip3:v <- $eax
	#DEBUG_VALUE: x264_clip3:i_min <- 1
	#DEBUG_VALUE: x264_clip3:i_max <- 128
	.loc	5 202 14 is_stmt 1              # x264_src/common/common.h:202:14
	cmpl	$128, %eax
	movl	$128, %ecx
	cmovll	%eax, %ecx
	cmpl	$2, %ecx
	movl	$1, %ebp
	cmovll	%ebp, %ecx
.Ltmp300:
	.loc	0 417 24                        # x264_src/encoder/encoder.c:417:24
	movl	%ecx, 4(%rdi)
.Ltmp301:
	.loc	0 418 28                        # x264_src/encoder/encoder.c:418:28
	cmpl	$2, %eax
.Ltmp302:
	.loc	0 418 9 is_stmt 0               # x264_src/encoder/encoder.c:418:9
	jl	.LBB1_14
.Ltmp303:
# %bb.8:                                # %if.then42
	#DEBUG_VALUE: x264_validate_parameters:h <- $rbx
	.loc	0 421 9 is_stmt 1               # x264_src/encoder/encoder.c:421:9
	movl	$.L.str.53, %edx
	movq	%rbx, %rdi
	movl	$1, %esi
	xorl	%eax, %eax
	callq	x264_log@PLT
.Ltmp304:
	.loc	0 0 9 is_stmt 0                 # x264_src/encoder/encoder.c:0:9
	movq	%rbx, %rdi
	.loc	0 422 28 is_stmt 1              # x264_src/encoder/encoder.c:422:28
	movl	$1, 4(%rbx)
.Ltmp305:
	.loc	0 426 13                        # x264_src/encoder/encoder.c:426:13
	cmpl	$0, 8(%rbx)
.Ltmp306:
	.loc	0 426 13 is_stmt 0              # x264_src/encoder/encoder.c:426:13
	je	.LBB1_15
.Ltmp307:
# %bb.9:                                # %if.then48
	#DEBUG_VALUE: x264_validate_parameters:h <- $rbx
	.loc	0 428 41 is_stmt 1              # x264_src/encoder/encoder.c:428:41
	movl	24(%rdi), %eax
.Ltmp308:
	#DEBUG_VALUE: max_threads <- [DW_OP_plus_uconst 15, DW_OP_constu 64, DW_OP_div, DW_OP_stack_value] $eax
	.loc	0 0 41 is_stmt 0                # x264_src/encoder/encoder.c:0:41
	movl	$1, %ebp
	movl	$1, %ecx
	.loc	0 429 34 is_stmt 1              # x264_src/encoder/encoder.c:429:34
	cmpl	$112, %eax
	jg	.LBB1_11
.Ltmp309:
# %bb.10:                               # %cond.false
	#DEBUG_VALUE: x264_validate_parameters:h <- $rbx
	#DEBUG_VALUE: max_threads <- [DW_OP_plus_uconst 15, DW_OP_constu 64, DW_OP_div, DW_OP_stack_value] $eax
	.loc	0 428 49                        # x264_src/encoder/encoder.c:428:49
	leal	15(%rax), %ecx
.Ltmp310:
	#DEBUG_VALUE: max_threads <- [DW_OP_constu 64, DW_OP_div, DW_OP_stack_value] $ecx
	.loc	0 428 57 is_stmt 0              # x264_src/encoder/encoder.c:428:57
	addl	$78, %eax
	testl	%ecx, %ecx
	cmovnsl	%ecx, %eax
	sarl	$6, %eax
.Ltmp311:
	#DEBUG_VALUE: max_threads <- $eax
	.loc	0 0 57                          # x264_src/encoder/encoder.c:0:57
	movl	%eax, %ecx
.Ltmp312:
.LBB1_11:                               # %if.end64
	#DEBUG_VALUE: x264_validate_parameters:h <- $rbx
	.loc	0 429 32 is_stmt 1              # x264_src/encoder/encoder.c:429:32
	movl	%ecx, 4(%rdi)
	jmp	.LBB1_15
.Ltmp313:
.LBB1_12:                               # %if.then14
	#DEBUG_VALUE: x264_validate_parameters:h <- $rdi
	.loc	0 404 9                         # x264_src/encoder/encoder.c:404:9
	movl	$.L.str.51, %edx
.Ltmp314:
.LBB1_13:                               # %return
	#DEBUG_VALUE: x264_validate_parameters:h <- $rdi
	.loc	0 0 0 is_stmt 0                 # x264_src/encoder/encoder.c:0:0
	xorl	%esi, %esi
	xorl	%eax, %eax
	callq	x264_log@PLT
.Ltmp315:
	#DEBUG_VALUE: x264_validate_parameters:h <- [DW_OP_LLVM_entry_value 1] $rdi
	jmp	.LBB1_28
.Ltmp316:
.LBB1_14:                               # %if.else
	#DEBUG_VALUE: x264_validate_parameters:h <- $rbx
	.loc	0 433 35 is_stmt 1              # x264_src/encoder/encoder.c:433:35
	movl	$0, 8(%rdi)
	movl	%ecx, %ebp
.Ltmp317:
.LBB1_15:                               # %cond.end72
	#DEBUG_VALUE: x264_validate_parameters:h <- $rbx
	.loc	0 434 24                        # x264_src/encoder/encoder.c:434:24
	movl	%ebp, 1852(%rdi)
.Ltmp318:
	.loc	0 436 9                         # x264_src/encoder/encoder.c:436:9
	cmpl	$0, 136(%rdi)
.Ltmp319:
	.loc	0 436 9 is_stmt 0               # x264_src/encoder/encoder.c:436:9
	je	.LBB1_20
.Ltmp320:
# %bb.16:                               # %if.then76
	#DEBUG_VALUE: x264_validate_parameters:h <- $rbx
	.loc	0 438 42 is_stmt 1              # x264_src/encoder/encoder.c:438:42
	cmpl	$3, 412(%rdi)
.Ltmp321:
	.loc	0 438 13 is_stmt 0              # x264_src/encoder/encoder.c:438:13
	jl	.LBB1_18
.Ltmp322:
# %bb.17:                               # %if.then79
	#DEBUG_VALUE: x264_validate_parameters:h <- $rbx
	.loc	0 440 13 is_stmt 1              # x264_src/encoder/encoder.c:440:13
	movl	$.L.str.54, %edx
	movq	%rbx, %rdi
	movl	$1, %esi
	xorl	%eax, %eax
	callq	x264_log@PLT
.Ltmp323:
	.loc	0 0 13 is_stmt 0                # x264_src/encoder/encoder.c:0:13
	movq	%rbx, %rdi
	.loc	0 441 42 is_stmt 1              # x264_src/encoder/encoder.c:441:42
	movl	$2, 412(%rbx)
.Ltmp324:
.LBB1_18:                               # %if.end83
	#DEBUG_VALUE: x264_validate_parameters:h <- $rbx
	.loc	0 443 46                        # x264_src/encoder/encoder.c:443:46
	cmpl	$0, 396(%rdi)
.Ltmp325:
	.loc	0 443 13 is_stmt 0              # x264_src/encoder/encoder.c:443:13
	jle	.LBB1_20
.Ltmp326:
# %bb.19:                               # %if.then87
	#DEBUG_VALUE: x264_validate_parameters:h <- $rbx
	.loc	0 445 13 is_stmt 1              # x264_src/encoder/encoder.c:445:13
	movl	$.L.str.55, %edx
	movq	%rbx, %rdi
	movl	$1, %esi
	xorl	%eax, %eax
	callq	x264_log@PLT
.Ltmp327:
	.loc	0 0 13 is_stmt 0                # x264_src/encoder/encoder.c:0:13
	movq	%rbx, %rdi
	.loc	0 446 46 is_stmt 1              # x264_src/encoder/encoder.c:446:46
	movl	$0, 396(%rbx)
.Ltmp328:
.LBB1_20:                               # %if.end92
	#DEBUG_VALUE: x264_validate_parameters:h <- $rbx
	#DEBUG_VALUE: score <- 0
	#DEBUG_VALUE: score <- undef
	.loc	0 454 40                        # x264_src/encoder/encoder.c:454:40
	xorl	%eax, %eax
	cmpl	$3, 504(%rdi)
	sete	%al
	.loc	0 455 40                        # x264_src/encoder/encoder.c:455:40
	xorl	%esi, %esi
	cmpl	$12, 84(%rdi)
	sete	%sil
	.loc	0 454 15                        # x264_src/encoder/encoder.c:454:15
	cmpl	$1, 416(%rdi)
	adcl	%eax, %esi
.Ltmp329:
	#DEBUG_VALUE: score <- $esi
	.loc	0 456 30                        # x264_src/encoder/encoder.c:456:30
	movl	496(%rdi), %eax
	.loc	0 456 39 is_stmt 0              # x264_src/encoder/encoder.c:456:39
	xorl	%r8d, %r8d
	cmpl	$2, %eax
	sete	%r8b
.Ltmp330:
	#DEBUG_VALUE: score <- undef
	.loc	0 457 30 is_stmt 1              # x264_src/encoder/encoder.c:457:30
	movl	500(%rdi), %ecx
	.loc	0 457 39 is_stmt 0              # x264_src/encoder/encoder.c:457:39
	xorl	%edx, %edx
	cmpl	$31, %ecx
	sete	%dl
	.loc	0 456 15 is_stmt 1              # x264_src/encoder/encoder.c:456:15
	addl	%r8d, %edx
	.loc	0 457 15                        # x264_src/encoder/encoder.c:457:15
	addl	%esi, %edx
.Ltmp331:
	#DEBUG_VALUE: score <- $edx
	.loc	0 0 15 is_stmt 0                # x264_src/encoder/encoder.c:0:15
	movss	.LCPI1_0(%rip), %xmm0           # xmm0 = [5.0E-1,0.0E+0,0.0E+0,0.0E+0]
	.loc	0 458 42 is_stmt 1              # x264_src/encoder/encoder.c:458:42
	cmpeqss	592(%rdi), %xmm0
	movd	%xmm0, %esi
.Ltmp332:
	#DEBUG_VALUE: score <- undef
	.loc	0 459 35                        # x264_src/encoder/encoder.c:459:35
	movsd	536(%rdi), %xmm0                # xmm0 = mem[0],zero
	.loc	0 460 23                        # x264_src/encoder/encoder.c:460:23
	cvtps2pd	%xmm0, %xmm1
	.loc	0 460 47 is_stmt 0              # x264_src/encoder/encoder.c:460:47
	addpd	.LCPI1_1(%rip), %xmm1
	.loc	0 460 18                        # x264_src/encoder/encoder.c:460:18
	andpd	.LCPI1_2(%rip), %xmm1
	.loc	0 458 15 is_stmt 1              # x264_src/encoder/encoder.c:458:15
	subl	%esi, %edx
.Ltmp333:
	#DEBUG_VALUE: score <- $edx
	.loc	0 460 55                        # x264_src/encoder/encoder.c:460:55
	cmpltpd	.LCPI1_3(%rip), %xmm1
	movmskpd	%xmm1, %esi
	movl	%esi, %r8d
	shrb	%r8b
	.loc	0 459 55                        # x264_src/encoder/encoder.c:459:55
	andl	$1, %esi
	.loc	0 459 15 is_stmt 0              # x264_src/encoder/encoder.c:459:15
	addl	%edx, %esi
.Ltmp334:
	#DEBUG_VALUE: score <- $esi
	.loc	0 460 55 is_stmt 1              # x264_src/encoder/encoder.c:460:55
	movzbl	%r8b, %edx
	.loc	0 460 15 is_stmt 0              # x264_src/encoder/encoder.c:460:15
	addl	%esi, %edx
.Ltmp335:
	#DEBUG_VALUE: score <- $edx
	.loc	0 461 41 is_stmt 1              # x264_src/encoder/encoder.c:461:41
	cmpl	$0, 388(%rdi)
	.loc	0 461 46 is_stmt 0              # x264_src/encoder/encoder.c:461:46
	je	.LBB1_25
.Ltmp336:
# %bb.21:
	#DEBUG_VALUE: x264_validate_parameters:h <- $rbx
	#DEBUG_VALUE: score <- $edx
	.loc	0 0 46                          # x264_src/encoder/encoder.c:0:46
	xorl	%esi, %esi
	.loc	0 461 46                        # x264_src/encoder/encoder.c:461:46
	movzbl	%sil, %esi
	.loc	0 461 15                        # x264_src/encoder/encoder.c:461:15
	addl	%esi, %edx
.Ltmp337:
	#DEBUG_VALUE: score <- $edx
	.loc	0 462 19 is_stmt 1              # x264_src/encoder/encoder.c:462:19
	cmpl	$5, %edx
.Ltmp338:
	.loc	0 462 13 is_stmt 0              # x264_src/encoder/encoder.c:462:13
	jae	.LBB1_26
.Ltmp339:
.LBB1_22:                               # %cleanup.cont
	#DEBUG_VALUE: x264_validate_parameters:h <- $rbx
	.loc	0 470 21 is_stmt 1              # x264_src/encoder/encoder.c:470:21
	movl	488(%rdi), %esi
	.loc	0 470 37 is_stmt 0              # x264_src/encoder/encoder.c:470:37
	cmpl	$3, %esi
	jb	.LBB1_30
.Ltmp340:
# %bb.23:                               # %if.then157
	#DEBUG_VALUE: x264_validate_parameters:h <- $rbx
	.loc	0 472 9 is_stmt 1               # x264_src/encoder/encoder.c:472:9
	movl	$.L.str.58, %edx
	jmp	.LBB1_27
.Ltmp341:
.LBB1_24:                               # %if.then24
	#DEBUG_VALUE: x264_validate_parameters:h <- $rdi
	.loc	0 411 9                         # x264_src/encoder/encoder.c:411:9
	movl	$.L.str.52, %edx
.Ltmp342:
	.loc	0 472 9                         # x264_src/encoder/encoder.c:472:9
	jmp	.LBB1_27
.Ltmp343:
.LBB1_25:                               # %land.rhs
	#DEBUG_VALUE: x264_validate_parameters:h <- $rbx
	#DEBUG_VALUE: score <- $edx
	.loc	0 461 82                        # x264_src/encoder/encoder.c:461:82
	cmpl	$8, 428(%rdi)
	sete	%sil
	.loc	0 461 46 is_stmt 0              # x264_src/encoder/encoder.c:461:46
	movzbl	%sil, %esi
	.loc	0 461 15                        # x264_src/encoder/encoder.c:461:15
	addl	%esi, %edx
.Ltmp344:
	#DEBUG_VALUE: score <- undef
	.loc	0 462 19 is_stmt 1              # x264_src/encoder/encoder.c:462:19
	cmpl	$5, %edx
.Ltmp345:
	.loc	0 462 13 is_stmt 0              # x264_src/encoder/encoder.c:462:13
	jb	.LBB1_22
.Ltmp346:
.LBB1_26:                               # %if.then145
	#DEBUG_VALUE: x264_validate_parameters:h <- $rbx
	.loc	0 464 13 is_stmt 1              # x264_src/encoder/encoder.c:464:13
	movl	$.L.str.56, %edx
	movq	%rdi, %rbx
.Ltmp347:
	#DEBUG_VALUE: x264_validate_parameters:h <- [DW_OP_LLVM_entry_value 1] $rdi
	xorl	%esi, %esi
	xorl	%eax, %eax
	callq	x264_log@PLT
.Ltmp348:
	.loc	0 465 13                        # x264_src/encoder/encoder.c:465:13
	movl	$.L.str.57, %edx
	movq	%rbx, %rdi
.Ltmp349:
.LBB1_27:                               # %return
	#DEBUG_VALUE: x264_validate_parameters:h <- [DW_OP_LLVM_entry_value 1] $rdi
	.loc	0 0 0 is_stmt 0                 # x264_src/encoder/encoder.c:0:0
	xorl	%esi, %esi
	xorl	%eax, %eax
	callq	x264_log@PLT
.Ltmp350:
.LBB1_28:                               # %return
	#DEBUG_VALUE: x264_validate_parameters:h <- [DW_OP_LLVM_entry_value 1] $rdi
	movl	$-1, %eax
.Ltmp351:
.LBB1_29:                               # %return
	#DEBUG_VALUE: x264_validate_parameters:h <- [DW_OP_LLVM_entry_value 1] $rdi
	.loc	0 828 1 epilogue_begin is_stmt 1 # x264_src/encoder/encoder.c:828:1
	addq	$32, %rsp
	.cfi_def_cfa_offset 48
	popq	%rbx
	.cfi_def_cfa_offset 40
	popq	%r12
	.cfi_def_cfa_offset 32
	popq	%r14
	.cfi_def_cfa_offset 24
	popq	%r15
	.cfi_def_cfa_offset 16
	popq	%rbp
	.cfi_def_cfa_offset 8
	retq
.Ltmp352:
.LBB1_30:                               # %if.end158
	.cfi_def_cfa_offset 80
	#DEBUG_VALUE: x264_validate_parameters:h <- $rbx
	.loc	0 475 58                        # x264_src/encoder/encoder.c:475:58
	movss	512(%rdi), %xmm1                # xmm1 = mem[0],zero,zero,zero
	movss	.LCPI1_4(%rip), %xmm2           # xmm2 = [5.1E+1,0.0E+0,0.0E+0,0.0E+0]
.Ltmp353:
	#DEBUG_VALUE: x264_clip3f:v <- undef
	#DEBUG_VALUE: x264_clip3f:f_min <- 0.000000e+00
	#DEBUG_VALUE: x264_clip3f:f_max <- 5.100000e+01
	.loc	0 475 33 is_stmt 0              # x264_src/encoder/encoder.c:475:33
	minss	%xmm1, %xmm2
	xorps	%xmm3, %xmm3
	cmpltss	%xmm3, %xmm1
	andnps	%xmm2, %xmm1
	.loc	0 475 31                        # x264_src/encoder/encoder.c:475:31
	movss	%xmm1, 512(%rdi)
	.loc	0 476 57 is_stmt 1              # x264_src/encoder/encoder.c:476:57
	movl	492(%rdi), %edx
.Ltmp354:
	#DEBUG_VALUE: x264_clip3:v <- $edx
	#DEBUG_VALUE: x264_clip3:i_min <- 0
	#DEBUG_VALUE: x264_clip3:i_max <- 51
	.loc	5 202 14                        # x264_src/common/common.h:202:14
	cmpl	$51, %edx
	movl	$51, %ebp
	cmovgel	%ebp, %edx
.Ltmp355:
	.loc	5 0 14 is_stmt 0                # x264_src/common/common.h:0:14
	xorl	%r14d, %r14d
	.loc	5 202 14                        # x264_src/common/common.h:202:14
	testl	%edx, %edx
	cmovlel	%r14d, %edx
.Ltmp356:
	.loc	0 476 31 is_stmt 1              # x264_src/encoder/encoder.c:476:31
	movl	%edx, 492(%rdi)
	.loc	0 477 9                         # x264_src/encoder/encoder.c:477:9
	cmpl	$2, %esi
	je	.LBB1_38
.Ltmp357:
# %bb.31:                               # %if.end158
	#DEBUG_VALUE: x264_validate_parameters:h <- $rbx
	cmpl	$1, %esi
	jne	.LBB1_33
.Ltmp358:
# %bb.32:                               # %if.end188.thread
	#DEBUG_VALUE: x264_validate_parameters:h <- $rbx
	.loc	0 479 37                        # x264_src/encoder/encoder.c:479:37
	cvttss2si	%xmm1, %edx
	.loc	0 479 35 is_stmt 0              # x264_src/encoder/encoder.c:479:35
	movl	%edx, 492(%rdi)
	.loc	0 480 31 is_stmt 1              # x264_src/encoder/encoder.c:480:31
	movl	$0, 508(%rdi)
.Ltmp359:
.LBB1_33:                               # %land.lhs.true200
	#DEBUG_VALUE: x264_validate_parameters:h <- $rbx
	.loc	0 483 38                        # x264_src/encoder/encoder.c:483:38
	testl	%edx, %edx
.Ltmp360:
	.loc	0 482 9                         # x264_src/encoder/encoder.c:482:9
	je	.LBB1_35
.Ltmp361:
# %bb.34:                               # %if.end239
	#DEBUG_VALUE: x264_validate_parameters:h <- $rbx
	.loc	0 503 33                        # x264_src/encoder/encoder.c:503:33
	testl	%esi, %esi
	jne	.LBB1_38
	jmp	.LBB1_37
.Ltmp362:
.LBB1_35:                               # %if.then206
	#DEBUG_VALUE: x264_validate_parameters:h <- $rbx
	.loc	0 485 26                        # x264_src/encoder/encoder.c:485:26
	movl	$1, 25812(%rdi)
	.loc	0 486 31                        # x264_src/encoder/encoder.c:486:31
	movl	$0, 144(%rdi)
	.loc	0 487 31                        # x264_src/encoder/encoder.c:487:31
	movq	$0, 152(%rdi)
	.loc	0 488 33                        # x264_src/encoder/encoder.c:488:33
	movl	$0, 488(%rdi)
	.loc	0 489 33                        # x264_src/encoder/encoder.c:489:33
	movsd	.LCPI1_5(%rip), %xmm0           # xmm0 = [1.0E+0,1.0E+0,0.0E+0,0.0E+0]
	movsd	%xmm0, 536(%rdi)
	.loc	0 491 33                        # x264_src/encoder/encoder.c:491:33
	movq	$0, 476(%rdi)
	.loc	0 493 45                        # x264_src/encoder/encoder.c:493:45
	movl	$0, 408(%rdi)
	.loc	0 494 36                        # x264_src/encoder/encoder.c:494:36
	movq	$0, 440(%rdi)
	.loc	0 496 44                        # x264_src/encoder/encoder.c:496:44
	movl	$0, 452(%rdi)
	.loc	0 497 32                        # x264_src/encoder/encoder.c:497:32
	movl	$0, 464(%rdi)
	.loc	0 498 27                        # x264_src/encoder/encoder.c:498:27
	movl	$0, 100(%rdi)
	movss	.LCPI1_6(%rip), %xmm0           # xmm0 = [1.0E+0,0.0E+0,0.0E+0,0.0E+0]
	xorl	%edx, %edx
.Ltmp363:
	.loc	0 500 14                        # x264_src/encoder/encoder.c:500:14
	cmpl	$0, 128(%rdi)
.Ltmp364:
	.loc	0 500 13 is_stmt 0              # x264_src/encoder/encoder.c:500:13
	jne	.LBB1_37
.Ltmp365:
# %bb.36:                               # %if.then235
	#DEBUG_VALUE: x264_validate_parameters:h <- $rbx
	.loc	0 501 46 is_stmt 1              # x264_src/encoder/encoder.c:501:46
	movl	$0, 392(%rdi)
.Ltmp366:
.LBB1_37:                               # %if.then245
	#DEBUG_VALUE: x264_validate_parameters:h <- $rbx
	.loc	0 505 22                        # x264_src/encoder/encoder.c:505:22
	xorps	%xmm1, %xmm1
	cvtsi2ss	%edx, %xmm1
.Ltmp367:
	#DEBUG_VALUE: qp_p <- $xmm1
	.loc	0 0 22 is_stmt 0                # x264_src/encoder/encoder.c:0:22
	movaps	%xmm1, 16(%rsp)                 # 16-byte Spill
.Ltmp368:
	#DEBUG_VALUE: qp_p <- [DW_OP_plus_uconst 16, DW_OP_deref_size 16, DW_OP_stack_value] $rsp
	.loc	0 506 31 is_stmt 1              # x264_src/encoder/encoder.c:506:31
	callq	log2f@PLT
.Ltmp369:
	.loc	0 0 31 is_stmt 0                # x264_src/encoder/encoder.c:0:31
	movapd	%xmm0, (%rsp)                   # 16-byte Spill
.Ltmp370:
	#DEBUG_VALUE: qp_i <- undef
	.loc	0 507 50 is_stmt 1              # x264_src/encoder/encoder.c:507:50
	movss	540(%rbx), %xmm0                # xmm0 = mem[0],zero,zero,zero
	.loc	0 507 31 is_stmt 0              # x264_src/encoder/encoder.c:507:31
	callq	log2f@PLT
.Ltmp371:
	.loc	0 0 31                          # x264_src/encoder/encoder.c:0:31
	movq	%rbx, %rdi
	movaps	(%rsp), %xmm2                   # 16-byte Reload
	.loc	0 506 27 is_stmt 1              # x264_src/encoder/encoder.c:506:27
	unpcklps	%xmm0, %xmm2                    # xmm2 = xmm2[0],xmm0[0],xmm2[1],xmm0[1]
	movaps	16(%rsp), %xmm3                 # 16-byte Reload
	movaps	%xmm3, %xmm0
	shufps	$0, %xmm3, %xmm0                # xmm0 = xmm0[0,0],xmm3[0,0]
	mulps	.LCPI1_7(%rip), %xmm2
	addps	%xmm0, %xmm2
.Ltmp372:
	#DEBUG_VALUE: qp_b <- undef
	.loc	0 508 50                        # x264_src/encoder/encoder.c:508:50
	movaps	%xmm2, %xmm0
	shufps	$85, %xmm2, %xmm0               # xmm0 = xmm0[1,1],xmm2[1,1]
	movaps	%xmm2, %xmm1
	movaps	%xmm2, %xmm4
	minss	%xmm0, %xmm1
	movaps	%xmm3, %xmm2
	minss	%xmm1, %xmm2
	.loc	0 508 44 is_stmt 0              # x264_src/encoder/encoder.c:508:44
	cvttss2si	%xmm2, %eax
.Ltmp373:
	#DEBUG_VALUE: x264_clip3:v <- $eax
	#DEBUG_VALUE: x264_clip3:i_min <- 0
	#DEBUG_VALUE: x264_clip3:i_max <- 51
	.loc	5 202 14 is_stmt 1              # x264_src/common/common.h:202:14
	cmpl	$51, %eax
	movl	$51, %ecx
	cmovgel	%ecx, %eax
.Ltmp374:
	.loc	5 0 14 is_stmt 0                # x264_src/common/common.h:0:14
	xorl	%edx, %edx
	.loc	5 202 14                        # x264_src/common/common.h:202:14
	testl	%eax, %eax
	cmovlel	%edx, %eax
.Ltmp375:
	.loc	0 509 50 is_stmt 1              # x264_src/encoder/encoder.c:509:50
	maxss	%xmm0, %xmm4
	movaps	%xmm3, %xmm0
	maxss	%xmm4, %xmm0
	cvtss2sd	%xmm0, %xmm0
	.loc	0 509 80 is_stmt 0              # x264_src/encoder/encoder.c:509:80
	addsd	.LCPI1_8(%rip), %xmm0
	.loc	0 509 44                        # x264_src/encoder/encoder.c:509:44
	cvttsd2si	%xmm0, %esi
.Ltmp376:
	#DEBUG_VALUE: x264_clip3:v <- $esi
	#DEBUG_VALUE: x264_clip3:i_min <- 0
	#DEBUG_VALUE: x264_clip3:i_max <- 51
	.loc	5 202 14 is_stmt 1              # x264_src/common/common.h:202:14
	cmpl	$51, %esi
	cmovll	%esi, %ecx
	testl	%ecx, %ecx
	cmovlel	%edx, %ecx
.Ltmp377:
	.loc	0 510 31                        # x264_src/encoder/encoder.c:510:31
	movl	$0, 544(%rbx)
	.loc	0 511 31                        # x264_src/encoder/encoder.c:511:31
	movl	$0, 552(%rbx)
.Ltmp378:
.LBB1_38:                               # %if.end312
	#DEBUG_VALUE: x264_validate_parameters:h <- $rbx
	#DEBUG_VALUE: x264_clip3:v <- $ecx
	#DEBUG_VALUE: x264_clip3:i_min <- 0
	#DEBUG_VALUE: x264_clip3:i_max <- 51
	.loc	5 202 14                        # x264_src/common/common.h:202:14
	cmpl	$51, %ecx
	cmovll	%ecx, %ebp
	testl	%ebp, %ebp
	cmovlel	%r14d, %ebp
.Ltmp379:
	#DEBUG_VALUE: x264_clip3:i_max <- $ebp
	.loc	0 513 26                        # x264_src/encoder/encoder.c:513:26
	movl	%ebp, 500(%rdi)
.Ltmp380:
	.loc	5 202 14                        # x264_src/common/common.h:202:14
	cmpl	%ebp, %eax
	cmovll	%eax, %ebp
.Ltmp381:
	#DEBUG_VALUE: x264_clip3:v <- $eax
	#DEBUG_VALUE: x264_clip3:i_min <- 0
	.loc	5 202 17 is_stmt 0              # x264_src/common/common.h:202:17
	testl	%eax, %eax
	.loc	5 202 14                        # x264_src/common/common.h:202:14
	cmovsl	%r14d, %ebp
.Ltmp382:
	.loc	0 514 26 is_stmt 1              # x264_src/encoder/encoder.c:514:26
	movl	%ebp, 496(%rdi)
.Ltmp383:
	.loc	0 515 9                         # x264_src/encoder/encoder.c:515:9
	cmpl	$0, 528(%rdi)
.Ltmp384:
	.loc	0 515 9 is_stmt 0               # x264_src/encoder/encoder.c:515:9
	je	.LBB1_44
.Ltmp385:
# %bb.39:                               # %if.then333
	#DEBUG_VALUE: x264_validate_parameters:h <- $rbx
	.loc	0 517 25 is_stmt 1              # x264_src/encoder/encoder.c:517:25
	movl	488(%rdi), %eax
	.loc	0 517 37 is_stmt 0              # x264_src/encoder/encoder.c:517:37
	testl	%eax, %eax
.Ltmp386:
	.loc	0 517 13                        # x264_src/encoder/encoder.c:517:13
	je	.LBB1_46
.Ltmp387:
# %bb.40:                               # %if.else345
	#DEBUG_VALUE: x264_validate_parameters:h <- $rbx
	.loc	0 523 30 is_stmt 1              # x264_src/encoder/encoder.c:523:30
	movl	524(%rdi), %ecx
	.loc	0 523 48 is_stmt 0              # x264_src/encoder/encoder.c:523:48
	testl	%ecx, %ecx
.Ltmp388:
	.loc	0 523 18                        # x264_src/encoder/encoder.c:523:18
	je	.LBB1_47
.Ltmp389:
# %bb.41:                               # %if.else369
	#DEBUG_VALUE: x264_validate_parameters:h <- $rbx
	.loc	0 0 18                          # x264_src/encoder/encoder.c:0:18
	cmpl	$2, %eax
.Ltmp390:
	.loc	0 536 72 is_stmt 1              # x264_src/encoder/encoder.c:536:72
	jne	.LBB1_51
.Ltmp391:
# %bb.42:                               # %if.else369
	#DEBUG_VALUE: x264_validate_parameters:h <- $rbx
	cmpl	508(%rdi), %ecx
	jge	.LBB1_51
.Ltmp392:
# %bb.43:                               # %if.then384
	#DEBUG_VALUE: x264_validate_parameters:h <- $rbx
	.loc	0 539 13                        # x264_src/encoder/encoder.c:539:13
	movl	$.L.str.62, %edx
	jmp	.LBB1_49
.Ltmp393:
.LBB1_44:                               # %if.else394
	#DEBUG_VALUE: x264_validate_parameters:h <- $rbx
	.loc	0 543 14                        # x264_src/encoder/encoder.c:543:14
	cmpl	$0, 524(%rdi)
.Ltmp394:
	.loc	0 543 14 is_stmt 0              # x264_src/encoder/encoder.c:543:14
	je	.LBB1_51
.Ltmp395:
# %bb.45:                               # %if.then399
	#DEBUG_VALUE: x264_validate_parameters:h <- $rbx
	.loc	0 545 9 is_stmt 1               # x264_src/encoder/encoder.c:545:9
	movl	$.L.str.63, %edx
	movq	%rbx, %rdi
	movl	$1, %esi
	xorl	%eax, %eax
	callq	x264_log@PLT
.Ltmp396:
	.loc	0 0 9 is_stmt 0                 # x264_src/encoder/encoder.c:0:9
	movq	%rbx, %rdi
	.loc	0 546 39 is_stmt 1              # x264_src/encoder/encoder.c:546:39
	movl	$0, 524(%rbx)
	jmp	.LBB1_51
.Ltmp397:
.LBB1_46:                               # %if.then339
	#DEBUG_VALUE: x264_validate_parameters:h <- $rbx
	.loc	0 519 13                        # x264_src/encoder/encoder.c:519:13
	movl	$.L.str.59, %edx
	movq	%rbx, %rdi
	movl	$1, %esi
	xorl	%eax, %eax
	callq	x264_log@PLT
.Ltmp398:
	.loc	0 0 13 is_stmt 0                # x264_src/encoder/encoder.c:0:13
	movq	%rbx, %rdi
	.loc	0 520 43 is_stmt 1              # x264_src/encoder/encoder.c:520:43
	movq	$0, 524(%rbx)
	.loc	0 522 9                         # x264_src/encoder/encoder.c:522:9
	jmp	.LBB1_51
.Ltmp399:
.LBB1_47:                               # %if.then351
	#DEBUG_VALUE: x264_validate_parameters:h <- $rbx
	.loc	0 525 41                        # x264_src/encoder/encoder.c:525:41
	cmpl	$2, %eax
.Ltmp400:
	.loc	0 525 17 is_stmt 0              # x264_src/encoder/encoder.c:525:17
	jne	.LBB1_50
.Ltmp401:
# %bb.48:                               # %if.then357
	#DEBUG_VALUE: x264_validate_parameters:h <- $rbx
	.loc	0 527 17 is_stmt 1              # x264_src/encoder/encoder.c:527:17
	movl	$.L.str.60, %edx
.Ltmp402:
.LBB1_49:                               # %if.end404
	#DEBUG_VALUE: x264_validate_parameters:h <- $rbx
	.loc	0 0 0 is_stmt 0                 # x264_src/encoder/encoder.c:0:0
	movq	%rbx, %rdi
	movl	$1, %esi
	xorl	%eax, %eax
	callq	x264_log@PLT
.Ltmp403:
	movq	%rbx, %rdi
	movl	508(%rbx), %eax
	movl	%eax, 524(%rbx)
.Ltmp404:
	.loc	0 529 13 is_stmt 1              # x264_src/encoder/encoder.c:529:13
	jmp	.LBB1_51
.Ltmp405:
.LBB1_50:                               # %if.else364
	#DEBUG_VALUE: x264_validate_parameters:h <- $rbx
	.loc	0 532 17                        # x264_src/encoder/encoder.c:532:17
	movl	$.L.str.61, %edx
	movq	%rbx, %rdi
	movl	$1, %esi
	xorl	%eax, %eax
	callq	x264_log@PLT
.Ltmp406:
	.loc	0 0 17 is_stmt 0                # x264_src/encoder/encoder.c:0:17
	movq	%rbx, %rdi
	.loc	0 533 47 is_stmt 1              # x264_src/encoder/encoder.c:533:47
	movl	$0, 528(%rbx)
.Ltmp407:
.LBB1_51:                               # %if.end404
	#DEBUG_VALUE: x264_validate_parameters:h <- $rbx
	.loc	0 549 18                        # x264_src/encoder/encoder.c:549:18
	movl	136(%rdi), %eax
	.loc	0 549 9 is_stmt 0               # x264_src/encoder/encoder.c:549:9
	testl	%eax, %eax
	.loc	0 549 31                        # x264_src/encoder/encoder.c:549:31
	je	.LBB1_56
.Ltmp408:
# %bb.52:                               # %land.lhs.true408
	#DEBUG_VALUE: x264_validate_parameters:h <- $rbx
	.loc	0 549 34                        # x264_src/encoder/encoder.c:549:34
	cmpl	$0, 684(%rdi)
.Ltmp409:
	.loc	0 549 9                         # x264_src/encoder/encoder.c:549:9
	je	.LBB1_54
.Ltmp410:
# %bb.53:                               # %if.end414
	#DEBUG_VALUE: x264_validate_parameters:h <- $rbx
	.loc	0 0 9                           # x264_src/encoder/encoder.c:0:9
	xorl	%ebp, %ebp
.Ltmp411:
	.loc	0 551 9 is_stmt 1               # x264_src/encoder/encoder.c:551:9
	movl	$.L.str.64, %edx
	movq	%rbx, %rdi
	movl	$1, %esi
	xorl	%eax, %eax
	callq	x264_log@PLT
.Ltmp412:
	.loc	0 0 9 is_stmt 0                 # x264_src/encoder/encoder.c:0:9
	movq	%rbx, %rdi
	.loc	0 552 35 is_stmt 1              # x264_src/encoder/encoder.c:552:35
	movl	$0, 684(%rbx)
.Ltmp413:
	.loc	0 554 18                        # x264_src/encoder/encoder.c:554:18
	movl	136(%rbx), %eax
	.loc	0 554 9 is_stmt 0               # x264_src/encoder/encoder.c:554:9
	testl	%eax, %eax
	.loc	0 554 31                        # x264_src/encoder/encoder.c:554:31
	je	.LBB1_57
.Ltmp414:
.LBB1_54:                               # %land.lhs.true418
	#DEBUG_VALUE: x264_validate_parameters:h <- $rbx
	.loc	0 554 34                        # x264_src/encoder/encoder.c:554:34
	cmpl	$0, 688(%rdi)
	movl	%eax, %ebp
.Ltmp415:
	.loc	0 554 9                         # x264_src/encoder/encoder.c:554:9
	je	.LBB1_57
.Ltmp416:
# %bb.55:                               # %if.then421
	#DEBUG_VALUE: x264_validate_parameters:h <- $rbx
	.loc	0 556 9 is_stmt 1               # x264_src/encoder/encoder.c:556:9
	movl	$.L.str.65, %edx
	movq	%rbx, %rdi
	movl	$1, %esi
	xorl	%eax, %eax
	callq	x264_log@PLT
.Ltmp417:
	.loc	0 0 9 is_stmt 0                 # x264_src/encoder/encoder.c:0:9
	movq	%rbx, %rdi
	.loc	0 557 34 is_stmt 1              # x264_src/encoder/encoder.c:557:34
	movl	$0, 688(%rbx)
.Ltmp418:
	.loc	0 559 56                        # x264_src/encoder/encoder.c:559:56
	movl	136(%rbx), %ebp
	jmp	.LBB1_57
.Ltmp419:
.LBB1_56:
	#DEBUG_VALUE: x264_validate_parameters:h <- $rbx
	.loc	0 0 56 is_stmt 0                # x264_src/encoder/encoder.c:0:56
	xorl	%ebp, %ebp
.Ltmp420:
.LBB1_57:                               # %if.end424
	#DEBUG_VALUE: x264_validate_parameters:h <- $rbx
	movl	$16, %esi
	.loc	0 559 45                        # x264_src/encoder/encoder.c:559:45
	movl	%ebp, %ecx
	shll	%cl, %esi
	.loc	0 559 32                        # x264_src/encoder/encoder.c:559:32
	movl	24(%rdi), %eax
	.loc	0 559 40                        # x264_src/encoder/encoder.c:559:40
	addl	%esi, %eax
	decl	%eax
	.loc	0 559 73                        # x264_src/encoder/encoder.c:559:73
	cltd
	idivl	%esi
.Ltmp421:
	#DEBUG_VALUE: x264_validate_parameters:max_slices <- $eax
	.loc	0 560 9 is_stmt 1               # x264_src/encoder/encoder.c:560:9
	cmpl	$0, 8(%rdi)
.Ltmp422:
	.loc	0 560 9 is_stmt 0               # x264_src/encoder/encoder.c:560:9
	je	.LBB1_59
.Ltmp423:
# %bb.58:                               # %if.then438
	#DEBUG_VALUE: x264_validate_parameters:h <- $rbx
	#DEBUG_VALUE: x264_validate_parameters:max_slices <- $eax
	.loc	0 561 55 is_stmt 1              # x264_src/encoder/encoder.c:561:55
	movl	4(%rdi), %ecx
.Ltmp424:
	#DEBUG_VALUE: x264_clip3:v <- $ecx
	.loc	5 202 14                        # x264_src/common/common.h:202:14
	cmpl	%eax, %ecx
	cmovll	%ecx, %eax
.Ltmp425:
	.loc	5 0 14 is_stmt 0                # x264_src/common/common.h:0:14
	xorl	%edx, %edx
.Ltmp426:
	#DEBUG_VALUE: x264_clip3:i_min <- 0
	#DEBUG_VALUE: x264_clip3:i_max <- undef
	.loc	5 202 17                        # x264_src/common/common.h:202:17
	testl	%ecx, %ecx
	.loc	5 202 14                        # x264_src/common/common.h:202:14
	cmovnsl	%eax, %edx
.Ltmp427:
	.loc	0 561 32 is_stmt 1              # x264_src/encoder/encoder.c:561:32
	movl	%edx, 692(%rdi)
	.loc	0 561 9 is_stmt 0               # x264_src/encoder/encoder.c:561:9
	jmp	.LBB1_61
.Ltmp428:
.LBB1_59:                               # %if.else443
	#DEBUG_VALUE: x264_validate_parameters:h <- $rbx
	#DEBUG_VALUE: x264_validate_parameters:max_slices <- $eax
	.loc	0 564 55 is_stmt 1              # x264_src/encoder/encoder.c:564:55
	movl	692(%rdi), %ecx
.Ltmp429:
	#DEBUG_VALUE: x264_clip3:v <- $ecx
	.loc	5 202 14                        # x264_src/common/common.h:202:14
	cmpl	%eax, %ecx
	cmovll	%ecx, %eax
.Ltmp430:
	.loc	5 0 14 is_stmt 0                # x264_src/common/common.h:0:14
	xorl	%edx, %edx
.Ltmp431:
	#DEBUG_VALUE: x264_clip3:i_min <- 0
	#DEBUG_VALUE: x264_clip3:i_max <- undef
	.loc	5 202 17                        # x264_src/common/common.h:202:17
	testl	%ecx, %ecx
	.loc	5 202 14                        # x264_src/common/common.h:202:14
	cmovsl	%edx, %eax
.Ltmp432:
	.loc	0 564 32 is_stmt 1              # x264_src/encoder/encoder.c:564:32
	movl	%eax, 692(%rdi)
	.loc	0 565 37                        # x264_src/encoder/encoder.c:565:37
	movl	684(%rdi), %eax
	.loc	0 566 36                        # x264_src/encoder/encoder.c:566:36
	movl	688(%rdi), %ecx
.Ltmp433:
	testl	%ecx, %ecx
	cmovlel	%edx, %ecx
.Ltmp434:
	.loc	0 567 13                        # x264_src/encoder/encoder.c:567:13
	setle	%sil
.Ltmp435:
	.loc	0 565 37                        # x264_src/encoder/encoder.c:565:37
	testl	%eax, %eax
	cmovgl	%eax, %edx
	.loc	0 565 35 is_stmt 0              # x264_src/encoder/encoder.c:565:35
	movl	%edx, 684(%rdi)
	.loc	0 566 34 is_stmt 1              # x264_src/encoder/encoder.c:566:34
	movl	%ecx, 688(%rdi)
	setle	%al
.Ltmp436:
	.loc	0 567 38                        # x264_src/encoder/encoder.c:567:38
	testb	%al, %sil
	jne	.LBB1_61
.Ltmp437:
# %bb.60:                               # %if.then480
	#DEBUG_VALUE: x264_validate_parameters:h <- $rbx
	.loc	0 568 36                        # x264_src/encoder/encoder.c:568:36
	movl	$0, 692(%rdi)
.Ltmp438:
.LBB1_61:                               # %if.end484
	#DEBUG_VALUE: x264_validate_parameters:h <- $rbx
	.loc	0 571 55                        # x264_src/encoder/encoder.c:571:55
	movl	80(%rdi), %ecx
.Ltmp439:
	#DEBUG_VALUE: x264_clip3:v <- $ecx
	.loc	0 572 18                        # x264_src/encoder/encoder.c:572:18
	movl	84(%rdi), %eax
.Ltmp440:
	#DEBUG_VALUE: x264_clip3:i_min <- 1
	#DEBUG_VALUE: x264_clip3:i_max <- 16
	.loc	5 202 14                        # x264_src/common/common.h:202:14
	cmpl	$16, %ecx
	movl	$16, %edx
	cmovll	%ecx, %edx
	cmpl	$2, %edx
	movl	$1, %ecx
.Ltmp441:
	cmovll	%ecx, %edx
.Ltmp442:
	.loc	0 571 32                        # x264_src/encoder/encoder.c:571:32
	movl	%edx, 80(%rdi)
.Ltmp443:
	.loc	0 572 31                        # x264_src/encoder/encoder.c:572:31
	testl	%eax, %eax
.Ltmp444:
	.loc	0 572 9 is_stmt 0               # x264_src/encoder/encoder.c:572:9
	jle	.LBB1_64
.Ltmp445:
# %bb.62:                               # %if.end496
	#DEBUG_VALUE: x264_validate_parameters:h <- $rbx
	.loc	0 574 39 is_stmt 1              # x264_src/encoder/encoder.c:574:39
	cmpl	$0, 92(%rdi)
.Ltmp446:
	.loc	0 574 9 is_stmt 0               # x264_src/encoder/encoder.c:574:9
	js	.LBB1_65
.Ltmp447:
.LBB1_63:                               # %if.end503
	#DEBUG_VALUE: x264_validate_parameters:h <- $rbx
	.loc	0 576 10 is_stmt 1              # x264_src/encoder/encoder.c:576:10
	cmpl	$0, 428(%rdi)
	jne	.LBB1_68
	jmp	.LBB1_66
.Ltmp448:
.LBB1_64:                               # %if.then493
	#DEBUG_VALUE: x264_validate_parameters:h <- $rbx
	.loc	0 573 31                        # x264_src/encoder/encoder.c:573:31
	movl	$1, 84(%rdi)
	movl	$1, %eax
.Ltmp449:
	.loc	0 574 39                        # x264_src/encoder/encoder.c:574:39
	cmpl	$0, 92(%rdi)
.Ltmp450:
	.loc	0 574 9 is_stmt 0               # x264_src/encoder/encoder.c:574:9
	jns	.LBB1_63
.Ltmp451:
.LBB1_65:                               # %if.then500
	#DEBUG_VALUE: x264_validate_parameters:h <- $rbx
	.loc	0 575 39 is_stmt 1              # x264_src/encoder/encoder.c:575:39
	movl	$0, 92(%rdi)
.Ltmp452:
	.loc	0 576 10                        # x264_src/encoder/encoder.c:576:10
	cmpl	$0, 428(%rdi)
	.loc	0 576 43 is_stmt 0              # x264_src/encoder/encoder.c:576:43
	jne	.LBB1_68
.Ltmp453:
.LBB1_66:                               # %land.lhs.true508
	#DEBUG_VALUE: x264_validate_parameters:h <- $rbx
	.loc	0 576 80                        # x264_src/encoder/encoder.c:576:80
	cmpl	$2, 404(%rdi)
.Ltmp454:
	.loc	0 576 9                         # x264_src/encoder/encoder.c:576:9
	jl	.LBB1_68
.Ltmp455:
# %bb.67:                               # %if.then513
	#DEBUG_VALUE: x264_validate_parameters:h <- $rbx
	.loc	0 578 9 is_stmt 1               # x264_src/encoder/encoder.c:578:9
	movl	$.L.str.66, %edx
	movq	%rbx, %rdi
	movl	$1, %esi
	xorl	%eax, %eax
	callq	x264_log@PLT
.Ltmp456:
	.loc	0 0 9 is_stmt 0                 # x264_src/encoder/encoder.c:0:9
	movq	%rbx, %rdi
	.loc	0 579 43 is_stmt 1              # x264_src/encoder/encoder.c:579:43
	movl	$1, 404(%rbx)
.Ltmp457:
	.loc	0 582 18                        # x264_src/encoder/encoder.c:582:18
	movl	84(%rbx), %eax
.Ltmp458:
.LBB1_68:                               # %if.end517
	#DEBUG_VALUE: x264_validate_parameters:h <- $rbx
	.loc	0 581 46                        # x264_src/encoder/encoder.c:581:46
	movl	100(%rdi), %edx
.Ltmp459:
	#DEBUG_VALUE: x264_clip3:v <- $edx
	#DEBUG_VALUE: x264_clip3:i_min <- 0
	#DEBUG_VALUE: x264_clip3:i_max <- 16
	.loc	5 202 14                        # x264_src/common/common.h:202:14
	cmpl	$16, %edx
	movl	$16, %ecx
	cmovll	%edx, %ecx
	xorl	%edx, %edx
.Ltmp460:
	testl	%ecx, %ecx
	cmovlel	%edx, %ecx
.Ltmp461:
	.loc	0 581 23                        # x264_src/encoder/encoder.c:581:23
	movl	%ecx, 100(%rdi)
.Ltmp462:
	.loc	0 582 31                        # x264_src/encoder/encoder.c:582:31
	cmpl	$1, %eax
.Ltmp463:
	.loc	0 582 9 is_stmt 0               # x264_src/encoder/encoder.c:582:9
	jne	.LBB1_70
.Ltmp464:
# %bb.69:                               # %if.then527
	#DEBUG_VALUE: x264_validate_parameters:h <- $rbx
	.loc	0 585 34 is_stmt 1              # x264_src/encoder/encoder.c:585:34
	movq	$0, 96(%rdi)
	xorl	%ecx, %ecx
.Ltmp465:
.LBB1_70:                               # %if.end531
	#DEBUG_VALUE: x264_validate_parameters:h <- $rbx
	.loc	0 587 51                        # x264_src/encoder/encoder.c:587:51
	movl	108(%rdi), %eax
.Ltmp466:
	#DEBUG_VALUE: x264_clip3:v <- $eax
	#DEBUG_VALUE: x264_clip3:i_min <- -90
	#DEBUG_VALUE: x264_clip3:i_max <- 100
	.loc	5 202 14                        # x264_src/common/common.h:202:14
	cmpl	$100, %eax
	movl	$100, %edx
	cmovll	%eax, %edx
	cmpl	$-89, %edx
	movl	$-90, %eax
.Ltmp467:
	cmovgel	%edx, %eax
.Ltmp468:
	.loc	0 587 28                        # x264_src/encoder/encoder.c:587:28
	movl	%eax, 108(%rdi)
.Ltmp469:
	.loc	0 588 27                        # x264_src/encoder/encoder.c:588:27
	cmpl	$2, %ecx
.Ltmp470:
	.loc	0 588 9 is_stmt 0               # x264_src/encoder/encoder.c:588:9
	jae	.LBB1_73
.Ltmp471:
# %bb.71:                               # %if.end542
	#DEBUG_VALUE: x264_validate_parameters:h <- $rbx
	#DEBUG_VALUE: x264_clip3:v <- 0
	#DEBUG_VALUE: x264_clip3:i_min <- 0
	#DEBUG_VALUE: x264_clip3:i_max <- 2
	.loc	0 590 31 is_stmt 1              # x264_src/encoder/encoder.c:590:31
	movl	$0, 112(%rdi)
	xorl	%eax, %eax
.Ltmp472:
	.loc	0 591 10                        # x264_src/encoder/encoder.c:591:10
	testl	%ecx, %ecx
.Ltmp473:
	.loc	0 591 9 is_stmt 0               # x264_src/encoder/encoder.c:591:9
	jne	.LBB1_74
.Ltmp474:
# %bb.72:                               # %if.then551
	#DEBUG_VALUE: x264_validate_parameters:h <- $rbx
	.loc	0 593 36 is_stmt 1              # x264_src/encoder/encoder.c:593:36
	movl	$0, 104(%rdi)
	.loc	0 595 44                        # x264_src/encoder/encoder.c:595:44
	movq	$0, 400(%rdi)
	jmp	.LBB1_74
.Ltmp475:
.LBB1_73:                               # %if.end542.thread
	#DEBUG_VALUE: x264_validate_parameters:h <- $rbx
	.loc	0 590 54                        # x264_src/encoder/encoder.c:590:54
	movl	112(%rdi), %eax
.Ltmp476:
	#DEBUG_VALUE: x264_clip3:v <- $eax
	#DEBUG_VALUE: x264_clip3:i_min <- 0
	#DEBUG_VALUE: x264_clip3:i_max <- 2
	.loc	5 202 14                        # x264_src/common/common.h:202:14
	cmpl	$2, %eax
	movl	$2, %ecx
	cmovll	%eax, %ecx
	xorl	%edx, %edx
	testl	%ecx, %ecx
	cmovgl	%ecx, %edx
.Ltmp477:
	.loc	0 590 31                        # x264_src/encoder/encoder.c:590:31
	movl	%edx, 112(%rdi)
.Ltmp478:
.LBB1_74:                               # %if.end558
	#DEBUG_VALUE: x264_validate_parameters:h <- $rbx
	.loc	0 597 9                         # x264_src/encoder/encoder.c:597:9
	cmpl	$0, 96(%rdi)
	.loc	0 597 34 is_stmt 0              # x264_src/encoder/encoder.c:597:34
	je	.LBB1_79
.Ltmp479:
# %bb.75:                               # %land.lhs.true562
	#DEBUG_VALUE: x264_validate_parameters:h <- $rbx
	.loc	0 597 63                        # x264_src/encoder/encoder.c:597:63
	cmpl	$2, %eax
.Ltmp480:
	.loc	0 597 9                         # x264_src/encoder/encoder.c:597:9
	jl	.LBB1_77
.Ltmp481:
# %bb.76:                               # %if.end570
	#DEBUG_VALUE: x264_validate_parameters:h <- $rbx
	.loc	0 599 9 is_stmt 1               # x264_src/encoder/encoder.c:599:9
	movl	$.L.str.67, %edx
	movq	%rbx, %rdi
	movl	$1, %esi
	xorl	%eax, %eax
	callq	x264_log@PLT
.Ltmp482:
	.loc	0 0 9 is_stmt 0                 # x264_src/encoder/encoder.c:0:9
	movq	%rbx, %rdi
	.loc	0 600 35 is_stmt 1              # x264_src/encoder/encoder.c:600:35
	movl	$1, 112(%rbx)
.Ltmp483:
	.loc	0 602 9                         # x264_src/encoder/encoder.c:602:9
	cmpl	$0, 96(%rbx)
	.loc	0 602 34 is_stmt 0              # x264_src/encoder/encoder.c:602:34
	je	.LBB1_79
.Ltmp484:
.LBB1_77:                               # %land.lhs.true574
	#DEBUG_VALUE: x264_validate_parameters:h <- $rbx
	.loc	0 602 64                        # x264_src/encoder/encoder.c:602:64
	cmpl	$2, 80(%rdi)
.Ltmp485:
	.loc	0 602 9                         # x264_src/encoder/encoder.c:602:9
	jl	.LBB1_79
.Ltmp486:
# %bb.78:                               # %if.then579
	#DEBUG_VALUE: x264_validate_parameters:h <- $rbx
	.loc	0 604 9 is_stmt 1               # x264_src/encoder/encoder.c:604:9
	movl	$.L.str.68, %edx
	movq	%rbx, %rdi
	movl	$1, %esi
	xorl	%eax, %eax
	callq	x264_log@PLT
.Ltmp487:
	.loc	0 0 9 is_stmt 0                 # x264_src/encoder/encoder.c:0:9
	movq	%rbx, %rdi
	.loc	0 605 36 is_stmt 1              # x264_src/encoder/encoder.c:605:36
	movl	$1, 80(%rbx)
.Ltmp488:
.LBB1_79:                               # %if.end582
	#DEBUG_VALUE: x264_validate_parameters:h <- $rbx
	.loc	0 609 76                        # x264_src/encoder/encoder.c:609:76
	movl	84(%rdi), %ecx
.Ltmp489:
	.loc	0 607 18                        # x264_src/encoder/encoder.c:607:18
	movl	88(%rdi), %eax
	.loc	0 607 31 is_stmt 0              # x264_src/encoder/encoder.c:607:31
	testl	%eax, %eax
.Ltmp490:
	.loc	0 607 9                         # x264_src/encoder/encoder.c:607:9
	jne	.LBB1_81
.Ltmp491:
# %bb.80:                               # %select.true.sink
	#DEBUG_VALUE: x264_validate_parameters:h <- $rbx
	movslq	%ecx, %rax
	imulq	$1717986919, %rax, %rax         # imm = 0x66666667
	movq	%rax, %rdx
	shrq	$63, %rdx
	sarq	$34, %rax
	addl	%edx, %eax
.Ltmp492:
.LBB1_81:                               # %select.end
	#DEBUG_VALUE: x264_validate_parameters:h <- $rbx
	.loc	0 609 88 is_stmt 1              # x264_src/encoder/encoder.c:609:88
	movl	%ecx, %edx
	shrl	$31, %edx
	addl	%ecx, %edx
	sarl	%edx
	.loc	0 609 90 is_stmt 0              # x264_src/encoder/encoder.c:609:90
	incl	%edx
.Ltmp493:
	#DEBUG_VALUE: x264_clip3:i_max <- $edx
	.loc	5 202 14 is_stmt 1              # x264_src/common/common.h:202:14
	cmpl	%edx, %eax
	cmovll	%eax, %edx
.Ltmp494:
	#DEBUG_VALUE: x264_clip3:v <- $eax
	#DEBUG_VALUE: x264_clip3:i_min <- 1
	.loc	5 202 17 is_stmt 0              # x264_src/common/common.h:202:17
	testl	%eax, %eax
	movl	$1, %eax
.Ltmp495:
	.loc	5 202 14                        # x264_src/common/common.h:202:14
	cmovgl	%edx, %eax
.Ltmp496:
	.loc	0 609 27 is_stmt 1              # x264_src/encoder/encoder.c:609:27
	movl	%eax, 88(%rdi)
	.loc	0 610 55                        # x264_src/encoder/encoder.c:610:55
	movl	556(%rdi), %eax
.Ltmp497:
	#DEBUG_VALUE: x264_clip3:v <- $eax
	#DEBUG_VALUE: x264_clip3:i_min <- 0
	#DEBUG_VALUE: x264_clip3:i_max <- 250
	.loc	5 202 14                        # x264_src/common/common.h:202:14
	cmpl	$250, %eax
	movl	$250, %esi
	cmovll	%eax, %esi
	xorl	%edx, %edx
	testl	%esi, %esi
	cmovgl	%esi, %edx
.Ltmp498:
	.loc	0 612 23                        # x264_src/encoder/encoder.c:612:23
	movl	508(%rdi), %eax
.Ltmp499:
	movl	524(%rdi), %ebp
	cmpl	%eax, %ebp
	movl	%eax, %esi
	cmovgl	%ebp, %esi
.Ltmp500:
	#DEBUG_VALUE: maxrate <- $esi
	.loc	0 613 25                        # x264_src/encoder/encoder.c:613:25
	testl	%esi, %esi
	je	.LBB1_83
.Ltmp501:
# %bb.82:                               # %cond.true627
	#DEBUG_VALUE: x264_validate_parameters:h <- $rbx
	#DEBUG_VALUE: maxrate <- $esi
	.loc	0 613 35 is_stmt 0              # x264_src/encoder/encoder.c:613:35
	cvtsi2ssl	528(%rdi), %xmm0
	.loc	0 613 74                        # x264_src/encoder/encoder.c:613:74
	cvtsi2ss	%esi, %xmm1
	.loc	0 613 72                        # x264_src/encoder/encoder.c:613:72
	divss	%xmm1, %xmm0
	jmp	.LBB1_84
.Ltmp502:
.LBB1_83:
	#DEBUG_VALUE: x264_validate_parameters:h <- $rbx
	#DEBUG_VALUE: x264_clip3:i_min <- 1
	#DEBUG_VALUE: x264_clip3:i_min <- 0
	#DEBUG_VALUE: x264_clip3:i_max <- 250
	#DEBUG_VALUE: maxrate <- $esi
	.loc	0 0 72                          # x264_src/encoder/encoder.c:0:72
	xorpd	%xmm0, %xmm0
.Ltmp503:
.LBB1_84:                               # %cond.end635
	#DEBUG_VALUE: x264_validate_parameters:h <- $rbx
	#DEBUG_VALUE: maxrate <- $esi
	#DEBUG_VALUE: bufsize <- $xmm0
	.loc	0 614 30 is_stmt 1              # x264_src/encoder/encoder.c:614:30
	movl	652(%rdi), %esi
.Ltmp504:
	.loc	0 0 30 is_stmt 0                # x264_src/encoder/encoder.c:0:30
	movss	.LCPI1_9(%rip), %xmm1           # xmm1 = [2.5E+1,0.0E+0,0.0E+0,0.0E+0]
	.loc	0 614 40                        # x264_src/encoder/encoder.c:614:40
	testl	%esi, %esi
	.loc	0 614 44                        # x264_src/encoder/encoder.c:614:44
	je	.LBB1_87
.Ltmp505:
# %bb.85:                               # %land.lhs.true640
	#DEBUG_VALUE: x264_validate_parameters:h <- $rbx
	#DEBUG_VALUE: bufsize <- $xmm0
	.loc	0 614 56                        # x264_src/encoder/encoder.c:614:56
	movl	656(%rdi), %r8d
	.loc	0 614 66                        # x264_src/encoder/encoder.c:614:66
	testl	%r8d, %r8d
	.loc	0 614 21                        # x264_src/encoder/encoder.c:614:21
	je	.LBB1_87
.Ltmp506:
# %bb.86:                               # %cond.true644
	#DEBUG_VALUE: x264_validate_parameters:h <- $rbx
	#DEBUG_VALUE: bufsize <- $xmm0
	.loc	0 614 72                        # x264_src/encoder/encoder.c:614:72
	movl	%esi, %r9d
	xorps	%xmm1, %xmm1
	cvtsi2ss	%r9, %xmm1
	.loc	0 614 101                       # x264_src/encoder/encoder.c:614:101
	movl	%r8d, %r8d
	cvtsi2ss	%r8, %xmm2
	.loc	0 614 99                        # x264_src/encoder/encoder.c:614:99
	divss	%xmm2, %xmm1
.Ltmp507:
.LBB1_87:                               # %cond.end654
	#DEBUG_VALUE: x264_validate_parameters:h <- $rbx
	#DEBUG_VALUE: bufsize <- $xmm0
	#DEBUG_VALUE: fps <- $xmm1
	.loc	0 615 35 is_stmt 1              # x264_src/encoder/encoder.c:615:35
	xorps	%xmm2, %xmm2
	cvtsi2ss	%edx, %xmm2
	mulss	%xmm1, %xmm0
.Ltmp508:
	xorps	%xmm1, %xmm1
.Ltmp509:
	cvtsi2ss	%ecx, %xmm1
	maxss	%xmm0, %xmm1
	minss	%xmm1, %xmm2
	cvttss2si	%xmm2, %edx
	.loc	0 615 33 is_stmt 0              # x264_src/encoder/encoder.c:615:33
	movl	%edx, 556(%rdi)
.Ltmp510:
	.loc	0 618 10 is_stmt 1              # x264_src/encoder/encoder.c:618:10
	cmpl	$0, 660(%rdi)
	.loc	0 618 34 is_stmt 0              # x264_src/encoder/encoder.c:618:34
	je	.LBB1_89
.Ltmp511:
# %bb.88:                               # %lor.lhs.false705
	#DEBUG_VALUE: x264_validate_parameters:h <- $rbx
	.loc	0 618 38                        # x264_src/encoder/encoder.c:618:38
	cmpl	$0, 664(%rdi)
.Ltmp512:
	.loc	0 618 9                         # x264_src/encoder/encoder.c:618:9
	jne	.LBB1_90
.Ltmp513:
.LBB1_89:                               # %if.then708
	#DEBUG_VALUE: x264_validate_parameters:h <- $rbx
	.loc	0 620 44 is_stmt 1              # x264_src/encoder/encoder.c:620:44
	movl	656(%rdi), %r8d
	.loc	0 620 33 is_stmt 0              # x264_src/encoder/encoder.c:620:33
	movl	%r8d, 660(%rdi)
	.loc	0 621 33 is_stmt 1              # x264_src/encoder/encoder.c:621:33
	movl	%esi, 664(%rdi)
.Ltmp514:
.LBB1_90:                               # %if.end717
	#DEBUG_VALUE: x264_validate_parameters:h <- $rbx
	.loc	0 624 56                        # x264_src/encoder/encoder.c:624:56
	movss	592(%rdi), %xmm0                # xmm0 = mem[0],zero,zero,zero
	movss	.LCPI1_6(%rip), %xmm1           # xmm1 = [1.0E+0,0.0E+0,0.0E+0,0.0E+0]
.Ltmp515:
	#DEBUG_VALUE: x264_clip3f:v <- undef
	#DEBUG_VALUE: x264_clip3f:f_min <- 0.000000e+00
	#DEBUG_VALUE: x264_clip3f:f_max <- 1.000000e+00
	.loc	0 624 31 is_stmt 0              # x264_src/encoder/encoder.c:624:31
	minss	%xmm0, %xmm1
	xorps	%xmm2, %xmm2
	cmpltss	%xmm2, %xmm0
	andnps	%xmm1, %xmm0
	.loc	0 624 29                        # x264_src/encoder/encoder.c:624:29
	movss	%xmm0, 592(%rdi)
.Ltmp516:
	.loc	0 625 10 is_stmt 1              # x264_src/encoder/encoder.c:625:10
	testl	%edx, %edx
	.loc	0 625 34 is_stmt 0              # x264_src/encoder/encoder.c:625:34
	je	.LBB1_93
.Ltmp517:
# %bb.91:                               # %lor.lhs.false731
	#DEBUG_VALUE: x264_validate_parameters:h <- $rbx
	.loc	0 625 59                        # x264_src/encoder/encoder.c:625:59
	cmpl	$1, %ecx
	.loc	0 625 64                        # x264_src/encoder/encoder.c:625:64
	je	.LBB1_93
.Ltmp518:
# %bb.92:                               # %lor.lhs.false731
	#DEBUG_VALUE: x264_validate_parameters:h <- $rbx
	ucomiss	.LCPI1_6(%rip), %xmm0
	jne	.LBB1_94
	jp	.LBB1_94
.Ltmp519:
.LBB1_93:                               # %if.then742
	#DEBUG_VALUE: x264_validate_parameters:h <- $rbx
	.loc	0 626 31 is_stmt 1              # x264_src/encoder/encoder.c:626:31
	movl	$0, 552(%rdi)
.Ltmp520:
.LBB1_94:                               # %if.end746
	#DEBUG_VALUE: x264_validate_parameters:h <- $rbx
	.loc	0 627 9                         # x264_src/encoder/encoder.c:627:9
	cmpl	$0, 576(%rdi)
.Ltmp521:
	.loc	0 627 9 is_stmt 0               # x264_src/encoder/encoder.c:627:9
	je	.LBB1_96
.Ltmp522:
# %bb.95:                               # %if.then750
	#DEBUG_VALUE: x264_validate_parameters:h <- $rbx
	.loc	0 628 33 is_stmt 1              # x264_src/encoder/encoder.c:628:33
	movl	$0, 556(%rdi)
.Ltmp523:
.LBB1_96:                               # %if.end754
	#DEBUG_VALUE: x264_validate_parameters:h <- $rbx
	.loc	0 636 31                        # x264_src/encoder/encoder.c:636:31
	movl	$0, 16(%rdi)
.Ltmp524:
	#DEBUG_VALUE: x264_clip3:v <- undef
	#DEBUG_VALUE: x264_clip3:i_min <- -6
	#DEBUG_VALUE: x264_clip3:i_max <- 6
	.loc	0 639 65                        # x264_src/encoder/encoder.c:639:65
	movq	120(%rdi), %xmm0                # xmm0 = mem[0],zero
.Ltmp525:
	#DEBUG_VALUE: x264_clip3:v <- undef
	#DEBUG_VALUE: x264_clip3:i_min <- -6
	#DEBUG_VALUE: x264_clip3:i_max <- 6
	.loc	5 202 14                        # x264_src/common/common.h:202:14
	movdqa	.LCPI1_10(%rip), %xmm1          # xmm1 = [6,6,u,u]
	movdqa	%xmm1, %xmm2
	pcmpgtd	%xmm0, %xmm2
	pand	%xmm2, %xmm0
	pandn	%xmm1, %xmm2
	por	%xmm0, %xmm2
	movdqa	.LCPI1_11(%rip), %xmm0          # xmm0 = [4294967290,4294967290,u,u]
	movdqa	%xmm2, %xmm1
	pcmpgtd	%xmm0, %xmm1
	pand	%xmm1, %xmm2
	pandn	%xmm0, %xmm1
	por	%xmm2, %xmm1
.Ltmp526:
	.loc	0 639 42                        # x264_src/encoder/encoder.c:639:42
	movq	%xmm1, 120(%rdi)
.Ltmp527:
	#DEBUG_VALUE: x264_clip3:v <- undef
	#DEBUG_VALUE: x264_clip3:i_min <- 0
	#DEBUG_VALUE: x264_clip3:i_max <- 32
	.loc	0 641 55                        # x264_src/encoder/encoder.c:641:55
	movq	468(%rdi), %xmm0                # xmm0 = mem[0],zero
.Ltmp528:
	#DEBUG_VALUE: x264_clip3:v <- undef
	#DEBUG_VALUE: x264_clip3:i_min <- 0
	#DEBUG_VALUE: x264_clip3:i_max <- 32
	.loc	5 202 14                        # x264_src/common/common.h:202:14
	movdqa	.LCPI1_12(%rip), %xmm1          # xmm1 = [32,32,u,u]
	movdqa	%xmm1, %xmm2
	pcmpgtd	%xmm0, %xmm2
	pand	%xmm2, %xmm0
	pandn	%xmm1, %xmm2
	por	%xmm0, %xmm2
	pxor	%xmm0, %xmm0
	movdqa	%xmm2, %xmm1
	pcmpgtd	%xmm0, %xmm1
	pand	%xmm2, %xmm1
.Ltmp529:
	.loc	0 641 41                        # x264_src/encoder/encoder.c:641:41
	movq	%xmm1, 468(%rdi)
	.loc	0 644 54                        # x264_src/encoder/encoder.c:644:54
	movl	132(%rdi), %ecx
.Ltmp530:
	#DEBUG_VALUE: x264_clip3:v <- $ecx
	.loc	0 646 18                        # x264_src/encoder/encoder.c:646:18
	movl	144(%rdi), %edx
.Ltmp531:
	#DEBUG_VALUE: x264_clip3:i_min <- 0
	#DEBUG_VALUE: x264_clip3:i_max <- 2
	.loc	5 202 14                        # x264_src/common/common.h:202:14
	cmpl	$2, %ecx
	movl	$2, %esi
	cmovll	%ecx, %esi
	xorl	%ecx, %ecx
.Ltmp532:
	testl	%esi, %esi
	cmovgl	%esi, %ecx
.Ltmp533:
	.loc	0 644 31                        # x264_src/encoder/encoder.c:644:31
	movl	%ecx, 132(%rdi)
.Ltmp534:
	.loc	0 646 47                        # x264_src/encoder/encoder.c:646:47
	cmpl	$3, %edx
	jb	.LBB1_97
.Ltmp535:
# %bb.100:                              # %if.then793
	#DEBUG_VALUE: x264_validate_parameters:h <- $rbx
	.loc	0 647 31                        # x264_src/encoder/encoder.c:647:31
	movl	$0, 144(%rdi)
.Ltmp536:
	.loc	0 649 26                        # x264_src/encoder/encoder.c:649:26
	movl	412(%rdi), %ecx
	.loc	0 649 52 is_stmt 0              # x264_src/encoder/encoder.c:649:52
	cmpl	$5, %ecx
	jae	.LBB1_101
.Ltmp537:
.LBB1_98:                               # %if.end812
	#DEBUG_VALUE: x264_validate_parameters:h <- $rbx
	.loc	0 652 26 is_stmt 1              # x264_src/encoder/encoder.c:652:26
	movl	416(%rdi), %edx
	.loc	0 652 37 is_stmt 0              # x264_src/encoder/encoder.c:652:37
	cmpl	$3, %edx
.Ltmp538:
	.loc	0 652 9                         # x264_src/encoder/encoder.c:652:9
	jg	.LBB1_102
.Ltmp539:
.LBB1_99:                               # %if.end822.thread
	#DEBUG_VALUE: x264_validate_parameters:h <- $rbx
	.loc	0 653 37 is_stmt 1              # x264_src/encoder/encoder.c:653:37
	movl	$4, 416(%rdi)
	jmp	.LBB1_104
.Ltmp540:
.LBB1_97:                               # %if.end796
	#DEBUG_VALUE: x264_validate_parameters:h <- $rbx
	.loc	0 649 26                        # x264_src/encoder/encoder.c:649:26
	movl	412(%rdi), %ecx
	.loc	0 649 52 is_stmt 0              # x264_src/encoder/encoder.c:649:52
	cmpl	$5, %ecx
	jb	.LBB1_98
.Ltmp541:
.LBB1_101:                              # %if.then808
	#DEBUG_VALUE: x264_validate_parameters:h <- $rbx
	.loc	0 651 38 is_stmt 1              # x264_src/encoder/encoder.c:651:38
	movl	$1, 412(%rdi)
	movl	$1, %ecx
.Ltmp542:
	.loc	0 652 26                        # x264_src/encoder/encoder.c:652:26
	movl	416(%rdi), %edx
	.loc	0 652 37 is_stmt 0              # x264_src/encoder/encoder.c:652:37
	cmpl	$3, %edx
.Ltmp543:
	.loc	0 652 9                         # x264_src/encoder/encoder.c:652:9
	jle	.LBB1_99
.Ltmp544:
.LBB1_102:                              # %if.end822
	#DEBUG_VALUE: x264_validate_parameters:h <- $rbx
	.loc	0 654 37 is_stmt 1              # x264_src/encoder/encoder.c:654:37
	cmpl	$17, %edx
	setb	%dl
	cmpl	$2, %ecx
	setae	%sil
	.loc	0 654 42 is_stmt 0              # x264_src/encoder/encoder.c:654:42
	orb	%dl, %sil
	jne	.LBB1_104
.Ltmp545:
# %bb.103:                              # %if.end838.thread
	#DEBUG_VALUE: x264_validate_parameters:h <- $rbx
	.loc	0 655 37 is_stmt 1              # x264_src/encoder/encoder.c:655:37
	movl	$16, 416(%rdi)
	jmp	.LBB1_108
.Ltmp546:
.LBB1_104:                              # %if.end838
	#DEBUG_VALUE: x264_validate_parameters:h <- $rbx
	.loc	0 656 38                        # x264_src/encoder/encoder.c:656:38
	cmpl	$4, %ecx
	.loc	0 656 54 is_stmt 0              # x264_src/encoder/encoder.c:656:54
	jne	.LBB1_108
.Ltmp547:
# %bb.105:                              # %land.lhs.true844
	#DEBUG_VALUE: x264_validate_parameters:h <- $rbx
	.loc	0 657 10 is_stmt 1              # x264_src/encoder/encoder.c:657:10
	cmpl	$0, 25812(%rdi)
	.loc	0 657 27 is_stmt 0              # x264_src/encoder/encoder.c:657:27
	jne	.LBB1_107
.Ltmp548:
# %bb.106:                              # %lor.lhs.false848
	#DEBUG_VALUE: x264_validate_parameters:h <- $rbx
	.loc	0 657 47                        # x264_src/encoder/encoder.c:657:47
	movl	428(%rdi), %ecx
	.loc	0 657 63                        # x264_src/encoder/encoder.c:657:63
	cmpl	$1, %ecx
.Ltmp549:
	.loc	0 656 9 is_stmt 1               # x264_src/encoder/encoder.c:656:9
	jg	.LBB1_109
.Ltmp550:
.LBB1_107:                              # %if.then854
	#DEBUG_VALUE: x264_validate_parameters:h <- $rbx
	.loc	0 658 38                        # x264_src/encoder/encoder.c:658:38
	movl	$3, 412(%rdi)
.Ltmp551:
.LBB1_108:                              # %if.end858thread-pre-split
	#DEBUG_VALUE: x264_validate_parameters:h <- $rbx
	.loc	0 659 69                        # x264_src/encoder/encoder.c:659:69
	movl	428(%rdi), %ecx
.Ltmp552:
.LBB1_109:                              # %if.end858
	#DEBUG_VALUE: x264_validate_parameters:h <- $rbx
	#DEBUG_VALUE: x264_clip3:v <- $ecx
	#DEBUG_VALUE: x264_clip3:i_min <- 0
	#DEBUG_VALUE: x264_clip3:i_max <- 10
	.loc	5 202 14                        # x264_src/common/common.h:202:14
	cmpl	$10, %ecx
	movl	$10, %esi
	cmovll	%ecx, %esi
	xorl	%edx, %edx
	testl	%esi, %esi
	cmovlel	%edx, %esi
.Ltmp553:
	.loc	0 659 38                        # x264_src/encoder/encoder.c:659:38
	movl	%esi, 428(%rdi)
	.loc	0 660 43                        # x264_src/encoder/encoder.c:660:43
	cmpl	$0, 436(%rdi)
	.loc	0 660 79 is_stmt 0              # x264_src/encoder/encoder.c:660:79
	je	.LBB1_111
.Ltmp554:
# %bb.110:                              # %land.rhs869
	#DEBUG_VALUE: x264_validate_parameters:h <- $rbx
	.loc	0 660 109                       # x264_src/encoder/encoder.c:660:109
	cmpl	$2, 80(%rdi)
	setge	%dl
.Ltmp555:
.LBB1_111:                              # %land.end874
	#DEBUG_VALUE: x264_validate_parameters:h <- $rbx
	.loc	0 660 79                        # x264_src/encoder/encoder.c:660:79
	movzbl	%dl, %edx
	.loc	0 660 41                        # x264_src/encoder/encoder.c:660:41
	movl	%edx, 436(%rdi)
	.loc	0 663 28 is_stmt 1              # x264_src/encoder/encoder.c:663:28
	movl	384(%rdi), %edx
	.loc	0 661 28                        # x264_src/encoder/encoder.c:661:28
	movl	388(%rdi), %r8d
	movl	%r8d, %esi
	andl	$307, %esi                      # imm = 0x133
	movl	%esi, 388(%rdi)
	.loc	0 663 28                        # x264_src/encoder/encoder.c:663:28
	movl	%edx, %r9d
	andl	$3, %r9d
	movl	%r9d, 384(%rdi)
.Ltmp556:
	.loc	0 664 34                        # x264_src/encoder/encoder.c:664:34
	testb	$16, %r8b
.Ltmp557:
	.loc	0 664 9 is_stmt 0               # x264_src/encoder/encoder.c:664:9
	jne	.LBB1_113
.Ltmp558:
# %bb.112:                              # %if.then891
	#DEBUG_VALUE: x264_validate_parameters:h <- $rbx
	.loc	0 665 32 is_stmt 1              # x264_src/encoder/encoder.c:665:32
	andl	$259, %r8d                      # imm = 0x103
	movl	%r8d, 388(%rdi)
	movl	%r8d, %esi
.Ltmp559:
.LBB1_113:                              # %if.end896
	#DEBUG_VALUE: x264_validate_parameters:h <- $rbx
	.loc	0 666 10                        # x264_src/encoder/encoder.c:666:10
	cmpl	$0, 392(%rdi)
.Ltmp560:
	.loc	0 666 9 is_stmt 0               # x264_src/encoder/encoder.c:666:9
	jne	.LBB1_115
.Ltmp561:
# %bb.114:                              # %if.then901
	#DEBUG_VALUE: x264_validate_parameters:h <- $rbx
	.loc	0 668 32 is_stmt 1              # x264_src/encoder/encoder.c:668:32
	andl	$305, %esi                      # imm = 0x131
	movl	%esi, 388(%rdi)
	.loc	0 669 32                        # x264_src/encoder/encoder.c:669:32
	andl	$1, %edx
	movl	%edx, 384(%rdi)
.Ltmp562:
.LBB1_115:                              # %if.end910
	#DEBUG_VALUE: x264_validate_parameters:h <- $rbx
	.loc	0 671 71                        # x264_src/encoder/encoder.c:671:71
	movl	408(%rdi), %edx
.Ltmp563:
	#DEBUG_VALUE: x264_clip3:v <- $edx
	#DEBUG_VALUE: x264_clip3:i_min <- -12
	#DEBUG_VALUE: x264_clip3:i_max <- 12
	.loc	5 202 14                        # x264_src/common/common.h:202:14
	cmpl	$12, %edx
	movl	$12, %r8d
	cmovll	%edx, %r8d
	cmpl	$-11, %r8d
	movl	$-12, %esi
	cmovgel	%r8d, %esi
.Ltmp564:
	.loc	0 671 41                        # x264_src/encoder/encoder.c:671:41
	movl	%esi, 408(%rdi)
	xorl	%r8d, %r8d
.Ltmp565:
	.loc	0 672 10                        # x264_src/encoder/encoder.c:672:10
	cmpl	$0, 128(%rdi)
	movl	$0, %edx
.Ltmp566:
	.loc	0 672 9 is_stmt 0               # x264_src/encoder/encoder.c:672:9
	je	.LBB1_117
.Ltmp567:
# %bb.116:                              # %if.end910.if.end925_crit_edge
	#DEBUG_VALUE: x264_validate_parameters:h <- $rbx
	.loc	0 674 63 is_stmt 1              # x264_src/encoder/encoder.c:674:63
	movl	440(%rdi), %edx
.Ltmp568:
.LBB1_117:                              # %if.end925
	#DEBUG_VALUE: x264_validate_parameters:h <- $rbx
	#DEBUG_VALUE: x264_clip3:v <- $edx
	#DEBUG_VALUE: x264_clip3:i_min <- 0
	#DEBUG_VALUE: x264_clip3:i_max <- 2
	.loc	5 202 14                        # x264_src/common/common.h:202:14
	cmpl	$2, %edx
	movl	$2, %r9d
	cmovll	%edx, %r9d
	testl	%r9d, %r9d
	cmovgl	%r9d, %r8d
.Ltmp569:
	.loc	0 674 32                        # x264_src/encoder/encoder.c:674:32
	movl	%r8d, 440(%rdi)
.Ltmp570:
	.loc	0 675 10                        # x264_src/encoder/encoder.c:675:10
	cmpl	$0, 464(%rdi)
.Ltmp571:
	.loc	0 675 9 is_stmt 0               # x264_src/encoder/encoder.c:675:9
	jne	.LBB1_119
.Ltmp572:
# %bb.118:                              # %if.then937
	#DEBUG_VALUE: x264_validate_parameters:h <- $rbx
	.loc	0 677 35 is_stmt 1              # x264_src/encoder/encoder.c:677:35
	movq	$0, 456(%rdi)
.Ltmp573:
.LBB1_119:                              # %if.end942
	#DEBUG_VALUE: x264_validate_parameters:h <- $rbx
	.loc	0 680 10                        # x264_src/encoder/encoder.c:680:10
	testl	%edx, %edx
.Ltmp574:
	.loc	0 680 9 is_stmt 0               # x264_src/encoder/encoder.c:680:9
	jle	.LBB1_121
.Ltmp575:
# %bb.120:                              # %if.end942.if.end951_crit_edge
	#DEBUG_VALUE: x264_validate_parameters:h <- $rbx
	.loc	0 683 68 is_stmt 1              # x264_src/encoder/encoder.c:683:68
	movd	460(%rdi), %xmm1                # xmm1 = mem[0],zero,zero,zero
	jmp	.LBB1_122
.Ltmp576:
.LBB1_121:
	#DEBUG_VALUE: x264_validate_parameters:h <- $rbx
	.loc	0 0 68 is_stmt 0                # x264_src/encoder/encoder.c:0:68
	pxor	%xmm1, %xmm1
.Ltmp577:
.LBB1_122:                              # %if.end951
	#DEBUG_VALUE: x264_validate_parameters:h <- $rbx
	#DEBUG_VALUE: x264_clip3f:v <- undef
	#DEBUG_VALUE: x264_clip3f:f_min <- 0.000000e+00
	#DEBUG_VALUE: x264_clip3f:f_max <- 1.000000e+01
	#DEBUG_VALUE: x264_clip3f:v <- undef
	#DEBUG_VALUE: x264_clip3f:f_min <- 0.000000e+00
	#DEBUG_VALUE: x264_clip3f:f_max <- 1.000000e+01
	.loc	5 207 17 is_stmt 1              # x264_src/common/common.h:207:17
	movd	456(%rdi), %xmm0                # xmm0 = mem[0],zero,zero,zero
	punpckldq	%xmm1, %xmm0            # xmm0 = xmm0[0],xmm1[0],xmm0[1],xmm1[1]
	pxor	%xmm1, %xmm1
	.loc	5 207 14 is_stmt 0              # x264_src/common/common.h:207:14
	movaps	.LCPI1_13(%rip), %xmm2          # xmm2 = [1.0E+1,1.0E+1,u,u]
.Ltmp578:
	.loc	0 682 33 is_stmt 1              # x264_src/encoder/encoder.c:682:33
	minps	%xmm0, %xmm2
	cmpnltps	%xmm1, %xmm0
	andps	%xmm2, %xmm0
	.loc	0 682 31 is_stmt 0              # x264_src/encoder/encoder.c:682:31
	movlps	%xmm0, 456(%rdi)
.Ltmp579:
	.loc	0 684 42 is_stmt 1              # x264_src/encoder/encoder.c:684:42
	cmpl	$5, %ecx
.Ltmp580:
	.loc	0 684 9 is_stmt 0               # x264_src/encoder/encoder.c:684:9
	jg	.LBB1_124
.Ltmp581:
# %bb.123:                              # %if.then975
	#DEBUG_VALUE: x264_validate_parameters:h <- $rbx
	.loc	0 685 35 is_stmt 1              # x264_src/encoder/encoder.c:685:35
	movl	$0, 456(%rdi)
	xorps	%xmm3, %xmm3
	jmp	.LBB1_125
.Ltmp582:
.LBB1_124:
	#DEBUG_VALUE: x264_validate_parameters:h <- $rbx
	#DEBUG_VALUE: x264_clip3f:f_min <- 0.000000e+00
	#DEBUG_VALUE: x264_clip3f:f_max <- 1.000000e+01
	.loc	0 0 35 is_stmt 0                # x264_src/encoder/encoder.c:0:35
	movaps	%xmm0, %xmm3
.Ltmp583:
.LBB1_125:                              # %if.end979
	#DEBUG_VALUE: x264_validate_parameters:h <- $rbx
	movss	.LCPI1_14(%rip), %xmm2          # xmm2 = [2.5E-1,0.0E+0,0.0E+0,0.0E+0]
	.loc	0 691 9 is_stmt 1               # x264_src/encoder/encoder.c:691:9
	xorl	%r8d, %r8d
	ucomiss	%xmm3, %xmm2
	seta	%r8b
	.loc	0 693 27                        # x264_src/encoder/encoder.c:693:27
	shufps	$85, %xmm0, %xmm0               # xmm0 = xmm0[1,1,1,1]
	movaps	%xmm0, %xmm4
	mulss	%xmm2, %xmm4
	.loc	0 686 22                        # x264_src/encoder/encoder.c:686:22
	unpcklps	%xmm4, %xmm3                    # xmm3 = xmm3[0],xmm4[0],xmm3[1],xmm4[1]
	mulps	.LCPI1_15(%rip), %xmm3
	cvtps2pd	%xmm3, %xmm3
	addpd	.LCPI1_16(%rip), %xmm3
	cvttpd2dq	%xmm3, %xmm3
	.loc	0 691 9                         # x264_src/encoder/encoder.c:691:9
	orl	$-2, %r8d
.Ltmp584:
	.loc	0 695 9                         # x264_src/encoder/encoder.c:695:9
	pshufd	$80, %xmm3, %xmm4               # xmm4 = xmm3[0,0,1,1]
	pcmpeqd	%xmm1, %xmm4
	movmskpd	%xmm4, %r10d
	xorl	%r9d, %r9d
.Ltmp585:
	.loc	0 691 9                         # x264_src/encoder/encoder.c:691:9
	testb	$1, %r10b
	cmovnel	%r9d, %r8d
	addl	%r8d, %esi
	.loc	0 695 9                         # x264_src/encoder/encoder.c:695:9
	xorl	%r8d, %r8d
	ucomiss	%xmm0, %xmm2
	seta	%r8b
	orl	$-2, %r8d
	testb	$2, %r10b
	cmovnel	%r9d, %r8d
	addl	%esi, %r8d
.Ltmp586:
	#DEBUG_VALUE: x264_clip3:v <- $r8d
	#DEBUG_VALUE: x264_clip3:i_min <- -12
	#DEBUG_VALUE: x264_clip3:i_max <- 12
	.loc	5 202 14                        # x264_src/common/common.h:202:14
	cmpl	$-11, %r8d
	movl	$-12, %esi
	cmovgel	%r8d, %esi
.Ltmp587:
	.loc	0 686 20                        # x264_src/encoder/encoder.c:686:20
	movq	%xmm3, 16428(%rdi)
	.loc	0 697 41                        # x264_src/encoder/encoder.c:697:41
	movl	%esi, 408(%rdi)
	.loc	0 698 53                        # x264_src/encoder/encoder.c:698:53
	movl	544(%rdi), %r8d
.Ltmp588:
	#DEBUG_VALUE: x264_clip3:v <- $r8d
	#DEBUG_VALUE: x264_clip3:i_min <- 0
	#DEBUG_VALUE: x264_clip3:i_max <- 2
	.loc	5 202 14                        # x264_src/common/common.h:202:14
	cmpl	$2, %r8d
	movl	$2, %esi
	cmovll	%r8d, %esi
	testl	%esi, %esi
	cmovlel	%r9d, %esi
.Ltmp589:
	.loc	0 698 27                        # x264_src/encoder/encoder.c:698:27
	movl	%esi, 544(%rdi)
	.loc	0 699 58                        # x264_src/encoder/encoder.c:699:58
	movss	548(%rdi), %xmm0                # xmm0 = mem[0],zero,zero,zero
	movss	.LCPI1_17(%rip), %xmm1          # xmm1 = [3.0E+0,0.0E+0,0.0E+0,0.0E+0]
.Ltmp590:
	#DEBUG_VALUE: x264_clip3f:v <- undef
	#DEBUG_VALUE: x264_clip3f:f_min <- 0.000000e+00
	#DEBUG_VALUE: x264_clip3f:f_max <- 3.000000e+00
	.loc	0 699 33 is_stmt 0              # x264_src/encoder/encoder.c:699:33
	minss	%xmm0, %xmm1
	xorps	%xmm2, %xmm2
	cmpltss	%xmm2, %xmm0
	andnps	%xmm1, %xmm0
	.loc	0 699 31                        # x264_src/encoder/encoder.c:699:31
	movss	%xmm0, 548(%rdi)
.Ltmp591:
	.loc	0 700 35 is_stmt 1              # x264_src/encoder/encoder.c:700:35
	ucomiss	%xmm2, %xmm0
.Ltmp592:
	.loc	0 700 9 is_stmt 0               # x264_src/encoder/encoder.c:700:9
	jne	.LBB1_129
	jp	.LBB1_129
.Ltmp593:
# %bb.126:                              # %if.end1060.thread
	#DEBUG_VALUE: x264_validate_parameters:h <- $rbx
	.loc	0 701 31 is_stmt 1              # x264_src/encoder/encoder.c:701:31
	movl	$0, 544(%rdi)
.Ltmp594:
.LBB1_127:                              # %land.lhs.true1065
	#DEBUG_VALUE: x264_validate_parameters:h <- $rbx
	.loc	0 703 35                        # x264_src/encoder/encoder.c:703:35
	cmpl	$0, 552(%rdi)
.Ltmp595:
	.loc	0 703 9 is_stmt 0               # x264_src/encoder/encoder.c:703:9
	je	.LBB1_130
.Ltmp596:
# %bb.128:                              # %if.then1070
	#DEBUG_VALUE: x264_validate_parameters:h <- $rbx
	.loc	0 705 31 is_stmt 1              # x264_src/encoder/encoder.c:705:31
	movq	$1, 544(%rdi)
	movl	$1, %esi
	jmp	.LBB1_131
.Ltmp597:
.LBB1_129:                              # %if.end1060
	#DEBUG_VALUE: x264_validate_parameters:h <- $rbx
	.loc	0 703 10                        # x264_src/encoder/encoder.c:703:10
	testl	%r8d, %r8d
	jg	.LBB1_131
	jmp	.LBB1_127
.Ltmp598:
.LBB1_130:
	#DEBUG_VALUE: x264_validate_parameters:h <- $rbx
	.loc	0 0 10 is_stmt 0                # x264_src/encoder/encoder.c:0:10
	xorl	%esi, %esi
.Ltmp599:
.LBB1_131:                              # %if.end1077
	#DEBUG_VALUE: x264_validate_parameters:h <- $rbx
	.loc	0 708 71 is_stmt 1              # x264_src/encoder/encoder.c:708:71
	movl	452(%rdi), %r8d
.Ltmp600:
	#DEBUG_VALUE: x264_clip3:v <- $r8d
	#DEBUG_VALUE: x264_clip3:i_min <- 0
	#DEBUG_VALUE: x264_clip3:i_max <- 65536
	.loc	5 202 14                        # x264_src/common/common.h:202:14
	cmpl	$65536, %r8d                    # imm = 0x10000
	movl	$65536, %r9d                    # imm = 0x10000
	cmovll	%r8d, %r9d
	xorl	%r8d, %r8d
.Ltmp601:
	testl	%r9d, %r9d
	cmovgl	%r9d, %r8d
.Ltmp602:
	.loc	0 708 40                        # x264_src/encoder/encoder.c:708:40
	movl	%r8d, 452(%rdi)
.Ltmp603:
	.loc	0 709 42                        # x264_src/encoder/encoder.c:709:42
	cmpl	$10, %ecx
	.loc	0 709 48 is_stmt 0              # x264_src/encoder/encoder.c:709:48
	jl	.LBB1_135
.Ltmp604:
# %bb.132:                              # %land.lhs.true1090
	#DEBUG_VALUE: x264_validate_parameters:h <- $rbx
	.loc	0 709 79                        # x264_src/encoder/encoder.c:709:79
	cmpl	$2, %edx
	.loc	0 709 84                        # x264_src/encoder/encoder.c:709:84
	jl	.LBB1_134
.Ltmp605:
# %bb.133:                              # %land.lhs.true1090
	#DEBUG_VALUE: x264_validate_parameters:h <- $rbx
	testl	%esi, %esi
	jne	.LBB1_135
.Ltmp606:
.LBB1_134:                              # %if.then1101
	#DEBUG_VALUE: x264_validate_parameters:h <- $rbx
	.loc	0 710 42 is_stmt 1              # x264_src/encoder/encoder.c:710:42
	movl	$9, 428(%rdi)
.Ltmp607:
.LBB1_135:                              # %if.end1105
	#DEBUG_VALUE: x264_validate_parameters:h <- $rbx
	.loc	0 714 22                        # x264_src/encoder/encoder.c:714:22
	movl	32(%rdi), %ecx
	.loc	0 714 34 is_stmt 0              # x264_src/encoder/encoder.c:714:34
	testl	%ecx, %ecx
.Ltmp608:
	#DEBUG_VALUE: l <- undef
	.loc	0 714 13                        # x264_src/encoder/encoder.c:714:13
	js	.LBB1_140
.Ltmp609:
# %bb.136:                              # %while.cond.preheader
	#DEBUG_VALUE: x264_validate_parameters:h <- $rbx
	.loc	0 727 23 is_stmt 1              # x264_src/encoder/encoder.c:727:23
	movq	x264_levels@GOTPCREL(%rip), %r14
.Ltmp610:
	#DEBUG_VALUE: l <- $r14
	movl	(%r14), %eax
	.loc	0 727 20 is_stmt 0              # x264_src/encoder/encoder.c:727:20
	testl	%eax, %eax
	.loc	0 727 33                        # x264_src/encoder/encoder.c:727:33
	je	.LBB1_139
.Ltmp611:
	.p2align	4, 0x90
.LBB1_137:                              # %land.rhs1154
                                        # =>This Inner Loop Header: Depth=1
	#DEBUG_VALUE: x264_validate_parameters:h <- $rbx
	#DEBUG_VALUE: l <- $r14
	#DEBUG_VALUE: l <- $r14
	.loc	0 727 49                        # x264_src/encoder/encoder.c:727:49
	cmpl	%ecx, %eax
	je	.LBB1_147
.Ltmp612:
# %bb.138:                              # %while.body
                                        #   in Loop: Header=BB1_137 Depth=1
	#DEBUG_VALUE: x264_validate_parameters:h <- $rbx
	#DEBUG_VALUE: l <- $r14
	.loc	0 727 23                        # x264_src/encoder/encoder.c:727:23
	movl	52(%r14), %eax
	.loc	0 728 18 is_stmt 1              # x264_src/encoder/encoder.c:728:18
	addq	$52, %r14
.Ltmp613:
	#DEBUG_VALUE: l <- $r14
	.loc	0 727 20                        # x264_src/encoder/encoder.c:727:20
	testl	%eax, %eax
	.loc	0 727 33 is_stmt 0              # x264_src/encoder/encoder.c:727:33
	jne	.LBB1_137
.Ltmp614:
.LBB1_139:                              # %if.then1166
	#DEBUG_VALUE: x264_validate_parameters:h <- $rbx
	#DEBUG_VALUE: l <- $r14
	.loc	0 731 17 is_stmt 1              # x264_src/encoder/encoder.c:731:17
	movl	$.L.str.69, %edx
	xorl	%esi, %esi
	xorl	%eax, %eax
	callq	x264_log@PLT
.Ltmp615:
	.loc	0 0 17 is_stmt 0                # x264_src/encoder/encoder.c:0:17
	jmp	.LBB1_28
.Ltmp616:
.LBB1_140:                              # %if.then1109
	#DEBUG_VALUE: x264_validate_parameters:h <- $rbx
	#DEBUG_VALUE: maxrate_bak <- $ebp
	.loc	0 717 41 is_stmt 1              # x264_src/encoder/encoder.c:717:41
	cmpl	$2, 488(%rdi)
	.loc	0 717 56 is_stmt 0              # x264_src/encoder/encoder.c:717:56
	jne	.LBB1_143
.Ltmp617:
# %bb.141:                              # %land.lhs.true1118
	#DEBUG_VALUE: x264_validate_parameters:h <- $rbx
	#DEBUG_VALUE: maxrate_bak <- $ebp
	.loc	0 717 89                        # x264_src/encoder/encoder.c:717:89
	cmpl	$0, 528(%rdi)
.Ltmp618:
	.loc	0 717 17                        # x264_src/encoder/encoder.c:717:17
	jg	.LBB1_143
.Ltmp619:
# %bb.142:                              # %if.then1124
	#DEBUG_VALUE: x264_validate_parameters:h <- $rbx
	#DEBUG_VALUE: maxrate_bak <- $ebp
	.loc	0 718 71 is_stmt 1              # x264_src/encoder/encoder.c:718:71
	addl	%eax, %eax
	.loc	0 718 47 is_stmt 0              # x264_src/encoder/encoder.c:718:47
	movl	%eax, 524(%rdi)
.Ltmp620:
.LBB1_143:                              # %if.end1132
	#DEBUG_VALUE: x264_validate_parameters:h <- $rbx
	#DEBUG_VALUE: maxrate_bak <- $ebp
	.loc	0 719 25 is_stmt 1              # x264_src/encoder/encoder.c:719:25
	leaq	1896(%rdi), %rax
	.loc	0 719 20 is_stmt 0              # x264_src/encoder/encoder.c:719:20
	movq	%rax, 3200(%rdi)
	.loc	0 720 45 is_stmt 1              # x264_src/encoder/encoder.c:720:45
	movl	644(%rdi), %esi
	.loc	0 720 13 is_stmt 0              # x264_src/encoder/encoder.c:720:13
	movq	%rax, %rdi
	movq	%rbx, %rdx
	callq	x264_sps_init@PLT
.Ltmp621:
	.loc	0 0 13                          # x264_src/encoder/encoder.c:0:13
	movq	%rbx, %rdi
	.loc	0 721 42 is_stmt 1              # x264_src/encoder/encoder.c:721:42
	movq	x264_levels@GOTPCREL(%rip), %r12
	movl	(%r12), %r15d
.Ltmp622:
	.p2align	4, 0x90
.LBB1_144:                              # %do.body
                                        # =>This Inner Loop Header: Depth=1
	#DEBUG_VALUE: x264_validate_parameters:h <- $rbx
	#DEBUG_VALUE: maxrate_bak <- $ebp
	.loc	0 0 0 is_stmt 0                 # x264_src/encoder/encoder.c:0:0
	movq	%r12, %r14
.Ltmp623:
	#DEBUG_VALUE: l <- $r12
	.loc	0 721 37                        # x264_src/encoder/encoder.c:721:37
	movl	%r15d, 32(%rdi)
	.loc	0 722 29 is_stmt 1              # x264_src/encoder/encoder.c:722:29
	movl	52(%r12), %r15d
	.loc	0 722 24 is_stmt 0              # x264_src/encoder/encoder.c:722:24
	testl	%r15d, %r15d
	.loc	0 722 39                        # x264_src/encoder/encoder.c:722:39
	je	.LBB1_146
.Ltmp624:
# %bb.145:                              # %land.lhs.true1141
                                        #   in Loop: Header=BB1_144 Depth=1
	#DEBUG_VALUE: x264_validate_parameters:h <- $rbx
	#DEBUG_VALUE: l <- $r12
	#DEBUG_VALUE: maxrate_bak <- $ebp
	.loc	0 722 0                         # x264_src/encoder/encoder.c:722:0
	leaq	52(%r14), %r12
.Ltmp625:
	#DEBUG_VALUE: l <- $r14
	.loc	0 722 42                        # x264_src/encoder/encoder.c:722:42
	movq	%rbx, %rdi
	xorl	%esi, %esi
	callq	x264_validate_levels@PLT
.Ltmp626:
	.loc	0 0 42                          # x264_src/encoder/encoder.c:0:42
	movq	%rbx, %rdi
	.loc	0 722 42                        # x264_src/encoder/encoder.c:722:42
	testl	%eax, %eax
	.loc	0 722 71                        # x264_src/encoder/encoder.c:722:71
	jne	.LBB1_144
.Ltmp627:
.LBB1_146:                              # %do.end
	#DEBUG_VALUE: x264_validate_parameters:h <- $rbx
	#DEBUG_VALUE: l <- $r14
	#DEBUG_VALUE: maxrate_bak <- $ebp
	#DEBUG_VALUE: l <- $r14
	.loc	0 723 43 is_stmt 1              # x264_src/encoder/encoder.c:723:43
	movl	%ebp, 524(%rdi)
.Ltmp628:
.LBB1_147:                              # %if.end1170
	#DEBUG_VALUE: x264_validate_parameters:h <- $rbx
	#DEBUG_VALUE: l <- $r14
	#DEBUG_VALUE: l <- $r14
	.loc	0 735 30                        # x264_src/encoder/encoder.c:735:30
	movl	420(%rdi), %eax
	.loc	0 735 41 is_stmt 0              # x264_src/encoder/encoder.c:735:41
	testl	%eax, %eax
.Ltmp629:
	.loc	0 735 13                        # x264_src/encoder/encoder.c:735:13
	jle	.LBB1_149
.Ltmp630:
# %bb.148:                              # %if.else1181
	#DEBUG_VALUE: x264_validate_parameters:h <- $rbx
	#DEBUG_VALUE: l <- $r14
	.loc	0 738 103 is_stmt 1             # x264_src/encoder/encoder.c:738:103
	movl	136(%rdi), %ecx
	movl	$512, %edx                      # imm = 0x200
	.loc	0 738 91 is_stmt 0              # x264_src/encoder/encoder.c:738:91
	shrl	%cl, %edx
.Ltmp631:
	#DEBUG_VALUE: x264_clip3:i_max <- $edx
	.loc	5 202 14 is_stmt 1              # x264_src/common/common.h:202:14
	cmpl	%edx, %eax
	cmovbl	%eax, %edx
.Ltmp632:
	#DEBUG_VALUE: x264_clip3:v <- $eax
	#DEBUG_VALUE: x264_clip3:i_min <- 32
	.loc	5 202 17 is_stmt 0              # x264_src/common/common.h:202:17
	cmpl	$32, %eax
	movl	$32, %esi
	.loc	5 202 14                        # x264_src/common/common.h:202:14
	cmovael	%edx, %esi
	jmp	.LBB1_150
.Ltmp633:
.LBB1_149:                              # %if.then1175
	#DEBUG_VALUE: x264_validate_parameters:h <- $rbx
	#DEBUG_VALUE: l <- $r14
	.loc	0 736 46 is_stmt 1              # x264_src/encoder/encoder.c:736:46
	movl	24(%r14), %esi
	.loc	0 736 67 is_stmt 0              # x264_src/encoder/encoder.c:736:67
	movl	136(%rdi), %ecx
	.loc	0 736 55                        # x264_src/encoder/encoder.c:736:55
	sarl	%cl, %esi
.Ltmp634:
.LBB1_150:                              # %if.end1192
	#DEBUG_VALUE: x264_validate_parameters:h <- $rbx
	#DEBUG_VALUE: l <- $r14
	.loc	0 0 0                           # x264_src/encoder/encoder.c:0:0
	movl	%esi, 420(%rdi)
.Ltmp635:
	.loc	0 741 69 is_stmt 1              # x264_src/encoder/encoder.c:741:69
	movl	396(%rdi), %eax
.Ltmp636:
	#DEBUG_VALUE: x264_clip3:v <- $eax
	#DEBUG_VALUE: x264_clip3:i_min <- 0
	#DEBUG_VALUE: x264_clip3:i_max <- 2
	.loc	5 202 14                        # x264_src/common/common.h:202:14
	cmpl	$2, %eax
	movl	$2, %edx
	cmovll	%eax, %edx
	xorl	%r8d, %r8d
	testl	%edx, %edx
	cmovgl	%edx, %r8d
.Ltmp637:
	.loc	0 741 38                        # x264_src/encoder/encoder.c:741:38
	movl	%r8d, 396(%rdi)
.Ltmp638:
	.loc	0 742 10                        # x264_src/encoder/encoder.c:742:10
	testl	%eax, %eax
	.loc	0 742 43 is_stmt 0              # x264_src/encoder/encoder.c:742:43
	jle	.LBB1_168
.Ltmp639:
.LBB1_151:                              # %if.end1225
	#DEBUG_VALUE: x264_validate_parameters:h <- $rbx
	.loc	0 745 12 is_stmt 1              # x264_src/encoder/encoder.c:745:12
	movl	1852(%rdi), %ecx
	.loc	0 745 28 is_stmt 0              # x264_src/encoder/encoder.c:745:28
	cmpl	$2, %ecx
.Ltmp640:
	.loc	0 745 9                         # x264_src/encoder/encoder.c:745:9
	jl	.LBB1_152
.Ltmp641:
# %bb.162:                              # %if.then1229
	#DEBUG_VALUE: x264_validate_parameters:h <- $rbx
	.loc	0 747 34 is_stmt 1              # x264_src/encoder/encoder.c:747:34
	movl	424(%rdi), %eax
.Ltmp642:
	#DEBUG_VALUE: r <- $eax
	.loc	0 749 15                        # x264_src/encoder/encoder.c:749:15
	testl	%eax, %eax
.Ltmp643:
	.loc	0 749 13 is_stmt 0              # x264_src/encoder/encoder.c:749:13
	jg	.LBB1_164
.Ltmp644:
# %bb.163:                              # %if.then1234
	#DEBUG_VALUE: x264_validate_parameters:h <- $rbx
	#DEBUG_VALUE: r <- $eax
	.loc	0 755 39 is_stmt 1              # x264_src/encoder/encoder.c:755:39
	movl	24(%rdi), %eax
.Ltmp645:
	.loc	0 755 48 is_stmt 0              # x264_src/encoder/encoder.c:755:48
	addl	$24, %eax
	.loc	0 755 70                        # x264_src/encoder/encoder.c:755:70
	cltd
	idivl	%ecx
                                        # kill: def $eax killed $eax def $rax
	.loc	0 755 91                        # x264_src/encoder/encoder.c:755:91
	movl	%eax, %ecx
	addl	$-24, %ecx
.Ltmp646:
	#DEBUG_VALUE: max_range <- $ecx
	.loc	0 756 27 is_stmt 1              # x264_src/encoder/encoder.c:756:27
	shrl	$31, %ecx
.Ltmp647:
	addl	%ecx, %eax
	addl	$-24, %eax
	sarl	%eax
.Ltmp648:
	#DEBUG_VALUE: r <- $eax
.LBB1_164:                              # %if.end1242
	#DEBUG_VALUE: x264_validate_parameters:h <- $rbx
	#DEBUG_VALUE: r <- $eax
	#DEBUG_VALUE: r <- $eax
	.loc	0 758 13                        # x264_src/encoder/encoder.c:758:13
	movl	416(%rdi), %ecx
	cmpl	%ecx, %eax
	cmovgl	%eax, %ecx
.Ltmp649:
	#DEBUG_VALUE: r <- $ecx
	.loc	0 759 13                        # x264_src/encoder/encoder.c:759:13
	cmpl	%esi, %ecx
	cmovgel	%esi, %ecx
.Ltmp650:
	#DEBUG_VALUE: r <- $ecx
	.loc	0 761 17                        # x264_src/encoder/encoder.c:761:17
	movl	%ecx, %r14d
	andl	$-16, %r14d
	.loc	0 761 24 is_stmt 0              # x264_src/encoder/encoder.c:761:24
	leal	8(%r14), %eax
.Ltmp651:
	#DEBUG_VALUE: r2 <- $eax
	.loc	0 762 13 is_stmt 1              # x264_src/encoder/encoder.c:762:13
	addl	$24, %r14d
.Ltmp652:
	.loc	0 762 16 is_stmt 0              # x264_src/encoder/encoder.c:762:16
	cmpl	%ecx, %eax
.Ltmp653:
	.loc	0 762 13                        # x264_src/encoder/encoder.c:762:13
	cmovgel	%eax, %r14d
.Ltmp654:
	#DEBUG_VALUE: r2 <- $r14d
	.loc	0 764 9 is_stmt 1               # x264_src/encoder/encoder.c:764:9
	movl	$.L.str.70, %edx
	movq	%rbx, %rdi
	movl	$3, %esi
	movl	%r14d, %ecx
.Ltmp655:
	xorl	%eax, %eax
	callq	x264_log@PLT
.Ltmp656:
	.loc	0 0 9 is_stmt 0                 # x264_src/encoder/encoder.c:0:9
	movq	%rbx, %rdi
	.loc	0 765 44 is_stmt 1              # x264_src/encoder/encoder.c:765:44
	movl	%r14d, 424(%rbx)
	xorps	%xmm0, %xmm0
.Ltmp657:
	.loc	0 768 29                        # x264_src/encoder/encoder.c:768:29
	ucomiss	596(%rdi), %xmm0
.Ltmp658:
	.loc	0 768 9 is_stmt 0               # x264_src/encoder/encoder.c:768:9
	ja	.LBB1_165
.Ltmp659:
.LBB1_153:                              # %if.end1286
	#DEBUG_VALUE: x264_validate_parameters:h <- $rbx
	.loc	0 770 39 is_stmt 1              # x264_src/encoder/encoder.c:770:39
	ucomiss	600(%rdi), %xmm0
.Ltmp660:
	.loc	0 770 9 is_stmt 0               # x264_src/encoder/encoder.c:770:9
	jbe	.LBB1_154
.Ltmp661:
.LBB1_166:                              # %if.then1291
	#DEBUG_VALUE: x264_validate_parameters:h <- $rbx
	.loc	0 771 39 is_stmt 1              # x264_src/encoder/encoder.c:771:39
	movl	$0, 600(%rdi)
.Ltmp662:
	.loc	0 773 23                        # x264_src/encoder/encoder.c:773:23
	andl	$31, 644(%rdi)
.Ltmp663:
	.loc	0 775 30                        # x264_src/encoder/encoder.c:775:30
	cmpl	$1, 368(%rdi)
.Ltmp664:
	.loc	0 775 9 is_stmt 0               # x264_src/encoder/encoder.c:775:9
	jle	.LBB1_167
.Ltmp665:
.LBB1_155:                              # %if.end1309
	#DEBUG_VALUE: x264_validate_parameters:h <- $rbx
	.loc	0 781 9 is_stmt 1               # x264_src/encoder/encoder.c:781:9
	cmpl	$0, 136(%rdi)
.Ltmp666:
	.loc	0 781 9 is_stmt 0               # x264_src/encoder/encoder.c:781:9
	je	.LBB1_157
.Ltmp667:
.LBB1_156:                              # %if.then1313
	#DEBUG_VALUE: x264_validate_parameters:h <- $rbx
	.loc	0 782 31 is_stmt 1              # x264_src/encoder/encoder.c:782:31
	movl	$1, 676(%rdi)
.Ltmp668:
.LBB1_157:                              # %if.end1315
	#DEBUG_VALUE: x264_validate_parameters:h <- $rbx
	.loc	0 784 18                        # x264_src/encoder/encoder.c:784:18
	movl	40(%rdi), %eax
	.loc	0 784 9 is_stmt 0               # x264_src/encoder/encoder.c:784:9
	testl	%eax, %eax
	.loc	0 784 28                        # x264_src/encoder/encoder.c:784:28
	je	.LBB1_173
.Ltmp669:
# %bb.158:                              # %land.lhs.true1318
	#DEBUG_VALUE: x264_validate_parameters:h <- $rbx
	.loc	0 784 32                        # x264_src/encoder/encoder.c:784:32
	cmpl	$0, 528(%rdi)
.Ltmp670:
	.loc	0 784 9                         # x264_src/encoder/encoder.c:784:9
	je	.LBB1_171
.Ltmp671:
# %bb.159:                              # %if.end1326
	#DEBUG_VALUE: x264_validate_parameters:h <- $rbx
	.loc	0 790 28 is_stmt 1              # x264_src/encoder/encoder.c:790:28
	cmpl	$2, %eax
	.loc	0 790 48 is_stmt 0              # x264_src/encoder/encoder.c:790:48
	jne	.LBB1_173
.Ltmp672:
# %bb.160:                              # %land.lhs.true1331
	#DEBUG_VALUE: x264_validate_parameters:h <- $rbx
	.loc	0 791 46 is_stmt 1              # x264_src/encoder/encoder.c:791:46
	movl	524(%rdi), %eax
	.loc	0 791 31 is_stmt 0              # x264_src/encoder/encoder.c:791:31
	cmpl	%eax, 508(%rdi)
	sete	%cl
	testl	%eax, %eax
	setne	%al
	.loc	0 791 64                        # x264_src/encoder/encoder.c:791:64
	testb	%al, %cl
	jne	.LBB1_173
.Ltmp673:
# %bb.161:
	#DEBUG_VALUE: x264_validate_parameters:h <- $rbx
	.loc	0 0 64                          # x264_src/encoder/encoder.c:0:64
	movl	$1, %ebp
	movl	$.L.str.72, %edx
	jmp	.LBB1_172
.Ltmp674:
.LBB1_152:                              # %if.end1277
	#DEBUG_VALUE: x264_validate_parameters:h <- $rbx
	xorps	%xmm0, %xmm0
.Ltmp675:
	.loc	0 768 29 is_stmt 1              # x264_src/encoder/encoder.c:768:29
	ucomiss	596(%rdi), %xmm0
.Ltmp676:
	.loc	0 768 9 is_stmt 0               # x264_src/encoder/encoder.c:768:9
	jbe	.LBB1_153
.Ltmp677:
.LBB1_165:                              # %if.then1282
	#DEBUG_VALUE: x264_validate_parameters:h <- $rbx
	.loc	0 769 29 is_stmt 1              # x264_src/encoder/encoder.c:769:29
	movl	$0, 596(%rdi)
.Ltmp678:
	.loc	0 770 39                        # x264_src/encoder/encoder.c:770:39
	ucomiss	600(%rdi), %xmm0
.Ltmp679:
	.loc	0 770 9 is_stmt 0               # x264_src/encoder/encoder.c:770:9
	ja	.LBB1_166
.Ltmp680:
.LBB1_154:                              # %if.end1295
	#DEBUG_VALUE: x264_validate_parameters:h <- $rbx
	.loc	0 773 23 is_stmt 1              # x264_src/encoder/encoder.c:773:23
	andl	$31, 644(%rdi)
.Ltmp681:
	.loc	0 775 30                        # x264_src/encoder/encoder.c:775:30
	cmpl	$1, 368(%rdi)
.Ltmp682:
	.loc	0 775 9 is_stmt 0               # x264_src/encoder/encoder.c:775:9
	jg	.LBB1_155
.Ltmp683:
.LBB1_167:                              # %if.then1302
	#DEBUG_VALUE: x264_validate_parameters:h <- $rbx
	.loc	0 777 33 is_stmt 1              # x264_src/encoder/encoder.c:777:33
	movq	$0, 476(%rdi)
.Ltmp684:
	.loc	0 781 9                         # x264_src/encoder/encoder.c:781:9
	cmpl	$0, 136(%rdi)
.Ltmp685:
	.loc	0 781 9 is_stmt 0               # x264_src/encoder/encoder.c:781:9
	jne	.LBB1_156
	jmp	.LBB1_157
.Ltmp686:
.LBB1_168:                              # %land.lhs.true1207
	#DEBUG_VALUE: x264_validate_parameters:h <- $rbx
	.loc	0 742 46 is_stmt 1              # x264_src/encoder/encoder.c:742:46
	cmpl	$0, 552(%rdi)
	.loc	0 742 68 is_stmt 0              # x264_src/encoder/encoder.c:742:68
	je	.LBB1_151
.Ltmp687:
# %bb.169:                              # %land.lhs.true1212
	#DEBUG_VALUE: x264_validate_parameters:h <- $rbx
	.loc	0 742 71                        # x264_src/encoder/encoder.c:742:71
	cmpl	$0, 464(%rdi)
	setne	%al
	testl	%ecx, %ecx
	sete	%cl
	.loc	0 742 94                        # x264_src/encoder/encoder.c:742:94
	andb	%al, %cl
	cmpb	$1, %cl
	jne	.LBB1_151
.Ltmp688:
# %bb.170:                              # %if.then1221
	#DEBUG_VALUE: x264_validate_parameters:h <- $rbx
	.loc	0 743 42 is_stmt 1              # x264_src/encoder/encoder.c:743:42
	movl	$-1, 396(%rdi)
	jmp	.LBB1_151
.Ltmp689:
.LBB1_171:
	#DEBUG_VALUE: x264_validate_parameters:h <- $rbx
	.loc	0 0 42 is_stmt 0                # x264_src/encoder/encoder.c:0:42
	xorl	%ebp, %ebp
	movl	$.L.str.71, %edx
.Ltmp690:
.LBB1_172:                              # %if.end1348.sink.split
	#DEBUG_VALUE: x264_validate_parameters:h <- $rbx
	movq	%rbx, %rdi
	movl	$1, %esi
	xorl	%eax, %eax
	callq	x264_log@PLT
.Ltmp691:
	movq	%rbx, %rdi
	movl	%ebp, 40(%rbx)
.Ltmp692:
.LBB1_173:                              # %if.end1348
	#DEBUG_VALUE: x264_validate_parameters:h <- $rbx
	.loc	0 799 5 is_stmt 1               # x264_src/encoder/encoder.c:799:5
	xorl	%eax, %eax
	cmpl	$0, 128(%rdi)
	setne	%al
	movl	%eax, 128(%rdi)
	.loc	0 801 5                         # x264_src/encoder/encoder.c:801:5
	xorl	%eax, %eax
	cmpl	$0, 116(%rdi)
	setne	%al
	movl	%eax, 116(%rdi)
	.loc	0 803 5                         # x264_src/encoder/encoder.c:803:5
	movq	8(%rdi), %xmm2                  # xmm2 = mem[0],zero
	xorps	%xmm0, %xmm0
	pcmpeqd	%xmm0, %xmm2
	movdqa	.LCPI1_18(%rip), %xmm1          # xmm1 = [1,1,u,u]
	pandn	%xmm1, %xmm2
	movq	%xmm2, 8(%rdi)
	.loc	0 804 5                         # x264_src/encoder/encoder.c:804:5
	movq	136(%rdi), %xmm2                # xmm2 = mem[0],zero
	pcmpeqd	%xmm0, %xmm2
	pandn	%xmm1, %xmm2
	movq	%xmm2, 136(%rdi)
	.loc	0 805 5                         # x264_src/encoder/encoder.c:805:5
	xorl	%eax, %eax
	cmpl	$0, 96(%rdi)
	setne	%al
	movl	%eax, 96(%rdi)
	.loc	0 806 5                         # x264_src/encoder/encoder.c:806:5
	xorl	%eax, %eax
	cmpl	$0, 372(%rdi)
	setne	%al
	movl	%eax, 372(%rdi)
	.loc	0 807 5                         # x264_src/encoder/encoder.c:807:5
	movq	632(%rdi), %xmm2                # xmm2 = mem[0],zero
	pcmpeqd	%xmm0, %xmm2
	pandn	%xmm1, %xmm2
	movq	%xmm2, 632(%rdi)
	.loc	0 809 5                         # x264_src/encoder/encoder.c:809:5
	xorl	%eax, %eax
	cmpl	$0, 640(%rdi)
	setne	%al
	movl	%eax, 640(%rdi)
	.loc	0 810 5                         # x264_src/encoder/encoder.c:810:5
	xorl	%eax, %eax
	cmpl	$0, 648(%rdi)
	setne	%al
	movl	%eax, 648(%rdi)
	.loc	0 811 5                         # x264_src/encoder/encoder.c:811:5
	movq	676(%rdi), %xmm2                # xmm2 = mem[0],zero
	pcmpeqd	%xmm0, %xmm2
	pandn	%xmm1, %xmm2
	movq	%xmm2, 676(%rdi)
	.loc	0 813 5                         # x264_src/encoder/encoder.c:813:5
	xorl	%eax, %eax
	cmpl	$0, 392(%rdi)
	setne	%al
	movl	%eax, 392(%rdi)
	.loc	0 814 5                         # x264_src/encoder/encoder.c:814:5
	xorl	%eax, %eax
	cmpl	$0, 400(%rdi)
	setne	%al
	movl	%eax, 400(%rdi)
	.loc	0 815 5                         # x264_src/encoder/encoder.c:815:5
	movq	432(%rdi), %xmm2                # xmm2 = mem[0],zero
	pcmpeqd	%xmm0, %xmm2
	pandn	%xmm1, %xmm2
	movq	%xmm2, 432(%rdi)
	.loc	0 817 5                         # x264_src/encoder/encoder.c:817:5
	movq	444(%rdi), %xmm2                # xmm2 = mem[0],zero
	pcmpeqd	%xmm0, %xmm2
	pandn	%xmm1, %xmm2
	movq	%xmm2, 444(%rdi)
	.loc	0 819 5                         # x264_src/encoder/encoder.c:819:5
	xorl	%eax, %eax
	cmpl	$0, 464(%rdi)
	setne	%al
	movl	%eax, 464(%rdi)
	.loc	0 820 5                         # x264_src/encoder/encoder.c:820:5
	movq	476(%rdi), %xmm2                # xmm2 = mem[0],zero
	pcmpeqd	%xmm0, %xmm2
	pandn	%xmm1, %xmm2
	movq	%xmm2, 476(%rdi)
	.loc	0 822 5                         # x264_src/encoder/encoder.c:822:5
	xorl	%eax, %eax
	cmpl	$0, 560(%rdi)
	setne	%al
	movl	%eax, 560(%rdi)
	.loc	0 823 5                         # x264_src/encoder/encoder.c:823:5
	xorl	%eax, %eax
	cmpl	$0, 576(%rdi)
	setne	%al
	movl	%eax, 576(%rdi)
	.loc	0 824 5                         # x264_src/encoder/encoder.c:824:5
	xorl	%eax, %eax
	cmpl	$0, 552(%rdi)
	setne	%al
	movl	%eax, 552(%rdi)
	xorl	%eax, %eax
	jmp	.LBB1_29
.Ltmp693:
.Lfunc_end1:
	.size	x264_validate_parameters, .Lfunc_end1-x264_validate_parameters
	.cfi_endproc
	.file	27 "x264_src/common" "cpu.h" md5 0x0beb41363cc0e5253fa85a15dbb3a435
                                        # -- End function
	.p2align	4, 0x90                         # -- Begin function x264_set_aspect_ratio
	.type	x264_set_aspect_ratio,@function
x264_set_aspect_ratio:                  # @x264_set_aspect_ratio
.Lfunc_begin2:
	.cfi_startproc
# %bb.0:                                # %entry
	#DEBUG_VALUE: x264_set_aspect_ratio:h <- $rdi
	#DEBUG_VALUE: x264_set_aspect_ratio:param <- $rsi
	#DEBUG_VALUE: x264_set_aspect_ratio:initial <- $edx
	#DEBUG_VALUE: i_w <- [DW_OP_plus_uconst 4, DW_OP_deref] $rsp
	#DEBUG_VALUE: i_h <- [DW_OP_deref] $rsp
	.loc	0 847 20 prologue_end           # x264_src/encoder/encoder.c:847:20
	movl	48(%rsi), %eax
	.loc	0 847 32 is_stmt 0              # x264_src/encoder/encoder.c:847:32
	testl	%eax, %eax
	.loc	0 847 36                        # x264_src/encoder/encoder.c:847:36
	jle	.LBB2_12
.Ltmp694:
# %bb.1:                                # %land.lhs.true
	#DEBUG_VALUE: x264_set_aspect_ratio:h <- $rdi
	#DEBUG_VALUE: x264_set_aspect_ratio:param <- $rsi
	#DEBUG_VALUE: x264_set_aspect_ratio:initial <- $edx
	.loc	0 847 50                        # x264_src/encoder/encoder.c:847:50
	movl	44(%rsi), %ecx
	.loc	0 847 63                        # x264_src/encoder/encoder.c:847:63
	testl	%ecx, %ecx
.Ltmp695:
	.loc	0 847 9                         # x264_src/encoder/encoder.c:847:9
	jle	.LBB2_12
.Ltmp696:
# %bb.2:                                # %if.then
	#DEBUG_VALUE: x264_set_aspect_ratio:h <- $rdi
	#DEBUG_VALUE: x264_set_aspect_ratio:param <- $rsi
	#DEBUG_VALUE: x264_set_aspect_ratio:initial <- $edx
	pushq	%rbp
	.cfi_def_cfa_offset 16
	pushq	%r15
	.cfi_def_cfa_offset 24
	pushq	%r14
	.cfi_def_cfa_offset 32
	pushq	%rbx
	.cfi_def_cfa_offset 40
	pushq	%rax
	.cfi_def_cfa_offset 48
	.cfi_offset %rbx, -40
	.cfi_offset %r14, -32
	.cfi_offset %r15, -24
	.cfi_offset %rbp, -16
	movl	%edx, %ebx
.Ltmp697:
	.loc	0 849 18 is_stmt 1              # x264_src/encoder/encoder.c:849:18
	movl	%eax, 4(%rsp)
.Ltmp698:
	#DEBUG_VALUE: i_w <- [DW_OP_plus_uconst 4, DW_OP_deref] $rsp
	.loc	0 850 18                        # x264_src/encoder/encoder.c:850:18
	movl	%ecx, (%rsp)
	.loc	0 852 39                        # x264_src/encoder/encoder.c:852:39
	movl	44(%rdi), %ebp
.Ltmp699:
	#DEBUG_VALUE: old_h <- $ebp
	#DEBUG_VALUE: i_h <- [DW_OP_deref] $rsp
	.loc	0 0 39 is_stmt 0                # x264_src/encoder/encoder.c:0:39
	movq	%rdi, %r14
	.loc	0 851 39 is_stmt 1              # x264_src/encoder/encoder.c:851:39
	movl	48(%rdi), %r15d
.Ltmp700:
	#DEBUG_VALUE: old_w <- $r15d
	.loc	0 0 39 is_stmt 0                # x264_src/encoder/encoder.c:0:39
	leaq	4(%rsp), %rdi
.Ltmp701:
	#DEBUG_VALUE: x264_set_aspect_ratio:h <- $r14
	movq	%rsp, %rsi
.Ltmp702:
	#DEBUG_VALUE: x264_set_aspect_ratio:param <- [DW_OP_LLVM_entry_value 1] $rsi
	.loc	0 854 9 is_stmt 1               # x264_src/encoder/encoder.c:854:9
	callq	x264_reduce_fraction@PLT
.Ltmp703:
	#DEBUG_VALUE: x264_set_aspect_ratio:initial <- $ebx
	.loc	0 0 9 is_stmt 0                 # x264_src/encoder/encoder.c:0:9
	movl	4(%rsp), %eax
	movl	(%rsp), %ecx
	.loc	0 856 20 is_stmt 1              # x264_src/encoder/encoder.c:856:20
	cmpl	$65536, %eax                    # imm = 0x10000
	setae	%dl
	.loc	0 856 28 is_stmt 0              # x264_src/encoder/encoder.c:856:28
	cmpl	$65536, %ecx                    # imm = 0x10000
	setae	%sil
	orb	%dl, %sil
	.loc	0 856 9                         # x264_src/encoder/encoder.c:856:9
	cmpb	$1, %sil
	jne	.LBB2_5
.Ltmp704:
	.p2align	4, 0x90
.LBB2_3:                                # %while.body
                                        # =>This Inner Loop Header: Depth=1
	#DEBUG_VALUE: x264_set_aspect_ratio:h <- $r14
	#DEBUG_VALUE: x264_set_aspect_ratio:param <- [DW_OP_LLVM_entry_value 1] $rsi
	#DEBUG_VALUE: x264_set_aspect_ratio:initial <- $ebx
	#DEBUG_VALUE: old_h <- $ebp
	#DEBUG_VALUE: old_w <- $r15d
	.loc	0 0 9                           # x264_src/encoder/encoder.c:0:9
	movl	%ecx, %edx
	movl	%eax, %esi
.Ltmp705:
	.loc	0 858 17 is_stmt 1              # x264_src/encoder/encoder.c:858:17
	shrl	%eax
.Ltmp706:
	#DEBUG_VALUE: i_w <- $eax
	.loc	0 859 17                        # x264_src/encoder/encoder.c:859:17
	shrl	%ecx
.Ltmp707:
	#DEBUG_VALUE: i_h <- $ecx
	.loc	0 856 20                        # x264_src/encoder/encoder.c:856:20
	cmpl	$131072, %esi                   # imm = 0x20000
	setae	%sil
	.loc	0 856 28 is_stmt 0              # x264_src/encoder/encoder.c:856:28
	cmpl	$131072, %edx                   # imm = 0x20000
	setae	%dl
	orb	%sil, %dl
	.loc	0 856 9                         # x264_src/encoder/encoder.c:856:9
	jne	.LBB2_3
.Ltmp708:
# %bb.4:                                # %while.cond.while.end_crit_edge
	#DEBUG_VALUE: x264_set_aspect_ratio:h <- $r14
	#DEBUG_VALUE: x264_set_aspect_ratio:param <- [DW_OP_LLVM_entry_value 1] $rsi
	#DEBUG_VALUE: x264_set_aspect_ratio:initial <- $ebx
	#DEBUG_VALUE: i_w <- $eax
	#DEBUG_VALUE: i_h <- $ecx
	#DEBUG_VALUE: old_h <- $ebp
	#DEBUG_VALUE: old_w <- $r15d
	.loc	0 858 17 is_stmt 1              # x264_src/encoder/encoder.c:858:17
	movl	%eax, 4(%rsp)
.Ltmp709:
	#DEBUG_VALUE: i_w <- [DW_OP_plus_uconst 4, DW_OP_deref] $rsp
	.loc	0 859 17                        # x264_src/encoder/encoder.c:859:17
	movl	%ecx, (%rsp)
.Ltmp710:
	#DEBUG_VALUE: i_h <- [DW_OP_deref] $rsp
.LBB2_5:                                # %while.end
	#DEBUG_VALUE: x264_set_aspect_ratio:h <- $r14
	#DEBUG_VALUE: x264_set_aspect_ratio:param <- [DW_OP_LLVM_entry_value 1] $rsi
	#DEBUG_VALUE: x264_set_aspect_ratio:initial <- $ebx
	#DEBUG_VALUE: i_w <- [DW_OP_plus_uconst 4, DW_OP_deref] $rsp
	#DEBUG_VALUE: i_h <- [DW_OP_deref] $rsp
	#DEBUG_VALUE: old_h <- $ebp
	#DEBUG_VALUE: old_w <- $r15d
	.loc	0 0 17 is_stmt 0                # x264_src/encoder/encoder.c:0:17
	leaq	4(%rsp), %rdi
	movq	%rsp, %rsi
	.loc	0 862 9 is_stmt 1               # x264_src/encoder/encoder.c:862:9
	callq	x264_reduce_fraction@PLT
.Ltmp711:
	.loc	0 864 13                        # x264_src/encoder/encoder.c:864:13
	movl	4(%rsp), %ecx
	movl	(%rsp), %r8d
	.loc	0 864 17 is_stmt 0              # x264_src/encoder/encoder.c:864:17
	cmpl	%r15d, %ecx
	.loc	0 864 26                        # x264_src/encoder/encoder.c:864:26
	jne	.LBB2_8
.Ltmp712:
# %bb.6:                                # %lor.lhs.false
	#DEBUG_VALUE: x264_set_aspect_ratio:h <- $r14
	#DEBUG_VALUE: x264_set_aspect_ratio:param <- [DW_OP_LLVM_entry_value 1] $rsi
	#DEBUG_VALUE: x264_set_aspect_ratio:initial <- $ebx
	#DEBUG_VALUE: i_w <- [DW_OP_plus_uconst 4, DW_OP_deref] $rsp
	#DEBUG_VALUE: i_h <- [DW_OP_deref] $rsp
	#DEBUG_VALUE: old_h <- $ebp
	#DEBUG_VALUE: old_w <- $r15d
	.loc	0 0 26                          # x264_src/encoder/encoder.c:0:26
	testl	%ebx, %ebx
	.loc	0 864 42                        # x264_src/encoder/encoder.c:864:42
	jne	.LBB2_8
.Ltmp713:
# %bb.7:                                # %lor.lhs.false
	#DEBUG_VALUE: x264_set_aspect_ratio:h <- $r14
	#DEBUG_VALUE: x264_set_aspect_ratio:param <- [DW_OP_LLVM_entry_value 1] $rsi
	#DEBUG_VALUE: x264_set_aspect_ratio:initial <- $ebx
	#DEBUG_VALUE: i_w <- [DW_OP_plus_uconst 4, DW_OP_deref] $rsp
	#DEBUG_VALUE: i_h <- [DW_OP_deref] $rsp
	#DEBUG_VALUE: old_h <- $ebp
	#DEBUG_VALUE: old_w <- $r15d
	cmpl	%ebp, %r8d
	je	.LBB2_11
.Ltmp714:
.LBB2_8:                                # %if.then19
	#DEBUG_VALUE: x264_set_aspect_ratio:h <- $r14
	#DEBUG_VALUE: x264_set_aspect_ratio:param <- [DW_OP_LLVM_entry_value 1] $rsi
	#DEBUG_VALUE: x264_set_aspect_ratio:initial <- $ebx
	#DEBUG_VALUE: i_w <- [DW_OP_plus_uconst 4, DW_OP_deref] $rsp
	#DEBUG_VALUE: i_h <- [DW_OP_deref] $rsp
	#DEBUG_VALUE: old_h <- $ebp
	#DEBUG_VALUE: old_w <- $r15d
	.loc	0 0 42                          # x264_src/encoder/encoder.c:0:42
	movq	%r14, %rdi
.Ltmp715:
	.loc	0 867 39 is_stmt 1              # x264_src/encoder/encoder.c:867:39
	movq	$0, 44(%r14)
.Ltmp716:
	.loc	0 868 21                        # x264_src/encoder/encoder.c:868:21
	testl	%ecx, %ecx
	sete	%al
	testl	%r8d, %r8d
	sete	%dl
	.loc	0 868 26 is_stmt 0              # x264_src/encoder/encoder.c:868:26
	orb	%al, %dl
	cmpb	$1, %dl
	jne	.LBB2_10
.Ltmp717:
# %bb.9:                                # %if.then29
	#DEBUG_VALUE: x264_set_aspect_ratio:h <- $r14
	#DEBUG_VALUE: x264_set_aspect_ratio:param <- [DW_OP_LLVM_entry_value 1] $rsi
	#DEBUG_VALUE: x264_set_aspect_ratio:initial <- $ebx
	#DEBUG_VALUE: i_w <- [DW_OP_plus_uconst 4, DW_OP_deref] $rsp
	#DEBUG_VALUE: i_h <- [DW_OP_deref] $rsp
	#DEBUG_VALUE: old_h <- $ebp
	#DEBUG_VALUE: old_w <- $r15d
	.loc	0 869 17 is_stmt 1              # x264_src/encoder/encoder.c:869:17
	movl	$.L.str.73, %edx
	movl	$1, %esi
	xorl	%eax, %eax
	callq	x264_log@PLT
.Ltmp718:
	jmp	.LBB2_11
.Ltmp719:
.LBB2_10:                               # %if.else
	#DEBUG_VALUE: x264_set_aspect_ratio:h <- $r14
	#DEBUG_VALUE: x264_set_aspect_ratio:param <- [DW_OP_LLVM_entry_value 1] $rsi
	#DEBUG_VALUE: x264_set_aspect_ratio:initial <- $ebx
	#DEBUG_VALUE: i_w <- [DW_OP_plus_uconst 4, DW_OP_deref] $rsp
	#DEBUG_VALUE: i_h <- [DW_OP_deref] $rsp
	#DEBUG_VALUE: old_h <- $ebp
	#DEBUG_VALUE: old_w <- $r15d
	.loc	0 872 30                        # x264_src/encoder/encoder.c:872:30
	cmpl	$1, %ebx
	movl	$0, %esi
	adcl	$2, %esi
	.loc	0 872 17 is_stmt 0              # x264_src/encoder/encoder.c:872:17
	movl	$.L.str.74, %edx
	movq	%rdi, %rbx
.Ltmp720:
	#DEBUG_VALUE: x264_set_aspect_ratio:initial <- [DW_OP_LLVM_entry_value 1] $edx
	xorl	%eax, %eax
	callq	x264_log@PLT
.Ltmp721:
	.loc	0 873 44 is_stmt 1              # x264_src/encoder/encoder.c:873:44
	movl	4(%rsp), %eax
	.loc	0 873 42 is_stmt 0              # x264_src/encoder/encoder.c:873:42
	movl	%eax, 48(%rbx)
	.loc	0 874 45 is_stmt 1              # x264_src/encoder/encoder.c:874:45
	movl	(%rsp), %eax
	.loc	0 874 43 is_stmt 0              # x264_src/encoder/encoder.c:874:43
	movl	%eax, 44(%rbx)
.Ltmp722:
.LBB2_11:                               # %if.end37
	#DEBUG_VALUE: x264_set_aspect_ratio:h <- $r14
	#DEBUG_VALUE: x264_set_aspect_ratio:param <- [DW_OP_LLVM_entry_value 1] $rsi
	#DEBUG_VALUE: x264_set_aspect_ratio:initial <- [DW_OP_LLVM_entry_value 1] $edx
	#DEBUG_VALUE: i_w <- [DW_OP_plus_uconst 4, DW_OP_deref] $rsp
	#DEBUG_VALUE: i_h <- [DW_OP_deref] $rsp
	#DEBUG_VALUE: old_h <- $ebp
	#DEBUG_VALUE: old_w <- $r15d
	.loc	0 0 43                          # x264_src/encoder/encoder.c:0:43
	addq	$8, %rsp
	.cfi_def_cfa_offset 40
	popq	%rbx
	.cfi_def_cfa_offset 32
	popq	%r14
.Ltmp723:
	#DEBUG_VALUE: x264_set_aspect_ratio:h <- [DW_OP_LLVM_entry_value 1] $rdi
	.cfi_def_cfa_offset 24
	popq	%r15
	.cfi_def_cfa_offset 16
	popq	%rbp
	.cfi_def_cfa_offset 8
	.cfi_restore %rbx
	.cfi_restore %r14
	.cfi_restore %r15
	.cfi_restore %rbp
.Ltmp724:
.LBB2_12:                               # %if.end38
	#DEBUG_VALUE: x264_set_aspect_ratio:h <- [DW_OP_LLVM_entry_value 1] $rdi
	#DEBUG_VALUE: x264_set_aspect_ratio:param <- [DW_OP_LLVM_entry_value 1] $rsi
	#DEBUG_VALUE: x264_set_aspect_ratio:initial <- [DW_OP_LLVM_entry_value 1] $edx
	.loc	0 878 1 is_stmt 1               # x264_src/encoder/encoder.c:878:1
	retq
.Ltmp725:
.Lfunc_end2:
	.size	x264_set_aspect_ratio, .Lfunc_end2-x264_set_aspect_ratio
	.cfi_endproc
                                        # -- End function
	.p2align	4, 0x90                         # -- Begin function mbcmp_init
	.type	mbcmp_init,@function
mbcmp_init:                             # @mbcmp_init
.Lfunc_begin3:
	.cfi_startproc
# %bb.0:                                # %entry
	#DEBUG_VALUE: mbcmp_init:h <- $rdi
	.loc	0 832 17 prologue_end           # x264_src/encoder/encoder.c:832:17
	cmpl	$0, 25812(%rdi)
	.loc	0 832 34 is_stmt 0              # x264_src/encoder/encoder.c:832:34
	je	.LBB3_2
.Ltmp726:
# %bb.1:                                # %.thread174
	#DEBUG_VALUE: mbcmp_init:h <- $rdi
	#DEBUG_VALUE: mbcmp_init:satd <- [DW_OP_stack_value] 0
	.loc	0 833 16 is_stmt 1              # x264_src/encoder/encoder.c:833:16
	leaq	31560(%rdi), %r9
	.loc	0 833 28 is_stmt 0              # x264_src/encoder/encoder.c:833:28
	leaq	31672(%rdi), %rax
	.loc	0 833 5                         # x264_src/encoder/encoder.c:833:5
	movq	32144(%rdi), %rcx
	movq	%rcx, 31864(%rdi)
	movups	32096(%rdi), %xmm0
	movups	32112(%rdi), %xmm1
	movups	32128(%rdi), %xmm2
	movups	%xmm2, 31848(%rdi)
	movups	%xmm1, 31832(%rdi)
	movups	%xmm0, 31816(%rdi)
	movl	$32584, %esi                    # imm = 0x7F48
	movl	$32560, %r8d                    # imm = 0x7F30
	movl	$32536, %r10d                   # imm = 0x7F18
	xorl	%edx, %edx
	movq	%r9, %rcx
	.loc	0 837 34 is_stmt 1              # x264_src/encoder/encoder.c:837:34
	jmp	.LBB3_5
.Ltmp727:
.LBB3_2:                                # %land.end
	#DEBUG_VALUE: mbcmp_init:h <- $rdi
	#DEBUG_VALUE: mbcmp_init:satd <- undef
	.loc	0 833 16                        # x264_src/encoder/encoder.c:833:16
	leaq	31560(%rdi), %rcx
	.loc	0 833 21 is_stmt 0              # x264_src/encoder/encoder.c:833:21
	leaq	31816(%rdi), %rdx
	.loc	0 833 28                        # x264_src/encoder/encoder.c:833:28
	leaq	31672(%rdi), %rax
	.loc	0 832 70 is_stmt 1              # x264_src/encoder/encoder.c:832:70
	cmpl	$2, 428(%rdi)
	.loc	0 833 28                        # x264_src/encoder/encoder.c:833:28
	jl	.LBB3_4
.Ltmp728:
# %bb.3:
	#DEBUG_VALUE: mbcmp_init:h <- $rdi
	.loc	0 833 5 is_stmt 0               # x264_src/encoder/encoder.c:833:5
	movq	48(%rax), %rsi
	movq	%rsi, 48(%rdx)
	movups	(%rax), %xmm0
	movups	16(%rax), %xmm1
	movups	32(%rax), %xmm2
	movups	%xmm2, 32(%rdx)
	movups	%xmm1, 16(%rdx)
	movups	%xmm0, (%rdx)
	movb	$1, %dl
	movl	$32576, %esi                    # imm = 0x7F40
	movl	$32552, %r8d                    # imm = 0x7F28
	movl	$32528, %r10d                   # imm = 0x7F10
	movq	%rax, %r9
	.loc	0 837 34 is_stmt 1              # x264_src/encoder/encoder.c:837:34
	jmp	.LBB3_5
.Ltmp729:
.LBB3_4:
	#DEBUG_VALUE: mbcmp_init:h <- $rdi
	.loc	0 833 5                         # x264_src/encoder/encoder.c:833:5
	movq	32144(%rdi), %rsi
	movq	%rsi, 48(%rdx)
	movups	32096(%rdi), %xmm0
	movups	32112(%rdi), %xmm1
	movups	32128(%rdi), %xmm2
	movups	%xmm2, 32(%rdx)
	movups	%xmm1, 16(%rdx)
	movups	%xmm0, (%rdx)
	movl	$32584, %esi                    # imm = 0x7F48
	movl	$32560, %r8d                    # imm = 0x7F30
	movl	$32536, %r10d                   # imm = 0x7F18
	xorl	%edx, %edx
	movq	%rcx, %r9
.Ltmp730:
.LBB3_5:
	#DEBUG_VALUE: mbcmp_init:h <- $rdi
	.loc	0 834 5                         # x264_src/encoder/encoder.c:834:5
	movq	48(%r9), %r11
	movq	%r11, 31920(%rdi)
	movups	(%r9), %xmm0
	movups	16(%r9), %xmm1
	movups	32(%r9), %xmm2
	movups	%xmm2, 31904(%rdi)
	movups	%xmm1, 31888(%rdi)
	movups	%xmm0, 31872(%rdi)
	.loc	0 835 36                        # x264_src/encoder/encoder.c:835:36
	movq	(%rdi,%r10), %r9
	.loc	0 835 34 is_stmt 0              # x264_src/encoder/encoder.c:835:34
	movq	%r9, 32520(%rdi)
	.loc	0 836 35 is_stmt 1              # x264_src/encoder/encoder.c:836:35
	movq	(%rdi,%r8), %r8
	.loc	0 836 33 is_stmt 0              # x264_src/encoder/encoder.c:836:33
	movq	%r8, 32544(%rdi)
	.loc	0 837 34 is_stmt 1              # x264_src/encoder/encoder.c:837:34
	movq	(%rdi,%rsi), %rsi
.Ltmp731:
	#DEBUG_VALUE: mbcmp_init:satd <- [DW_OP_LLVM_convert 1 7, DW_OP_LLVM_convert 32 7, DW_OP_stack_value] $dl
	.loc	0 837 32 is_stmt 0              # x264_src/encoder/encoder.c:837:32
	movq	%rsi, 32568(%rdi)
	.loc	0 838 42 is_stmt 1              # x264_src/encoder/encoder.c:838:42
	cmpl	$4, 412(%rdi)
	sete	%sil
	.loc	0 840 33                        # x264_src/encoder/encoder.c:840:33
	leaq	32240(%rdi), %r8
	leaq	32352(%rdi), %r9
	.loc	0 841 33                        # x264_src/encoder/encoder.c:841:33
	leaq	32296(%rdi), %r10
	leaq	32408(%rdi), %r11
.Ltmp732:
	#DEBUG_VALUE: mbcmp_init:satd <- undef
	.loc	0 839 30                        # x264_src/encoder/encoder.c:839:30
	testb	%sil, %dl
	cmoveq	%rcx, %rax
	.loc	0 839 5 is_stmt 0               # x264_src/encoder/encoder.c:839:5
	movq	48(%rax), %rcx
	movq	%rcx, 31976(%rdi)
	movups	(%rax), %xmm0
	movups	16(%rax), %xmm1
	movups	32(%rax), %xmm2
	movups	%xmm2, 31960(%rdi)
	movups	%xmm1, 31944(%rdi)
	movups	%xmm0, 31928(%rdi)
	.loc	0 840 33 is_stmt 1              # x264_src/encoder/encoder.c:840:33
	cmovneq	%r9, %r8
	.loc	0 840 5 is_stmt 0               # x264_src/encoder/encoder.c:840:5
	movq	48(%r8), %rax
	movq	%rax, 32032(%rdi)
	movups	(%r8), %xmm0
	movups	16(%r8), %xmm1
	movups	32(%r8), %xmm2
	movups	%xmm2, 32016(%rdi)
	movups	%xmm1, 32000(%rdi)
	movups	%xmm0, 31984(%rdi)
	.loc	0 841 33 is_stmt 1              # x264_src/encoder/encoder.c:841:33
	cmoveq	%r10, %r11
	.loc	0 841 5 is_stmt 0               # x264_src/encoder/encoder.c:841:5
	movq	48(%r11), %rax
	movq	%rax, 32088(%rdi)
	movups	(%r11), %xmm0
	movups	16(%r11), %xmm1
	movups	32(%r11), %xmm2
	movups	%xmm2, 32072(%rdi)
	movups	%xmm1, 32056(%rdi)
	movups	%xmm0, 32040(%rdi)
	.loc	0 842 1 is_stmt 1               # x264_src/encoder/encoder.c:842:1
	retq
.Ltmp733:
.Lfunc_end3:
	.size	mbcmp_init, .Lfunc_end3-mbcmp_init
	.cfi_endproc
                                        # -- End function
	.globl	x264_encoder_reconfig           # -- Begin function x264_encoder_reconfig
	.p2align	4, 0x90
	.type	x264_encoder_reconfig,@function
x264_encoder_reconfig:                  # @x264_encoder_reconfig
.Lfunc_begin4:
	.loc	0 1149 0                        # x264_src/encoder/encoder.c:1149:0
	.cfi_startproc
# %bb.0:                                # %entry
	#DEBUG_VALUE: x264_encoder_reconfig:h <- $rdi
	#DEBUG_VALUE: x264_encoder_reconfig:param <- $rsi
	pushq	%rbp
	.cfi_def_cfa_offset 16
	pushq	%r15
	.cfi_def_cfa_offset 24
	pushq	%r14
	.cfi_def_cfa_offset 32
	pushq	%rbx
	.cfi_def_cfa_offset 40
	pushq	%rax
	.cfi_def_cfa_offset 48
	.cfi_offset %rbx, -40
	.cfi_offset %r14, -32
	.cfi_offset %r15, -24
	.cfi_offset %rbp, -16
	movq	%rsi, %r14
.Ltmp734:
	#DEBUG_VALUE: x264_encoder_reconfig:rc_reconfig <- 0
	.loc	0 1151 19 prologue_end          # x264_src/encoder/encoder.c:1151:19
	movq	704(%rdi), %rax
	.loc	0 1151 33 is_stmt 0             # x264_src/encoder/encoder.c:1151:33
	movslq	1744(%rax), %rax
	.loc	0 1151 9                        # x264_src/encoder/encoder.c:1151:9
	movq	704(%rdi,%rax,8), %rbx
.Ltmp735:
	#DEBUG_VALUE: x264_encoder_reconfig:h <- $rbx
	.loc	0 1152 5 is_stmt 1              # x264_src/encoder/encoder.c:1152:5
	movq	%rbx, %rdi
	xorl	%edx, %edx
	callq	x264_set_aspect_ratio
.Ltmp736:
	#DEBUG_VALUE: x264_encoder_reconfig:param <- $r14
	.loc	0 1154 5                        # x264_src/encoder/encoder.c:1154:5
	movl	80(%r14), %eax
	movl	%eax, 80(%rbx)
	.loc	0 1155 5                        # x264_src/encoder/encoder.c:1155:5
	movl	108(%r14), %eax
	movl	%eax, 108(%rbx)
.Ltmp737:
	.loc	0 1156 9                        # x264_src/encoder/encoder.c:1156:9
	cmpl	$0, 92(%rbx)
.Ltmp738:
	.loc	0 1156 9 is_stmt 0              # x264_src/encoder/encoder.c:1156:9
	je	.LBB4_2
.Ltmp739:
# %bb.1:                                # %if.then
	#DEBUG_VALUE: x264_encoder_reconfig:h <- $rbx
	#DEBUG_VALUE: x264_encoder_reconfig:param <- $r14
	#DEBUG_VALUE: x264_encoder_reconfig:rc_reconfig <- 0
	.loc	0 1157 9 is_stmt 1              # x264_src/encoder/encoder.c:1157:9
	movl	92(%r14), %eax
	movl	%eax, 92(%rbx)
.Ltmp740:
.LBB4_2:                                # %if.end
	#DEBUG_VALUE: x264_encoder_reconfig:h <- $rbx
	#DEBUG_VALUE: x264_encoder_reconfig:param <- $r14
	#DEBUG_VALUE: x264_encoder_reconfig:rc_reconfig <- 0
	.loc	0 1158 5                        # x264_src/encoder/encoder.c:1158:5
	movl	116(%r14), %eax
	movl	%eax, 116(%rbx)
	.loc	0 1159 5                        # x264_src/encoder/encoder.c:1159:5
	movl	120(%r14), %eax
	movl	%eax, 120(%rbx)
	.loc	0 1160 5                        # x264_src/encoder/encoder.c:1160:5
	movl	124(%r14), %eax
	movl	%eax, 124(%rbx)
	.loc	0 1161 5                        # x264_src/encoder/encoder.c:1161:5
	movl	388(%r14), %edx
	movl	%edx, 388(%rbx)
	.loc	0 1162 5                        # x264_src/encoder/encoder.c:1162:5
	movl	384(%r14), %eax
	movl	%eax, 384(%rbx)
	.loc	0 1163 5                        # x264_src/encoder/encoder.c:1163:5
	movl	404(%r14), %eax
	movl	%eax, 404(%rbx)
.Ltmp741:
	.loc	0 1165 26                       # x264_src/encoder/encoder.c:1165:26
	movl	412(%rbx), %eax
	.loc	0 0 0 is_stmt 0                 # x264_src/encoder/encoder.c:0:0
	movl	416(%r14), %ecx
	.loc	0 1165 38                       # x264_src/encoder/encoder.c:1165:38
	cmpl	$3, %eax
	.loc	0 1165 52                       # x264_src/encoder/encoder.c:1165:52
	jl	.LBB4_4
.Ltmp742:
# %bb.3:                                # %lor.lhs.false
	#DEBUG_VALUE: x264_encoder_reconfig:h <- $rbx
	#DEBUG_VALUE: x264_encoder_reconfig:param <- $r14
	#DEBUG_VALUE: x264_encoder_reconfig:rc_reconfig <- 0
	.loc	0 1165 81                       # x264_src/encoder/encoder.c:1165:81
	cmpl	416(%rbx), %ecx
.Ltmp743:
	.loc	0 1165 9                        # x264_src/encoder/encoder.c:1165:9
	jge	.LBB4_5
.Ltmp744:
.LBB4_4:                                # %if.then35
	#DEBUG_VALUE: x264_encoder_reconfig:h <- $rbx
	#DEBUG_VALUE: x264_encoder_reconfig:param <- $r14
	#DEBUG_VALUE: x264_encoder_reconfig:rc_reconfig <- 0
	.loc	0 1166 9 is_stmt 1              # x264_src/encoder/encoder.c:1166:9
	movl	%ecx, 416(%rbx)
.Ltmp745:
.LBB4_5:                                # %if.end41
	#DEBUG_VALUE: x264_encoder_reconfig:h <- $rbx
	#DEBUG_VALUE: x264_encoder_reconfig:param <- $r14
	#DEBUG_VALUE: x264_encoder_reconfig:rc_reconfig <- 0
	.loc	0 1167 5                        # x264_src/encoder/encoder.c:1167:5
	movl	452(%r14), %ecx
	movl	%ecx, 452(%rbx)
.Ltmp746:
	.loc	0 1169 9                        # x264_src/encoder/encoder.c:1169:9
	cmpl	$0, 428(%rbx)
.Ltmp747:
	.loc	0 1169 9 is_stmt 0              # x264_src/encoder/encoder.c:1169:9
	je	.LBB4_6
.Ltmp748:
# %bb.7:                                # %if.then49
	#DEBUG_VALUE: x264_encoder_reconfig:h <- $rbx
	#DEBUG_VALUE: x264_encoder_reconfig:param <- $r14
	#DEBUG_VALUE: x264_encoder_reconfig:rc_reconfig <- 0
	.loc	0 1170 9 is_stmt 1              # x264_src/encoder/encoder.c:1170:9
	movl	428(%r14), %ecx
	movl	%ecx, 428(%rbx)
.Ltmp749:
	.loc	0 832 70                        # x264_src/encoder/encoder.c:832:70
	cmpl	$2, %ecx
	setge	%cl
	jmp	.LBB4_8
.Ltmp750:
.LBB4_6:
	#DEBUG_VALUE: x264_encoder_reconfig:h <- $rbx
	#DEBUG_VALUE: x264_encoder_reconfig:param <- $r14
	#DEBUG_VALUE: x264_encoder_reconfig:rc_reconfig <- 0
	.loc	0 0 70 is_stmt 0                # x264_src/encoder/encoder.c:0:70
	xorl	%ecx, %ecx
.Ltmp751:
.LBB4_8:                                # %if.end55
	#DEBUG_VALUE: x264_encoder_reconfig:h <- $rbx
	#DEBUG_VALUE: x264_encoder_reconfig:param <- $r14
	#DEBUG_VALUE: x264_encoder_reconfig:rc_reconfig <- 0
	.loc	0 1171 5 is_stmt 1              # x264_src/encoder/encoder.c:1171:5
	movl	440(%r14), %esi
	movl	%esi, 440(%rbx)
	.loc	0 1172 5                        # x264_src/encoder/encoder.c:1172:5
	movl	432(%r14), %esi
	movl	%esi, 432(%rbx)
	.loc	0 1173 5                        # x264_src/encoder/encoder.c:1173:5
	movl	448(%r14), %esi
	movl	%esi, 448(%rbx)
	.loc	0 1174 5                        # x264_src/encoder/encoder.c:1174:5
	movl	444(%r14), %esi
	movl	%esi, 444(%rbx)
	.loc	0 1175 5                        # x264_src/encoder/encoder.c:1175:5
	movl	436(%r14), %esi
	movl	%esi, 436(%rbx)
	.loc	0 1176 5                        # x264_src/encoder/encoder.c:1176:5
	movss	456(%r14), %xmm0                # xmm0 = mem[0],zero,zero,zero
	movss	%xmm0, 456(%rbx)
	.loc	0 1177 5                        # x264_src/encoder/encoder.c:1177:5
	movss	460(%r14), %xmm0                # xmm0 = mem[0],zero,zero,zero
	movss	%xmm0, 460(%rbx)
.Ltmp752:
	.loc	0 0 0 is_stmt 0                 # x264_src/encoder/encoder.c:0:0
	movl	412(%r14), %esi
	.loc	0 1179 38 is_stmt 1             # x264_src/encoder/encoder.c:1179:38
	cmpl	$2, %eax
	.loc	0 1179 53 is_stmt 0             # x264_src/encoder/encoder.c:1179:53
	jle	.LBB4_9
.Ltmp753:
# %bb.11:                               # %if.end98
	#DEBUG_VALUE: x264_encoder_reconfig:h <- $rbx
	#DEBUG_VALUE: x264_encoder_reconfig:param <- $r14
	#DEBUG_VALUE: x264_encoder_reconfig:rc_reconfig <- 0
	.loc	0 1180 9 is_stmt 1              # x264_src/encoder/encoder.c:1180:9
	movl	%esi, 412(%rbx)
.Ltmp754:
	.loc	0 1181 38                       # x264_src/encoder/encoder.c:1181:38
	cmpl	$3, %esi
	.loc	0 1181 53 is_stmt 0             # x264_src/encoder/encoder.c:1181:53
	jl	.LBB4_14
.Ltmp755:
# %bb.12:                               # %land.lhs.true
	#DEBUG_VALUE: x264_encoder_reconfig:h <- $rbx
	#DEBUG_VALUE: x264_encoder_reconfig:param <- $r14
	#DEBUG_VALUE: x264_encoder_reconfig:rc_reconfig <- 0
	.loc	0 1181 57                       # x264_src/encoder/encoder.c:1181:57
	cmpl	$0, 14676(%rbx)
.Ltmp756:
	.loc	0 1181 9                        # x264_src/encoder/encoder.c:1181:9
	jne	.LBB4_14
.Ltmp757:
# %bb.13:                               # %if.then104
	#DEBUG_VALUE: x264_encoder_reconfig:h <- $rbx
	#DEBUG_VALUE: x264_encoder_reconfig:param <- $r14
	#DEBUG_VALUE: x264_encoder_reconfig:rc_reconfig <- 0
	.loc	0 1182 32 is_stmt 1             # x264_src/encoder/encoder.c:1182:32
	andl	$-33, %edx
	movl	%edx, 388(%rbx)
	jmp	.LBB4_14
.Ltmp758:
.LBB4_9:                                # %lor.lhs.false88
	#DEBUG_VALUE: x264_encoder_reconfig:h <- $rbx
	#DEBUG_VALUE: x264_encoder_reconfig:param <- $r14
	#DEBUG_VALUE: x264_encoder_reconfig:rc_reconfig <- 0
	.loc	0 1179 83                       # x264_src/encoder/encoder.c:1179:83
	cmpl	$2, %esi
.Ltmp759:
	.loc	0 1179 9 is_stmt 0              # x264_src/encoder/encoder.c:1179:9
	jg	.LBB4_15
.Ltmp760:
# %bb.10:                               # %if.end98.thread277
	#DEBUG_VALUE: x264_encoder_reconfig:h <- $rbx
	#DEBUG_VALUE: x264_encoder_reconfig:param <- $r14
	#DEBUG_VALUE: x264_encoder_reconfig:rc_reconfig <- 0
	.loc	0 1180 9 is_stmt 1              # x264_src/encoder/encoder.c:1180:9
	movl	%esi, 412(%rbx)
.Ltmp761:
.LBB4_14:                               # %if.end108
	#DEBUG_VALUE: x264_encoder_reconfig:h <- $rbx
	#DEBUG_VALUE: x264_encoder_reconfig:param <- $r14
	#DEBUG_VALUE: x264_encoder_reconfig:rc_reconfig <- 0
	.loc	0 0 9 is_stmt 0                 # x264_src/encoder/encoder.c:0:9
	movl	%esi, %eax
.Ltmp762:
.LBB4_15:                               # %if.end108
	#DEBUG_VALUE: x264_encoder_reconfig:h <- $rbx
	#DEBUG_VALUE: x264_encoder_reconfig:param <- $r14
	#DEBUG_VALUE: x264_encoder_reconfig:rc_reconfig <- 0
	.loc	0 1183 12 is_stmt 1             # x264_src/encoder/encoder.c:1183:12
	movq	3328(%rbx), %rdx
	.loc	0 1183 9 is_stmt 0              # x264_src/encoder/encoder.c:1183:9
	cmpl	$0, 60(%rdx)
.Ltmp763:
	.loc	0 1183 9                        # x264_src/encoder/encoder.c:1183:9
	je	.LBB4_17
.Ltmp764:
# %bb.16:                               # %if.then110
	#DEBUG_VALUE: x264_encoder_reconfig:h <- $rbx
	#DEBUG_VALUE: x264_encoder_reconfig:param <- $r14
	#DEBUG_VALUE: x264_encoder_reconfig:rc_reconfig <- 0
	.loc	0 1184 9 is_stmt 1              # x264_src/encoder/encoder.c:1184:9
	movl	392(%r14), %edx
	movl	%edx, 392(%rbx)
.Ltmp765:
.LBB4_17:                               # %if.end115
	#DEBUG_VALUE: x264_encoder_reconfig:h <- $rbx
	#DEBUG_VALUE: x264_encoder_reconfig:param <- $r14
	#DEBUG_VALUE: x264_encoder_reconfig:rc_reconfig <- 0
	.loc	0 1185 30                       # x264_src/encoder/encoder.c:1185:30
	cmpl	$2, 14608(%rbx)
.Ltmp766:
	.loc	0 1185 9 is_stmt 0              # x264_src/encoder/encoder.c:1185:9
	jl	.LBB4_19
.Ltmp767:
# %bb.18:                               # %if.then118
	#DEBUG_VALUE: x264_encoder_reconfig:h <- $rbx
	#DEBUG_VALUE: x264_encoder_reconfig:param <- $r14
	#DEBUG_VALUE: x264_encoder_reconfig:rc_reconfig <- 0
	.loc	0 1186 9 is_stmt 1              # x264_src/encoder/encoder.c:1186:9
	movl	112(%r14), %edx
	movl	%edx, 112(%rbx)
.Ltmp768:
.LBB4_19:                               # %if.end121
	#DEBUG_VALUE: x264_encoder_reconfig:h <- $rbx
	#DEBUG_VALUE: x264_encoder_reconfig:param <- $r14
	#DEBUG_VALUE: x264_encoder_reconfig:rc_reconfig <- 0
	.loc	0 1187 5                        # x264_src/encoder/encoder.c:1187:5
	movl	684(%r14), %edx
	movl	%edx, 684(%rbx)
	.loc	0 1188 5                        # x264_src/encoder/encoder.c:1188:5
	movl	688(%r14), %edx
	movl	%edx, 688(%rbx)
	.loc	0 1189 5                        # x264_src/encoder/encoder.c:1189:5
	movl	692(%r14), %edx
	movl	%edx, 692(%rbx)
	xorl	%ebp, %ebp
.Ltmp769:
	.loc	0 1192 39                       # x264_src/encoder/encoder.c:1192:39
	cmpl	$0, 524(%rbx)
	.loc	0 1192 43 is_stmt 0             # x264_src/encoder/encoder.c:1192:43
	jle	.LBB4_24
.Ltmp770:
# %bb.20:                               # %land.lhs.true130
	#DEBUG_VALUE: x264_encoder_reconfig:h <- $rbx
	#DEBUG_VALUE: x264_encoder_reconfig:param <- $r14
	#DEBUG_VALUE: x264_encoder_reconfig:rc_reconfig <- 0
	.loc	0 1192 76                       # x264_src/encoder/encoder.c:1192:76
	cmpl	$0, 528(%rbx)
	.loc	0 1192 80                       # x264_src/encoder/encoder.c:1192:80
	jle	.LBB4_24
.Ltmp771:
# %bb.21:                               # %land.lhs.true134
	#DEBUG_VALUE: x264_encoder_reconfig:h <- $rbx
	#DEBUG_VALUE: x264_encoder_reconfig:param <- $r14
	#DEBUG_VALUE: x264_encoder_reconfig:rc_reconfig <- 0
	.loc	0 1193 21 is_stmt 1             # x264_src/encoder/encoder.c:1193:21
	movl	524(%r14), %edx
	.loc	0 1193 39 is_stmt 0             # x264_src/encoder/encoder.c:1193:39
	testl	%edx, %edx
	.loc	0 1193 43                       # x264_src/encoder/encoder.c:1193:43
	jle	.LBB4_24
.Ltmp772:
# %bb.22:                               # %land.lhs.true138
	#DEBUG_VALUE: x264_encoder_reconfig:h <- $rbx
	#DEBUG_VALUE: x264_encoder_reconfig:param <- $r14
	#DEBUG_VALUE: x264_encoder_reconfig:rc_reconfig <- 0
	.loc	0 1193 76                       # x264_src/encoder/encoder.c:1193:76
	cmpl	$0, 528(%r14)
.Ltmp773:
	.loc	0 1192 9 is_stmt 1              # x264_src/encoder/encoder.c:1192:9
	jle	.LBB4_24
.Ltmp774:
# %bb.23:                               # %if.then142
	#DEBUG_VALUE: x264_encoder_reconfig:h <- $rbx
	#DEBUG_VALUE: x264_encoder_reconfig:param <- $r14
	#DEBUG_VALUE: x264_encoder_reconfig:rc_reconfig <- 0
	.loc	0 1195 9                        # x264_src/encoder/encoder.c:1195:9
	movl	%edx, 524(%rbx)
	.loc	0 1196 9                        # x264_src/encoder/encoder.c:1196:9
	movl	528(%r14), %edx
	movl	%edx, 528(%rbx)
	.loc	0 1197 9                        # x264_src/encoder/encoder.c:1197:9
	movl	508(%r14), %edx
	movl	%edx, 508(%rbx)
	movl	$1, %ebp
.Ltmp775:
	#DEBUG_VALUE: x264_encoder_reconfig:rc_reconfig <- 1
.LBB4_24:                               # %if.end157
	#DEBUG_VALUE: x264_encoder_reconfig:h <- $rbx
	#DEBUG_VALUE: x264_encoder_reconfig:param <- $r14
	#DEBUG_VALUE: x264_encoder_reconfig:rc_reconfig <- $ebp
	.loc	0 1200 21                       # x264_src/encoder/encoder.c:1200:21
	movss	512(%rbx), %xmm1                # xmm1 = mem[0],zero,zero,zero
	.loc	0 1200 48 is_stmt 0             # x264_src/encoder/encoder.c:1200:48
	movss	512(%r14), %xmm0                # xmm0 = mem[0],zero,zero,zero
	.loc	0 1200 35                       # x264_src/encoder/encoder.c:1200:35
	ucomiss	%xmm0, %xmm1
.Ltmp776:
	.loc	0 1200 9                        # x264_src/encoder/encoder.c:1200:9
	jne	.LBB4_25
	jnp	.LBB4_26
.Ltmp777:
.LBB4_25:                               # %if.then163
	#DEBUG_VALUE: x264_encoder_reconfig:h <- $rbx
	#DEBUG_VALUE: x264_encoder_reconfig:param <- $r14
	#DEBUG_VALUE: x264_encoder_reconfig:rc_reconfig <- $ebp
	.loc	0 1202 9 is_stmt 1              # x264_src/encoder/encoder.c:1202:9
	movss	%xmm0, 512(%rbx)
	movl	$1, %ebp
.Ltmp778:
	#DEBUG_VALUE: x264_encoder_reconfig:rc_reconfig <- 1
.LBB4_26:                               # %if.end169
	#DEBUG_VALUE: x264_encoder_reconfig:h <- $rbx
	#DEBUG_VALUE: x264_encoder_reconfig:param <- $r14
	#DEBUG_VALUE: x264_encoder_reconfig:rc_reconfig <- $ebp
	.loc	0 1205 21                       # x264_src/encoder/encoder.c:1205:21
	movss	516(%rbx), %xmm1                # xmm1 = mem[0],zero,zero,zero
	.loc	0 1205 52 is_stmt 0             # x264_src/encoder/encoder.c:1205:52
	movss	516(%r14), %xmm0                # xmm0 = mem[0],zero,zero,zero
	.loc	0 1205 39                       # x264_src/encoder/encoder.c:1205:39
	ucomiss	%xmm0, %xmm1
.Ltmp779:
	.loc	0 1205 9                        # x264_src/encoder/encoder.c:1205:9
	jne	.LBB4_27
	jnp	.LBB4_28
.Ltmp780:
.LBB4_27:                               # %if.then175
	#DEBUG_VALUE: x264_encoder_reconfig:h <- $rbx
	#DEBUG_VALUE: x264_encoder_reconfig:param <- $r14
	#DEBUG_VALUE: x264_encoder_reconfig:rc_reconfig <- $ebp
	.loc	0 1207 9 is_stmt 1              # x264_src/encoder/encoder.c:1207:9
	movss	%xmm0, 516(%rbx)
	movl	$1, %ebp
.Ltmp781:
	#DEBUG_VALUE: x264_encoder_reconfig:rc_reconfig <- 1
.LBB4_28:                               # %if.end181
	#DEBUG_VALUE: x264_encoder_reconfig:h <- $rbx
	#DEBUG_VALUE: x264_encoder_reconfig:param <- $r14
	#DEBUG_VALUE: x264_encoder_reconfig:rc_reconfig <- $ebp
	#DEBUG_VALUE: mbcmp_init:h <- $rbx
	.loc	0 833 16                        # x264_src/encoder/encoder.c:833:16
	leaq	31560(%rbx), %rdx
	.loc	0 833 21 is_stmt 0              # x264_src/encoder/encoder.c:833:21
	leaq	31816(%rbx), %rdi
	.loc	0 833 28                        # x264_src/encoder/encoder.c:833:28
	leaq	31672(%rbx), %rsi
	.loc	0 832 17 is_stmt 1              # x264_src/encoder/encoder.c:832:17
	cmpl	$0, 25812(%rbx)
	.loc	0 832 34 is_stmt 0              # x264_src/encoder/encoder.c:832:34
	jne	.LBB4_31
.Ltmp782:
# %bb.29:                               # %land.end.i
	#DEBUG_VALUE: x264_encoder_reconfig:h <- $rbx
	#DEBUG_VALUE: x264_encoder_reconfig:param <- $r14
	#DEBUG_VALUE: x264_encoder_reconfig:rc_reconfig <- $ebp
	#DEBUG_VALUE: mbcmp_init:h <- $rbx
	#DEBUG_VALUE: mbcmp_init:satd <- [DW_OP_LLVM_convert 1 7, DW_OP_LLVM_convert 32 7, DW_OP_stack_value] $cl
	.loc	0 833 28 is_stmt 1              # x264_src/encoder/encoder.c:833:28
	testb	%cl, %cl
	je	.LBB4_31
.Ltmp783:
# %bb.30:
	#DEBUG_VALUE: x264_encoder_reconfig:h <- $rbx
	#DEBUG_VALUE: x264_encoder_reconfig:param <- $r14
	#DEBUG_VALUE: x264_encoder_reconfig:rc_reconfig <- $ebp
	#DEBUG_VALUE: mbcmp_init:h <- $rbx
	#DEBUG_VALUE: mbcmp_init:satd <- [DW_OP_LLVM_convert 1 7, DW_OP_LLVM_convert 32 7, DW_OP_stack_value] $cl
	.loc	0 0 28 is_stmt 0                # x264_src/encoder/encoder.c:0:28
	movb	$1, %cl
.Ltmp784:
	movl	$32576, %r8d                    # imm = 0x7F40
	movl	$32552, %r9d                    # imm = 0x7F28
	movl	$32528, %r10d                   # imm = 0x7F10
	movq	%rsi, %r11
	movq	%rsi, %r14
.Ltmp785:
	#DEBUG_VALUE: x264_encoder_reconfig:param <- [DW_OP_LLVM_entry_value 1] $rsi
	.loc	0 833 28                        # x264_src/encoder/encoder.c:833:28
	jmp	.LBB4_32
.Ltmp786:
.LBB4_31:
	#DEBUG_VALUE: x264_encoder_reconfig:h <- $rbx
	#DEBUG_VALUE: x264_encoder_reconfig:param <- $r14
	#DEBUG_VALUE: x264_encoder_reconfig:rc_reconfig <- $ebp
	#DEBUG_VALUE: mbcmp_init:h <- $rbx
	leaq	32096(%rbx), %r11
	movl	$32584, %r8d                    # imm = 0x7F48
	movl	$32560, %r9d                    # imm = 0x7F30
	movl	$32536, %r10d                   # imm = 0x7F18
	xorl	%ecx, %ecx
	movq	%rdx, %r14
.Ltmp787:
	#DEBUG_VALUE: x264_encoder_reconfig:param <- [DW_OP_LLVM_entry_value 1] $rsi
.LBB4_32:                               # %mbcmp_init.exit
	#DEBUG_VALUE: x264_encoder_reconfig:h <- $rbx
	#DEBUG_VALUE: x264_encoder_reconfig:param <- [DW_OP_LLVM_entry_value 1] $rsi
	#DEBUG_VALUE: x264_encoder_reconfig:rc_reconfig <- $ebp
	#DEBUG_VALUE: mbcmp_init:h <- $rbx
	.loc	0 833 5                         # x264_src/encoder/encoder.c:833:5
	movq	48(%r11), %r15
	movq	%r15, 48(%rdi)
	movups	(%r11), %xmm0
	movups	16(%r11), %xmm1
	movups	32(%r11), %xmm2
	movups	%xmm2, 32(%rdi)
	movups	%xmm1, 16(%rdi)
	movups	%xmm0, (%rdi)
	.loc	0 834 5 is_stmt 1               # x264_src/encoder/encoder.c:834:5
	movq	48(%r14), %rdi
	movq	%rdi, 31920(%rbx)
	movups	(%r14), %xmm0
	movups	16(%r14), %xmm1
	movups	32(%r14), %xmm2
	movups	%xmm2, 31904(%rbx)
	movups	%xmm1, 31888(%rbx)
	movups	%xmm0, 31872(%rbx)
	.loc	0 835 36                        # x264_src/encoder/encoder.c:835:36
	movq	(%rbx,%r10), %rdi
	.loc	0 835 34 is_stmt 0              # x264_src/encoder/encoder.c:835:34
	movq	%rdi, 32520(%rbx)
	.loc	0 836 35 is_stmt 1              # x264_src/encoder/encoder.c:836:35
	movq	(%rbx,%r9), %rdi
	.loc	0 836 33 is_stmt 0              # x264_src/encoder/encoder.c:836:33
	movq	%rdi, 32544(%rbx)
	.loc	0 837 34 is_stmt 1              # x264_src/encoder/encoder.c:837:34
	movq	(%rbx,%r8), %rdi
.Ltmp788:
	#DEBUG_VALUE: mbcmp_init:satd <- [DW_OP_LLVM_convert 1 7, DW_OP_LLVM_convert 32 7, DW_OP_stack_value] $cl
	.loc	0 837 32 is_stmt 0              # x264_src/encoder/encoder.c:837:32
	movq	%rdi, 32568(%rbx)
	.loc	0 838 42 is_stmt 1              # x264_src/encoder/encoder.c:838:42
	cmpl	$4, %eax
	sete	%al
	.loc	0 840 33                        # x264_src/encoder/encoder.c:840:33
	leaq	32240(%rbx), %rdi
	leaq	32352(%rbx), %r8
	.loc	0 841 33                        # x264_src/encoder/encoder.c:841:33
	leaq	32296(%rbx), %r9
	leaq	32408(%rbx), %r10
.Ltmp789:
	#DEBUG_VALUE: mbcmp_init:satd <- undef
	.loc	0 839 30                        # x264_src/encoder/encoder.c:839:30
	testb	%al, %cl
	cmovneq	%rsi, %rdx
	.loc	0 839 5 is_stmt 0               # x264_src/encoder/encoder.c:839:5
	movq	48(%rdx), %rax
	movq	%rax, 31976(%rbx)
	movups	(%rdx), %xmm0
	movups	16(%rdx), %xmm1
	movups	32(%rdx), %xmm2
	movups	%xmm2, 31960(%rbx)
	movups	%xmm1, 31944(%rbx)
	movups	%xmm0, 31928(%rbx)
	.loc	0 840 33 is_stmt 1              # x264_src/encoder/encoder.c:840:33
	cmovneq	%r8, %rdi
	.loc	0 840 5 is_stmt 0               # x264_src/encoder/encoder.c:840:5
	movups	(%rdi), %xmm0
	movups	16(%rdi), %xmm1
	movups	32(%rdi), %xmm2
	movups	%xmm0, 31984(%rbx)
	movups	%xmm1, 32000(%rbx)
	movups	%xmm2, 32016(%rbx)
	movq	48(%rdi), %rax
	movq	%rax, 32032(%rbx)
	.loc	0 841 33 is_stmt 1              # x264_src/encoder/encoder.c:841:33
	cmoveq	%r9, %r10
	.loc	0 841 5 is_stmt 0               # x264_src/encoder/encoder.c:841:5
	movups	(%r10), %xmm0
	movups	16(%r10), %xmm1
	movups	32(%r10), %xmm2
	movups	%xmm0, 32040(%rbx)
	movups	%xmm1, 32056(%rbx)
	movups	%xmm2, 32072(%rbx)
	movq	48(%r10), %rax
	movq	%rax, 32088(%rbx)
.Ltmp790:
	.loc	0 1215 15 is_stmt 1             # x264_src/encoder/encoder.c:1215:15
	movq	%rbx, %rdi
	callq	x264_validate_parameters
.Ltmp791:
	#DEBUG_VALUE: x264_encoder_reconfig:ret <- $eax
	.loc	0 0 15 is_stmt 0                # x264_src/encoder/encoder.c:0:15
	testl	%ebp, %ebp
.Ltmp792:
	.loc	0 1222 14 is_stmt 1             # x264_src/encoder/encoder.c:1222:14
	je	.LBB4_35
.Ltmp793:
# %bb.33:                               # %mbcmp_init.exit
	#DEBUG_VALUE: x264_encoder_reconfig:h <- $rbx
	#DEBUG_VALUE: x264_encoder_reconfig:param <- [DW_OP_LLVM_entry_value 1] $rsi
	#DEBUG_VALUE: x264_encoder_reconfig:rc_reconfig <- $ebp
	#DEBUG_VALUE: x264_encoder_reconfig:ret <- $eax
	testl	%eax, %eax
	jne	.LBB4_35
.Ltmp794:
# %bb.34:                               # %if.then185
	#DEBUG_VALUE: x264_encoder_reconfig:h <- $rbx
	#DEBUG_VALUE: x264_encoder_reconfig:param <- [DW_OP_LLVM_entry_value 1] $rsi
	#DEBUG_VALUE: x264_encoder_reconfig:rc_reconfig <- $ebp
	#DEBUG_VALUE: x264_encoder_reconfig:ret <- $eax
	.loc	0 1223 9                        # x264_src/encoder/encoder.c:1223:9
	movq	%rbx, %rdi
	xorl	%esi, %esi
	movl	%eax, %ebx
.Ltmp795:
	#DEBUG_VALUE: x264_encoder_reconfig:ret <- $ebx
	#DEBUG_VALUE: x264_encoder_reconfig:h <- $rdi
	callq	x264_ratecontrol_init_reconfigurable@PLT
.Ltmp796:
	.loc	0 0 9 is_stmt 0                 # x264_src/encoder/encoder.c:0:9
	movl	%ebx, %eax
.Ltmp797:
.LBB4_35:                               # %if.end186
	#DEBUG_VALUE: x264_encoder_reconfig:param <- [DW_OP_LLVM_entry_value 1] $rsi
	#DEBUG_VALUE: x264_encoder_reconfig:rc_reconfig <- $ebp
	.loc	0 1225 5 epilogue_begin is_stmt 1 # x264_src/encoder/encoder.c:1225:5
	addq	$8, %rsp
	.cfi_def_cfa_offset 40
	popq	%rbx
	.cfi_def_cfa_offset 32
	popq	%r14
	.cfi_def_cfa_offset 24
	popq	%r15
	.cfi_def_cfa_offset 16
	popq	%rbp
.Ltmp798:
	.cfi_def_cfa_offset 8
	retq
.Ltmp799:
.Lfunc_end4:
	.size	x264_encoder_reconfig, .Lfunc_end4-x264_encoder_reconfig
	.cfi_endproc
                                        # -- End function
	.globl	x264_encoder_parameters         # -- Begin function x264_encoder_parameters
	.p2align	4, 0x90
	.type	x264_encoder_parameters,@function
x264_encoder_parameters:                # @x264_encoder_parameters
.Lfunc_begin5:
	.loc	0 1232 0                        # x264_src/encoder/encoder.c:1232:0
	.cfi_startproc
# %bb.0:                                # %entry
	#DEBUG_VALUE: x264_encoder_parameters:h <- $rdi
	#DEBUG_VALUE: x264_encoder_parameters:param <- $rsi
	movq	%rsi, %rax
.Ltmp800:
	.loc	0 1233 34 prologue_end          # x264_src/encoder/encoder.c:1233:34
	movslq	1744(%rdi), %rcx
	.loc	0 1233 21 is_stmt 0             # x264_src/encoder/encoder.c:1233:21
	movq	704(%rdi,%rcx,8), %rsi
.Ltmp801:
	#DEBUG_VALUE: x264_encoder_parameters:param <- $rax
	.loc	0 1233 5                        # x264_src/encoder/encoder.c:1233:5
	movl	$704, %edx                      # imm = 0x2C0
	movq	%rax, %rdi
.Ltmp802:
	#DEBUG_VALUE: x264_encoder_parameters:h <- [DW_OP_LLVM_entry_value 1] $rdi
	jmp	memcpy@PLT                      # TAILCALL
.Ltmp803:
.Lfunc_end5:
	.size	x264_encoder_parameters, .Lfunc_end5-x264_encoder_parameters
	.cfi_endproc
                                        # -- End function
	.globl	x264_encoder_headers            # -- Begin function x264_encoder_headers
	.p2align	4, 0x90
	.type	x264_encoder_headers,@function
x264_encoder_headers:                   # @x264_encoder_headers
.Lfunc_begin6:
	.loc	0 1313 0 is_stmt 1              # x264_src/encoder/encoder.c:1313:0
	.cfi_startproc
# %bb.0:                                # %entry
	#DEBUG_VALUE: x264_encoder_headers:h <- $rdi
	#DEBUG_VALUE: x264_encoder_headers:pp_nal <- $rsi
	#DEBUG_VALUE: x264_encoder_headers:pi_nal <- $rdx
	pushq	%r15
	.cfi_def_cfa_offset 16
	pushq	%r14
	.cfi_def_cfa_offset 24
	pushq	%r13
	.cfi_def_cfa_offset 32
	pushq	%r12
	.cfi_def_cfa_offset 40
	pushq	%rbx
	.cfi_def_cfa_offset 48
	.cfi_offset %rbx, -48
	.cfi_offset %r12, -40
	.cfi_offset %r13, -32
	.cfi_offset %r14, -24
	.cfi_offset %r15, -16
	movq	%rdi, %rbx
.Ltmp804:
	#DEBUG_VALUE: x264_encoder_headers:frame_size <- 0
	.loc	0 1316 18 prologue_end          # x264_src/encoder/encoder.c:1316:18
	movl	$0, 1760(%rdi)
.Ltmp805:
	#DEBUG_VALUE: x264_nal_start:h <- $rbx
	#DEBUG_VALUE: x264_nal_start:i_type <- 7
	#DEBUG_VALUE: x264_nal_start:i_ref_idc <- 3
	.loc	0 1239 31                       # x264_src/encoder/encoder.c:1239:31
	movq	1768(%rdi), %rax
.Ltmp806:
	#DEBUG_VALUE: x264_nal_start:nal <- $rax
	.loc	0 1317 33                       # x264_src/encoder/encoder.c:1317:33
	movq	1784(%rdi), %rdi
.Ltmp807:
	#DEBUG_VALUE: x264_encoder_headers:h <- $rbx
	.loc	0 1317 53 is_stmt 0             # x264_src/encoder/encoder.c:1317:53
	movslq	1776(%rbx), %r8
.Ltmp808:
	#DEBUG_VALUE: bs_init:s <- undef
	#DEBUG_VALUE: bs_init:i_data <- undef
	#DEBUG_VALUE: bs_init:p_data <- $rdi
	#DEBUG_VALUE: bs_init:offset <- [DW_OP_LLVM_convert 64 7, DW_OP_LLVM_convert 32 7, DW_OP_constu 3, DW_OP_and, DW_OP_stack_value] $rdi
	.loc	4 82 48 is_stmt 1               # x264_src/common/bs.h:82:48
	movq	%rdi, %r9
	.loc	4 83 35                         # x264_src/common/bs.h:83:35
	addq	%rdi, %r8
	#DEBUG_VALUE: endian_fix32:x <- undef
	.loc	4 86 31                         # x264_src/common/bs.h:86:31
	leal	(,%rdi,8), %ecx
                                        # kill: def $edi killed $edi killed $rdi
	.loc	4 82 48                         # x264_src/common/bs.h:82:48
	andl	$3, %edi
.Ltmp809:
	#DEBUG_VALUE: bs_init:offset <- [DW_OP_LLVM_convert 64 7, DW_OP_LLVM_convert 32 7, DW_OP_constu 3, DW_OP_and, DW_OP_stack_value] $r9
	#DEBUG_VALUE: bs_init:p_data <- $r9
	andq	$-4, %r9
.Ltmp810:
	.loc	4 82 29 is_stmt 0               # x264_src/common/bs.h:82:29
	movq	%r9, 1792(%rbx)
	.loc	4 82 16                         # x264_src/common/bs.h:82:16
	movq	%r9, 1800(%rbx)
	.loc	4 83 16 is_stmt 1               # x264_src/common/bs.h:83:16
	movq	%r8, 1808(%rbx)
	.loc	4 84 18                         # x264_src/common/bs.h:84:18
	shll	$3, %edi
	movl	$64, %r8d
	subl	%edi, %r8d
	.loc	4 84 16 is_stmt 0               # x264_src/common/bs.h:84:16
	movl	%r8d, 1824(%rbx)
	.loc	4 85 33 is_stmt 1               # x264_src/common/bs.h:85:33
	movl	(%r9), %edi
.Ltmp811:
	#DEBUG_VALUE: endian_fix32:x <- $edi
	.file	28 "x264_src/common" "osdep.h" md5 0xabed2b0134391efe02a749d457632ae9
	.loc	28 264 58                       # x264_src/common/osdep.h:264:58
	bswapl	%edi
.Ltmp812:
	.loc	4 86 17                         # x264_src/common/bs.h:86:17
	andb	$24, %cl
	addb	$32, %cl
	negb	%cl
                                        # kill: def $cl killed $cl killed $ecx
	shrq	%cl, %rdi
	movq	%rdx, %r14
	movq	%rdi, 1816(%rbx)
	movabsq	$30064771075, %rcx              # imm = 0x700000003
.Ltmp813:
	.loc	0 1241 20                       # x264_src/encoder/encoder.c:1241:20
	movq	%rcx, (%rax)
	.loc	0 1244 19                       # x264_src/encoder/encoder.c:1244:19
	movl	$0, 8(%rax)
.Ltmp814:
	#DEBUG_VALUE: bs_pos:s <- undef
	.loc	4 90 21                         # x264_src/common/bs.h:90:21
	movl	1800(%rbx), %ecx
	.loc	4 90 23 is_stmt 0               # x264_src/common/bs.h:90:23
	subl	1792(%rbx), %ecx
	movq	%rsi, %r15
	.loc	4 90 11                         # x264_src/common/bs.h:90:11
	shll	$3, %ecx
	subl	1824(%rbx), %ecx
.Ltmp815:
	.loc	0 1317 22 is_stmt 1             # x264_src/encoder/encoder.c:1317:22
	leaq	1792(%rbx), %r12
.Ltmp816:
	#DEBUG_VALUE: bs_pos:s <- $r12
	#DEBUG_VALUE: bs_init:s <- $r12
	.loc	4 90 11                         # x264_src/common/bs.h:90:11
	leal	64(%rcx), %edx
.Ltmp817:
	#DEBUG_VALUE: x264_encoder_headers:pi_nal <- $r14
	.loc	0 1245 62                       # x264_src/encoder/encoder.c:1245:62
	addl	$71, %ecx
	testl	%edx, %edx
	cmovnsl	%edx, %ecx
	sarl	$3, %ecx
	.loc	0 1245 22 is_stmt 0             # x264_src/encoder/encoder.c:1245:22
	movslq	%ecx, %rcx
	addq	1784(%rbx), %rcx
	.loc	0 1245 19                       # x264_src/encoder/encoder.c:1245:19
	movq	%rcx, 16(%rax)
.Ltmp818:
	.loc	0 1323 36 is_stmt 1             # x264_src/encoder/encoder.c:1323:36
	movq	3200(%rbx), %rsi
.Ltmp819:
	#DEBUG_VALUE: x264_encoder_headers:pp_nal <- $r15
	.loc	0 1323 5 is_stmt 0              # x264_src/encoder/encoder.c:1323:5
	movq	%r12, %rdi
	callq	x264_sps_write@PLT
.Ltmp820:
	#DEBUG_VALUE: x264_nal_end:h <- $rbx
	.loc	0 1266 31 is_stmt 1             # x264_src/encoder/encoder.c:1266:31
	movq	1768(%rbx), %rax
	.loc	0 1266 42 is_stmt 0             # x264_src/encoder/encoder.c:1266:42
	movslq	1760(%rbx), %rcx
.Ltmp821:
	#DEBUG_VALUE: bs_pos:s <- $r12
	.loc	4 90 21 is_stmt 1               # x264_src/common/bs.h:90:21
	movl	1800(%rbx), %edx
	.loc	4 90 23 is_stmt 0               # x264_src/common/bs.h:90:23
	subl	1792(%rbx), %edx
	.loc	4 90 11                         # x264_src/common/bs.h:90:11
	shll	$3, %edx
	subl	1824(%rbx), %edx
	leal	64(%rdx), %esi
.Ltmp822:
	.loc	0 1267 63 is_stmt 1             # x264_src/encoder/encoder.c:1267:63
	addl	$71, %edx
	testl	%esi, %esi
	cmovnsl	%esi, %edx
	.loc	0 1266 24                       # x264_src/encoder/encoder.c:1266:24
	leaq	(%rcx,%rcx,2), %rcx
.Ltmp823:
	#DEBUG_VALUE: x264_nal_end:nal <- undef
	.loc	0 1267 63                       # x264_src/encoder/encoder.c:1267:63
	sarl	$3, %edx
	.loc	0 1267 23 is_stmt 0             # x264_src/encoder/encoder.c:1267:23
	addl	1784(%rbx), %edx
	.loc	0 1267 68                       # x264_src/encoder/encoder.c:1267:68
	subl	16(%rax,%rcx,8), %edx
	.loc	0 1267 20                       # x264_src/encoder/encoder.c:1267:20
	movl	%edx, 8(%rax,%rcx,8)
	.loc	0 1268 17 is_stmt 1             # x264_src/encoder/encoder.c:1268:17
	movl	1760(%rbx), %eax
.Ltmp824:
	#DEBUG_VALUE: x264_nal_check_buffer:h <- $rbx
	.loc	0 1251 32                       # x264_src/encoder/encoder.c:1251:32
	movl	1764(%rbx), %ecx
.Ltmp825:
	.loc	0 1268 17                       # x264_src/encoder/encoder.c:1268:17
	incl	%eax
	movl	%eax, 1760(%rbx)
.Ltmp826:
	.loc	0 1251 22                       # x264_src/encoder/encoder.c:1251:22
	cmpl	%ecx, %eax
.Ltmp827:
	.loc	0 1251 9 is_stmt 0              # x264_src/encoder/encoder.c:1251:9
	jge	.LBB6_2
.Ltmp828:
# %bb.1:                                # %entry.if.end_crit_edge
	#DEBUG_VALUE: x264_encoder_headers:h <- $rbx
	#DEBUG_VALUE: x264_encoder_headers:pp_nal <- $r15
	#DEBUG_VALUE: x264_encoder_headers:pi_nal <- $r14
	#DEBUG_VALUE: x264_encoder_headers:frame_size <- 0
	#DEBUG_VALUE: x264_nal_end:h <- $rbx
	#DEBUG_VALUE: x264_nal_check_buffer:h <- $rbx
	.loc	0 1239 31 is_stmt 1             # x264_src/encoder/encoder.c:1239:31
	movq	1768(%rbx), %r13
.Ltmp829:
	.loc	0 1251 9                        # x264_src/encoder/encoder.c:1251:9
	jmp	.LBB6_4
.Ltmp830:
.LBB6_2:                                # %if.then.i.i
	#DEBUG_VALUE: x264_encoder_headers:h <- $rbx
	#DEBUG_VALUE: x264_encoder_headers:pp_nal <- $r15
	#DEBUG_VALUE: x264_encoder_headers:pi_nal <- $r14
	#DEBUG_VALUE: x264_encoder_headers:frame_size <- 0
	#DEBUG_VALUE: x264_nal_end:h <- $rbx
	#DEBUG_VALUE: x264_nal_check_buffer:h <- $rbx
	.loc	0 1253 63                       # x264_src/encoder/encoder.c:1253:63
	shll	$4, %ecx
	leal	(%rcx,%rcx,2), %edi
	.loc	0 1253 31 is_stmt 0             # x264_src/encoder/encoder.c:1253:31
	callq	x264_malloc@PLT
.Ltmp831:
	#DEBUG_VALUE: new_out <- $rax
	.loc	0 1254 14 is_stmt 1             # x264_src/encoder/encoder.c:1254:14
	testq	%rax, %rax
.Ltmp832:
	.loc	0 1254 13 is_stmt 0             # x264_src/encoder/encoder.c:1254:13
	je	.LBB6_13
.Ltmp833:
# %bb.3:                                # %cleanup.thread.i.i
	#DEBUG_VALUE: x264_encoder_headers:h <- $rbx
	#DEBUG_VALUE: x264_encoder_headers:pp_nal <- $r15
	#DEBUG_VALUE: x264_encoder_headers:pi_nal <- $r14
	#DEBUG_VALUE: x264_encoder_headers:frame_size <- 0
	#DEBUG_VALUE: x264_nal_end:h <- $rbx
	#DEBUG_VALUE: x264_nal_check_buffer:h <- $rbx
	#DEBUG_VALUE: new_out <- $rax
	.loc	0 0 0                           # x264_src/encoder/encoder.c:0:0
	movq	%rax, %r13
	.loc	0 1256 33 is_stmt 1             # x264_src/encoder/encoder.c:1256:33
	movq	1768(%rbx), %rsi
	.loc	0 1256 67 is_stmt 0             # x264_src/encoder/encoder.c:1256:67
	movslq	1764(%rbx), %rax
.Ltmp834:
	#DEBUG_VALUE: new_out <- $r13
	.loc	0 1256 57                       # x264_src/encoder/encoder.c:1256:57
	shlq	$3, %rax
	leaq	(%rax,%rax,2), %rdx
	.loc	0 1256 9                        # x264_src/encoder/encoder.c:1256:9
	movq	%r13, %rdi
	callq	memcpy@PLT
.Ltmp835:
	.loc	0 1257 27 is_stmt 1             # x264_src/encoder/encoder.c:1257:27
	movq	1768(%rbx), %rdi
	.loc	0 1257 9 is_stmt 0              # x264_src/encoder/encoder.c:1257:9
	callq	x264_free@PLT
.Ltmp836:
	.loc	0 1258 20 is_stmt 1             # x264_src/encoder/encoder.c:1258:20
	movq	%r13, 1768(%rbx)
	.loc	0 1259 33                       # x264_src/encoder/encoder.c:1259:33
	shll	1764(%rbx)
.Ltmp837:
	.loc	0 1239 42                       # x264_src/encoder/encoder.c:1239:42
	movl	1760(%rbx), %eax
.Ltmp838:
.LBB6_4:                                # %if.end
	#DEBUG_VALUE: x264_encoder_headers:h <- $rbx
	#DEBUG_VALUE: x264_encoder_headers:pp_nal <- $r15
	#DEBUG_VALUE: x264_encoder_headers:pi_nal <- $r14
	#DEBUG_VALUE: x264_encoder_headers:frame_size <- 0
	#DEBUG_VALUE: x264_nal_start:h <- $rbx
	#DEBUG_VALUE: x264_nal_start:i_type <- 8
	#DEBUG_VALUE: x264_nal_start:i_ref_idc <- 3
	.loc	0 1239 24 is_stmt 0             # x264_src/encoder/encoder.c:1239:24
	cltq
	leaq	(%rax,%rax,2), %rax
.Ltmp839:
	#DEBUG_VALUE: x264_nal_start:nal <- undef
	.loc	0 0 24                          # x264_src/encoder/encoder.c:0:24
	movabsq	$34359738371, %rcx              # imm = 0x800000003
	.loc	0 1241 20 is_stmt 1             # x264_src/encoder/encoder.c:1241:20
	movq	%rcx, (%r13,%rax,8)
	.loc	0 1244 19                       # x264_src/encoder/encoder.c:1244:19
	movl	$0, 8(%r13,%rax,8)
.Ltmp840:
	#DEBUG_VALUE: bs_pos:s <- $r12
	.loc	4 90 21                         # x264_src/common/bs.h:90:21
	movl	1800(%rbx), %ecx
	.loc	4 90 23 is_stmt 0               # x264_src/common/bs.h:90:23
	subl	1792(%rbx), %ecx
	.loc	4 90 11                         # x264_src/common/bs.h:90:11
	shll	$3, %ecx
	subl	1824(%rbx), %ecx
	leal	64(%rcx), %edx
.Ltmp841:
	.loc	0 1245 62 is_stmt 1             # x264_src/encoder/encoder.c:1245:62
	addl	$71, %ecx
	testl	%edx, %edx
	cmovnsl	%edx, %ecx
	sarl	$3, %ecx
	.loc	0 1245 22 is_stmt 0             # x264_src/encoder/encoder.c:1245:22
	movslq	%ecx, %rcx
	addq	1784(%rbx), %rcx
	.loc	0 1245 19                       # x264_src/encoder/encoder.c:1245:19
	movq	%rcx, 16(%r13,%rax,8)
.Ltmp842:
	.loc	0 1329 36 is_stmt 1             # x264_src/encoder/encoder.c:1329:36
	movq	3328(%rbx), %rsi
	.loc	0 1329 5 is_stmt 0              # x264_src/encoder/encoder.c:1329:5
	movq	%r12, %rdi
	callq	x264_pps_write@PLT
.Ltmp843:
	#DEBUG_VALUE: x264_nal_end:h <- $rbx
	.loc	0 1266 31 is_stmt 1             # x264_src/encoder/encoder.c:1266:31
	movq	1768(%rbx), %rax
	.loc	0 1266 42 is_stmt 0             # x264_src/encoder/encoder.c:1266:42
	movslq	1760(%rbx), %rcx
.Ltmp844:
	.loc	4 90 21 is_stmt 1               # x264_src/common/bs.h:90:21
	movl	1800(%rbx), %edx
	.loc	4 90 23 is_stmt 0               # x264_src/common/bs.h:90:23
	subl	1792(%rbx), %edx
	.loc	4 90 11                         # x264_src/common/bs.h:90:11
	shll	$3, %edx
	subl	1824(%rbx), %edx
	leal	64(%rdx), %esi
.Ltmp845:
	.loc	0 1267 63 is_stmt 1             # x264_src/encoder/encoder.c:1267:63
	addl	$71, %edx
	testl	%esi, %esi
	cmovnsl	%esi, %edx
	.loc	0 1266 24                       # x264_src/encoder/encoder.c:1266:24
	leaq	(%rcx,%rcx,2), %rcx
.Ltmp846:
	#DEBUG_VALUE: x264_nal_end:nal <- undef
	#DEBUG_VALUE: bs_pos:s <- undef
	.loc	0 1267 63                       # x264_src/encoder/encoder.c:1267:63
	sarl	$3, %edx
	.loc	0 1267 23 is_stmt 0             # x264_src/encoder/encoder.c:1267:23
	addl	1784(%rbx), %edx
	.loc	0 1267 68                       # x264_src/encoder/encoder.c:1267:68
	subl	16(%rax,%rcx,8), %edx
	.loc	0 1267 20                       # x264_src/encoder/encoder.c:1267:20
	movl	%edx, 8(%rax,%rcx,8)
	.loc	0 1268 17 is_stmt 1             # x264_src/encoder/encoder.c:1268:17
	movl	1760(%rbx), %eax
.Ltmp847:
	#DEBUG_VALUE: x264_nal_check_buffer:h <- $rbx
	.loc	0 1251 32                       # x264_src/encoder/encoder.c:1251:32
	movl	1764(%rbx), %ecx
.Ltmp848:
	.loc	0 1268 17                       # x264_src/encoder/encoder.c:1268:17
	incl	%eax
	movl	%eax, 1760(%rbx)
.Ltmp849:
	.loc	0 1251 22                       # x264_src/encoder/encoder.c:1251:22
	cmpl	%ecx, %eax
.Ltmp850:
	.loc	0 1251 9 is_stmt 0              # x264_src/encoder/encoder.c:1251:9
	jge	.LBB6_6
.Ltmp851:
# %bb.5:                                # %if.end.if.end11_crit_edge
	#DEBUG_VALUE: x264_encoder_headers:h <- $rbx
	#DEBUG_VALUE: x264_encoder_headers:pp_nal <- $r15
	#DEBUG_VALUE: x264_encoder_headers:pi_nal <- $r14
	#DEBUG_VALUE: x264_encoder_headers:frame_size <- 0
	#DEBUG_VALUE: x264_nal_end:h <- $rbx
	#DEBUG_VALUE: x264_nal_check_buffer:h <- $rbx
	.loc	0 1239 31 is_stmt 1             # x264_src/encoder/encoder.c:1239:31
	movq	1768(%rbx), %r13
.Ltmp852:
	.loc	0 1251 9                        # x264_src/encoder/encoder.c:1251:9
	jmp	.LBB6_8
.Ltmp853:
.LBB6_6:                                # %if.then.i.i111
	#DEBUG_VALUE: x264_encoder_headers:h <- $rbx
	#DEBUG_VALUE: x264_encoder_headers:pp_nal <- $r15
	#DEBUG_VALUE: x264_encoder_headers:pi_nal <- $r14
	#DEBUG_VALUE: x264_encoder_headers:frame_size <- 0
	#DEBUG_VALUE: x264_nal_end:h <- $rbx
	#DEBUG_VALUE: x264_nal_check_buffer:h <- $rbx
	.loc	0 1253 63                       # x264_src/encoder/encoder.c:1253:63
	shll	$4, %ecx
	leal	(%rcx,%rcx,2), %edi
	.loc	0 1253 31 is_stmt 0             # x264_src/encoder/encoder.c:1253:31
	callq	x264_malloc@PLT
.Ltmp854:
	#DEBUG_VALUE: new_out <- $rax
	.loc	0 1254 14 is_stmt 1             # x264_src/encoder/encoder.c:1254:14
	testq	%rax, %rax
.Ltmp855:
	.loc	0 1254 13 is_stmt 0             # x264_src/encoder/encoder.c:1254:13
	je	.LBB6_13
.Ltmp856:
# %bb.7:                                # %cleanup.thread.i.i115
	#DEBUG_VALUE: x264_encoder_headers:h <- $rbx
	#DEBUG_VALUE: x264_encoder_headers:pp_nal <- $r15
	#DEBUG_VALUE: x264_encoder_headers:pi_nal <- $r14
	#DEBUG_VALUE: x264_encoder_headers:frame_size <- 0
	#DEBUG_VALUE: x264_nal_end:h <- $rbx
	#DEBUG_VALUE: x264_nal_check_buffer:h <- $rbx
	#DEBUG_VALUE: new_out <- $rax
	.loc	0 0 0                           # x264_src/encoder/encoder.c:0:0
	movq	%rax, %r13
	.loc	0 1256 33 is_stmt 1             # x264_src/encoder/encoder.c:1256:33
	movq	1768(%rbx), %rsi
	.loc	0 1256 67 is_stmt 0             # x264_src/encoder/encoder.c:1256:67
	movslq	1764(%rbx), %rax
.Ltmp857:
	#DEBUG_VALUE: new_out <- $r13
	.loc	0 1256 57                       # x264_src/encoder/encoder.c:1256:57
	shlq	$3, %rax
	leaq	(%rax,%rax,2), %rdx
	.loc	0 1256 9                        # x264_src/encoder/encoder.c:1256:9
	movq	%r13, %rdi
	callq	memcpy@PLT
.Ltmp858:
	.loc	0 1257 27 is_stmt 1             # x264_src/encoder/encoder.c:1257:27
	movq	1768(%rbx), %rdi
	.loc	0 1257 9 is_stmt 0              # x264_src/encoder/encoder.c:1257:9
	callq	x264_free@PLT
.Ltmp859:
	.loc	0 1258 20 is_stmt 1             # x264_src/encoder/encoder.c:1258:20
	movq	%r13, 1768(%rbx)
	.loc	0 1259 33                       # x264_src/encoder/encoder.c:1259:33
	shll	1764(%rbx)
.Ltmp860:
	.loc	0 1239 42                       # x264_src/encoder/encoder.c:1239:42
	movl	1760(%rbx), %eax
.Ltmp861:
.LBB6_8:                                # %if.end11
	#DEBUG_VALUE: x264_encoder_headers:h <- $rbx
	#DEBUG_VALUE: x264_encoder_headers:pp_nal <- $r15
	#DEBUG_VALUE: x264_encoder_headers:pi_nal <- $r14
	#DEBUG_VALUE: x264_encoder_headers:frame_size <- 0
	#DEBUG_VALUE: x264_nal_start:h <- $rbx
	#DEBUG_VALUE: x264_nal_start:i_type <- 6
	#DEBUG_VALUE: x264_nal_start:i_ref_idc <- 0
	.loc	0 1239 24 is_stmt 0             # x264_src/encoder/encoder.c:1239:24
	cltq
	leaq	(%rax,%rax,2), %rax
.Ltmp862:
	#DEBUG_VALUE: x264_nal_start:nal <- undef
	.loc	0 0 24                          # x264_src/encoder/encoder.c:0:24
	movabsq	$25769803776, %rcx              # imm = 0x600000000
	.loc	0 1241 20 is_stmt 1             # x264_src/encoder/encoder.c:1241:20
	movq	%rcx, (%r13,%rax,8)
	.loc	0 1244 19                       # x264_src/encoder/encoder.c:1244:19
	movl	$0, 8(%r13,%rax,8)
.Ltmp863:
	#DEBUG_VALUE: bs_pos:s <- $r12
	.loc	4 90 21                         # x264_src/common/bs.h:90:21
	movl	1800(%rbx), %ecx
	.loc	4 90 23 is_stmt 0               # x264_src/common/bs.h:90:23
	subl	1792(%rbx), %ecx
	.loc	4 90 11                         # x264_src/common/bs.h:90:11
	shll	$3, %ecx
	subl	1824(%rbx), %ecx
	leal	64(%rcx), %edx
.Ltmp864:
	.loc	0 1245 62 is_stmt 1             # x264_src/encoder/encoder.c:1245:62
	addl	$71, %ecx
	testl	%edx, %edx
	cmovnsl	%edx, %ecx
	sarl	$3, %ecx
	.loc	0 1245 22 is_stmt 0             # x264_src/encoder/encoder.c:1245:22
	movslq	%ecx, %rcx
	addq	1784(%rbx), %rcx
	.loc	0 1245 19                       # x264_src/encoder/encoder.c:1245:19
	movq	%rcx, 16(%r13,%rax,8)
.Ltmp865:
	.loc	0 1335 9 is_stmt 1              # x264_src/encoder/encoder.c:1335:9
	movq	%rbx, %rdi
	movq	%r12, %rsi
	callq	x264_sei_version_write@PLT
.Ltmp866:
	testl	%eax, %eax
.Ltmp867:
	.loc	0 1335 9 is_stmt 0              # x264_src/encoder/encoder.c:1335:9
	je	.LBB6_9
.Ltmp868:
.LBB6_13:                               # %cleanup
	#DEBUG_VALUE: x264_encoder_headers:h <- $rbx
	#DEBUG_VALUE: x264_encoder_headers:pp_nal <- $r15
	#DEBUG_VALUE: x264_encoder_headers:pi_nal <- $r14
	#DEBUG_VALUE: x264_encoder_headers:frame_size <- 0
	.loc	0 1348 1 is_stmt 1              # x264_src/encoder/encoder.c:1348:1
	movl	$-1, %eax
	jmp	.LBB6_14
.Ltmp869:
.LBB6_9:                                # %if.end17
	#DEBUG_VALUE: x264_encoder_headers:h <- $rbx
	#DEBUG_VALUE: x264_encoder_headers:pp_nal <- $r15
	#DEBUG_VALUE: x264_encoder_headers:pi_nal <- $r14
	#DEBUG_VALUE: x264_encoder_headers:frame_size <- 0
	#DEBUG_VALUE: x264_nal_end:h <- $rbx
	.loc	0 1266 31                       # x264_src/encoder/encoder.c:1266:31
	movq	1768(%rbx), %rax
	.loc	0 1266 42 is_stmt 0             # x264_src/encoder/encoder.c:1266:42
	movslq	1760(%rbx), %rcx
.Ltmp870:
	#DEBUG_VALUE: bs_pos:s <- $r12
	.loc	4 90 21 is_stmt 1               # x264_src/common/bs.h:90:21
	movl	1800(%rbx), %edx
	.loc	4 90 23 is_stmt 0               # x264_src/common/bs.h:90:23
	subl	1792(%rbx), %edx
	.loc	4 90 11                         # x264_src/common/bs.h:90:11
	shll	$3, %edx
	subl	1824(%rbx), %edx
	leal	64(%rdx), %esi
.Ltmp871:
	.loc	0 1267 63 is_stmt 1             # x264_src/encoder/encoder.c:1267:63
	addl	$71, %edx
	testl	%esi, %esi
	cmovnsl	%esi, %edx
	.loc	0 1266 24                       # x264_src/encoder/encoder.c:1266:24
	leaq	(%rcx,%rcx,2), %rcx
.Ltmp872:
	#DEBUG_VALUE: x264_nal_end:nal <- undef
	.loc	0 1267 63                       # x264_src/encoder/encoder.c:1267:63
	sarl	$3, %edx
	.loc	0 1267 23 is_stmt 0             # x264_src/encoder/encoder.c:1267:23
	addl	1784(%rbx), %edx
	.loc	0 1267 68                       # x264_src/encoder/encoder.c:1267:68
	subl	16(%rax,%rcx,8), %edx
	.loc	0 1267 20                       # x264_src/encoder/encoder.c:1267:20
	movl	%edx, 8(%rax,%rcx,8)
	.loc	0 1268 17 is_stmt 1             # x264_src/encoder/encoder.c:1268:17
	movl	1760(%rbx), %ecx
.Ltmp873:
	#DEBUG_VALUE: x264_nal_check_buffer:h <- $rbx
	.loc	0 1251 32                       # x264_src/encoder/encoder.c:1251:32
	movl	1764(%rbx), %eax
.Ltmp874:
	.loc	0 1268 17                       # x264_src/encoder/encoder.c:1268:17
	incl	%ecx
	movl	%ecx, 1760(%rbx)
.Ltmp875:
	.loc	0 1251 22                       # x264_src/encoder/encoder.c:1251:22
	cmpl	%eax, %ecx
.Ltmp876:
	.loc	0 1251 9 is_stmt 0              # x264_src/encoder/encoder.c:1251:9
	jl	.LBB6_12
.Ltmp877:
# %bb.10:                               # %if.then.i.i167
	#DEBUG_VALUE: x264_encoder_headers:h <- $rbx
	#DEBUG_VALUE: x264_encoder_headers:pp_nal <- $r15
	#DEBUG_VALUE: x264_encoder_headers:pi_nal <- $r14
	#DEBUG_VALUE: x264_encoder_headers:frame_size <- 0
	#DEBUG_VALUE: x264_nal_end:h <- $rbx
	#DEBUG_VALUE: x264_nal_check_buffer:h <- $rbx
	.loc	0 1253 63 is_stmt 1             # x264_src/encoder/encoder.c:1253:63
	shll	$4, %eax
	leal	(%rax,%rax,2), %edi
	.loc	0 1253 31 is_stmt 0             # x264_src/encoder/encoder.c:1253:31
	callq	x264_malloc@PLT
.Ltmp878:
	#DEBUG_VALUE: new_out <- $rax
	.loc	0 1254 14 is_stmt 1             # x264_src/encoder/encoder.c:1254:14
	testq	%rax, %rax
.Ltmp879:
	.loc	0 1254 13 is_stmt 0             # x264_src/encoder/encoder.c:1254:13
	je	.LBB6_13
.Ltmp880:
# %bb.11:                               # %cleanup.thread.i.i171
	#DEBUG_VALUE: x264_encoder_headers:h <- $rbx
	#DEBUG_VALUE: x264_encoder_headers:pp_nal <- $r15
	#DEBUG_VALUE: x264_encoder_headers:pi_nal <- $r14
	#DEBUG_VALUE: x264_encoder_headers:frame_size <- 0
	#DEBUG_VALUE: x264_nal_end:h <- $rbx
	#DEBUG_VALUE: x264_nal_check_buffer:h <- $rbx
	#DEBUG_VALUE: new_out <- $rax
	.loc	0 1256 33 is_stmt 1             # x264_src/encoder/encoder.c:1256:33
	movq	1768(%rbx), %rsi
	.loc	0 1256 67 is_stmt 0             # x264_src/encoder/encoder.c:1256:67
	movslq	1764(%rbx), %rcx
	.loc	0 1256 57                       # x264_src/encoder/encoder.c:1256:57
	shlq	$3, %rcx
	leaq	(%rcx,%rcx,2), %rdx
	.loc	0 1256 9                        # x264_src/encoder/encoder.c:1256:9
	movq	%rax, %rdi
	movq	%rax, %r12
.Ltmp881:
	#DEBUG_VALUE: new_out <- $r12
	callq	memcpy@PLT
.Ltmp882:
	.loc	0 1257 27 is_stmt 1             # x264_src/encoder/encoder.c:1257:27
	movq	1768(%rbx), %rdi
	.loc	0 1257 9 is_stmt 0              # x264_src/encoder/encoder.c:1257:9
	callq	x264_free@PLT
.Ltmp883:
	.loc	0 1258 20 is_stmt 1             # x264_src/encoder/encoder.c:1258:20
	movq	%r12, 1768(%rbx)
	.loc	0 1259 33                       # x264_src/encoder/encoder.c:1259:33
	shll	1764(%rbx)
.Ltmp884:
.LBB6_12:                               # %if.end21
	#DEBUG_VALUE: x264_encoder_headers:h <- $rbx
	#DEBUG_VALUE: x264_encoder_headers:pp_nal <- $r15
	#DEBUG_VALUE: x264_encoder_headers:pi_nal <- $r14
	#DEBUG_VALUE: x264_encoder_headers:frame_size <- 0
	.loc	0 1340 18                       # x264_src/encoder/encoder.c:1340:18
	movq	%rbx, %rdi
	xorl	%esi, %esi
	callq	x264_encoder_encapsulate_nals
.Ltmp885:
	#DEBUG_VALUE: x264_encoder_headers:frame_size <- $eax
	.loc	0 1343 22                       # x264_src/encoder/encoder.c:1343:22
	movl	1760(%rbx), %ecx
	.loc	0 1343 13 is_stmt 0             # x264_src/encoder/encoder.c:1343:13
	movl	%ecx, (%r14)
	.loc	0 1344 23 is_stmt 1             # x264_src/encoder/encoder.c:1344:23
	movq	1768(%rbx), %rcx
	.loc	0 1344 13 is_stmt 0             # x264_src/encoder/encoder.c:1344:13
	movq	%rcx, (%r15)
	.loc	0 1345 18 is_stmt 1             # x264_src/encoder/encoder.c:1345:18
	movl	$0, 1760(%rbx)
.Ltmp886:
.LBB6_14:                               # %cleanup
	#DEBUG_VALUE: x264_encoder_headers:h <- $rbx
	#DEBUG_VALUE: x264_encoder_headers:pp_nal <- $r15
	#DEBUG_VALUE: x264_encoder_headers:pi_nal <- $r14
	.loc	0 1348 1 epilogue_begin         # x264_src/encoder/encoder.c:1348:1
	popq	%rbx
.Ltmp887:
	#DEBUG_VALUE: x264_encoder_headers:h <- [DW_OP_LLVM_entry_value 1] $rdi
	.cfi_def_cfa_offset 40
	popq	%r12
	.cfi_def_cfa_offset 32
	popq	%r13
	.cfi_def_cfa_offset 24
	popq	%r14
.Ltmp888:
	#DEBUG_VALUE: x264_encoder_headers:pi_nal <- [DW_OP_LLVM_entry_value 1] $rdx
	.cfi_def_cfa_offset 16
	popq	%r15
.Ltmp889:
	#DEBUG_VALUE: x264_encoder_headers:pp_nal <- [DW_OP_LLVM_entry_value 1] $rsi
	.cfi_def_cfa_offset 8
	retq
.Ltmp890:
.Lfunc_end6:
	.size	x264_encoder_headers, .Lfunc_end6-x264_encoder_headers
	.cfi_endproc
                                        # -- End function
	.p2align	4, 0x90                         # -- Begin function x264_nal_end
	.type	x264_nal_end,@function
x264_nal_end:                           # @x264_nal_end
.Lfunc_begin7:
	.loc	0 1265 0                        # x264_src/encoder/encoder.c:1265:0
	.cfi_startproc
# %bb.0:                                # %entry
	#DEBUG_VALUE: x264_nal_end:h <- $rdi
	pushq	%rbp
	.cfi_def_cfa_offset 16
	pushq	%r14
	.cfi_def_cfa_offset 24
	pushq	%rbx
	.cfi_def_cfa_offset 32
	.cfi_offset %rbx, -32
	.cfi_offset %r14, -24
	.cfi_offset %rbp, -16
	.loc	0 1266 31 prologue_end          # x264_src/encoder/encoder.c:1266:31
	movq	1768(%rdi), %rax
	.loc	0 1266 42 is_stmt 0             # x264_src/encoder/encoder.c:1266:42
	movslq	1760(%rdi), %rcx
	.loc	0 1266 24                       # x264_src/encoder/encoder.c:1266:24
	leaq	(%rcx,%rcx,2), %rcx
.Ltmp891:
	#DEBUG_VALUE: x264_nal_end:nal <- undef
	#DEBUG_VALUE: bs_pos:s <- undef
	.loc	4 90 21 is_stmt 1               # x264_src/common/bs.h:90:21
	movl	1800(%rdi), %edx
	.loc	4 90 23 is_stmt 0               # x264_src/common/bs.h:90:23
	subl	1792(%rdi), %edx
	.loc	4 90 11                         # x264_src/common/bs.h:90:11
	shll	$3, %edx
	subl	1824(%rdi), %edx
	leal	64(%rdx), %esi
.Ltmp892:
	.loc	0 1267 63 is_stmt 1             # x264_src/encoder/encoder.c:1267:63
	addl	$71, %edx
	testl	%esi, %esi
	cmovnsl	%esi, %edx
	sarl	$3, %edx
	.loc	0 1267 23 is_stmt 0             # x264_src/encoder/encoder.c:1267:23
	addl	1784(%rdi), %edx
	.loc	0 1267 68                       # x264_src/encoder/encoder.c:1267:68
	subl	16(%rax,%rcx,8), %edx
	.loc	0 1267 20                       # x264_src/encoder/encoder.c:1267:20
	movl	%edx, 8(%rax,%rcx,8)
	.loc	0 1268 17 is_stmt 1             # x264_src/encoder/encoder.c:1268:17
	movl	1760(%rdi), %ecx
.Ltmp893:
	#DEBUG_VALUE: x264_nal_check_buffer:h <- $rdi
	.loc	0 1251 32                       # x264_src/encoder/encoder.c:1251:32
	movl	1764(%rdi), %eax
.Ltmp894:
	.loc	0 1268 17                       # x264_src/encoder/encoder.c:1268:17
	incl	%ecx
	movl	%ecx, 1760(%rdi)
	xorl	%ebp, %ebp
.Ltmp895:
	.loc	0 1251 22                       # x264_src/encoder/encoder.c:1251:22
	cmpl	%eax, %ecx
.Ltmp896:
	.loc	0 1251 9 is_stmt 0              # x264_src/encoder/encoder.c:1251:9
	jl	.LBB7_4
.Ltmp897:
# %bb.1:                                # %if.then.i
	#DEBUG_VALUE: x264_nal_end:h <- $rdi
	#DEBUG_VALUE: x264_nal_check_buffer:h <- $rdi
	.loc	0 0 9                           # x264_src/encoder/encoder.c:0:9
	movq	%rdi, %rbx
.Ltmp898:
	.loc	0 1253 63 is_stmt 1             # x264_src/encoder/encoder.c:1253:63
	shll	$4, %eax
	leal	(%rax,%rax,2), %edi
.Ltmp899:
	#DEBUG_VALUE: x264_nal_check_buffer:h <- $rbx
	#DEBUG_VALUE: x264_nal_end:h <- $rbx
	.loc	0 1253 31 is_stmt 0             # x264_src/encoder/encoder.c:1253:31
	callq	x264_malloc@PLT
.Ltmp900:
	#DEBUG_VALUE: new_out <- $rax
	.loc	0 1254 14 is_stmt 1             # x264_src/encoder/encoder.c:1254:14
	testq	%rax, %rax
.Ltmp901:
	.loc	0 1254 13 is_stmt 0             # x264_src/encoder/encoder.c:1254:13
	je	.LBB7_2
.Ltmp902:
# %bb.3:                                # %cleanup.thread.i
	#DEBUG_VALUE: x264_nal_end:h <- $rbx
	#DEBUG_VALUE: x264_nal_check_buffer:h <- $rbx
	#DEBUG_VALUE: new_out <- $rax
	.loc	0 1256 33 is_stmt 1             # x264_src/encoder/encoder.c:1256:33
	movq	1768(%rbx), %rsi
	.loc	0 1256 67 is_stmt 0             # x264_src/encoder/encoder.c:1256:67
	movslq	1764(%rbx), %rcx
	.loc	0 1256 57                       # x264_src/encoder/encoder.c:1256:57
	shlq	$3, %rcx
	leaq	(%rcx,%rcx,2), %rdx
	.loc	0 1256 9                        # x264_src/encoder/encoder.c:1256:9
	movq	%rax, %rdi
	movq	%rax, %r14
.Ltmp903:
	#DEBUG_VALUE: new_out <- $r14
	callq	memcpy@PLT
.Ltmp904:
	.loc	0 1257 27 is_stmt 1             # x264_src/encoder/encoder.c:1257:27
	movq	1768(%rbx), %rdi
	.loc	0 1257 9 is_stmt 0              # x264_src/encoder/encoder.c:1257:9
	callq	x264_free@PLT
.Ltmp905:
	.loc	0 1258 20 is_stmt 1             # x264_src/encoder/encoder.c:1258:20
	movq	%r14, 1768(%rbx)
	.loc	0 1259 33                       # x264_src/encoder/encoder.c:1259:33
	shll	1764(%rbx)
	jmp	.LBB7_4
.Ltmp906:
.LBB7_2:
	#DEBUG_VALUE: x264_nal_end:h <- $rbx
	#DEBUG_VALUE: x264_nal_check_buffer:h <- $rbx
	#DEBUG_VALUE: new_out <- $rax
	.loc	0 0 33 is_stmt 0                # x264_src/encoder/encoder.c:0:33
	movl	$-1, %ebp
.Ltmp907:
.LBB7_4:                                # %x264_nal_check_buffer.exit
	#DEBUG_VALUE: x264_nal_end:h <- [DW_OP_LLVM_entry_value 1] $rdi
	.loc	0 1270 5 is_stmt 1              # x264_src/encoder/encoder.c:1270:5
	movl	%ebp, %eax
	.loc	0 1270 5 epilogue_begin is_stmt 0 # x264_src/encoder/encoder.c:1270:5
	popq	%rbx
	.cfi_def_cfa_offset 24
	popq	%r14
	.cfi_def_cfa_offset 16
	popq	%rbp
	.cfi_def_cfa_offset 8
	retq
.Ltmp908:
.Lfunc_end7:
	.size	x264_nal_end, .Lfunc_end7-x264_nal_end
	.cfi_endproc
                                        # -- End function
	.p2align	4, 0x90                         # -- Begin function x264_encoder_encapsulate_nals
	.type	x264_encoder_encapsulate_nals,@function
x264_encoder_encapsulate_nals:          # @x264_encoder_encapsulate_nals
.Lfunc_begin8:
	.loc	0 1274 0 is_stmt 1              # x264_src/encoder/encoder.c:1274:0
	.cfi_startproc
# %bb.0:                                # %entry
	#DEBUG_VALUE: x264_encoder_encapsulate_nals:h <- $rdi
	#DEBUG_VALUE: x264_encoder_encapsulate_nals:start <- $esi
	pushq	%rbp
	.cfi_def_cfa_offset 16
	pushq	%r15
	.cfi_def_cfa_offset 24
	pushq	%r14
	.cfi_def_cfa_offset 32
	pushq	%r13
	.cfi_def_cfa_offset 40
	pushq	%r12
	.cfi_def_cfa_offset 48
	pushq	%rbx
	.cfi_def_cfa_offset 56
	pushq	%rax
	.cfi_def_cfa_offset 64
	.cfi_offset %rbx, -56
	.cfi_offset %r12, -48
	.cfi_offset %r13, -40
	.cfi_offset %r14, -32
	.cfi_offset %r15, -24
	.cfi_offset %rbp, -16
	movl	%esi, %ebp
	movq	%rdi, %rbx
.Ltmp909:
	#DEBUG_VALUE: x264_encoder_encapsulate_nals:nal_size <- 0
	#DEBUG_VALUE: x264_encoder_encapsulate_nals:previous_nal_size <- 0
	#DEBUG_VALUE: i <- 0
	xorl	%eax, %eax
	movl	$0, %r12d
.Ltmp910:
	.loc	0 1277 23 prologue_end          # x264_src/encoder/encoder.c:1277:23
	testl	%esi, %esi
.Ltmp911:
	.loc	0 1277 5 is_stmt 0              # x264_src/encoder/encoder.c:1277:5
	jle	.LBB8_5
.Ltmp912:
# %bb.1:                                # %for.body.lr.ph
	#DEBUG_VALUE: x264_encoder_encapsulate_nals:h <- $rbx
	#DEBUG_VALUE: x264_encoder_encapsulate_nals:start <- $ebp
	#DEBUG_VALUE: x264_encoder_encapsulate_nals:nal_size <- 0
