	.text
	.file	"macroblock.c"
	.file	0 "/home/yjs/workspace/x264-test/src" "x264_src/encoder/macroblock.c" md5 0x40142dbffb7c09e499f12300891de7c4
	.file	1 "/usr/include/x86_64-linux-gnu/bits" "types.h" md5 0xd108b5f93a74c50510d7d9bc0ab36df9
	.file	2 "/usr/include/x86_64-linux-gnu/bits" "stdint-uintn.h" md5 0x2bf2ae53c58c01b1a1b9383b5195125c
	.file	3 "x264_src/common" "macroblock.h" md5 0x15f4a9c1d53f4196a5f2b80807bb8b1a
	.file	4 "x264_src/common" "common.h" md5 0x5afac7bf2f5673f1628c455d7d320ad7
	.file	5 "x264_src/common" "dct.h" md5 0xd983c98245ed7221137d0c4902e9385f
	.file	6 "x264_src/common" "set.h" md5 0x36bc2db0356ac829288e85d371259e00
	.file	7 "x264_src/common" "predict.h" md5 0x5f9c3dfea82ca04aa9f99900c2f3609a
	.file	8 "x264_src/common" "pixel.h" md5 0xe9056d80edbb4dc2514d271d596c298e
	.globl	x264_mb_encode_i4x4             # -- Begin function x264_mb_encode_i4x4
	.p2align	4, 0x90
	.type	x264_mb_encode_i4x4,@function
x264_mb_encode_i4x4:                    # @x264_mb_encode_i4x4
.Lfunc_begin0:
	.loc	0 111 0                         # x264_src/encoder/macroblock.c:111:0
	.cfi_startproc
# %bb.0:                                # %entry
	#DEBUG_VALUE: x264_mb_encode_i4x4:h <- $rdi
	#DEBUG_VALUE: x264_mb_encode_i4x4:idx <- $esi
	#DEBUG_VALUE: x264_mb_encode_i4x4:i_qp <- $edx
	pushq	%rbp
	.cfi_def_cfa_offset 16
	pushq	%r15
	.cfi_def_cfa_offset 24
	pushq	%r14
	.cfi_def_cfa_offset 32
	pushq	%r12
	.cfi_def_cfa_offset 40
	pushq	%rbx
	.cfi_def_cfa_offset 48
	subq	$32, %rsp
	.cfi_def_cfa_offset 80
	.cfi_offset %rbx, -48
	.cfi_offset %r12, -40
	.cfi_offset %r14, -32
	.cfi_offset %r15, -24
	.cfi_offset %rbp, -16
	movl	%esi, %r12d
	movq	%rdi, %rbx
.Ltmp0:
	.loc	0 113 43 prologue_end           # x264_src/encoder/macroblock.c:113:43
	movslq	%esi, %r14
	movzbl	block_idx_xy_fenc(%r14), %esi
.Ltmp1:
	#DEBUG_VALUE: x264_mb_encode_i4x4:idx <- $r12d
	.loc	0 113 23 is_stmt 0              # x264_src/encoder/macroblock.c:113:23
	addq	21344(%rdi), %rsi
.Ltmp2:
	#DEBUG_VALUE: x264_mb_encode_i4x4:p_src <- $rsi
	.loc	0 114 43 is_stmt 1              # x264_src/encoder/macroblock.c:114:43
	movzwl	block_idx_xy_fdec(%r14,%r14), %r15d
	.loc	0 114 23 is_stmt 0              # x264_src/encoder/macroblock.c:114:23
	addq	21392(%rdi), %r15
.Ltmp3:
	#DEBUG_VALUE: x264_mb_encode_i4x4:p_dst <- $r15
	.loc	0 117 9 is_stmt 1               # x264_src/encoder/macroblock.c:117:9
	cmpl	$0, 25812(%rdi)
.Ltmp4:
	.loc	0 117 9 is_stmt 0               # x264_src/encoder/macroblock.c:117:9
	je	.LBB0_2
.Ltmp5:
# %bb.1:                                # %if.then
	#DEBUG_VALUE: x264_mb_encode_i4x4:h <- $rbx
	#DEBUG_VALUE: x264_mb_encode_i4x4:idx <- $r12d
	#DEBUG_VALUE: x264_mb_encode_i4x4:i_qp <- $edx
	#DEBUG_VALUE: x264_mb_encode_i4x4:p_src <- $rsi
	#DEBUG_VALUE: x264_mb_encode_i4x4:p_dst <- $r15
	.loc	0 119 34 is_stmt 1              # x264_src/encoder/macroblock.c:119:34
	movq	%r14, %rax
	shlq	$5, %rax
	leaq	(%rbx,%rax), %rdi
	addq	$15600, %rdi                    # imm = 0x3CF0
	.loc	0 119 14 is_stmt 0              # x264_src/encoder/macroblock.c:119:14
	movq	%r15, %rdx
.Ltmp6:
	#DEBUG_VALUE: x264_mb_encode_i4x4:i_qp <- [DW_OP_LLVM_entry_value 1] $edx
	callq	*33056(%rbx)
.Ltmp7:
	#DEBUG_VALUE: x264_mb_encode_i4x4:nz <- $eax
	.loc	0 120 36 is_stmt 1              # x264_src/encoder/macroblock.c:120:36
	movslq	x264_scan8(,%r14,4), %rcx
	.loc	0 120 53 is_stmt 0              # x264_src/encoder/macroblock.c:120:53
	movb	%al, 25072(%rbx,%rcx)
	.loc	0 121 37 is_stmt 1              # x264_src/encoder/macroblock.c:121:37
	shrl	$2, %r14d
	.loc	0 121 31 is_stmt 0              # x264_src/encoder/macroblock.c:121:31
	movl	%r14d, %ecx
	shll	%cl, %eax
.Ltmp8:
	.loc	0 121 26                        # x264_src/encoder/macroblock.c:121:26
	orl	%eax, 17400(%rbx)
	.loc	0 122 9 is_stmt 1               # x264_src/encoder/macroblock.c:122:9
	jmp	.LBB0_7
.Ltmp9:
.LBB0_2:                                # %if.end
	#DEBUG_VALUE: x264_mb_encode_i4x4:h <- $rbx
	#DEBUG_VALUE: x264_mb_encode_i4x4:idx <- $r12d
	#DEBUG_VALUE: x264_mb_encode_i4x4:i_qp <- $edx
	#DEBUG_VALUE: x264_mb_encode_i4x4:p_src <- $rsi
	#DEBUG_VALUE: x264_mb_encode_i4x4:p_dst <- $r15
	.loc	0 0 9 is_stmt 0                 # x264_src/encoder/macroblock.c:0:9
	movl	%edx, %ebp
	movq	%rsp, %rdi
	.loc	0 125 5 is_stmt 1               # x264_src/encoder/macroblock.c:125:5
	movq	%r15, %rdx
.Ltmp10:
	#DEBUG_VALUE: x264_mb_encode_i4x4:i_qp <- $ebp
	callq	*32912(%rbx)
.Ltmp11:
	#DEBUG_VALUE: x264_quant_4x4:h <- $rbx
	#DEBUG_VALUE: x264_quant_4x4:dct <- $rsp
	#DEBUG_VALUE: x264_quant_4x4:i_qp <- $ebp
	#DEBUG_VALUE: x264_quant_4x4:i_ctxBlockCat <- 2
	#DEBUG_VALUE: x264_quant_4x4:b_intra <- 1
	#DEBUG_VALUE: x264_quant_4x4:idx <- $r12d
	#DEBUG_VALUE: x264_quant_4x4:i_quant_cat <- [DW_OP_stack_value] 0
	.loc	0 84 9                          # x264_src/encoder/macroblock.c:84:9
	cmpl	$0, 16416(%rbx)
.Ltmp12:
	.loc	0 84 9 is_stmt 0                # x264_src/encoder/macroblock.c:84:9
	je	.LBB0_4
.Ltmp13:
# %bb.3:                                # %if.then.i
	#DEBUG_VALUE: x264_mb_encode_i4x4:h <- $rbx
	#DEBUG_VALUE: x264_mb_encode_i4x4:idx <- $r12d
	#DEBUG_VALUE: x264_mb_encode_i4x4:i_qp <- $ebp
	#DEBUG_VALUE: x264_mb_encode_i4x4:p_dst <- $r15
	#DEBUG_VALUE: x264_quant_4x4:h <- $rbx
	#DEBUG_VALUE: x264_quant_4x4:dct <- $rsp
	#DEBUG_VALUE: x264_quant_4x4:i_qp <- $ebp
	#DEBUG_VALUE: x264_quant_4x4:i_ctxBlockCat <- 2
	#DEBUG_VALUE: x264_quant_4x4:b_intra <- 1
	#DEBUG_VALUE: x264_quant_4x4:idx <- $r12d
	#DEBUG_VALUE: x264_quant_4x4:i_quant_cat <- [DW_OP_stack_value] 0
	#DEBUG_VALUE: x264_quant_4x4:i_quant_cat <- 0
	.loc	0 0 9                           # x264_src/encoder/macroblock.c:0:9
	movq	%rsp, %rsi
.Ltmp14:
	.loc	0 85 16 is_stmt 1               # x264_src/encoder/macroblock.c:85:16
	movq	%rbx, %rdi
	xorl	%edx, %edx
	movl	%ebp, %ecx
	movl	$2, %r8d
	movl	$1, %r9d
	pushq	%r12
.Ltmp15:
	#DEBUG_VALUE: x264_quant_4x4:dct <- $rsi
	.cfi_adjust_cfa_offset 8
	pushq	$0
	.cfi_adjust_cfa_offset 8
	callq	x264_quant_4x4_trellis@PLT
.Ltmp16:
	addq	$16, %rsp
.Ltmp17:
	.cfi_adjust_cfa_offset -16
	#DEBUG_VALUE: x264_mb_encode_i4x4:nz <- $eax
	.loc	0 128 32                        # x264_src/encoder/macroblock.c:128:32
	movslq	x264_scan8(,%r14,4), %rcx
	.loc	0 128 49 is_stmt 0              # x264_src/encoder/macroblock.c:128:49
	movb	%al, 25072(%rbx,%rcx)
.Ltmp18:
	.loc	0 129 9 is_stmt 1               # x264_src/encoder/macroblock.c:129:9
	testl	%eax, %eax
.Ltmp19:
	.loc	0 129 9 is_stmt 0               # x264_src/encoder/macroblock.c:129:9
	je	.LBB0_7
.Ltmp20:
.LBB0_6:                                # %if.then32
	#DEBUG_VALUE: x264_mb_encode_i4x4:h <- $rbx
	#DEBUG_VALUE: x264_mb_encode_i4x4:idx <- $r12d
	#DEBUG_VALUE: x264_mb_encode_i4x4:i_qp <- $ebp
	#DEBUG_VALUE: x264_mb_encode_i4x4:p_dst <- $r15
	#DEBUG_VALUE: x264_mb_encode_i4x4:nz <- $eax
	.loc	0 131 36 is_stmt 1              # x264_src/encoder/macroblock.c:131:36
	shrl	$2, %r12d
.Ltmp21:
	#DEBUG_VALUE: x264_mb_encode_i4x4:idx <- [DW_OP_LLVM_entry_value 1] $esi
	.loc	0 0 36 is_stmt 0                # x264_src/encoder/macroblock.c:0:36
	movl	$1, %eax
.Ltmp22:
	.loc	0 131 30                        # x264_src/encoder/macroblock.c:131:30
	movl	%r12d, %ecx
	shll	%cl, %eax
	.loc	0 131 26                        # x264_src/encoder/macroblock.c:131:26
	orl	%eax, 17400(%rbx)
	.loc	0 132 30 is_stmt 1              # x264_src/encoder/macroblock.c:132:30
	shlq	$5, %r14
	leaq	(%rbx,%r14), %rdi
	addq	$15600, %rdi                    # imm = 0x3CF0
	movq	%rsp, %r14
	.loc	0 132 9 is_stmt 0               # x264_src/encoder/macroblock.c:132:9
	movq	%r14, %rsi
	callq	*33040(%rbx)
.Ltmp23:
	.loc	0 133 40 is_stmt 1              # x264_src/encoder/macroblock.c:133:40
	movq	3344(%rbx), %rsi
	.loc	0 133 9 is_stmt 0               # x264_src/encoder/macroblock.c:133:9
	movq	%r14, %rdi
	movl	%ebp, %edx
	callq	*33120(%rbx)
.Ltmp24:
	.loc	0 134 9 is_stmt 1               # x264_src/encoder/macroblock.c:134:9
	movq	%r15, %rdi
	movq	%r14, %rsi
	callq	*32920(%rbx)
.Ltmp25:
.LBB0_7:                                # %cleanup
	#DEBUG_VALUE: x264_mb_encode_i4x4:h <- $rbx
	#DEBUG_VALUE: x264_mb_encode_i4x4:idx <- [DW_OP_LLVM_entry_value 1] $esi
	#DEBUG_VALUE: x264_mb_encode_i4x4:i_qp <- [DW_OP_LLVM_entry_value 1] $edx
	#DEBUG_VALUE: x264_mb_encode_i4x4:p_dst <- $r15
	.loc	0 136 1 epilogue_begin          # x264_src/encoder/macroblock.c:136:1
	addq	$32, %rsp
	.cfi_def_cfa_offset 48
	popq	%rbx
.Ltmp26:
	#DEBUG_VALUE: x264_mb_encode_i4x4:h <- [DW_OP_LLVM_entry_value 1] $rdi
	.cfi_def_cfa_offset 40
	popq	%r12
	.cfi_def_cfa_offset 32
	popq	%r14
	.cfi_def_cfa_offset 24
	popq	%r15
.Ltmp27:
	.cfi_def_cfa_offset 16
	popq	%rbp
	.cfi_def_cfa_offset 8
	retq
.Ltmp28:
.LBB0_4:                                # %if.else.i
	.cfi_def_cfa_offset 80
	#DEBUG_VALUE: x264_mb_encode_i4x4:h <- $rbx
	#DEBUG_VALUE: x264_mb_encode_i4x4:idx <- $r12d
	#DEBUG_VALUE: x264_mb_encode_i4x4:i_qp <- $ebp
	#DEBUG_VALUE: x264_mb_encode_i4x4:p_dst <- $r15
	#DEBUG_VALUE: x264_quant_4x4:h <- $rbx
	#DEBUG_VALUE: x264_quant_4x4:dct <- $rsp
	#DEBUG_VALUE: x264_quant_4x4:i_qp <- $ebp
	#DEBUG_VALUE: x264_quant_4x4:i_ctxBlockCat <- 2
	#DEBUG_VALUE: x264_quant_4x4:b_intra <- 1
	#DEBUG_VALUE: x264_quant_4x4:idx <- $r12d
	#DEBUG_VALUE: x264_quant_4x4:i_quant_cat <- [DW_OP_stack_value] 0
	.loc	0 87 42                         # x264_src/encoder/macroblock.c:87:42
	movslq	%ebp, %rdx
	shlq	$5, %rdx
	movq	3440(%rbx), %rsi
	addq	%rdx, %rsi
	.loc	0 87 75 is_stmt 0               # x264_src/encoder/macroblock.c:87:75
	addq	3488(%rbx), %rdx
	movq	%rsp, %rdi
	.loc	0 87 16                         # x264_src/encoder/macroblock.c:87:16
	callq	*33088(%rbx)
.Ltmp29:
	#DEBUG_VALUE: x264_mb_encode_i4x4:nz <- $eax
	.loc	0 128 32 is_stmt 1              # x264_src/encoder/macroblock.c:128:32
	movslq	x264_scan8(,%r14,4), %rcx
	.loc	0 128 49 is_stmt 0              # x264_src/encoder/macroblock.c:128:49
	movb	%al, 25072(%rbx,%rcx)
.Ltmp30:
	.loc	0 129 9 is_stmt 1               # x264_src/encoder/macroblock.c:129:9
	testl	%eax, %eax
.Ltmp31:
	.loc	0 129 9 is_stmt 0               # x264_src/encoder/macroblock.c:129:9
	jne	.LBB0_6
	jmp	.LBB0_7
.Ltmp32:
.Lfunc_end0:
	.size	x264_mb_encode_i4x4, .Lfunc_end0-x264_mb_encode_i4x4
	.cfi_endproc
	.file	9 "x264_src" "x264.h" md5 0x0b04871e4f52d5a4d8833c501cba2584
	.file	10 "x264_src/common" "bs.h" md5 0x5e3e135f4389fadb006d4bc4f2055a86
	.file	11 "/usr/include" "stdint.h" md5 0xa48e64edacc5b19f56c99745232c963c
	.file	12 "/usr/include/x86_64-linux-gnu/bits" "stdint-intn.h" md5 0x55bcbdc3159515ebd91d351a70d505f4
	.file	13 "x264_src/common" "mc.h" md5 0x04d0fbb98b637fe4174e4cc20d723861
	.file	14 "x264_src/common" "cabac.h" md5 0x22d062fb0f207ca9dcf17e0003a54ffb
	.file	15 "x264_src/common" "frame.h" md5 0x4a274a9291201f03b4af1f57e6a86f6f
	.file	16 "/home/yjs/workspace" "GPUISel-llvm/build/lib/clang/19/include/__stddef_size_t.h" md5 0x2c44e821a2b1951cde2eb0fb2e656867
	.file	17 "x264_src/common" "quant.h" md5 0xd1558a6947b2031223cf5868b45335f7
	.file	18 "x264_src/encoder" "macroblock.h" md5 0x18b1d8cf424109157590a0769f6470b5
                                        # -- End function
	.globl	x264_mb_encode_i8x8             # -- Begin function x264_mb_encode_i8x8
	.p2align	4, 0x90
	.type	x264_mb_encode_i8x8,@function
x264_mb_encode_i8x8:                    # @x264_mb_encode_i8x8
.Lfunc_begin1:
	.loc	0 153 0 is_stmt 1               # x264_src/encoder/macroblock.c:153:0
	.cfi_startproc
# %bb.0:                                # %entry
	#DEBUG_VALUE: x264_mb_encode_i8x8:h <- $rdi
	#DEBUG_VALUE: x264_mb_encode_i8x8:idx <- $esi
	#DEBUG_VALUE: x264_mb_encode_i8x8:i_qp <- $edx
	pushq	%rbp
	.cfi_def_cfa_offset 16
	pushq	%r15
	.cfi_def_cfa_offset 24
	pushq	%r14
	.cfi_def_cfa_offset 32
	pushq	%r12
	.cfi_def_cfa_offset 40
	pushq	%rbx
	.cfi_def_cfa_offset 48
	subq	$128, %rsp
	.cfi_def_cfa_offset 176
	.cfi_offset %rbx, -48
	.cfi_offset %r12, -40
	.cfi_offset %r14, -32
	.cfi_offset %r15, -24
	.cfi_offset %rbp, -16
	movl	%esi, %r14d
	movq	%rdi, %rbx
.Ltmp33:
	.loc	0 154 15 prologue_end           # x264_src/encoder/macroblock.c:154:15
	leal	(,%r14,8), %eax
	andl	$8, %eax
.Ltmp34:
	#DEBUG_VALUE: x264_mb_encode_i8x8:x <- $eax
	.loc	0 155 15                        # x264_src/encoder/macroblock.c:155:15
	leal	(,%r14,4), %r12d
	movl	%r12d, %ecx
	andl	$-8, %ecx
.Ltmp35:
	#DEBUG_VALUE: x264_mb_encode_i8x8:y <- $ecx
	.loc	0 157 46                        # x264_src/encoder/macroblock.c:157:46
	movl	%ecx, %esi
.Ltmp36:
	#DEBUG_VALUE: x264_mb_encode_i8x8:idx <- $r14d
	shll	$4, %esi
	.loc	0 157 44 is_stmt 0              # x264_src/encoder/macroblock.c:157:44
	orl	%eax, %esi
	.loc	0 157 23                        # x264_src/encoder/macroblock.c:157:23
	movslq	%esi, %rsi
	addq	21344(%rdi), %rsi
.Ltmp37:
	#DEBUG_VALUE: x264_mb_encode_i8x8:p_src <- $rsi
	.loc	0 158 46 is_stmt 1              # x264_src/encoder/macroblock.c:158:46
	shll	$5, %ecx
.Ltmp38:
	.loc	0 158 44 is_stmt 0              # x264_src/encoder/macroblock.c:158:44
	orl	%eax, %ecx
	.loc	0 158 23                        # x264_src/encoder/macroblock.c:158:23
	movslq	%ecx, %r15
	addq	21392(%rdi), %r15
.Ltmp39:
	#DEBUG_VALUE: x264_mb_encode_i8x8:p_dst <- $r15
	.loc	0 161 9 is_stmt 1               # x264_src/encoder/macroblock.c:161:9
	cmpl	$0, 25812(%rdi)
.Ltmp40:
	.loc	0 161 9 is_stmt 0               # x264_src/encoder/macroblock.c:161:9
	je	.LBB1_2
.Ltmp41:
# %bb.1:                                # %if.then
	#DEBUG_VALUE: x264_mb_encode_i8x8:h <- $rbx
	#DEBUG_VALUE: x264_mb_encode_i8x8:idx <- $r14d
	#DEBUG_VALUE: x264_mb_encode_i8x8:i_qp <- $edx
	#DEBUG_VALUE: x264_mb_encode_i8x8:x <- $eax
	#DEBUG_VALUE: x264_mb_encode_i8x8:p_src <- $rsi
	#DEBUG_VALUE: x264_mb_encode_i8x8:p_dst <- $r15
	.loc	0 163 34 is_stmt 1              # x264_src/encoder/macroblock.c:163:34
	movslq	%r14d, %rax
.Ltmp42:
	shlq	$7, %rax
	leaq	(%rbx,%rax), %rdi
	addq	$15088, %rdi                    # imm = 0x3AF0
	.loc	0 163 14 is_stmt 0              # x264_src/encoder/macroblock.c:163:14
	movq	%r15, %rdx
.Ltmp43:
	#DEBUG_VALUE: x264_mb_encode_i8x8:i_qp <- [DW_OP_LLVM_entry_value 1] $edx
	callq	*33048(%rbx)
.Ltmp44:
	#DEBUG_VALUE: x264_mb_encode_i8x8:nz <- $eax
	.loc	0 164 9 is_stmt 1               # x264_src/encoder/macroblock.c:164:9
	movl	%eax, %edx
	shll	$8, %edx
	addl	%eax, %edx
	movslq	%r12d, %rcx
	movslq	x264_scan8(,%rcx,4), %rcx
	movw	%dx, 25072(%rbx,%rcx)
	orl	$2, %r12d
	movslq	%r12d, %rcx
	movslq	x264_scan8(,%rcx,4), %rsi
.Ltmp45:
	.loc	0 165 31                        # x264_src/encoder/macroblock.c:165:31
	movl	%r14d, %ecx
	shll	%cl, %eax
.Ltmp46:
	.loc	0 164 9                         # x264_src/encoder/macroblock.c:164:9
	movw	%dx, 25072(%rbx,%rsi)
.Ltmp47:
	.loc	0 165 26                        # x264_src/encoder/macroblock.c:165:26
	orl	%eax, 17400(%rbx)
	.loc	0 166 9                         # x264_src/encoder/macroblock.c:166:9
	jmp	.LBB1_8
.Ltmp48:
.LBB1_2:                                # %if.end
	#DEBUG_VALUE: x264_mb_encode_i8x8:h <- $rbx
	#DEBUG_VALUE: x264_mb_encode_i8x8:idx <- $r14d
	#DEBUG_VALUE: x264_mb_encode_i8x8:i_qp <- $edx
	#DEBUG_VALUE: x264_mb_encode_i8x8:x <- $eax
	#DEBUG_VALUE: x264_mb_encode_i8x8:p_src <- $rsi
	#DEBUG_VALUE: x264_mb_encode_i8x8:p_dst <- $r15
	.loc	0 0 9 is_stmt 0                 # x264_src/encoder/macroblock.c:0:9
	movl	%edx, %ebp
	movq	%rsp, %rdi
	.loc	0 169 5 is_stmt 1               # x264_src/encoder/macroblock.c:169:5
	movq	%r15, %rdx
.Ltmp49:
	#DEBUG_VALUE: x264_mb_encode_i8x8:i_qp <- $ebp
	callq	*32984(%rbx)
.Ltmp50:
	#DEBUG_VALUE: x264_quant_8x8:h <- $rbx
	#DEBUG_VALUE: x264_quant_8x8:dct <- $rsp
	#DEBUG_VALUE: x264_quant_8x8:i_qp <- $ebp
	#DEBUG_VALUE: x264_quant_8x8:b_intra <- 1
	#DEBUG_VALUE: x264_quant_8x8:idx <- $r14d
	#DEBUG_VALUE: x264_quant_8x8:i_quant_cat <- [DW_OP_stack_value] 0
	.loc	0 93 9                          # x264_src/encoder/macroblock.c:93:9
	cmpl	$0, 16416(%rbx)
.Ltmp51:
	.loc	0 93 9 is_stmt 0                # x264_src/encoder/macroblock.c:93:9
	je	.LBB1_4
.Ltmp52:
# %bb.3:                                # %if.then.i
	#DEBUG_VALUE: x264_mb_encode_i8x8:h <- $rbx
	#DEBUG_VALUE: x264_mb_encode_i8x8:idx <- $r14d
	#DEBUG_VALUE: x264_mb_encode_i8x8:i_qp <- $ebp
	#DEBUG_VALUE: x264_mb_encode_i8x8:p_dst <- $r15
	#DEBUG_VALUE: x264_quant_8x8:h <- $rbx
	#DEBUG_VALUE: x264_quant_8x8:dct <- $rsp
	#DEBUG_VALUE: x264_quant_8x8:i_qp <- $ebp
	#DEBUG_VALUE: x264_quant_8x8:b_intra <- 1
	#DEBUG_VALUE: x264_quant_8x8:idx <- $r14d
	#DEBUG_VALUE: x264_quant_8x8:i_quant_cat <- [DW_OP_stack_value] 0
	#DEBUG_VALUE: x264_quant_8x8:i_quant_cat <- 0
	.loc	0 0 9                           # x264_src/encoder/macroblock.c:0:9
	movq	%rsp, %rsi
.Ltmp53:
	.loc	0 94 16 is_stmt 1               # x264_src/encoder/macroblock.c:94:16
	movq	%rbx, %rdi
	xorl	%edx, %edx
	movl	%ebp, %ecx
	movl	$1, %r8d
	movl	%r14d, %r9d
	callq	x264_quant_8x8_trellis@PLT
.Ltmp54:
	#DEBUG_VALUE: x264_mb_encode_i8x8:nz <- $eax
	.loc	0 172 9                         # x264_src/encoder/macroblock.c:172:9
	testl	%eax, %eax
.Ltmp55:
	.loc	0 172 9 is_stmt 0               # x264_src/encoder/macroblock.c:172:9
	je	.LBB1_7
.Ltmp56:
.LBB1_6:                                # %if.then38
	#DEBUG_VALUE: x264_mb_encode_i8x8:h <- $rbx
	#DEBUG_VALUE: x264_mb_encode_i8x8:idx <- $r14d
	#DEBUG_VALUE: x264_mb_encode_i8x8:i_qp <- $ebp
	#DEBUG_VALUE: x264_mb_encode_i8x8:p_dst <- $r15
	#DEBUG_VALUE: x264_mb_encode_i8x8:nz <- $eax
	.loc	0 0 9                           # x264_src/encoder/macroblock.c:0:9
	movl	$1, %eax
.Ltmp57:
	.loc	0 174 30 is_stmt 1              # x264_src/encoder/macroblock.c:174:30
	movl	%r14d, %ecx
	shll	%cl, %eax
	.loc	0 174 26 is_stmt 0              # x264_src/encoder/macroblock.c:174:26
	orl	%eax, 17400(%rbx)
	.loc	0 175 30 is_stmt 1              # x264_src/encoder/macroblock.c:175:30
	movslq	%r14d, %rax
	shlq	$7, %rax
	leaq	(%rbx,%rax), %rdi
	addq	$15088, %rdi                    # imm = 0x3AF0
	movq	%rsp, %r14
.Ltmp58:
	#DEBUG_VALUE: x264_mb_encode_i8x8:idx <- $ecx
	.loc	0 175 9 is_stmt 0               # x264_src/encoder/macroblock.c:175:9
	movq	%r14, %rsi
	callq	*33032(%rbx)
.Ltmp59:
	#DEBUG_VALUE: x264_mb_encode_i8x8:idx <- [DW_OP_LLVM_entry_value 1] $esi
	.loc	0 176 40 is_stmt 1              # x264_src/encoder/macroblock.c:176:40
	movq	3376(%rbx), %rsi
	.loc	0 176 9 is_stmt 0               # x264_src/encoder/macroblock.c:176:9
	movq	%r14, %rdi
	movl	%ebp, %edx
	callq	*33112(%rbx)
.Ltmp60:
	.loc	0 177 9 is_stmt 1               # x264_src/encoder/macroblock.c:177:9
	movq	%r15, %rdi
	movq	%r14, %rsi
	callq	*32992(%rbx)
.Ltmp61:
	.loc	0 178 9                         # x264_src/encoder/macroblock.c:178:9
	movslq	%r12d, %rax
	movslq	x264_scan8(,%rax,4), %rax
	movw	$257, 25072(%rbx,%rax)          # imm = 0x101
	orl	$2, %r12d
	movslq	%r12d, %rax
	movslq	x264_scan8(,%rax,4), %rax
	movw	$257, 25072(%rbx,%rax)          # imm = 0x101
.Ltmp62:
	.loc	0 179 5                         # x264_src/encoder/macroblock.c:179:5
	jmp	.LBB1_8
.Ltmp63:
.LBB1_4:                                # %if.else.i
	#DEBUG_VALUE: x264_mb_encode_i8x8:h <- $rbx
	#DEBUG_VALUE: x264_mb_encode_i8x8:idx <- $r14d
	#DEBUG_VALUE: x264_mb_encode_i8x8:i_qp <- $ebp
	#DEBUG_VALUE: x264_mb_encode_i8x8:p_dst <- $r15
	#DEBUG_VALUE: x264_quant_8x8:h <- $rbx
	#DEBUG_VALUE: x264_quant_8x8:dct <- $rsp
	#DEBUG_VALUE: x264_quant_8x8:i_qp <- $ebp
	#DEBUG_VALUE: x264_quant_8x8:b_intra <- 1
	#DEBUG_VALUE: x264_quant_8x8:idx <- $r14d
	#DEBUG_VALUE: x264_quant_8x8:i_quant_cat <- [DW_OP_stack_value] 0
	.loc	0 96 42                         # x264_src/encoder/macroblock.c:96:42
	movslq	%ebp, %rdx
	shlq	$7, %rdx
	movq	3472(%rbx), %rsi
	addq	%rdx, %rsi
	.loc	0 96 75 is_stmt 0               # x264_src/encoder/macroblock.c:96:75
	addq	3520(%rbx), %rdx
	movq	%rsp, %rdi
	.loc	0 96 16                         # x264_src/encoder/macroblock.c:96:16
	callq	*33080(%rbx)
.Ltmp64:
	#DEBUG_VALUE: x264_mb_encode_i8x8:nz <- $eax
	.loc	0 172 9 is_stmt 1               # x264_src/encoder/macroblock.c:172:9
	testl	%eax, %eax
.Ltmp65:
	.loc	0 172 9 is_stmt 0               # x264_src/encoder/macroblock.c:172:9
	jne	.LBB1_6
.Ltmp66:
.LBB1_7:                                # %if.else
	#DEBUG_VALUE: x264_mb_encode_i8x8:h <- $rbx
	#DEBUG_VALUE: x264_mb_encode_i8x8:idx <- $r14d
	#DEBUG_VALUE: x264_mb_encode_i8x8:i_qp <- $ebp
	#DEBUG_VALUE: x264_mb_encode_i8x8:p_dst <- $r15
	#DEBUG_VALUE: x264_mb_encode_i8x8:nz <- $eax
	.loc	0 181 9 is_stmt 1               # x264_src/encoder/macroblock.c:181:9
	movslq	%r12d, %rax
.Ltmp67:
	movslq	x264_scan8(,%rax,4), %rax
	movw	$0, 25072(%rbx,%rax)
	orl	$2, %r12d
	movslq	%r12d, %rax
	movslq	x264_scan8(,%rax,4), %rax
	movw	$0, 25072(%rbx,%rax)
.Ltmp68:
.LBB1_8:                                # %cleanup
	#DEBUG_VALUE: x264_mb_encode_i8x8:h <- $rbx
	#DEBUG_VALUE: x264_mb_encode_i8x8:idx <- [DW_OP_LLVM_entry_value 1] $esi
	#DEBUG_VALUE: x264_mb_encode_i8x8:i_qp <- [DW_OP_LLVM_entry_value 1] $edx
	#DEBUG_VALUE: x264_mb_encode_i8x8:p_dst <- $r15
	.loc	0 182 1 epilogue_begin          # x264_src/encoder/macroblock.c:182:1
	addq	$128, %rsp
	.cfi_def_cfa_offset 48
	popq	%rbx
.Ltmp69:
	#DEBUG_VALUE: x264_mb_encode_i8x8:h <- [DW_OP_LLVM_entry_value 1] $rdi
	.cfi_def_cfa_offset 40
	popq	%r12
	.cfi_def_cfa_offset 32
	popq	%r14
	.cfi_def_cfa_offset 24
	popq	%r15
.Ltmp70:
	.cfi_def_cfa_offset 16
	popq	%rbp
	.cfi_def_cfa_offset 8
	retq
.Ltmp71:
.Lfunc_end1:
	.size	x264_mb_encode_i8x8, .Lfunc_end1-x264_mb_encode_i8x8
	.cfi_endproc
                                        # -- End function
	.globl	x264_mb_encode_8x8_chroma       # -- Begin function x264_mb_encode_8x8_chroma
	.p2align	4, 0x90
	.type	x264_mb_encode_8x8_chroma,@function
x264_mb_encode_8x8_chroma:              # @x264_mb_encode_8x8_chroma
.Lfunc_begin2:
	.loc	0 321 0                         # x264_src/encoder/macroblock.c:321:0
	.cfi_startproc
# %bb.0:                                # %entry
	#DEBUG_VALUE: x264_mb_encode_8x8_chroma:h <- $rdi
	#DEBUG_VALUE: x264_mb_encode_8x8_chroma:b_inter <- $esi
	#DEBUG_VALUE: x264_mb_encode_8x8_chroma:i_qp <- $edx
	pushq	%rbp
	.cfi_def_cfa_offset 16
	pushq	%r15
	.cfi_def_cfa_offset 24
	pushq	%r14
	.cfi_def_cfa_offset 32
	pushq	%r13
	.cfi_def_cfa_offset 40
	pushq	%r12
	.cfi_def_cfa_offset 48
	pushq	%rbx
	.cfi_def_cfa_offset 56
	subq	$264, %rsp                      # imm = 0x108
	.cfi_def_cfa_offset 320
	.cfi_offset %rbx, -56
	.cfi_offset %r12, -48
	.cfi_offset %r13, -40
	.cfi_offset %r14, -32
	.cfi_offset %r15, -24
	.cfi_offset %rbp, -16
	movl	%edx, %r12d
                                        # kill: def $esi killed $esi def $rsi
	movq	%rdi, %rbx
.Ltmp72:
	#DEBUG_VALUE: x264_mb_encode_8x8_chroma:dct2x2 <- [DW_OP_plus_uconst 16, DW_OP_deref] $rsp
	movq	%rsi, 64(%rsp)                  # 8-byte Spill
.Ltmp73:
	#DEBUG_VALUE: x264_mb_encode_8x8_chroma:b_inter <- [DW_OP_plus_uconst 64] [$rsp+0]
	.loc	0 323 22 prologue_end           # x264_src/encoder/macroblock.c:323:22
	testl	%esi, %esi
	movl	%edx, 12(%rsp)                  # 4-byte Spill
.Ltmp74:
	#DEBUG_VALUE: x264_mb_encode_8x8_chroma:i_qp <- [DW_OP_plus_uconst 12] [$rsp+0]
	.loc	0 325 11                        # x264_src/encoder/macroblock.c:325:11
	leaq	17404(%rdi), %rax
	.loc	0 323 30                        # x264_src/encoder/macroblock.c:323:30
	je	.LBB2_9
.Ltmp75:
# %bb.1:                                # %land.end
	#DEBUG_VALUE: x264_mb_encode_8x8_chroma:h <- $rbx
	#DEBUG_VALUE: x264_mb_encode_8x8_chroma:b_inter <- [DW_OP_plus_uconst 64] [$rsp+0]
	#DEBUG_VALUE: x264_mb_encode_8x8_chroma:i_qp <- [DW_OP_plus_uconst 12] [$rsp+0]
	#DEBUG_VALUE: x264_mb_encode_8x8_chroma:dct2x2 <- [DW_OP_plus_uconst 16, DW_OP_deref] $rsp
	.loc	0 0 30 is_stmt 0                # x264_src/encoder/macroblock.c:0:30
	movq	%rax, 104(%rsp)                 # 8-byte Spill
	.loc	0 323 30                        # x264_src/encoder/macroblock.c:323:30
	cmpl	$0, 16424(%rbx)
.Ltmp76:
	#DEBUG_VALUE: x264_mb_encode_8x8_chroma:b_decimate <- undef
	.loc	0 325 24 is_stmt 1              # x264_src/encoder/macroblock.c:325:24
	movl	$0, 17404(%rbx)
.Ltmp77:
	.loc	0 330 20                        # x264_src/encoder/macroblock.c:330:20
	je	.LBB2_10
.Ltmp78:
# %bb.2:                                # %land.lhs.true
	#DEBUG_VALUE: x264_mb_encode_8x8_chroma:h <- $rbx
	#DEBUG_VALUE: x264_mb_encode_8x8_chroma:b_inter <- [DW_OP_plus_uconst 64] [$rsp+0]
	#DEBUG_VALUE: x264_mb_encode_8x8_chroma:i_qp <- [DW_OP_plus_uconst 12] [$rsp+0]
	#DEBUG_VALUE: x264_mb_encode_8x8_chroma:dct2x2 <- [DW_OP_plus_uconst 16, DW_OP_deref] $rsp
	.loc	0 330 32 is_stmt 0              # x264_src/encoder/macroblock.c:330:32
	cmpl	$0, 16416(%rbx)
	movl	$18, %eax
	movl	$12, %ecx
	cmovel	%eax, %ecx
	movb	$1, %dl
	.loc	0 330 28                        # x264_src/encoder/macroblock.c:330:28
	cmpl	%r12d, %ecx
.Ltmp79:
	.loc	0 330 9                         # x264_src/encoder/macroblock.c:330:9
	jg	.LBB2_12
.Ltmp80:
# %bb.3:                                # %if.then
	#DEBUG_VALUE: x264_mb_encode_8x8_chroma:h <- $rbx
	#DEBUG_VALUE: x264_mb_encode_8x8_chroma:b_inter <- [DW_OP_plus_uconst 64] [$rsp+0]
	#DEBUG_VALUE: x264_mb_encode_8x8_chroma:i_qp <- [DW_OP_plus_uconst 12] [$rsp+0]
	#DEBUG_VALUE: x264_mb_encode_8x8_chroma:dct2x2 <- [DW_OP_plus_uconst 16, DW_OP_deref] $rsp
	.loc	0 332 23 is_stmt 1              # x264_src/encoder/macroblock.c:332:23
	movl	%r12d, %r12d
	movq	x264_lambda2_tab@GOTPCREL(%rip), %rax
	movl	(%rax,%r12,4), %r13d
	.loc	0 332 46 is_stmt 0              # x264_src/encoder/macroblock.c:332:46
	addl	$32, %r13d
	.loc	0 332 52                        # x264_src/encoder/macroblock.c:332:52
	sarl	$6, %r13d
.Ltmp81:
	#DEBUG_VALUE: thresh <- $r13d
	.loc	0 334 39 is_stmt 1              # x264_src/encoder/macroblock.c:334:39
	movq	21352(%rbx), %rdi
	.loc	0 334 73 is_stmt 0              # x264_src/encoder/macroblock.c:334:73
	movq	21400(%rbx), %rdx
	leaq	128(%rsp), %r8
	.loc	0 334 21                        # x264_src/encoder/macroblock.c:334:21
	movl	$16, %esi
	movl	$32, %ecx
	callq	*32152(%rbx)
.Ltmp82:
	movl	%eax, %r14d
.Ltmp83:
	#DEBUG_VALUE: score <- $r14d
	.loc	0 335 27 is_stmt 1              # x264_src/encoder/macroblock.c:335:27
	leal	(,%r13,4), %ebp
	.loc	0 335 19 is_stmt 0              # x264_src/encoder/macroblock.c:335:19
	cmpl	%ebp, %eax
.Ltmp84:
	.loc	0 335 13                        # x264_src/encoder/macroblock.c:335:13
	jge	.LBB2_5
.Ltmp85:
# %bb.4:                                # %if.then13
	#DEBUG_VALUE: x264_mb_encode_8x8_chroma:h <- $rbx
	#DEBUG_VALUE: x264_mb_encode_8x8_chroma:b_inter <- [DW_OP_plus_uconst 64] [$rsp+0]
	#DEBUG_VALUE: x264_mb_encode_8x8_chroma:i_qp <- [DW_OP_plus_uconst 12] [$rsp+0]
	#DEBUG_VALUE: x264_mb_encode_8x8_chroma:dct2x2 <- [DW_OP_plus_uconst 16, DW_OP_deref] $rsp
	#DEBUG_VALUE: thresh <- $r13d
	#DEBUG_VALUE: score <- $r14d
	.loc	0 336 40 is_stmt 1              # x264_src/encoder/macroblock.c:336:40
	movq	21360(%rbx), %rdi
	.loc	0 336 74 is_stmt 0              # x264_src/encoder/macroblock.c:336:74
	movq	21408(%rbx), %rdx
	.loc	0 336 109                       # x264_src/encoder/macroblock.c:336:109
	leaq	132(%rsp), %r8
	.loc	0 336 22                        # x264_src/encoder/macroblock.c:336:22
	movl	$16, %esi
	movl	$32, %ecx
	callq	*32152(%rbx)
.Ltmp86:
	.loc	0 336 19                        # x264_src/encoder/macroblock.c:336:19
	addl	%eax, %r14d
.Ltmp87:
	#DEBUG_VALUE: score <- $r14d
.LBB2_5:                                # %if.end
	#DEBUG_VALUE: x264_mb_encode_8x8_chroma:h <- $rbx
	#DEBUG_VALUE: x264_mb_encode_8x8_chroma:b_inter <- [DW_OP_plus_uconst 64] [$rsp+0]
	#DEBUG_VALUE: x264_mb_encode_8x8_chroma:i_qp <- [DW_OP_plus_uconst 12] [$rsp+0]
	#DEBUG_VALUE: x264_mb_encode_8x8_chroma:dct2x2 <- [DW_OP_plus_uconst 16, DW_OP_deref] $rsp
	#DEBUG_VALUE: thresh <- $r13d
	#DEBUG_VALUE: score <- $r14d
	#DEBUG_VALUE: score <- $r14d
	.loc	0 337 19 is_stmt 1              # x264_src/encoder/macroblock.c:337:19
	cmpl	%ebp, %r14d
.Ltmp88:
	.loc	0 337 13 is_stmt 0              # x264_src/encoder/macroblock.c:337:13
	jge	.LBB2_11
.Ltmp89:
# %bb.6:                                # %if.then29
	#DEBUG_VALUE: x264_mb_encode_8x8_chroma:h <- $rbx
	#DEBUG_VALUE: x264_mb_encode_8x8_chroma:b_inter <- [DW_OP_plus_uconst 64] [$rsp+0]
	#DEBUG_VALUE: x264_mb_encode_8x8_chroma:i_qp <- [DW_OP_plus_uconst 12] [$rsp+0]
	#DEBUG_VALUE: x264_mb_encode_8x8_chroma:dct2x2 <- [DW_OP_plus_uconst 16, DW_OP_deref] $rsp
	#DEBUG_VALUE: thresh <- $r13d
	#DEBUG_VALUE: score <- $r14d
	.loc	0 339 56 is_stmt 1              # x264_src/encoder/macroblock.c:339:56
	movw	$0, 25081(%rbx)
	.loc	0 341 56                        # x264_src/encoder/macroblock.c:341:56
	movw	$0, 25089(%rbx)
	.loc	0 343 56                        # x264_src/encoder/macroblock.c:343:56
	movw	$0, 25105(%rbx)
	.loc	0 345 56                        # x264_src/encoder/macroblock.c:345:56
	movw	$0, 25113(%rbx)
	.loc	0 347 64                        # x264_src/encoder/macroblock.c:347:64
	movw	$0, 25118(%rbx)
.Ltmp90:
	#DEBUG_VALUE: ch <- 0
	.loc	0 0 64 is_stmt 0                # x264_src/encoder/macroblock.c:0:64
	movq	64(%rsp), %rax                  # 8-byte Reload
	leal	2(%rax), %r15d
	movslq	%r15d, %rax
	movq	%rax, 32(%rsp)                  # 8-byte Spill
	movl	$2863311531, %r14d              # imm = 0xAAAAAAAB
.Ltmp91:
	imulq	%r12, %r14
	shrq	$34, %r14
	leal	(%r14,%r14), %eax
	leal	(%rax,%rax,2), %eax
	movl	12(%rsp), %ecx                  # 4-byte Reload
	movl	%ecx, %ebp
	subl	%eax, %ebp
	#DEBUG_VALUE: ch <- 0
.Ltmp92:
	.loc	0 351 29 is_stmt 1              # x264_src/encoder/macroblock.c:351:29
	cmpl	%r13d, 128(%rsp)
.Ltmp93:
	.loc	0 351 21 is_stmt 0              # x264_src/encoder/macroblock.c:351:21
	jle	.LBB2_58
.Ltmp94:
# %bb.7:                                # %if.then77
	#DEBUG_VALUE: x264_mb_encode_8x8_chroma:h <- $rbx
	#DEBUG_VALUE: x264_mb_encode_8x8_chroma:b_inter <- [DW_OP_plus_uconst 64] [$rsp+0]
	#DEBUG_VALUE: x264_mb_encode_8x8_chroma:i_qp <- [DW_OP_plus_uconst 12] [$rsp+0]
	#DEBUG_VALUE: x264_mb_encode_8x8_chroma:dct2x2 <- [DW_OP_plus_uconst 16, DW_OP_deref] $rsp
	#DEBUG_VALUE: thresh <- $r13d
	#DEBUG_VALUE: ch <- 0
	.loc	0 353 52 is_stmt 1              # x264_src/encoder/macroblock.c:353:52
	movq	21352(%rbx), %rsi
	.loc	0 353 76 is_stmt 0              # x264_src/encoder/macroblock.c:353:76
	movq	21400(%rbx), %rdx
	leaq	16(%rsp), %rdi
	.loc	0 353 21                        # x264_src/encoder/macroblock.c:353:21
	callq	*32936(%rbx)
.Ltmp95:
	.loc	0 354 25 is_stmt 1              # x264_src/encoder/macroblock.c:354:25
	cmpl	$0, 16416(%rbx)
.Ltmp96:
	.loc	0 354 25 is_stmt 0              # x264_src/encoder/macroblock.c:354:25
	je	.LBB2_54
.Ltmp97:
# %bb.8:                                # %if.then93
	#DEBUG_VALUE: x264_mb_encode_8x8_chroma:h <- $rbx
	#DEBUG_VALUE: x264_mb_encode_8x8_chroma:b_inter <- [DW_OP_plus_uconst 64] [$rsp+0]
	#DEBUG_VALUE: x264_mb_encode_8x8_chroma:i_qp <- [DW_OP_plus_uconst 12] [$rsp+0]
	#DEBUG_VALUE: x264_mb_encode_8x8_chroma:dct2x2 <- [DW_OP_plus_uconst 16, DW_OP_deref] $rsp
	#DEBUG_VALUE: thresh <- $r13d
	#DEBUG_VALUE: ch <- 0
	.loc	0 355 33 is_stmt 1              # x264_src/encoder/macroblock.c:355:33
	subq	$8, %rsp
.Ltmp98:
	.cfi_adjust_cfa_offset 8
	.loc	0 0 33 is_stmt 0                # x264_src/encoder/macroblock.c:0:33
	leaq	24(%rsp), %rsi
	.loc	0 355 33                        # x264_src/encoder/macroblock.c:355:33
	movq	%rbx, %rdi
	movl	%r15d, %edx
	movl	20(%rsp), %ecx                  # 4-byte Reload
	movl	$3, %r8d
	xorl	%r9d, %r9d
	pushq	$1
	.cfi_adjust_cfa_offset 8
	callq	x264_quant_dc_trellis@PLT
.Ltmp99:
	#DEBUG_VALUE: x264_mb_encode_8x8_chroma:nz_dc <- $eax
	addq	$16, %rsp
	.cfi_adjust_cfa_offset -16
	.loc	0 355 25                        # x264_src/encoder/macroblock.c:355:25
	jmp	.LBB2_55
.Ltmp100:
.LBB2_9:                                # %land.end.thread
	#DEBUG_VALUE: x264_mb_encode_8x8_chroma:h <- $rbx
	#DEBUG_VALUE: x264_mb_encode_8x8_chroma:b_inter <- [DW_OP_plus_uconst 64] [$rsp+0]
	#DEBUG_VALUE: x264_mb_encode_8x8_chroma:i_qp <- [DW_OP_plus_uconst 12] [$rsp+0]
	#DEBUG_VALUE: x264_mb_encode_8x8_chroma:dct2x2 <- [DW_OP_plus_uconst 16, DW_OP_deref] $rsp
	.loc	0 0 25                          # x264_src/encoder/macroblock.c:0:25
	movq	%rax, 104(%rsp)                 # 8-byte Spill
	.loc	0 325 24 is_stmt 1              # x264_src/encoder/macroblock.c:325:24
	movl	$0, 17404(%rbx)
.Ltmp101:
.LBB2_10:
	#DEBUG_VALUE: x264_mb_encode_8x8_chroma:h <- $rbx
	#DEBUG_VALUE: x264_mb_encode_8x8_chroma:b_inter <- [DW_OP_plus_uconst 64] [$rsp+0]
	#DEBUG_VALUE: x264_mb_encode_8x8_chroma:i_qp <- [DW_OP_plus_uconst 12] [$rsp+0]
	#DEBUG_VALUE: x264_mb_encode_8x8_chroma:dct2x2 <- [DW_OP_plus_uconst 16, DW_OP_deref] $rsp
	.loc	0 0 24 is_stmt 0                # x264_src/encoder/macroblock.c:0:24
	xorl	%edx, %edx
.Ltmp102:
.LBB2_12:                               # %if.end152
	#DEBUG_VALUE: x264_mb_encode_8x8_chroma:h <- $rbx
	#DEBUG_VALUE: x264_mb_encode_8x8_chroma:b_inter <- [DW_OP_plus_uconst 64] [$rsp+0]
	#DEBUG_VALUE: x264_mb_encode_8x8_chroma:i_qp <- [DW_OP_plus_uconst 12] [$rsp+0]
	#DEBUG_VALUE: x264_mb_encode_8x8_chroma:dct2x2 <- [DW_OP_plus_uconst 16, DW_OP_deref] $rsp
	movl	%edx, 60(%rsp)                  # 4-byte Spill
	.loc	0 323 22 is_stmt 1              # x264_src/encoder/macroblock.c:323:22
	xorl	%ecx, %ecx
	movq	64(%rsp), %rax                  # 8-byte Reload
	testl	%eax, %eax
	sete	%cl
	#DEBUG_VALUE: ch <- 0
	movl	%ecx, 56(%rsp)                  # 4-byte Spill
	leaq	15600(%rbx), %rcx
	movq	%rcx, 32(%rsp)                  # 8-byte Spill
	leaq	15072(%rbx), %rcx
	movq	%rcx, 120(%rsp)                 # 8-byte Spill
	addl	$2, %eax
	movl	%eax, 52(%rsp)                  # 4-byte Spill
	cltq
	movq	%rax, 40(%rsp)                  # 8-byte Spill
	movslq	%r12d, %rax
	movl	%edx, %ecx
	xorb	$1, %cl
	movb	%cl, 31(%rsp)                   # 1-byte Spill
	movq	%rax, 72(%rsp)                  # 8-byte Spill
	imulq	$715827883, %rax, %rcx          # imm = 0x2AAAAAAB
	movq	%rcx, %rax
	shrq	$63, %rax
	shrq	$32, %rcx
	addl	%eax, %ecx
	movq	%rcx, 96(%rsp)                  # 8-byte Spill
	leal	(%rcx,%rcx), %eax
	leal	(%rax,%rax,2), %eax
	movl	%r12d, %ecx
	subl	%eax, %ecx
	movslq	%ecx, %rax
	movq	%rax, 88(%rsp)                  # 8-byte Spill
	movb	$1, %al
	xorl	%ebp, %ebp
	leaq	128(%rsp), %r14
	jmp	.LBB2_15
.Ltmp103:
	.p2align	4, 0x90
.LBB2_13:                               # %for.cond174.preheader
                                        #   in Loop: Header=BB2_15 Depth=1
	#DEBUG_VALUE: x264_mb_encode_8x8_chroma:h <- $rbx
	#DEBUG_VALUE: x264_mb_encode_8x8_chroma:b_inter <- [DW_OP_plus_uconst 64] [$rsp+0]
	#DEBUG_VALUE: x264_mb_encode_8x8_chroma:i_qp <- [DW_OP_plus_uconst 12] [$rsp+0]
	#DEBUG_VALUE: ch <- $rbp
	#DEBUG_VALUE: p_src <- $rsi
	#DEBUG_VALUE: p_dst <- $rdx
	#DEBUG_VALUE: i_decimate_score <- 0
	#DEBUG_VALUE: nz_ac <- 0
	.loc	0 0 22 is_stmt 0                # x264_src/encoder/macroblock.c:0:22
	leaq	(,%rbp,4), %r14
.Ltmp104:
	#DEBUG_VALUE: i <- 0
	#DEBUG_VALUE: oe <- 0
	#DEBUG_VALUE: od <- 0
	.loc	0 390 63 is_stmt 1              # x264_src/encoder/macroblock.c:390:63
	leaq	16(,%rbp,4), %rdi
	.loc	0 390 44 is_stmt 0              # x264_src/encoder/macroblock.c:390:44
	shlq	$5, %rdi
	movq	32(%rsp), %rax                  # 8-byte Reload
	addq	%rax, %rdi
	movq	%rax, %r13
	movq	120(%rsp), %rax                 # 8-byte Reload
	.loc	0 390 92                        # x264_src/encoder/macroblock.c:390:92
	leaq	(%rax,%rbp,8), %rcx
	movq	%rsi, %r12
	movq	%rdx, %r15
	.loc	0 390 22                        # x264_src/encoder/macroblock.c:390:22
	callq	*33064(%rbx)
.Ltmp105:
	#DEBUG_VALUE: p_src <- $r12
	#DEBUG_VALUE: p_dst <- $r15
	#DEBUG_VALUE: x264_mb_encode_8x8_chroma:nz <- $eax
	.loc	0 391 44 is_stmt 1              # x264_src/encoder/macroblock.c:391:44
	movslq	x264_scan8+64(,%r14,4), %rcx
	.loc	0 391 67 is_stmt 0              # x264_src/encoder/macroblock.c:391:67
	movb	%al, 25072(%rbx,%rcx)
	.loc	0 392 36 is_stmt 1              # x264_src/encoder/macroblock.c:392:36
	orl	%eax, 17404(%rbx)
.Ltmp106:
	#DEBUG_VALUE: i <- 1
	#DEBUG_VALUE: oe <- 4
	#DEBUG_VALUE: od <- 4
	.loc	0 390 63                        # x264_src/encoder/macroblock.c:390:63
	leaq	17(,%rbp,4), %rdi
	.loc	0 390 44 is_stmt 0              # x264_src/encoder/macroblock.c:390:44
	shlq	$5, %rdi
	addq	%r13, %rdi
	.loc	0 390 76                        # x264_src/encoder/macroblock.c:390:76
	leaq	4(%r12), %rsi
	.loc	0 390 86                        # x264_src/encoder/macroblock.c:390:86
	leaq	4(%r15), %rdx
	movq	120(%rsp), %r13                 # 8-byte Reload
	.loc	0 390 92                        # x264_src/encoder/macroblock.c:390:92
	leaq	2(,%rbp,8), %rcx
	addq	%r13, %rcx
	.loc	0 390 22                        # x264_src/encoder/macroblock.c:390:22
	callq	*33064(%rbx)
.Ltmp107:
	#DEBUG_VALUE: x264_mb_encode_8x8_chroma:nz <- $eax
	.loc	0 391 44 is_stmt 1              # x264_src/encoder/macroblock.c:391:44
	movslq	x264_scan8+68(,%r14,4), %rcx
	.loc	0 391 67 is_stmt 0              # x264_src/encoder/macroblock.c:391:67
	movb	%al, 25072(%rbx,%rcx)
	.loc	0 392 36 is_stmt 1              # x264_src/encoder/macroblock.c:392:36
	orl	%eax, 17404(%rbx)
.Ltmp108:
	#DEBUG_VALUE: i <- 2
	#DEBUG_VALUE: oe <- 64
	#DEBUG_VALUE: od <- 128
	.loc	0 390 63                        # x264_src/encoder/macroblock.c:390:63
	leaq	18(,%rbp,4), %rdi
	.loc	0 390 44 is_stmt 0              # x264_src/encoder/macroblock.c:390:44
	shlq	$5, %rdi
	addq	32(%rsp), %rdi                  # 8-byte Folded Reload
	.loc	0 390 76                        # x264_src/encoder/macroblock.c:390:76
	leaq	64(%r12), %rsi
	.loc	0 390 86                        # x264_src/encoder/macroblock.c:390:86
	leaq	128(%r15), %rdx
	.loc	0 390 92                        # x264_src/encoder/macroblock.c:390:92
	leaq	4(,%rbp,8), %rcx
	addq	%r13, %rcx
	.loc	0 390 22                        # x264_src/encoder/macroblock.c:390:22
	callq	*33064(%rbx)
.Ltmp109:
	#DEBUG_VALUE: x264_mb_encode_8x8_chroma:nz <- $eax
	.loc	0 391 44 is_stmt 1              # x264_src/encoder/macroblock.c:391:44
	movslq	x264_scan8+72(,%r14,4), %rcx
	.loc	0 391 67 is_stmt 0              # x264_src/encoder/macroblock.c:391:67
	movb	%al, 25072(%rbx,%rcx)
	.loc	0 392 36 is_stmt 1              # x264_src/encoder/macroblock.c:392:36
	orl	%eax, 17404(%rbx)
.Ltmp110:
	#DEBUG_VALUE: i <- 3
	#DEBUG_VALUE: oe <- 68
	#DEBUG_VALUE: od <- 132
	.loc	0 390 63                        # x264_src/encoder/macroblock.c:390:63
	leaq	19(,%rbp,4), %rdi
	.loc	0 390 44 is_stmt 0              # x264_src/encoder/macroblock.c:390:44
	shlq	$5, %rdi
	addq	32(%rsp), %rdi                  # 8-byte Folded Reload
	.loc	0 390 76                        # x264_src/encoder/macroblock.c:390:76
	addq	$68, %r12
.Ltmp111:
	.loc	0 390 86                        # x264_src/encoder/macroblock.c:390:86
	addq	$132, %r15
.Ltmp112:
	.loc	0 390 92                        # x264_src/encoder/macroblock.c:390:92
	leaq	6(,%rbp,8), %rcx
	addq	%r13, %rcx
	.loc	0 390 22                        # x264_src/encoder/macroblock.c:390:22
	movq	%r12, %rsi
	movl	12(%rsp), %r12d                 # 4-byte Reload
	movq	%r15, %rdx
	callq	*33064(%rbx)
.Ltmp113:
	#DEBUG_VALUE: x264_mb_encode_8x8_chroma:nz <- $eax
	.loc	0 391 44 is_stmt 1              # x264_src/encoder/macroblock.c:391:44
	movslq	x264_scan8+76(,%r14,4), %rcx
	leaq	128(%rsp), %r14
	.loc	0 391 67 is_stmt 0              # x264_src/encoder/macroblock.c:391:67
	movb	%al, 25072(%rbx,%rcx)
	.loc	0 392 36 is_stmt 1              # x264_src/encoder/macroblock.c:392:36
	orl	%eax, 17404(%rbx)
.Ltmp114:
	#DEBUG_VALUE: i <- 4
	#DEBUG_VALUE: array_non_zero_int:v <- undef
	#DEBUG_VALUE: array_non_zero_int:i_count <- 8
	.loc	3 354 17                        # x264_src/common/macroblock.h:354:17
	cmpq	$0, 15072(%rbx,%rbp,8)
.Ltmp115:
	.loc	0 394 59                        # x264_src/encoder/macroblock.c:394:59
	setne	25118(%rbx,%rbp)
.Ltmp116:
.LBB2_14:                               # %cleanup466
                                        #   in Loop: Header=BB2_15 Depth=1
	#DEBUG_VALUE: x264_mb_encode_8x8_chroma:h <- $rbx
	#DEBUG_VALUE: x264_mb_encode_8x8_chroma:b_inter <- [DW_OP_plus_uconst 64] [$rsp+0]
	#DEBUG_VALUE: x264_mb_encode_8x8_chroma:i_qp <- [DW_OP_plus_uconst 12] [$rsp+0]
	.loc	0 0 59 is_stmt 0                # x264_src/encoder/macroblock.c:0:59
	movl	$1, %ebp
.Ltmp117:
	#DEBUG_VALUE: ch <- [DW_OP_plus_uconst 1, DW_OP_stack_value] undef
	.loc	0 375 5 is_stmt 1               # x264_src/encoder/macroblock.c:375:5
	testb	$1, 84(%rsp)                    # 1-byte Folded Reload
	movl	$0, %eax
	je	.LBB2_52
.Ltmp118:
.LBB2_15:                               # %for.body158
                                        # =>This Inner Loop Header: Depth=1
	#DEBUG_VALUE: x264_mb_encode_8x8_chroma:h <- $rbx
	#DEBUG_VALUE: x264_mb_encode_8x8_chroma:b_inter <- [DW_OP_plus_uconst 64] [$rsp+0]
	#DEBUG_VALUE: x264_mb_encode_8x8_chroma:i_qp <- [DW_OP_plus_uconst 12] [$rsp+0]
	#DEBUG_VALUE: ch <- $rbp
	.loc	0 0 5 is_stmt 0                 # x264_src/encoder/macroblock.c:0:5
	movl	%eax, 84(%rsp)                  # 4-byte Spill
.Ltmp119:
	.loc	0 377 27 is_stmt 1              # x264_src/encoder/macroblock.c:377:27
	movq	21352(%rbx,%rbp,8), %rsi
.Ltmp120:
	#DEBUG_VALUE: p_src <- $rsi
	.loc	0 378 27                        # x264_src/encoder/macroblock.c:378:27
	movq	21400(%rbx,%rbp,8), %rdx
.Ltmp121:
	#DEBUG_VALUE: p_dst <- $rdx
	#DEBUG_VALUE: i_decimate_score <- 0
	#DEBUG_VALUE: nz_ac <- 0
	.loc	0 384 13                        # x264_src/encoder/macroblock.c:384:13
	cmpl	$0, 25812(%rbx)
.Ltmp122:
	.loc	0 384 13 is_stmt 0              # x264_src/encoder/macroblock.c:384:13
	jne	.LBB2_13
.Ltmp123:
# %bb.16:                               # %if.end245
                                        #   in Loop: Header=BB2_15 Depth=1
	#DEBUG_VALUE: x264_mb_encode_8x8_chroma:h <- $rbx
	#DEBUG_VALUE: x264_mb_encode_8x8_chroma:b_inter <- [DW_OP_plus_uconst 64] [$rsp+0]
	#DEBUG_VALUE: x264_mb_encode_8x8_chroma:i_qp <- [DW_OP_plus_uconst 12] [$rsp+0]
	#DEBUG_VALUE: ch <- $rbp
	#DEBUG_VALUE: p_src <- $rsi
	#DEBUG_VALUE: p_dst <- $rdx
	#DEBUG_VALUE: i_decimate_score <- 0
	#DEBUG_VALUE: nz_ac <- 0
	.loc	0 398 9 is_stmt 1               # x264_src/encoder/macroblock.c:398:9
	movq	%r14, %rdi
	movq	%rdx, 112(%rsp)                 # 8-byte Spill
.Ltmp124:
	#DEBUG_VALUE: p_dst <- [DW_OP_plus_uconst 112, DW_OP_deref] $rsp
	callq	*32928(%rbx)
.Ltmp125:
	#DEBUG_VALUE: dct2x2dc:d <- [DW_OP_plus_uconst 16, DW_OP_stack_value] $rsp
	#DEBUG_VALUE: dct2x2dc:dct4x4 <- [DW_OP_plus_uconst 128, DW_OP_stack_value] $rsp
	.loc	0 67 14                         # x264_src/encoder/macroblock.c:67:14
	movzwl	128(%rsp), %eax
	.loc	0 67 29 is_stmt 0               # x264_src/encoder/macroblock.c:67:29
	movzwl	160(%rsp), %ecx
	.loc	0 67 27                         # x264_src/encoder/macroblock.c:67:27
	leal	(%rcx,%rax), %edx
.Ltmp126:
	#DEBUG_VALUE: dct2x2dc:d0 <- $edx
	.loc	0 68 14 is_stmt 1               # x264_src/encoder/macroblock.c:68:14
	movzwl	192(%rsp), %esi
	.loc	0 68 29 is_stmt 0               # x264_src/encoder/macroblock.c:68:29
	movzwl	224(%rsp), %edi
	.loc	0 68 27                         # x264_src/encoder/macroblock.c:68:27
	leal	(%rdi,%rsi), %r8d
.Ltmp127:
	#DEBUG_VALUE: dct2x2dc:d1 <- $r8d
	.loc	0 69 27 is_stmt 1               # x264_src/encoder/macroblock.c:69:27
	subl	%ecx, %eax
.Ltmp128:
	#DEBUG_VALUE: dct2x2dc:d2 <- $eax
	.loc	0 70 27                         # x264_src/encoder/macroblock.c:70:27
	subl	%edi, %esi
.Ltmp129:
	#DEBUG_VALUE: dct2x2dc:d3 <- $esi
	.loc	0 71 15                         # x264_src/encoder/macroblock.c:71:15
	leal	(%r8,%rdx), %ecx
	.loc	0 71 10 is_stmt 0               # x264_src/encoder/macroblock.c:71:10
	movw	%cx, 16(%rsp)
.Ltmp130:
	#DEBUG_VALUE: x264_mb_encode_8x8_chroma:dct2x2 <- [DW_OP_plus_uconst 16, DW_OP_deref] $rsp
	.loc	0 72 15 is_stmt 1               # x264_src/encoder/macroblock.c:72:15
	leal	(%rsi,%rax), %ecx
	.loc	0 72 10 is_stmt 0               # x264_src/encoder/macroblock.c:72:10
	movw	%cx, 20(%rsp)
	.loc	0 73 15 is_stmt 1               # x264_src/encoder/macroblock.c:73:15
	subl	%r8d, %edx
.Ltmp131:
	.loc	0 73 10 is_stmt 0               # x264_src/encoder/macroblock.c:73:10
	movw	%dx, 18(%rsp)
	.loc	0 74 15 is_stmt 1               # x264_src/encoder/macroblock.c:74:15
	subl	%esi, %eax
.Ltmp132:
	.loc	0 74 10 is_stmt 0               # x264_src/encoder/macroblock.c:74:10
	movw	%ax, 22(%rsp)
	.loc	0 75 18 is_stmt 1               # x264_src/encoder/macroblock.c:75:18
	movw	$0, 128(%rsp)
	.loc	0 76 18                         # x264_src/encoder/macroblock.c:76:18
	movw	$0, 160(%rsp)
	.loc	0 77 18                         # x264_src/encoder/macroblock.c:77:18
	movw	$0, 192(%rsp)
	.loc	0 78 18                         # x264_src/encoder/macroblock.c:78:18
	movw	$0, 224(%rsp)
.Ltmp133:
	#DEBUG_VALUE: i <- 0
	#DEBUG_VALUE: nz_ac <- 0
	#DEBUG_VALUE: i_decimate_score <- 0
	#DEBUG_VALUE: i <- 0
	.loc	0 403 17                        # x264_src/encoder/macroblock.c:403:17
	cmpl	$0, 16416(%rbx)
.Ltmp134:
	.loc	0 403 17 is_stmt 0              # x264_src/encoder/macroblock.c:403:17
	je	.LBB2_18
.Ltmp135:
# %bb.17:                               # %if.then259
                                        #   in Loop: Header=BB2_15 Depth=1
	#DEBUG_VALUE: x264_mb_encode_8x8_chroma:h <- $rbx
	#DEBUG_VALUE: x264_mb_encode_8x8_chroma:b_inter <- [DW_OP_plus_uconst 64] [$rsp+0]
	#DEBUG_VALUE: x264_mb_encode_8x8_chroma:i_qp <- [DW_OP_plus_uconst 12] [$rsp+0]
	#DEBUG_VALUE: x264_mb_encode_8x8_chroma:dct2x2 <- [DW_OP_plus_uconst 16, DW_OP_deref] $rsp
	#DEBUG_VALUE: ch <- $rbp
	#DEBUG_VALUE: p_dst <- [DW_OP_plus_uconst 112, DW_OP_deref] $rsp
	#DEBUG_VALUE: i_decimate_score <- 0
	#DEBUG_VALUE: nz_ac <- 0
	#DEBUG_VALUE: i <- 0
	.loc	0 404 22 is_stmt 1              # x264_src/encoder/macroblock.c:404:22
	movq	%rbx, %rdi
	movq	%r14, %rsi
	movl	52(%rsp), %edx                  # 4-byte Reload
	movl	%r12d, %ecx
	movl	$4, %r8d
	movl	56(%rsp), %r9d                  # 4-byte Reload
	pushq	$0
.Ltmp136:
	.cfi_adjust_cfa_offset 8
	pushq	$1
	.cfi_adjust_cfa_offset 8
	callq	x264_quant_4x4_trellis@PLT
.Ltmp137:
	#DEBUG_VALUE: x264_mb_encode_8x8_chroma:nz <- $eax
	addq	$16, %rsp
	.cfi_adjust_cfa_offset -16
	.loc	0 404 17 is_stmt 0              # x264_src/encoder/macroblock.c:404:17
	jmp	.LBB2_19
.Ltmp138:
.LBB2_18:                               # %if.else268
                                        #   in Loop: Header=BB2_15 Depth=1
	#DEBUG_VALUE: x264_mb_encode_8x8_chroma:h <- $rbx
	#DEBUG_VALUE: x264_mb_encode_8x8_chroma:b_inter <- [DW_OP_plus_uconst 64] [$rsp+0]
	#DEBUG_VALUE: x264_mb_encode_8x8_chroma:i_qp <- [DW_OP_plus_uconst 12] [$rsp+0]
	#DEBUG_VALUE: x264_mb_encode_8x8_chroma:dct2x2 <- [DW_OP_plus_uconst 16, DW_OP_deref] $rsp
	#DEBUG_VALUE: ch <- $rbp
	#DEBUG_VALUE: p_dst <- [DW_OP_plus_uconst 112, DW_OP_deref] $rsp
	#DEBUG_VALUE: i_decimate_score <- 0
	#DEBUG_VALUE: nz_ac <- 0
	#DEBUG_VALUE: i <- 0
	.loc	0 0 17                          # x264_src/encoder/macroblock.c:0:17
	movq	72(%rsp), %rdx                  # 8-byte Reload
	.loc	0 406 54 is_stmt 1              # x264_src/encoder/macroblock.c:406:54
	shlq	$5, %rdx
	movq	40(%rsp), %rax                  # 8-byte Reload
	movq	3440(%rbx,%rax,8), %rsi
	addq	%rdx, %rsi
	.loc	0 406 91 is_stmt 0              # x264_src/encoder/macroblock.c:406:91
	addq	3488(%rbx,%rax,8), %rdx
	.loc	0 406 22                        # x264_src/encoder/macroblock.c:406:22
	movq	%r14, %rdi
	callq	*33088(%rbx)
.Ltmp139:
	#DEBUG_VALUE: x264_mb_encode_8x8_chroma:nz <- $eax
.LBB2_19:                               # %if.end288
                                        #   in Loop: Header=BB2_15 Depth=1
	#DEBUG_VALUE: x264_mb_encode_8x8_chroma:h <- $rbx
	#DEBUG_VALUE: x264_mb_encode_8x8_chroma:b_inter <- [DW_OP_plus_uconst 64] [$rsp+0]
	#DEBUG_VALUE: x264_mb_encode_8x8_chroma:i_qp <- [DW_OP_plus_uconst 12] [$rsp+0]
	#DEBUG_VALUE: ch <- $rbp
	#DEBUG_VALUE: p_dst <- [DW_OP_plus_uconst 112, DW_OP_deref] $rsp
	#DEBUG_VALUE: i_decimate_score <- 0
	#DEBUG_VALUE: nz_ac <- 0
	#DEBUG_VALUE: x264_mb_encode_8x8_chroma:nz <- $eax
	#DEBUG_VALUE: i <- 0
	.loc	0 0 22                          # x264_src/encoder/macroblock.c:0:22
	leaq	(,%rbp,4), %r15
	#DEBUG_VALUE: x264_mb_encode_8x8_chroma:nz <- $eax
	.loc	0 407 40 is_stmt 1              # x264_src/encoder/macroblock.c:407:40
	movslq	x264_scan8+64(,%r15,4), %rcx
	.loc	0 407 63 is_stmt 0              # x264_src/encoder/macroblock.c:407:63
	movb	%al, 25072(%rbx,%rcx)
	xorl	%r13d, %r13d
.Ltmp140:
	.loc	0 408 17 is_stmt 1              # x264_src/encoder/macroblock.c:408:17
	testl	%eax, %eax
.Ltmp141:
	.loc	0 408 17 is_stmt 0              # x264_src/encoder/macroblock.c:408:17
	je	.LBB2_22
.Ltmp142:
# %bb.20:                               # %if.then301
                                        #   in Loop: Header=BB2_15 Depth=1
	#DEBUG_VALUE: x264_mb_encode_8x8_chroma:h <- $rbx
	#DEBUG_VALUE: x264_mb_encode_8x8_chroma:b_inter <- [DW_OP_plus_uconst 64] [$rsp+0]
	#DEBUG_VALUE: x264_mb_encode_8x8_chroma:i_qp <- [DW_OP_plus_uconst 12] [$rsp+0]
	#DEBUG_VALUE: ch <- $rbp
	#DEBUG_VALUE: p_dst <- [DW_OP_plus_uconst 112, DW_OP_deref] $rsp
	#DEBUG_VALUE: i_decimate_score <- 0
	#DEBUG_VALUE: nz_ac <- 0
	#DEBUG_VALUE: x264_mb_encode_8x8_chroma:nz <- $eax
	#DEBUG_VALUE: i <- 0
	.loc	0 0 17                          # x264_src/encoder/macroblock.c:0:17
	movl	%r12d, %r13d
	movq	%r15, %r12
	orq	$16, %r12
.Ltmp143:
	#DEBUG_VALUE: nz_ac <- 1
	.loc	0 411 38 is_stmt 1              # x264_src/encoder/macroblock.c:411:38
	shlq	$5, %r12
	addq	32(%rsp), %r12                  # 8-byte Folded Reload
	.loc	0 411 17 is_stmt 0              # x264_src/encoder/macroblock.c:411:17
	movq	%r12, %rdi
	leaq	128(%rsp), %r14
	movq	%r14, %rsi
	callq	*33040(%rbx)
.Ltmp144:
	.loc	0 0 17                          # x264_src/encoder/macroblock.c:0:17
	movq	40(%rsp), %rax                  # 8-byte Reload
	.loc	0 412 51 is_stmt 1              # x264_src/encoder/macroblock.c:412:51
	movq	3344(%rbx,%rax,8), %rsi
	.loc	0 412 17 is_stmt 0              # x264_src/encoder/macroblock.c:412:17
	movq	%r14, %rdi
	movl	%r13d, %edx
	callq	*33120(%rbx)
.Ltmp145:
	.loc	0 0 17                          # x264_src/encoder/macroblock.c:0:17
	movl	$1, %r14d
	.loc	0 413 21 is_stmt 1              # x264_src/encoder/macroblock.c:413:21
	cmpb	$0, 60(%rsp)                    # 1-byte Folded Reload
	je	.LBB2_24
.Ltmp146:
# %bb.21:                               # %if.then323
                                        #   in Loop: Header=BB2_15 Depth=1
	#DEBUG_VALUE: x264_mb_encode_8x8_chroma:h <- $rbx
	#DEBUG_VALUE: x264_mb_encode_8x8_chroma:b_inter <- [DW_OP_plus_uconst 64] [$rsp+0]
	#DEBUG_VALUE: x264_mb_encode_8x8_chroma:i_qp <- [DW_OP_plus_uconst 12] [$rsp+0]
	#DEBUG_VALUE: ch <- $rbp
	#DEBUG_VALUE: p_dst <- [DW_OP_plus_uconst 112, DW_OP_deref] $rsp
	#DEBUG_VALUE: i_decimate_score <- 0
	#DEBUG_VALUE: nz_ac <- 1
	#DEBUG_VALUE: i <- 0
	.loc	0 414 41                        # x264_src/encoder/macroblock.c:414:41
	movq	%r12, %rdi
	callq	*33144(%rbx)
.Ltmp147:
	movl	%eax, %r13d
.Ltmp148:
	#DEBUG_VALUE: i_decimate_score <- $r13d
	.loc	0 0 41 is_stmt 0                # x264_src/encoder/macroblock.c:0:41
	movl	12(%rsp), %r12d                 # 4-byte Reload
.Ltmp149:
	#DEBUG_VALUE: nz_ac <- $r14d
	#DEBUG_VALUE: i_decimate_score <- $r13d
	#DEBUG_VALUE: i <- 1
	.loc	0 403 17 is_stmt 1              # x264_src/encoder/macroblock.c:403:17
	cmpl	$0, 16416(%rbx)
.Ltmp150:
	.loc	0 403 17 is_stmt 0              # x264_src/encoder/macroblock.c:403:17
	jne	.LBB2_23
.Ltmp151:
.LBB2_25:                               # %if.else268.1
                                        #   in Loop: Header=BB2_15 Depth=1
	#DEBUG_VALUE: x264_mb_encode_8x8_chroma:h <- $rbx
	#DEBUG_VALUE: x264_mb_encode_8x8_chroma:b_inter <- [DW_OP_plus_uconst 64] [$rsp+0]
	#DEBUG_VALUE: x264_mb_encode_8x8_chroma:i_qp <- [DW_OP_plus_uconst 12] [$rsp+0]
	#DEBUG_VALUE: ch <- $rbp
	#DEBUG_VALUE: p_dst <- [DW_OP_plus_uconst 112, DW_OP_deref] $rsp
	#DEBUG_VALUE: i_decimate_score <- $r13d
	#DEBUG_VALUE: nz_ac <- $r14d
	#DEBUG_VALUE: i <- 1
	.loc	0 0 17                          # x264_src/encoder/macroblock.c:0:17
	movq	72(%rsp), %rdx                  # 8-byte Reload
.Ltmp152:
	.loc	0 406 54 is_stmt 1              # x264_src/encoder/macroblock.c:406:54
	shlq	$5, %rdx
	movq	40(%rsp), %rax                  # 8-byte Reload
	movq	3440(%rbx,%rax,8), %rsi
	addq	%rdx, %rsi
	.loc	0 406 91 is_stmt 0              # x264_src/encoder/macroblock.c:406:91
	addq	3488(%rbx,%rax,8), %rdx
	.loc	0 406 22                        # x264_src/encoder/macroblock.c:406:22
	leaq	160(%rsp), %rdi
	callq	*33088(%rbx)
.Ltmp153:
	#DEBUG_VALUE: x264_mb_encode_8x8_chroma:nz <- $eax
	#DEBUG_VALUE: x264_mb_encode_8x8_chroma:nz <- $eax
	.loc	0 407 40 is_stmt 1              # x264_src/encoder/macroblock.c:407:40
	movslq	x264_scan8+68(,%r15,4), %rcx
	.loc	0 407 63 is_stmt 0              # x264_src/encoder/macroblock.c:407:63
	movb	%al, 25072(%rbx,%rcx)
.Ltmp154:
	.loc	0 408 17 is_stmt 1              # x264_src/encoder/macroblock.c:408:17
	testl	%eax, %eax
.Ltmp155:
	.loc	0 408 17 is_stmt 0              # x264_src/encoder/macroblock.c:408:17
	jne	.LBB2_26
.Ltmp156:
	.p2align	4, 0x90
.LBB2_28:                               # %for.inc337.1
                                        #   in Loop: Header=BB2_15 Depth=1
	#DEBUG_VALUE: x264_mb_encode_8x8_chroma:h <- $rbx
	#DEBUG_VALUE: x264_mb_encode_8x8_chroma:b_inter <- [DW_OP_plus_uconst 64] [$rsp+0]
	#DEBUG_VALUE: x264_mb_encode_8x8_chroma:i_qp <- [DW_OP_plus_uconst 12] [$rsp+0]
	#DEBUG_VALUE: ch <- $rbp
	#DEBUG_VALUE: p_dst <- [DW_OP_plus_uconst 112, DW_OP_deref] $rsp
	#DEBUG_VALUE: i_decimate_score <- $r13d
	#DEBUG_VALUE: nz_ac <- $r14d
	#DEBUG_VALUE: x264_mb_encode_8x8_chroma:nz <- $eax
	#DEBUG_VALUE: i <- 1
	#DEBUG_VALUE: nz_ac <- $r14d
	#DEBUG_VALUE: i_decimate_score <- $r13d
	#DEBUG_VALUE: i <- 2
	.loc	0 403 17 is_stmt 1              # x264_src/encoder/macroblock.c:403:17
	cmpl	$0, 16416(%rbx)
.Ltmp157:
	.loc	0 403 17 is_stmt 0              # x264_src/encoder/macroblock.c:403:17
	je	.LBB2_31
.Ltmp158:
.LBB2_29:                               # %if.then259.2
                                        #   in Loop: Header=BB2_15 Depth=1
	#DEBUG_VALUE: x264_mb_encode_8x8_chroma:h <- $rbx
	#DEBUG_VALUE: x264_mb_encode_8x8_chroma:b_inter <- [DW_OP_plus_uconst 64] [$rsp+0]
	#DEBUG_VALUE: x264_mb_encode_8x8_chroma:i_qp <- [DW_OP_plus_uconst 12] [$rsp+0]
	#DEBUG_VALUE: ch <- $rbp
	#DEBUG_VALUE: p_dst <- [DW_OP_plus_uconst 112, DW_OP_deref] $rsp
	#DEBUG_VALUE: i_decimate_score <- $r13d
	#DEBUG_VALUE: nz_ac <- $r14d
	#DEBUG_VALUE: i <- 2
	.loc	0 404 22 is_stmt 1              # x264_src/encoder/macroblock.c:404:22
	movq	%rbx, %rdi
	leaq	192(%rsp), %rsi
	movl	52(%rsp), %edx                  # 4-byte Reload
	movl	%r12d, %ecx
	movl	$4, %r8d
	movl	56(%rsp), %r9d                  # 4-byte Reload
	pushq	$0
.Ltmp159:
	.cfi_adjust_cfa_offset 8
	pushq	$1
	.cfi_adjust_cfa_offset 8
	callq	x264_quant_4x4_trellis@PLT
.Ltmp160:
	#DEBUG_VALUE: x264_mb_encode_8x8_chroma:nz <- $eax
	addq	$16, %rsp
.Ltmp161:
	.cfi_adjust_cfa_offset -16
	#DEBUG_VALUE: x264_mb_encode_8x8_chroma:nz <- $eax
	.loc	0 407 40                        # x264_src/encoder/macroblock.c:407:40
	movslq	x264_scan8+72(,%r15,4), %rcx
	.loc	0 407 63 is_stmt 0              # x264_src/encoder/macroblock.c:407:63
	movb	%al, 25072(%rbx,%rcx)
.Ltmp162:
	.loc	0 408 17 is_stmt 1              # x264_src/encoder/macroblock.c:408:17
	testl	%eax, %eax
.Ltmp163:
	.loc	0 408 17 is_stmt 0              # x264_src/encoder/macroblock.c:408:17
	jne	.LBB2_32
.Ltmp164:
.LBB2_34:                               # %for.inc337.2
                                        #   in Loop: Header=BB2_15 Depth=1
	#DEBUG_VALUE: x264_mb_encode_8x8_chroma:h <- $rbx
	#DEBUG_VALUE: x264_mb_encode_8x8_chroma:b_inter <- [DW_OP_plus_uconst 64] [$rsp+0]
	#DEBUG_VALUE: x264_mb_encode_8x8_chroma:i_qp <- [DW_OP_plus_uconst 12] [$rsp+0]
	#DEBUG_VALUE: ch <- $rbp
	#DEBUG_VALUE: p_dst <- [DW_OP_plus_uconst 112, DW_OP_deref] $rsp
	#DEBUG_VALUE: i_decimate_score <- $r13d
	#DEBUG_VALUE: nz_ac <- $r14d
	#DEBUG_VALUE: x264_mb_encode_8x8_chroma:nz <- $eax
	#DEBUG_VALUE: i <- 2
	#DEBUG_VALUE: nz_ac <- $r14d
	#DEBUG_VALUE: i_decimate_score <- $r13d
	#DEBUG_VALUE: i <- 3
	.loc	0 403 17 is_stmt 1              # x264_src/encoder/macroblock.c:403:17
	cmpl	$0, 16416(%rbx)
.Ltmp165:
	.loc	0 403 17 is_stmt 0              # x264_src/encoder/macroblock.c:403:17
	je	.LBB2_39
.Ltmp166:
.LBB2_35:                               # %if.then259.3
                                        #   in Loop: Header=BB2_15 Depth=1
	#DEBUG_VALUE: x264_mb_encode_8x8_chroma:h <- $rbx
	#DEBUG_VALUE: x264_mb_encode_8x8_chroma:b_inter <- [DW_OP_plus_uconst 64] [$rsp+0]
	#DEBUG_VALUE: x264_mb_encode_8x8_chroma:i_qp <- [DW_OP_plus_uconst 12] [$rsp+0]
	#DEBUG_VALUE: ch <- $rbp
	#DEBUG_VALUE: p_dst <- [DW_OP_plus_uconst 112, DW_OP_deref] $rsp
	#DEBUG_VALUE: i_decimate_score <- $r13d
	#DEBUG_VALUE: nz_ac <- $r14d
	#DEBUG_VALUE: i <- 3
	.loc	0 404 22 is_stmt 1              # x264_src/encoder/macroblock.c:404:22
	movq	%rbx, %rdi
	leaq	224(%rsp), %rsi
	movl	52(%rsp), %edx                  # 4-byte Reload
	movl	%r12d, %ecx
	movl	$4, %r8d
	movl	56(%rsp), %r9d                  # 4-byte Reload
	pushq	$0
.Ltmp167:
	.cfi_adjust_cfa_offset 8
	pushq	$1
	.cfi_adjust_cfa_offset 8
	callq	x264_quant_4x4_trellis@PLT
.Ltmp168:
	#DEBUG_VALUE: x264_mb_encode_8x8_chroma:nz <- $eax
	addq	$16, %rsp
.Ltmp169:
	.cfi_adjust_cfa_offset -16
	#DEBUG_VALUE: x264_mb_encode_8x8_chroma:nz <- $eax
	.loc	0 407 40                        # x264_src/encoder/macroblock.c:407:40
	movslq	x264_scan8+76(,%r15,4), %rcx
	.loc	0 407 63 is_stmt 0              # x264_src/encoder/macroblock.c:407:63
	movb	%al, 25072(%rbx,%rcx)
.Ltmp170:
	.loc	0 408 17 is_stmt 1              # x264_src/encoder/macroblock.c:408:17
	testl	%eax, %eax
.Ltmp171:
	.loc	0 408 17 is_stmt 0              # x264_src/encoder/macroblock.c:408:17
	je	.LBB2_40
.Ltmp172:
.LBB2_36:                               # %if.then301.3
                                        #   in Loop: Header=BB2_15 Depth=1
	#DEBUG_VALUE: x264_mb_encode_8x8_chroma:h <- $rbx
	#DEBUG_VALUE: x264_mb_encode_8x8_chroma:b_inter <- [DW_OP_plus_uconst 64] [$rsp+0]
	#DEBUG_VALUE: x264_mb_encode_8x8_chroma:i_qp <- [DW_OP_plus_uconst 12] [$rsp+0]
	#DEBUG_VALUE: ch <- $rbp
	#DEBUG_VALUE: p_dst <- [DW_OP_plus_uconst 112, DW_OP_deref] $rsp
	#DEBUG_VALUE: i_decimate_score <- $r13d
	#DEBUG_VALUE: nz_ac <- $r14d
	#DEBUG_VALUE: x264_mb_encode_8x8_chroma:nz <- $eax
	#DEBUG_VALUE: i <- 3
	.loc	0 0 0                           # x264_src/encoder/macroblock.c:0:0
	orq	$19, %r15
.Ltmp173:
	#DEBUG_VALUE: nz_ac <- 1
	.loc	0 411 38 is_stmt 1              # x264_src/encoder/macroblock.c:411:38
	shlq	$5, %r15
	addq	32(%rsp), %r15                  # 8-byte Folded Reload
	.loc	0 411 17 is_stmt 0              # x264_src/encoder/macroblock.c:411:17
	movq	%r15, %rdi
	leaq	224(%rsp), %r14
	movq	%r14, %rsi
	callq	*33040(%rbx)
.Ltmp174:
	.loc	0 0 17                          # x264_src/encoder/macroblock.c:0:17
	movq	40(%rsp), %rax                  # 8-byte Reload
	.loc	0 412 51 is_stmt 1              # x264_src/encoder/macroblock.c:412:51
	movq	3344(%rbx,%rax,8), %rsi
	.loc	0 412 17 is_stmt 0              # x264_src/encoder/macroblock.c:412:17
	movq	%r14, %rdi
	movl	%r12d, %edx
	callq	*33120(%rbx)
.Ltmp175:
	.loc	0 413 21 is_stmt 1              # x264_src/encoder/macroblock.c:413:21
	cmpb	$0, 60(%rsp)                    # 1-byte Folded Reload
	je	.LBB2_42
.Ltmp176:
# %bb.37:                               # %if.then323.3
                                        #   in Loop: Header=BB2_15 Depth=1
	#DEBUG_VALUE: x264_mb_encode_8x8_chroma:h <- $rbx
	#DEBUG_VALUE: x264_mb_encode_8x8_chroma:b_inter <- [DW_OP_plus_uconst 64] [$rsp+0]
	#DEBUG_VALUE: x264_mb_encode_8x8_chroma:i_qp <- [DW_OP_plus_uconst 12] [$rsp+0]
	#DEBUG_VALUE: ch <- $rbp
	#DEBUG_VALUE: p_dst <- [DW_OP_plus_uconst 112, DW_OP_deref] $rsp
	#DEBUG_VALUE: i_decimate_score <- $r13d
	#DEBUG_VALUE: nz_ac <- 1
	#DEBUG_VALUE: i <- 3
	.loc	0 0 21 is_stmt 0                # x264_src/encoder/macroblock.c:0:21
	movl	$1, 24(%rsp)                    # 4-byte Folded Spill
.Ltmp177:
	.loc	0 414 41 is_stmt 1              # x264_src/encoder/macroblock.c:414:41
	movq	%r15, %rdi
	callq	*33144(%rbx)
.Ltmp178:
	.loc	0 414 38 is_stmt 0              # x264_src/encoder/macroblock.c:414:38
	addl	%eax, %r13d
.Ltmp179:
	#DEBUG_VALUE: i_decimate_score <- $r13d
	#DEBUG_VALUE: nz_ac <- [DW_OP_plus_uconst 24, DW_OP_deref] $rsp
	#DEBUG_VALUE: i_decimate_score <- $r13d
	#DEBUG_VALUE: i <- 4
	.loc	0 418 13 is_stmt 1              # x264_src/encoder/macroblock.c:418:13
	cmpl	$0, 16416(%rbx)
	leaq	128(%rsp), %r14
	leaq	16(%rsp), %rsi
.Ltmp180:
	.loc	0 418 13 is_stmt 0              # x264_src/encoder/macroblock.c:418:13
	jne	.LBB2_41
.Ltmp181:
.LBB2_43:                               # %if.else351
                                        #   in Loop: Header=BB2_15 Depth=1
	#DEBUG_VALUE: x264_mb_encode_8x8_chroma:h <- $rbx
	#DEBUG_VALUE: x264_mb_encode_8x8_chroma:b_inter <- [DW_OP_plus_uconst 64] [$rsp+0]
	#DEBUG_VALUE: x264_mb_encode_8x8_chroma:i_qp <- [DW_OP_plus_uconst 12] [$rsp+0]
	#DEBUG_VALUE: ch <- $rbp
	#DEBUG_VALUE: p_dst <- [DW_OP_plus_uconst 112, DW_OP_deref] $rsp
	#DEBUG_VALUE: i_decimate_score <- $r13d
	#DEBUG_VALUE: nz_ac <- [DW_OP_plus_uconst 24, DW_OP_deref] $rsp
	.loc	0 0 13                          # x264_src/encoder/macroblock.c:0:13
	movq	72(%rsp), %rax                  # 8-byte Reload
.Ltmp182:
	.loc	0 421 53 is_stmt 1              # x264_src/encoder/macroblock.c:421:53
	shlq	$5, %rax
	movq	40(%rsp), %rdx                  # 8-byte Reload
	movq	3440(%rbx,%rdx,8), %rcx
	.loc	0 421 96 is_stmt 0              # x264_src/encoder/macroblock.c:421:96
	movq	3488(%rbx,%rdx,8), %rdx
	movq	%rsi, %rdi
	.loc	0 421 53                        # x264_src/encoder/macroblock.c:421:53
	movzwl	(%rcx,%rax), %esi
	.loc	0 421 91                        # x264_src/encoder/macroblock.c:421:91
	shrl	%esi
	.loc	0 421 96                        # x264_src/encoder/macroblock.c:421:96
	movzwl	(%rdx,%rax), %edx
	.loc	0 421 136                       # x264_src/encoder/macroblock.c:421:136
	addl	%edx, %edx
	.loc	0 421 21                        # x264_src/encoder/macroblock.c:421:21
	callq	*33104(%rbx)
.Ltmp183:
	#DEBUG_VALUE: x264_mb_encode_8x8_chroma:nz_dc <- $eax
	.loc	0 0 21                          # x264_src/encoder/macroblock.c:0:21
	jmp	.LBB2_44
.Ltmp184:
.LBB2_22:                               #   in Loop: Header=BB2_15 Depth=1
	#DEBUG_VALUE: x264_mb_encode_8x8_chroma:h <- $rbx
	#DEBUG_VALUE: x264_mb_encode_8x8_chroma:b_inter <- [DW_OP_plus_uconst 64] [$rsp+0]
	#DEBUG_VALUE: x264_mb_encode_8x8_chroma:i_qp <- [DW_OP_plus_uconst 12] [$rsp+0]
	#DEBUG_VALUE: ch <- $rbp
	#DEBUG_VALUE: p_dst <- [DW_OP_plus_uconst 112, DW_OP_deref] $rsp
	#DEBUG_VALUE: i_decimate_score <- 0
	#DEBUG_VALUE: nz_ac <- 0
	#DEBUG_VALUE: x264_mb_encode_8x8_chroma:nz <- $eax
	#DEBUG_VALUE: i <- 0
	xorl	%r14d, %r14d
.Ltmp185:
	#DEBUG_VALUE: nz_ac <- $r14d
	#DEBUG_VALUE: i_decimate_score <- $r13d
	#DEBUG_VALUE: i <- 1
	.loc	0 403 17 is_stmt 1              # x264_src/encoder/macroblock.c:403:17
	cmpl	$0, 16416(%rbx)
.Ltmp186:
	.loc	0 403 17 is_stmt 0              # x264_src/encoder/macroblock.c:403:17
	je	.LBB2_25
.Ltmp187:
.LBB2_23:                               # %if.then259.1
                                        #   in Loop: Header=BB2_15 Depth=1
	#DEBUG_VALUE: x264_mb_encode_8x8_chroma:h <- $rbx
	#DEBUG_VALUE: x264_mb_encode_8x8_chroma:b_inter <- [DW_OP_plus_uconst 64] [$rsp+0]
	#DEBUG_VALUE: x264_mb_encode_8x8_chroma:i_qp <- [DW_OP_plus_uconst 12] [$rsp+0]
	#DEBUG_VALUE: ch <- $rbp
	#DEBUG_VALUE: p_dst <- [DW_OP_plus_uconst 112, DW_OP_deref] $rsp
	#DEBUG_VALUE: i_decimate_score <- $r13d
	#DEBUG_VALUE: nz_ac <- $r14d
	#DEBUG_VALUE: i <- 1
	.loc	0 404 22 is_stmt 1              # x264_src/encoder/macroblock.c:404:22
	movq	%rbx, %rdi
	leaq	160(%rsp), %rsi
	movl	52(%rsp), %edx                  # 4-byte Reload
	movl	%r12d, %ecx
	movl	$4, %r8d
	movl	56(%rsp), %r9d                  # 4-byte Reload
	pushq	$0
.Ltmp188:
	.cfi_adjust_cfa_offset 8
	pushq	$1
	.cfi_adjust_cfa_offset 8
	callq	x264_quant_4x4_trellis@PLT
.Ltmp189:
	#DEBUG_VALUE: x264_mb_encode_8x8_chroma:nz <- $eax
	addq	$16, %rsp
.Ltmp190:
	.cfi_adjust_cfa_offset -16
	#DEBUG_VALUE: x264_mb_encode_8x8_chroma:nz <- $eax
	.loc	0 407 40                        # x264_src/encoder/macroblock.c:407:40
	movslq	x264_scan8+68(,%r15,4), %rcx
	.loc	0 407 63 is_stmt 0              # x264_src/encoder/macroblock.c:407:63
	movb	%al, 25072(%rbx,%rcx)
.Ltmp191:
	.loc	0 408 17 is_stmt 1              # x264_src/encoder/macroblock.c:408:17
	testl	%eax, %eax
.Ltmp192:
	.loc	0 408 17 is_stmt 0              # x264_src/encoder/macroblock.c:408:17
	je	.LBB2_28
.Ltmp193:
.LBB2_26:                               # %if.then301.1
                                        #   in Loop: Header=BB2_15 Depth=1
	#DEBUG_VALUE: x264_mb_encode_8x8_chroma:h <- $rbx
	#DEBUG_VALUE: x264_mb_encode_8x8_chroma:b_inter <- [DW_OP_plus_uconst 64] [$rsp+0]
	#DEBUG_VALUE: x264_mb_encode_8x8_chroma:i_qp <- [DW_OP_plus_uconst 12] [$rsp+0]
	#DEBUG_VALUE: ch <- $rbp
	#DEBUG_VALUE: p_dst <- [DW_OP_plus_uconst 112, DW_OP_deref] $rsp
	#DEBUG_VALUE: i_decimate_score <- $r13d
	#DEBUG_VALUE: nz_ac <- $r14d
	#DEBUG_VALUE: x264_mb_encode_8x8_chroma:nz <- $eax
	#DEBUG_VALUE: i <- 1
	.loc	0 0 17                          # x264_src/encoder/macroblock.c:0:17
	movl	%r13d, 24(%rsp)                 # 4-byte Spill
.Ltmp194:
	#DEBUG_VALUE: i_decimate_score <- [DW_OP_plus_uconst 24, DW_OP_deref] $rsp
	movl	%r12d, %r13d
	movq	%r15, %r12
	orq	$17, %r12
.Ltmp195:
	#DEBUG_VALUE: nz_ac <- 1
	.loc	0 411 38 is_stmt 1              # x264_src/encoder/macroblock.c:411:38
	shlq	$5, %r12
	addq	32(%rsp), %r12                  # 8-byte Folded Reload
	.loc	0 411 17 is_stmt 0              # x264_src/encoder/macroblock.c:411:17
	movq	%r12, %rdi
	leaq	160(%rsp), %r14
	movq	%r14, %rsi
	callq	*33040(%rbx)
.Ltmp196:
	.loc	0 0 17                          # x264_src/encoder/macroblock.c:0:17
	movq	40(%rsp), %rax                  # 8-byte Reload
	.loc	0 412 51 is_stmt 1              # x264_src/encoder/macroblock.c:412:51
	movq	3344(%rbx,%rax,8), %rsi
	.loc	0 412 17 is_stmt 0              # x264_src/encoder/macroblock.c:412:17
	movq	%r14, %rdi
	movl	%r13d, %edx
	callq	*33120(%rbx)
.Ltmp197:
	.loc	0 0 17                          # x264_src/encoder/macroblock.c:0:17
	movl	$1, %r14d
	.loc	0 413 21 is_stmt 1              # x264_src/encoder/macroblock.c:413:21
	cmpb	$0, 60(%rsp)                    # 1-byte Folded Reload
	je	.LBB2_30
.Ltmp198:
# %bb.27:                               # %if.then323.1
                                        #   in Loop: Header=BB2_15 Depth=1
	#DEBUG_VALUE: x264_mb_encode_8x8_chroma:h <- $rbx
	#DEBUG_VALUE: x264_mb_encode_8x8_chroma:b_inter <- [DW_OP_plus_uconst 64] [$rsp+0]
	#DEBUG_VALUE: x264_mb_encode_8x8_chroma:i_qp <- [DW_OP_plus_uconst 12] [$rsp+0]
	#DEBUG_VALUE: ch <- $rbp
	#DEBUG_VALUE: p_dst <- [DW_OP_plus_uconst 112, DW_OP_deref] $rsp
	#DEBUG_VALUE: i_decimate_score <- [DW_OP_plus_uconst 24, DW_OP_deref] $rsp
	#DEBUG_VALUE: nz_ac <- 1
	#DEBUG_VALUE: i <- 1
	.loc	0 414 41                        # x264_src/encoder/macroblock.c:414:41
	movq	%r12, %rdi
	callq	*33144(%rbx)
.Ltmp199:
	.loc	0 0 41 is_stmt 0                # x264_src/encoder/macroblock.c:0:41
	movl	24(%rsp), %r13d                 # 4-byte Reload
	.loc	0 414 38                        # x264_src/encoder/macroblock.c:414:38
	addl	%eax, %r13d
.Ltmp200:
	#DEBUG_VALUE: i_decimate_score <- $r13d
	.loc	0 0 38                          # x264_src/encoder/macroblock.c:0:38
	movl	12(%rsp), %r12d                 # 4-byte Reload
.Ltmp201:
	#DEBUG_VALUE: nz_ac <- $r14d
	#DEBUG_VALUE: i_decimate_score <- $r13d
	#DEBUG_VALUE: i <- 2
	.loc	0 403 17 is_stmt 1              # x264_src/encoder/macroblock.c:403:17
	cmpl	$0, 16416(%rbx)
	jne	.LBB2_29
	jmp	.LBB2_31
.Ltmp202:
.LBB2_24:                               #   in Loop: Header=BB2_15 Depth=1
	#DEBUG_VALUE: x264_mb_encode_8x8_chroma:h <- $rbx
	#DEBUG_VALUE: x264_mb_encode_8x8_chroma:b_inter <- [DW_OP_plus_uconst 64] [$rsp+0]
	#DEBUG_VALUE: x264_mb_encode_8x8_chroma:i_qp <- [DW_OP_plus_uconst 12] [$rsp+0]
	#DEBUG_VALUE: ch <- $rbp
	#DEBUG_VALUE: p_dst <- [DW_OP_plus_uconst 112, DW_OP_deref] $rsp
	#DEBUG_VALUE: i_decimate_score <- 0
	#DEBUG_VALUE: nz_ac <- 1
	#DEBUG_VALUE: i <- 0
	.loc	0 0 17 is_stmt 0                # x264_src/encoder/macroblock.c:0:17
	movl	12(%rsp), %r12d                 # 4-byte Reload
	xorl	%r13d, %r13d
.Ltmp203:
	#DEBUG_VALUE: nz_ac <- $r14d
	#DEBUG_VALUE: i_decimate_score <- $r13d
	#DEBUG_VALUE: i <- 1
	.loc	0 403 17                        # x264_src/encoder/macroblock.c:403:17
	cmpl	$0, 16416(%rbx)
.Ltmp204:
	.loc	0 403 17                        # x264_src/encoder/macroblock.c:403:17
	jne	.LBB2_23
	jmp	.LBB2_25
.Ltmp205:
.LBB2_42:                               #   in Loop: Header=BB2_15 Depth=1
	#DEBUG_VALUE: x264_mb_encode_8x8_chroma:h <- $rbx
	#DEBUG_VALUE: x264_mb_encode_8x8_chroma:b_inter <- [DW_OP_plus_uconst 64] [$rsp+0]
	#DEBUG_VALUE: x264_mb_encode_8x8_chroma:i_qp <- [DW_OP_plus_uconst 12] [$rsp+0]
	#DEBUG_VALUE: ch <- $rbp
	#DEBUG_VALUE: p_dst <- [DW_OP_plus_uconst 112, DW_OP_deref] $rsp
	#DEBUG_VALUE: i_decimate_score <- $r13d
	#DEBUG_VALUE: nz_ac <- 1
	#DEBUG_VALUE: i <- 3
	.loc	0 0 17                          # x264_src/encoder/macroblock.c:0:17
	movl	$1, 24(%rsp)                    # 4-byte Folded Spill
.Ltmp206:
	#DEBUG_VALUE: nz_ac <- [DW_OP_plus_uconst 24, DW_OP_deref] $rsp
	#DEBUG_VALUE: i_decimate_score <- $r13d
	#DEBUG_VALUE: i <- 4
	.loc	0 418 13 is_stmt 1              # x264_src/encoder/macroblock.c:418:13
	cmpl	$0, 16416(%rbx)
	leaq	128(%rsp), %r14
	leaq	16(%rsp), %rsi
.Ltmp207:
	.loc	0 418 13 is_stmt 0              # x264_src/encoder/macroblock.c:418:13
	jne	.LBB2_41
	jmp	.LBB2_43
.Ltmp208:
.LBB2_30:                               #   in Loop: Header=BB2_15 Depth=1
	#DEBUG_VALUE: x264_mb_encode_8x8_chroma:h <- $rbx
	#DEBUG_VALUE: x264_mb_encode_8x8_chroma:b_inter <- [DW_OP_plus_uconst 64] [$rsp+0]
	#DEBUG_VALUE: x264_mb_encode_8x8_chroma:i_qp <- [DW_OP_plus_uconst 12] [$rsp+0]
	#DEBUG_VALUE: ch <- $rbp
	#DEBUG_VALUE: p_dst <- [DW_OP_plus_uconst 112, DW_OP_deref] $rsp
	#DEBUG_VALUE: i_decimate_score <- [DW_OP_plus_uconst 24, DW_OP_deref] $rsp
	#DEBUG_VALUE: nz_ac <- 1
	#DEBUG_VALUE: i <- 1
	.loc	0 0 13                          # x264_src/encoder/macroblock.c:0:13
	movl	12(%rsp), %r12d                 # 4-byte Reload
	movl	24(%rsp), %r13d                 # 4-byte Reload
.Ltmp209:
	#DEBUG_VALUE: nz_ac <- $r14d
	#DEBUG_VALUE: i_decimate_score <- [DW_OP_plus_uconst 24, DW_OP_deref] $rsp
	#DEBUG_VALUE: i <- 2
	.loc	0 403 17 is_stmt 1              # x264_src/encoder/macroblock.c:403:17
	cmpl	$0, 16416(%rbx)
.Ltmp210:
	.loc	0 403 17 is_stmt 0              # x264_src/encoder/macroblock.c:403:17
	jne	.LBB2_29
.Ltmp211:
.LBB2_31:                               # %if.else268.2
                                        #   in Loop: Header=BB2_15 Depth=1
	#DEBUG_VALUE: x264_mb_encode_8x8_chroma:h <- $rbx
	#DEBUG_VALUE: x264_mb_encode_8x8_chroma:b_inter <- [DW_OP_plus_uconst 64] [$rsp+0]
	#DEBUG_VALUE: x264_mb_encode_8x8_chroma:i_qp <- [DW_OP_plus_uconst 12] [$rsp+0]
	#DEBUG_VALUE: ch <- $rbp
	#DEBUG_VALUE: p_dst <- [DW_OP_plus_uconst 112, DW_OP_deref] $rsp
	#DEBUG_VALUE: i_decimate_score <- $r13d
	#DEBUG_VALUE: nz_ac <- $r14d
	#DEBUG_VALUE: i <- 2
	.loc	0 0 17                          # x264_src/encoder/macroblock.c:0:17
	movq	72(%rsp), %rdx                  # 8-byte Reload
.Ltmp212:
	.loc	0 406 54 is_stmt 1              # x264_src/encoder/macroblock.c:406:54
	shlq	$5, %rdx
	movq	40(%rsp), %rax                  # 8-byte Reload
	movq	3440(%rbx,%rax,8), %rsi
	addq	%rdx, %rsi
	.loc	0 406 91 is_stmt 0              # x264_src/encoder/macroblock.c:406:91
	addq	3488(%rbx,%rax,8), %rdx
	.loc	0 406 22                        # x264_src/encoder/macroblock.c:406:22
	leaq	192(%rsp), %rdi
	callq	*33088(%rbx)
.Ltmp213:
	#DEBUG_VALUE: x264_mb_encode_8x8_chroma:nz <- $eax
	#DEBUG_VALUE: x264_mb_encode_8x8_chroma:nz <- $eax
	.loc	0 407 40 is_stmt 1              # x264_src/encoder/macroblock.c:407:40
	movslq	x264_scan8+72(,%r15,4), %rcx
	.loc	0 407 63 is_stmt 0              # x264_src/encoder/macroblock.c:407:63
	movb	%al, 25072(%rbx,%rcx)
.Ltmp214:
	.loc	0 408 17 is_stmt 1              # x264_src/encoder/macroblock.c:408:17
	testl	%eax, %eax
.Ltmp215:
	.loc	0 408 17 is_stmt 0              # x264_src/encoder/macroblock.c:408:17
	je	.LBB2_34
.Ltmp216:
.LBB2_32:                               # %if.then301.2
                                        #   in Loop: Header=BB2_15 Depth=1
	#DEBUG_VALUE: x264_mb_encode_8x8_chroma:h <- $rbx
	#DEBUG_VALUE: x264_mb_encode_8x8_chroma:b_inter <- [DW_OP_plus_uconst 64] [$rsp+0]
	#DEBUG_VALUE: x264_mb_encode_8x8_chroma:i_qp <- [DW_OP_plus_uconst 12] [$rsp+0]
	#DEBUG_VALUE: ch <- $rbp
	#DEBUG_VALUE: p_dst <- [DW_OP_plus_uconst 112, DW_OP_deref] $rsp
	#DEBUG_VALUE: i_decimate_score <- $r13d
	#DEBUG_VALUE: nz_ac <- $r14d
	#DEBUG_VALUE: x264_mb_encode_8x8_chroma:nz <- $eax
	#DEBUG_VALUE: i <- 2
	.loc	0 0 17                          # x264_src/encoder/macroblock.c:0:17
	movl	%r13d, 24(%rsp)                 # 4-byte Spill
.Ltmp217:
	#DEBUG_VALUE: i_decimate_score <- [DW_OP_plus_uconst 24, DW_OP_deref] $rsp
	movl	%r12d, %r13d
	movq	%r15, %r12
	orq	$18, %r12
.Ltmp218:
	#DEBUG_VALUE: nz_ac <- 1
	.loc	0 411 38 is_stmt 1              # x264_src/encoder/macroblock.c:411:38
	shlq	$5, %r12
	addq	32(%rsp), %r12                  # 8-byte Folded Reload
	.loc	0 411 17 is_stmt 0              # x264_src/encoder/macroblock.c:411:17
	movq	%r12, %rdi
	leaq	192(%rsp), %r14
	movq	%r14, %rsi
	callq	*33040(%rbx)
.Ltmp219:
	.loc	0 0 17                          # x264_src/encoder/macroblock.c:0:17
	movq	40(%rsp), %rax                  # 8-byte Reload
	.loc	0 412 51 is_stmt 1              # x264_src/encoder/macroblock.c:412:51
	movq	3344(%rbx,%rax,8), %rsi
	.loc	0 412 17 is_stmt 0              # x264_src/encoder/macroblock.c:412:17
	movq	%r14, %rdi
	movl	%r13d, %edx
	callq	*33120(%rbx)
.Ltmp220:
	.loc	0 0 17                          # x264_src/encoder/macroblock.c:0:17
	movl	$1, %r14d
	.loc	0 413 21 is_stmt 1              # x264_src/encoder/macroblock.c:413:21
	cmpb	$0, 60(%rsp)                    # 1-byte Folded Reload
	je	.LBB2_38
.Ltmp221:
# %bb.33:                               # %if.then323.2
                                        #   in Loop: Header=BB2_15 Depth=1
	#DEBUG_VALUE: x264_mb_encode_8x8_chroma:h <- $rbx
	#DEBUG_VALUE: x264_mb_encode_8x8_chroma:b_inter <- [DW_OP_plus_uconst 64] [$rsp+0]
	#DEBUG_VALUE: x264_mb_encode_8x8_chroma:i_qp <- [DW_OP_plus_uconst 12] [$rsp+0]
	#DEBUG_VALUE: ch <- $rbp
	#DEBUG_VALUE: p_dst <- [DW_OP_plus_uconst 112, DW_OP_deref] $rsp
	#DEBUG_VALUE: i_decimate_score <- [DW_OP_plus_uconst 24, DW_OP_deref] $rsp
	#DEBUG_VALUE: nz_ac <- 1
	#DEBUG_VALUE: i <- 2
	.loc	0 414 41                        # x264_src/encoder/macroblock.c:414:41
	movq	%r12, %rdi
	callq	*33144(%rbx)
.Ltmp222:
	.loc	0 0 41 is_stmt 0                # x264_src/encoder/macroblock.c:0:41
	movl	24(%rsp), %r13d                 # 4-byte Reload
	.loc	0 414 38                        # x264_src/encoder/macroblock.c:414:38
	addl	%eax, %r13d
.Ltmp223:
	#DEBUG_VALUE: i_decimate_score <- $r13d
	.loc	0 0 38                          # x264_src/encoder/macroblock.c:0:38
	movl	12(%rsp), %r12d                 # 4-byte Reload
.Ltmp224:
	#DEBUG_VALUE: nz_ac <- $r14d
	#DEBUG_VALUE: i_decimate_score <- $r13d
	#DEBUG_VALUE: i <- 3
	.loc	0 403 17 is_stmt 1              # x264_src/encoder/macroblock.c:403:17
	cmpl	$0, 16416(%rbx)
	jne	.LBB2_35
	jmp	.LBB2_39
.Ltmp225:
.LBB2_38:                               #   in Loop: Header=BB2_15 Depth=1
	#DEBUG_VALUE: x264_mb_encode_8x8_chroma:h <- $rbx
	#DEBUG_VALUE: x264_mb_encode_8x8_chroma:b_inter <- [DW_OP_plus_uconst 64] [$rsp+0]
	#DEBUG_VALUE: x264_mb_encode_8x8_chroma:i_qp <- [DW_OP_plus_uconst 12] [$rsp+0]
	#DEBUG_VALUE: ch <- $rbp
	#DEBUG_VALUE: p_dst <- [DW_OP_plus_uconst 112, DW_OP_deref] $rsp
	#DEBUG_VALUE: i_decimate_score <- [DW_OP_plus_uconst 24, DW_OP_deref] $rsp
	#DEBUG_VALUE: nz_ac <- 1
	#DEBUG_VALUE: i <- 2
	.loc	0 0 17 is_stmt 0                # x264_src/encoder/macroblock.c:0:17
	movl	12(%rsp), %r12d                 # 4-byte Reload
	movl	24(%rsp), %r13d                 # 4-byte Reload
.Ltmp226:
	#DEBUG_VALUE: nz_ac <- $r14d
	#DEBUG_VALUE: i_decimate_score <- [DW_OP_plus_uconst 24, DW_OP_deref] $rsp
	#DEBUG_VALUE: i <- 3
	.loc	0 403 17                        # x264_src/encoder/macroblock.c:403:17
	cmpl	$0, 16416(%rbx)
.Ltmp227:
	.loc	0 403 17                        # x264_src/encoder/macroblock.c:403:17
	jne	.LBB2_35
.Ltmp228:
.LBB2_39:                               # %if.else268.3
                                        #   in Loop: Header=BB2_15 Depth=1
	#DEBUG_VALUE: x264_mb_encode_8x8_chroma:h <- $rbx
	#DEBUG_VALUE: x264_mb_encode_8x8_chroma:b_inter <- [DW_OP_plus_uconst 64] [$rsp+0]
	#DEBUG_VALUE: x264_mb_encode_8x8_chroma:i_qp <- [DW_OP_plus_uconst 12] [$rsp+0]
	#DEBUG_VALUE: ch <- $rbp
	#DEBUG_VALUE: p_dst <- [DW_OP_plus_uconst 112, DW_OP_deref] $rsp
	#DEBUG_VALUE: i_decimate_score <- $r13d
	#DEBUG_VALUE: nz_ac <- $r14d
	#DEBUG_VALUE: i <- 3
	.loc	0 0 17                          # x264_src/encoder/macroblock.c:0:17
	movq	72(%rsp), %rdx                  # 8-byte Reload
.Ltmp229:
	.loc	0 406 54 is_stmt 1              # x264_src/encoder/macroblock.c:406:54
	shlq	$5, %rdx
	movq	40(%rsp), %rax                  # 8-byte Reload
	movq	3440(%rbx,%rax,8), %rsi
	addq	%rdx, %rsi
	.loc	0 406 91 is_stmt 0              # x264_src/encoder/macroblock.c:406:91
	addq	3488(%rbx,%rax,8), %rdx
	.loc	0 406 22                        # x264_src/encoder/macroblock.c:406:22
	leaq	224(%rsp), %rdi
	callq	*33088(%rbx)
.Ltmp230:
	#DEBUG_VALUE: x264_mb_encode_8x8_chroma:nz <- $eax
	#DEBUG_VALUE: x264_mb_encode_8x8_chroma:nz <- $eax
	.loc	0 407 40 is_stmt 1              # x264_src/encoder/macroblock.c:407:40
	movslq	x264_scan8+76(,%r15,4), %rcx
	.loc	0 407 63 is_stmt 0              # x264_src/encoder/macroblock.c:407:63
	movb	%al, 25072(%rbx,%rcx)
.Ltmp231:
	.loc	0 408 17 is_stmt 1              # x264_src/encoder/macroblock.c:408:17
	testl	%eax, %eax
.Ltmp232:
	.loc	0 408 17 is_stmt 0              # x264_src/encoder/macroblock.c:408:17
	jne	.LBB2_36
.Ltmp233:
.LBB2_40:                               #   in Loop: Header=BB2_15 Depth=1
	#DEBUG_VALUE: x264_mb_encode_8x8_chroma:h <- $rbx
	#DEBUG_VALUE: x264_mb_encode_8x8_chroma:b_inter <- [DW_OP_plus_uconst 64] [$rsp+0]
	#DEBUG_VALUE: x264_mb_encode_8x8_chroma:i_qp <- [DW_OP_plus_uconst 12] [$rsp+0]
	#DEBUG_VALUE: ch <- $rbp
	#DEBUG_VALUE: p_dst <- [DW_OP_plus_uconst 112, DW_OP_deref] $rsp
	#DEBUG_VALUE: i_decimate_score <- $r13d
	#DEBUG_VALUE: nz_ac <- $r14d
	#DEBUG_VALUE: x264_mb_encode_8x8_chroma:nz <- $eax
	#DEBUG_VALUE: i <- 3
	.loc	0 0 17                          # x264_src/encoder/macroblock.c:0:17
	movl	%r14d, 24(%rsp)                 # 4-byte Spill
.Ltmp234:
	#DEBUG_VALUE: nz_ac <- [DW_OP_plus_uconst 24, DW_OP_deref] $rsp
	#DEBUG_VALUE: nz_ac <- [DW_OP_plus_uconst 24, DW_OP_deref] $rsp
	#DEBUG_VALUE: i_decimate_score <- $r13d
	#DEBUG_VALUE: i <- 4
	.loc	0 418 13 is_stmt 1              # x264_src/encoder/macroblock.c:418:13
	cmpl	$0, 16416(%rbx)
	leaq	128(%rsp), %r14
	leaq	16(%rsp), %rsi
.Ltmp235:
	.loc	0 418 13 is_stmt 0              # x264_src/encoder/macroblock.c:418:13
	je	.LBB2_43
.Ltmp236:
.LBB2_41:                               # %if.then344
                                        #   in Loop: Header=BB2_15 Depth=1
	#DEBUG_VALUE: x264_mb_encode_8x8_chroma:h <- $rbx
	#DEBUG_VALUE: x264_mb_encode_8x8_chroma:b_inter <- [DW_OP_plus_uconst 64] [$rsp+0]
	#DEBUG_VALUE: x264_mb_encode_8x8_chroma:i_qp <- [DW_OP_plus_uconst 12] [$rsp+0]
	#DEBUG_VALUE: ch <- $rbp
	#DEBUG_VALUE: p_dst <- [DW_OP_plus_uconst 112, DW_OP_deref] $rsp
	#DEBUG_VALUE: i_decimate_score <- $r13d
	#DEBUG_VALUE: nz_ac <- [DW_OP_plus_uconst 24, DW_OP_deref] $rsp
	.loc	0 419 21 is_stmt 1              # x264_src/encoder/macroblock.c:419:21
	subq	$8, %rsp
.Ltmp237:
	.cfi_adjust_cfa_offset 8
	movq	%rbx, %rdi
	movl	60(%rsp), %edx                  # 4-byte Reload
	movl	%r12d, %ecx
	movl	$3, %r8d
	movl	64(%rsp), %r9d                  # 4-byte Reload
	pushq	$1
	.cfi_adjust_cfa_offset 8
	callq	x264_quant_dc_trellis@PLT
.Ltmp238:
	#DEBUG_VALUE: x264_mb_encode_8x8_chroma:nz_dc <- $eax
	addq	$16, %rsp
.Ltmp239:
	.cfi_adjust_cfa_offset -16
.LBB2_44:                               # %if.end374
                                        #   in Loop: Header=BB2_15 Depth=1
	#DEBUG_VALUE: x264_mb_encode_8x8_chroma:h <- $rbx
	#DEBUG_VALUE: x264_mb_encode_8x8_chroma:b_inter <- [DW_OP_plus_uconst 64] [$rsp+0]
	#DEBUG_VALUE: x264_mb_encode_8x8_chroma:i_qp <- [DW_OP_plus_uconst 12] [$rsp+0]
	#DEBUG_VALUE: x264_mb_encode_8x8_chroma:nz_dc <- $eax
	#DEBUG_VALUE: ch <- $rbp
	#DEBUG_VALUE: p_dst <- [DW_OP_plus_uconst 112, DW_OP_deref] $rsp
	#DEBUG_VALUE: i_decimate_score <- $r13d
	#DEBUG_VALUE: nz_ac <- [DW_OP_plus_uconst 24, DW_OP_deref] $rsp
	#DEBUG_VALUE: x264_mb_encode_8x8_chroma:nz_dc <- $eax
	.loc	0 423 55                        # x264_src/encoder/macroblock.c:423:55
	movb	%al, 25118(%rbx,%rbp)
	cmpl	$7, %r13d
	setge	%cl
.Ltmp240:
	.loc	0 425 25                        # x264_src/encoder/macroblock.c:425:25
	orb	31(%rsp), %cl                   # 1-byte Folded Reload
	testb	%cl, 24(%rsp)                   # 1-byte Folded Reload
	je	.LBB2_48
.Ltmp241:
# %bb.45:                               # %if.else445
                                        #   in Loop: Header=BB2_15 Depth=1
	#DEBUG_VALUE: x264_mb_encode_8x8_chroma:h <- $rbx
	#DEBUG_VALUE: x264_mb_encode_8x8_chroma:b_inter <- [DW_OP_plus_uconst 64] [$rsp+0]
	#DEBUG_VALUE: x264_mb_encode_8x8_chroma:i_qp <- [DW_OP_plus_uconst 12] [$rsp+0]
	#DEBUG_VALUE: x264_mb_encode_8x8_chroma:nz_dc <- $eax
	#DEBUG_VALUE: ch <- $rbp
	#DEBUG_VALUE: p_dst <- [DW_OP_plus_uconst 112, DW_OP_deref] $rsp
	#DEBUG_VALUE: i_decimate_score <- $r13d
	#DEBUG_VALUE: nz_ac <- [DW_OP_plus_uconst 24, DW_OP_deref] $rsp
	.loc	0 0 25 is_stmt 0                # x264_src/encoder/macroblock.c:0:25
	movq	104(%rsp), %rcx                 # 8-byte Reload
.Ltmp242:
	.loc	0 446 32 is_stmt 1              # x264_src/encoder/macroblock.c:446:32
	movl	$1, (%rcx)
.Ltmp243:
	.loc	0 447 17                        # x264_src/encoder/macroblock.c:447:17
	testl	%eax, %eax
.Ltmp244:
	.loc	0 447 17 is_stmt 0              # x264_src/encoder/macroblock.c:447:17
	je	.LBB2_47
.Ltmp245:
# %bb.46:                               # %if.then449
                                        #   in Loop: Header=BB2_15 Depth=1
	#DEBUG_VALUE: x264_mb_encode_8x8_chroma:h <- $rbx
	#DEBUG_VALUE: x264_mb_encode_8x8_chroma:b_inter <- [DW_OP_plus_uconst 64] [$rsp+0]
	#DEBUG_VALUE: x264_mb_encode_8x8_chroma:i_qp <- [DW_OP_plus_uconst 12] [$rsp+0]
	#DEBUG_VALUE: x264_mb_encode_8x8_chroma:nz_dc <- $eax
	#DEBUG_VALUE: ch <- $rbp
	#DEBUG_VALUE: p_dst <- [DW_OP_plus_uconst 112, DW_OP_deref] $rsp
	#DEBUG_VALUE: i_decimate_score <- $r13d
	#DEBUG_VALUE: nz_ac <- [DW_OP_plus_uconst 24, DW_OP_deref] $rsp
	#DEBUG_VALUE: zigzag_scan_2x2_dc:level <- [DW_OP_LLVM_arg 0, DW_OP_plus_uconst 120, DW_OP_deref, DW_OP_LLVM_arg 1, DW_OP_constu 8, DW_OP_mul, DW_OP_plus, DW_OP_stack_value] $rsp, $rbp
	#DEBUG_VALUE: zigzag_scan_2x2_dc:dct <- [DW_OP_plus_uconst 16, DW_OP_stack_value] $rsp
	.loc	0 33 5 is_stmt 1                # x264_src/encoder/macroblock.c:33:5
	movq	16(%rsp), %rcx
	movq	%rcx, %xmm0
	pshuflw	$216, %xmm0, %xmm0              # xmm0 = xmm0[0,2,1,3,4,5,6,7]
	movq	%xmm0, 15072(%rbx,%rbp,8)
	movq	40(%rsp), %rax                  # 8-byte Reload
.Ltmp246:
	.loc	0 450 54                        # x264_src/encoder/macroblock.c:450:54
	movq	3344(%rbx,%rax,8), %rdi
.Ltmp247:
	#DEBUG_VALUE: idct_dequant_2x2_dc:dequant_mf <- $rdi
	#DEBUG_VALUE: idct_dequant_2x2_dc:dct <- [DW_OP_plus_uconst 16, DW_OP_stack_value] $rsp
	#DEBUG_VALUE: idct_dequant_2x2_dc:dct4x4 <- [DW_OP_plus_uconst 128, DW_OP_stack_value] $rsp
	#DEBUG_VALUE: idct_dequant_2x2_dc:i_qp <- [DW_OP_plus_uconst 12, DW_OP_deref] $rsp
	.loc	0 49 5                          # x264_src/encoder/macroblock.c:49:5
	movswl	%cx, %eax
	movl	%ecx, %r8d
	sarl	$16, %r8d
	leal	(%r8,%rax), %esi
.Ltmp248:
	#DEBUG_VALUE: idct_dequant_2x2_dc:d0 <- $esi
	movq	%rcx, %rdx
	shrq	$32, %rdx
	movswl	%dx, %edx
	shrq	$48, %rcx
	movswl	%cx, %ecx
	leal	(%rcx,%rdx), %r9d
.Ltmp249:
	#DEBUG_VALUE: idct_dequant_2x2_dc:d1 <- $r9d
	subl	%r8d, %eax
.Ltmp250:
	#DEBUG_VALUE: idct_dequant_2x2_dc:d2 <- $eax
	subl	%ecx, %edx
.Ltmp251:
	#DEBUG_VALUE: idct_dequant_2x2_dc:d3 <- $edx
	.loc	0 0 5 is_stmt 0                 # x264_src/encoder/macroblock.c:0:5
	movq	88(%rsp), %rcx                  # 8-byte Reload
	.loc	0 49 5                          # x264_src/encoder/macroblock.c:49:5
	shlq	$6, %rcx
	movl	(%rdi,%rcx), %edi
.Ltmp252:
	.loc	0 0 5                           # x264_src/encoder/macroblock.c:0:5
	movq	96(%rsp), %rcx                  # 8-byte Reload
                                        # kill: def $cl killed $cl killed $rcx
	.loc	0 49 5                          # x264_src/encoder/macroblock.c:49:5
	shll	%cl, %edi
.Ltmp253:
	#DEBUG_VALUE: idct_dequant_2x2_dc:dmf <- $edi
	.loc	0 50 24 is_stmt 1               # x264_src/encoder/macroblock.c:50:24
	leal	(%r9,%rsi), %ecx
	.loc	0 50 30 is_stmt 0               # x264_src/encoder/macroblock.c:50:30
	imull	%edi, %ecx
	.loc	0 50 36                         # x264_src/encoder/macroblock.c:50:36
	shrl	$5, %ecx
	.loc	0 50 18                         # x264_src/encoder/macroblock.c:50:18
	movw	%cx, 128(%rsp)
	.loc	0 51 24 is_stmt 1               # x264_src/encoder/macroblock.c:51:24
	subl	%r9d, %esi
.Ltmp254:
	.loc	0 51 30 is_stmt 0               # x264_src/encoder/macroblock.c:51:30
	imull	%edi, %esi
	.loc	0 51 36                         # x264_src/encoder/macroblock.c:51:36
	shrl	$5, %esi
	.loc	0 51 18                         # x264_src/encoder/macroblock.c:51:18
	movw	%si, 160(%rsp)
	.loc	0 52 24 is_stmt 1               # x264_src/encoder/macroblock.c:52:24
	leal	(%rdx,%rax), %ecx
	.loc	0 52 30 is_stmt 0               # x264_src/encoder/macroblock.c:52:30
	imull	%edi, %ecx
	.loc	0 52 36                         # x264_src/encoder/macroblock.c:52:36
	shrl	$5, %ecx
	.loc	0 52 18                         # x264_src/encoder/macroblock.c:52:18
	movw	%cx, 192(%rsp)
	.loc	0 53 24 is_stmt 1               # x264_src/encoder/macroblock.c:53:24
	subl	%edx, %eax
.Ltmp255:
	.loc	0 53 30 is_stmt 0               # x264_src/encoder/macroblock.c:53:30
	imull	%edi, %eax
	.loc	0 53 36                         # x264_src/encoder/macroblock.c:53:36
	shrl	$5, %eax
	.loc	0 53 18                         # x264_src/encoder/macroblock.c:53:18
	movw	%ax, 224(%rsp)
.Ltmp256:
.LBB2_47:                               # %if.end462
                                        #   in Loop: Header=BB2_15 Depth=1
	#DEBUG_VALUE: x264_mb_encode_8x8_chroma:h <- $rbx
	#DEBUG_VALUE: x264_mb_encode_8x8_chroma:b_inter <- [DW_OP_plus_uconst 64] [$rsp+0]
	#DEBUG_VALUE: x264_mb_encode_8x8_chroma:i_qp <- [DW_OP_plus_uconst 12] [$rsp+0]
	#DEBUG_VALUE: ch <- $rbp
	#DEBUG_VALUE: p_dst <- [DW_OP_plus_uconst 112, DW_OP_deref] $rsp
	#DEBUG_VALUE: i_decimate_score <- $r13d
	#DEBUG_VALUE: nz_ac <- [DW_OP_plus_uconst 24, DW_OP_deref] $rsp
	.loc	0 0 18                          # x264_src/encoder/macroblock.c:0:18
	movq	112(%rsp), %rdi                 # 8-byte Reload
	.loc	0 452 13 is_stmt 1              # x264_src/encoder/macroblock.c:452:13
	movq	%r14, %rsi
	callq	*32944(%rbx)
.Ltmp257:
	.loc	0 0 13 is_stmt 0                # x264_src/encoder/macroblock.c:0:13
	jmp	.LBB2_14
.Ltmp258:
.LBB2_48:                               # %if.then387
                                        #   in Loop: Header=BB2_15 Depth=1
	#DEBUG_VALUE: x264_mb_encode_8x8_chroma:h <- $rbx
	#DEBUG_VALUE: x264_mb_encode_8x8_chroma:b_inter <- [DW_OP_plus_uconst 64] [$rsp+0]
	#DEBUG_VALUE: x264_mb_encode_8x8_chroma:i_qp <- [DW_OP_plus_uconst 12] [$rsp+0]
	#DEBUG_VALUE: x264_mb_encode_8x8_chroma:nz_dc <- $eax
	#DEBUG_VALUE: ch <- $rbp
	#DEBUG_VALUE: p_dst <- [DW_OP_plus_uconst 112, DW_OP_deref] $rsp
	#DEBUG_VALUE: i_decimate_score <- $r13d
	#DEBUG_VALUE: nz_ac <- [DW_OP_plus_uconst 24, DW_OP_deref] $rsp
	.loc	0 428 59 is_stmt 1              # x264_src/encoder/macroblock.c:428:59
	leaq	(,%rbp,2), %rcx
	addq	%rbp, %rcx
	.loc	0 428 64 is_stmt 0              # x264_src/encoder/macroblock.c:428:64
	movw	$0, 25081(%rbx,%rcx,8)
	.loc	0 430 64 is_stmt 1              # x264_src/encoder/macroblock.c:430:64
	movw	$0, 25089(%rbx,%rcx,8)
.Ltmp259:
	.loc	0 432 18                        # x264_src/encoder/macroblock.c:432:18
	testl	%eax, %eax
.Ltmp260:
	.loc	0 432 17 is_stmt 0              # x264_src/encoder/macroblock.c:432:17
	je	.LBB2_14
.Ltmp261:
# %bb.49:                               # %if.end418
                                        #   in Loop: Header=BB2_15 Depth=1
	#DEBUG_VALUE: x264_mb_encode_8x8_chroma:h <- $rbx
	#DEBUG_VALUE: x264_mb_encode_8x8_chroma:b_inter <- [DW_OP_plus_uconst 64] [$rsp+0]
	#DEBUG_VALUE: x264_mb_encode_8x8_chroma:i_qp <- [DW_OP_plus_uconst 12] [$rsp+0]
	#DEBUG_VALUE: x264_mb_encode_8x8_chroma:nz_dc <- $eax
	#DEBUG_VALUE: ch <- $rbp
	#DEBUG_VALUE: p_dst <- [DW_OP_plus_uconst 112, DW_OP_deref] $rsp
	#DEBUG_VALUE: i_decimate_score <- $r13d
	#DEBUG_VALUE: nz_ac <- [DW_OP_plus_uconst 24, DW_OP_deref] $rsp
	.loc	0 434 18 is_stmt 1              # x264_src/encoder/macroblock.c:434:18
	movq	%rbx, %rdi
	movq	64(%rsp), %rsi                  # 8-byte Reload
                                        # kill: def $esi killed $esi killed $rsi
	movl	%r12d, %edx
	leaq	16(%rsp), %r15
	movq	%r15, %rcx
	callq	x264_mb_optimize_chroma_dc
.Ltmp262:
	testl	%eax, %eax
.Ltmp263:
	.loc	0 434 17 is_stmt 0              # x264_src/encoder/macroblock.c:434:17
	je	.LBB2_51
.Ltmp264:
# %bb.50:                               # %if.end429
                                        #   in Loop: Header=BB2_15 Depth=1
	#DEBUG_VALUE: x264_mb_encode_8x8_chroma:h <- $rbx
	#DEBUG_VALUE: x264_mb_encode_8x8_chroma:b_inter <- [DW_OP_plus_uconst 64] [$rsp+0]
	#DEBUG_VALUE: x264_mb_encode_8x8_chroma:i_qp <- [DW_OP_plus_uconst 12] [$rsp+0]
	#DEBUG_VALUE: ch <- $rbp
	#DEBUG_VALUE: p_dst <- [DW_OP_plus_uconst 112, DW_OP_deref] $rsp
	#DEBUG_VALUE: i_decimate_score <- $r13d
	#DEBUG_VALUE: nz_ac <- [DW_OP_plus_uconst 24, DW_OP_deref] $rsp
	#DEBUG_VALUE: zigzag_scan_2x2_dc:level <- [DW_OP_LLVM_arg 0, DW_OP_plus_uconst 120, DW_OP_deref, DW_OP_LLVM_arg 1, DW_OP_constu 8, DW_OP_mul, DW_OP_plus, DW_OP_stack_value] $rsp, $rbp
	#DEBUG_VALUE: zigzag_scan_2x2_dc:dct <- [DW_OP_plus_uconst 16, DW_OP_stack_value] $rsp
	.loc	0 33 5 is_stmt 1                # x264_src/encoder/macroblock.c:33:5
	movq	16(%rsp), %xmm0                 # xmm0 = mem[0],zero
	pshuflw	$216, %xmm0, %xmm1              # xmm1 = xmm0[0,2,1,3,4,5,6,7]
	movq	%xmm1, 15072(%rbx,%rbp,8)
	movq	40(%rsp), %rax                  # 8-byte Reload
.Ltmp265:
	.loc	0 441 54                        # x264_src/encoder/macroblock.c:441:54
	movq	3344(%rbx,%rax,8), %rax
.Ltmp266:
	#DEBUG_VALUE: idct_dequant_2x2_dconly:dequant_mf <- $rax
	#DEBUG_VALUE: idct_dequant_2x2_dconly:out <- [DW_OP_plus_uconst 16, DW_OP_stack_value] $rsp
	#DEBUG_VALUE: idct_dequant_2x2_dconly:dct <- [DW_OP_plus_uconst 16, DW_OP_stack_value] $rsp
	#DEBUG_VALUE: idct_dequant_2x2_dconly:i_qp <- [DW_OP_plus_uconst 12, DW_OP_deref] $rsp
	#DEBUG_VALUE: idct_dequant_2x2_dconly:d0 <- undef
	#DEBUG_VALUE: idct_dequant_2x2_dconly:d1 <- undef
	#DEBUG_VALUE: idct_dequant_2x2_dconly:d2 <- undef
	#DEBUG_VALUE: idct_dequant_2x2_dconly:d3 <- undef
	.loc	0 0 54 is_stmt 0                # x264_src/encoder/macroblock.c:0:54
	movq	88(%rsp), %rcx                  # 8-byte Reload
.Ltmp267:
	.loc	0 58 5 is_stmt 1                # x264_src/encoder/macroblock.c:58:5
	shlq	$6, %rcx
	movl	(%rax,%rcx), %eax
.Ltmp268:
	.loc	0 0 5 is_stmt 0                 # x264_src/encoder/macroblock.c:0:5
	movq	96(%rsp), %rcx                  # 8-byte Reload
                                        # kill: def $cl killed $cl killed $rcx
	.loc	0 58 5                          # x264_src/encoder/macroblock.c:58:5
	shll	%cl, %eax
.Ltmp269:
	#DEBUG_VALUE: idct_dequant_2x2_dconly:dmf <- $eax
	punpcklwd	%xmm0, %xmm0            # xmm0 = xmm0[0,0,1,1,2,2,3,3]
	psrad	$16, %xmm0
	pshufd	$177, %xmm0, %xmm1              # xmm1 = xmm0[1,0,3,2]
	movdqa	%xmm1, %xmm2
	paddd	%xmm0, %xmm2
	psubd	%xmm0, %xmm1
	movdqa	%xmm2, %xmm0
	shufps	$114, %xmm1, %xmm0              # xmm0 = xmm0[2,0],xmm1[3,1]
.Ltmp270:
	#DEBUG_VALUE: x264_mb_encode_8x8_chroma:dct2x2 <- [DW_OP_LLVM_fragment 0 16] undef
	#DEBUG_VALUE: x264_mb_encode_8x8_chroma:dct2x2 <- [DW_OP_LLVM_fragment 16 16] undef
	#DEBUG_VALUE: x264_mb_encode_8x8_chroma:dct2x2 <- [DW_OP_LLVM_fragment 32 16] undef
	#DEBUG_VALUE: x264_mb_encode_8x8_chroma:dct2x2 <- [DW_OP_plus_uconst 16, DW_OP_plus_uconst 6, DW_OP_deref, DW_OP_LLVM_fragment 48 16] $rsp
	.loc	0 59 18 is_stmt 1               # x264_src/encoder/macroblock.c:59:18
	movdqa	%xmm2, %xmm3
	shufps	$216, %xmm1, %xmm3              # xmm3 = xmm3[0,2],xmm1[1,3]
	paddd	%xmm0, %xmm3
	.loc	0 59 24 is_stmt 0               # x264_src/encoder/macroblock.c:59:24
	movd	%eax, %xmm0
	pshufd	$0, %xmm0, %xmm0                # xmm0 = xmm0[0,0,0,0]
	movdqa	%xmm2, %xmm4
	shufps	$250, %xmm1, %xmm4              # xmm4 = xmm4[2,2],xmm1[3,3]
	shufps	$80, %xmm1, %xmm2               # xmm2 = xmm2[0,0],xmm1[1,1]
	psubd	%xmm4, %xmm2
	pmuludq	%xmm0, %xmm2
	pshufd	$232, %xmm2, %xmm1              # xmm1 = xmm2[0,2,2,3]
	pmuludq	%xmm0, %xmm3
	pshufd	$232, %xmm3, %xmm0              # xmm0 = xmm3[0,2,2,3]
	punpckldq	%xmm1, %xmm0            # xmm0 = xmm0[0],xmm1[0],xmm0[1],xmm1[1]
	.loc	0 59 30                         # x264_src/encoder/macroblock.c:59:30
	psrld	$5, %xmm0
	.loc	0 59 14                         # x264_src/encoder/macroblock.c:59:14
	pshuflw	$232, %xmm0, %xmm0              # xmm0 = xmm0[0,2,2,3,4,5,6,7]
	pshufhw	$232, %xmm0, %xmm0              # xmm0 = xmm0[0,1,2,3,4,6,6,7]
	pshufd	$232, %xmm0, %xmm0              # xmm0 = xmm0[0,2,2,3]
	.loc	0 59 12                         # x264_src/encoder/macroblock.c:59:12
	movq	%xmm0, 16(%rsp)
.Ltmp271:
	#DEBUG_VALUE: x264_mb_encode_8x8_chroma:dct2x2 <- [DW_OP_plus_uconst 16, DW_OP_deref] $rsp
	.loc	0 0 12                          # x264_src/encoder/macroblock.c:0:12
	movq	112(%rsp), %rdi                 # 8-byte Reload
.Ltmp272:
	.loc	0 442 13 is_stmt 1              # x264_src/encoder/macroblock.c:442:13
	movq	%r15, %rsi
	callq	*32952(%rbx)
.Ltmp273:
	.loc	0 443 9                         # x264_src/encoder/macroblock.c:443:9
	jmp	.LBB2_14
.Ltmp274:
.LBB2_51:                               # %if.then422
                                        #   in Loop: Header=BB2_15 Depth=1
	#DEBUG_VALUE: x264_mb_encode_8x8_chroma:h <- $rbx
	#DEBUG_VALUE: x264_mb_encode_8x8_chroma:b_inter <- [DW_OP_plus_uconst 64] [$rsp+0]
	#DEBUG_VALUE: x264_mb_encode_8x8_chroma:i_qp <- [DW_OP_plus_uconst 12] [$rsp+0]
	#DEBUG_VALUE: ch <- $rbp
	#DEBUG_VALUE: p_dst <- [DW_OP_plus_uconst 112, DW_OP_deref] $rsp
	#DEBUG_VALUE: i_decimate_score <- $r13d
	#DEBUG_VALUE: nz_ac <- [DW_OP_plus_uconst 24, DW_OP_deref] $rsp
	.loc	0 0 0 is_stmt 0                 # x264_src/encoder/macroblock.c:0:0
	orq	$46, %rbp
.Ltmp275:
	.loc	0 436 63 is_stmt 1              # x264_src/encoder/macroblock.c:436:63
	movb	$0, 25072(%rbx,%rbp)
	.loc	0 437 17                        # x264_src/encoder/macroblock.c:437:17
	jmp	.LBB2_14
.Ltmp276:
.LBB2_52:                               # %for.cond.cleanup157
	#DEBUG_VALUE: x264_mb_encode_8x8_chroma:h <- $rbx
	#DEBUG_VALUE: x264_mb_encode_8x8_chroma:b_inter <- [DW_OP_plus_uconst 64] [$rsp+0]
	#DEBUG_VALUE: x264_mb_encode_8x8_chroma:i_qp <- [DW_OP_plus_uconst 12] [$rsp+0]
	.loc	0 457 29                        # x264_src/encoder/macroblock.c:457:29
	xorl	%eax, %eax
	cmpw	$0, 25118(%rbx)
	setne	%al
	.loc	0 457 90 is_stmt 0              # x264_src/encoder/macroblock.c:457:90
	movl	17404(%rbx), %ecx
	.loc	0 457 82                        # x264_src/encoder/macroblock.c:457:82
	orl	%ecx, %eax
	.loc	0 457 104                       # x264_src/encoder/macroblock.c:457:104
	addl	%ecx, %eax
	.loc	0 457 24                        # x264_src/encoder/macroblock.c:457:24
	movl	%eax, 17404(%rbx)
.Ltmp277:
.LBB2_53:                               # %cleanup495
	#DEBUG_VALUE: x264_mb_encode_8x8_chroma:h <- $rbx
	#DEBUG_VALUE: x264_mb_encode_8x8_chroma:b_inter <- [DW_OP_plus_uconst 64] [$rsp+0]
	#DEBUG_VALUE: x264_mb_encode_8x8_chroma:i_qp <- [DW_OP_plus_uconst 12] [$rsp+0]
	.loc	0 458 1 epilogue_begin is_stmt 1 # x264_src/encoder/macroblock.c:458:1
	addq	$264, %rsp                      # imm = 0x108
	.cfi_def_cfa_offset 56
	popq	%rbx
.Ltmp278:
	#DEBUG_VALUE: x264_mb_encode_8x8_chroma:h <- [DW_OP_LLVM_entry_value 1] $rdi
	.cfi_def_cfa_offset 48
	popq	%r12
	.cfi_def_cfa_offset 40
	popq	%r13
	.cfi_def_cfa_offset 32
	popq	%r14
	.cfi_def_cfa_offset 24
	popq	%r15
	.cfi_def_cfa_offset 16
	popq	%rbp
	.cfi_def_cfa_offset 8
	retq
.Ltmp279:
.LBB2_11:                               # %if.end152.critedge
	.cfi_def_cfa_offset 320
	#DEBUG_VALUE: x264_mb_encode_8x8_chroma:h <- $rbx
	#DEBUG_VALUE: x264_mb_encode_8x8_chroma:b_inter <- [DW_OP_plus_uconst 64] [$rsp+0]
	#DEBUG_VALUE: x264_mb_encode_8x8_chroma:i_qp <- [DW_OP_plus_uconst 12] [$rsp+0]
	#DEBUG_VALUE: x264_mb_encode_8x8_chroma:dct2x2 <- [DW_OP_plus_uconst 16, DW_OP_deref] $rsp
	#DEBUG_VALUE: thresh <- $r13d
	#DEBUG_VALUE: score <- $r14d
	.loc	0 0 1 is_stmt 0                 # x264_src/encoder/macroblock.c:0:1
	movl	12(%rsp), %r12d                 # 4-byte Reload
	movb	$1, %dl
	jmp	.LBB2_12
.Ltmp280:
.LBB2_54:                               # %if.else
	#DEBUG_VALUE: x264_mb_encode_8x8_chroma:h <- $rbx
	#DEBUG_VALUE: x264_mb_encode_8x8_chroma:b_inter <- [DW_OP_plus_uconst 64] [$rsp+0]
	#DEBUG_VALUE: x264_mb_encode_8x8_chroma:i_qp <- [DW_OP_plus_uconst 12] [$rsp+0]
	#DEBUG_VALUE: x264_mb_encode_8x8_chroma:dct2x2 <- [DW_OP_plus_uconst 16, DW_OP_deref] $rsp
	#DEBUG_VALUE: thresh <- $r13d
	#DEBUG_VALUE: ch <- 0
	.loc	0 357 65 is_stmt 1              # x264_src/encoder/macroblock.c:357:65
	movq	%r12, %rax
	shlq	$5, %rax
	movq	32(%rsp), %rdx                  # 8-byte Reload
	movq	3440(%rbx,%rdx,8), %rcx
	.loc	0 357 108 is_stmt 0             # x264_src/encoder/macroblock.c:357:108
	movq	3488(%rbx,%rdx,8), %rdx
	.loc	0 357 65                        # x264_src/encoder/macroblock.c:357:65
	movzwl	(%rcx,%rax), %esi
	.loc	0 357 103                       # x264_src/encoder/macroblock.c:357:103
	shrl	%esi
	.loc	0 357 108                       # x264_src/encoder/macroblock.c:357:108
	movzwl	(%rdx,%rax), %edx
	.loc	0 357 148                       # x264_src/encoder/macroblock.c:357:148
	addl	%edx, %edx
	leaq	16(%rsp), %rdi
	.loc	0 357 33                        # x264_src/encoder/macroblock.c:357:33
	callq	*33104(%rbx)
.Ltmp281:
	#DEBUG_VALUE: x264_mb_encode_8x8_chroma:nz_dc <- $eax
.LBB2_55:                               # %if.end114
	#DEBUG_VALUE: x264_mb_encode_8x8_chroma:h <- $rbx
	#DEBUG_VALUE: x264_mb_encode_8x8_chroma:b_inter <- [DW_OP_plus_uconst 64] [$rsp+0]
	#DEBUG_VALUE: x264_mb_encode_8x8_chroma:i_qp <- [DW_OP_plus_uconst 12] [$rsp+0]
	#DEBUG_VALUE: thresh <- $r13d
	#DEBUG_VALUE: ch <- 0
	#DEBUG_VALUE: x264_mb_encode_8x8_chroma:nz_dc <- $eax
	#DEBUG_VALUE: x264_mb_encode_8x8_chroma:nz_dc <- $eax
	.loc	0 359 25 is_stmt 1              # x264_src/encoder/macroblock.c:359:25
	testl	%eax, %eax
.Ltmp282:
	.loc	0 359 25 is_stmt 0              # x264_src/encoder/macroblock.c:359:25
	je	.LBB2_58
.Ltmp283:
# %bb.56:                               # %if.then116
	#DEBUG_VALUE: x264_mb_encode_8x8_chroma:h <- $rbx
	#DEBUG_VALUE: x264_mb_encode_8x8_chroma:b_inter <- [DW_OP_plus_uconst 64] [$rsp+0]
	#DEBUG_VALUE: x264_mb_encode_8x8_chroma:i_qp <- [DW_OP_plus_uconst 12] [$rsp+0]
	#DEBUG_VALUE: thresh <- $r13d
	#DEBUG_VALUE: ch <- 0
	#DEBUG_VALUE: x264_mb_encode_8x8_chroma:nz_dc <- $eax
	.loc	0 0 25                          # x264_src/encoder/macroblock.c:0:25
	leaq	16(%rsp), %rcx
.Ltmp284:
	.loc	0 361 30 is_stmt 1              # x264_src/encoder/macroblock.c:361:30
	movq	%rbx, %rdi
	movq	64(%rsp), %rsi                  # 8-byte Reload
                                        # kill: def $esi killed $esi killed $rsi
	movl	12(%rsp), %edx                  # 4-byte Reload
	callq	x264_mb_optimize_chroma_dc
.Ltmp285:
	testl	%eax, %eax
.Ltmp286:
	.loc	0 361 29 is_stmt 0              # x264_src/encoder/macroblock.c:361:29
	je	.LBB2_58
.Ltmp287:
# %bb.57:                               # %if.end121
	#DEBUG_VALUE: x264_mb_encode_8x8_chroma:h <- $rbx
	#DEBUG_VALUE: x264_mb_encode_8x8_chroma:b_inter <- [DW_OP_plus_uconst 64] [$rsp+0]
	#DEBUG_VALUE: x264_mb_encode_8x8_chroma:i_qp <- [DW_OP_plus_uconst 12] [$rsp+0]
	#DEBUG_VALUE: thresh <- $r13d
	#DEBUG_VALUE: ch <- 0
	.loc	0 363 71 is_stmt 1              # x264_src/encoder/macroblock.c:363:71
	movb	$1, 25118(%rbx)
.Ltmp288:
	#DEBUG_VALUE: zigzag_scan_2x2_dc:level <- [DW_OP_plus_uconst 15072, DW_OP_stack_value] $rbx
	#DEBUG_VALUE: zigzag_scan_2x2_dc:dct <- [DW_OP_plus_uconst 16, DW_OP_stack_value] $rsp
	.loc	0 33 5                          # x264_src/encoder/macroblock.c:33:5
	movq	16(%rsp), %xmm0                 # xmm0 = mem[0],zero
	pshuflw	$216, %xmm0, %xmm1              # xmm1 = xmm0[0,2,1,3,4,5,6,7]
	movq	%xmm1, 15072(%rbx)
	movq	32(%rsp), %rax                  # 8-byte Reload
.Ltmp289:
	.loc	0 365 66                        # x264_src/encoder/macroblock.c:365:66
	movq	3344(%rbx,%rax,8), %rax
.Ltmp290:
	#DEBUG_VALUE: idct_dequant_2x2_dconly:dequant_mf <- $rax
	#DEBUG_VALUE: idct_dequant_2x2_dconly:out <- [DW_OP_plus_uconst 16, DW_OP_stack_value] $rsp
	#DEBUG_VALUE: idct_dequant_2x2_dconly:dct <- [DW_OP_plus_uconst 16, DW_OP_stack_value] $rsp
	#DEBUG_VALUE: idct_dequant_2x2_dconly:i_qp <- [DW_OP_plus_uconst 12, DW_OP_deref] $rsp
	#DEBUG_VALUE: idct_dequant_2x2_dconly:d0 <- undef
	#DEBUG_VALUE: idct_dequant_2x2_dconly:d1 <- undef
	#DEBUG_VALUE: idct_dequant_2x2_dconly:d2 <- undef
	#DEBUG_VALUE: idct_dequant_2x2_dconly:d3 <- undef
	.loc	0 58 5                          # x264_src/encoder/macroblock.c:58:5
	movq	%rbp, %rcx
	shlq	$6, %rcx
	movl	(%rax,%rcx), %eax
.Ltmp291:
	movl	%r14d, %ecx
	shll	%cl, %eax
.Ltmp292:
	#DEBUG_VALUE: idct_dequant_2x2_dconly:dmf <- $eax
	punpcklwd	%xmm0, %xmm0            # xmm0 = xmm0[0,0,1,1,2,2,3,3]
	psrad	$16, %xmm0
	pshufd	$177, %xmm0, %xmm1              # xmm1 = xmm0[1,0,3,2]
	movdqa	%xmm1, %xmm2
	paddd	%xmm0, %xmm2
	psubd	%xmm0, %xmm1
	movdqa	%xmm2, %xmm0
	shufps	$114, %xmm1, %xmm0              # xmm0 = xmm0[2,0],xmm1[3,1]
.Ltmp293:
	#DEBUG_VALUE: x264_mb_encode_8x8_chroma:dct2x2 <- [DW_OP_LLVM_fragment 0 16] undef
	#DEBUG_VALUE: x264_mb_encode_8x8_chroma:dct2x2 <- [DW_OP_LLVM_fragment 16 16] undef
	#DEBUG_VALUE: x264_mb_encode_8x8_chroma:dct2x2 <- [DW_OP_LLVM_fragment 32 16] undef
	#DEBUG_VALUE: x264_mb_encode_8x8_chroma:dct2x2 <- [DW_OP_plus_uconst 16, DW_OP_plus_uconst 6, DW_OP_deref, DW_OP_LLVM_fragment 48 16] $rsp
	.loc	0 59 18                         # x264_src/encoder/macroblock.c:59:18
	movdqa	%xmm2, %xmm3
	shufps	$216, %xmm1, %xmm3              # xmm3 = xmm3[0,2],xmm1[1,3]
	paddd	%xmm0, %xmm3
	.loc	0 59 24 is_stmt 0               # x264_src/encoder/macroblock.c:59:24
	movd	%eax, %xmm0
	pshufd	$0, %xmm0, %xmm0                # xmm0 = xmm0[0,0,0,0]
	movdqa	%xmm2, %xmm4
	shufps	$250, %xmm1, %xmm4              # xmm4 = xmm4[2,2],xmm1[3,3]
	shufps	$80, %xmm1, %xmm2               # xmm2 = xmm2[0,0],xmm1[1,1]
	psubd	%xmm4, %xmm2
	pmuludq	%xmm0, %xmm2
	pshufd	$232, %xmm2, %xmm1              # xmm1 = xmm2[0,2,2,3]
	pmuludq	%xmm0, %xmm3
	pshufd	$232, %xmm3, %xmm0              # xmm0 = xmm3[0,2,2,3]
	punpckldq	%xmm1, %xmm0            # xmm0 = xmm0[0],xmm1[0],xmm0[1],xmm1[1]
	.loc	0 59 30                         # x264_src/encoder/macroblock.c:59:30
	psrld	$5, %xmm0
	.loc	0 59 14                         # x264_src/encoder/macroblock.c:59:14
	pshuflw	$232, %xmm0, %xmm0              # xmm0 = xmm0[0,2,2,3,4,5,6,7]
	pshufhw	$232, %xmm0, %xmm0              # xmm0 = xmm0[0,1,2,3,4,6,6,7]
	pshufd	$232, %xmm0, %xmm0              # xmm0 = xmm0[0,2,2,3]
	.loc	0 59 12                         # x264_src/encoder/macroblock.c:59:12
	movq	%xmm0, 16(%rsp)
.Ltmp294:
	#DEBUG_VALUE: x264_mb_encode_8x8_chroma:dct2x2 <- [DW_OP_plus_uconst 16, DW_OP_deref] $rsp
	.loc	0 366 49 is_stmt 1              # x264_src/encoder/macroblock.c:366:49
	movq	21400(%rbx), %rdi
	leaq	16(%rsp), %rsi
	.loc	0 366 25 is_stmt 0              # x264_src/encoder/macroblock.c:366:25
	callq	*32952(%rbx)
.Ltmp295:
	.loc	0 367 44 is_stmt 1              # x264_src/encoder/macroblock.c:367:44
	movl	$1, 17404(%rbx)
.Ltmp296:
.LBB2_58:                               # %for.inc
	#DEBUG_VALUE: x264_mb_encode_8x8_chroma:h <- $rbx
	#DEBUG_VALUE: x264_mb_encode_8x8_chroma:b_inter <- [DW_OP_plus_uconst 64] [$rsp+0]
	#DEBUG_VALUE: x264_mb_encode_8x8_chroma:i_qp <- [DW_OP_plus_uconst 12] [$rsp+0]
	#DEBUG_VALUE: thresh <- $r13d
	#DEBUG_VALUE: ch <- 0
	#DEBUG_VALUE: ch <- 1
	.loc	0 351 29                        # x264_src/encoder/macroblock.c:351:29
	cmpl	%r13d, 132(%rsp)
.Ltmp297:
	.loc	0 351 21 is_stmt 0              # x264_src/encoder/macroblock.c:351:21
	jle	.LBB2_53
.Ltmp298:
# %bb.59:                               # %if.then77.1
	#DEBUG_VALUE: x264_mb_encode_8x8_chroma:h <- $rbx
	#DEBUG_VALUE: x264_mb_encode_8x8_chroma:b_inter <- [DW_OP_plus_uconst 64] [$rsp+0]
	#DEBUG_VALUE: x264_mb_encode_8x8_chroma:i_qp <- [DW_OP_plus_uconst 12] [$rsp+0]
	#DEBUG_VALUE: thresh <- $r13d
	#DEBUG_VALUE: ch <- 1
	.loc	0 353 52 is_stmt 1              # x264_src/encoder/macroblock.c:353:52
	movq	21360(%rbx), %rsi
	.loc	0 353 76 is_stmt 0              # x264_src/encoder/macroblock.c:353:76
	movq	21408(%rbx), %rdx
	leaq	16(%rsp), %rdi
	.loc	0 353 21                        # x264_src/encoder/macroblock.c:353:21
	callq	*32936(%rbx)
.Ltmp299:
	.loc	0 354 25 is_stmt 1              # x264_src/encoder/macroblock.c:354:25
	cmpl	$0, 16416(%rbx)
.Ltmp300:
	.loc	0 354 25 is_stmt 0              # x264_src/encoder/macroblock.c:354:25
	je	.LBB2_61
.Ltmp301:
# %bb.60:                               # %if.then93.1
	#DEBUG_VALUE: x264_mb_encode_8x8_chroma:h <- $rbx
	#DEBUG_VALUE: x264_mb_encode_8x8_chroma:b_inter <- [DW_OP_plus_uconst 64] [$rsp+0]
	#DEBUG_VALUE: x264_mb_encode_8x8_chroma:i_qp <- [DW_OP_plus_uconst 12] [$rsp+0]
	#DEBUG_VALUE: thresh <- $r13d
	#DEBUG_VALUE: ch <- 1
	.loc	0 355 33 is_stmt 1              # x264_src/encoder/macroblock.c:355:33
	subq	$8, %rsp
.Ltmp302:
	.cfi_adjust_cfa_offset 8
	.loc	0 0 33 is_stmt 0                # x264_src/encoder/macroblock.c:0:33
	leaq	24(%rsp), %rsi
	.loc	0 355 33                        # x264_src/encoder/macroblock.c:355:33
	movq	%rbx, %rdi
	movl	%r15d, %edx
	movl	20(%rsp), %ecx                  # 4-byte Reload
	movl	$3, %r8d
	xorl	%r9d, %r9d
	pushq	$1
	.cfi_adjust_cfa_offset 8
	callq	x264_quant_dc_trellis@PLT
.Ltmp303:
	#DEBUG_VALUE: x264_mb_encode_8x8_chroma:nz_dc <- $eax
	addq	$16, %rsp
	.cfi_adjust_cfa_offset -16
	.loc	0 355 25                        # x264_src/encoder/macroblock.c:355:25
	jmp	.LBB2_62
.Ltmp304:
.LBB2_61:                               # %if.else.1
	#DEBUG_VALUE: x264_mb_encode_8x8_chroma:h <- $rbx
	#DEBUG_VALUE: x264_mb_encode_8x8_chroma:b_inter <- [DW_OP_plus_uconst 64] [$rsp+0]
	#DEBUG_VALUE: x264_mb_encode_8x8_chroma:i_qp <- [DW_OP_plus_uconst 12] [$rsp+0]
	#DEBUG_VALUE: thresh <- $r13d
	#DEBUG_VALUE: ch <- 1
	.loc	0 357 65 is_stmt 1              # x264_src/encoder/macroblock.c:357:65
	shlq	$5, %r12
	movq	32(%rsp), %rcx                  # 8-byte Reload
	movq	3440(%rbx,%rcx,8), %rax
	.loc	0 357 108 is_stmt 0             # x264_src/encoder/macroblock.c:357:108
	movq	3488(%rbx,%rcx,8), %rcx
	.loc	0 357 65                        # x264_src/encoder/macroblock.c:357:65
	movzwl	(%rax,%r12), %esi
	.loc	0 357 103                       # x264_src/encoder/macroblock.c:357:103
	shrl	%esi
	.loc	0 357 108                       # x264_src/encoder/macroblock.c:357:108
	movzwl	(%rcx,%r12), %edx
	.loc	0 357 148                       # x264_src/encoder/macroblock.c:357:148
	addl	%edx, %edx
	leaq	16(%rsp), %rdi
	.loc	0 357 33                        # x264_src/encoder/macroblock.c:357:33
	callq	*33104(%rbx)
.Ltmp305:
	#DEBUG_VALUE: x264_mb_encode_8x8_chroma:nz_dc <- $eax
.LBB2_62:                               # %if.end114.1
	#DEBUG_VALUE: x264_mb_encode_8x8_chroma:h <- $rbx
	#DEBUG_VALUE: x264_mb_encode_8x8_chroma:b_inter <- [DW_OP_plus_uconst 64] [$rsp+0]
	#DEBUG_VALUE: x264_mb_encode_8x8_chroma:i_qp <- [DW_OP_plus_uconst 12] [$rsp+0]
	#DEBUG_VALUE: thresh <- $r13d
	#DEBUG_VALUE: ch <- 1
	#DEBUG_VALUE: x264_mb_encode_8x8_chroma:nz_dc <- $eax
	#DEBUG_VALUE: x264_mb_encode_8x8_chroma:nz_dc <- $eax
	.loc	0 359 25 is_stmt 1              # x264_src/encoder/macroblock.c:359:25
	testl	%eax, %eax
.Ltmp306:
	.loc	0 359 25 is_stmt 0              # x264_src/encoder/macroblock.c:359:25
	je	.LBB2_53
.Ltmp307:
# %bb.63:                               # %if.then116.1
	#DEBUG_VALUE: x264_mb_encode_8x8_chroma:h <- $rbx
	#DEBUG_VALUE: x264_mb_encode_8x8_chroma:b_inter <- [DW_OP_plus_uconst 64] [$rsp+0]
	#DEBUG_VALUE: x264_mb_encode_8x8_chroma:i_qp <- [DW_OP_plus_uconst 12] [$rsp+0]
	#DEBUG_VALUE: thresh <- $r13d
	#DEBUG_VALUE: ch <- 1
	#DEBUG_VALUE: x264_mb_encode_8x8_chroma:nz_dc <- $eax
	.loc	0 0 25                          # x264_src/encoder/macroblock.c:0:25
	leaq	16(%rsp), %rcx
.Ltmp308:
	.loc	0 361 30 is_stmt 1              # x264_src/encoder/macroblock.c:361:30
	movq	%rbx, %rdi
	movq	64(%rsp), %rsi                  # 8-byte Reload
                                        # kill: def $esi killed $esi killed $rsi
	movl	12(%rsp), %edx                  # 4-byte Reload
	callq	x264_mb_optimize_chroma_dc
.Ltmp309:
	testl	%eax, %eax
.Ltmp310:
	.loc	0 361 29 is_stmt 0              # x264_src/encoder/macroblock.c:361:29
	je	.LBB2_53
.Ltmp311:
# %bb.64:                               # %if.end121.1
	#DEBUG_VALUE: x264_mb_encode_8x8_chroma:h <- $rbx
	#DEBUG_VALUE: x264_mb_encode_8x8_chroma:b_inter <- [DW_OP_plus_uconst 64] [$rsp+0]
	#DEBUG_VALUE: x264_mb_encode_8x8_chroma:i_qp <- [DW_OP_plus_uconst 12] [$rsp+0]
	#DEBUG_VALUE: thresh <- $r13d
	#DEBUG_VALUE: ch <- 1
	.loc	0 363 71 is_stmt 1              # x264_src/encoder/macroblock.c:363:71
	movb	$1, 25119(%rbx)
.Ltmp312:
	#DEBUG_VALUE: zigzag_scan_2x2_dc:dct <- [DW_OP_plus_uconst 16, DW_OP_stack_value] $rsp
	#DEBUG_VALUE: zigzag_scan_2x2_dc:level <- [DW_OP_plus_uconst 15080, DW_OP_stack_value] $rbx
	.loc	0 33 5                          # x264_src/encoder/macroblock.c:33:5
	movq	16(%rsp), %xmm0                 # xmm0 = mem[0],zero
	pshuflw	$216, %xmm0, %xmm1              # xmm1 = xmm0[0,2,1,3,4,5,6,7]
	movq	%xmm1, 15080(%rbx)
	movq	32(%rsp), %rax                  # 8-byte Reload
.Ltmp313:
	.loc	0 365 66                        # x264_src/encoder/macroblock.c:365:66
	movq	3344(%rbx,%rax,8), %rax
.Ltmp314:
	#DEBUG_VALUE: idct_dequant_2x2_dconly:dequant_mf <- $rax
	#DEBUG_VALUE: idct_dequant_2x2_dconly:out <- [DW_OP_plus_uconst 16, DW_OP_stack_value] $rsp
	#DEBUG_VALUE: idct_dequant_2x2_dconly:dct <- [DW_OP_plus_uconst 16, DW_OP_stack_value] $rsp
	#DEBUG_VALUE: idct_dequant_2x2_dconly:i_qp <- [DW_OP_plus_uconst 12, DW_OP_deref] $rsp
	#DEBUG_VALUE: idct_dequant_2x2_dconly:d0 <- undef
	#DEBUG_VALUE: idct_dequant_2x2_dconly:d1 <- undef
	#DEBUG_VALUE: idct_dequant_2x2_dconly:d2 <- undef
	#DEBUG_VALUE: idct_dequant_2x2_dconly:d3 <- undef
	.loc	0 58 5                          # x264_src/encoder/macroblock.c:58:5
	shlq	$6, %rbp
	movl	(%rax,%rbp), %eax
.Ltmp315:
	movl	%r14d, %ecx
	shll	%cl, %eax
.Ltmp316:
	#DEBUG_VALUE: idct_dequant_2x2_dconly:dmf <- $eax
	punpcklwd	%xmm0, %xmm0            # xmm0 = xmm0[0,0,1,1,2,2,3,3]
	psrad	$16, %xmm0
	pshufd	$177, %xmm0, %xmm1              # xmm1 = xmm0[1,0,3,2]
	movdqa	%xmm1, %xmm2
	paddd	%xmm0, %xmm2
	psubd	%xmm0, %xmm1
	movdqa	%xmm2, %xmm0
	shufps	$114, %xmm1, %xmm0              # xmm0 = xmm0[2,0],xmm1[3,1]
.Ltmp317:
	#DEBUG_VALUE: x264_mb_encode_8x8_chroma:dct2x2 <- [DW_OP_LLVM_fragment 0 16] undef
	#DEBUG_VALUE: x264_mb_encode_8x8_chroma:dct2x2 <- [DW_OP_LLVM_fragment 16 16] undef
	#DEBUG_VALUE: x264_mb_encode_8x8_chroma:dct2x2 <- [DW_OP_LLVM_fragment 32 16] undef
	#DEBUG_VALUE: x264_mb_encode_8x8_chroma:dct2x2 <- [DW_OP_plus_uconst 16, DW_OP_plus_uconst 6, DW_OP_deref, DW_OP_LLVM_fragment 48 16] $rsp
	.loc	0 59 18                         # x264_src/encoder/macroblock.c:59:18
	movdqa	%xmm2, %xmm3
	shufps	$216, %xmm1, %xmm3              # xmm3 = xmm3[0,2],xmm1[1,3]
	paddd	%xmm0, %xmm3
	.loc	0 59 24 is_stmt 0               # x264_src/encoder/macroblock.c:59:24
	movd	%eax, %xmm0
	pshufd	$0, %xmm0, %xmm0                # xmm0 = xmm0[0,0,0,0]
	movdqa	%xmm2, %xmm4
	shufps	$250, %xmm1, %xmm4              # xmm4 = xmm4[2,2],xmm1[3,3]
	shufps	$80, %xmm1, %xmm2               # xmm2 = xmm2[0,0],xmm1[1,1]
	psubd	%xmm4, %xmm2
	pmuludq	%xmm0, %xmm2
	pshufd	$232, %xmm2, %xmm1              # xmm1 = xmm2[0,2,2,3]
	pmuludq	%xmm0, %xmm3
	pshufd	$232, %xmm3, %xmm0              # xmm0 = xmm3[0,2,2,3]
	punpckldq	%xmm1, %xmm0            # xmm0 = xmm0[0],xmm1[0],xmm0[1],xmm1[1]
	.loc	0 59 30                         # x264_src/encoder/macroblock.c:59:30
	psrld	$5, %xmm0
	.loc	0 59 14                         # x264_src/encoder/macroblock.c:59:14
	pshuflw	$232, %xmm0, %xmm0              # xmm0 = xmm0[0,2,2,3,4,5,6,7]
	pshufhw	$232, %xmm0, %xmm0              # xmm0 = xmm0[0,1,2,3,4,6,6,7]
	pshufd	$232, %xmm0, %xmm0              # xmm0 = xmm0[0,2,2,3]
	.loc	0 59 12                         # x264_src/encoder/macroblock.c:59:12
	movq	%xmm0, 16(%rsp)
.Ltmp318:
	#DEBUG_VALUE: x264_mb_encode_8x8_chroma:dct2x2 <- [DW_OP_plus_uconst 16, DW_OP_deref] $rsp
	.loc	0 366 49 is_stmt 1              # x264_src/encoder/macroblock.c:366:49
	movq	21408(%rbx), %rdi
	leaq	16(%rsp), %rsi
	.loc	0 366 25 is_stmt 0              # x264_src/encoder/macroblock.c:366:25
	callq	*32952(%rbx)
.Ltmp319:
	.loc	0 367 44 is_stmt 1              # x264_src/encoder/macroblock.c:367:44
	movl	$1, 17404(%rbx)
	jmp	.LBB2_53
.Ltmp320:
.Lfunc_end2:
	.size	x264_mb_encode_8x8_chroma, .Lfunc_end2-x264_mb_encode_8x8_chroma
	.cfi_endproc
                                        # -- End function
	.p2align	4, 0x90                         # -- Begin function x264_mb_optimize_chroma_dc
	.type	x264_mb_optimize_chroma_dc,@function
x264_mb_optimize_chroma_dc:             # @x264_mb_optimize_chroma_dc
.Lfunc_begin3:
	.loc	0 280 0                         # x264_src/encoder/macroblock.c:280:0
	.cfi_startproc
# %bb.0:                                # %entry
	#DEBUG_VALUE: x264_mb_optimize_chroma_dc:h <- $rdi
	#DEBUG_VALUE: x264_mb_optimize_chroma_dc:b_inter <- $esi
	#DEBUG_VALUE: x264_mb_optimize_chroma_dc:i_qp <- $edx
	#DEBUG_VALUE: x264_mb_optimize_chroma_dc:dct2x2 <- $rcx
	pushq	%rbp
	.cfi_def_cfa_offset 16
	pushq	%r15
	.cfi_def_cfa_offset 24
	pushq	%r14
	.cfi_def_cfa_offset 32
	pushq	%r13
	.cfi_def_cfa_offset 40
	pushq	%r12
	.cfi_def_cfa_offset 48
	pushq	%rbx
	.cfi_def_cfa_offset 56
	subq	$56, %rsp
	.cfi_def_cfa_offset 112
	.cfi_offset %rbx, -56
	.cfi_offset %r12, -48
	.cfi_offset %r13, -40
	.cfi_offset %r14, -32
	.cfi_offset %r15, -24
	.cfi_offset %rbp, -16
	movq	%rcx, %rbx
.Ltmp321:
	.loc	0 285 9 prologue_end            # x264_src/encoder/macroblock.c:285:9
	movslq	%esi, %rax
	movq	%rdi, 24(%rsp)                  # 8-byte Spill
.Ltmp322:
	#DEBUG_VALUE: x264_mb_optimize_chroma_dc:h <- [DW_OP_plus_uconst 24] [$rsp+0]
	.loc	0 0 9 is_stmt 0                 # x264_src/encoder/macroblock.c:0:9
	movq	%rax, 16(%rsp)                  # 8-byte Spill
	.loc	0 285 9                         # x264_src/encoder/macroblock.c:285:9
	movq	3360(%rdi,%rax,8), %rax
	.loc	0 285 62                        # x264_src/encoder/macroblock.c:285:62
	movslq	%edx, %rsi
.Ltmp323:
	#DEBUG_VALUE: x264_mb_optimize_chroma_dc:b_inter <- [DW_OP_LLVM_entry_value 1] $esi
	imulq	$715827883, %rsi, %rcx          # imm = 0x2AAAAAAB
.Ltmp324:
	#DEBUG_VALUE: x264_mb_optimize_chroma_dc:dct2x2 <- $rbx
	movq	%rcx, %rdx
.Ltmp325:
	#DEBUG_VALUE: x264_mb_optimize_chroma_dc:i_qp <- [DW_OP_LLVM_entry_value 1] $edx
	shrq	$63, %rdx
	shrq	$32, %rcx
	addl	%edx, %ecx
	leal	(%rcx,%rcx), %edx
	leal	(%rdx,%rdx,2), %edx
	subl	%edx, %esi
	.loc	0 285 9                         # x264_src/encoder/macroblock.c:285:9
	movslq	%esi, %rdx
	shlq	$6, %rdx
	movq	%rdx, 40(%rsp)                  # 8-byte Spill
	movl	(%rax,%rdx), %eax
	movq	%rcx, 48(%rsp)                  # 8-byte Spill
                                        # kill: def $cl killed $cl killed $rcx
	.loc	0 285 54                        # x264_src/encoder/macroblock.c:285:54
	shll	%cl, %eax
	movl	$1, 4(%rsp)                     # 4-byte Folded Spill
	.loc	0 285 66                        # x264_src/encoder/macroblock.c:285:66
	cmpl	$2048, %eax                     # imm = 0x800
.Ltmp326:
	.loc	0 285 9                         # x264_src/encoder/macroblock.c:285:9
	jg	.LBB3_9
.Ltmp327:
# %bb.1:                                # %if.end
	#DEBUG_VALUE: x264_mb_optimize_chroma_dc:h <- [DW_OP_plus_uconst 24] [$rsp+0]
	#DEBUG_VALUE: x264_mb_optimize_chroma_dc:b_inter <- [DW_OP_LLVM_entry_value 1] $esi
	#DEBUG_VALUE: x264_mb_optimize_chroma_dc:i_qp <- [DW_OP_LLVM_entry_value 1] $edx
	#DEBUG_VALUE: x264_mb_optimize_chroma_dc:dct2x2 <- $rbx
	#DEBUG_VALUE: idct_dequant_2x2_dconly:out <- undef
	#DEBUG_VALUE: idct_dequant_2x2_dconly:dct <- $rbx
	#DEBUG_VALUE: idct_dequant_2x2_dconly:i_qp <- undef
	.loc	0 58 5 is_stmt 1                # x264_src/encoder/macroblock.c:58:5
	movswl	(%rbx), %r12d
	movswl	2(%rbx), %ecx
	leal	(%rcx,%r12), %ebp
.Ltmp328:
	#DEBUG_VALUE: idct_dequant_2x2_dconly:d0 <- $ebp
	movswl	4(%rbx), %edx
	movswl	6(%rbx), %esi
	leal	(%rsi,%rdx), %edi
.Ltmp329:
	#DEBUG_VALUE: idct_dequant_2x2_dconly:d1 <- $edi
	subl	%ecx, %r12d
.Ltmp330:
	#DEBUG_VALUE: idct_dequant_2x2_dconly:d2 <- $r12d
	subl	%esi, %edx
.Ltmp331:
	#DEBUG_VALUE: idct_dequant_2x2_dconly:d3 <- $edx
	#DEBUG_VALUE: idct_dequant_2x2_dconly:dmf <- $eax
	.loc	0 59 18                         # x264_src/encoder/macroblock.c:59:18
	leal	(%rdi,%rbp), %r14d
	.loc	0 59 24 is_stmt 0               # x264_src/encoder/macroblock.c:59:24
	imull	%eax, %r14d
	.loc	0 59 30                         # x264_src/encoder/macroblock.c:59:30
	shrl	$5, %r14d
.Ltmp332:
	#DEBUG_VALUE: x264_mb_optimize_chroma_dc:dct2x2_orig <- [DW_OP_LLVM_fragment 0 16] $r14d
	.loc	0 60 18 is_stmt 1               # x264_src/encoder/macroblock.c:60:18
	subl	%edi, %ebp
.Ltmp333:
	.loc	0 60 24 is_stmt 0               # x264_src/encoder/macroblock.c:60:24
	imull	%eax, %ebp
	.loc	0 60 30                         # x264_src/encoder/macroblock.c:60:30
	shrl	$5, %ebp
.Ltmp334:
	#DEBUG_VALUE: x264_mb_optimize_chroma_dc:dct2x2_orig <- [DW_OP_LLVM_fragment 16 16] $ebp
	.loc	0 61 18 is_stmt 1               # x264_src/encoder/macroblock.c:61:18
	leal	(%rdx,%r12), %r15d
	.loc	0 61 24 is_stmt 0               # x264_src/encoder/macroblock.c:61:24
	imull	%eax, %r15d
	.loc	0 61 30                         # x264_src/encoder/macroblock.c:61:30
	shrl	$5, %r15d
.Ltmp335:
	#DEBUG_VALUE: x264_mb_optimize_chroma_dc:dct2x2_orig <- [DW_OP_LLVM_fragment 32 16] $r15d
	.loc	0 62 18 is_stmt 1               # x264_src/encoder/macroblock.c:62:18
	subl	%edx, %r12d
.Ltmp336:
	.loc	0 62 24 is_stmt 0               # x264_src/encoder/macroblock.c:62:24
	imull	%eax, %r12d
	.loc	0 62 30                         # x264_src/encoder/macroblock.c:62:30
	shrl	$5, %r12d
.Ltmp337:
	#DEBUG_VALUE: x264_mb_optimize_chroma_dc:dct2x2_orig <- [DW_OP_LLVM_fragment 48 16] $r12d
	.loc	0 289 20 is_stmt 1              # x264_src/encoder/macroblock.c:289:20
	addl	$32, %r14d
.Ltmp338:
	#DEBUG_VALUE: x264_mb_optimize_chroma_dc:dct2x2_orig <- [DW_OP_LLVM_fragment 0 16] $r14w
	.loc	0 290 20                        # x264_src/encoder/macroblock.c:290:20
	addl	$32, %ebp
.Ltmp339:
	#DEBUG_VALUE: x264_mb_optimize_chroma_dc:dct2x2_orig <- [DW_OP_LLVM_fragment 16 16] $bp
	.loc	0 291 20                        # x264_src/encoder/macroblock.c:291:20
	addl	$32, %r15d
.Ltmp340:
	#DEBUG_VALUE: x264_mb_optimize_chroma_dc:dct2x2_orig <- [DW_OP_LLVM_fragment 32 16] $r15w
	.loc	0 292 20                        # x264_src/encoder/macroblock.c:292:20
	addl	$32, %r12d
.Ltmp341:
	#DEBUG_VALUE: x264_mb_optimize_chroma_dc:dct2x2_orig <- [DW_OP_LLVM_fragment 48 16] $r12w
	.loc	0 295 26                        # x264_src/encoder/macroblock.c:295:26
	movl	%r14d, %eax
.Ltmp342:
	orl	%ebp, %eax
	.loc	0 295 41 is_stmt 0              # x264_src/encoder/macroblock.c:295:41
	movl	%r15d, %ecx
	orl	%r12d, %ecx
	.loc	0 295 56                        # x264_src/encoder/macroblock.c:295:56
	orl	%eax, %ecx
	movl	$0, 4(%rsp)                     # 4-byte Folded Spill
	.loc	0 295 72                        # x264_src/encoder/macroblock.c:295:72
	cmpw	$64, %cx
.Ltmp343:
	#DEBUG_VALUE: idct_dequant_2x2_dconly:dequant_mf <- undef
	.loc	0 295 9                         # x264_src/encoder/macroblock.c:295:9
	jb	.LBB3_9
.Ltmp344:
# %bb.2:                                # %if.end34
	#DEBUG_VALUE: x264_mb_optimize_chroma_dc:h <- [DW_OP_plus_uconst 24] [$rsp+0]
	#DEBUG_VALUE: x264_mb_optimize_chroma_dc:b_inter <- [DW_OP_LLVM_entry_value 1] $esi
	#DEBUG_VALUE: x264_mb_optimize_chroma_dc:i_qp <- [DW_OP_LLVM_entry_value 1] $edx
	#DEBUG_VALUE: x264_mb_optimize_chroma_dc:dct2x2 <- $rbx
	#DEBUG_VALUE: x264_mb_optimize_chroma_dc:dct2x2_orig <- [DW_OP_LLVM_fragment 0 16] $r14w
	#DEBUG_VALUE: x264_mb_optimize_chroma_dc:dct2x2_orig <- [DW_OP_LLVM_fragment 16 16] $bp
	#DEBUG_VALUE: x264_mb_optimize_chroma_dc:dct2x2_orig <- [DW_OP_LLVM_fragment 32 16] $r15w
	#DEBUG_VALUE: x264_mb_optimize_chroma_dc:dct2x2_orig <- [DW_OP_LLVM_fragment 48 16] $r12w
	#DEBUG_VALUE: x264_mb_optimize_chroma_dc:nz <- 0
	.loc	0 299 26 is_stmt 1              # x264_src/encoder/macroblock.c:299:26
	movq	%rbx, %rdi
	movq	24(%rsp), %rax                  # 8-byte Reload
	callq	*33192(%rax)
.Ltmp345:
	#DEBUG_VALUE: x264_mb_optimize_chroma_dc:coeff <- $eax
	.loc	0 0 26 is_stmt 0                # x264_src/encoder/macroblock.c:0:26
	movl	$0, 4(%rsp)                     # 4-byte Folded Spill
.Ltmp346:
	.loc	0 299 79                        # x264_src/encoder/macroblock.c:299:79
	testl	%eax, %eax
.Ltmp347:
	.loc	0 299 5                         # x264_src/encoder/macroblock.c:299:5
	js	.LBB3_9
.Ltmp348:
# %bb.3:                                # %for.body.lr.ph
	#DEBUG_VALUE: x264_mb_optimize_chroma_dc:h <- [DW_OP_plus_uconst 24] [$rsp+0]
	#DEBUG_VALUE: x264_mb_optimize_chroma_dc:b_inter <- [DW_OP_LLVM_entry_value 1] $esi
	#DEBUG_VALUE: x264_mb_optimize_chroma_dc:i_qp <- [DW_OP_LLVM_entry_value 1] $edx
	#DEBUG_VALUE: x264_mb_optimize_chroma_dc:dct2x2 <- $rbx
	#DEBUG_VALUE: x264_mb_optimize_chroma_dc:dct2x2_orig <- [DW_OP_LLVM_fragment 0 16] $r14w
	#DEBUG_VALUE: x264_mb_optimize_chroma_dc:dct2x2_orig <- [DW_OP_LLVM_fragment 16 16] $bp
	#DEBUG_VALUE: x264_mb_optimize_chroma_dc:dct2x2_orig <- [DW_OP_LLVM_fragment 32 16] $r15w
	#DEBUG_VALUE: x264_mb_optimize_chroma_dc:dct2x2_orig <- [DW_OP_LLVM_fragment 48 16] $r12w
	#DEBUG_VALUE: x264_mb_optimize_chroma_dc:nz <- 0
	#DEBUG_VALUE: x264_mb_optimize_chroma_dc:coeff <- $eax
	.loc	0 0 5                           # x264_src/encoder/macroblock.c:0:5
	movl	%eax, %ecx
	addq	$2, 16(%rsp)                    # 8-byte Folded Spill
	movswl	%r14w, %eax
.Ltmp349:
	#DEBUG_VALUE: x264_mb_optimize_chroma_dc:coeff <- $ecx
	movl	%eax, 12(%rsp)                  # 4-byte Spill
	movswl	%bp, %eax
	movl	%eax, 8(%rsp)                   # 4-byte Spill
	movswl	%r15w, %edi
	movswl	%r12w, %r8d
	.loc	0 299 5                         # x264_src/encoder/macroblock.c:299:5
	movl	%ecx, %r9d
	movl	$0, 4(%rsp)                     # 4-byte Folded Spill
	jmp	.LBB3_4
.Ltmp350:
	.p2align	4, 0x90
.LBB3_7:                                # %if.then54
                                        #   in Loop: Header=BB3_4 Depth=1
	#DEBUG_VALUE: x264_mb_optimize_chroma_dc:h <- [DW_OP_plus_uconst 24] [$rsp+0]
	#DEBUG_VALUE: x264_mb_optimize_chroma_dc:b_inter <- [DW_OP_LLVM_entry_value 1] $esi
	#DEBUG_VALUE: x264_mb_optimize_chroma_dc:i_qp <- [DW_OP_LLVM_entry_value 1] $edx
	#DEBUG_VALUE: x264_mb_optimize_chroma_dc:dct2x2 <- $rbx
	#DEBUG_VALUE: x264_mb_optimize_chroma_dc:nz <- [DW_OP_plus_uconst 4, DW_OP_deref] $rsp
	#DEBUG_VALUE: x264_mb_optimize_chroma_dc:coeff <- $r9
	#DEBUG_VALUE: sign <- $r10d
	#DEBUG_VALUE: x264_mb_optimize_chroma_dc:nz <- 1
	.loc	0 310 31 is_stmt 1              # x264_src/encoder/macroblock.c:310:31
	addl	32(%rsp), %r10d                 # 4-byte Folded Reload
.Ltmp351:
	subl	%r11d, %r10d
	movw	%r10w, (%rbx,%r9,2)
	movl	$1, 4(%rsp)                     # 4-byte Folded Spill
.Ltmp352:
.LBB3_8:                                # %while.end
                                        #   in Loop: Header=BB3_4 Depth=1
	#DEBUG_VALUE: x264_mb_optimize_chroma_dc:h <- [DW_OP_plus_uconst 24] [$rsp+0]
	#DEBUG_VALUE: x264_mb_optimize_chroma_dc:b_inter <- [DW_OP_LLVM_entry_value 1] $esi
	#DEBUG_VALUE: x264_mb_optimize_chroma_dc:i_qp <- [DW_OP_LLVM_entry_value 1] $edx
	#DEBUG_VALUE: x264_mb_optimize_chroma_dc:dct2x2 <- $rbx
	#DEBUG_VALUE: x264_mb_optimize_chroma_dc:coeff <- $r9
	#DEBUG_VALUE: x264_mb_optimize_chroma_dc:nz <- [DW_OP_plus_uconst 4, DW_OP_deref] $rsp
	.loc	0 299 90                        # x264_src/encoder/macroblock.c:299:90
	leaq	-1(%r9), %rax
.Ltmp353:
	#DEBUG_VALUE: x264_mb_optimize_chroma_dc:coeff <- $rax
	.loc	0 299 79 is_stmt 0              # x264_src/encoder/macroblock.c:299:79
	testq	%r9, %r9
	movq	%rax, %r9
.Ltmp354:
	.loc	0 299 5                         # x264_src/encoder/macroblock.c:299:5
	jle	.LBB3_9
.Ltmp355:
.LBB3_4:                                # %for.body
                                        # =>This Loop Header: Depth=1
                                        #     Child Loop BB3_5 Depth 2
	#DEBUG_VALUE: x264_mb_optimize_chroma_dc:h <- [DW_OP_plus_uconst 24] [$rsp+0]
	#DEBUG_VALUE: x264_mb_optimize_chroma_dc:b_inter <- [DW_OP_LLVM_entry_value 1] $esi
	#DEBUG_VALUE: x264_mb_optimize_chroma_dc:i_qp <- [DW_OP_LLVM_entry_value 1] $edx
	#DEBUG_VALUE: x264_mb_optimize_chroma_dc:dct2x2 <- $rbx
	#DEBUG_VALUE: x264_mb_optimize_chroma_dc:nz <- [DW_OP_plus_uconst 4, DW_OP_deref] $rsp
	#DEBUG_VALUE: x264_mb_optimize_chroma_dc:coeff <- $r9
	.loc	0 301 21 is_stmt 1              # x264_src/encoder/macroblock.c:301:21
	movswl	(%rbx,%r9,2), %eax
.Ltmp356:
	#DEBUG_VALUE: level <- $eax
	.loc	0 302 25                        # x264_src/encoder/macroblock.c:302:25
	movl	%eax, %r10d
	sarl	$31, %r10d
	.loc	0 302 30 is_stmt 0              # x264_src/encoder/macroblock.c:302:30
	orl	$1, %r10d
.Ltmp357:
	#DEBUG_VALUE: sign <- $r10d
	.loc	0 304 9 is_stmt 1               # x264_src/encoder/macroblock.c:304:9
	leal	(%r10,%rax), %ebp
	movq	%rax, 32(%rsp)                  # 8-byte Spill
.Ltmp358:
	#DEBUG_VALUE: level <- [DW_OP_plus_uconst 32, DW_OP_deref] $rsp
                                        # kill: def $eax killed $eax killed $rax
	subl	%r10d, %eax
	negl	%ebp
	movswl	%r10w, %r12d
	xorl	%r11d, %r11d
.Ltmp359:
	.p2align	4, 0x90
.LBB3_5:                                # %while.cond
                                        #   Parent Loop BB3_4 Depth=1
                                        # =>  This Inner Loop Header: Depth=2
	#DEBUG_VALUE: x264_mb_optimize_chroma_dc:h <- [DW_OP_plus_uconst 24] [$rsp+0]
	#DEBUG_VALUE: x264_mb_optimize_chroma_dc:b_inter <- [DW_OP_LLVM_entry_value 1] $esi
	#DEBUG_VALUE: x264_mb_optimize_chroma_dc:i_qp <- [DW_OP_LLVM_entry_value 1] $edx
	#DEBUG_VALUE: x264_mb_optimize_chroma_dc:dct2x2 <- $rbx
	#DEBUG_VALUE: x264_mb_optimize_chroma_dc:nz <- [DW_OP_plus_uconst 4, DW_OP_deref] $rsp
	#DEBUG_VALUE: x264_mb_optimize_chroma_dc:coeff <- $r9
	#DEBUG_VALUE: sign <- $r10d
	#DEBUG_VALUE: level <- [DW_OP_LLVM_arg 0, DW_OP_LLVM_arg 1, DW_OP_div, DW_OP_consts 18446744073709551615, DW_OP_LLVM_arg 1, DW_OP_mul, DW_OP_mul, DW_OP_LLVM_arg 2, DW_OP_plus_uconst 32, DW_OP_deref, DW_OP_LLVM_convert 32 5, DW_OP_plus, DW_OP_stack_value] $r11d, $r10d, $rsp
	addl	%r10d, %r11d
.Ltmp360:
	movl	%ebp, %ecx
	addl	%r11d, %ecx
	je	.LBB3_8
.Ltmp361:
# %bb.6:                                # %while.body
                                        #   in Loop: Header=BB3_5 Depth=2
	#DEBUG_VALUE: x264_mb_optimize_chroma_dc:h <- [DW_OP_plus_uconst 24] [$rsp+0]
	#DEBUG_VALUE: x264_mb_optimize_chroma_dc:b_inter <- [DW_OP_LLVM_entry_value 1] $esi
	#DEBUG_VALUE: x264_mb_optimize_chroma_dc:i_qp <- [DW_OP_LLVM_entry_value 1] $edx
	#DEBUG_VALUE: x264_mb_optimize_chroma_dc:dct2x2 <- $rbx
	#DEBUG_VALUE: x264_mb_optimize_chroma_dc:nz <- [DW_OP_plus_uconst 4, DW_OP_deref] $rsp
	#DEBUG_VALUE: x264_mb_optimize_chroma_dc:coeff <- $r9
	#DEBUG_VALUE: sign <- $r10d
	.loc	0 306 27                        # x264_src/encoder/macroblock.c:306:27
	movw	%ax, (%rbx,%r9,2)
.Ltmp362:
	#DEBUG_VALUE: idct_dequant_round_2x2_dc:dequant_mf <- undef
	#DEBUG_VALUE: idct_dequant_2x2_dconly:dequant_mf <- undef
	#DEBUG_VALUE: idct_dequant_round_2x2_dc:ref <- undef
	#DEBUG_VALUE: idct_dequant_round_2x2_dc:dct <- $rbx
	#DEBUG_VALUE: idct_dequant_round_2x2_dc:i_qp <- undef
	#DEBUG_VALUE: idct_dequant_2x2_dconly:out <- undef
	#DEBUG_VALUE: idct_dequant_2x2_dconly:dct <- $rbx
	#DEBUG_VALUE: idct_dequant_2x2_dconly:i_qp <- undef
	.loc	0 58 5                          # x264_src/encoder/macroblock.c:58:5
	movswl	(%rbx), %r15d
	movswl	2(%rbx), %ecx
	leal	(%rcx,%r15), %r14d
.Ltmp363:
	#DEBUG_VALUE: idct_dequant_2x2_dconly:d0 <- $r14d
	movswl	4(%rbx), %r13d
	movswl	6(%rbx), %edx
.Ltmp364:
	#DEBUG_VALUE: idct_dequant_2x2_dconly:d1 <- undef
	subl	%ecx, %r15d
.Ltmp365:
	#DEBUG_VALUE: idct_dequant_2x2_dconly:d2 <- $r15d
	leal	(%rdx,%r13), %ecx
.Ltmp366:
	#DEBUG_VALUE: idct_dequant_2x2_dconly:d1 <- $ecx
	subl	%edx, %r13d
.Ltmp367:
	#DEBUG_VALUE: idct_dequant_2x2_dconly:d3 <- $r13d
	#DEBUG_VALUE: idct_dequant_2x2_dconly:dmf <- undef
	.loc	0 59 18                         # x264_src/encoder/macroblock.c:59:18
	leal	(%rcx,%r14), %esi
.Ltmp368:
	#DEBUG_VALUE: idct_dequant_round_2x2_dc:out <- [DW_OP_LLVM_fragment 0 16] undef
	.loc	0 60 18                         # x264_src/encoder/macroblock.c:60:18
	subl	%ecx, %r14d
.Ltmp369:
	#DEBUG_VALUE: idct_dequant_round_2x2_dc:out <- [DW_OP_LLVM_fragment 16 16] undef
	.loc	0 61 18                         # x264_src/encoder/macroblock.c:61:18
	leal	(%r15,%r13), %edx
.Ltmp370:
	#DEBUG_VALUE: idct_dequant_round_2x2_dc:out <- [DW_OP_LLVM_fragment 32 16] undef
	.loc	0 62 18                         # x264_src/encoder/macroblock.c:62:18
	subl	%r13d, %r15d
.Ltmp371:
	#DEBUG_VALUE: idct_dequant_round_2x2_dc:out <- [DW_OP_LLVM_fragment 48 16] undef
	.loc	0 0 18 is_stmt 0                # x264_src/encoder/macroblock.c:0:18
	movq	24(%rsp), %rcx                  # 8-byte Reload
.Ltmp372:
	movq	16(%rsp), %r13                  # 8-byte Reload
.Ltmp373:
	.loc	0 307 65 is_stmt 1              # x264_src/encoder/macroblock.c:307:65
	movq	3344(%rcx,%r13,8), %rcx
.Ltmp374:
	#DEBUG_VALUE: idct_dequant_2x2_dconly:dequant_mf <- $rcx
	#DEBUG_VALUE: idct_dequant_round_2x2_dc:dequant_mf <- $rcx
	.loc	0 0 65 is_stmt 0                # x264_src/encoder/macroblock.c:0:65
	movq	40(%rsp), %r13                  # 8-byte Reload
.Ltmp375:
	.loc	0 58 5 is_stmt 1                # x264_src/encoder/macroblock.c:58:5
	movl	(%rcx,%r13), %r13d
	movq	48(%rsp), %rcx                  # 8-byte Reload
.Ltmp376:
                                        # kill: def $cl killed $cl killed $rcx
	shll	%cl, %r13d
.Ltmp377:
	#DEBUG_VALUE: idct_dequant_2x2_dconly:dmf <- $r13d
	.loc	0 59 24                         # x264_src/encoder/macroblock.c:59:24
	shll	$11, %r13d
.Ltmp378:
	.loc	0 269 24                        # x264_src/encoder/macroblock.c:269:24
	imull	%r13d, %esi
	sarl	$16, %esi
	.loc	0 269 30 is_stmt 0              # x264_src/encoder/macroblock.c:269:30
	addl	$32, %esi
	.loc	0 269 21                        # x264_src/encoder/macroblock.c:269:21
	xorl	12(%rsp), %esi                  # 4-byte Folded Reload
	.loc	0 270 24 is_stmt 1              # x264_src/encoder/macroblock.c:270:24
	imull	%r13d, %r14d
	sarl	$16, %r14d
	.loc	0 270 30 is_stmt 0              # x264_src/encoder/macroblock.c:270:30
	addl	$32, %r14d
	.loc	0 270 21                        # x264_src/encoder/macroblock.c:270:21
	xorl	8(%rsp), %r14d                  # 4-byte Folded Reload
	.loc	0 270 11                        # x264_src/encoder/macroblock.c:270:11
	orl	%esi, %r14d
	.loc	0 271 24 is_stmt 1              # x264_src/encoder/macroblock.c:271:24
	imull	%r13d, %edx
	.loc	0 272 24                        # x264_src/encoder/macroblock.c:272:24
	imull	%r15d, %r13d
	.loc	0 271 24                        # x264_src/encoder/macroblock.c:271:24
	sarl	$16, %edx
	.loc	0 271 30 is_stmt 0              # x264_src/encoder/macroblock.c:271:30
	addl	$32, %edx
	.loc	0 271 21                        # x264_src/encoder/macroblock.c:271:21
	xorl	%edi, %edx
	.loc	0 272 24 is_stmt 1              # x264_src/encoder/macroblock.c:272:24
	sarl	$16, %r13d
	.loc	0 272 30 is_stmt 0              # x264_src/encoder/macroblock.c:272:30
	addl	$32, %r13d
	.loc	0 272 21                        # x264_src/encoder/macroblock.c:272:21
	xorl	%r8d, %r13d
	.loc	0 271 11 is_stmt 1              # x264_src/encoder/macroblock.c:271:11
	orl	%edx, %r13d
	.loc	0 272 11                        # x264_src/encoder/macroblock.c:272:11
	orl	%r14d, %r13d
.Ltmp379:
	.loc	0 0 0 is_stmt 0                 # x264_src/encoder/macroblock.c:0:0
	subl	%r12d, %eax
                                        # kill: def $ax killed $ax killed $eax def $eax
.Ltmp380:
	.loc	0 307 17 is_stmt 1              # x264_src/encoder/macroblock.c:307:17
	cmpl	$64, %r13d
.Ltmp381:
	.loc	0 307 17 is_stmt 0              # x264_src/encoder/macroblock.c:307:17
	jb	.LBB3_5
	jmp	.LBB3_7
.Ltmp382:
.LBB3_9:                                # %cleanup
	#DEBUG_VALUE: x264_mb_optimize_chroma_dc:h <- [DW_OP_plus_uconst 24] [$rsp+0]
	#DEBUG_VALUE: x264_mb_optimize_chroma_dc:b_inter <- [DW_OP_LLVM_entry_value 1] $esi
	#DEBUG_VALUE: x264_mb_optimize_chroma_dc:i_qp <- [DW_OP_LLVM_entry_value 1] $edx
	#DEBUG_VALUE: x264_mb_optimize_chroma_dc:dct2x2 <- $rbx
	.loc	0 0 17                          # x264_src/encoder/macroblock.c:0:17
	movl	4(%rsp), %eax                   # 4-byte Reload
	.loc	0 318 1 epilogue_begin is_stmt 1 # x264_src/encoder/macroblock.c:318:1
	addq	$56, %rsp
	.cfi_def_cfa_offset 56
	popq	%rbx
.Ltmp383:
	#DEBUG_VALUE: x264_mb_optimize_chroma_dc:dct2x2 <- [DW_OP_LLVM_entry_value 1] $rcx
	.cfi_def_cfa_offset 48
	popq	%r12
	.cfi_def_cfa_offset 40
	popq	%r13
	.cfi_def_cfa_offset 32
	popq	%r14
	.cfi_def_cfa_offset 24
	popq	%r15
	.cfi_def_cfa_offset 16
	popq	%rbp
	.cfi_def_cfa_offset 8
	retq
.Ltmp384:
.Lfunc_end3:
	.size	x264_mb_optimize_chroma_dc, .Lfunc_end3-x264_mb_optimize_chroma_dc
	.cfi_endproc
                                        # -- End function
	.globl	x264_predict_lossless_8x8_chroma # -- Begin function x264_predict_lossless_8x8_chroma
	.p2align	4, 0x90
	.type	x264_predict_lossless_8x8_chroma,@function
x264_predict_lossless_8x8_chroma:       # @x264_predict_lossless_8x8_chroma
.Lfunc_begin4:
	.loc	0 533 0                         # x264_src/encoder/macroblock.c:533:0
	.cfi_startproc
# %bb.0:                                # %entry
	#DEBUG_VALUE: x264_predict_lossless_8x8_chroma:h <- $rdi
	#DEBUG_VALUE: x264_predict_lossless_8x8_chroma:i_mode <- $esi
	pushq	%r15
	.cfi_def_cfa_offset 16
	pushq	%r14
	.cfi_def_cfa_offset 24
	pushq	%rbx
	.cfi_def_cfa_offset 32
	.cfi_offset %rbx, -32
	.cfi_offset %r14, -24
	.cfi_offset %r15, -16
	.loc	0 534 21 prologue_end           # x264_src/encoder/macroblock.c:534:21
	movq	14680(%rdi), %rax
	.loc	0 534 18 is_stmt 0              # x264_src/encoder/macroblock.c:534:18
	movl	108(%rax), %ebx
	.loc	0 534 48                        # x264_src/encoder/macroblock.c:534:48
	movzbl	16436(%rdi), %ecx
	.loc	0 534 39                        # x264_src/encoder/macroblock.c:534:39
	shll	%cl, %ebx
.Ltmp385:
	#DEBUG_VALUE: x264_predict_lossless_8x8_chroma:stride <- $ebx
	.loc	0 535 9 is_stmt 1               # x264_src/encoder/macroblock.c:535:9
	cmpl	$1, %esi
	je	.LBB4_3
.Ltmp386:
# %bb.1:                                # %entry
	#DEBUG_VALUE: x264_predict_lossless_8x8_chroma:h <- $rdi
	#DEBUG_VALUE: x264_predict_lossless_8x8_chroma:i_mode <- $esi
	#DEBUG_VALUE: x264_predict_lossless_8x8_chroma:stride <- $ebx
	cmpl	$2, %esi
	jne	.LBB4_5
.Ltmp387:
# %bb.2:                                # %if.then
	#DEBUG_VALUE: x264_predict_lossless_8x8_chroma:h <- $rdi
	#DEBUG_VALUE: x264_predict_lossless_8x8_chroma:i_mode <- $esi
	#DEBUG_VALUE: x264_predict_lossless_8x8_chroma:stride <- $ebx
	.loc	0 537 66                        # x264_src/encoder/macroblock.c:537:66
	movq	21376(%rdi), %rdx
	movq	%rdi, %r15
	.loc	0 537 32 is_stmt 0              # x264_src/encoder/macroblock.c:537:32
	movq	21400(%rdi), %rdi
.Ltmp388:
	#DEBUG_VALUE: x264_predict_lossless_8x8_chroma:h <- $r15
	.loc	0 537 91                        # x264_src/encoder/macroblock.c:537:91
	movslq	%ebx, %r14
	subq	%r14, %rdx
	.loc	0 537 9                         # x264_src/encoder/macroblock.c:537:9
	movl	$32, %esi
.Ltmp389:
	#DEBUG_VALUE: x264_predict_lossless_8x8_chroma:i_mode <- [DW_OP_LLVM_entry_value 1] $esi
	movl	%ebx, %ecx
	movl	$8, %r8d
	callq	*32744(%r15)
.Ltmp390:
	.loc	0 538 9 is_stmt 1               # x264_src/encoder/macroblock.c:538:9
	movq	32744(%r15), %rax
	.loc	0 538 66 is_stmt 0              # x264_src/encoder/macroblock.c:538:66
	movq	21384(%r15), %rdx
	.loc	0 538 32                        # x264_src/encoder/macroblock.c:538:32
	movq	21408(%r15), %rdi
	.loc	0 538 91                        # x264_src/encoder/macroblock.c:538:91
	subq	%r14, %rdx
	.loc	0 538 9                         # x264_src/encoder/macroblock.c:538:9
	jmp	.LBB4_4
.Ltmp391:
.LBB4_3:                                # %if.then22
	#DEBUG_VALUE: x264_predict_lossless_8x8_chroma:h <- $rdi
	#DEBUG_VALUE: x264_predict_lossless_8x8_chroma:i_mode <- $esi
	#DEBUG_VALUE: x264_predict_lossless_8x8_chroma:stride <- $ebx
	.loc	0 542 66 is_stmt 1              # x264_src/encoder/macroblock.c:542:66
	movq	21376(%rdi), %rdx
	movq	%rdi, %r14
	.loc	0 542 32 is_stmt 0              # x264_src/encoder/macroblock.c:542:32
	movq	21400(%rdi), %rdi
.Ltmp392:
	#DEBUG_VALUE: x264_predict_lossless_8x8_chroma:h <- $r14
	.loc	0 542 91                        # x264_src/encoder/macroblock.c:542:91
	decq	%rdx
	.loc	0 542 9                         # x264_src/encoder/macroblock.c:542:9
	movl	$32, %esi
.Ltmp393:
	#DEBUG_VALUE: x264_predict_lossless_8x8_chroma:i_mode <- [DW_OP_LLVM_entry_value 1] $esi
	movl	%ebx, %ecx
	movl	$8, %r8d
	callq	*32744(%r14)
.Ltmp394:
	.loc	0 543 9 is_stmt 1               # x264_src/encoder/macroblock.c:543:9
	movq	32744(%r14), %rax
	.loc	0 543 66 is_stmt 0              # x264_src/encoder/macroblock.c:543:66
	movq	21384(%r14), %rdx
	.loc	0 543 32                        # x264_src/encoder/macroblock.c:543:32
	movq	21408(%r14), %rdi
	.loc	0 543 91                        # x264_src/encoder/macroblock.c:543:91
	decq	%rdx
.Ltmp395:
.LBB4_4:                                # %if.then22
	#DEBUG_VALUE: x264_predict_lossless_8x8_chroma:h <- [DW_OP_LLVM_entry_value 1] $rdi
	#DEBUG_VALUE: x264_predict_lossless_8x8_chroma:i_mode <- [DW_OP_LLVM_entry_value 1] $esi
	#DEBUG_VALUE: x264_predict_lossless_8x8_chroma:stride <- $ebx
	.loc	0 0 0                           # x264_src/encoder/macroblock.c:0:0
	movl	$32, %esi
	movl	%ebx, %ecx
	movl	$8, %r8d
	popq	%rbx
.Ltmp396:
	#DEBUG_VALUE: x264_predict_lossless_8x8_chroma:stride <- $ecx
	.cfi_def_cfa_offset 24
	popq	%r14
	.cfi_def_cfa_offset 16
	popq	%r15
	.cfi_def_cfa_offset 8
.Ltmp397:
	jmpq	*%rax                           # TAILCALL
.Ltmp398:
.LBB4_5:                                # %if.else47
	.cfi_def_cfa_offset 32
	#DEBUG_VALUE: x264_predict_lossless_8x8_chroma:h <- $rdi
	#DEBUG_VALUE: x264_predict_lossless_8x8_chroma:i_mode <- $esi
	#DEBUG_VALUE: x264_predict_lossless_8x8_chroma:stride <- $ebx
	.loc	0 547 9 is_stmt 1               # x264_src/encoder/macroblock.c:547:9
	movslq	%esi, %rbx
.Ltmp399:
	.loc	0 0 9 is_stmt 0                 # x264_src/encoder/macroblock.c:0:9
	movq	%rdi, %rax
	.loc	0 547 34                        # x264_src/encoder/macroblock.c:547:34
	movq	21400(%rdi), %rdi
.Ltmp400:
	#DEBUG_VALUE: x264_predict_lossless_8x8_chroma:h <- $rax
	.loc	0 0 34                          # x264_src/encoder/macroblock.c:0:34
	movq	%rax, %r14
	.loc	0 547 9                         # x264_src/encoder/macroblock.c:547:9
	callq	*31304(%rax,%rbx,8)
.Ltmp401:
	#DEBUG_VALUE: x264_predict_lossless_8x8_chroma:h <- $r14
	#DEBUG_VALUE: x264_predict_lossless_8x8_chroma:i_mode <- [DW_OP_LLVM_entry_value 1] $esi
	.loc	0 0 9                           # x264_src/encoder/macroblock.c:0:9
	movq	%r14, %rcx
	.loc	0 548 34 is_stmt 1              # x264_src/encoder/macroblock.c:548:34
	movq	21408(%r14), %rdi
	movq	%rbx, %rax
	.loc	0 548 9 epilogue_begin is_stmt 0 # x264_src/encoder/macroblock.c:548:9
	popq	%rbx
	.cfi_def_cfa_offset 24
	popq	%r14
.Ltmp402:
	#DEBUG_VALUE: x264_predict_lossless_8x8_chroma:h <- $rcx
	.cfi_def_cfa_offset 16
	popq	%r15
	.cfi_def_cfa_offset 8
.Ltmp403:
	jmpq	*31304(%rcx,%rax,8)             # TAILCALL
.Ltmp404:
.Lfunc_end4:
	.size	x264_predict_lossless_8x8_chroma, .Lfunc_end4-x264_predict_lossless_8x8_chroma
	.cfi_endproc
                                        # -- End function
	.globl	x264_predict_lossless_4x4       # -- Begin function x264_predict_lossless_4x4
	.p2align	4, 0x90
	.type	x264_predict_lossless_4x4,@function
x264_predict_lossless_4x4:              # @x264_predict_lossless_4x4
.Lfunc_begin5:
	.loc	0 553 0 is_stmt 1               # x264_src/encoder/macroblock.c:553:0
	.cfi_startproc
# %bb.0:                                # %entry
	#DEBUG_VALUE: x264_predict_lossless_4x4:h <- $rdi
	#DEBUG_VALUE: x264_predict_lossless_4x4:p_dst <- $rsi
	#DEBUG_VALUE: x264_predict_lossless_4x4:idx <- $edx
	#DEBUG_VALUE: x264_predict_lossless_4x4:i_mode <- $ecx
	movl	%ecx, %r8d
	movq	%rdi, %r9
.Ltmp405:
	.loc	0 554 21 prologue_end           # x264_src/encoder/macroblock.c:554:21
	movq	14680(%rdi), %rax
	.loc	0 554 18 is_stmt 0              # x264_src/encoder/macroblock.c:554:18
	movl	104(%rax), %eax
	.loc	0 554 48                        # x264_src/encoder/macroblock.c:554:48
	movzbl	16436(%rdi), %ecx
.Ltmp406:
	#DEBUG_VALUE: x264_predict_lossless_4x4:i_mode <- $r8d
	.loc	0 554 39                        # x264_src/encoder/macroblock.c:554:39
	shll	%cl, %eax
.Ltmp407:
	#DEBUG_VALUE: x264_predict_lossless_4x4:stride <- $eax
	.loc	0 0 39                          # x264_src/encoder/macroblock.c:0:39
	movq	%rsi, %rdi
.Ltmp408:
	#DEBUG_VALUE: x264_predict_lossless_4x4:h <- $r9
	.loc	0 555 50 is_stmt 1              # x264_src/encoder/macroblock.c:555:50
	movslq	%edx, %rcx
	movzbl	block_idx_x(%rcx), %esi
.Ltmp409:
	#DEBUG_VALUE: x264_predict_lossless_4x4:p_dst <- $rdi
	.loc	0 555 66 is_stmt 0              # x264_src/encoder/macroblock.c:555:66
	shlq	$2, %rsi
	.loc	0 555 48                        # x264_src/encoder/macroblock.c:555:48
	addq	21368(%r9), %rsi
	.loc	0 555 71                        # x264_src/encoder/macroblock.c:555:71
	movzbl	block_idx_y(%rcx), %ecx
	.loc	0 555 90                        # x264_src/encoder/macroblock.c:555:90
	imull	%eax, %ecx
	shll	$2, %ecx
	.loc	0 555 69                        # x264_src/encoder/macroblock.c:555:69
	movslq	%ecx, %rdx
.Ltmp410:
	#DEBUG_VALUE: x264_predict_lossless_4x4:idx <- [DW_OP_LLVM_entry_value 1] $edx
	addq	%rsi, %rdx
.Ltmp411:
	#DEBUG_VALUE: x264_predict_lossless_4x4:p_src <- $rdx
	.loc	0 557 9 is_stmt 1               # x264_src/encoder/macroblock.c:557:9
	cmpl	$1, %r8d
	je	.LBB5_3
.Ltmp412:
# %bb.1:                                # %entry
	#DEBUG_VALUE: x264_predict_lossless_4x4:h <- $r9
	#DEBUG_VALUE: x264_predict_lossless_4x4:p_dst <- $rdi
	#DEBUG_VALUE: x264_predict_lossless_4x4:idx <- [DW_OP_LLVM_entry_value 1] $edx
	#DEBUG_VALUE: x264_predict_lossless_4x4:i_mode <- $r8d
	#DEBUG_VALUE: x264_predict_lossless_4x4:stride <- $eax
	#DEBUG_VALUE: x264_predict_lossless_4x4:p_src <- $rdx
	testl	%r8d, %r8d
	jne	.LBB5_5
.Ltmp413:
# %bb.2:                                # %if.then
	#DEBUG_VALUE: x264_predict_lossless_4x4:h <- $r9
	#DEBUG_VALUE: x264_predict_lossless_4x4:p_dst <- $rdi
	#DEBUG_VALUE: x264_predict_lossless_4x4:idx <- [DW_OP_LLVM_entry_value 1] $edx
	#DEBUG_VALUE: x264_predict_lossless_4x4:i_mode <- $r8d
	#DEBUG_VALUE: x264_predict_lossless_4x4:stride <- $eax
	#DEBUG_VALUE: x264_predict_lossless_4x4:p_src <- $rdx
	.loc	0 558 9                         # x264_src/encoder/macroblock.c:558:9
	movq	32768(%r9), %r9
.Ltmp414:
	#DEBUG_VALUE: x264_predict_lossless_4x4:h <- [DW_OP_LLVM_entry_value 1] $rdi
	.loc	0 558 57 is_stmt 0              # x264_src/encoder/macroblock.c:558:57
	movslq	%eax, %rcx
	subq	%rcx, %rdx
.Ltmp415:
	.loc	0 0 0                           # x264_src/encoder/macroblock.c:0:0
	movl	$32, %esi
	movl	%eax, %ecx
	movl	$4, %r8d
.Ltmp416:
	#DEBUG_VALUE: x264_predict_lossless_4x4:i_mode <- [DW_OP_LLVM_entry_value 1] $ecx
	jmpq	*%r9                            # TAILCALL
.Ltmp417:
.LBB5_3:                                # %if.then17
	#DEBUG_VALUE: x264_predict_lossless_4x4:h <- $r9
	#DEBUG_VALUE: x264_predict_lossless_4x4:p_dst <- $rdi
	#DEBUG_VALUE: x264_predict_lossless_4x4:idx <- [DW_OP_LLVM_entry_value 1] $edx
	#DEBUG_VALUE: x264_predict_lossless_4x4:i_mode <- $r8d
	#DEBUG_VALUE: x264_predict_lossless_4x4:stride <- $eax
	#DEBUG_VALUE: x264_predict_lossless_4x4:p_src <- $rdx
	.loc	0 560 9 is_stmt 1               # x264_src/encoder/macroblock.c:560:9
	movq	32768(%r9), %r9
.Ltmp418:
	#DEBUG_VALUE: x264_predict_lossless_4x4:h <- [DW_OP_LLVM_entry_value 1] $rdi
	.loc	0 560 57 is_stmt 0              # x264_src/encoder/macroblock.c:560:57
	decq	%rdx
.Ltmp419:
	.loc	0 0 0                           # x264_src/encoder/macroblock.c:0:0
	movl	$32, %esi
	movl	%eax, %ecx
	movl	$4, %r8d
.Ltmp420:
	#DEBUG_VALUE: x264_predict_lossless_4x4:i_mode <- [DW_OP_LLVM_entry_value 1] $ecx
	jmpq	*%r9                            # TAILCALL
.Ltmp421:
.LBB5_5:                                # %if.else22
	#DEBUG_VALUE: x264_predict_lossless_4x4:h <- $r9
	#DEBUG_VALUE: x264_predict_lossless_4x4:p_dst <- $rdi
	#DEBUG_VALUE: x264_predict_lossless_4x4:idx <- [DW_OP_LLVM_entry_value 1] $edx
	#DEBUG_VALUE: x264_predict_lossless_4x4:i_mode <- $r8d
	#DEBUG_VALUE: x264_predict_lossless_4x4:stride <- $eax
	#DEBUG_VALUE: x264_predict_lossless_4x4:p_src <- $rdx
	.loc	0 562 9 is_stmt 1               # x264_src/encoder/macroblock.c:562:9
	movslq	%r8d, %rax
.Ltmp422:
	jmpq	*31456(%r9,%rax,8)              # TAILCALL
.Ltmp423:
.Lfunc_end5:
	.size	x264_predict_lossless_4x4, .Lfunc_end5-x264_predict_lossless_4x4
	.cfi_endproc
                                        # -- End function
	.globl	x264_predict_lossless_8x8       # -- Begin function x264_predict_lossless_8x8
	.p2align	4, 0x90
	.type	x264_predict_lossless_8x8,@function
x264_predict_lossless_8x8:              # @x264_predict_lossless_8x8
.Lfunc_begin6:
	.loc	0 566 0                         # x264_src/encoder/macroblock.c:566:0
	.cfi_startproc
# %bb.0:                                # %entry
	#DEBUG_VALUE: x264_predict_lossless_8x8:h <- $rdi
	#DEBUG_VALUE: x264_predict_lossless_8x8:p_dst <- $rsi
	#DEBUG_VALUE: x264_predict_lossless_8x8:idx <- $edx
	#DEBUG_VALUE: x264_predict_lossless_8x8:i_mode <- $ecx
	#DEBUG_VALUE: x264_predict_lossless_8x8:edge <- $r8
	movl	%ecx, %r9d
	movq	%rdi, %r10
.Ltmp424:
	.loc	0 567 21 prologue_end           # x264_src/encoder/macroblock.c:567:21
	movq	14680(%rdi), %rax
	.loc	0 567 18 is_stmt 0              # x264_src/encoder/macroblock.c:567:18
	movl	104(%rax), %eax
	.loc	0 567 48                        # x264_src/encoder/macroblock.c:567:48
	movzbl	16436(%rdi), %ecx
.Ltmp425:
	#DEBUG_VALUE: x264_predict_lossless_8x8:i_mode <- $r9d
	.loc	0 567 39                        # x264_src/encoder/macroblock.c:567:39
	shll	%cl, %eax
.Ltmp426:
	#DEBUG_VALUE: x264_predict_lossless_8x8:stride <- $eax
	.loc	0 0 39                          # x264_src/encoder/macroblock.c:0:39
	movq	%rsi, %rdi
.Ltmp427:
	#DEBUG_VALUE: x264_predict_lossless_8x8:h <- $r10
	.loc	0 568 48 is_stmt 1              # x264_src/encoder/macroblock.c:568:48
	movl	%edx, %ecx
	andl	$1, %ecx
	shlq	$3, %rcx
	addq	21368(%r10), %rcx
	.loc	0 568 70 is_stmt 0              # x264_src/encoder/macroblock.c:568:70
	shll	$2, %edx
.Ltmp428:
	#DEBUG_VALUE: x264_predict_lossless_8x8:idx <- [DW_OP_LLVM_entry_value 1] $edx
	andl	$-8, %edx
	.loc	0 568 72                        # x264_src/encoder/macroblock.c:568:72
	imull	%eax, %edx
	.loc	0 568 60                        # x264_src/encoder/macroblock.c:568:60
	movslq	%edx, %rdx
	addq	%rcx, %rdx
.Ltmp429:
	#DEBUG_VALUE: x264_predict_lossless_8x8:p_src <- $rdx
	.loc	0 570 9 is_stmt 1               # x264_src/encoder/macroblock.c:570:9
	cmpl	$1, %r9d
	je	.LBB6_3
.Ltmp430:
# %bb.1:                                # %entry
	#DEBUG_VALUE: x264_predict_lossless_8x8:h <- $r10
	#DEBUG_VALUE: x264_predict_lossless_8x8:p_dst <- $rdi
	#DEBUG_VALUE: x264_predict_lossless_8x8:idx <- [DW_OP_LLVM_entry_value 1] $edx
	#DEBUG_VALUE: x264_predict_lossless_8x8:i_mode <- $r9d
	#DEBUG_VALUE: x264_predict_lossless_8x8:edge <- $r8
	#DEBUG_VALUE: x264_predict_lossless_8x8:stride <- $eax
	#DEBUG_VALUE: x264_predict_lossless_8x8:p_src <- $rdx
	testl	%r9d, %r9d
	jne	.LBB6_5
.Ltmp431:
# %bb.2:                                # %if.then
	#DEBUG_VALUE: x264_predict_lossless_8x8:h <- $r10
	#DEBUG_VALUE: x264_predict_lossless_8x8:p_dst <- $rdi
	#DEBUG_VALUE: x264_predict_lossless_8x8:idx <- [DW_OP_LLVM_entry_value 1] $edx
	#DEBUG_VALUE: x264_predict_lossless_8x8:i_mode <- $r9d
	#DEBUG_VALUE: x264_predict_lossless_8x8:edge <- $r8
	#DEBUG_VALUE: x264_predict_lossless_8x8:stride <- $eax
	#DEBUG_VALUE: x264_predict_lossless_8x8:p_src <- $rdx
	.loc	0 571 9                         # x264_src/encoder/macroblock.c:571:9
	movq	32744(%r10), %r9
.Ltmp432:
	#DEBUG_VALUE: x264_predict_lossless_8x8:i_mode <- [DW_OP_LLVM_entry_value 1] $ecx
	.loc	0 571 57 is_stmt 0              # x264_src/encoder/macroblock.c:571:57
	movslq	%eax, %rcx
	subq	%rcx, %rdx
.Ltmp433:
	.loc	0 0 0                           # x264_src/encoder/macroblock.c:0:0
	movl	$32, %esi
	movl	%eax, %ecx
	movl	$8, %r8d
.Ltmp434:
	#DEBUG_VALUE: x264_predict_lossless_8x8:edge <- [DW_OP_LLVM_entry_value 1] $r8
	jmpq	*%r9                            # TAILCALL
.Ltmp435:
.LBB6_3:                                # %if.then11
	#DEBUG_VALUE: x264_predict_lossless_8x8:h <- $r10
	#DEBUG_VALUE: x264_predict_lossless_8x8:p_dst <- $rdi
	#DEBUG_VALUE: x264_predict_lossless_8x8:idx <- [DW_OP_LLVM_entry_value 1] $edx
	#DEBUG_VALUE: x264_predict_lossless_8x8:i_mode <- $r9d
	#DEBUG_VALUE: x264_predict_lossless_8x8:edge <- $r8
	#DEBUG_VALUE: x264_predict_lossless_8x8:stride <- $eax
	#DEBUG_VALUE: x264_predict_lossless_8x8:p_src <- $rdx
	.loc	0 573 9 is_stmt 1               # x264_src/encoder/macroblock.c:573:9
	movq	32744(%r10), %r9
.Ltmp436:
	#DEBUG_VALUE: x264_predict_lossless_8x8:i_mode <- [DW_OP_LLVM_entry_value 1] $ecx
	.loc	0 573 57 is_stmt 0              # x264_src/encoder/macroblock.c:573:57
	decq	%rdx
.Ltmp437:
	.loc	0 0 0                           # x264_src/encoder/macroblock.c:0:0
	movl	$32, %esi
	movl	%eax, %ecx
	movl	$8, %r8d
.Ltmp438:
	#DEBUG_VALUE: x264_predict_lossless_8x8:edge <- [DW_OP_LLVM_entry_value 1] $r8
	jmpq	*%r9                            # TAILCALL
.Ltmp439:
.LBB6_5:                                # %if.else16
	#DEBUG_VALUE: x264_predict_lossless_8x8:h <- $r10
	#DEBUG_VALUE: x264_predict_lossless_8x8:p_dst <- $rdi
	#DEBUG_VALUE: x264_predict_lossless_8x8:idx <- [DW_OP_LLVM_entry_value 1] $edx
	#DEBUG_VALUE: x264_predict_lossless_8x8:i_mode <- $r9d
	#DEBUG_VALUE: x264_predict_lossless_8x8:edge <- $r8
	#DEBUG_VALUE: x264_predict_lossless_8x8:stride <- $eax
	#DEBUG_VALUE: x264_predict_lossless_8x8:p_src <- $rdx
	.loc	0 575 9 is_stmt 1               # x264_src/encoder/macroblock.c:575:9
	movslq	%r9d, %rax
.Ltmp440:
	movq	31360(%r10,%rax,8), %rax
	movq	%r8, %rsi
.Ltmp441:
	jmpq	*%rax                           # TAILCALL
.Ltmp442:
.Lfunc_end6:
	.size	x264_predict_lossless_8x8, .Lfunc_end6-x264_predict_lossless_8x8
	.cfi_endproc
                                        # -- End function
	.globl	x264_predict_lossless_16x16     # -- Begin function x264_predict_lossless_16x16
	.p2align	4, 0x90
	.type	x264_predict_lossless_16x16,@function
x264_predict_lossless_16x16:            # @x264_predict_lossless_16x16
.Lfunc_begin7:
	.cfi_startproc
# %bb.0:                                # %entry
	#DEBUG_VALUE: x264_predict_lossless_16x16:h <- $rdi
	#DEBUG_VALUE: x264_predict_lossless_16x16:i_mode <- $esi
	.loc	0 580 21 prologue_end           # x264_src/encoder/macroblock.c:580:21
	movq	14680(%rdi), %rax
	.loc	0 580 18 is_stmt 0              # x264_src/encoder/macroblock.c:580:18
	movl	104(%rax), %eax
	.loc	0 580 48                        # x264_src/encoder/macroblock.c:580:48
	movzbl	16436(%rdi), %ecx
	.loc	0 580 39                        # x264_src/encoder/macroblock.c:580:39
	shll	%cl, %eax
.Ltmp443:
	#DEBUG_VALUE: x264_predict_lossless_16x16:stride <- $eax
	.loc	0 581 9 is_stmt 1               # x264_src/encoder/macroblock.c:581:9
	cmpl	$1, %esi
	je	.LBB7_3
.Ltmp444:
# %bb.1:                                # %entry
	#DEBUG_VALUE: x264_predict_lossless_16x16:h <- $rdi
	#DEBUG_VALUE: x264_predict_lossless_16x16:i_mode <- $esi
	#DEBUG_VALUE: x264_predict_lossless_16x16:stride <- $eax
	testl	%esi, %esi
	jne	.LBB7_5
.Ltmp445:
# %bb.2:                                # %if.then
	#DEBUG_VALUE: x264_predict_lossless_16x16:h <- $rdi
	#DEBUG_VALUE: x264_predict_lossless_16x16:i_mode <- $esi
	#DEBUG_VALUE: x264_predict_lossless_16x16:stride <- $eax
	.loc	0 582 9                         # x264_src/encoder/macroblock.c:582:9
	movq	32720(%rdi), %r9
	.loc	0 582 68 is_stmt 0              # x264_src/encoder/macroblock.c:582:68
	movq	21368(%rdi), %rdx
	.loc	0 582 34                        # x264_src/encoder/macroblock.c:582:34
	movq	21392(%rdi), %rdi
.Ltmp446:
	#DEBUG_VALUE: x264_predict_lossless_16x16:h <- [DW_OP_LLVM_entry_value 1] $rdi
	.loc	0 582 93                        # x264_src/encoder/macroblock.c:582:93
	movslq	%eax, %rcx
	subq	%rcx, %rdx
	.loc	0 0 0                           # x264_src/encoder/macroblock.c:0:0
	movl	$32, %esi
.Ltmp447:
	#DEBUG_VALUE: x264_predict_lossless_16x16:i_mode <- [DW_OP_LLVM_entry_value 1] $esi
	movl	%eax, %ecx
	movl	$16, %r8d
.Ltmp448:
	jmpq	*%r9                            # TAILCALL
.Ltmp449:
.LBB7_3:                                # %if.then8
	#DEBUG_VALUE: x264_predict_lossless_16x16:h <- $rdi
	#DEBUG_VALUE: x264_predict_lossless_16x16:i_mode <- $esi
	#DEBUG_VALUE: x264_predict_lossless_16x16:stride <- $eax
	.loc	0 584 15 is_stmt 1              # x264_src/encoder/macroblock.c:584:15
	movq	32776(%rdi), %r9
	.loc	0 584 71 is_stmt 0              # x264_src/encoder/macroblock.c:584:71
	movq	21368(%rdi), %rdx
	.loc	0 584 37                        # x264_src/encoder/macroblock.c:584:37
	movq	21392(%rdi), %rdi
.Ltmp450:
	#DEBUG_VALUE: x264_predict_lossless_16x16:h <- [DW_OP_LLVM_entry_value 1] $rdi
	.loc	0 584 96                        # x264_src/encoder/macroblock.c:584:96
	decq	%rdx
.Ltmp451:
	.loc	0 0 0                           # x264_src/encoder/macroblock.c:0:0
	movl	$32, %esi
.Ltmp452:
	#DEBUG_VALUE: x264_predict_lossless_16x16:i_mode <- [DW_OP_LLVM_entry_value 1] $esi
	movl	%eax, %ecx
	movl	$16, %r8d
.Ltmp453:
	jmpq	*%r9                            # TAILCALL
.Ltmp454:
.LBB7_5:                                # %if.else19
	#DEBUG_VALUE: x264_predict_lossless_16x16:h <- $rdi
	#DEBUG_VALUE: x264_predict_lossless_16x16:i_mode <- $esi
	#DEBUG_VALUE: x264_predict_lossless_16x16:stride <- $eax
	.loc	0 586 9 is_stmt 1               # x264_src/encoder/macroblock.c:586:9
	movslq	%esi, %rcx
	.loc	0 586 35 is_stmt 0              # x264_src/encoder/macroblock.c:586:35
	movq	21392(%rdi), %rax
.Ltmp455:
	.loc	0 0 35                          # x264_src/encoder/macroblock.c:0:35
	movq	%rdi, %rdx
	.loc	0 586 9                         # x264_src/encoder/macroblock.c:586:9
	movq	%rax, %rdi
.Ltmp456:
	#DEBUG_VALUE: x264_predict_lossless_16x16:h <- $rdx
	jmpq	*31248(%rdx,%rcx,8)             # TAILCALL
.Ltmp457:
.Lfunc_end7:
	.size	x264_predict_lossless_16x16, .Lfunc_end7-x264_predict_lossless_16x16
	.cfi_endproc
                                        # -- End function
	.globl	x264_macroblock_encode          # -- Begin function x264_macroblock_encode
	.p2align	4, 0x90
	.type	x264_macroblock_encode,@function
x264_macroblock_encode:                 # @x264_macroblock_encode
.Lfunc_begin8:
	.loc	0 593 0 is_stmt 1               # x264_src/encoder/macroblock.c:593:0
	.cfi_startproc
# %bb.0:                                # %entry
	#DEBUG_VALUE: x264_macroblock_encode:h <- $rdi
	pushq	%rbp
	.cfi_def_cfa_offset 16
	pushq	%r15
	.cfi_def_cfa_offset 24
	pushq	%r14
	.cfi_def_cfa_offset 32
	pushq	%r13
	.cfi_def_cfa_offset 40
	pushq	%r12
	.cfi_def_cfa_offset 48
	pushq	%rbx
	.cfi_def_cfa_offset 56
	subq	$648, %rsp                      # imm = 0x288
	.cfi_def_cfa_offset 704
	.cfi_offset %rbx, -56
	.cfi_offset %r12, -48
	.cfi_offset %r13, -40
	.cfi_offset %r14, -32
	.cfi_offset %r15, -24
	.cfi_offset %rbp, -16
	movq	%rdi, %rbx
.Ltmp458:
	.loc	0 594 22 prologue_end           # x264_src/encoder/macroblock.c:594:22
	movslq	25792(%rdi), %rax
.Ltmp459:
	#DEBUG_VALUE: x264_macroblock_encode:i_qp <- undef
	.loc	0 0 22 is_stmt 0                # x264_src/encoder/macroblock.c:0:22
	movq	%rax, (%rsp)                    # 8-byte Spill
	.loc	0 595 28 is_stmt 1              # x264_src/encoder/macroblock.c:595:28
	movl	16424(%rdi), %eax
.Ltmp460:
	#DEBUG_VALUE: x264_macroblock_encode:b_decimate <- $eax
	#DEBUG_VALUE: x264_macroblock_encode:b_force_no_skip <- 0
	.loc	0 0 28 is_stmt 0                # x264_src/encoder/macroblock.c:0:28
	movl	%eax, 8(%rsp)                   # 4-byte Spill
.Ltmp461:
	#DEBUG_VALUE: x264_macroblock_encode:b_decimate <- [DW_OP_plus_uconst 8, DW_OP_deref] $rsp
	.loc	0 598 22 is_stmt 1              # x264_src/encoder/macroblock.c:598:22
	movl	$0, 17400(%rdi)
	.loc	0 599 48                        # x264_src/encoder/macroblock.c:599:48
	movb	$0, 25116(%rdi)
.Ltmp462:
	.loc	0 601 15                        # x264_src/encoder/macroblock.c:601:15
	movl	17384(%rdi), %eax
	.loc	0 601 22 is_stmt 0              # x264_src/encoder/macroblock.c:601:22
	cmpl	$3, %eax
.Ltmp463:
	.loc	0 601 9                         # x264_src/encoder/macroblock.c:601:9
	jne	.LBB8_1
.Ltmp464:
# %bb.226:                              # %if.then
	#DEBUG_VALUE: x264_macroblock_encode:h <- $rbx
	#DEBUG_VALUE: x264_macroblock_encode:b_decimate <- [DW_OP_plus_uconst 8, DW_OP_deref] $rsp
	#DEBUG_VALUE: x264_macroblock_encode:b_force_no_skip <- 0
	.loc	0 604 68 is_stmt 1              # x264_src/encoder/macroblock.c:604:68
	movq	21344(%rbx), %rdx
	.loc	0 604 34 is_stmt 0              # x264_src/encoder/macroblock.c:604:34
	movq	21392(%rbx), %rdi
	.loc	0 604 9                         # x264_src/encoder/macroblock.c:604:9
	movl	$32, %esi
	movl	$16, %ecx
	movl	$16, %r8d
	callq	*32720(%rbx)
.Ltmp465:
	.loc	0 605 68 is_stmt 1              # x264_src/encoder/macroblock.c:605:68
	movq	21352(%rbx), %rdx
	.loc	0 605 34 is_stmt 0              # x264_src/encoder/macroblock.c:605:34
	movq	21400(%rbx), %rdi
	.loc	0 605 9                         # x264_src/encoder/macroblock.c:605:9
	movl	$32, %esi
	movl	$16, %ecx
	movl	$8, %r8d
	callq	*32744(%rbx)
.Ltmp466:
	.loc	0 606 9 is_stmt 1               # x264_src/encoder/macroblock.c:606:9
	movq	32744(%rbx), %rax
	.loc	0 606 68 is_stmt 0              # x264_src/encoder/macroblock.c:606:68
	movq	21360(%rbx), %rdx
	.loc	0 606 34                        # x264_src/encoder/macroblock.c:606:34
	movq	21408(%rbx), %rdi
	.loc	0 606 9                         # x264_src/encoder/macroblock.c:606:9
	movl	$32, %esi
	movl	$16, %ecx
	movl	$8, %r8d
	.loc	0 606 9 epilogue_begin          # x264_src/encoder/macroblock.c:606:9
	addq	$648, %rsp                      # imm = 0x288
	.cfi_def_cfa_offset 56
	popq	%rbx
.Ltmp467:
	#DEBUG_VALUE: x264_macroblock_encode:h <- [DW_OP_LLVM_entry_value 1] $rdi
	.cfi_def_cfa_offset 48
	popq	%r12
	.cfi_def_cfa_offset 40
	popq	%r13
	.cfi_def_cfa_offset 32
	popq	%r14
	.cfi_def_cfa_offset 24
	popq	%r15
	.cfi_def_cfa_offset 16
	popq	%rbp
	.cfi_def_cfa_offset 8
.Ltmp468:
	jmpq	*%rax                           # TAILCALL
.Ltmp469:
.LBB8_1:                                # %if.end
	.cfi_def_cfa_offset 704
	#DEBUG_VALUE: x264_macroblock_encode:h <- $rbx
	#DEBUG_VALUE: x264_macroblock_encode:b_decimate <- [DW_OP_plus_uconst 8, DW_OP_deref] $rsp
	#DEBUG_VALUE: x264_macroblock_encode:b_force_no_skip <- 0
	.loc	0 0 9                           # x264_src/encoder/macroblock.c:0:9
	movb	$1, %sil
.Ltmp470:
	.loc	0 610 9 is_stmt 1               # x264_src/encoder/macroblock.c:610:9
	cmpl	$0, 7268(%rbx)
	.loc	0 611 9                         # x264_src/encoder/macroblock.c:611:9
	je	.LBB8_9
.Ltmp471:
# %bb.2:                                # %land.lhs.true
	#DEBUG_VALUE: x264_macroblock_encode:h <- $rbx
	#DEBUG_VALUE: x264_macroblock_encode:b_decimate <- [DW_OP_plus_uconst 8, DW_OP_deref] $rsp
	#DEBUG_VALUE: x264_macroblock_encode:b_force_no_skip <- 0
	.loc	0 611 35 is_stmt 0              # x264_src/encoder/macroblock.c:611:35
	movslq	7252(%rbx), %rcx
	movl	16372(%rbx), %edx
	.loc	0 611 46                        # x264_src/encoder/macroblock.c:611:46
	addl	%ecx, %edx
	.loc	0 611 26                        # x264_src/encoder/macroblock.c:611:26
	cmpl	%edx, 16392(%rbx)
	.loc	0 612 9 is_stmt 1               # x264_src/encoder/macroblock.c:612:9
	jne	.LBB8_9
.Ltmp472:
# %bb.3:                                # %land.lhs.true38
	#DEBUG_VALUE: x264_macroblock_encode:h <- $rbx
	#DEBUG_VALUE: x264_macroblock_encode:b_decimate <- [DW_OP_plus_uconst 8, DW_OP_deref] $rsp
	#DEBUG_VALUE: x264_macroblock_encode:b_force_no_skip <- 0
	.loc	0 612 12 is_stmt 0              # x264_src/encoder/macroblock.c:612:12
	movq	16616(%rbx), %rdx
	movzbl	(%rdx,%rcx), %ecx
	cmpl	$18, %ecx
	je	.LBB8_5
.Ltmp473:
# %bb.4:                                # %land.lhs.true38
	#DEBUG_VALUE: x264_macroblock_encode:h <- $rbx
	#DEBUG_VALUE: x264_macroblock_encode:b_decimate <- [DW_OP_plus_uconst 8, DW_OP_deref] $rsp
	#DEBUG_VALUE: x264_macroblock_encode:b_force_no_skip <- 0
	cmpl	$6, %ecx
	jne	.LBB8_9
.Ltmp474:
.LBB8_5:                                # %if.then55
	#DEBUG_VALUE: x264_macroblock_encode:h <- $rbx
	#DEBUG_VALUE: x264_macroblock_encode:b_decimate <- [DW_OP_plus_uconst 8, DW_OP_deref] $rsp
	#DEBUG_VALUE: x264_macroblock_encode:b_force_no_skip <- 0
	#DEBUG_VALUE: x264_macroblock_encode:b_force_no_skip <- 1
	.loc	0 618 13 is_stmt 1              # x264_src/encoder/macroblock.c:618:13
	cmpl	$6, %eax
	je	.LBB8_6
.Ltmp475:
# %bb.7:                                # %if.then55
	#DEBUG_VALUE: x264_macroblock_encode:h <- $rbx
	#DEBUG_VALUE: x264_macroblock_encode:b_decimate <- [DW_OP_plus_uconst 8, DW_OP_deref] $rsp
	#DEBUG_VALUE: x264_macroblock_encode:b_force_no_skip <- 1
	cmpl	$18, %eax
	jne	.LBB8_8
.Ltmp476:
# %bb.83:                               # %if.then77
	#DEBUG_VALUE: x264_macroblock_encode:h <- $rbx
	#DEBUG_VALUE: x264_macroblock_encode:b_decimate <- [DW_OP_plus_uconst 8, DW_OP_deref] $rsp
	#DEBUG_VALUE: x264_macroblock_encode:b_force_no_skip <- 1
	.loc	0 0 13 is_stmt 0                # x264_src/encoder/macroblock.c:0:13
	movl	$7, %eax
	jmp	.LBB8_84
.Ltmp477:
.LBB8_6:
	#DEBUG_VALUE: x264_macroblock_encode:h <- $rbx
	#DEBUG_VALUE: x264_macroblock_encode:b_decimate <- [DW_OP_plus_uconst 8, DW_OP_deref] $rsp
	#DEBUG_VALUE: x264_macroblock_encode:b_force_no_skip <- 1
	movl	$4, %eax
.Ltmp478:
.LBB8_84:                               # %if.else356.sink.split
	#DEBUG_VALUE: x264_macroblock_encode:h <- $rbx
	#DEBUG_VALUE: x264_macroblock_encode:b_decimate <- [DW_OP_plus_uconst 8, DW_OP_deref] $rsp
	#DEBUG_VALUE: x264_macroblock_encode:b_force_no_skip <- 1
	movl	%eax, 17384(%rbx)
	xorl	%esi, %esi
	jmp	.LBB8_85
.Ltmp479:
.LBB8_8:
	#DEBUG_VALUE: x264_macroblock_encode:h <- $rbx
	#DEBUG_VALUE: x264_macroblock_encode:b_decimate <- [DW_OP_plus_uconst 8, DW_OP_deref] $rsp
	#DEBUG_VALUE: x264_macroblock_encode:b_force_no_skip <- 1
	xorl	%esi, %esi
.Ltmp480:
.LBB8_9:                                # %if.end83
	#DEBUG_VALUE: x264_macroblock_encode:h <- $rbx
	#DEBUG_VALUE: x264_macroblock_encode:b_decimate <- [DW_OP_plus_uconst 8, DW_OP_deref] $rsp
	#DEBUG_VALUE: x264_macroblock_encode:b_force_no_skip <- undef
	.loc	0 627 9 is_stmt 1               # x264_src/encoder/macroblock.c:627:9
	cmpl	$18, %eax
	ja	.LBB8_85
.Ltmp481:
# %bb.10:                               # %if.end83
	#DEBUG_VALUE: x264_macroblock_encode:h <- $rbx
	#DEBUG_VALUE: x264_macroblock_encode:b_decimate <- [DW_OP_plus_uconst 8, DW_OP_deref] $rsp
	movl	%eax, %eax
	jmpq	*.LJTI8_0(,%rax,8)
.Ltmp482:
.LBB8_67:                               # %if.then234
	#DEBUG_VALUE: x264_macroblock_encode:h <- $rbx
	#DEBUG_VALUE: x264_macroblock_encode:b_decimate <- [DW_OP_plus_uconst 8, DW_OP_deref] $rsp
	.loc	0 0 9 is_stmt 0                 # x264_src/encoder/macroblock.c:0:9
	movl	%esi, 20(%rsp)                  # 4-byte Spill
.Ltmp483:
	.loc	0 688 31 is_stmt 1              # x264_src/encoder/macroblock.c:688:31
	movl	$0, 17396(%rbx)
.Ltmp484:
	.loc	0 690 13                        # x264_src/encoder/macroblock.c:690:13
	cmpl	$0, 17416(%rbx)
.Ltmp485:
	.loc	0 690 13 is_stmt 0              # x264_src/encoder/macroblock.c:690:13
	je	.LBB8_71
.Ltmp486:
# %bb.68:                               # %if.then240
	#DEBUG_VALUE: x264_macroblock_encode:h <- $rbx
	#DEBUG_VALUE: x264_macroblock_encode:b_decimate <- [DW_OP_plus_uconst 8, DW_OP_deref] $rsp
	.loc	0 692 38 is_stmt 1              # x264_src/encoder/macroblock.c:692:38
	movq	21392(%rbx), %rdi
	.loc	0 692 82 is_stmt 0              # x264_src/encoder/macroblock.c:692:82
	leaq	18688(%rbx), %rdx
	.loc	0 692 13                        # x264_src/encoder/macroblock.c:692:13
	movl	$32, %esi
	movl	$16, %ecx
	movl	$16, %r8d
	callq	*32720(%rbx)
.Ltmp487:
	.loc	0 693 66 is_stmt 1              # x264_src/encoder/macroblock.c:693:66
	movl	20064(%rbx), %eax
	.loc	0 693 64 is_stmt 0              # x264_src/encoder/macroblock.c:693:64
	movl	%eax, 25084(%rbx)
	.loc	0 694 66 is_stmt 1              # x264_src/encoder/macroblock.c:694:66
	movl	20068(%rbx), %eax
	.loc	0 694 64 is_stmt 0              # x264_src/encoder/macroblock.c:694:64
	movl	%eax, 25092(%rbx)
	.loc	0 695 66 is_stmt 1              # x264_src/encoder/macroblock.c:695:66
	movl	20072(%rbx), %eax
	.loc	0 695 64 is_stmt 0              # x264_src/encoder/macroblock.c:695:64
	movl	%eax, 25100(%rbx)
	.loc	0 696 66 is_stmt 1              # x264_src/encoder/macroblock.c:696:66
	movl	20076(%rbx), %eax
	.loc	0 696 64 is_stmt 0              # x264_src/encoder/macroblock.c:696:64
	movl	%eax, 25108(%rbx)
	.loc	0 697 42 is_stmt 1              # x264_src/encoder/macroblock.c:697:42
	movl	20096(%rbx), %eax
	.loc	0 697 30 is_stmt 0              # x264_src/encoder/macroblock.c:697:30
	movl	%eax, 17400(%rbx)
.Ltmp488:
	.loc	0 699 23 is_stmt 1              # x264_src/encoder/macroblock.c:699:23
	movl	17416(%rbx), %eax
	.loc	0 699 36 is_stmt 0              # x264_src/encoder/macroblock.c:699:36
	cmpl	$2, %eax
.Ltmp489:
	.loc	0 699 17                        # x264_src/encoder/macroblock.c:699:17
	jne	.LBB8_70
.Ltmp490:
# %bb.69:                               # %if.then294
	#DEBUG_VALUE: x264_macroblock_encode:h <- $rbx
	#DEBUG_VALUE: x264_macroblock_encode:b_decimate <- [DW_OP_plus_uconst 8, DW_OP_deref] $rsp
	.loc	0 700 46 is_stmt 1              # x264_src/encoder/macroblock.c:700:46
	leaq	15600(%rbx), %rdi
	.loc	0 700 65 is_stmt 0              # x264_src/encoder/macroblock.c:700:65
	leaq	19584(%rbx), %rsi
	.loc	0 700 17                        # x264_src/encoder/macroblock.c:700:17
	movl	$480, %edx                      # imm = 0x1E0
	callq	*32816(%rbx)
.Ltmp491:
	.loc	0 702 28 is_stmt 1              # x264_src/encoder/macroblock.c:702:28
	movl	17416(%rbx), %eax
.Ltmp492:
.LBB8_70:                               # %if.end304
	#DEBUG_VALUE: x264_macroblock_encode:h <- $rbx
	#DEBUG_VALUE: x264_macroblock_encode:b_decimate <- [DW_OP_plus_uconst 8, DW_OP_deref] $rsp
	.loc	0 0 28 is_stmt 0                # x264_src/encoder/macroblock.c:0:28
	movl	$15, %r14d
	.loc	0 702 22                        # x264_src/encoder/macroblock.c:702:22
	testl	%eax, %eax
	jne	.LBB8_72
.Ltmp493:
.LBB8_71:                               # %if.end304.thread
	#DEBUG_VALUE: x264_macroblock_encode:h <- $rbx
	#DEBUG_VALUE: x264_macroblock_encode:b_decimate <- [DW_OP_plus_uconst 8, DW_OP_deref] $rsp
	.loc	0 0 22                          # x264_src/encoder/macroblock.c:0:22
	xorl	%r14d, %r14d
.Ltmp494:
.LBB8_72:
	#DEBUG_VALUE: x264_macroblock_encode:h <- $rbx
	#DEBUG_VALUE: x264_macroblock_encode:b_decimate <- [DW_OP_plus_uconst 8, DW_OP_deref] $rsp
	#DEBUG_VALUE: i <- undef
	movl	$16, %r15d
	.loc	0 702 9                         # x264_src/encoder/macroblock.c:702:9
	subq	%r14, %r15
	leaq	(%rbx,%r14,4), %rax
	addq	$16508, %rax                    # imm = 0x407C
	movq	%rax, 8(%rsp)                   # 8-byte Spill
.Ltmp495:
	#DEBUG_VALUE: x264_macroblock_encode:b_decimate <- undef
	.loc	0 0 9                           # x264_src/encoder/macroblock.c:0:9
	xorl	%r13d, %r13d
	leal	(%r14,%r14), %ebp
	leal	(,%r14,4), %r12d
	jmp	.LBB8_73
.Ltmp496:
	.p2align	4, 0x90
.LBB8_81:                               # %if.else349
                                        #   in Loop: Header=BB8_73 Depth=1
	#DEBUG_VALUE: x264_macroblock_encode:h <- $rbx
	#DEBUG_VALUE: i <- [DW_OP_LLVM_arg 0, DW_OP_LLVM_arg 1, DW_OP_plus, DW_OP_stack_value] $r13, $r14
	#DEBUG_VALUE: p_dst <- $rdi
	callq	*31456(%rbx,%rsi,8)
.Ltmp497:
.LBB8_82:                               # %if.end352
                                        #   in Loop: Header=BB8_73 Depth=1
	#DEBUG_VALUE: x264_macroblock_encode:h <- $rbx
	#DEBUG_VALUE: i <- [DW_OP_LLVM_arg 0, DW_OP_LLVM_arg 1, DW_OP_plus, DW_OP_stack_value] $r13, $r14
	.loc	0 715 13 is_stmt 1              # x264_src/encoder/macroblock.c:715:13
	leal	(%r14,%r13), %esi
	movq	%rbx, %rdi
	movq	(%rsp), %rdx                    # 8-byte Reload
                                        # kill: def $edx killed $edx killed $rdx
	callq	x264_mb_encode_i4x4
.Ltmp498:
	#DEBUG_VALUE: i <- [DW_OP_LLVM_arg 0, DW_OP_consts 1, DW_OP_LLVM_arg 1, DW_OP_plus, DW_OP_plus, DW_OP_stack_value] $r13, $r14
	.loc	0 702 54                        # x264_src/encoder/macroblock.c:702:54
	incq	%r13
.Ltmp499:
	cmpq	%r13, %r15
.Ltmp500:
	.loc	0 702 9 is_stmt 0               # x264_src/encoder/macroblock.c:702:9
	je	.LBB8_204
.Ltmp501:
.LBB8_73:                               # %for.body314
                                        # =>This Inner Loop Header: Depth=1
	#DEBUG_VALUE: x264_macroblock_encode:h <- $rbx
	#DEBUG_VALUE: i <- [DW_OP_LLVM_arg 0, DW_OP_LLVM_arg 1, DW_OP_plus, DW_OP_stack_value] $r13, $r14
	.loc	0 704 52 is_stmt 1              # x264_src/encoder/macroblock.c:704:52
	movzwl	block_idx_xy_fdec(%rbp,%r13,2), %edi
	.loc	0 704 32 is_stmt 0              # x264_src/encoder/macroblock.c:704:32
	addq	21392(%rbx), %rdi
.Ltmp502:
	#DEBUG_VALUE: p_dst <- $rdi
	.loc	0 705 62 is_stmt 1              # x264_src/encoder/macroblock.c:705:62
	movslq	x264_scan8(%r12,%r13,4), %rax
	.loc	0 705 31 is_stmt 0              # x264_src/encoder/macroblock.c:705:31
	movsbq	25024(%rbx,%rax), %rsi
.Ltmp503:
	#DEBUG_VALUE: i_mode <- undef
	.loc	0 0 31                          # x264_src/encoder/macroblock.c:0:31
	movq	8(%rsp), %rax                   # 8-byte Reload
.Ltmp504:
	.loc	0 707 18 is_stmt 1              # x264_src/encoder/macroblock.c:707:18
	movl	(%rax,%r13,4), %eax
	.loc	0 707 40 is_stmt 0              # x264_src/encoder/macroblock.c:707:40
	andl	$6, %eax
	.loc	0 707 64                        # x264_src/encoder/macroblock.c:707:64
	cmpl	$2, %eax
.Ltmp505:
	.loc	0 707 17                        # x264_src/encoder/macroblock.c:707:17
	jne	.LBB8_75
.Ltmp506:
# %bb.74:                               # %if.then339
                                        #   in Loop: Header=BB8_73 Depth=1
	#DEBUG_VALUE: x264_macroblock_encode:h <- $rbx
	#DEBUG_VALUE: i <- [DW_OP_LLVM_arg 0, DW_OP_LLVM_arg 1, DW_OP_plus, DW_OP_stack_value] $r13, $r14
	#DEBUG_VALUE: p_dst <- $rdi
	.loc	0 709 48 is_stmt 1              # x264_src/encoder/macroblock.c:709:48
	movzbl	-29(%rdi), %eax
	.loc	0 709 69 is_stmt 0              # x264_src/encoder/macroblock.c:709:69
	imull	$16843009, %eax, %eax           # imm = 0x1010101
	.loc	0 709 46                        # x264_src/encoder/macroblock.c:709:46
	movl	%eax, -28(%rdi)
.Ltmp507:
.LBB8_75:                               # %if.end344
                                        #   in Loop: Header=BB8_73 Depth=1
	#DEBUG_VALUE: x264_macroblock_encode:h <- $rbx
	#DEBUG_VALUE: i <- [DW_OP_LLVM_arg 0, DW_OP_LLVM_arg 1, DW_OP_plus, DW_OP_stack_value] $r13, $r14
	#DEBUG_VALUE: p_dst <- $rdi
	.loc	0 711 17 is_stmt 1              # x264_src/encoder/macroblock.c:711:17
	cmpl	$0, 25812(%rbx)
.Ltmp508:
	.loc	0 711 17 is_stmt 0              # x264_src/encoder/macroblock.c:711:17
	je	.LBB8_81
.Ltmp509:
# %bb.76:                               # %if.then348
                                        #   in Loop: Header=BB8_73 Depth=1
	#DEBUG_VALUE: x264_macroblock_encode:h <- $rbx
	#DEBUG_VALUE: i <- [DW_OP_LLVM_arg 0, DW_OP_LLVM_arg 1, DW_OP_plus, DW_OP_stack_value] $r13, $r14
	#DEBUG_VALUE: p_dst <- $rdi
	#DEBUG_VALUE: x264_predict_lossless_4x4:h <- $rbx
	#DEBUG_VALUE: x264_predict_lossless_4x4:p_dst <- $rdi
	#DEBUG_VALUE: x264_predict_lossless_4x4:idx <- [DW_OP_LLVM_arg 0, DW_OP_LLVM_arg 1, DW_OP_plus, DW_OP_stack_value] $r13, $r14
	.loc	0 554 21 is_stmt 1              # x264_src/encoder/macroblock.c:554:21
	movq	14680(%rbx), %rax
	.loc	0 554 18 is_stmt 0              # x264_src/encoder/macroblock.c:554:18
	movl	104(%rax), %eax
	.loc	0 554 48                        # x264_src/encoder/macroblock.c:554:48
	movzbl	16436(%rbx), %ecx
	.loc	0 554 39                        # x264_src/encoder/macroblock.c:554:39
	shll	%cl, %eax
.Ltmp510:
	#DEBUG_VALUE: x264_predict_lossless_4x4:stride <- $eax
	.loc	0 555 50 is_stmt 1              # x264_src/encoder/macroblock.c:555:50
	movzbl	block_idx_x(%r14,%r13), %ecx
	.loc	0 555 66 is_stmt 0              # x264_src/encoder/macroblock.c:555:66
	shlq	$2, %rcx
	.loc	0 555 48                        # x264_src/encoder/macroblock.c:555:48
	addq	21368(%rbx), %rcx
	.loc	0 555 71                        # x264_src/encoder/macroblock.c:555:71
	movzbl	block_idx_y(%r14,%r13), %edx
	.loc	0 555 90                        # x264_src/encoder/macroblock.c:555:90
	imull	%eax, %edx
	shll	$2, %edx
	.loc	0 555 69                        # x264_src/encoder/macroblock.c:555:69
	movslq	%edx, %rdx
	addq	%rcx, %rdx
.Ltmp511:
	#DEBUG_VALUE: x264_predict_lossless_4x4:p_src <- $rdx
	.loc	0 557 9 is_stmt 1               # x264_src/encoder/macroblock.c:557:9
	cmpb	$1, %sil
.Ltmp512:
	#DEBUG_VALUE: x264_predict_lossless_4x4:i_mode <- [DW_OP_LLVM_convert 8 5, DW_OP_LLVM_convert 32 5, DW_OP_stack_value] undef
	je	.LBB8_79
.Ltmp513:
# %bb.77:                               # %if.then348
                                        #   in Loop: Header=BB8_73 Depth=1
	#DEBUG_VALUE: x264_macroblock_encode:h <- $rbx
	#DEBUG_VALUE: i <- [DW_OP_LLVM_arg 0, DW_OP_LLVM_arg 1, DW_OP_plus, DW_OP_stack_value] $r13, $r14
	#DEBUG_VALUE: p_dst <- $rdi
	#DEBUG_VALUE: x264_predict_lossless_4x4:h <- $rbx
	#DEBUG_VALUE: x264_predict_lossless_4x4:p_dst <- $rdi
	#DEBUG_VALUE: x264_predict_lossless_4x4:idx <- [DW_OP_LLVM_arg 0, DW_OP_LLVM_arg 1, DW_OP_plus, DW_OP_stack_value] $r13, $r14
	#DEBUG_VALUE: x264_predict_lossless_4x4:stride <- $eax
	#DEBUG_VALUE: x264_predict_lossless_4x4:p_src <- $rdx
	movzbl	%sil, %ecx
	testl	%ecx, %ecx
	jne	.LBB8_81
.Ltmp514:
# %bb.78:                               # %if.then.i1413
                                        #   in Loop: Header=BB8_73 Depth=1
	#DEBUG_VALUE: x264_macroblock_encode:h <- $rbx
	#DEBUG_VALUE: i <- [DW_OP_LLVM_arg 0, DW_OP_LLVM_arg 1, DW_OP_plus, DW_OP_stack_value] $r13, $r14
	#DEBUG_VALUE: p_dst <- $rdi
	#DEBUG_VALUE: x264_predict_lossless_4x4:h <- $rbx
	#DEBUG_VALUE: x264_predict_lossless_4x4:p_dst <- $rdi
	#DEBUG_VALUE: x264_predict_lossless_4x4:idx <- [DW_OP_LLVM_arg 0, DW_OP_LLVM_arg 1, DW_OP_plus, DW_OP_stack_value] $r13, $r14
	#DEBUG_VALUE: x264_predict_lossless_4x4:stride <- $eax
	#DEBUG_VALUE: x264_predict_lossless_4x4:p_src <- $rdx
	.loc	0 558 57                        # x264_src/encoder/macroblock.c:558:57
	movslq	%eax, %rcx
	subq	%rcx, %rdx
.Ltmp515:
	.loc	0 558 9 is_stmt 0               # x264_src/encoder/macroblock.c:558:9
	jmp	.LBB8_80
.Ltmp516:
	.p2align	4, 0x90
.LBB8_79:                               # %if.then17.i
                                        #   in Loop: Header=BB8_73 Depth=1
	#DEBUG_VALUE: x264_macroblock_encode:h <- $rbx
	#DEBUG_VALUE: i <- [DW_OP_LLVM_arg 0, DW_OP_LLVM_arg 1, DW_OP_plus, DW_OP_stack_value] $r13, $r14
	#DEBUG_VALUE: p_dst <- $rdi
	#DEBUG_VALUE: x264_predict_lossless_4x4:h <- $rbx
	#DEBUG_VALUE: x264_predict_lossless_4x4:p_dst <- $rdi
	#DEBUG_VALUE: x264_predict_lossless_4x4:idx <- [DW_OP_LLVM_arg 0, DW_OP_LLVM_arg 1, DW_OP_plus, DW_OP_stack_value] $r13, $r14
	#DEBUG_VALUE: x264_predict_lossless_4x4:stride <- $eax
	#DEBUG_VALUE: x264_predict_lossless_4x4:p_src <- $rdx
	.loc	0 560 57 is_stmt 1              # x264_src/encoder/macroblock.c:560:57
	decq	%rdx
.Ltmp517:
.LBB8_80:                               # %if.end352
                                        #   in Loop: Header=BB8_73 Depth=1
	#DEBUG_VALUE: x264_macroblock_encode:h <- $rbx
	#DEBUG_VALUE: i <- [DW_OP_LLVM_arg 0, DW_OP_LLVM_arg 1, DW_OP_plus, DW_OP_stack_value] $r13, $r14
	#DEBUG_VALUE: p_dst <- $rdi
	#DEBUG_VALUE: x264_predict_lossless_4x4:h <- $rbx
	#DEBUG_VALUE: x264_predict_lossless_4x4:p_dst <- $rdi
	#DEBUG_VALUE: x264_predict_lossless_4x4:idx <- [DW_OP_LLVM_arg 0, DW_OP_LLVM_arg 1, DW_OP_plus, DW_OP_stack_value] $r13, $r14
	#DEBUG_VALUE: x264_predict_lossless_4x4:stride <- $eax
	.loc	0 0 0 is_stmt 0                 # x264_src/encoder/macroblock.c:0:0
	movl	$32, %esi
	movl	%eax, %ecx
	movl	$4, %r8d
	callq	*32768(%rbx)
.Ltmp518:
	.loc	0 560 9                         # x264_src/encoder/macroblock.c:560:9
	jmp	.LBB8_82
.Ltmp519:
.LBB8_85:                               # %if.else356
	#DEBUG_VALUE: x264_macroblock_encode:h <- $rbx
	#DEBUG_VALUE: x264_macroblock_encode:b_decimate <- [DW_OP_plus_uconst 8, DW_OP_deref] $rsp
	#DEBUG_VALUE: i_decimate_mb <- 0
	.loc	0 0 9                           # x264_src/encoder/macroblock.c:0:9
	movl	%esi, 20(%rsp)                  # 4-byte Spill
.Ltmp520:
	.loc	0 723 14 is_stmt 1              # x264_src/encoder/macroblock.c:723:14
	cmpl	$0, 17420(%rbx)
.Ltmp521:
	.loc	0 723 13 is_stmt 0              # x264_src/encoder/macroblock.c:723:13
	je	.LBB8_86
.Ltmp522:
# %bb.87:                               # %if.end361
	#DEBUG_VALUE: x264_macroblock_encode:h <- $rbx
	#DEBUG_VALUE: x264_macroblock_encode:b_decimate <- [DW_OP_plus_uconst 8, DW_OP_deref] $rsp
	#DEBUG_VALUE: i_decimate_mb <- 0
	.loc	0 726 13 is_stmt 1              # x264_src/encoder/macroblock.c:726:13
	cmpl	$0, 25812(%rbx)
	.loc	0 0 0 is_stmt 0                 # x264_src/encoder/macroblock.c:0:0
	movl	17396(%rbx), %eax
.Ltmp523:
	.loc	0 726 13                        # x264_src/encoder/macroblock.c:726:13
	je	.LBB8_93
.Ltmp524:
.LBB8_88:                               # %if.then365
	#DEBUG_VALUE: x264_macroblock_encode:h <- $rbx
	#DEBUG_VALUE: x264_macroblock_encode:b_decimate <- [DW_OP_plus_uconst 8, DW_OP_deref] $rsp
	#DEBUG_VALUE: i_decimate_mb <- 0
	.loc	0 0 0                           # x264_src/encoder/macroblock.c:0:0
	testl	%eax, %eax
.Ltmp525:
	.loc	0 728 17 is_stmt 1              # x264_src/encoder/macroblock.c:728:17
	je	.LBB8_90
.Ltmp526:
# %bb.89:                               # %for.cond370.preheader
	#DEBUG_VALUE: x264_macroblock_encode:h <- $rbx
	#DEBUG_VALUE: x264_macroblock_encode:b_decimate <- [DW_OP_plus_uconst 8, DW_OP_deref] $rsp
	#DEBUG_VALUE: i_decimate_mb <- 0
	.loc	0 0 17 is_stmt 0                # x264_src/encoder/macroblock.c:0:17
	leaq	15088(%rbx), %rdi
.Ltmp527:
	#DEBUG_VALUE: i8x8 <- 0
	#DEBUG_VALUE: x <- 0
	#DEBUG_VALUE: y <- 0
	.loc	0 734 41 is_stmt 1              # x264_src/encoder/macroblock.c:734:41
	movq	21344(%rbx), %rsi
	.loc	0 735 41                        # x264_src/encoder/macroblock.c:735:41
	movq	21392(%rbx), %rdx
	.loc	0 733 26                        # x264_src/encoder/macroblock.c:733:26
	callq	*33048(%rbx)
.Ltmp528:
	#DEBUG_VALUE: x264_macroblock_encode:nz <- $eax
	.loc	0 736 21                        # x264_src/encoder/macroblock.c:736:21
	movl	%eax, %ecx
	shll	$8, %ecx
	addl	%eax, %ecx
	movw	%cx, 25084(%rbx)
	movw	%cx, 25092(%rbx)
.Ltmp529:
	.loc	0 737 38                        # x264_src/encoder/macroblock.c:737:38
	orl	%eax, 17400(%rbx)
.Ltmp530:
	#DEBUG_VALUE: i8x8 <- 1
	#DEBUG_VALUE: x <- 8
	.loc	0 733 46                        # x264_src/encoder/macroblock.c:733:46
	leaq	15216(%rbx), %rdi
	.loc	0 734 41                        # x264_src/encoder/macroblock.c:734:41
	movq	21344(%rbx), %rsi
	.loc	0 735 41                        # x264_src/encoder/macroblock.c:735:41
	movq	21392(%rbx), %rdx
	.loc	0 734 60                        # x264_src/encoder/macroblock.c:734:60
	addq	$8, %rsi
	.loc	0 735 60                        # x264_src/encoder/macroblock.c:735:60
	addq	$8, %rdx
	.loc	0 733 26                        # x264_src/encoder/macroblock.c:733:26
	callq	*33048(%rbx)
.Ltmp531:
	#DEBUG_VALUE: x264_macroblock_encode:nz <- $eax
	.loc	0 736 21                        # x264_src/encoder/macroblock.c:736:21
	movl	%eax, %ecx
	shll	$8, %ecx
	addl	%eax, %ecx
	movw	%cx, 25086(%rbx)
	movw	%cx, 25094(%rbx)
.Ltmp532:
	.loc	0 737 44                        # x264_src/encoder/macroblock.c:737:44
	addl	%eax, %eax
.Ltmp533:
	.loc	0 737 38 is_stmt 0              # x264_src/encoder/macroblock.c:737:38
	orl	%eax, 17400(%rbx)
.Ltmp534:
	#DEBUG_VALUE: i8x8 <- 2
	#DEBUG_VALUE: x <- 0
	#DEBUG_VALUE: y <- 8
	.loc	0 733 46 is_stmt 1              # x264_src/encoder/macroblock.c:733:46
	leaq	15344(%rbx), %rdi
	.loc	0 734 41                        # x264_src/encoder/macroblock.c:734:41
	movq	21344(%rbx), %rsi
	.loc	0 734 62 is_stmt 0              # x264_src/encoder/macroblock.c:734:62
	subq	$-128, %rsi
	movl	$256, %edx                      # imm = 0x100
	.loc	0 735 62 is_stmt 1              # x264_src/encoder/macroblock.c:735:62
	addq	21392(%rbx), %rdx
	.loc	0 733 26                        # x264_src/encoder/macroblock.c:733:26
	callq	*33048(%rbx)
.Ltmp535:
	#DEBUG_VALUE: x264_macroblock_encode:nz <- $eax
	.loc	0 736 21                        # x264_src/encoder/macroblock.c:736:21
	movl	%eax, %ecx
	shll	$8, %ecx
	addl	%eax, %ecx
	movw	%cx, 25100(%rbx)
	movw	%cx, 25108(%rbx)
.Ltmp536:
	.loc	0 737 44                        # x264_src/encoder/macroblock.c:737:44
	shll	$2, %eax
.Ltmp537:
	.loc	0 737 38 is_stmt 0              # x264_src/encoder/macroblock.c:737:38
	orl	%eax, 17400(%rbx)
.Ltmp538:
	#DEBUG_VALUE: i8x8 <- 3
	#DEBUG_VALUE: x <- 8
	.loc	0 0 38                          # x264_src/encoder/macroblock.c:0:38
	movl	$136, %esi
	.loc	0 734 62 is_stmt 1              # x264_src/encoder/macroblock.c:734:62
	addq	21344(%rbx), %rsi
	.loc	0 733 46                        # x264_src/encoder/macroblock.c:733:46
	leaq	15472(%rbx), %rdi
	movl	$264, %edx                      # imm = 0x108
	.loc	0 735 62                        # x264_src/encoder/macroblock.c:735:62
	addq	21392(%rbx), %rdx
	.loc	0 733 26                        # x264_src/encoder/macroblock.c:733:26
	callq	*33048(%rbx)
.Ltmp539:
	#DEBUG_VALUE: x264_macroblock_encode:nz <- $eax
	.loc	0 736 21                        # x264_src/encoder/macroblock.c:736:21
	movl	%eax, %ecx
	shll	$8, %ecx
	addl	%eax, %ecx
	movw	%cx, 25102(%rbx)
	movw	%cx, 25110(%rbx)
.Ltmp540:
	.loc	0 737 44                        # x264_src/encoder/macroblock.c:737:44
	shll	$3, %eax
.Ltmp541:
	.loc	0 737 38 is_stmt 0              # x264_src/encoder/macroblock.c:737:38
	orl	%eax, 17400(%rbx)
.Ltmp542:
	#DEBUG_VALUE: i8x8 <- 4
	.loc	0 862 9 is_stmt 1               # x264_src/encoder/macroblock.c:862:9
	jmp	.LBB8_204
.Ltmp543:
.LBB8_22:                               # %if.then104
	#DEBUG_VALUE: x264_macroblock_encode:h <- $rbx
	#DEBUG_VALUE: x264_macroblock_encode:b_decimate <- [DW_OP_plus_uconst 8, DW_OP_deref] $rsp
	.loc	0 644 34                        # x264_src/encoder/macroblock.c:644:34
	movslq	17408(%rbx), %rdx
.Ltmp544:
	#DEBUG_VALUE: i_mode <- undef
	.loc	0 645 31                        # x264_src/encoder/macroblock.c:645:31
	movl	$0, 17396(%rbx)
.Ltmp545:
	.loc	0 647 13                        # x264_src/encoder/macroblock.c:647:13
	cmpl	$0, 25812(%rbx)
	movl	%esi, 20(%rsp)                  # 4-byte Spill
.Ltmp546:
	.loc	0 647 13 is_stmt 0              # x264_src/encoder/macroblock.c:647:13
	je	.LBB8_27
.Ltmp547:
# %bb.23:                               # %if.then109
	#DEBUG_VALUE: x264_macroblock_encode:h <- $rbx
	#DEBUG_VALUE: x264_macroblock_encode:b_decimate <- [DW_OP_plus_uconst 8, DW_OP_deref] $rsp
	#DEBUG_VALUE: x264_predict_lossless_16x16:h <- $rbx
	.loc	0 580 21 is_stmt 1              # x264_src/encoder/macroblock.c:580:21
	movq	14680(%rbx), %rax
	.loc	0 580 18 is_stmt 0              # x264_src/encoder/macroblock.c:580:18
	movl	104(%rax), %eax
	.loc	0 580 48                        # x264_src/encoder/macroblock.c:580:48
	movzbl	16436(%rbx), %ecx
	.loc	0 580 39                        # x264_src/encoder/macroblock.c:580:39
	shll	%cl, %eax
.Ltmp548:
	#DEBUG_VALUE: x264_predict_lossless_16x16:stride <- $eax
	.loc	0 581 9 is_stmt 1               # x264_src/encoder/macroblock.c:581:9
	cmpl	$1, %edx
.Ltmp549:
	#DEBUG_VALUE: x264_predict_lossless_16x16:i_mode <- undef
	je	.LBB8_26
.Ltmp550:
# %bb.24:                               # %if.then109
	#DEBUG_VALUE: x264_macroblock_encode:h <- $rbx
	#DEBUG_VALUE: x264_macroblock_encode:b_decimate <- [DW_OP_plus_uconst 8, DW_OP_deref] $rsp
	#DEBUG_VALUE: x264_predict_lossless_16x16:h <- $rbx
	#DEBUG_VALUE: x264_predict_lossless_16x16:stride <- $eax
	testl	%edx, %edx
	jne	.LBB8_27
.Ltmp551:
# %bb.25:                               # %if.then.i1375
	#DEBUG_VALUE: x264_macroblock_encode:h <- $rbx
	#DEBUG_VALUE: x264_macroblock_encode:b_decimate <- [DW_OP_plus_uconst 8, DW_OP_deref] $rsp
	#DEBUG_VALUE: x264_predict_lossless_16x16:h <- $rbx
	#DEBUG_VALUE: x264_predict_lossless_16x16:stride <- $eax
	.loc	0 582 68                        # x264_src/encoder/macroblock.c:582:68
	movq	21368(%rbx), %rdx
	.loc	0 582 34 is_stmt 0              # x264_src/encoder/macroblock.c:582:34
	movq	21392(%rbx), %rdi
	.loc	0 582 93                        # x264_src/encoder/macroblock.c:582:93
	movslq	%eax, %rcx
	subq	%rcx, %rdx
	.loc	0 582 9                         # x264_src/encoder/macroblock.c:582:9
	movl	$32, %esi
	movl	%eax, %ecx
	movl	$16, %r8d
	callq	*32720(%rbx)
.Ltmp552:
	#DEBUG_VALUE: x264_mb_encode_i16x16:dct_dc4x4 <- [DW_OP_plus_uconst 64, DW_OP_deref] $rsp
	#DEBUG_VALUE: x264_mb_encode_i16x16:h <- $rbx
	.loc	0 186 23 is_stmt 1              # x264_src/encoder/macroblock.c:186:23
	movq	21344(%rbx), %r12
.Ltmp553:
	#DEBUG_VALUE: x264_mb_encode_i16x16:p_src <- undef
	.loc	0 187 23                        # x264_src/encoder/macroblock.c:187:23
	movq	21392(%rbx), %r13
.Ltmp554:
	#DEBUG_VALUE: x264_mb_encode_i16x16:p_dst <- undef
	#DEBUG_VALUE: x264_mb_encode_i16x16:decimate_score <- undef
	.loc	0 195 9                         # x264_src/encoder/macroblock.c:195:9
	cmpl	$0, 25812(%rbx)
.Ltmp555:
	#DEBUG_VALUE: x264_mb_encode_i16x16:i_qp <- undef
	.loc	0 195 9 is_stmt 0               # x264_src/encoder/macroblock.c:195:9
	jne	.LBB8_29
	jmp	.LBB8_32
.Ltmp556:
.LBB8_52:                               # %if.then123
	#DEBUG_VALUE: x264_macroblock_encode:h <- $rbx
	#DEBUG_VALUE: x264_macroblock_encode:b_decimate <- [DW_OP_plus_uconst 8, DW_OP_deref] $rsp
	.loc	0 0 9                           # x264_src/encoder/macroblock.c:0:9
	movl	%esi, 20(%rsp)                  # 4-byte Spill
.Ltmp557:
	.loc	0 658 31 is_stmt 1              # x264_src/encoder/macroblock.c:658:31
	movl	$1, 17396(%rbx)
.Ltmp558:
	.loc	0 660 13                        # x264_src/encoder/macroblock.c:660:13
	cmpl	$0, 17416(%rbx)
.Ltmp559:
	.loc	0 660 13 is_stmt 0              # x264_src/encoder/macroblock.c:660:13
	je	.LBB8_56
.Ltmp560:
# %bb.53:                               # %if.then128
	#DEBUG_VALUE: x264_macroblock_encode:h <- $rbx
	#DEBUG_VALUE: x264_macroblock_encode:b_decimate <- [DW_OP_plus_uconst 8, DW_OP_deref] $rsp
	.loc	0 662 38 is_stmt 1              # x264_src/encoder/macroblock.c:662:38
	movq	21392(%rbx), %rdi
	.loc	0 662 82 is_stmt 0              # x264_src/encoder/macroblock.c:662:82
	leaq	18944(%rbx), %rdx
	.loc	0 662 13                        # x264_src/encoder/macroblock.c:662:13
	movl	$32, %esi
	movl	$16, %ecx
	movl	$16, %r8d
	callq	*32720(%rbx)
.Ltmp561:
	.loc	0 663 66 is_stmt 1              # x264_src/encoder/macroblock.c:663:66
	movl	20080(%rbx), %eax
	.loc	0 663 64 is_stmt 0              # x264_src/encoder/macroblock.c:663:64
	movl	%eax, 25084(%rbx)
	.loc	0 664 66 is_stmt 1              # x264_src/encoder/macroblock.c:664:66
	movl	20084(%rbx), %eax
	.loc	0 664 64 is_stmt 0              # x264_src/encoder/macroblock.c:664:64
	movl	%eax, 25092(%rbx)
	.loc	0 665 66 is_stmt 1              # x264_src/encoder/macroblock.c:665:66
	movl	20088(%rbx), %eax
	.loc	0 665 64 is_stmt 0              # x264_src/encoder/macroblock.c:665:64
	movl	%eax, 25100(%rbx)
	.loc	0 666 66 is_stmt 1              # x264_src/encoder/macroblock.c:666:66
	movl	20092(%rbx), %eax
	.loc	0 666 64 is_stmt 0              # x264_src/encoder/macroblock.c:666:64
	movl	%eax, 25108(%rbx)
	.loc	0 667 42 is_stmt 1              # x264_src/encoder/macroblock.c:667:42
	movl	20100(%rbx), %eax
	.loc	0 667 30 is_stmt 0              # x264_src/encoder/macroblock.c:667:30
	movl	%eax, 17400(%rbx)
.Ltmp562:
	.loc	0 669 23 is_stmt 1              # x264_src/encoder/macroblock.c:669:23
	movl	17416(%rbx), %eax
	.loc	0 669 36 is_stmt 0              # x264_src/encoder/macroblock.c:669:36
	cmpl	$2, %eax
.Ltmp563:
	.loc	0 669 17                        # x264_src/encoder/macroblock.c:669:17
	jne	.LBB8_55
.Ltmp564:
# %bb.54:                               # %if.then181
	#DEBUG_VALUE: x264_macroblock_encode:h <- $rbx
	#DEBUG_VALUE: x264_macroblock_encode:b_decimate <- [DW_OP_plus_uconst 8, DW_OP_deref] $rsp
	.loc	0 670 46 is_stmt 1              # x264_src/encoder/macroblock.c:670:46
	leaq	15088(%rbx), %rdi
	.loc	0 670 65 is_stmt 0              # x264_src/encoder/macroblock.c:670:65
	leaq	19200(%rbx), %rsi
	.loc	0 670 17                        # x264_src/encoder/macroblock.c:670:17
	movl	$384, %edx                      # imm = 0x180
	callq	*32816(%rbx)
.Ltmp565:
	.loc	0 672 28 is_stmt 1              # x264_src/encoder/macroblock.c:672:28
	movl	17416(%rbx), %eax
.Ltmp566:
.LBB8_55:                               # %if.end188
	#DEBUG_VALUE: x264_macroblock_encode:h <- $rbx
	#DEBUG_VALUE: x264_macroblock_encode:b_decimate <- [DW_OP_plus_uconst 8, DW_OP_deref] $rsp
	.loc	0 0 28 is_stmt 0                # x264_src/encoder/macroblock.c:0:28
	movl	$3, %r14d
	.loc	0 672 22                        # x264_src/encoder/macroblock.c:672:22
	testl	%eax, %eax
	jne	.LBB8_57
.Ltmp567:
.LBB8_56:                               # %if.end188.thread
	#DEBUG_VALUE: x264_macroblock_encode:h <- $rbx
	#DEBUG_VALUE: x264_macroblock_encode:b_decimate <- [DW_OP_plus_uconst 8, DW_OP_deref] $rsp
	.loc	0 0 22                          # x264_src/encoder/macroblock.c:0:22
	xorl	%r14d, %r14d
.Ltmp568:
.LBB8_57:
	#DEBUG_VALUE: x264_macroblock_encode:h <- $rbx
	#DEBUG_VALUE: x264_macroblock_encode:b_decimate <- [DW_OP_plus_uconst 8, DW_OP_deref] $rsp
	#DEBUG_VALUE: i <- undef
	.loc	0 672 9                         # x264_src/encoder/macroblock.c:672:9
	leal	(,%r14,4), %eax
	leaq	-16(%rax), %rcx
	movq	%rcx, 40(%rsp)                  # 8-byte Spill
	movq	%rax, 96(%rsp)                  # 8-byte Spill
	addq	%rbx, %rax
	addq	$16492, %rax                    # imm = 0x406C
	movq	%rax, 56(%rsp)                  # 8-byte Spill
	movl	%r14d, %eax
	shll	$4, %eax
	movq	%rax, 48(%rsp)                  # 8-byte Spill
	movl	%r14d, %ecx
	shll	$7, %ecx
	leal	(,%r14,8), %r15d
	xorl	%r12d, %r12d
	leaq	128(%rsp), %rsi
	jmp	.LBB8_58
.Ltmp569:
	.p2align	4, 0x90
.LBB8_65:                               # %if.else224
                                        #   in Loop: Header=BB8_58 Depth=1
	#DEBUG_VALUE: x264_macroblock_encode:h <- $rbx
	#DEBUG_VALUE: p_dst <- $r13
	.loc	0 681 17 is_stmt 1              # x264_src/encoder/macroblock.c:681:17
	movq	%r13, %rdi
	leaq	128(%rsp), %rsi
	callq	*31360(%rbx,%r14,8)
.Ltmp570:
.LBB8_66:                               # %if.end228
                                        #   in Loop: Header=BB8_58 Depth=1
	#DEBUG_VALUE: x264_macroblock_encode:h <- $rbx
	#DEBUG_VALUE: p_dst <- $r13
	.loc	0 683 13                        # x264_src/encoder/macroblock.c:683:13
	movq	%rbx, %rdi
	movq	8(%rsp), %r14                   # 8-byte Reload
	movl	%r14d, %esi
	movq	(%rsp), %rdx                    # 8-byte Reload
                                        # kill: def $edx killed $edx killed $rdx
	callq	x264_mb_encode_i8x8
.Ltmp571:
	#DEBUG_VALUE: i <- [DW_OP_LLVM_arg 0, DW_OP_consts 4, DW_OP_div, DW_OP_consts 1, DW_OP_LLVM_arg 1, DW_OP_plus, DW_OP_plus, DW_OP_stack_value] undef, undef
	.loc	0 672 53                        # x264_src/encoder/macroblock.c:672:53
	addq	$4, %r12
	incl	%r14d
	movl	24(%rsp), %ecx                  # 4-byte Reload
	subl	$-128, %ecx
	addl	$8, %r15d
	movq	40(%rsp), %rax                  # 8-byte Reload
	addq	%r12, %rax
	leaq	128(%rsp), %rsi
.Ltmp572:
	.loc	0 672 9 is_stmt 0               # x264_src/encoder/macroblock.c:672:9
	je	.LBB8_204
.Ltmp573:
.LBB8_58:                               # %for.body
                                        # =>This Inner Loop Header: Depth=1
	#DEBUG_VALUE: x264_macroblock_encode:h <- $rbx
	#DEBUG_VALUE: i <- [DW_OP_LLVM_arg 0, DW_OP_consts 4, DW_OP_div, DW_OP_LLVM_arg 1, DW_OP_plus, DW_OP_stack_value] undef, undef
	.loc	0 0 9                           # x264_src/encoder/macroblock.c:0:9
	movq	%r14, 8(%rsp)                   # 8-byte Spill
.Ltmp574:
	.loc	0 674 54 is_stmt 1              # x264_src/encoder/macroblock.c:674:54
	movl	%r15d, %ebp
	andl	$8, %ebp
	movl	%ecx, 24(%rsp)                  # 4-byte Spill
	.loc	0 674 66 is_stmt 0              # x264_src/encoder/macroblock.c:674:66
	movl	%ecx, %r13d
	andl	$256, %r13d                     # imm = 0x100
	.loc	0 674 62                        # x264_src/encoder/macroblock.c:674:62
	orl	%ebp, %r13d
	.loc	0 674 32                        # x264_src/encoder/macroblock.c:674:32
	addq	21392(%rbx), %r13
.Ltmp575:
	#DEBUG_VALUE: p_dst <- $r13
	.loc	0 0 32                          # x264_src/encoder/macroblock.c:0:32
	movq	48(%rsp), %rax                  # 8-byte Reload
	.loc	0 675 62 is_stmt 1              # x264_src/encoder/macroblock.c:675:62
	movslq	x264_scan8(%rax,%r12,4), %rax
	.loc	0 675 31 is_stmt 0              # x264_src/encoder/macroblock.c:675:31
	movsbq	25024(%rbx,%rax), %r14
.Ltmp576:
	#DEBUG_VALUE: i_mode <- undef
	.loc	0 0 31                          # x264_src/encoder/macroblock.c:0:31
	movq	56(%rsp), %rax                  # 8-byte Reload
	.loc	0 676 49 is_stmt 1              # x264_src/encoder/macroblock.c:676:49
	movl	(%rax,%r12), %edx
	.loc	0 676 72 is_stmt 0              # x264_src/encoder/macroblock.c:676:72
	movzbl	x264_pred_i4x4_neighbors(%r14), %ecx
	.loc	0 676 13                        # x264_src/encoder/macroblock.c:676:13
	movq	%r13, %rdi
	callq	*31552(%rbx)
.Ltmp577:
	.loc	0 678 17 is_stmt 1              # x264_src/encoder/macroblock.c:678:17
	cmpl	$0, 25812(%rbx)
.Ltmp578:
	.loc	0 678 17 is_stmt 0              # x264_src/encoder/macroblock.c:678:17
	je	.LBB8_65
.Ltmp579:
# %bb.59:                               # %if.then222
                                        #   in Loop: Header=BB8_58 Depth=1
	#DEBUG_VALUE: x264_macroblock_encode:h <- $rbx
	#DEBUG_VALUE: p_dst <- $r13
	#DEBUG_VALUE: x264_predict_lossless_8x8:h <- $rbx
	#DEBUG_VALUE: x264_predict_lossless_8x8:p_dst <- $r13
	#DEBUG_VALUE: x264_predict_lossless_8x8:idx <- [DW_OP_LLVM_arg 0, DW_OP_consts 4, DW_OP_div, DW_OP_LLVM_arg 1, DW_OP_plus, DW_OP_stack_value] undef, undef
	#DEBUG_VALUE: x264_predict_lossless_8x8:edge <- [DW_OP_plus_uconst 128, DW_OP_stack_value] $rsp
	.loc	0 567 21 is_stmt 1              # x264_src/encoder/macroblock.c:567:21
	movq	14680(%rbx), %rax
	.loc	0 567 18 is_stmt 0              # x264_src/encoder/macroblock.c:567:18
	movl	104(%rax), %eax
	.loc	0 567 48                        # x264_src/encoder/macroblock.c:567:48
	movzbl	16436(%rbx), %ecx
	.loc	0 567 39                        # x264_src/encoder/macroblock.c:567:39
	shll	%cl, %eax
.Ltmp580:
	#DEBUG_VALUE: x264_predict_lossless_8x8:stride <- $eax
	.loc	0 568 48 is_stmt 1              # x264_src/encoder/macroblock.c:568:48
	movl	%ebp, %ecx
	movq	%rbx, %r9
	addq	21368(%rbx), %rcx
	movq	96(%rsp), %rdx                  # 8-byte Reload
	.loc	0 568 70 is_stmt 0              # x264_src/encoder/macroblock.c:568:70
	addl	%r12d, %edx
	andl	$8, %edx
	.loc	0 568 72                        # x264_src/encoder/macroblock.c:568:72
	imull	%eax, %edx
	.loc	0 568 60                        # x264_src/encoder/macroblock.c:568:60
	movslq	%edx, %rdx
	addq	%rcx, %rdx
.Ltmp581:
	#DEBUG_VALUE: x264_predict_lossless_8x8:p_src <- $rdx
	.loc	0 570 9 is_stmt 1               # x264_src/encoder/macroblock.c:570:9
	cmpb	$1, %r14b
.Ltmp582:
	#DEBUG_VALUE: i_mode <- [DW_OP_LLVM_convert 8 5, DW_OP_LLVM_convert 32 5, DW_OP_stack_value] undef
	#DEBUG_VALUE: x264_predict_lossless_8x8:i_mode <- [DW_OP_LLVM_convert 8 5, DW_OP_LLVM_convert 32 5, DW_OP_stack_value] undef
	je	.LBB8_62
.Ltmp583:
# %bb.60:                               # %if.then222
                                        #   in Loop: Header=BB8_58 Depth=1
	#DEBUG_VALUE: x264_macroblock_encode:h <- $rbx
	#DEBUG_VALUE: p_dst <- $r13
	#DEBUG_VALUE: x264_predict_lossless_8x8:h <- $rbx
	#DEBUG_VALUE: x264_predict_lossless_8x8:p_dst <- $r13
	#DEBUG_VALUE: x264_predict_lossless_8x8:edge <- [DW_OP_plus_uconst 128, DW_OP_stack_value] $rsp
	#DEBUG_VALUE: x264_predict_lossless_8x8:stride <- $eax
	#DEBUG_VALUE: x264_predict_lossless_8x8:p_src <- $rdx
	movzbl	%r14b, %ecx
	testl	%ecx, %ecx
	jne	.LBB8_64
.Ltmp584:
# %bb.61:                               # %if.then.i1399
                                        #   in Loop: Header=BB8_58 Depth=1
	#DEBUG_VALUE: x264_macroblock_encode:h <- $rbx
	#DEBUG_VALUE: p_dst <- $r13
	#DEBUG_VALUE: x264_predict_lossless_8x8:h <- $rbx
	#DEBUG_VALUE: x264_predict_lossless_8x8:p_dst <- $r13
	#DEBUG_VALUE: x264_predict_lossless_8x8:edge <- [DW_OP_plus_uconst 128, DW_OP_stack_value] $rsp
	#DEBUG_VALUE: x264_predict_lossless_8x8:stride <- $eax
	#DEBUG_VALUE: x264_predict_lossless_8x8:p_src <- $rdx
	.loc	0 571 57                        # x264_src/encoder/macroblock.c:571:57
	movslq	%eax, %rcx
	subq	%rcx, %rdx
.Ltmp585:
	.loc	0 571 9 is_stmt 0               # x264_src/encoder/macroblock.c:571:9
	jmp	.LBB8_63
.Ltmp586:
	.p2align	4, 0x90
.LBB8_62:                               # %if.then11.i
                                        #   in Loop: Header=BB8_58 Depth=1
	#DEBUG_VALUE: x264_macroblock_encode:h <- $rbx
	#DEBUG_VALUE: p_dst <- $r13
	#DEBUG_VALUE: x264_predict_lossless_8x8:h <- $rbx
	#DEBUG_VALUE: x264_predict_lossless_8x8:p_dst <- $r13
	#DEBUG_VALUE: x264_predict_lossless_8x8:edge <- [DW_OP_plus_uconst 128, DW_OP_stack_value] $rsp
	#DEBUG_VALUE: x264_predict_lossless_8x8:stride <- $eax
	#DEBUG_VALUE: x264_predict_lossless_8x8:p_src <- $rdx
	.loc	0 573 57 is_stmt 1              # x264_src/encoder/macroblock.c:573:57
	decq	%rdx
.Ltmp587:
.LBB8_63:                               # %if.end228
                                        #   in Loop: Header=BB8_58 Depth=1
	#DEBUG_VALUE: x264_macroblock_encode:h <- $rbx
	#DEBUG_VALUE: p_dst <- $r13
	#DEBUG_VALUE: x264_predict_lossless_8x8:h <- $rbx
	#DEBUG_VALUE: x264_predict_lossless_8x8:p_dst <- $r13
	#DEBUG_VALUE: x264_predict_lossless_8x8:edge <- [DW_OP_plus_uconst 128, DW_OP_stack_value] $rsp
	#DEBUG_VALUE: x264_predict_lossless_8x8:stride <- $eax
	.loc	0 0 0 is_stmt 0                 # x264_src/encoder/macroblock.c:0:0
	movq	%r13, %rdi
	movl	$32, %esi
	movl	%eax, %ecx
	movl	$8, %r8d
	movq	%r9, %rbx
.Ltmp588:
	#DEBUG_VALUE: x264_predict_lossless_8x8:h <- $r9
	#DEBUG_VALUE: x264_macroblock_encode:h <- $r9
	callq	*32744(%r9)
.Ltmp589:
	#DEBUG_VALUE: x264_predict_lossless_8x8:h <- $rbx
	#DEBUG_VALUE: x264_macroblock_encode:h <- $rbx
	.loc	0 573 9                         # x264_src/encoder/macroblock.c:573:9
	jmp	.LBB8_66
.Ltmp590:
	.p2align	4, 0x90
.LBB8_64:                               # %if.else16.i
                                        #   in Loop: Header=BB8_58 Depth=1
	#DEBUG_VALUE: x264_macroblock_encode:h <- $rbx
	#DEBUG_VALUE: p_dst <- $r13
	#DEBUG_VALUE: x264_predict_lossless_8x8:h <- $rbx
	#DEBUG_VALUE: x264_predict_lossless_8x8:p_dst <- $r13
	#DEBUG_VALUE: x264_predict_lossless_8x8:edge <- [DW_OP_plus_uconst 128, DW_OP_stack_value] $rsp
	#DEBUG_VALUE: x264_predict_lossless_8x8:stride <- $eax
	#DEBUG_VALUE: x264_predict_lossless_8x8:p_src <- $rdx
	.loc	0 575 9 is_stmt 1               # x264_src/encoder/macroblock.c:575:9
	movq	%r13, %rdi
	leaq	128(%rsp), %rsi
	movq	%r9, %rbx
.Ltmp591:
	#DEBUG_VALUE: x264_predict_lossless_8x8:h <- $r9
	#DEBUG_VALUE: x264_macroblock_encode:h <- $r9
	callq	*31360(%r9,%r14,8)
.Ltmp592:
	#DEBUG_VALUE: x264_predict_lossless_8x8:h <- $rbx
	#DEBUG_VALUE: x264_macroblock_encode:h <- $rbx
	#DEBUG_VALUE: i_mode <- [DW_OP_LLVM_convert 8 5, DW_OP_LLVM_convert 32 5, DW_OP_stack_value] undef
	#DEBUG_VALUE: x264_predict_lossless_8x8:i_mode <- [DW_OP_LLVM_convert 8 5, DW_OP_LLVM_convert 32 5, DW_OP_stack_value] undef
	.loc	0 0 9 is_stmt 0                 # x264_src/encoder/macroblock.c:0:9
	jmp	.LBB8_66
.Ltmp593:
.LBB8_11:                               # %if.then88
	#DEBUG_VALUE: x264_macroblock_encode:h <- $rbx
	#DEBUG_VALUE: x264_macroblock_encode:b_decimate <- [DW_OP_plus_uconst 8, DW_OP_deref] $rsp
	#DEBUG_VALUE: x264_macroblock_encode_pskip:h <- $rbx
	.loc	0 480 10 is_stmt 1              # x264_src/encoder/macroblock.c:480:10
	cmpl	$0, 17420(%rbx)
.Ltmp594:
	.loc	0 480 9 is_stmt 0               # x264_src/encoder/macroblock.c:480:9
	jne	.LBB8_19
.Ltmp595:
# %bb.12:                               # %if.then.i
	#DEBUG_VALUE: x264_macroblock_encode:h <- $rbx
	#DEBUG_VALUE: x264_macroblock_encode:b_decimate <- [DW_OP_plus_uconst 8, DW_OP_deref] $rsp
	#DEBUG_VALUE: x264_macroblock_encode_pskip:h <- $rbx
	#DEBUG_VALUE: x264_clip3:v <- undef
	#DEBUG_VALUE: x264_clip3:i_min <- undef
	#DEBUG_VALUE: x264_clip3:i_max <- undef
	#DEBUG_VALUE: mvx <- undef
	.loc	0 482 31 is_stmt 1              # x264_src/encoder/macroblock.c:482:31
	movd	25248(%rbx), %xmm0              # xmm0 = mem[0],zero,zero,zero
	.loc	0 483 31                        # x264_src/encoder/macroblock.c:483:31
	movq	16440(%rbx), %xmm1              # xmm1 = mem[0],zero
	.loc	0 483 48 is_stmt 0              # x264_src/encoder/macroblock.c:483:48
	movq	16448(%rbx), %xmm2              # xmm2 = mem[0],zero
.Ltmp596:
	#DEBUG_VALUE: x264_clip3:v <- undef
	#DEBUG_VALUE: x264_clip3:i_min <- undef
	#DEBUG_VALUE: x264_clip3:i_max <- undef
	.loc	4 202 17 is_stmt 1              # x264_src/common/common.h:202:17
	pshuflw	$96, %xmm0, %xmm0               # xmm0 = xmm0[0,0,2,1,4,5,6,7]
	psrad	$16, %xmm0
	movdqa	%xmm1, %xmm3
	pcmpgtd	%xmm0, %xmm3
	.loc	4 202 14 is_stmt 0              # x264_src/common/common.h:202:14
	movdqa	%xmm2, %xmm4
	pcmpgtd	%xmm0, %xmm4
	pand	%xmm4, %xmm0
	pandn	%xmm2, %xmm4
	por	%xmm0, %xmm4
	pand	%xmm3, %xmm1
	pandn	%xmm4, %xmm3
	por	%xmm1, %xmm3
	movq	%rbx, %r15
.Ltmp597:
	#DEBUG_VALUE: x264_macroblock_encode_pskip:h <- $r15
	#DEBUG_VALUE: x264_macroblock_encode:h <- $r15
	movq	%xmm3, %rbx
.Ltmp598:
	#DEBUG_VALUE: mvy <- undef
	.loc	0 487 24 is_stmt 1              # x264_src/encoder/macroblock.c:487:24
	movq	21392(%r15), %rdi
	.loc	0 488 34                        # x264_src/encoder/macroblock.c:488:34
	leaq	21424(%r15), %rdx
	.loc	0 488 48 is_stmt 0              # x264_src/encoder/macroblock.c:488:48
	movl	25008(%r15), %ecx
	.loc	0 489 49 is_stmt 1              # x264_src/encoder/macroblock.c:489:49
	leaq	7584(%r15), %rax
.Ltmp599:
	.loc	0 492 17                        # x264_src/encoder/macroblock.c:492:17
	movd	%xmm3, %ebp
	pshufd	$85, %xmm3, %xmm0               # xmm0 = xmm3[1,1,1,1]
	movd	%xmm0, %r14d
.Ltmp600:
	.loc	0 487 9                         # x264_src/encoder/macroblock.c:487:9
	subq	$8, %rsp
.Ltmp601:
	.cfi_adjust_cfa_offset 8
	movl	$32, %esi
	movl	%ebp, %r8d
	movl	%r14d, %r9d
	pushq	%rax
	.cfi_adjust_cfa_offset 8
	pushq	$16
	.cfi_adjust_cfa_offset 8
	pushq	$16
	.cfi_adjust_cfa_offset 8
	callq	*32616(%r15)
.Ltmp602:
	addq	$32, %rsp
	.cfi_adjust_cfa_offset -32
.Ltmp603:
	.loc	0 0 0 is_stmt 0                 # x264_src/encoder/macroblock.c:0:0
	movq	21400(%r15), %rdi
	movq	21456(%r15), %rdx
	movl	25012(%r15), %ecx
.Ltmp604:
	.loc	0 503 13 is_stmt 1              # x264_src/encoder/macroblock.c:503:13
	movl	$32, %esi
.Ltmp605:
	.loc	0 492 17                        # x264_src/encoder/macroblock.c:492:17
	testq	%rbx, %rbx
.Ltmp606:
	.loc	0 492 13 is_stmt 0              # x264_src/encoder/macroblock.c:492:13
	je	.LBB8_14
.Ltmp607:
# %bb.13:                               # %if.then35.i
	#DEBUG_VALUE: x264_macroblock_encode:h <- $r15
	#DEBUG_VALUE: x264_macroblock_encode:b_decimate <- [DW_OP_plus_uconst 8, DW_OP_deref] $rsp
	#DEBUG_VALUE: x264_macroblock_encode_pskip:h <- $r15
	.loc	0 494 13 is_stmt 1              # x264_src/encoder/macroblock.c:494:13
	movl	%ebp, %r8d
	movl	%r14d, %r9d
	pushq	$8
.Ltmp608:
	.cfi_adjust_cfa_offset 8
	pushq	$8
	.cfi_adjust_cfa_offset 8
	callq	*32632(%r15)
.Ltmp609:
	addq	$16, %rsp
	.cfi_adjust_cfa_offset -16
	.loc	0 497 30                        # x264_src/encoder/macroblock.c:497:30
	movq	21408(%r15), %rdi
	.loc	0 498 30                        # x264_src/encoder/macroblock.c:498:30
	movq	21464(%r15), %rdx
	.loc	0 498 57 is_stmt 0              # x264_src/encoder/macroblock.c:498:57
	movl	25016(%r15), %ecx
	.loc	0 497 13 is_stmt 1              # x264_src/encoder/macroblock.c:497:13
	movl	$32, %esi
	movl	%ebp, %r8d
	movl	%r14d, %r9d
	pushq	$8
	.cfi_adjust_cfa_offset 8
	pushq	$8
	.cfi_adjust_cfa_offset 8
	callq	*32632(%r15)
.Ltmp610:
	addq	$16, %rsp
	.cfi_adjust_cfa_offset -16
	jmp	.LBB8_15
.Ltmp611:
.LBB8_20:                               # %if.then94
	#DEBUG_VALUE: x264_macroblock_encode:h <- $rbx
	#DEBUG_VALUE: x264_macroblock_encode:b_decimate <- [DW_OP_plus_uconst 8, DW_OP_deref] $rsp
	.loc	0 636 14                        # x264_src/encoder/macroblock.c:636:14
	cmpl	$0, 17420(%rbx)
.Ltmp612:
	.loc	0 636 13 is_stmt 0              # x264_src/encoder/macroblock.c:636:13
	jne	.LBB8_19
.Ltmp613:
# %bb.21:                               # %if.then97
	#DEBUG_VALUE: x264_macroblock_encode:h <- $rbx
	#DEBUG_VALUE: x264_macroblock_encode:b_decimate <- [DW_OP_plus_uconst 8, DW_OP_deref] $rsp
	.loc	0 637 13 is_stmt 1              # x264_src/encoder/macroblock.c:637:13
	movq	%rbx, %rdi
	callq	x264_mb_mc@PLT
.Ltmp614:
	.loc	0 0 13 is_stmt 0                # x264_src/encoder/macroblock.c:0:13
	jmp	.LBB8_19
.Ltmp615:
.LBB8_86:                               # %if.then360
	#DEBUG_VALUE: x264_macroblock_encode:h <- $rbx
	#DEBUG_VALUE: x264_macroblock_encode:b_decimate <- [DW_OP_plus_uconst 8, DW_OP_deref] $rsp
	#DEBUG_VALUE: i_decimate_mb <- 0
	.loc	0 724 13 is_stmt 1              # x264_src/encoder/macroblock.c:724:13
	movq	%rbx, %rdi
	callq	x264_mb_mc@PLT
.Ltmp616:
	.loc	0 726 13                        # x264_src/encoder/macroblock.c:726:13
	cmpl	$0, 25812(%rbx)
	.loc	0 0 0 is_stmt 0                 # x264_src/encoder/macroblock.c:0:0
	movl	17396(%rbx), %eax
.Ltmp617:
	.loc	0 726 13                        # x264_src/encoder/macroblock.c:726:13
	jne	.LBB8_88
.Ltmp618:
.LBB8_93:                               # %if.else476
	#DEBUG_VALUE: x264_macroblock_encode:h <- $rbx
	#DEBUG_VALUE: x264_macroblock_encode:b_decimate <- [DW_OP_plus_uconst 8, DW_OP_deref] $rsp
	#DEBUG_VALUE: i_decimate_mb <- 0
	.loc	0 0 0                           # x264_src/encoder/macroblock.c:0:0
	testl	%eax, %eax
	.loc	0 749 18 is_stmt 1              # x264_src/encoder/macroblock.c:749:18
	je	.LBB8_148
.Ltmp619:
# %bb.94:                               # %if.then480
	#DEBUG_VALUE: x264_macroblock_encode:h <- $rbx
	#DEBUG_VALUE: x264_macroblock_encode:b_decimate <- [DW_OP_plus_uconst 8, DW_OP_deref] $rsp
	#DEBUG_VALUE: i_decimate_mb <- 0
	.loc	0 752 27                        # x264_src/encoder/macroblock.c:752:27
	xorl	%r14d, %r14d
	cmpl	$0, 16416(%rbx)
	movq	%rbx, %r15
.Ltmp620:
	#DEBUG_VALUE: x264_macroblock_encode:h <- $r15
	sete	%bl
.Ltmp621:
	#DEBUG_VALUE: x264_macroblock_encode:b_decimate <- undef
	.loc	0 753 44                        # x264_src/encoder/macroblock.c:753:44
	movq	21344(%r15), %rsi
	.loc	0 753 65 is_stmt 0              # x264_src/encoder/macroblock.c:753:65
	movq	21392(%r15), %rdx
	leaq	128(%rsp), %rdi
	.loc	0 753 13                        # x264_src/encoder/macroblock.c:753:13
	callq	*33000(%r15)
.Ltmp622:
	.loc	0 754 37 is_stmt 1              # x264_src/encoder/macroblock.c:754:37
	movl	16420(%r15), %eax
	.loc	0 754 55 is_stmt 0              # x264_src/encoder/macroblock.c:754:55
	leal	(,%rax,4), %ecx
	.loc	0 754 28                        # x264_src/encoder/macroblock.c:754:28
	addl	%ecx, 31172(%r15)
.Ltmp623:
	#DEBUG_VALUE: idx <- 0
	#DEBUG_VALUE: i_decimate_mb <- 0
	.loc	0 0 28                          # x264_src/encoder/macroblock.c:0:28
	leaq	30656(%r15), %r12
	leaq	31040(%r15), %r13
	#DEBUG_VALUE: idx <- 0
.Ltmp624:
	.loc	0 758 21 is_stmt 1              # x264_src/encoder/macroblock.c:758:21
	testl	%eax, %eax
.Ltmp625:
	.loc	0 758 21 is_stmt 0              # x264_src/encoder/macroblock.c:758:21
	je	.LBB8_96
.Ltmp626:
# %bb.95:                               # %if.then505
	#DEBUG_VALUE: x264_macroblock_encode:h <- $r15
	#DEBUG_VALUE: i_decimate_mb <- 0
	#DEBUG_VALUE: idx <- 0
	.loc	0 0 21                          # x264_src/encoder/macroblock.c:0:21
	leaq	128(%rsp), %rdi
.Ltmp627:
	.loc	0 759 21 is_stmt 1              # x264_src/encoder/macroblock.c:759:21
	movq	%r12, %rsi
	movq	%r13, %rdx
	movl	$64, %ecx
	callq	*33136(%r15)
.Ltmp628:
.LBB8_96:                               # %if.end513
	#DEBUG_VALUE: x264_macroblock_encode:h <- $r15
	#DEBUG_VALUE: i_decimate_mb <- 0
	#DEBUG_VALUE: idx <- 0
	.loc	0 0 0 is_stmt 0                 # x264_src/encoder/macroblock.c:0:0
	movb	%bl, %r14b
.Ltmp629:
	#DEBUG_VALUE: x264_quant_8x8:h <- $r15
	#DEBUG_VALUE: x264_quant_8x8:dct <- [DW_OP_plus_uconst 128, DW_OP_stack_value] $rsp
	#DEBUG_VALUE: x264_quant_8x8:b_intra <- 0
	#DEBUG_VALUE: x264_quant_8x8:idx <- 0
	#DEBUG_VALUE: x264_quant_8x8:i_quant_cat <- [DW_OP_stack_value] 1
	.loc	0 93 9 is_stmt 1                # x264_src/encoder/macroblock.c:93:9
	cmpl	$0, 16416(%r15)
.Ltmp630:
	#DEBUG_VALUE: x264_quant_8x8:i_qp <- undef
	.loc	0 0 9 is_stmt 0                 # x264_src/encoder/macroblock.c:0:9
	movq	%r15, %rbx
.Ltmp631:
	#DEBUG_VALUE: x264_quant_8x8:h <- $rbx
	#DEBUG_VALUE: x264_macroblock_encode:h <- $rbx
	.loc	0 93 9                          # x264_src/encoder/macroblock.c:93:9
	je	.LBB8_101
.Ltmp632:
# %bb.97:                               # %if.then.i1420
	#DEBUG_VALUE: x264_macroblock_encode:h <- $rbx
	#DEBUG_VALUE: i_decimate_mb <- 0
	#DEBUG_VALUE: idx <- 0
	#DEBUG_VALUE: x264_quant_8x8:h <- $rbx
	#DEBUG_VALUE: x264_quant_8x8:dct <- [DW_OP_plus_uconst 128, DW_OP_stack_value] $rsp
	#DEBUG_VALUE: x264_quant_8x8:b_intra <- 0
	#DEBUG_VALUE: x264_quant_8x8:idx <- 0
	#DEBUG_VALUE: x264_quant_8x8:i_quant_cat <- [DW_OP_stack_value] 1
	#DEBUG_VALUE: x264_quant_8x8:i_quant_cat <- 1
	.loc	0 0 9                           # x264_src/encoder/macroblock.c:0:9
	leaq	128(%rsp), %rsi
.Ltmp633:
	.loc	0 94 16 is_stmt 1               # x264_src/encoder/macroblock.c:94:16
	movq	%rbx, %rdi
	movl	$1, %edx
	movq	(%rsp), %rcx                    # 8-byte Reload
                                        # kill: def $ecx killed $ecx killed $rcx
	xorl	%r8d, %r8d
	xorl	%r9d, %r9d
	callq	x264_quant_8x8_trellis@PLT
.Ltmp634:
	.loc	0 94 9 is_stmt 0                # x264_src/encoder/macroblock.c:94:9
	jmp	.LBB8_102
.Ltmp635:
.LBB8_27:                               # %if.else110
	#DEBUG_VALUE: x264_macroblock_encode:h <- $rbx
	#DEBUG_VALUE: x264_macroblock_encode:b_decimate <- [DW_OP_plus_uconst 8, DW_OP_deref] $rsp
	.loc	0 0 0                           # x264_src/encoder/macroblock.c:0:0
	movq	21392(%rbx), %rdi
	callq	*31248(%rbx,%rdx,8)
.Ltmp636:
	#DEBUG_VALUE: x264_mb_encode_i16x16:dct_dc4x4 <- [DW_OP_plus_uconst 64, DW_OP_deref] $rsp
	#DEBUG_VALUE: x264_mb_encode_i16x16:h <- $rbx
	.loc	0 186 23 is_stmt 1              # x264_src/encoder/macroblock.c:186:23
	movq	21344(%rbx), %r12
.Ltmp637:
	#DEBUG_VALUE: x264_mb_encode_i16x16:p_src <- $r12
	.loc	0 187 23                        # x264_src/encoder/macroblock.c:187:23
	movq	21392(%rbx), %r13
.Ltmp638:
	#DEBUG_VALUE: x264_mb_encode_i16x16:p_dst <- $r13
	#DEBUG_VALUE: x264_mb_encode_i16x16:decimate_score <- undef
	.loc	0 195 9                         # x264_src/encoder/macroblock.c:195:9
	cmpl	$0, 25812(%rbx)
.Ltmp639:
	#DEBUG_VALUE: x264_mb_encode_i16x16:i_qp <- undef
	.loc	0 195 9 is_stmt 0               # x264_src/encoder/macroblock.c:195:9
	je	.LBB8_32
.Ltmp640:
.LBB8_29:                               # %for.cond.preheader.i
	#DEBUG_VALUE: x264_macroblock_encode:h <- $rbx
	#DEBUG_VALUE: x264_macroblock_encode:b_decimate <- [DW_OP_plus_uconst 8, DW_OP_deref] $rsp
	#DEBUG_VALUE: x264_mb_encode_i16x16:dct_dc4x4 <- [DW_OP_plus_uconst 64, DW_OP_deref] $rsp
	#DEBUG_VALUE: x264_mb_encode_i16x16:h <- $rbx
	.loc	0 0 9                           # x264_src/encoder/macroblock.c:0:9
	leaq	15600(%rbx), %r14
	movq	%rbx, %r15
.Ltmp641:
	#DEBUG_VALUE: x264_mb_encode_i16x16:h <- $r15
	#DEBUG_VALUE: x264_macroblock_encode:h <- $r15
	movq	$-16, %rbx
	#DEBUG_VALUE: i <- 0
.Ltmp642:
	.p2align	4, 0x90
.LBB8_30:                               # %for.body.i
                                        # =>This Inner Loop Header: Depth=1
	#DEBUG_VALUE: x264_macroblock_encode:h <- $r15
	#DEBUG_VALUE: x264_macroblock_encode:b_decimate <- [DW_OP_plus_uconst 8, DW_OP_deref] $rsp
	#DEBUG_VALUE: x264_mb_encode_i16x16:dct_dc4x4 <- [DW_OP_plus_uconst 64, DW_OP_deref] $rsp
	#DEBUG_VALUE: x264_mb_encode_i16x16:h <- $r15
	#DEBUG_VALUE: i <- [DW_OP_plus_uconst 16, DW_OP_stack_value] $rbx
	.loc	0 199 22 is_stmt 1              # x264_src/encoder/macroblock.c:199:22
	movzbl	block_idx_xy_fenc+16(%rbx), %esi
.Ltmp643:
	#DEBUG_VALUE: oe <- undef
	.loc	0 200 22                        # x264_src/encoder/macroblock.c:200:22
	movzwl	block_idx_xy_fdec+32(%rbx,%rbx), %edx
.Ltmp644:
	#DEBUG_VALUE: od <- undef
	.loc	0 201 64                        # x264_src/encoder/macroblock.c:201:64
	addq	%r12, %rsi
	.loc	0 201 74 is_stmt 0              # x264_src/encoder/macroblock.c:201:74
	addq	%r13, %rdx
	.loc	0 201 90                        # x264_src/encoder/macroblock.c:201:90
	movzbl	block_idx_yx_1d+16(%rbx), %eax
	.loc	0 201 80                        # x264_src/encoder/macroblock.c:201:80
	leaq	(%rsp,%rax,2), %rcx
	addq	$64, %rcx
	.loc	0 201 18                        # x264_src/encoder/macroblock.c:201:18
	movq	%r14, %rdi
	callq	*33064(%r15)
.Ltmp645:
                                        # kill: def $eax killed $eax def $rax
	#DEBUG_VALUE: x264_mb_encode_i16x16:nz <- $eax
	.loc	0 202 40 is_stmt 1              # x264_src/encoder/macroblock.c:202:40
	movslq	x264_scan8+64(,%rbx,4), %rcx
	.loc	0 202 55 is_stmt 0              # x264_src/encoder/macroblock.c:202:55
	movb	%al, 25072(%r15,%rcx)
	.loc	0 203 30 is_stmt 1              # x264_src/encoder/macroblock.c:203:30
	orl	17400(%r15), %eax
.Ltmp646:
	movl	%eax, 17400(%r15)
.Ltmp647:
	.loc	0 197 27                        # x264_src/encoder/macroblock.c:197:27
	addq	$32, %r14
.Ltmp648:
	#DEBUG_VALUE: i <- [DW_OP_plus_uconst 17, DW_OP_stack_value] $rbx
	incq	%rbx
.Ltmp649:
	.loc	0 197 9 is_stmt 0               # x264_src/encoder/macroblock.c:197:9
	jne	.LBB8_30
.Ltmp650:
# %bb.31:                               # %for.cond.cleanup.i
	#DEBUG_VALUE: x264_macroblock_encode:h <- $r15
	#DEBUG_VALUE: x264_macroblock_encode:b_decimate <- [DW_OP_plus_uconst 8, DW_OP_deref] $rsp
	#DEBUG_VALUE: x264_mb_encode_i16x16:dct_dc4x4 <- [DW_OP_plus_uconst 64, DW_OP_deref] $rsp
	#DEBUG_VALUE: x264_mb_encode_i16x16:h <- $r15
	.loc	0 205 26 is_stmt 1              # x264_src/encoder/macroblock.c:205:26
	leal	(%rax,%rax,4), %eax
	leal	(%rax,%rax,2), %eax
	movl	%eax, 17400(%r15)
.Ltmp651:
	#DEBUG_VALUE: array_non_zero_int:v <- [DW_OP_plus_uconst 64, DW_OP_stack_value] $rsp
	#DEBUG_VALUE: array_non_zero_int:i_count <- 32
	.loc	3 358 17                        # x264_src/common/macroblock.h:358:17
	movdqa	64(%rsp), %xmm0
	por	80(%rsp), %xmm0
	pxor	%xmm1, %xmm1
	pcmpeqd	%xmm0, %xmm1
	movmskps	%xmm1, %eax
	xorl	$15, %eax
.Ltmp652:
	.loc	0 206 52                        # x264_src/encoder/macroblock.c:206:52
	setne	25116(%r15)
	.loc	0 207 33                        # x264_src/encoder/macroblock.c:207:33
	leaq	15040(%r15), %rdi
	leaq	64(%rsp), %rsi
	.loc	0 207 9 is_stmt 0               # x264_src/encoder/macroblock.c:207:9
	callq	*33040(%r15)
.Ltmp653:
	.loc	0 0 9                           # x264_src/encoder/macroblock.c:0:9
	movq	%r15, %rbx
.Ltmp654:
	#DEBUG_VALUE: x264_mb_encode_i16x16:h <- $rbx
	#DEBUG_VALUE: x264_macroblock_encode:h <- $rbx
	.loc	0 740 17 is_stmt 1              # x264_src/encoder/macroblock.c:740:17
	jmp	.LBB8_204
.Ltmp655:
.LBB8_90:                               # %for.cond429.preheader
	#DEBUG_VALUE: x264_macroblock_encode:h <- $rbx
	#DEBUG_VALUE: x264_macroblock_encode:b_decimate <- [DW_OP_plus_uconst 8, DW_OP_deref] $rsp
	#DEBUG_VALUE: i_decimate_mb <- 0
	.loc	0 0 17 is_stmt 0                # x264_src/encoder/macroblock.c:0:17
	leaq	15600(%rbx), %r14
	movq	%rbx, %r15
.Ltmp656:
	#DEBUG_VALUE: x264_macroblock_encode:h <- $r15
	xorl	%ebx, %ebx
.Ltmp657:
	#DEBUG_VALUE: i4x4 <- 0
	.p2align	4, 0x90
.LBB8_91:                               # %for.body433
                                        # =>This Inner Loop Header: Depth=1
	#DEBUG_VALUE: x264_macroblock_encode:h <- $r15
	#DEBUG_VALUE: x264_macroblock_encode:b_decimate <- [DW_OP_plus_uconst 8, DW_OP_deref] $rsp
	#DEBUG_VALUE: i_decimate_mb <- 0
	#DEBUG_VALUE: i4x4 <- $rbx
	.loc	0 743 61 is_stmt 1              # x264_src/encoder/macroblock.c:743:61
	movzbl	block_idx_xy_fenc(%rbx), %esi
	.loc	0 743 60 is_stmt 0              # x264_src/encoder/macroblock.c:743:60
	addq	21344(%r15), %rsi
	.loc	0 744 61 is_stmt 1              # x264_src/encoder/macroblock.c:744:61
	movzwl	block_idx_xy_fdec(%rbx,%rbx), %edx
	.loc	0 744 60 is_stmt 0              # x264_src/encoder/macroblock.c:744:60
	addq	21392(%r15), %rdx
	.loc	0 742 26 is_stmt 1              # x264_src/encoder/macroblock.c:742:26
	movq	%r14, %rdi
	callq	*33056(%r15)
.Ltmp658:
	#DEBUG_VALUE: x264_macroblock_encode:nz <- $eax
	.loc	0 745 48                        # x264_src/encoder/macroblock.c:745:48
	movslq	x264_scan8(,%rbx,4), %rcx
	.loc	0 745 66 is_stmt 0              # x264_src/encoder/macroblock.c:745:66
	movb	%al, 25072(%r15,%rcx)
	.loc	0 746 52 is_stmt 1              # x264_src/encoder/macroblock.c:746:52
	movl	%ebx, %ecx
	shrl	$2, %ecx
                                        # kill: def $cl killed $cl killed $ecx
	.loc	0 746 44 is_stmt 0              # x264_src/encoder/macroblock.c:746:44
	shll	%cl, %eax
.Ltmp659:
	.loc	0 746 38                        # x264_src/encoder/macroblock.c:746:38
	orl	%eax, 17400(%r15)
.Ltmp660:
	.loc	0 740 51 is_stmt 1              # x264_src/encoder/macroblock.c:740:51
	incq	%rbx
.Ltmp661:
	#DEBUG_VALUE: i4x4 <- $rbx
	.loc	0 740 41 is_stmt 0              # x264_src/encoder/macroblock.c:740:41
	addq	$32, %r14
	cmpq	$16, %rbx
.Ltmp662:
	.loc	0 740 17                        # x264_src/encoder/macroblock.c:740:17
	jne	.LBB8_91
.Ltmp663:
# %bb.92:
	#DEBUG_VALUE: x264_macroblock_encode:h <- $r15
	#DEBUG_VALUE: x264_macroblock_encode:b_decimate <- [DW_OP_plus_uconst 8, DW_OP_deref] $rsp
	#DEBUG_VALUE: i_decimate_mb <- 0
	#DEBUG_VALUE: i4x4 <- $rbx
	.loc	0 0 17                          # x264_src/encoder/macroblock.c:0:17
	movq	%r15, %rbx
.Ltmp664:
	#DEBUG_VALUE: x264_macroblock_encode:h <- $rbx
	.loc	0 740 17                        # x264_src/encoder/macroblock.c:740:17
	jmp	.LBB8_204
.Ltmp665:
.LBB8_148:                              # %if.else660
	#DEBUG_VALUE: x264_macroblock_encode:h <- $rbx
	#DEBUG_VALUE: x264_macroblock_encode:b_decimate <- [DW_OP_plus_uconst 8, DW_OP_deref] $rsp
	#DEBUG_VALUE: i_decimate_mb <- 0
	.loc	0 800 43 is_stmt 1              # x264_src/encoder/macroblock.c:800:43
	movq	21344(%rbx), %rsi
	.loc	0 800 64 is_stmt 0              # x264_src/encoder/macroblock.c:800:64
	movq	21392(%rbx), %rdx
	leaq	128(%rsp), %rdi
	.loc	0 800 13                        # x264_src/encoder/macroblock.c:800:13
	callq	*32960(%rbx)
.Ltmp666:
	.loc	0 801 37 is_stmt 1              # x264_src/encoder/macroblock.c:801:37
	movl	16420(%rbx), %eax
	.loc	0 801 55 is_stmt 0              # x264_src/encoder/macroblock.c:801:55
	shll	$4, %eax
	.loc	0 801 28                        # x264_src/encoder/macroblock.c:801:28
	addl	%eax, 31168(%rbx)
	#DEBUG_VALUE: i8x8 <- 0
	leaq	30400(%rbx), %rax
	movq	%rax, 24(%rsp)                  # 8-byte Spill
	leaq	30912(%rbx), %rax
	movq	%rax, 40(%rsp)                  # 8-byte Spill
	xorl	%r12d, %r12d
	movq	$-16, %r14
	#DEBUG_VALUE: i_decimate_mb <- 0
	movq	(%rsp), %rax                    # 8-byte Reload
	shlq	$5, %rax
	movq	%rax, 104(%rsp)                 # 8-byte Spill
	xorl	%ecx, %ecx
	xorl	%ebp, %ebp
	movl	$0, 36(%rsp)                    # 4-byte Folded Spill
	jmp	.LBB8_149
.Ltmp667:
.LBB8_190:                              # %if.else785
                                        #   in Loop: Header=BB8_149 Depth=1
	#DEBUG_VALUE: x264_macroblock_encode:h <- $rbx
	#DEBUG_VALUE: x264_macroblock_encode:b_decimate <- [DW_OP_plus_uconst 8, DW_OP_deref] $rsp
	#DEBUG_VALUE: i_decimate_mb <- [DW_OP_plus_uconst 36, DW_OP_deref] $rsp
	#DEBUG_VALUE: x264_macroblock_encode:nz <- $eax
	#DEBUG_VALUE: i8x8 <- [DW_OP_consts 128, DW_OP_div, DW_OP_stack_value] $rbp
	#DEBUG_VALUE: cbp <- [DW_OP_plus_uconst 56, DW_OP_deref] $rsp
	#DEBUG_VALUE: i_decimate_8x8 <- $r15d
	.loc	0 837 26 is_stmt 1              # x264_src/encoder/macroblock.c:837:26
	cmpl	$0, 56(%rsp)                    # 4-byte Folded Reload
	movl	48(%rsp), %ecx                  # 4-byte Reload
.Ltmp668:
	.loc	0 837 26 is_stmt 0              # x264_src/encoder/macroblock.c:837:26
	je	.LBB8_193
.Ltmp669:
.LBB8_191:                              # %if.then787
                                        #   in Loop: Header=BB8_149 Depth=1
	#DEBUG_VALUE: x264_macroblock_encode:h <- $rbx
	#DEBUG_VALUE: x264_macroblock_encode:b_decimate <- [DW_OP_plus_uconst 8, DW_OP_deref] $rsp
	#DEBUG_VALUE: i_decimate_mb <- [DW_OP_plus_uconst 36, DW_OP_deref] $rsp
	#DEBUG_VALUE: i8x8 <- [DW_OP_consts 128, DW_OP_div, DW_OP_stack_value] $rbp
	#DEBUG_VALUE: i_decimate_8x8 <- $r15d
	.loc	0 839 71 is_stmt 1              # x264_src/encoder/macroblock.c:839:71
	movl	%r12d, %eax
	andl	$8, %eax
	.loc	0 839 85 is_stmt 0              # x264_src/encoder/macroblock.c:839:85
	movl	%ebp, %edi
	andl	$256, %edi                      # imm = 0x100
	.loc	0 839 74                        # x264_src/encoder/macroblock.c:839:74
	orq	%rax, %rdi
	.loc	0 839 43                        # x264_src/encoder/macroblock.c:839:43
	addq	21392(%rbx), %rdi
	movq	112(%rsp), %rsi                 # 8-byte Reload
	.loc	0 839 21                        # x264_src/encoder/macroblock.c:839:21
	callq	*32944(%rbx)
.Ltmp670:
	.loc	0 0 21                          # x264_src/encoder/macroblock.c:0:21
	movl	48(%rsp), %ecx                  # 4-byte Reload
.Ltmp671:
.LBB8_192:                              # %if.end809
                                        #   in Loop: Header=BB8_149 Depth=1
	#DEBUG_VALUE: x264_macroblock_encode:h <- $rbx
	#DEBUG_VALUE: x264_macroblock_encode:b_decimate <- [DW_OP_plus_uconst 8, DW_OP_deref] $rsp
	#DEBUG_VALUE: i_decimate_mb <- [DW_OP_plus_uconst 36, DW_OP_deref] $rsp
	#DEBUG_VALUE: i8x8 <- [DW_OP_consts 128, DW_OP_div, DW_OP_stack_value] $rbp
	#DEBUG_VALUE: i_decimate_8x8 <- $r15d
	movl	$1, %eax
	shll	%cl, %eax
	orl	%eax, 17400(%rbx)
.Ltmp672:
.LBB8_193:                              # %if.end809
                                        #   in Loop: Header=BB8_149 Depth=1
	#DEBUG_VALUE: x264_macroblock_encode:h <- $rbx
	#DEBUG_VALUE: x264_macroblock_encode:b_decimate <- [DW_OP_plus_uconst 8, DW_OP_deref] $rsp
	#DEBUG_VALUE: i_decimate_mb <- [DW_OP_plus_uconst 36, DW_OP_deref] $rsp
	#DEBUG_VALUE: i8x8 <- [DW_OP_consts 128, DW_OP_div, DW_OP_stack_value] $rbp
	#DEBUG_VALUE: i8x8 <- [DW_OP_consts 128, DW_OP_div, DW_OP_consts 1, DW_OP_plus, DW_OP_stack_value] $rbp
	#DEBUG_VALUE: i_decimate_mb <- [DW_OP_plus_uconst 36, DW_OP_deref] $rsp
	.loc	0 803 37 is_stmt 1              # x264_src/encoder/macroblock.c:803:37
	subq	$-128, %rbp
.Ltmp673:
	incl	%ecx
	addq	$8, %r12
	addq	$4, %r14
	cmpq	$512, %rbp                      # imm = 0x200
.Ltmp674:
	.loc	0 803 13 is_stmt 0              # x264_src/encoder/macroblock.c:803:13
	je	.LBB8_194
.Ltmp675:
.LBB8_149:                              # %for.cond685.preheader
                                        # =>This Inner Loop Header: Depth=1
	#DEBUG_VALUE: x264_macroblock_encode:h <- $rbx
	#DEBUG_VALUE: x264_macroblock_encode:b_decimate <- [DW_OP_plus_uconst 8, DW_OP_deref] $rsp
	#DEBUG_VALUE: i8x8 <- [DW_OP_consts 128, DW_OP_div, DW_OP_stack_value] $rbp
	#DEBUG_VALUE: i_decimate_mb <- [DW_OP_plus_uconst 36, DW_OP_deref] $rsp
	#DEBUG_VALUE: i4x4 <- 0
	#DEBUG_VALUE: cbp <- 0
	#DEBUG_VALUE: i_decimate_8x8 <- 0
	#DEBUG_VALUE: idx <- [DW_OP_consts 128, DW_OP_div, DW_OP_consts 4, DW_OP_mul, DW_OP_stack_value] $rbp
	.loc	0 0 13                          # x264_src/encoder/macroblock.c:0:13
	movl	%ecx, 48(%rsp)                  # 4-byte Spill
.Ltmp676:
	.loc	0 813 25 is_stmt 1              # x264_src/encoder/macroblock.c:813:25
	cmpl	$0, 16420(%rbx)
.Ltmp677:
	.loc	0 813 25 is_stmt 0              # x264_src/encoder/macroblock.c:813:25
	je	.LBB8_151
.Ltmp678:
# %bb.150:                              # %if.then696
                                        #   in Loop: Header=BB8_149 Depth=1
	#DEBUG_VALUE: x264_macroblock_encode:h <- $rbx
	#DEBUG_VALUE: x264_macroblock_encode:b_decimate <- [DW_OP_plus_uconst 8, DW_OP_deref] $rsp
	#DEBUG_VALUE: i_decimate_mb <- [DW_OP_plus_uconst 36, DW_OP_deref] $rsp
	#DEBUG_VALUE: i8x8 <- [DW_OP_consts 128, DW_OP_div, DW_OP_stack_value] $rbp
	#DEBUG_VALUE: i4x4 <- 0
	#DEBUG_VALUE: cbp <- 0
	#DEBUG_VALUE: i_decimate_8x8 <- 0
	#DEBUG_VALUE: idx <- [DW_OP_consts 128, DW_OP_div, DW_OP_consts 4, DW_OP_mul, DW_OP_stack_value] $rbp
	.loc	0 814 25 is_stmt 1              # x264_src/encoder/macroblock.c:814:25
	leaq	(%rsp,%rbp), %rdi
	addq	$128, %rdi
	movq	24(%rsp), %rsi                  # 8-byte Reload
	movq	40(%rsp), %rdx                  # 8-byte Reload
	movl	$16, %ecx
	callq	*33136(%rbx)
.Ltmp679:
.LBB8_151:                              # %if.end708
                                        #   in Loop: Header=BB8_149 Depth=1
	#DEBUG_VALUE: x264_macroblock_encode:h <- $rbx
	#DEBUG_VALUE: x264_macroblock_encode:b_decimate <- [DW_OP_plus_uconst 8, DW_OP_deref] $rsp
	#DEBUG_VALUE: i_decimate_mb <- [DW_OP_plus_uconst 36, DW_OP_deref] $rsp
	#DEBUG_VALUE: i8x8 <- [DW_OP_consts 128, DW_OP_div, DW_OP_stack_value] $rbp
	#DEBUG_VALUE: i4x4 <- 0
	#DEBUG_VALUE: cbp <- 0
	#DEBUG_VALUE: i_decimate_8x8 <- 0
	#DEBUG_VALUE: idx <- [DW_OP_consts 128, DW_OP_div, DW_OP_consts 4, DW_OP_mul, DW_OP_stack_value] $rbp
	#DEBUG_VALUE: x264_quant_4x4:dct <- [DW_OP_LLVM_arg 0, DW_OP_consts 128, DW_OP_div, DW_OP_consts 128, DW_OP_mul, DW_OP_LLVM_arg 1, DW_OP_plus_uconst 128, DW_OP_plus, DW_OP_stack_value] $rbp, $rsp
	#DEBUG_VALUE: x264_quant_4x4:h <- $rbx
	#DEBUG_VALUE: x264_quant_4x4:i_ctxBlockCat <- 2
	#DEBUG_VALUE: x264_quant_4x4:b_intra <- 0
	#DEBUG_VALUE: x264_quant_4x4:idx <- [DW_OP_consts 128, DW_OP_div, DW_OP_consts 4, DW_OP_mul, DW_OP_stack_value] $rbp
	#DEBUG_VALUE: x264_quant_4x4:i_quant_cat <- [DW_OP_stack_value] 1
	.loc	0 84 15                         # x264_src/encoder/macroblock.c:84:15
	leaq	(%rsp,%rbp), %rcx
	addq	$128, %rcx
	.loc	0 84 9 is_stmt 0                # x264_src/encoder/macroblock.c:84:9
	cmpl	$0, 16416(%rbx)
.Ltmp680:
	#DEBUG_VALUE: x264_quant_4x4:i_qp <- undef
	.loc	0 0 9                           # x264_src/encoder/macroblock.c:0:9
	movq	%rcx, 112(%rsp)                 # 8-byte Spill
.Ltmp681:
	.loc	0 84 9                          # x264_src/encoder/macroblock.c:84:9
	je	.LBB8_153
.Ltmp682:
# %bb.152:                              # %if.then.i1429
                                        #   in Loop: Header=BB8_149 Depth=1
	#DEBUG_VALUE: x264_macroblock_encode:h <- $rbx
	#DEBUG_VALUE: x264_macroblock_encode:b_decimate <- [DW_OP_plus_uconst 8, DW_OP_deref] $rsp
	#DEBUG_VALUE: i_decimate_mb <- [DW_OP_plus_uconst 36, DW_OP_deref] $rsp
	#DEBUG_VALUE: i8x8 <- [DW_OP_consts 128, DW_OP_div, DW_OP_stack_value] $rbp
	#DEBUG_VALUE: i4x4 <- 0
	#DEBUG_VALUE: cbp <- 0
	#DEBUG_VALUE: i_decimate_8x8 <- 0
	#DEBUG_VALUE: idx <- [DW_OP_consts 128, DW_OP_div, DW_OP_consts 4, DW_OP_mul, DW_OP_stack_value] $rbp
	#DEBUG_VALUE: x264_quant_4x4:dct <- [DW_OP_LLVM_arg 0, DW_OP_consts 128, DW_OP_div, DW_OP_consts 128, DW_OP_mul, DW_OP_LLVM_arg 1, DW_OP_plus_uconst 128, DW_OP_plus, DW_OP_stack_value] $rbp, $rsp
	#DEBUG_VALUE: x264_quant_4x4:h <- $rbx
	#DEBUG_VALUE: x264_quant_4x4:i_ctxBlockCat <- 2
	#DEBUG_VALUE: x264_quant_4x4:b_intra <- 0
	#DEBUG_VALUE: x264_quant_4x4:idx <- [DW_OP_consts 128, DW_OP_div, DW_OP_consts 4, DW_OP_mul, DW_OP_stack_value] $rbp
	#DEBUG_VALUE: x264_quant_4x4:i_quant_cat <- [DW_OP_stack_value] 1
	#DEBUG_VALUE: x264_quant_4x4:i_quant_cat <- 1
	.loc	0 85 16 is_stmt 1               # x264_src/encoder/macroblock.c:85:16
	leal	16(%r14), %eax
	movq	%rbx, %rdi
	movq	%rcx, %rsi
	movl	$1, %edx
	movq	(%rsp), %rcx                    # 8-byte Reload
                                        # kill: def $ecx killed $ecx killed $rcx
	movl	$2, %r8d
	xorl	%r9d, %r9d
	pushq	%rax
.Ltmp683:
	.cfi_adjust_cfa_offset 8
	pushq	$0
	.cfi_adjust_cfa_offset 8
	callq	x264_quant_4x4_trellis@PLT
.Ltmp684:
	addq	$16, %rsp
	.cfi_adjust_cfa_offset -16
	.loc	0 85 9 is_stmt 0                # x264_src/encoder/macroblock.c:85:9
	jmp	.LBB8_154
.Ltmp685:
	.p2align	4, 0x90
.LBB8_153:                              # %if.else.i1432
                                        #   in Loop: Header=BB8_149 Depth=1
	#DEBUG_VALUE: x264_macroblock_encode:h <- $rbx
	#DEBUG_VALUE: x264_macroblock_encode:b_decimate <- [DW_OP_plus_uconst 8, DW_OP_deref] $rsp
	#DEBUG_VALUE: i_decimate_mb <- [DW_OP_plus_uconst 36, DW_OP_deref] $rsp
	#DEBUG_VALUE: i8x8 <- [DW_OP_consts 128, DW_OP_div, DW_OP_stack_value] $rbp
	#DEBUG_VALUE: i4x4 <- 0
	#DEBUG_VALUE: cbp <- 0
	#DEBUG_VALUE: i_decimate_8x8 <- 0
	#DEBUG_VALUE: idx <- [DW_OP_consts 128, DW_OP_div, DW_OP_consts 4, DW_OP_mul, DW_OP_stack_value] $rbp
	#DEBUG_VALUE: x264_quant_4x4:dct <- [DW_OP_LLVM_arg 0, DW_OP_consts 128, DW_OP_div, DW_OP_consts 128, DW_OP_mul, DW_OP_LLVM_arg 1, DW_OP_plus_uconst 128, DW_OP_plus, DW_OP_stack_value] $rbp, $rsp
	#DEBUG_VALUE: x264_quant_4x4:h <- $rbx
	#DEBUG_VALUE: x264_quant_4x4:i_ctxBlockCat <- 2
	#DEBUG_VALUE: x264_quant_4x4:b_intra <- 0
	#DEBUG_VALUE: x264_quant_4x4:idx <- [DW_OP_consts 128, DW_OP_div, DW_OP_consts 4, DW_OP_mul, DW_OP_stack_value] $rbp
	#DEBUG_VALUE: x264_quant_4x4:i_quant_cat <- [DW_OP_stack_value] 1
	.loc	0 0 9                           # x264_src/encoder/macroblock.c:0:9
	movq	3448(%rbx), %rsi
	movq	104(%rsp), %rax                 # 8-byte Reload
	.loc	0 87 42 is_stmt 1               # x264_src/encoder/macroblock.c:87:42
	addq	%rax, %rsi
	movq	3496(%rbx), %rdx
	.loc	0 87 75 is_stmt 0               # x264_src/encoder/macroblock.c:87:75
	addq	%rax, %rdx
	.loc	0 87 16                         # x264_src/encoder/macroblock.c:87:16
	movq	%rcx, %rdi
	callq	*33088(%rbx)
.Ltmp686:
.LBB8_154:                              # %x264_quant_4x4.exit
                                        #   in Loop: Header=BB8_149 Depth=1
	#DEBUG_VALUE: x264_macroblock_encode:h <- $rbx
	#DEBUG_VALUE: x264_macroblock_encode:b_decimate <- [DW_OP_plus_uconst 8, DW_OP_deref] $rsp
	#DEBUG_VALUE: i_decimate_mb <- [DW_OP_plus_uconst 36, DW_OP_deref] $rsp
	#DEBUG_VALUE: i8x8 <- [DW_OP_consts 128, DW_OP_div, DW_OP_stack_value] $rbp
	#DEBUG_VALUE: i4x4 <- 0
	#DEBUG_VALUE: cbp <- 0
	#DEBUG_VALUE: i_decimate_8x8 <- 0
	#DEBUG_VALUE: idx <- [DW_OP_consts 128, DW_OP_div, DW_OP_consts 4, DW_OP_mul, DW_OP_stack_value] $rbp
	#DEBUG_VALUE: x264_macroblock_encode:nz <- $eax
	.loc	0 0 16                          # x264_src/encoder/macroblock.c:0:16
	movq	%r12, 96(%rsp)                  # 8-byte Spill
	.loc	0 816 48 is_stmt 1              # x264_src/encoder/macroblock.c:816:48
	movslq	x264_scan8+64(,%r14,4), %rcx
	movq	%rcx, 120(%rsp)                 # 8-byte Spill
	.loc	0 816 65 is_stmt 0              # x264_src/encoder/macroblock.c:816:65
	movb	%al, 25072(%rbx,%rcx)
	xorl	%r15d, %r15d
.Ltmp687:
	.loc	0 818 25 is_stmt 1              # x264_src/encoder/macroblock.c:818:25
	testl	%eax, %eax
.Ltmp688:
	.loc	0 818 25 is_stmt 0              # x264_src/encoder/macroblock.c:818:25
	je	.LBB8_155
.Ltmp689:
# %bb.156:                              # %if.then722
                                        #   in Loop: Header=BB8_149 Depth=1
	#DEBUG_VALUE: x264_macroblock_encode:h <- $rbx
	#DEBUG_VALUE: x264_macroblock_encode:b_decimate <- [DW_OP_plus_uconst 8, DW_OP_deref] $rsp
	#DEBUG_VALUE: i_decimate_mb <- [DW_OP_plus_uconst 36, DW_OP_deref] $rsp
	#DEBUG_VALUE: x264_macroblock_encode:nz <- $eax
	#DEBUG_VALUE: i8x8 <- [DW_OP_consts 128, DW_OP_div, DW_OP_stack_value] $rbp
	#DEBUG_VALUE: i4x4 <- 0
	#DEBUG_VALUE: cbp <- 0
	#DEBUG_VALUE: i_decimate_8x8 <- 0
	#DEBUG_VALUE: idx <- [DW_OP_consts 128, DW_OP_div, DW_OP_consts 4, DW_OP_mul, DW_OP_stack_value] $rbp
	.loc	0 820 25 is_stmt 1              # x264_src/encoder/macroblock.c:820:25
	leaq	(%rbx,%rbp), %r12
	addq	$15600, %r12                    # imm = 0x3CF0
	movq	%r12, %rdi
	movq	112(%rsp), %r13                 # 8-byte Reload
	movq	%r13, %rsi
	callq	*33040(%rbx)
.Ltmp690:
	.loc	0 821 61                        # x264_src/encoder/macroblock.c:821:61
	movq	3352(%rbx), %rsi
	.loc	0 821 25 is_stmt 0              # x264_src/encoder/macroblock.c:821:25
	movq	%r13, %rdi
	movq	(%rsp), %rdx                    # 8-byte Reload
                                        # kill: def $edx killed $edx killed $rdx
	callq	*33120(%rbx)
.Ltmp691:
	.loc	0 0 25                          # x264_src/encoder/macroblock.c:0:25
	movl	$1, 56(%rsp)                    # 4-byte Folded Spill
	cmpl	$0, 8(%rsp)                     # 4-byte Folded Reload
.Ltmp692:
	.loc	0 822 40 is_stmt 1              # x264_src/encoder/macroblock.c:822:40
	je	.LBB8_158
.Ltmp693:
# %bb.157:                              # %if.then741
                                        #   in Loop: Header=BB8_149 Depth=1
	#DEBUG_VALUE: x264_macroblock_encode:h <- $rbx
	#DEBUG_VALUE: x264_macroblock_encode:b_decimate <- [DW_OP_plus_uconst 8, DW_OP_deref] $rsp
	#DEBUG_VALUE: i_decimate_mb <- [DW_OP_plus_uconst 36, DW_OP_deref] $rsp
	#DEBUG_VALUE: i8x8 <- [DW_OP_consts 128, DW_OP_div, DW_OP_stack_value] $rbp
	#DEBUG_VALUE: i4x4 <- 0
	#DEBUG_VALUE: cbp <- 0
	#DEBUG_VALUE: i_decimate_8x8 <- 0
	#DEBUG_VALUE: idx <- [DW_OP_consts 128, DW_OP_div, DW_OP_consts 4, DW_OP_mul, DW_OP_stack_value] $rbp
	.loc	0 823 47                        # x264_src/encoder/macroblock.c:823:47
	movq	%r12, %rdi
	callq	*33152(%rbx)
.Ltmp694:
	movl	%eax, %r15d
.Ltmp695:
	#DEBUG_VALUE: i_decimate_8x8 <- $r15d
.LBB8_158:                              # %if.end751
                                        #   in Loop: Header=BB8_149 Depth=1
	#DEBUG_VALUE: x264_macroblock_encode:h <- $rbx
	#DEBUG_VALUE: x264_macroblock_encode:b_decimate <- [DW_OP_plus_uconst 8, DW_OP_deref] $rsp
	#DEBUG_VALUE: i_decimate_mb <- [DW_OP_plus_uconst 36, DW_OP_deref] $rsp
	#DEBUG_VALUE: i8x8 <- [DW_OP_consts 128, DW_OP_div, DW_OP_stack_value] $rbp
	#DEBUG_VALUE: i4x4 <- 0
	#DEBUG_VALUE: cbp <- 0
	#DEBUG_VALUE: idx <- [DW_OP_consts 128, DW_OP_div, DW_OP_consts 4, DW_OP_mul, DW_OP_stack_value] $rbp
	#DEBUG_VALUE: cbp <- [DW_OP_plus_uconst 56, DW_OP_deref] $rsp
	#DEBUG_VALUE: i_decimate_8x8 <- $r15d
	#DEBUG_VALUE: i4x4 <- 1
	#DEBUG_VALUE: idx <- [DW_OP_consts 128, DW_OP_div, DW_OP_consts 4, DW_OP_mul, DW_OP_consts 1, DW_OP_plus, DW_OP_stack_value] $rbp
	.loc	0 813 25                        # x264_src/encoder/macroblock.c:813:25
	cmpl	$0, 16420(%rbx)
.Ltmp696:
	.loc	0 813 25 is_stmt 0              # x264_src/encoder/macroblock.c:813:25
	je	.LBB8_160
.Ltmp697:
.LBB8_159:                              # %if.then696.1
                                        #   in Loop: Header=BB8_149 Depth=1
	#DEBUG_VALUE: x264_macroblock_encode:h <- $rbx
	#DEBUG_VALUE: x264_macroblock_encode:b_decimate <- [DW_OP_plus_uconst 8, DW_OP_deref] $rsp
	#DEBUG_VALUE: i_decimate_mb <- [DW_OP_plus_uconst 36, DW_OP_deref] $rsp
	#DEBUG_VALUE: i8x8 <- [DW_OP_consts 128, DW_OP_div, DW_OP_stack_value] $rbp
	#DEBUG_VALUE: i4x4 <- 1
	#DEBUG_VALUE: cbp <- [DW_OP_plus_uconst 56, DW_OP_deref] $rsp
	#DEBUG_VALUE: i_decimate_8x8 <- $r15d
	#DEBUG_VALUE: idx <- [DW_OP_consts 128, DW_OP_div, DW_OP_consts 4, DW_OP_mul, DW_OP_consts 1, DW_OP_plus, DW_OP_stack_value] $rbp
	.loc	0 814 25 is_stmt 1              # x264_src/encoder/macroblock.c:814:25
	leaq	(%rsp,%rbp), %rdi
	addq	$160, %rdi
	movq	24(%rsp), %rsi                  # 8-byte Reload
	movq	40(%rsp), %rdx                  # 8-byte Reload
	movl	$16, %ecx
	callq	*33136(%rbx)
.Ltmp698:
.LBB8_160:                              # %if.end708.1
                                        #   in Loop: Header=BB8_149 Depth=1
	#DEBUG_VALUE: x264_macroblock_encode:h <- $rbx
	#DEBUG_VALUE: x264_macroblock_encode:b_decimate <- [DW_OP_plus_uconst 8, DW_OP_deref] $rsp
	#DEBUG_VALUE: i_decimate_mb <- [DW_OP_plus_uconst 36, DW_OP_deref] $rsp
	#DEBUG_VALUE: i8x8 <- [DW_OP_consts 128, DW_OP_div, DW_OP_stack_value] $rbp
	#DEBUG_VALUE: i4x4 <- 1
	#DEBUG_VALUE: cbp <- [DW_OP_plus_uconst 56, DW_OP_deref] $rsp
	#DEBUG_VALUE: i_decimate_8x8 <- $r15d
	#DEBUG_VALUE: idx <- [DW_OP_consts 128, DW_OP_div, DW_OP_consts 4, DW_OP_mul, DW_OP_consts 1, DW_OP_plus, DW_OP_stack_value] $rbp
	#DEBUG_VALUE: x264_quant_4x4:dct <- [DW_OP_LLVM_arg 0, DW_OP_consts 128, DW_OP_div, DW_OP_consts 128, DW_OP_mul, DW_OP_consts 32, DW_OP_LLVM_arg 1, DW_OP_plus_uconst 128, DW_OP_plus, DW_OP_plus, DW_OP_stack_value] $rbp, $rsp
	#DEBUG_VALUE: x264_quant_4x4:h <- $rbx
	#DEBUG_VALUE: x264_quant_4x4:i_ctxBlockCat <- 2
	#DEBUG_VALUE: x264_quant_4x4:b_intra <- 0
	#DEBUG_VALUE: x264_quant_4x4:idx <- [DW_OP_consts 128, DW_OP_div, DW_OP_consts 4, DW_OP_mul, DW_OP_consts 1, DW_OP_plus, DW_OP_stack_value] $rbp
	#DEBUG_VALUE: x264_quant_4x4:i_quant_cat <- [DW_OP_stack_value] 1
	.loc	0 84 15                         # x264_src/encoder/macroblock.c:84:15
	leaq	(%rsp,%rbp), %r12
	addq	$160, %r12
	.loc	0 84 9 is_stmt 0                # x264_src/encoder/macroblock.c:84:9
	cmpl	$0, 16416(%rbx)
.Ltmp699:
	#DEBUG_VALUE: x264_quant_4x4:i_qp <- undef
	.loc	0 84 9                          # x264_src/encoder/macroblock.c:84:9
	je	.LBB8_162
.Ltmp700:
# %bb.161:                              # %if.then.i1429.1
                                        #   in Loop: Header=BB8_149 Depth=1
	#DEBUG_VALUE: x264_macroblock_encode:h <- $rbx
	#DEBUG_VALUE: x264_macroblock_encode:b_decimate <- [DW_OP_plus_uconst 8, DW_OP_deref] $rsp
	#DEBUG_VALUE: i_decimate_mb <- [DW_OP_plus_uconst 36, DW_OP_deref] $rsp
	#DEBUG_VALUE: i8x8 <- [DW_OP_consts 128, DW_OP_div, DW_OP_stack_value] $rbp
	#DEBUG_VALUE: i4x4 <- 1
	#DEBUG_VALUE: cbp <- [DW_OP_plus_uconst 56, DW_OP_deref] $rsp
	#DEBUG_VALUE: i_decimate_8x8 <- $r15d
	#DEBUG_VALUE: idx <- [DW_OP_consts 128, DW_OP_div, DW_OP_consts 4, DW_OP_mul, DW_OP_consts 1, DW_OP_plus, DW_OP_stack_value] $rbp
	#DEBUG_VALUE: x264_quant_4x4:dct <- [DW_OP_LLVM_arg 0, DW_OP_consts 128, DW_OP_div, DW_OP_consts 128, DW_OP_mul, DW_OP_consts 32, DW_OP_LLVM_arg 1, DW_OP_plus_uconst 128, DW_OP_plus, DW_OP_plus, DW_OP_stack_value] $rbp, $rsp
	#DEBUG_VALUE: x264_quant_4x4:h <- $rbx
	#DEBUG_VALUE: x264_quant_4x4:i_ctxBlockCat <- 2
	#DEBUG_VALUE: x264_quant_4x4:b_intra <- 0
	#DEBUG_VALUE: x264_quant_4x4:idx <- [DW_OP_consts 128, DW_OP_div, DW_OP_consts 4, DW_OP_mul, DW_OP_consts 1, DW_OP_plus, DW_OP_stack_value] $rbp
	#DEBUG_VALUE: x264_quant_4x4:i_quant_cat <- [DW_OP_stack_value] 1
	#DEBUG_VALUE: x264_quant_4x4:i_quant_cat <- 1
	.loc	0 85 16 is_stmt 1               # x264_src/encoder/macroblock.c:85:16
	leal	17(%r14), %eax
	movq	%rbx, %rdi
	movq	%r12, %rsi
	movl	$1, %edx
	movq	(%rsp), %rcx                    # 8-byte Reload
                                        # kill: def $ecx killed $ecx killed $rcx
	movl	$2, %r8d
	xorl	%r9d, %r9d
	pushq	%rax
.Ltmp701:
	.cfi_adjust_cfa_offset 8
	pushq	$0
	.cfi_adjust_cfa_offset 8
	callq	x264_quant_4x4_trellis@PLT
.Ltmp702:
	addq	$16, %rsp
.Ltmp703:
	.cfi_adjust_cfa_offset -16
	#DEBUG_VALUE: x264_macroblock_encode:nz <- $eax
	.loc	0 816 48                        # x264_src/encoder/macroblock.c:816:48
	movslq	x264_scan8+68(,%r14,4), %rcx
	.loc	0 816 65 is_stmt 0              # x264_src/encoder/macroblock.c:816:65
	movb	%al, 25072(%rbx,%rcx)
.Ltmp704:
	.loc	0 818 25 is_stmt 1              # x264_src/encoder/macroblock.c:818:25
	testl	%eax, %eax
.Ltmp705:
	.loc	0 818 25 is_stmt 0              # x264_src/encoder/macroblock.c:818:25
	jne	.LBB8_164
	jmp	.LBB8_167
.Ltmp706:
	.p2align	4, 0x90
.LBB8_155:                              #   in Loop: Header=BB8_149 Depth=1
	#DEBUG_VALUE: x264_macroblock_encode:h <- $rbx
	#DEBUG_VALUE: x264_macroblock_encode:b_decimate <- [DW_OP_plus_uconst 8, DW_OP_deref] $rsp
	#DEBUG_VALUE: i_decimate_mb <- [DW_OP_plus_uconst 36, DW_OP_deref] $rsp
	#DEBUG_VALUE: x264_macroblock_encode:nz <- $eax
	#DEBUG_VALUE: i8x8 <- [DW_OP_consts 128, DW_OP_div, DW_OP_stack_value] $rbp
	#DEBUG_VALUE: i4x4 <- 0
	#DEBUG_VALUE: cbp <- 0
	#DEBUG_VALUE: i_decimate_8x8 <- 0
	#DEBUG_VALUE: idx <- [DW_OP_consts 128, DW_OP_div, DW_OP_consts 4, DW_OP_mul, DW_OP_stack_value] $rbp
	.loc	0 0 25                          # x264_src/encoder/macroblock.c:0:25
	movl	$0, 56(%rsp)                    # 4-byte Folded Spill
.Ltmp707:
	#DEBUG_VALUE: cbp <- [DW_OP_plus_uconst 56, DW_OP_deref] $rsp
	#DEBUG_VALUE: i_decimate_8x8 <- $r15d
	#DEBUG_VALUE: i4x4 <- 1
	#DEBUG_VALUE: idx <- [DW_OP_consts 128, DW_OP_div, DW_OP_consts 4, DW_OP_mul, DW_OP_consts 1, DW_OP_plus, DW_OP_stack_value] $rbp
	.loc	0 813 25 is_stmt 1              # x264_src/encoder/macroblock.c:813:25
	cmpl	$0, 16420(%rbx)
.Ltmp708:
	.loc	0 813 25 is_stmt 0              # x264_src/encoder/macroblock.c:813:25
	jne	.LBB8_159
	jmp	.LBB8_160
.Ltmp709:
	.p2align	4, 0x90
.LBB8_162:                              # %if.else.i1432.1
                                        #   in Loop: Header=BB8_149 Depth=1
	#DEBUG_VALUE: x264_macroblock_encode:h <- $rbx
	#DEBUG_VALUE: x264_macroblock_encode:b_decimate <- [DW_OP_plus_uconst 8, DW_OP_deref] $rsp
	#DEBUG_VALUE: i_decimate_mb <- [DW_OP_plus_uconst 36, DW_OP_deref] $rsp
	#DEBUG_VALUE: i8x8 <- [DW_OP_consts 128, DW_OP_div, DW_OP_stack_value] $rbp
	#DEBUG_VALUE: i4x4 <- 1
	#DEBUG_VALUE: cbp <- [DW_OP_plus_uconst 56, DW_OP_deref] $rsp
	#DEBUG_VALUE: i_decimate_8x8 <- $r15d
	#DEBUG_VALUE: idx <- [DW_OP_consts 128, DW_OP_div, DW_OP_consts 4, DW_OP_mul, DW_OP_consts 1, DW_OP_plus, DW_OP_stack_value] $rbp
	#DEBUG_VALUE: x264_quant_4x4:dct <- [DW_OP_LLVM_arg 0, DW_OP_consts 128, DW_OP_div, DW_OP_consts 128, DW_OP_mul, DW_OP_consts 32, DW_OP_LLVM_arg 1, DW_OP_plus_uconst 128, DW_OP_plus, DW_OP_plus, DW_OP_stack_value] $rbp, $rsp
	#DEBUG_VALUE: x264_quant_4x4:h <- $rbx
	#DEBUG_VALUE: x264_quant_4x4:i_ctxBlockCat <- 2
	#DEBUG_VALUE: x264_quant_4x4:b_intra <- 0
	#DEBUG_VALUE: x264_quant_4x4:idx <- [DW_OP_consts 128, DW_OP_div, DW_OP_consts 4, DW_OP_mul, DW_OP_consts 1, DW_OP_plus, DW_OP_stack_value] $rbp
	#DEBUG_VALUE: x264_quant_4x4:i_quant_cat <- [DW_OP_stack_value] 1
	.loc	0 0 25                          # x264_src/encoder/macroblock.c:0:25
	movq	3448(%rbx), %rsi
	movq	104(%rsp), %rax                 # 8-byte Reload
.Ltmp710:
	.loc	0 87 42 is_stmt 1               # x264_src/encoder/macroblock.c:87:42
	addq	%rax, %rsi
	movq	3496(%rbx), %rdx
	.loc	0 87 75 is_stmt 0               # x264_src/encoder/macroblock.c:87:75
	addq	%rax, %rdx
	.loc	0 87 16                         # x264_src/encoder/macroblock.c:87:16
	movq	%r12, %rdi
	callq	*33088(%rbx)
.Ltmp711:
	#DEBUG_VALUE: x264_macroblock_encode:nz <- $eax
	.loc	0 816 48 is_stmt 1              # x264_src/encoder/macroblock.c:816:48
	movslq	x264_scan8+68(,%r14,4), %rcx
	.loc	0 816 65 is_stmt 0              # x264_src/encoder/macroblock.c:816:65
	movb	%al, 25072(%rbx,%rcx)
.Ltmp712:
	.loc	0 818 25 is_stmt 1              # x264_src/encoder/macroblock.c:818:25
	testl	%eax, %eax
.Ltmp713:
	.loc	0 818 25 is_stmt 0              # x264_src/encoder/macroblock.c:818:25
	je	.LBB8_167
.Ltmp714:
.LBB8_164:                              # %if.then722.1
                                        #   in Loop: Header=BB8_149 Depth=1
	#DEBUG_VALUE: x264_macroblock_encode:h <- $rbx
	#DEBUG_VALUE: x264_macroblock_encode:b_decimate <- [DW_OP_plus_uconst 8, DW_OP_deref] $rsp
	#DEBUG_VALUE: i_decimate_mb <- [DW_OP_plus_uconst 36, DW_OP_deref] $rsp
	#DEBUG_VALUE: x264_macroblock_encode:nz <- $eax
	#DEBUG_VALUE: i8x8 <- [DW_OP_consts 128, DW_OP_div, DW_OP_stack_value] $rbp
	#DEBUG_VALUE: i4x4 <- 1
	#DEBUG_VALUE: cbp <- [DW_OP_plus_uconst 56, DW_OP_deref] $rsp
	#DEBUG_VALUE: i_decimate_8x8 <- $r15d
	#DEBUG_VALUE: idx <- [DW_OP_consts 128, DW_OP_div, DW_OP_consts 4, DW_OP_mul, DW_OP_consts 1, DW_OP_plus, DW_OP_stack_value] $rbp
	.loc	0 820 25 is_stmt 1              # x264_src/encoder/macroblock.c:820:25
	leaq	(%rbx,%rbp), %r13
	addq	$15632, %r13                    # imm = 0x3D10
	movq	%r13, %rdi
	movq	%r12, %rsi
	callq	*33040(%rbx)
.Ltmp715:
	.loc	0 821 61                        # x264_src/encoder/macroblock.c:821:61
	movq	3352(%rbx), %rsi
	.loc	0 821 25 is_stmt 0              # x264_src/encoder/macroblock.c:821:25
	movq	%r12, %rdi
	movq	(%rsp), %rdx                    # 8-byte Reload
                                        # kill: def $edx killed $edx killed $rdx
	callq	*33120(%rbx)
.Ltmp716:
	.loc	0 0 25                          # x264_src/encoder/macroblock.c:0:25
	movl	$1, 56(%rsp)                    # 4-byte Folded Spill
.Ltmp717:
	#DEBUG_VALUE: cbp <- undef
	cmpl	$0, 8(%rsp)                     # 4-byte Folded Reload
.Ltmp718:
	.loc	0 822 40 is_stmt 1              # x264_src/encoder/macroblock.c:822:40
	je	.LBB8_167
.Ltmp719:
# %bb.165:                              # %if.then722.1
                                        #   in Loop: Header=BB8_149 Depth=1
	#DEBUG_VALUE: x264_macroblock_encode:h <- $rbx
	#DEBUG_VALUE: x264_macroblock_encode:b_decimate <- [DW_OP_plus_uconst 8, DW_OP_deref] $rsp
	#DEBUG_VALUE: i_decimate_mb <- [DW_OP_plus_uconst 36, DW_OP_deref] $rsp
	#DEBUG_VALUE: i8x8 <- [DW_OP_consts 128, DW_OP_div, DW_OP_stack_value] $rbp
	#DEBUG_VALUE: i4x4 <- 1
	#DEBUG_VALUE: i_decimate_8x8 <- $r15d
	#DEBUG_VALUE: idx <- [DW_OP_consts 128, DW_OP_div, DW_OP_consts 4, DW_OP_mul, DW_OP_consts 1, DW_OP_plus, DW_OP_stack_value] $rbp
	cmpl	$5, %r15d
	jg	.LBB8_167
.Ltmp720:
# %bb.166:                              # %if.then741.1
                                        #   in Loop: Header=BB8_149 Depth=1
	#DEBUG_VALUE: x264_macroblock_encode:h <- $rbx
	#DEBUG_VALUE: x264_macroblock_encode:b_decimate <- [DW_OP_plus_uconst 8, DW_OP_deref] $rsp
	#DEBUG_VALUE: i_decimate_mb <- [DW_OP_plus_uconst 36, DW_OP_deref] $rsp
	#DEBUG_VALUE: i8x8 <- [DW_OP_consts 128, DW_OP_div, DW_OP_stack_value] $rbp
	#DEBUG_VALUE: i4x4 <- 1
	#DEBUG_VALUE: i_decimate_8x8 <- $r15d
	#DEBUG_VALUE: idx <- [DW_OP_consts 128, DW_OP_div, DW_OP_consts 4, DW_OP_mul, DW_OP_consts 1, DW_OP_plus, DW_OP_stack_value] $rbp
	.loc	0 823 47                        # x264_src/encoder/macroblock.c:823:47
	movq	%r13, %rdi
	callq	*33152(%rbx)
.Ltmp721:
	.loc	0 823 44 is_stmt 0              # x264_src/encoder/macroblock.c:823:44
	addl	%eax, %r15d
.Ltmp722:
	#DEBUG_VALUE: i_decimate_8x8 <- $r15d
.LBB8_167:                              # %if.end751.1
                                        #   in Loop: Header=BB8_149 Depth=1
	#DEBUG_VALUE: x264_macroblock_encode:h <- $rbx
	#DEBUG_VALUE: x264_macroblock_encode:b_decimate <- [DW_OP_plus_uconst 8, DW_OP_deref] $rsp
	#DEBUG_VALUE: i_decimate_mb <- [DW_OP_plus_uconst 36, DW_OP_deref] $rsp
	#DEBUG_VALUE: i8x8 <- [DW_OP_consts 128, DW_OP_div, DW_OP_stack_value] $rbp
	#DEBUG_VALUE: i4x4 <- 1
	#DEBUG_VALUE: i_decimate_8x8 <- $r15d
	#DEBUG_VALUE: idx <- [DW_OP_consts 128, DW_OP_div, DW_OP_consts 4, DW_OP_mul, DW_OP_consts 1, DW_OP_plus, DW_OP_stack_value] $rbp
	#DEBUG_VALUE: cbp <- [DW_OP_plus_uconst 56, DW_OP_deref] $rsp
	#DEBUG_VALUE: i_decimate_8x8 <- $r15d
	#DEBUG_VALUE: i4x4 <- 2
	#DEBUG_VALUE: idx <- [DW_OP_consts 128, DW_OP_div, DW_OP_consts 4, DW_OP_mul, DW_OP_consts 2, DW_OP_plus, DW_OP_stack_value] $rbp
	.loc	0 813 25 is_stmt 1              # x264_src/encoder/macroblock.c:813:25
	cmpl	$0, 16420(%rbx)
.Ltmp723:
	.loc	0 813 25 is_stmt 0              # x264_src/encoder/macroblock.c:813:25
	je	.LBB8_169
.Ltmp724:
# %bb.168:                              # %if.then696.2
                                        #   in Loop: Header=BB8_149 Depth=1
