	.text
	.file	"ratecontrol.c"
	.file	0 "/home/yjs/workspace/x264-test/src" "x264_src/encoder/ratecontrol.c" md5 0x3bb55dbdd06cfac0d584117dca42ff36
	.file	1 "x264_src/common" "common.h" md5 0x5afac7bf2f5673f1628c455d7d320ad7
	.file	2 "x264_src/common" "macroblock.h" md5 0x15f4a9c1d53f4196a5f2b80807bb8b1a
	.file	3 "x264_src/common" "pixel.h" md5 0xe9056d80edbb4dc2514d271d596c298e
	.file	4 "/usr/include/x86_64-linux-gnu/bits" "types.h" md5 0xd108b5f93a74c50510d7d9bc0ab36df9
	.file	5 "/usr/include/x86_64-linux-gnu/bits" "stdint-intn.h" md5 0x55bcbdc3159515ebd91d351a70d505f4
	.file	6 "/usr/include/x86_64-linux-gnu/bits" "stdint-uintn.h" md5 0x2bf2ae53c58c01b1a1b9383b5195125c
	.section	.rodata.cst4,"aM",@progbits,4
	.p2align	2, 0x0                          # -- Begin function x264_adaptive_quant_frame
.LCPI0_0:
	.long	0x3f8514e4                      # float 1.03970003
.LCPI0_1:
	.long	0x3e000000                      # float 0.125
.LCPI0_2:
	.long	0xc1600000                      # float -14
.LCPI0_3:
	.long	0xbf000000                      # float -0.5
.LCPI0_4:
	.long	0xc166d4fe                      # float -14.427
.LCPI0_5:
	.long	0xc12aaaab                      # float -10.666667
.LCPI0_6:
	.long	0x44002000                      # float 512.5
	.text
	.globl	x264_adaptive_quant_frame
	.p2align	4, 0x90
	.type	x264_adaptive_quant_frame,@function
x264_adaptive_quant_frame:              # @x264_adaptive_quant_frame
.Lfunc_begin0:
	.loc	0 237 0                         # x264_src/encoder/ratecontrol.c:237:0
	.cfi_startproc
# %bb.0:                                # %entry
	#DEBUG_VALUE: x264_adaptive_quant_frame:h <- $rdi
	#DEBUG_VALUE: x264_adaptive_quant_frame:frame <- $rsi
	pushq	%rbp
	.cfi_def_cfa_offset 16
	pushq	%r15
	.cfi_def_cfa_offset 24
	pushq	%r14
	.cfi_def_cfa_offset 32
	pushq	%r13
	.cfi_def_cfa_offset 40
	pushq	%r12
	.cfi_def_cfa_offset 48
	pushq	%rbx
	.cfi_def_cfa_offset 56
	subq	$72, %rsp
	.cfi_def_cfa_offset 128
	.cfi_offset %rbx, -56
	.cfi_offset %r12, -48
	.cfi_offset %r13, -40
	.cfi_offset %r14, -32
	.cfi_offset %r15, -24
	.cfi_offset %rbp, -16
	movq	%rsi, %r12
	movq	%rdi, %r14
.Ltmp0:
	#DEBUG_VALUE: x264_adaptive_quant_frame:avg_adj <- 0.000000e+00
	.loc	0 243 21 prologue_end           # x264_src/encoder/ratecontrol.c:243:21
	movss	548(%rdi), %xmm2                # xmm2 = mem[0],zero,zero,zero
	xorps	%xmm0, %xmm0
	.loc	0 243 35 is_stmt 0              # x264_src/encoder/ratecontrol.c:243:35
	ucomiss	%xmm0, %xmm2
.Ltmp1:
	.loc	0 243 9                         # x264_src/encoder/ratecontrol.c:243:9
	jne	.LBB0_5
	jp	.LBB0_5
.Ltmp2:
# %bb.1:                                # %if.then
	#DEBUG_VALUE: x264_adaptive_quant_frame:h <- $r14
	#DEBUG_VALUE: x264_adaptive_quant_frame:frame <- $r12
	#DEBUG_VALUE: x264_adaptive_quant_frame:avg_adj <- 0.000000e+00
	.loc	0 245 24 is_stmt 1              # x264_src/encoder/ratecontrol.c:245:24
	movq	12152(%r12), %rdi
	.loc	0 245 46 is_stmt 0              # x264_src/encoder/ratecontrol.c:245:46
	movslq	16368(%r14), %rdx
	.loc	0 245 57                        # x264_src/encoder/ratecontrol.c:245:57
	shlq	$2, %rdx
	.loc	0 245 9                         # x264_src/encoder/ratecontrol.c:245:9
	xorl	%esi, %esi
	callq	memset@PLT
.Ltmp3:
	.loc	0 246 24 is_stmt 1              # x264_src/encoder/ratecontrol.c:246:24
	movq	12160(%r12), %rdi
	.loc	0 246 49 is_stmt 0              # x264_src/encoder/ratecontrol.c:246:49
	movslq	16368(%r14), %rdx
	.loc	0 246 60                        # x264_src/encoder/ratecontrol.c:246:60
	shlq	$2, %rdx
	.loc	0 246 9                         # x264_src/encoder/ratecontrol.c:246:9
	xorl	%esi, %esi
	callq	memset@PLT
.Ltmp4:
	.loc	0 247 13 is_stmt 1              # x264_src/encoder/ratecontrol.c:247:13
	cmpl	$0, 14672(%r14)
.Ltmp5:
	.loc	0 247 13 is_stmt 0              # x264_src/encoder/ratecontrol.c:247:13
	je	.LBB0_51
.Ltmp6:
# %bb.2:                                # %for.cond.preheader
	#DEBUG_VALUE: x264_adaptive_quant_frame:h <- $r14
	#DEBUG_VALUE: x264_adaptive_quant_frame:frame <- $r12
	#DEBUG_VALUE: x264_adaptive_quant_frame:avg_adj <- 0.000000e+00
	#DEBUG_VALUE: mb_xy <- 0
	.loc	0 248 39 is_stmt 1              # x264_src/encoder/ratecontrol.c:248:39
	cmpl	$0, 16368(%r14)
.Ltmp7:
	.loc	0 248 13 is_stmt 0              # x264_src/encoder/ratecontrol.c:248:13
	jle	.LBB0_51
.Ltmp8:
# %bb.3:                                # %for.body.lr.ph
	#DEBUG_VALUE: x264_adaptive_quant_frame:h <- $r14
	#DEBUG_VALUE: x264_adaptive_quant_frame:frame <- $r12
	#DEBUG_VALUE: x264_adaptive_quant_frame:avg_adj <- 0.000000e+00
	#DEBUG_VALUE: mb_xy <- 0
	.loc	0 0 13                          # x264_src/encoder/ratecontrol.c:0:13
	xorl	%eax, %eax
.Ltmp9:
	.p2align	4, 0x90
.LBB0_4:                                # %for.body
                                        # =>This Inner Loop Header: Depth=1
	#DEBUG_VALUE: x264_adaptive_quant_frame:h <- $r14
	#DEBUG_VALUE: x264_adaptive_quant_frame:frame <- $r12
	#DEBUG_VALUE: x264_adaptive_quant_frame:avg_adj <- 0.000000e+00
	#DEBUG_VALUE: mb_xy <- $rax
	.loc	0 249 24 is_stmt 1              # x264_src/encoder/ratecontrol.c:249:24
	movq	12192(%r12), %rcx
	.loc	0 249 51 is_stmt 0              # x264_src/encoder/ratecontrol.c:249:51
	movw	$256, (%rcx,%rax,2)             # imm = 0x100
	.loc	0 248 64 is_stmt 1              # x264_src/encoder/ratecontrol.c:248:64
	incq	%rax
.Ltmp10:
	#DEBUG_VALUE: mb_xy <- $rax
	.loc	0 248 47 is_stmt 0              # x264_src/encoder/ratecontrol.c:248:47
	movslq	16368(%r14), %rcx
	.loc	0 248 39                        # x264_src/encoder/ratecontrol.c:248:39
	cmpq	%rcx, %rax
.Ltmp11:
	.loc	0 248 13                        # x264_src/encoder/ratecontrol.c:248:13
	jl	.LBB0_4
	jmp	.LBB0_51
.Ltmp12:
.LBB0_5:                                # %if.end10
	#DEBUG_VALUE: x264_adaptive_quant_frame:h <- $r14
	#DEBUG_VALUE: x264_adaptive_quant_frame:frame <- $r12
	#DEBUG_VALUE: x264_adaptive_quant_frame:avg_adj <- 0.000000e+00
	.loc	0 253 31 is_stmt 1              # x264_src/encoder/ratecontrol.c:253:31
	cmpl	$2, 544(%r14)
	movq	%r12, 64(%rsp)                  # 8-byte Spill
.Ltmp13:
	#DEBUG_VALUE: x264_adaptive_quant_frame:frame <- [DW_OP_plus_uconst 64] [$rsp+0]
	.loc	0 0 31 is_stmt 0                # x264_src/encoder/ratecontrol.c:0:31
	movq	%r14, 56(%rsp)                  # 8-byte Spill
.Ltmp14:
	#DEBUG_VALUE: x264_adaptive_quant_frame:h <- [DW_OP_plus_uconst 56] [$rsp+0]
	.loc	0 253 9                         # x264_src/encoder/ratecontrol.c:253:9
	jne	.LBB0_22
.Ltmp15:
# %bb.6:                                # %for.cond16.preheader
	#DEBUG_VALUE: x264_adaptive_quant_frame:h <- [DW_OP_plus_uconst 56] [$rsp+0]
	#DEBUG_VALUE: x264_adaptive_quant_frame:frame <- [DW_OP_plus_uconst 64] [$rsp+0]
	#DEBUG_VALUE: x264_adaptive_quant_frame:avg_adj <- 0.000000e+00
	#DEBUG_VALUE: x264_adaptive_quant_frame:avg_adj <- 0.000000e+00
	#DEBUG_VALUE: mb_y <- 0
	#DEBUG_VALUE: avg_adj_pow2 <- 0.000000e+00
	.loc	0 256 38 is_stmt 1              # x264_src/encoder/ratecontrol.c:256:38
	movq	3200(%r14), %rax
	movss	%xmm0, 8(%rsp)                  # 4-byte Spill
	.loc	0 256 33 is_stmt 0              # x264_src/encoder/ratecontrol.c:256:33
	cmpl	$0, 1088(%rax)
.Ltmp16:
	.loc	0 256 9                         # x264_src/encoder/ratecontrol.c:256:9
	jle	.LBB0_25
.Ltmp17:
# %bb.7:                                # %for.cond21.preheader.lr.ph
	#DEBUG_VALUE: x264_adaptive_quant_frame:h <- [DW_OP_plus_uconst 56] [$rsp+0]
	#DEBUG_VALUE: x264_adaptive_quant_frame:frame <- [DW_OP_plus_uconst 64] [$rsp+0]
	#DEBUG_VALUE: x264_adaptive_quant_frame:avg_adj <- 0.000000e+00
	#DEBUG_VALUE: mb_y <- 0
	#DEBUG_VALUE: avg_adj_pow2 <- 0.000000e+00
	.loc	0 257 37 is_stmt 1              # x264_src/encoder/ratecontrol.c:257:37
	cmpl	$0, 1084(%rax)
	jle	.LBB0_25
.Ltmp18:
# %bb.8:                                # %for.cond21.preheader.preheader
	#DEBUG_VALUE: x264_adaptive_quant_frame:h <- [DW_OP_plus_uconst 56] [$rsp+0]
	#DEBUG_VALUE: x264_adaptive_quant_frame:frame <- [DW_OP_plus_uconst 64] [$rsp+0]
	#DEBUG_VALUE: x264_adaptive_quant_frame:avg_adj <- 0.000000e+00
	#DEBUG_VALUE: mb_y <- 0
	#DEBUG_VALUE: avg_adj_pow2 <- 0.000000e+00
	.loc	0 0 37 is_stmt 0                # x264_src/encoder/ratecontrol.c:0:37
	xorl	%r13d, %r13d
	xorps	%xmm3, %xmm3
	movss	%xmm0, 8(%rsp)                  # 4-byte Spill
	jmp	.LBB0_10
.Ltmp19:
	.p2align	4, 0x90
.LBB0_9:                                # %for.cond.cleanup25
                                        #   in Loop: Header=BB0_10 Depth=1
	#DEBUG_VALUE: x264_adaptive_quant_frame:h <- [DW_OP_plus_uconst 56] [$rsp+0]
	#DEBUG_VALUE: x264_adaptive_quant_frame:frame <- [DW_OP_plus_uconst 64] [$rsp+0]
	#DEBUG_VALUE: x264_adaptive_quant_frame:avg_adj <- $xmm3
	#DEBUG_VALUE: mb_y <- $r13d
	.loc	0 256 60 is_stmt 1              # x264_src/encoder/ratecontrol.c:256:60
	incl	%r13d
.Ltmp20:
	#DEBUG_VALUE: mb_y <- $r13d
	#DEBUG_VALUE: x264_adaptive_quant_frame:avg_adj <- $xmm3
	#DEBUG_VALUE: avg_adj_pow2 <- [DW_OP_plus_uconst 8, DW_OP_deref] $rsp
	.loc	0 256 33 is_stmt 0              # x264_src/encoder/ratecontrol.c:256:33
	cmpl	1088(%rax), %r13d
.Ltmp21:
	.loc	0 256 9                         # x264_src/encoder/ratecontrol.c:256:9
	jge	.LBB0_23
.Ltmp22:
.LBB0_10:                               # %for.cond21.preheader
                                        # =>This Loop Header: Depth=1
                                        #     Child Loop BB0_14 Depth 2
	#DEBUG_VALUE: x264_adaptive_quant_frame:h <- [DW_OP_plus_uconst 56] [$rsp+0]
	#DEBUG_VALUE: x264_adaptive_quant_frame:frame <- [DW_OP_plus_uconst 64] [$rsp+0]
	#DEBUG_VALUE: mb_y <- $r13d
	#DEBUG_VALUE: x264_adaptive_quant_frame:avg_adj <- $xmm3
	#DEBUG_VALUE: mb_x <- 0
	#DEBUG_VALUE: avg_adj_pow2 <- [DW_OP_plus_uconst 8, DW_OP_deref] $rsp
	.loc	0 257 37 is_stmt 1              # x264_src/encoder/ratecontrol.c:257:37
	cmpl	$0, 1084(%rax)
.Ltmp23:
	.loc	0 257 13 is_stmt 0              # x264_src/encoder/ratecontrol.c:257:13
	jle	.LBB0_9
.Ltmp24:
# %bb.11:                               # %for.body26.lr.ph
                                        #   in Loop: Header=BB0_10 Depth=1
	#DEBUG_VALUE: x264_adaptive_quant_frame:h <- [DW_OP_plus_uconst 56] [$rsp+0]
	#DEBUG_VALUE: x264_adaptive_quant_frame:frame <- [DW_OP_plus_uconst 64] [$rsp+0]
	#DEBUG_VALUE: x264_adaptive_quant_frame:avg_adj <- $xmm3
	#DEBUG_VALUE: mb_y <- $r13d
	#DEBUG_VALUE: avg_adj_pow2 <- [DW_OP_plus_uconst 8, DW_OP_deref] $rsp
	#DEBUG_VALUE: mb_x <- 0
	.loc	0 0 13                          # x264_src/encoder/ratecontrol.c:0:13
	movl	%r13d, %eax
	shrl	%eax
	movl	%eax, %ecx
	andl	$268435455, %ecx                # imm = 0xFFFFFFF
	andl	$134217727, %eax                # imm = 0x7FFFFFF
.Ltmp25:
	.loc	0 211 18 is_stmt 1              # x264_src/encoder/ratecontrol.c:211:18
	shll	$4, %ecx
	movl	%ecx, 24(%rsp)                  # 4-byte Spill
.Ltmp26:
	.loc	0 211 18 is_stmt 0              # x264_src/encoder/ratecontrol.c:211:18
	shll	$5, %eax
	movl	%eax, 12(%rsp)                  # 4-byte Spill
	xorl	%edi, %edi
	movslq	%r13d, %rax
	movq	%rax, 48(%rsp)                  # 8-byte Spill
	xorl	%ebp, %ebp
	xorl	%ebx, %ebx
	movl	%r13d, 16(%rsp)                 # 4-byte Spill
.Ltmp27:
	#DEBUG_VALUE: mb_y <- [DW_OP_plus_uconst 16, DW_OP_deref] $rsp
	.loc	0 0 18                          # x264_src/encoder/ratecontrol.c:0:18
	jmp	.LBB0_14
.Ltmp28:
	.p2align	4, 0x90
.LBB0_12:                               # %cond.false.i68.i
                                        #   in Loop: Header=BB0_14 Depth=2
	#DEBUG_VALUE: x264_adaptive_quant_frame:h <- [DW_OP_plus_uconst 56] [$rsp+0]
	#DEBUG_VALUE: x264_adaptive_quant_frame:frame <- [DW_OP_plus_uconst 64] [$rsp+0]
	#DEBUG_VALUE: x264_adaptive_quant_frame:avg_adj <- [DW_OP_plus_uconst 20, DW_OP_deref_size 16, DW_OP_stack_value] $rsp
	#DEBUG_VALUE: mb_y <- [DW_OP_plus_uconst 16, DW_OP_deref] $rsp
	#DEBUG_VALUE: avg_adj_pow2 <- [DW_OP_plus_uconst 8, DW_OP_deref] $rsp
	#DEBUG_VALUE: mb_x <- $rbx
	#DEBUG_VALUE: ac_energy_mb:h <- [DW_OP_plus_uconst 56, DW_OP_deref] $rsp
	#DEBUG_VALUE: ac_energy_mb:mb_x <- $rbx
	#DEBUG_VALUE: ac_energy_mb:mb_y <- [DW_OP_plus_uconst 16, DW_OP_deref] $rsp
	#DEBUG_VALUE: ac_energy_mb:frame <- [DW_OP_plus_uconst 64, DW_OP_deref] $rsp
	#DEBUG_VALUE: ac_energy_mb:var <- [DW_OP_LLVM_arg 0, DW_OP_constu 32, DW_OP_shr, DW_OP_LLVM_convert 64 7, DW_OP_LLVM_convert 32 7, DW_OP_LLVM_arg 4, DW_OP_LLVM_convert 64 7, DW_OP_LLVM_convert 32 7, DW_OP_LLVM_arg 5, DW_OP_LLVM_convert 64 7, DW_OP_LLVM_convert 32 7, DW_OP_mul, DW_OP_constu 8, DW_OP_shr, DW_OP_minus, DW_OP_LLVM_arg 1, DW_OP_constu 32, DW_OP_shr, DW_OP_LLVM_convert 64 7, DW_OP_LLVM_convert 32 7, DW_OP_LLVM_arg 2, DW_OP_LLVM_convert 64 7, DW_OP_LLVM_convert 32 7, DW_OP_LLVM_arg 3, DW_OP_LLVM_convert 64 7, DW_OP_LLVM_convert 32 7, DW_OP_mul, DW_OP_constu 6, DW_OP_shr, DW_OP_minus, DW_OP_plus, DW_OP_stack_value] $r15, $rbp, $rbp, $rbp, $r15, $r15
	#DEBUG_VALUE: ac_energy_plane:h <- [DW_OP_plus_uconst 56, DW_OP_deref] $rsp
	#DEBUG_VALUE: ac_energy_plane:mb_x <- $rbx
	#DEBUG_VALUE: ac_energy_plane:mb_y <- [DW_OP_plus_uconst 16, DW_OP_deref] $rsp
	#DEBUG_VALUE: ac_energy_plane:frame <- [DW_OP_plus_uconst 64, DW_OP_deref] $rsp
	#DEBUG_VALUE: ac_energy_plane:i <- 2
	#DEBUG_VALUE: ac_energy_plane:stride <- $esi
	.loc	0 213 13 is_stmt 1              # x264_src/encoder/ratecontrol.c:213:13
	movl	%r13d, %eax
	imull	%esi, %eax
	addl	%ebx, %eax
	shll	$3, %eax
.Ltmp29:
.LBB0_13:                               # %ac_energy_mb.exit
                                        #   in Loop: Header=BB0_14 Depth=2
	#DEBUG_VALUE: x264_adaptive_quant_frame:h <- [DW_OP_plus_uconst 56] [$rsp+0]
	#DEBUG_VALUE: x264_adaptive_quant_frame:frame <- [DW_OP_plus_uconst 64] [$rsp+0]
	#DEBUG_VALUE: x264_adaptive_quant_frame:avg_adj <- [DW_OP_plus_uconst 20, DW_OP_deref_size 16, DW_OP_stack_value] $rsp
	#DEBUG_VALUE: mb_y <- [DW_OP_plus_uconst 16, DW_OP_deref] $rsp
	#DEBUG_VALUE: avg_adj_pow2 <- [DW_OP_plus_uconst 8, DW_OP_deref] $rsp
	#DEBUG_VALUE: mb_x <- $rbx
	#DEBUG_VALUE: ac_energy_mb:h <- [DW_OP_plus_uconst 56, DW_OP_deref] $rsp
	#DEBUG_VALUE: ac_energy_mb:mb_x <- $rbx
	#DEBUG_VALUE: ac_energy_mb:mb_y <- [DW_OP_plus_uconst 16, DW_OP_deref] $rsp
	#DEBUG_VALUE: ac_energy_mb:frame <- [DW_OP_plus_uconst 64, DW_OP_deref] $rsp
	#DEBUG_VALUE: ac_energy_plane:h <- [DW_OP_plus_uconst 56, DW_OP_deref] $rsp
	#DEBUG_VALUE: ac_energy_plane:mb_x <- $rbx
	#DEBUG_VALUE: ac_energy_plane:mb_y <- [DW_OP_plus_uconst 16, DW_OP_deref] $rsp
	#DEBUG_VALUE: ac_energy_plane:frame <- [DW_OP_plus_uconst 64, DW_OP_deref] $rsp
	#DEBUG_VALUE: ac_energy_plane:i <- 0
	#DEBUG_VALUE: ac_energy_plane:res <- $r15
	#DEBUG_VALUE: ac_energy_mb:var <- [DW_OP_LLVM_arg 0, DW_OP_constu 32, DW_OP_shr, DW_OP_LLVM_convert 64 7, DW_OP_LLVM_convert 32 7, DW_OP_LLVM_arg 4, DW_OP_LLVM_convert 64 7, DW_OP_LLVM_convert 32 7, DW_OP_LLVM_arg 5, DW_OP_LLVM_convert 64 7, DW_OP_LLVM_convert 32 7, DW_OP_mul, DW_OP_constu 8, DW_OP_shr, DW_OP_minus, DW_OP_LLVM_arg 1, DW_OP_constu 32, DW_OP_shr, DW_OP_LLVM_convert 64 7, DW_OP_LLVM_convert 32 7, DW_OP_LLVM_arg 2, DW_OP_LLVM_convert 64 7, DW_OP_LLVM_convert 32 7, DW_OP_LLVM_arg 3, DW_OP_LLVM_convert 64 7, DW_OP_LLVM_convert 32 7, DW_OP_mul, DW_OP_constu 6, DW_OP_shr, DW_OP_minus, DW_OP_plus, DW_OP_stack_value] $r15, $rbp, $rbp, $rbp, $r15, $r15
	#DEBUG_VALUE: ac_energy_plane:h <- [DW_OP_plus_uconst 56, DW_OP_deref] $rsp
	#DEBUG_VALUE: ac_energy_plane:mb_x <- $rbx
	#DEBUG_VALUE: ac_energy_plane:mb_y <- [DW_OP_plus_uconst 16, DW_OP_deref] $rsp
	#DEBUG_VALUE: ac_energy_plane:frame <- [DW_OP_plus_uconst 64, DW_OP_deref] $rsp
	#DEBUG_VALUE: ac_energy_plane:i <- 1
	#DEBUG_VALUE: ac_energy_plane:res <- $rbp
	#DEBUG_VALUE: ac_energy_plane:h <- [DW_OP_plus_uconst 56, DW_OP_deref] $rsp
	#DEBUG_VALUE: ac_energy_plane:mb_x <- $rbx
	#DEBUG_VALUE: ac_energy_plane:mb_y <- [DW_OP_plus_uconst 16, DW_OP_deref] $rsp
	#DEBUG_VALUE: ac_energy_plane:frame <- [DW_OP_plus_uconst 64, DW_OP_deref] $rsp
	#DEBUG_VALUE: ac_energy_plane:i <- 2
	#DEBUG_VALUE: ac_energy_plane:stride <- $esi
	.loc	0 218 24                        # x264_src/encoder/ratecontrol.c:218:24
	movq	%r15, %r13
	shrq	$32, %r13
.Ltmp30:
	#DEBUG_VALUE: ac_energy_mb:var <- [DW_OP_LLVM_arg 0, DW_OP_LLVM_convert 64 7, DW_OP_LLVM_convert 32 7, DW_OP_LLVM_arg 1, DW_OP_LLVM_convert 64 7, DW_OP_LLVM_convert 32 7, DW_OP_LLVM_arg 2, DW_OP_LLVM_convert 64 7, DW_OP_LLVM_convert 32 7, DW_OP_mul, DW_OP_constu 8, DW_OP_shr, DW_OP_minus, DW_OP_stack_value] $r13, $r15, $r15
	#DEBUG_VALUE: ac_energy_plane:sqr <- [DW_OP_LLVM_convert 64 7, DW_OP_LLVM_convert 32 7, DW_OP_stack_value] $r13
	#DEBUG_VALUE: ac_energy_mb:var <- [DW_OP_LLVM_arg 0, DW_OP_LLVM_arg 1, DW_OP_LLVM_convert 64 7, DW_OP_LLVM_convert 32 7, DW_OP_LLVM_arg 2, DW_OP_LLVM_convert 64 7, DW_OP_LLVM_convert 32 7, DW_OP_mul, DW_OP_constu 8, DW_OP_shr, DW_OP_minus, DW_OP_stack_value] $r13d, $r15, $r15
	#DEBUG_VALUE: ac_energy_plane:sqr <- $r13d
	#DEBUG_VALUE: ac_energy_plane:sum <- $r15d
	#DEBUG_VALUE: ac_energy_mb:var <- [DW_OP_LLVM_arg 0, DW_OP_LLVM_arg 1, DW_OP_LLVM_arg 2, DW_OP_mul, DW_OP_constu 8, DW_OP_shr, DW_OP_minus, DW_OP_stack_value] $r13d, $r15d, $r15d
	.loc	0 219 23                        # x264_src/encoder/ratecontrol.c:219:23
	imull	%r15d, %r15d
.Ltmp31:
	#DEBUG_VALUE: ac_energy_mb:var <- [DW_OP_LLVM_arg 0, DW_OP_LLVM_arg 1, DW_OP_constu 8, DW_OP_shr, DW_OP_minus, DW_OP_stack_value] $r13d, $r15d
	.loc	0 219 29 is_stmt 0              # x264_src/encoder/ratecontrol.c:219:29
	shrl	$8, %r15d
.Ltmp32:
	#DEBUG_VALUE: ac_energy_mb:var <- undef
	.loc	0 218 24 is_stmt 1              # x264_src/encoder/ratecontrol.c:218:24
	movq	%rbp, %r12
	shrq	$32, %r12
.Ltmp33:
	#DEBUG_VALUE: ac_energy_plane:sqr <- [DW_OP_LLVM_convert 64 7, DW_OP_LLVM_convert 32 7, DW_OP_stack_value] $r12
	#DEBUG_VALUE: ac_energy_plane:sqr <- $r12d
	#DEBUG_VALUE: ac_energy_plane:sum <- $ebp
	.loc	0 219 23                        # x264_src/encoder/ratecontrol.c:219:23
	imull	%ebp, %ebp
.Ltmp34:
	.loc	0 219 29 is_stmt 0              # x264_src/encoder/ratecontrol.c:219:29
	shrl	$6, %ebp
.Ltmp35:
	#DEBUG_VALUE: ac_energy_plane:shift <- 6
	#DEBUG_VALUE: ac_energy_plane:offset <- $eax
	#DEBUG_VALUE: ac_energy_plane:pix <- undef
                                        # kill: def $cl killed $cl killed $ecx
	.loc	0 215 12 is_stmt 1              # x264_src/encoder/ratecontrol.c:215:12
	shll	%cl, %esi
.Ltmp36:
	#DEBUG_VALUE: ac_energy_plane:stride <- $esi
	.loc	0 231 17                        # x264_src/encoder/ratecontrol.c:231:17
	addl	%r15d, %ebp
.Ltmp37:
	.loc	0 216 54                        # x264_src/encoder/ratecontrol.c:216:54
	movslq	%eax, %rdi
	movq	64(%rsp), %r15                  # 8-byte Reload
	addq	168(%r15), %rdi
	movq	56(%rsp), %r14                  # 8-byte Reload
	.loc	0 216 20 is_stmt 0              # x264_src/encoder/ratecontrol.c:216:20
	callq	*32184(%r14)
.Ltmp38:
	#DEBUG_VALUE: ac_energy_plane:res <- $rax
	#DEBUG_VALUE: ac_energy_plane:sum <- $eax
	.loc	0 218 24 is_stmt 1              # x264_src/encoder/ratecontrol.c:218:24
	movq	%rax, %rcx
	shrq	$32, %rcx
.Ltmp39:
	#DEBUG_VALUE: ac_energy_plane:sqr <- $ecx
	.loc	0 219 23                        # x264_src/encoder/ratecontrol.c:219:23
	imull	%eax, %eax
.Ltmp40:
	.loc	0 219 29 is_stmt 0              # x264_src/encoder/ratecontrol.c:219:29
	shrl	$6, %eax
.Ltmp41:
	#DEBUG_VALUE: energy <- undef
	.loc	0 260 45 is_stmt 1              # x264_src/encoder/ratecontrol.c:260:45
	addl	%ebp, %eax
.Ltmp42:
	.loc	0 219 16                        # x264_src/encoder/ratecontrol.c:219:16
	addl	%r13d, %r12d
.Ltmp43:
	.loc	0 231 17                        # x264_src/encoder/ratecontrol.c:231:17
	addl	%ecx, %r12d
.Ltmp44:
	.loc	0 260 45                        # x264_src/encoder/ratecontrol.c:260:45
	subl	%eax, %r12d
	incl	%r12d
	.loc	0 260 38 is_stmt 0              # x264_src/encoder/ratecontrol.c:260:38
	cvtsi2ss	%r12, %xmm0
	movq	%r15, %r12
	.loc	0 260 32                        # x264_src/encoder/ratecontrol.c:260:32
	movss	.LCPI0_1(%rip), %xmm1           # xmm1 = [1.25E-1,0.0E+0,0.0E+0,0.0E+0]
	callq	powf@PLT
.Ltmp45:
	#DEBUG_VALUE: qp_adj <- $xmm0
	.loc	0 261 24 is_stmt 1              # x264_src/encoder/ratecontrol.c:261:24
	movq	12152(%r15), %rax
	.loc	0 261 54 is_stmt 0              # x264_src/encoder/ratecontrol.c:261:54
	movslq	16372(%r14), %rcx
	.loc	0 261 17                        # x264_src/encoder/ratecontrol.c:261:17
	imulq	48(%rsp), %rcx                  # 8-byte Folded Reload
	addq	%rbx, %rcx
	.loc	0 261 67                        # x264_src/encoder/ratecontrol.c:261:67
	movss	%xmm0, (%rax,%rcx,4)
	movss	20(%rsp), %xmm3                 # 4-byte Reload
                                        # xmm3 = mem[0],zero,zero,zero
	.loc	0 262 25 is_stmt 1              # x264_src/encoder/ratecontrol.c:262:25
	addss	%xmm0, %xmm3
.Ltmp46:
	#DEBUG_VALUE: x264_adaptive_quant_frame:avg_adj <- $xmm3
	.loc	0 263 30                        # x264_src/encoder/ratecontrol.c:263:30
	mulss	%xmm0, %xmm0
.Ltmp47:
	.loc	0 0 30 is_stmt 0                # x264_src/encoder/ratecontrol.c:0:30
	movss	8(%rsp), %xmm1                  # 4-byte Reload
                                        # xmm1 = mem[0],zero,zero,zero
	.loc	0 263 30                        # x264_src/encoder/ratecontrol.c:263:30
	addss	%xmm0, %xmm1
.Ltmp48:
	#DEBUG_VALUE: avg_adj_pow2 <- $xmm1
	#DEBUG_VALUE: mb_x <- [DW_OP_consts 1, DW_OP_plus, DW_OP_stack_value] $rbx
	.loc	0 0 30                          # x264_src/encoder/ratecontrol.c:0:30
	movss	%xmm1, 8(%rsp)                  # 4-byte Spill
.Ltmp49:
	#DEBUG_VALUE: avg_adj_pow2 <- [DW_OP_plus_uconst 8, DW_OP_deref_size 16, DW_OP_stack_value] $rsp
	.loc	0 257 42 is_stmt 1              # x264_src/encoder/ratecontrol.c:257:42
	movq	3200(%r14), %rax
	.loc	0 257 37 is_stmt 0              # x264_src/encoder/ratecontrol.c:257:37
	incq	%rbx
.Ltmp50:
	.loc	0 0 37                          # x264_src/encoder/ratecontrol.c:0:37
	movl	40(%rsp), %ebp                  # 4-byte Reload
	.loc	0 257 37                        # x264_src/encoder/ratecontrol.c:257:37
	addl	$8, %ebp
	movq	32(%rsp), %rdi                  # 8-byte Reload
	addl	$16, %edi
	cmpl	1084(%rax), %ebx
	movl	16(%rsp), %r13d                 # 4-byte Reload
.Ltmp51:
	.loc	0 257 13                        # x264_src/encoder/ratecontrol.c:257:13
	jge	.LBB0_9
.Ltmp52:
.LBB0_14:                               # %for.body26
                                        #   Parent Loop BB0_10 Depth=1
                                        # =>  This Inner Loop Header: Depth=2
	#DEBUG_VALUE: x264_adaptive_quant_frame:h <- [DW_OP_plus_uconst 56] [$rsp+0]
	#DEBUG_VALUE: x264_adaptive_quant_frame:frame <- [DW_OP_plus_uconst 64] [$rsp+0]
	#DEBUG_VALUE: x264_adaptive_quant_frame:avg_adj <- $xmm3
	#DEBUG_VALUE: mb_y <- [DW_OP_plus_uconst 16, DW_OP_deref] $rsp
	#DEBUG_VALUE: x264_adaptive_quant_frame:avg_adj <- $xmm3
	#DEBUG_VALUE: mb_x <- $rbx
	#DEBUG_VALUE: avg_adj_pow2 <- [DW_OP_plus_uconst 8, DW_OP_deref] $rsp
	#DEBUG_VALUE: ac_energy_mb:h <- [DW_OP_plus_uconst 56, DW_OP_deref] $rsp
	#DEBUG_VALUE: ac_energy_mb:mb_x <- $rbx
	#DEBUG_VALUE: ac_energy_mb:mb_y <- [DW_OP_plus_uconst 16, DW_OP_deref] $rsp
	#DEBUG_VALUE: ac_energy_mb:frame <- [DW_OP_plus_uconst 64, DW_OP_deref] $rsp
	#DEBUG_VALUE: ac_energy_plane:h <- [DW_OP_plus_uconst 56, DW_OP_deref] $rsp
	#DEBUG_VALUE: ac_energy_plane:mb_x <- $rbx
	#DEBUG_VALUE: ac_energy_plane:mb_y <- [DW_OP_plus_uconst 16, DW_OP_deref] $rsp
	#DEBUG_VALUE: ac_energy_plane:frame <- [DW_OP_plus_uconst 64, DW_OP_deref] $rsp
	#DEBUG_VALUE: ac_energy_plane:i <- 0
	#DEBUG_VALUE: ac_energy_plane:w <- undef
	#DEBUG_VALUE: ac_energy_plane:shift <- undef
	.loc	0 210 18 is_stmt 1              # x264_src/encoder/ratecontrol.c:210:18
	movl	104(%r12), %esi
.Ltmp53:
	#DEBUG_VALUE: ac_energy_plane:stride <- $esi
	.loc	0 211 24                        # x264_src/encoder/ratecontrol.c:211:24
	movl	16436(%r14), %ecx
	.loc	0 211 18 is_stmt 0              # x264_src/encoder/ratecontrol.c:211:18
	testl	%ecx, %ecx
	movss	%xmm3, 20(%rsp)                 # 4-byte Spill
.Ltmp54:
	#DEBUG_VALUE: x264_adaptive_quant_frame:avg_adj <- [DW_OP_plus_uconst 20, DW_OP_deref_size 16, DW_OP_stack_value] $rsp
	.loc	0 0 18                          # x264_src/encoder/ratecontrol.c:0:18
	movq	%rdi, 32(%rsp)                  # 8-byte Spill
	.loc	0 211 18                        # x264_src/encoder/ratecontrol.c:211:18
	je	.LBB0_16
.Ltmp55:
# %bb.15:                               # %cond.true.i.i
                                        #   in Loop: Header=BB0_14 Depth=2
	#DEBUG_VALUE: x264_adaptive_quant_frame:h <- [DW_OP_plus_uconst 56] [$rsp+0]
	#DEBUG_VALUE: x264_adaptive_quant_frame:frame <- [DW_OP_plus_uconst 64] [$rsp+0]
	#DEBUG_VALUE: x264_adaptive_quant_frame:avg_adj <- [DW_OP_plus_uconst 20, DW_OP_deref_size 16, DW_OP_stack_value] $rsp
	#DEBUG_VALUE: mb_y <- [DW_OP_plus_uconst 16, DW_OP_deref] $rsp
	#DEBUG_VALUE: avg_adj_pow2 <- [DW_OP_plus_uconst 8, DW_OP_deref] $rsp
	#DEBUG_VALUE: mb_x <- $rbx
	#DEBUG_VALUE: ac_energy_mb:h <- [DW_OP_plus_uconst 56, DW_OP_deref] $rsp
	#DEBUG_VALUE: ac_energy_mb:mb_x <- $rbx
	#DEBUG_VALUE: ac_energy_mb:mb_y <- [DW_OP_plus_uconst 16, DW_OP_deref] $rsp
	#DEBUG_VALUE: ac_energy_mb:frame <- [DW_OP_plus_uconst 64, DW_OP_deref] $rsp
	#DEBUG_VALUE: ac_energy_plane:h <- [DW_OP_plus_uconst 56, DW_OP_deref] $rsp
	#DEBUG_VALUE: ac_energy_plane:mb_x <- $rbx
	#DEBUG_VALUE: ac_energy_plane:mb_y <- [DW_OP_plus_uconst 16, DW_OP_deref] $rsp
	#DEBUG_VALUE: ac_energy_plane:frame <- [DW_OP_plus_uconst 64, DW_OP_deref] $rsp
	#DEBUG_VALUE: ac_energy_plane:i <- 0
	#DEBUG_VALUE: ac_energy_plane:stride <- $esi
	#DEBUG_VALUE: ac_energy_plane:w <- undef
	.loc	0 212 54 is_stmt 1              # x264_src/encoder/ratecontrol.c:212:54
	testb	$1, %r13b
	movl	$0, %eax
	cmovnel	%esi, %eax
	movl	12(%rsp), %edx                  # 4-byte Reload
	.loc	0 211 18                        # x264_src/encoder/ratecontrol.c:211:18
	imull	%esi, %edx
	addl	%edi, %eax
	addl	%edx, %eax
	jmp	.LBB0_17
.Ltmp56:
	.p2align	4, 0x90
.LBB0_16:                               # %cond.false.i.i
                                        #   in Loop: Header=BB0_14 Depth=2
	#DEBUG_VALUE: x264_adaptive_quant_frame:h <- [DW_OP_plus_uconst 56] [$rsp+0]
	#DEBUG_VALUE: x264_adaptive_quant_frame:frame <- [DW_OP_plus_uconst 64] [$rsp+0]
	#DEBUG_VALUE: x264_adaptive_quant_frame:avg_adj <- [DW_OP_plus_uconst 20, DW_OP_deref_size 16, DW_OP_stack_value] $rsp
	#DEBUG_VALUE: mb_y <- [DW_OP_plus_uconst 16, DW_OP_deref] $rsp
	#DEBUG_VALUE: avg_adj_pow2 <- [DW_OP_plus_uconst 8, DW_OP_deref] $rsp
	#DEBUG_VALUE: mb_x <- $rbx
	#DEBUG_VALUE: ac_energy_mb:h <- [DW_OP_plus_uconst 56, DW_OP_deref] $rsp
	#DEBUG_VALUE: ac_energy_mb:mb_x <- $rbx
	#DEBUG_VALUE: ac_energy_mb:mb_y <- [DW_OP_plus_uconst 16, DW_OP_deref] $rsp
	#DEBUG_VALUE: ac_energy_mb:frame <- [DW_OP_plus_uconst 64, DW_OP_deref] $rsp
	#DEBUG_VALUE: ac_energy_plane:h <- [DW_OP_plus_uconst 56, DW_OP_deref] $rsp
	#DEBUG_VALUE: ac_energy_plane:mb_x <- $rbx
	#DEBUG_VALUE: ac_energy_plane:mb_y <- [DW_OP_plus_uconst 16, DW_OP_deref] $rsp
	#DEBUG_VALUE: ac_energy_plane:frame <- [DW_OP_plus_uconst 64, DW_OP_deref] $rsp
	#DEBUG_VALUE: ac_energy_plane:i <- 0
	#DEBUG_VALUE: ac_energy_plane:stride <- $esi
	.loc	0 213 13                        # x264_src/encoder/ratecontrol.c:213:13
	movl	%r13d, %eax
	imull	%esi, %eax
	addl	%ebx, %eax
	shll	$4, %eax
.Ltmp57:
.LBB0_17:                               # %ac_energy_plane.exit.i
                                        #   in Loop: Header=BB0_14 Depth=2
	#DEBUG_VALUE: x264_adaptive_quant_frame:h <- [DW_OP_plus_uconst 56] [$rsp+0]
	#DEBUG_VALUE: x264_adaptive_quant_frame:frame <- [DW_OP_plus_uconst 64] [$rsp+0]
	#DEBUG_VALUE: x264_adaptive_quant_frame:avg_adj <- [DW_OP_plus_uconst 20, DW_OP_deref_size 16, DW_OP_stack_value] $rsp
	#DEBUG_VALUE: mb_y <- [DW_OP_plus_uconst 16, DW_OP_deref] $rsp
	#DEBUG_VALUE: avg_adj_pow2 <- [DW_OP_plus_uconst 8, DW_OP_deref] $rsp
	#DEBUG_VALUE: mb_x <- $rbx
	#DEBUG_VALUE: ac_energy_mb:h <- [DW_OP_plus_uconst 56, DW_OP_deref] $rsp
	#DEBUG_VALUE: ac_energy_mb:mb_x <- $rbx
	#DEBUG_VALUE: ac_energy_mb:mb_y <- [DW_OP_plus_uconst 16, DW_OP_deref] $rsp
	#DEBUG_VALUE: ac_energy_mb:frame <- [DW_OP_plus_uconst 64, DW_OP_deref] $rsp
	#DEBUG_VALUE: ac_energy_plane:h <- [DW_OP_plus_uconst 56, DW_OP_deref] $rsp
	#DEBUG_VALUE: ac_energy_plane:mb_x <- $rbx
	#DEBUG_VALUE: ac_energy_plane:mb_y <- [DW_OP_plus_uconst 16, DW_OP_deref] $rsp
	#DEBUG_VALUE: ac_energy_plane:frame <- [DW_OP_plus_uconst 64, DW_OP_deref] $rsp
	#DEBUG_VALUE: ac_energy_plane:i <- 0
	#DEBUG_VALUE: ac_energy_plane:stride <- $esi
	#DEBUG_VALUE: ac_energy_plane:shift <- 8
	#DEBUG_VALUE: ac_energy_plane:offset <- $eax
	#DEBUG_VALUE: ac_energy_plane:pix <- undef
                                        # kill: def $cl killed $cl killed $ecx
	.loc	0 215 12                        # x264_src/encoder/ratecontrol.c:215:12
	shll	%cl, %esi
.Ltmp58:
	#DEBUG_VALUE: ac_energy_plane:stride <- $esi
	.loc	0 216 54                        # x264_src/encoder/ratecontrol.c:216:54
	movslq	%eax, %rdi
	addq	152(%r12), %rdi
	.loc	0 216 20 is_stmt 0              # x264_src/encoder/ratecontrol.c:216:20
	callq	*32160(%r14)
.Ltmp59:
	movq	%rax, %r15
.Ltmp60:
	#DEBUG_VALUE: ac_energy_plane:res <- $r15
	#DEBUG_VALUE: ac_energy_plane:sum <- [DW_OP_LLVM_convert 64 7, DW_OP_LLVM_convert 32 7, DW_OP_stack_value] $r15
	#DEBUG_VALUE: ac_energy_plane:sqr <- [DW_OP_constu 32, DW_OP_shr, DW_OP_LLVM_convert 64 7, DW_OP_LLVM_convert 32 7, DW_OP_stack_value] $r15
	#DEBUG_VALUE: ac_energy_mb:var <- [DW_OP_LLVM_arg 0, DW_OP_constu 32, DW_OP_shr, DW_OP_LLVM_convert 64 7, DW_OP_LLVM_convert 32 7, DW_OP_LLVM_arg 1, DW_OP_LLVM_convert 64 7, DW_OP_LLVM_convert 32 7, DW_OP_LLVM_arg 2, DW_OP_LLVM_convert 64 7, DW_OP_LLVM_convert 32 7, DW_OP_mul, DW_OP_constu 8, DW_OP_shr, DW_OP_minus, DW_OP_stack_value] $r15, $r15, $r15
	#DEBUG_VALUE: ac_energy_plane:h <- [DW_OP_plus_uconst 56, DW_OP_deref] $rsp
	#DEBUG_VALUE: ac_energy_plane:mb_x <- $rbx
	#DEBUG_VALUE: ac_energy_plane:mb_y <- [DW_OP_plus_uconst 16, DW_OP_deref] $rsp
	#DEBUG_VALUE: ac_energy_plane:frame <- [DW_OP_plus_uconst 64, DW_OP_deref] $rsp
	#DEBUG_VALUE: ac_energy_plane:i <- 1
	#DEBUG_VALUE: ac_energy_plane:w <- undef
	#DEBUG_VALUE: ac_energy_plane:shift <- undef
	.loc	0 210 18 is_stmt 1              # x264_src/encoder/ratecontrol.c:210:18
	movl	108(%r12), %esi
.Ltmp61:
	#DEBUG_VALUE: ac_energy_plane:stride <- $esi
	.loc	0 211 24                        # x264_src/encoder/ratecontrol.c:211:24
	movl	16436(%r14), %ecx
	.loc	0 211 18 is_stmt 0              # x264_src/encoder/ratecontrol.c:211:18
	testl	%ecx, %ecx
	movl	%ebp, 40(%rsp)                  # 4-byte Spill
	je	.LBB0_19
.Ltmp62:
# %bb.18:                               # %cond.true.i17.i
                                        #   in Loop: Header=BB0_14 Depth=2
	#DEBUG_VALUE: x264_adaptive_quant_frame:h <- [DW_OP_plus_uconst 56] [$rsp+0]
	#DEBUG_VALUE: x264_adaptive_quant_frame:frame <- [DW_OP_plus_uconst 64] [$rsp+0]
	#DEBUG_VALUE: x264_adaptive_quant_frame:avg_adj <- [DW_OP_plus_uconst 20, DW_OP_deref_size 16, DW_OP_stack_value] $rsp
	#DEBUG_VALUE: mb_y <- [DW_OP_plus_uconst 16, DW_OP_deref] $rsp
	#DEBUG_VALUE: avg_adj_pow2 <- [DW_OP_plus_uconst 8, DW_OP_deref] $rsp
	#DEBUG_VALUE: mb_x <- $rbx
	#DEBUG_VALUE: ac_energy_mb:h <- [DW_OP_plus_uconst 56, DW_OP_deref] $rsp
	#DEBUG_VALUE: ac_energy_mb:mb_x <- $rbx
	#DEBUG_VALUE: ac_energy_mb:mb_y <- [DW_OP_plus_uconst 16, DW_OP_deref] $rsp
	#DEBUG_VALUE: ac_energy_mb:frame <- [DW_OP_plus_uconst 64, DW_OP_deref] $rsp
	#DEBUG_VALUE: ac_energy_mb:var <- [DW_OP_LLVM_arg 0, DW_OP_constu 32, DW_OP_shr, DW_OP_LLVM_convert 64 7, DW_OP_LLVM_convert 32 7, DW_OP_LLVM_arg 1, DW_OP_LLVM_convert 64 7, DW_OP_LLVM_convert 32 7, DW_OP_LLVM_arg 2, DW_OP_LLVM_convert 64 7, DW_OP_LLVM_convert 32 7, DW_OP_mul, DW_OP_constu 8, DW_OP_shr, DW_OP_minus, DW_OP_stack_value] $r15, $r15, $r15
	#DEBUG_VALUE: ac_energy_plane:h <- [DW_OP_plus_uconst 56, DW_OP_deref] $rsp
	#DEBUG_VALUE: ac_energy_plane:mb_x <- $rbx
	#DEBUG_VALUE: ac_energy_plane:mb_y <- [DW_OP_plus_uconst 16, DW_OP_deref] $rsp
	#DEBUG_VALUE: ac_energy_plane:frame <- [DW_OP_plus_uconst 64, DW_OP_deref] $rsp
	#DEBUG_VALUE: ac_energy_plane:i <- 1
	#DEBUG_VALUE: ac_energy_plane:stride <- $esi
	#DEBUG_VALUE: ac_energy_plane:w <- undef
	.loc	0 212 54 is_stmt 1              # x264_src/encoder/ratecontrol.c:212:54
	testb	$1, %r13b
	movl	$0, %eax
	cmovnel	%esi, %eax
	movl	24(%rsp), %edx                  # 4-byte Reload
	.loc	0 211 18                        # x264_src/encoder/ratecontrol.c:211:18
	imull	%esi, %edx
	addl	%ebp, %eax
	addl	%edx, %eax
	jmp	.LBB0_20
.Ltmp63:
	.p2align	4, 0x90
.LBB0_19:                               # %cond.false.i37.i
                                        #   in Loop: Header=BB0_14 Depth=2
	#DEBUG_VALUE: x264_adaptive_quant_frame:h <- [DW_OP_plus_uconst 56] [$rsp+0]
	#DEBUG_VALUE: x264_adaptive_quant_frame:frame <- [DW_OP_plus_uconst 64] [$rsp+0]
	#DEBUG_VALUE: x264_adaptive_quant_frame:avg_adj <- [DW_OP_plus_uconst 20, DW_OP_deref_size 16, DW_OP_stack_value] $rsp
	#DEBUG_VALUE: mb_y <- [DW_OP_plus_uconst 16, DW_OP_deref] $rsp
	#DEBUG_VALUE: avg_adj_pow2 <- [DW_OP_plus_uconst 8, DW_OP_deref] $rsp
	#DEBUG_VALUE: mb_x <- $rbx
	#DEBUG_VALUE: ac_energy_mb:h <- [DW_OP_plus_uconst 56, DW_OP_deref] $rsp
	#DEBUG_VALUE: ac_energy_mb:mb_x <- $rbx
	#DEBUG_VALUE: ac_energy_mb:mb_y <- [DW_OP_plus_uconst 16, DW_OP_deref] $rsp
	#DEBUG_VALUE: ac_energy_mb:frame <- [DW_OP_plus_uconst 64, DW_OP_deref] $rsp
	#DEBUG_VALUE: ac_energy_mb:var <- [DW_OP_LLVM_arg 0, DW_OP_constu 32, DW_OP_shr, DW_OP_LLVM_convert 64 7, DW_OP_LLVM_convert 32 7, DW_OP_LLVM_arg 1, DW_OP_LLVM_convert 64 7, DW_OP_LLVM_convert 32 7, DW_OP_LLVM_arg 2, DW_OP_LLVM_convert 64 7, DW_OP_LLVM_convert 32 7, DW_OP_mul, DW_OP_constu 8, DW_OP_shr, DW_OP_minus, DW_OP_stack_value] $r15, $r15, $r15
	#DEBUG_VALUE: ac_energy_plane:h <- [DW_OP_plus_uconst 56, DW_OP_deref] $rsp
	#DEBUG_VALUE: ac_energy_plane:mb_x <- $rbx
	#DEBUG_VALUE: ac_energy_plane:mb_y <- [DW_OP_plus_uconst 16, DW_OP_deref] $rsp
	#DEBUG_VALUE: ac_energy_plane:frame <- [DW_OP_plus_uconst 64, DW_OP_deref] $rsp
	#DEBUG_VALUE: ac_energy_plane:i <- 1
	#DEBUG_VALUE: ac_energy_plane:stride <- $esi
	.loc	0 213 13                        # x264_src/encoder/ratecontrol.c:213:13
	movl	%r13d, %eax
	imull	%esi, %eax
	addl	%ebx, %eax
	shll	$3, %eax
.Ltmp64:
.LBB0_20:                               # %ac_energy_plane.exit41.i
                                        #   in Loop: Header=BB0_14 Depth=2
	#DEBUG_VALUE: x264_adaptive_quant_frame:h <- [DW_OP_plus_uconst 56] [$rsp+0]
	#DEBUG_VALUE: x264_adaptive_quant_frame:frame <- [DW_OP_plus_uconst 64] [$rsp+0]
	#DEBUG_VALUE: x264_adaptive_quant_frame:avg_adj <- [DW_OP_plus_uconst 20, DW_OP_deref_size 16, DW_OP_stack_value] $rsp
	#DEBUG_VALUE: mb_y <- [DW_OP_plus_uconst 16, DW_OP_deref] $rsp
	#DEBUG_VALUE: avg_adj_pow2 <- [DW_OP_plus_uconst 8, DW_OP_deref] $rsp
	#DEBUG_VALUE: mb_x <- $rbx
	#DEBUG_VALUE: ac_energy_mb:h <- [DW_OP_plus_uconst 56, DW_OP_deref] $rsp
	#DEBUG_VALUE: ac_energy_mb:mb_x <- $rbx
	#DEBUG_VALUE: ac_energy_mb:mb_y <- [DW_OP_plus_uconst 16, DW_OP_deref] $rsp
	#DEBUG_VALUE: ac_energy_mb:frame <- [DW_OP_plus_uconst 64, DW_OP_deref] $rsp
	#DEBUG_VALUE: ac_energy_mb:var <- [DW_OP_LLVM_arg 0, DW_OP_constu 32, DW_OP_shr, DW_OP_LLVM_convert 64 7, DW_OP_LLVM_convert 32 7, DW_OP_LLVM_arg 1, DW_OP_LLVM_convert 64 7, DW_OP_LLVM_convert 32 7, DW_OP_LLVM_arg 2, DW_OP_LLVM_convert 64 7, DW_OP_LLVM_convert 32 7, DW_OP_mul, DW_OP_constu 8, DW_OP_shr, DW_OP_minus, DW_OP_stack_value] $r15, $r15, $r15
	#DEBUG_VALUE: ac_energy_plane:h <- [DW_OP_plus_uconst 56, DW_OP_deref] $rsp
	#DEBUG_VALUE: ac_energy_plane:mb_x <- $rbx
	#DEBUG_VALUE: ac_energy_plane:mb_y <- [DW_OP_plus_uconst 16, DW_OP_deref] $rsp
	#DEBUG_VALUE: ac_energy_plane:frame <- [DW_OP_plus_uconst 64, DW_OP_deref] $rsp
	#DEBUG_VALUE: ac_energy_plane:i <- 1
	#DEBUG_VALUE: ac_energy_plane:stride <- $esi
	#DEBUG_VALUE: ac_energy_plane:shift <- 6
	#DEBUG_VALUE: ac_energy_plane:offset <- $eax
	#DEBUG_VALUE: ac_energy_plane:pix <- undef
                                        # kill: def $cl killed $cl killed $ecx
	.loc	0 215 12                        # x264_src/encoder/ratecontrol.c:215:12
	shll	%cl, %esi
.Ltmp65:
	#DEBUG_VALUE: ac_energy_plane:stride <- $esi
	.loc	0 216 54                        # x264_src/encoder/ratecontrol.c:216:54
	movslq	%eax, %rdi
	addq	160(%r12), %rdi
	.loc	0 216 20 is_stmt 0              # x264_src/encoder/ratecontrol.c:216:20
	callq	*32184(%r14)
.Ltmp66:
	movq	%rax, %rbp
.Ltmp67:
	#DEBUG_VALUE: ac_energy_plane:res <- $rbp
	#DEBUG_VALUE: ac_energy_plane:sum <- [DW_OP_LLVM_convert 64 7, DW_OP_LLVM_convert 32 7, DW_OP_stack_value] $rbp
	#DEBUG_VALUE: ac_energy_plane:sqr <- [DW_OP_constu 32, DW_OP_shr, DW_OP_LLVM_convert 64 7, DW_OP_LLVM_convert 32 7, DW_OP_stack_value] $rbp
	#DEBUG_VALUE: ac_energy_mb:var <- [DW_OP_LLVM_arg 0, DW_OP_constu 32, DW_OP_shr, DW_OP_LLVM_convert 64 7, DW_OP_LLVM_convert 32 7, DW_OP_LLVM_arg 4, DW_OP_LLVM_convert 64 7, DW_OP_LLVM_convert 32 7, DW_OP_LLVM_arg 5, DW_OP_LLVM_convert 64 7, DW_OP_LLVM_convert 32 7, DW_OP_mul, DW_OP_constu 8, DW_OP_shr, DW_OP_minus, DW_OP_LLVM_arg 1, DW_OP_constu 32, DW_OP_shr, DW_OP_LLVM_convert 64 7, DW_OP_LLVM_convert 32 7, DW_OP_LLVM_arg 2, DW_OP_LLVM_convert 64 7, DW_OP_LLVM_convert 32 7, DW_OP_LLVM_arg 3, DW_OP_LLVM_convert 64 7, DW_OP_LLVM_convert 32 7, DW_OP_mul, DW_OP_constu 6, DW_OP_shr, DW_OP_minus, DW_OP_plus, DW_OP_stack_value] $r15, $rbp, $rbp, $rbp, $r15, $r15
	#DEBUG_VALUE: ac_energy_plane:h <- [DW_OP_plus_uconst 56, DW_OP_deref] $rsp
	#DEBUG_VALUE: ac_energy_plane:mb_x <- $rbx
	#DEBUG_VALUE: ac_energy_plane:mb_y <- [DW_OP_plus_uconst 16, DW_OP_deref] $rsp
	#DEBUG_VALUE: ac_energy_plane:frame <- [DW_OP_plus_uconst 64, DW_OP_deref] $rsp
	#DEBUG_VALUE: ac_energy_plane:i <- 2
	#DEBUG_VALUE: ac_energy_plane:w <- undef
	#DEBUG_VALUE: ac_energy_plane:shift <- undef
	.loc	0 210 18 is_stmt 1              # x264_src/encoder/ratecontrol.c:210:18
	movl	112(%r12), %esi
.Ltmp68:
	#DEBUG_VALUE: ac_energy_plane:stride <- $esi
	.loc	0 211 24                        # x264_src/encoder/ratecontrol.c:211:24
	movl	16436(%r14), %ecx
	.loc	0 211 18 is_stmt 0              # x264_src/encoder/ratecontrol.c:211:18
	testl	%ecx, %ecx
	je	.LBB0_12
.Ltmp69:
# %bb.21:                               # %cond.true.i46.i
                                        #   in Loop: Header=BB0_14 Depth=2
	#DEBUG_VALUE: x264_adaptive_quant_frame:h <- [DW_OP_plus_uconst 56] [$rsp+0]
	#DEBUG_VALUE: x264_adaptive_quant_frame:frame <- [DW_OP_plus_uconst 64] [$rsp+0]
	#DEBUG_VALUE: x264_adaptive_quant_frame:avg_adj <- [DW_OP_plus_uconst 20, DW_OP_deref_size 16, DW_OP_stack_value] $rsp
	#DEBUG_VALUE: mb_y <- [DW_OP_plus_uconst 16, DW_OP_deref] $rsp
	#DEBUG_VALUE: avg_adj_pow2 <- [DW_OP_plus_uconst 8, DW_OP_deref] $rsp
	#DEBUG_VALUE: mb_x <- $rbx
	#DEBUG_VALUE: ac_energy_mb:h <- [DW_OP_plus_uconst 56, DW_OP_deref] $rsp
	#DEBUG_VALUE: ac_energy_mb:mb_x <- $rbx
	#DEBUG_VALUE: ac_energy_mb:mb_y <- [DW_OP_plus_uconst 16, DW_OP_deref] $rsp
	#DEBUG_VALUE: ac_energy_mb:frame <- [DW_OP_plus_uconst 64, DW_OP_deref] $rsp
	#DEBUG_VALUE: ac_energy_mb:var <- [DW_OP_LLVM_arg 0, DW_OP_constu 32, DW_OP_shr, DW_OP_LLVM_convert 64 7, DW_OP_LLVM_convert 32 7, DW_OP_LLVM_arg 4, DW_OP_LLVM_convert 64 7, DW_OP_LLVM_convert 32 7, DW_OP_LLVM_arg 5, DW_OP_LLVM_convert 64 7, DW_OP_LLVM_convert 32 7, DW_OP_mul, DW_OP_constu 8, DW_OP_shr, DW_OP_minus, DW_OP_LLVM_arg 1, DW_OP_constu 32, DW_OP_shr, DW_OP_LLVM_convert 64 7, DW_OP_LLVM_convert 32 7, DW_OP_LLVM_arg 2, DW_OP_LLVM_convert 64 7, DW_OP_LLVM_convert 32 7, DW_OP_LLVM_arg 3, DW_OP_LLVM_convert 64 7, DW_OP_LLVM_convert 32 7, DW_OP_mul, DW_OP_constu 6, DW_OP_shr, DW_OP_minus, DW_OP_plus, DW_OP_stack_value] $r15, $rbp, $rbp, $rbp, $r15, $r15
	#DEBUG_VALUE: ac_energy_plane:h <- [DW_OP_plus_uconst 56, DW_OP_deref] $rsp
	#DEBUG_VALUE: ac_energy_plane:mb_x <- $rbx
	#DEBUG_VALUE: ac_energy_plane:mb_y <- [DW_OP_plus_uconst 16, DW_OP_deref] $rsp
	#DEBUG_VALUE: ac_energy_plane:frame <- [DW_OP_plus_uconst 64, DW_OP_deref] $rsp
	#DEBUG_VALUE: ac_energy_plane:i <- 2
	#DEBUG_VALUE: ac_energy_plane:stride <- $esi
	#DEBUG_VALUE: ac_energy_plane:w <- undef
	.loc	0 212 54 is_stmt 1              # x264_src/encoder/ratecontrol.c:212:54
	testb	$1, %r13b
	movl	$0, %eax
	cmovnel	%esi, %eax
	movl	24(%rsp), %edx                  # 4-byte Reload
	.loc	0 211 18                        # x264_src/encoder/ratecontrol.c:211:18
	imull	%esi, %edx
	addl	40(%rsp), %eax                  # 4-byte Folded Reload
	addl	%edx, %eax
	jmp	.LBB0_13
.Ltmp70:
.LBB0_22:                               # %if.else
	#DEBUG_VALUE: x264_adaptive_quant_frame:h <- [DW_OP_plus_uconst 56] [$rsp+0]
	#DEBUG_VALUE: x264_adaptive_quant_frame:frame <- [DW_OP_plus_uconst 64] [$rsp+0]
	#DEBUG_VALUE: x264_adaptive_quant_frame:avg_adj <- 0.000000e+00
	.loc	0 271 46                        # x264_src/encoder/ratecontrol.c:271:46
	mulss	.LCPI0_0(%rip), %xmm2
.Ltmp71:
	#DEBUG_VALUE: x264_adaptive_quant_frame:strength <- $xmm2
	.loc	0 273 34                        # x264_src/encoder/ratecontrol.c:273:34
	movq	3200(%r14), %rax
	movss	%xmm0, 8(%rsp)                  # 4-byte Spill
	#DEBUG_VALUE: x264_adaptive_quant_frame:strength <- $xmm2
.Ltmp72:
	#DEBUG_VALUE: x264_adaptive_quant_frame:avg_adj <- [DW_OP_plus_uconst 8, DW_OP_deref] $rsp
	#DEBUG_VALUE: mb_y <- 0
	.loc	0 273 29 is_stmt 0              # x264_src/encoder/ratecontrol.c:273:29
	cmpl	$0, 1088(%rax)
.Ltmp73:
	.loc	0 273 5                         # x264_src/encoder/ratecontrol.c:273:5
	jg	.LBB0_27
	jmp	.LBB0_51
.Ltmp74:
.LBB0_25:
	#DEBUG_VALUE: x264_adaptive_quant_frame:h <- [DW_OP_plus_uconst 56] [$rsp+0]
	#DEBUG_VALUE: x264_adaptive_quant_frame:frame <- [DW_OP_plus_uconst 64] [$rsp+0]
	#DEBUG_VALUE: x264_adaptive_quant_frame:avg_adj <- 0.000000e+00
	#DEBUG_VALUE: mb_y <- 0
	#DEBUG_VALUE: avg_adj_pow2 <- 0.000000e+00
	.loc	0 0 5                           # x264_src/encoder/ratecontrol.c:0:5
	xorps	%xmm3, %xmm3
	jmp	.LBB0_26
.Ltmp75:
.LBB0_23:                               # %for.cond.cleanup19.loopexit
	#DEBUG_VALUE: x264_adaptive_quant_frame:h <- [DW_OP_plus_uconst 56] [$rsp+0]
	#DEBUG_VALUE: x264_adaptive_quant_frame:frame <- [DW_OP_plus_uconst 64] [$rsp+0]
	#DEBUG_VALUE: x264_adaptive_quant_frame:avg_adj <- $xmm3
	#DEBUG_VALUE: avg_adj_pow2 <- [DW_OP_plus_uconst 8, DW_OP_deref] $rsp
	.loc	0 267 32 is_stmt 1              # x264_src/encoder/ratecontrol.c:267:32
	movss	548(%r14), %xmm2                # xmm2 = mem[0],zero,zero,zero
.Ltmp76:
.LBB0_26:                               # %for.cond.cleanup19
	#DEBUG_VALUE: x264_adaptive_quant_frame:h <- [DW_OP_plus_uconst 56] [$rsp+0]
	#DEBUG_VALUE: x264_adaptive_quant_frame:frame <- [DW_OP_plus_uconst 64] [$rsp+0]
	.loc	0 265 20                        # x264_src/encoder/ratecontrol.c:265:20
	xorps	%xmm0, %xmm0
	cvtsi2ssl	16368(%r14), %xmm0
	.loc	0 265 17 is_stmt 0              # x264_src/encoder/ratecontrol.c:265:17
	divss	%xmm0, %xmm3
.Ltmp77:
	#DEBUG_VALUE: x264_adaptive_quant_frame:avg_adj <- $xmm3
	.loc	0 0 17                          # x264_src/encoder/ratecontrol.c:0:17
	movss	8(%rsp), %xmm1                  # 4-byte Reload
                                        # xmm1 = mem[0],zero,zero,zero
	.loc	0 266 22 is_stmt 1              # x264_src/encoder/ratecontrol.c:266:22
	divss	%xmm0, %xmm1
.Ltmp78:
	#DEBUG_VALUE: avg_adj_pow2 <- $xmm1
	.loc	0 267 46                        # x264_src/encoder/ratecontrol.c:267:46
	mulss	%xmm3, %xmm2
.Ltmp79:
	#DEBUG_VALUE: x264_adaptive_quant_frame:strength <- $xmm2
	.loc	0 268 50                        # x264_src/encoder/ratecontrol.c:268:50
	addss	.LCPI0_2(%rip), %xmm1
.Ltmp80:
	.loc	0 268 34 is_stmt 0              # x264_src/encoder/ratecontrol.c:268:34
	mulss	.LCPI0_3(%rip), %xmm1
	.loc	0 268 58                        # x264_src/encoder/ratecontrol.c:268:58
	divss	%xmm3, %xmm1
	.loc	0 268 27                        # x264_src/encoder/ratecontrol.c:268:27
	addss	%xmm3, %xmm1
.Ltmp81:
	#DEBUG_VALUE: x264_adaptive_quant_frame:avg_adj <- $xmm1
	.loc	0 0 27                          # x264_src/encoder/ratecontrol.c:0:27
	movss	%xmm1, 8(%rsp)                  # 4-byte Spill
.Ltmp82:
	#DEBUG_VALUE: x264_adaptive_quant_frame:avg_adj <- [DW_OP_plus_uconst 8, DW_OP_deref_size 16, DW_OP_stack_value] $rsp
	#DEBUG_VALUE: x264_adaptive_quant_frame:strength <- $xmm2
	#DEBUG_VALUE: x264_adaptive_quant_frame:avg_adj <- [DW_OP_plus_uconst 8, DW_OP_deref] $rsp
	#DEBUG_VALUE: mb_y <- 0
	.loc	0 273 29 is_stmt 1              # x264_src/encoder/ratecontrol.c:273:29
	cmpl	$0, 1088(%rax)
.Ltmp83:
	.loc	0 273 5 is_stmt 0               # x264_src/encoder/ratecontrol.c:273:5
	jle	.LBB0_51
.Ltmp84:
.LBB0_27:                               # %for.cond71.preheader.lr.ph
	#DEBUG_VALUE: x264_adaptive_quant_frame:h <- [DW_OP_plus_uconst 56] [$rsp+0]
	#DEBUG_VALUE: x264_adaptive_quant_frame:frame <- [DW_OP_plus_uconst 64] [$rsp+0]
	#DEBUG_VALUE: x264_adaptive_quant_frame:avg_adj <- [DW_OP_plus_uconst 8, DW_OP_deref] $rsp
	#DEBUG_VALUE: x264_adaptive_quant_frame:strength <- $xmm2
	#DEBUG_VALUE: mb_y <- 0
	.loc	0 274 38 is_stmt 1              # x264_src/encoder/ratecontrol.c:274:38
	movq	3200(%r14), %rax
	.loc	0 274 33 is_stmt 0              # x264_src/encoder/ratecontrol.c:274:33
	cmpl	$0, 1084(%rax)
	jle	.LBB0_51
.Ltmp85:
# %bb.28:                               # %for.cond71.preheader.preheader
	#DEBUG_VALUE: x264_adaptive_quant_frame:h <- [DW_OP_plus_uconst 56] [$rsp+0]
	#DEBUG_VALUE: x264_adaptive_quant_frame:frame <- [DW_OP_plus_uconst 64] [$rsp+0]
	#DEBUG_VALUE: x264_adaptive_quant_frame:avg_adj <- [DW_OP_plus_uconst 8, DW_OP_deref] $rsp
	#DEBUG_VALUE: x264_adaptive_quant_frame:strength <- $xmm2
	#DEBUG_VALUE: mb_y <- 0
	.loc	0 0 33                          # x264_src/encoder/ratecontrol.c:0:33
	xorl	%ebp, %ebp
	movss	%xmm2, 48(%rsp)                 # 4-byte Spill
.Ltmp86:
	#DEBUG_VALUE: x264_adaptive_quant_frame:strength <- [DW_OP_plus_uconst 48, DW_OP_deref_size 16, DW_OP_stack_value] $rsp
	jmp	.LBB0_30
.Ltmp87:
	.p2align	4, 0x90
.LBB0_29:                               # %for.cond.cleanup76
                                        #   in Loop: Header=BB0_30 Depth=1
	#DEBUG_VALUE: x264_adaptive_quant_frame:h <- [DW_OP_plus_uconst 56] [$rsp+0]
	#DEBUG_VALUE: x264_adaptive_quant_frame:frame <- [DW_OP_plus_uconst 64] [$rsp+0]
	#DEBUG_VALUE: x264_adaptive_quant_frame:avg_adj <- [DW_OP_plus_uconst 8, DW_OP_deref] $rsp
	#DEBUG_VALUE: x264_adaptive_quant_frame:strength <- [DW_OP_plus_uconst 48, DW_OP_deref_size 16, DW_OP_stack_value] $rsp
	.loc	0 273 56 is_stmt 1              # x264_src/encoder/ratecontrol.c:273:56
	incl	%ebp
.Ltmp88:
	#DEBUG_VALUE: mb_y <- $ebp
	.loc	0 273 29 is_stmt 0              # x264_src/encoder/ratecontrol.c:273:29
	cmpl	1088(%rax), %ebp
.Ltmp89:
	.loc	0 273 5                         # x264_src/encoder/ratecontrol.c:273:5
	jge	.LBB0_51
.Ltmp90:
.LBB0_30:                               # %for.cond71.preheader
                                        # =>This Loop Header: Depth=1
                                        #     Child Loop BB0_35 Depth 2
	#DEBUG_VALUE: x264_adaptive_quant_frame:h <- [DW_OP_plus_uconst 56] [$rsp+0]
	#DEBUG_VALUE: x264_adaptive_quant_frame:frame <- [DW_OP_plus_uconst 64] [$rsp+0]
	#DEBUG_VALUE: x264_adaptive_quant_frame:avg_adj <- [DW_OP_plus_uconst 8, DW_OP_deref] $rsp
	#DEBUG_VALUE: x264_adaptive_quant_frame:strength <- [DW_OP_plus_uconst 48, DW_OP_deref_size 16, DW_OP_stack_value] $rsp
	#DEBUG_VALUE: mb_y <- $ebp
	#DEBUG_VALUE: mb_x <- 0
	.loc	0 274 33 is_stmt 1              # x264_src/encoder/ratecontrol.c:274:33
	cmpl	$0, 1084(%rax)
.Ltmp91:
	.loc	0 274 9 is_stmt 0               # x264_src/encoder/ratecontrol.c:274:9
	jle	.LBB0_29
.Ltmp92:
# %bb.31:                               # %for.body77.lr.ph
                                        #   in Loop: Header=BB0_30 Depth=1
	#DEBUG_VALUE: x264_adaptive_quant_frame:h <- [DW_OP_plus_uconst 56] [$rsp+0]
	#DEBUG_VALUE: x264_adaptive_quant_frame:frame <- [DW_OP_plus_uconst 64] [$rsp+0]
	#DEBUG_VALUE: x264_adaptive_quant_frame:avg_adj <- [DW_OP_plus_uconst 8, DW_OP_deref] $rsp
	#DEBUG_VALUE: x264_adaptive_quant_frame:strength <- [DW_OP_plus_uconst 48, DW_OP_deref_size 16, DW_OP_stack_value] $rsp
	#DEBUG_VALUE: mb_y <- $ebp
	#DEBUG_VALUE: mb_x <- 0
	.loc	0 0 9                           # x264_src/encoder/ratecontrol.c:0:9
	movl	%ebp, %eax
	shrl	%eax
	movl	%eax, %ecx
	andl	$268435455, %ecx                # imm = 0xFFFFFFF
	andl	$134217727, %eax                # imm = 0x7FFFFFF
.Ltmp93:
	.loc	0 211 18 is_stmt 1              # x264_src/encoder/ratecontrol.c:211:18
	shll	$4, %ecx
	movl	%ecx, 32(%rsp)                  # 4-byte Spill
.Ltmp94:
	.loc	0 211 18 is_stmt 0              # x264_src/encoder/ratecontrol.c:211:18
	shll	$5, %eax
	movl	%eax, 12(%rsp)                  # 4-byte Spill
	xorl	%edi, %edi
	movslq	%ebp, %rsi
	xorl	%r13d, %r13d
	xorl	%ebx, %ebx
	movq	%rsi, 24(%rsp)                  # 8-byte Spill
	movl	%ebp, 16(%rsp)                  # 4-byte Spill
.Ltmp95:
	#DEBUG_VALUE: mb_y <- [DW_OP_plus_uconst 16, DW_OP_deref] $rsp
	.loc	0 0 18                          # x264_src/encoder/ratecontrol.c:0:18
	jmp	.LBB0_35
.Ltmp96:
	.p2align	4, 0x90
.LBB0_32:                               #   in Loop: Header=BB0_35 Depth=2
	#DEBUG_VALUE: x264_adaptive_quant_frame:h <- [DW_OP_plus_uconst 56] [$rsp+0]
	#DEBUG_VALUE: x264_adaptive_quant_frame:frame <- [DW_OP_plus_uconst 64] [$rsp+0]
	#DEBUG_VALUE: x264_adaptive_quant_frame:avg_adj <- [DW_OP_plus_uconst 8, DW_OP_deref] $rsp
	#DEBUG_VALUE: x264_adaptive_quant_frame:strength <- [DW_OP_plus_uconst 48, DW_OP_deref_size 16, DW_OP_stack_value] $rsp
	#DEBUG_VALUE: mb_y <- [DW_OP_plus_uconst 16, DW_OP_deref] $rsp
	#DEBUG_VALUE: mb_x <- $rbx
	#DEBUG_VALUE: x264_exp2fix8:i <- $ecx
	xorl	%eax, %eax
.Ltmp97:
.LBB0_33:                               # %x264_exp2fix8.exit
                                        #   in Loop: Header=BB0_35 Depth=2
	#DEBUG_VALUE: x264_adaptive_quant_frame:h <- [DW_OP_plus_uconst 56] [$rsp+0]
	#DEBUG_VALUE: x264_adaptive_quant_frame:frame <- [DW_OP_plus_uconst 64] [$rsp+0]
	#DEBUG_VALUE: x264_adaptive_quant_frame:avg_adj <- [DW_OP_plus_uconst 8, DW_OP_deref] $rsp
	#DEBUG_VALUE: x264_adaptive_quant_frame:strength <- [DW_OP_plus_uconst 48, DW_OP_deref_size 16, DW_OP_stack_value] $rsp
	#DEBUG_VALUE: mb_y <- [DW_OP_plus_uconst 16, DW_OP_deref] $rsp
	#DEBUG_VALUE: mb_x <- $rbx
	.loc	0 290 24 is_stmt 1              # x264_src/encoder/ratecontrol.c:290:24
	movq	12192(%r12), %rcx
	.loc	0 290 62 is_stmt 0              # x264_src/encoder/ratecontrol.c:290:62
	movslq	16372(%r14), %rdx
	.loc	0 290 17                        # x264_src/encoder/ratecontrol.c:290:17
	imulq	%rsi, %rdx
	addq	%rbx, %rdx
	.loc	0 290 75                        # x264_src/encoder/ratecontrol.c:290:75
	movw	%ax, (%rcx,%rdx,2)
.Ltmp98:
.LBB0_34:                               # %if.end130
                                        #   in Loop: Header=BB0_35 Depth=2
	#DEBUG_VALUE: x264_adaptive_quant_frame:h <- [DW_OP_plus_uconst 56] [$rsp+0]
	#DEBUG_VALUE: x264_adaptive_quant_frame:frame <- [DW_OP_plus_uconst 64] [$rsp+0]
	#DEBUG_VALUE: x264_adaptive_quant_frame:avg_adj <- [DW_OP_plus_uconst 8, DW_OP_deref] $rsp
	#DEBUG_VALUE: x264_adaptive_quant_frame:strength <- [DW_OP_plus_uconst 48, DW_OP_deref_size 16, DW_OP_stack_value] $rsp
	#DEBUG_VALUE: mb_y <- [DW_OP_plus_uconst 16, DW_OP_deref] $rsp
	#DEBUG_VALUE: mb_x <- $rbx
	#DEBUG_VALUE: mb_x <- [DW_OP_consts 1, DW_OP_plus, DW_OP_stack_value] $rbx
	.loc	0 274 38 is_stmt 1              # x264_src/encoder/ratecontrol.c:274:38
	movq	3200(%r14), %rax
	.loc	0 274 33 is_stmt 0              # x264_src/encoder/ratecontrol.c:274:33
	incq	%rbx
.Ltmp99:
	addl	$8, %r13d
	addl	$16, %edi
	cmpl	1084(%rax), %ebx
.Ltmp100:
	.loc	0 274 9                         # x264_src/encoder/ratecontrol.c:274:9
	jge	.LBB0_29
.Ltmp101:
.LBB0_35:                               # %for.body77
                                        #   Parent Loop BB0_30 Depth=1
                                        # =>  This Inner Loop Header: Depth=2
	#DEBUG_VALUE: x264_adaptive_quant_frame:h <- [DW_OP_plus_uconst 56] [$rsp+0]
	#DEBUG_VALUE: x264_adaptive_quant_frame:frame <- [DW_OP_plus_uconst 64] [$rsp+0]
	#DEBUG_VALUE: x264_adaptive_quant_frame:avg_adj <- [DW_OP_plus_uconst 8, DW_OP_deref] $rsp
	#DEBUG_VALUE: x264_adaptive_quant_frame:strength <- [DW_OP_plus_uconst 48, DW_OP_deref_size 16, DW_OP_stack_value] $rsp
	#DEBUG_VALUE: mb_y <- [DW_OP_plus_uconst 16, DW_OP_deref] $rsp
	#DEBUG_VALUE: mb_x <- $rbx
	.loc	0 277 39 is_stmt 1              # x264_src/encoder/ratecontrol.c:277:39
	cmpl	$2, 544(%r14)
.Ltmp102:
	.loc	0 277 17 is_stmt 0              # x264_src/encoder/ratecontrol.c:277:17
	jne	.LBB0_37
.Ltmp103:
# %bb.36:                               # %if.then84
                                        #   in Loop: Header=BB0_35 Depth=2
	#DEBUG_VALUE: x264_adaptive_quant_frame:h <- [DW_OP_plus_uconst 56] [$rsp+0]
	#DEBUG_VALUE: x264_adaptive_quant_frame:frame <- [DW_OP_plus_uconst 64] [$rsp+0]
	#DEBUG_VALUE: x264_adaptive_quant_frame:avg_adj <- [DW_OP_plus_uconst 8, DW_OP_deref] $rsp
	#DEBUG_VALUE: x264_adaptive_quant_frame:strength <- [DW_OP_plus_uconst 48, DW_OP_deref_size 16, DW_OP_stack_value] $rsp
	#DEBUG_VALUE: mb_y <- [DW_OP_plus_uconst 16, DW_OP_deref] $rsp
	#DEBUG_VALUE: mb_x <- $rbx
	.loc	0 279 33 is_stmt 1              # x264_src/encoder/ratecontrol.c:279:33
	movq	12152(%r12), %rcx
	.loc	0 279 63 is_stmt 0              # x264_src/encoder/ratecontrol.c:279:63
	movslq	16372(%r14), %rax
	.loc	0 279 26                        # x264_src/encoder/ratecontrol.c:279:26
	imulq	%rsi, %rax
	addq	%rbx, %rax
	movss	(%rcx,%rax,4), %xmm0            # xmm0 = mem[0],zero,zero,zero
.Ltmp104:
	#DEBUG_VALUE: qp_adj <- $xmm0
	.loc	0 280 45 is_stmt 1              # x264_src/encoder/ratecontrol.c:280:45
	subss	8(%rsp), %xmm0                  # 4-byte Folded Reload
.Ltmp105:
	#DEBUG_VALUE: qp_adj <- undef
	.loc	0 281 13                        # x264_src/encoder/ratecontrol.c:281:13
	jmp	.LBB0_47
.Ltmp106:
	.p2align	4, 0x90
.LBB0_37:                               # %if.else94
                                        #   in Loop: Header=BB0_35 Depth=2
	#DEBUG_VALUE: x264_adaptive_quant_frame:h <- [DW_OP_plus_uconst 56] [$rsp+0]
	#DEBUG_VALUE: x264_adaptive_quant_frame:frame <- [DW_OP_plus_uconst 64] [$rsp+0]
	#DEBUG_VALUE: x264_adaptive_quant_frame:avg_adj <- [DW_OP_plus_uconst 8, DW_OP_deref] $rsp
	#DEBUG_VALUE: x264_adaptive_quant_frame:strength <- [DW_OP_plus_uconst 48, DW_OP_deref_size 16, DW_OP_stack_value] $rsp
	#DEBUG_VALUE: mb_y <- [DW_OP_plus_uconst 16, DW_OP_deref] $rsp
	#DEBUG_VALUE: mb_x <- $rbx
	#DEBUG_VALUE: ac_energy_mb:h <- [DW_OP_plus_uconst 56, DW_OP_deref] $rsp
	#DEBUG_VALUE: ac_energy_mb:mb_x <- $rbx
	#DEBUG_VALUE: ac_energy_mb:mb_y <- [DW_OP_plus_uconst 16, DW_OP_deref] $rsp
	#DEBUG_VALUE: ac_energy_mb:frame <- [DW_OP_plus_uconst 64, DW_OP_deref] $rsp
	#DEBUG_VALUE: ac_energy_plane:h <- [DW_OP_plus_uconst 56, DW_OP_deref] $rsp
	#DEBUG_VALUE: ac_energy_plane:mb_x <- $rbx
	#DEBUG_VALUE: ac_energy_plane:mb_y <- [DW_OP_plus_uconst 16, DW_OP_deref] $rsp
	#DEBUG_VALUE: ac_energy_plane:frame <- [DW_OP_plus_uconst 64, DW_OP_deref] $rsp
	#DEBUG_VALUE: ac_energy_plane:i <- 0
	#DEBUG_VALUE: ac_energy_plane:w <- undef
	#DEBUG_VALUE: ac_energy_plane:shift <- undef
	.loc	0 210 18                        # x264_src/encoder/ratecontrol.c:210:18
	movl	104(%r12), %esi
.Ltmp107:
	#DEBUG_VALUE: ac_energy_plane:stride <- $esi
	.loc	0 211 24                        # x264_src/encoder/ratecontrol.c:211:24
	movl	16436(%r14), %ecx
	.loc	0 211 18 is_stmt 0              # x264_src/encoder/ratecontrol.c:211:18
	testl	%ecx, %ecx
	movq	%rdi, 40(%rsp)                  # 8-byte Spill
	je	.LBB0_39
.Ltmp108:
# %bb.38:                               # %cond.true.i.i206
                                        #   in Loop: Header=BB0_35 Depth=2
	#DEBUG_VALUE: x264_adaptive_quant_frame:h <- [DW_OP_plus_uconst 56] [$rsp+0]
	#DEBUG_VALUE: x264_adaptive_quant_frame:frame <- [DW_OP_plus_uconst 64] [$rsp+0]
	#DEBUG_VALUE: x264_adaptive_quant_frame:avg_adj <- [DW_OP_plus_uconst 8, DW_OP_deref] $rsp
	#DEBUG_VALUE: x264_adaptive_quant_frame:strength <- [DW_OP_plus_uconst 48, DW_OP_deref_size 16, DW_OP_stack_value] $rsp
	#DEBUG_VALUE: mb_y <- [DW_OP_plus_uconst 16, DW_OP_deref] $rsp
	#DEBUG_VALUE: mb_x <- $rbx
	#DEBUG_VALUE: ac_energy_mb:h <- [DW_OP_plus_uconst 56, DW_OP_deref] $rsp
	#DEBUG_VALUE: ac_energy_mb:mb_x <- $rbx
	#DEBUG_VALUE: ac_energy_mb:mb_y <- [DW_OP_plus_uconst 16, DW_OP_deref] $rsp
	#DEBUG_VALUE: ac_energy_mb:frame <- [DW_OP_plus_uconst 64, DW_OP_deref] $rsp
	#DEBUG_VALUE: ac_energy_plane:h <- [DW_OP_plus_uconst 56, DW_OP_deref] $rsp
	#DEBUG_VALUE: ac_energy_plane:mb_x <- $rbx
	#DEBUG_VALUE: ac_energy_plane:mb_y <- [DW_OP_plus_uconst 16, DW_OP_deref] $rsp
	#DEBUG_VALUE: ac_energy_plane:frame <- [DW_OP_plus_uconst 64, DW_OP_deref] $rsp
	#DEBUG_VALUE: ac_energy_plane:i <- 0
	#DEBUG_VALUE: ac_energy_plane:stride <- $esi
	#DEBUG_VALUE: ac_energy_plane:w <- undef
	.loc	0 212 54 is_stmt 1              # x264_src/encoder/ratecontrol.c:212:54
	testb	$1, %bpl
	movl	$0, %eax
	cmovnel	%esi, %eax
	movl	12(%rsp), %edx                  # 4-byte Reload
	.loc	0 211 18                        # x264_src/encoder/ratecontrol.c:211:18
	imull	%esi, %edx
	addl	%edi, %eax
	addl	%edx, %eax
	jmp	.LBB0_40
.Ltmp109:
.LBB0_39:                               # %cond.false.i.i277
                                        #   in Loop: Header=BB0_35 Depth=2
	#DEBUG_VALUE: x264_adaptive_quant_frame:h <- [DW_OP_plus_uconst 56] [$rsp+0]
	#DEBUG_VALUE: x264_adaptive_quant_frame:frame <- [DW_OP_plus_uconst 64] [$rsp+0]
	#DEBUG_VALUE: x264_adaptive_quant_frame:avg_adj <- [DW_OP_plus_uconst 8, DW_OP_deref] $rsp
	#DEBUG_VALUE: x264_adaptive_quant_frame:strength <- [DW_OP_plus_uconst 48, DW_OP_deref_size 16, DW_OP_stack_value] $rsp
	#DEBUG_VALUE: mb_y <- [DW_OP_plus_uconst 16, DW_OP_deref] $rsp
	#DEBUG_VALUE: mb_x <- $rbx
	#DEBUG_VALUE: ac_energy_mb:h <- [DW_OP_plus_uconst 56, DW_OP_deref] $rsp
	#DEBUG_VALUE: ac_energy_mb:mb_x <- $rbx
	#DEBUG_VALUE: ac_energy_mb:mb_y <- [DW_OP_plus_uconst 16, DW_OP_deref] $rsp
	#DEBUG_VALUE: ac_energy_mb:frame <- [DW_OP_plus_uconst 64, DW_OP_deref] $rsp
	#DEBUG_VALUE: ac_energy_plane:h <- [DW_OP_plus_uconst 56, DW_OP_deref] $rsp
	#DEBUG_VALUE: ac_energy_plane:mb_x <- $rbx
	#DEBUG_VALUE: ac_energy_plane:mb_y <- [DW_OP_plus_uconst 16, DW_OP_deref] $rsp
	#DEBUG_VALUE: ac_energy_plane:frame <- [DW_OP_plus_uconst 64, DW_OP_deref] $rsp
	#DEBUG_VALUE: ac_energy_plane:i <- 0
	#DEBUG_VALUE: ac_energy_plane:stride <- $esi
	.loc	0 213 13                        # x264_src/encoder/ratecontrol.c:213:13
	movl	%ebp, %eax
	imull	%esi, %eax
	addl	%ebx, %eax
	shll	$4, %eax
.Ltmp110:
.LBB0_40:                               # %ac_energy_plane.exit.i213
                                        #   in Loop: Header=BB0_35 Depth=2
	#DEBUG_VALUE: x264_adaptive_quant_frame:h <- [DW_OP_plus_uconst 56] [$rsp+0]
	#DEBUG_VALUE: x264_adaptive_quant_frame:frame <- [DW_OP_plus_uconst 64] [$rsp+0]
	#DEBUG_VALUE: x264_adaptive_quant_frame:avg_adj <- [DW_OP_plus_uconst 8, DW_OP_deref] $rsp
	#DEBUG_VALUE: x264_adaptive_quant_frame:strength <- [DW_OP_plus_uconst 48, DW_OP_deref_size 16, DW_OP_stack_value] $rsp
	#DEBUG_VALUE: mb_y <- [DW_OP_plus_uconst 16, DW_OP_deref] $rsp
	#DEBUG_VALUE: mb_x <- $rbx
	#DEBUG_VALUE: ac_energy_mb:h <- [DW_OP_plus_uconst 56, DW_OP_deref] $rsp
	#DEBUG_VALUE: ac_energy_mb:mb_x <- $rbx
	#DEBUG_VALUE: ac_energy_mb:mb_y <- [DW_OP_plus_uconst 16, DW_OP_deref] $rsp
	#DEBUG_VALUE: ac_energy_mb:frame <- [DW_OP_plus_uconst 64, DW_OP_deref] $rsp
	#DEBUG_VALUE: ac_energy_plane:h <- [DW_OP_plus_uconst 56, DW_OP_deref] $rsp
	#DEBUG_VALUE: ac_energy_plane:mb_x <- $rbx
	#DEBUG_VALUE: ac_energy_plane:mb_y <- [DW_OP_plus_uconst 16, DW_OP_deref] $rsp
	#DEBUG_VALUE: ac_energy_plane:frame <- [DW_OP_plus_uconst 64, DW_OP_deref] $rsp
	#DEBUG_VALUE: ac_energy_plane:i <- 0
	#DEBUG_VALUE: ac_energy_plane:stride <- $esi
	#DEBUG_VALUE: ac_energy_plane:shift <- 8
	#DEBUG_VALUE: ac_energy_plane:offset <- $eax
	#DEBUG_VALUE: ac_energy_plane:pix <- undef
                                        # kill: def $cl killed $cl killed $ecx
	.loc	0 215 12                        # x264_src/encoder/ratecontrol.c:215:12
	shll	%cl, %esi
.Ltmp111:
	#DEBUG_VALUE: ac_energy_plane:stride <- $esi
	.loc	0 216 54                        # x264_src/encoder/ratecontrol.c:216:54
	movslq	%eax, %rdi
	addq	152(%r12), %rdi
	.loc	0 216 20 is_stmt 0              # x264_src/encoder/ratecontrol.c:216:20
	callq	*32160(%r14)
.Ltmp112:
	movq	%rax, %r15
.Ltmp113:
	#DEBUG_VALUE: ac_energy_plane:res <- $r15
	#DEBUG_VALUE: ac_energy_plane:sum <- [DW_OP_LLVM_convert 64 7, DW_OP_LLVM_convert 32 7, DW_OP_stack_value] $r15
	#DEBUG_VALUE: ac_energy_plane:sqr <- [DW_OP_constu 32, DW_OP_shr, DW_OP_LLVM_convert 64 7, DW_OP_LLVM_convert 32 7, DW_OP_stack_value] $r15
	#DEBUG_VALUE: ac_energy_mb:var <- [DW_OP_LLVM_arg 0, DW_OP_constu 32, DW_OP_shr, DW_OP_LLVM_convert 64 7, DW_OP_LLVM_convert 32 7, DW_OP_LLVM_arg 1, DW_OP_LLVM_convert 64 7, DW_OP_LLVM_convert 32 7, DW_OP_LLVM_arg 2, DW_OP_LLVM_convert 64 7, DW_OP_LLVM_convert 32 7, DW_OP_mul, DW_OP_constu 8, DW_OP_shr, DW_OP_minus, DW_OP_stack_value] $r15, $r15, $r15
	#DEBUG_VALUE: ac_energy_plane:h <- [DW_OP_plus_uconst 56, DW_OP_deref] $rsp
	#DEBUG_VALUE: ac_energy_plane:mb_x <- $rbx
	#DEBUG_VALUE: ac_energy_plane:mb_y <- [DW_OP_plus_uconst 16, DW_OP_deref] $rsp
	#DEBUG_VALUE: ac_energy_plane:frame <- [DW_OP_plus_uconst 64, DW_OP_deref] $rsp
	#DEBUG_VALUE: ac_energy_plane:i <- 1
	#DEBUG_VALUE: ac_energy_plane:w <- undef
	#DEBUG_VALUE: ac_energy_plane:shift <- undef
	.loc	0 210 18 is_stmt 1              # x264_src/encoder/ratecontrol.c:210:18
	movl	108(%r12), %esi
.Ltmp114:
	#DEBUG_VALUE: ac_energy_plane:stride <- $esi
	.loc	0 211 24                        # x264_src/encoder/ratecontrol.c:211:24
	movl	16436(%r14), %ecx
	.loc	0 211 18 is_stmt 0              # x264_src/encoder/ratecontrol.c:211:18
	testl	%ecx, %ecx
	je	.LBB0_42
.Ltmp115:
# %bb.41:                               # %cond.true.i17.i223
                                        #   in Loop: Header=BB0_35 Depth=2
	#DEBUG_VALUE: x264_adaptive_quant_frame:h <- [DW_OP_plus_uconst 56] [$rsp+0]
	#DEBUG_VALUE: x264_adaptive_quant_frame:frame <- [DW_OP_plus_uconst 64] [$rsp+0]
	#DEBUG_VALUE: x264_adaptive_quant_frame:avg_adj <- [DW_OP_plus_uconst 8, DW_OP_deref] $rsp
	#DEBUG_VALUE: x264_adaptive_quant_frame:strength <- [DW_OP_plus_uconst 48, DW_OP_deref_size 16, DW_OP_stack_value] $rsp
	#DEBUG_VALUE: mb_y <- [DW_OP_plus_uconst 16, DW_OP_deref] $rsp
	#DEBUG_VALUE: mb_x <- $rbx
	#DEBUG_VALUE: ac_energy_mb:h <- [DW_OP_plus_uconst 56, DW_OP_deref] $rsp
	#DEBUG_VALUE: ac_energy_mb:mb_x <- $rbx
	#DEBUG_VALUE: ac_energy_mb:mb_y <- [DW_OP_plus_uconst 16, DW_OP_deref] $rsp
	#DEBUG_VALUE: ac_energy_mb:frame <- [DW_OP_plus_uconst 64, DW_OP_deref] $rsp
	#DEBUG_VALUE: ac_energy_mb:var <- [DW_OP_LLVM_arg 0, DW_OP_constu 32, DW_OP_shr, DW_OP_LLVM_convert 64 7, DW_OP_LLVM_convert 32 7, DW_OP_LLVM_arg 1, DW_OP_LLVM_convert 64 7, DW_OP_LLVM_convert 32 7, DW_OP_LLVM_arg 2, DW_OP_LLVM_convert 64 7, DW_OP_LLVM_convert 32 7, DW_OP_mul, DW_OP_constu 8, DW_OP_shr, DW_OP_minus, DW_OP_stack_value] $r15, $r15, $r15
	#DEBUG_VALUE: ac_energy_plane:h <- [DW_OP_plus_uconst 56, DW_OP_deref] $rsp
	#DEBUG_VALUE: ac_energy_plane:mb_x <- $rbx
	#DEBUG_VALUE: ac_energy_plane:mb_y <- [DW_OP_plus_uconst 16, DW_OP_deref] $rsp
	#DEBUG_VALUE: ac_energy_plane:frame <- [DW_OP_plus_uconst 64, DW_OP_deref] $rsp
	#DEBUG_VALUE: ac_energy_plane:i <- 1
	#DEBUG_VALUE: ac_energy_plane:stride <- $esi
	#DEBUG_VALUE: ac_energy_plane:w <- undef
	.loc	0 212 54 is_stmt 1              # x264_src/encoder/ratecontrol.c:212:54
	testb	$1, %bpl
	movl	$0, %eax
	cmovnel	%esi, %eax
	movl	32(%rsp), %edx                  # 4-byte Reload
	.loc	0 211 18                        # x264_src/encoder/ratecontrol.c:211:18
	imull	%esi, %edx
	addl	%r13d, %eax
	addl	%edx, %eax
	jmp	.LBB0_43
.Ltmp116:
.LBB0_42:                               # %cond.false.i37.i273
                                        #   in Loop: Header=BB0_35 Depth=2
	#DEBUG_VALUE: x264_adaptive_quant_frame:h <- [DW_OP_plus_uconst 56] [$rsp+0]
	#DEBUG_VALUE: x264_adaptive_quant_frame:frame <- [DW_OP_plus_uconst 64] [$rsp+0]
	#DEBUG_VALUE: x264_adaptive_quant_frame:avg_adj <- [DW_OP_plus_uconst 8, DW_OP_deref] $rsp
	#DEBUG_VALUE: x264_adaptive_quant_frame:strength <- [DW_OP_plus_uconst 48, DW_OP_deref_size 16, DW_OP_stack_value] $rsp
	#DEBUG_VALUE: mb_y <- [DW_OP_plus_uconst 16, DW_OP_deref] $rsp
	#DEBUG_VALUE: mb_x <- $rbx
	#DEBUG_VALUE: ac_energy_mb:h <- [DW_OP_plus_uconst 56, DW_OP_deref] $rsp
	#DEBUG_VALUE: ac_energy_mb:mb_x <- $rbx
	#DEBUG_VALUE: ac_energy_mb:mb_y <- [DW_OP_plus_uconst 16, DW_OP_deref] $rsp
	#DEBUG_VALUE: ac_energy_mb:frame <- [DW_OP_plus_uconst 64, DW_OP_deref] $rsp
	#DEBUG_VALUE: ac_energy_mb:var <- [DW_OP_LLVM_arg 0, DW_OP_constu 32, DW_OP_shr, DW_OP_LLVM_convert 64 7, DW_OP_LLVM_convert 32 7, DW_OP_LLVM_arg 1, DW_OP_LLVM_convert 64 7, DW_OP_LLVM_convert 32 7, DW_OP_LLVM_arg 2, DW_OP_LLVM_convert 64 7, DW_OP_LLVM_convert 32 7, DW_OP_mul, DW_OP_constu 8, DW_OP_shr, DW_OP_minus, DW_OP_stack_value] $r15, $r15, $r15
	#DEBUG_VALUE: ac_energy_plane:h <- [DW_OP_plus_uconst 56, DW_OP_deref] $rsp
	#DEBUG_VALUE: ac_energy_plane:mb_x <- $rbx
	#DEBUG_VALUE: ac_energy_plane:mb_y <- [DW_OP_plus_uconst 16, DW_OP_deref] $rsp
	#DEBUG_VALUE: ac_energy_plane:frame <- [DW_OP_plus_uconst 64, DW_OP_deref] $rsp
	#DEBUG_VALUE: ac_energy_plane:i <- 1
	#DEBUG_VALUE: ac_energy_plane:stride <- $esi
	.loc	0 213 13                        # x264_src/encoder/ratecontrol.c:213:13
	movl	%ebp, %eax
	imull	%esi, %eax
	addl	%ebx, %eax
	shll	$3, %eax
.Ltmp117:
.LBB0_43:                               # %ac_energy_plane.exit41.i230
                                        #   in Loop: Header=BB0_35 Depth=2
	#DEBUG_VALUE: x264_adaptive_quant_frame:h <- [DW_OP_plus_uconst 56] [$rsp+0]
	#DEBUG_VALUE: x264_adaptive_quant_frame:frame <- [DW_OP_plus_uconst 64] [$rsp+0]
	#DEBUG_VALUE: x264_adaptive_quant_frame:avg_adj <- [DW_OP_plus_uconst 8, DW_OP_deref] $rsp
	#DEBUG_VALUE: x264_adaptive_quant_frame:strength <- [DW_OP_plus_uconst 48, DW_OP_deref_size 16, DW_OP_stack_value] $rsp
	#DEBUG_VALUE: mb_y <- [DW_OP_plus_uconst 16, DW_OP_deref] $rsp
	#DEBUG_VALUE: mb_x <- $rbx
	#DEBUG_VALUE: ac_energy_mb:h <- [DW_OP_plus_uconst 56, DW_OP_deref] $rsp
	#DEBUG_VALUE: ac_energy_mb:mb_x <- $rbx
	#DEBUG_VALUE: ac_energy_mb:mb_y <- [DW_OP_plus_uconst 16, DW_OP_deref] $rsp
	#DEBUG_VALUE: ac_energy_mb:frame <- [DW_OP_plus_uconst 64, DW_OP_deref] $rsp
	#DEBUG_VALUE: ac_energy_mb:var <- [DW_OP_LLVM_arg 0, DW_OP_constu 32, DW_OP_shr, DW_OP_LLVM_convert 64 7, DW_OP_LLVM_convert 32 7, DW_OP_LLVM_arg 1, DW_OP_LLVM_convert 64 7, DW_OP_LLVM_convert 32 7, DW_OP_LLVM_arg 2, DW_OP_LLVM_convert 64 7, DW_OP_LLVM_convert 32 7, DW_OP_mul, DW_OP_constu 8, DW_OP_shr, DW_OP_minus, DW_OP_stack_value] $r15, $r15, $r15
	#DEBUG_VALUE: ac_energy_plane:h <- [DW_OP_plus_uconst 56, DW_OP_deref] $rsp
	#DEBUG_VALUE: ac_energy_plane:mb_x <- $rbx
	#DEBUG_VALUE: ac_energy_plane:mb_y <- [DW_OP_plus_uconst 16, DW_OP_deref] $rsp
	#DEBUG_VALUE: ac_energy_plane:frame <- [DW_OP_plus_uconst 64, DW_OP_deref] $rsp
	#DEBUG_VALUE: ac_energy_plane:i <- 1
	#DEBUG_VALUE: ac_energy_plane:stride <- $esi
	#DEBUG_VALUE: ac_energy_plane:shift <- 6
	#DEBUG_VALUE: ac_energy_plane:offset <- $eax
	#DEBUG_VALUE: ac_energy_plane:pix <- undef
                                        # kill: def $cl killed $cl killed $ecx
	.loc	0 215 12                        # x264_src/encoder/ratecontrol.c:215:12
	shll	%cl, %esi
.Ltmp118:
	#DEBUG_VALUE: ac_energy_plane:stride <- $esi
	.loc	0 216 54                        # x264_src/encoder/ratecontrol.c:216:54
	movslq	%eax, %rdi
	addq	160(%r12), %rdi
	.loc	0 216 20 is_stmt 0              # x264_src/encoder/ratecontrol.c:216:20
	callq	*32184(%r14)
.Ltmp119:
	.loc	0 0 20                          # x264_src/encoder/ratecontrol.c:0:20
	movq	%r14, %rcx
	.loc	0 216 20                        # x264_src/encoder/ratecontrol.c:216:20
	movq	%rax, %r14
.Ltmp120:
	#DEBUG_VALUE: ac_energy_plane:res <- $r14
	#DEBUG_VALUE: ac_energy_plane:sum <- [DW_OP_LLVM_convert 64 7, DW_OP_LLVM_convert 32 7, DW_OP_stack_value] $r14
	#DEBUG_VALUE: ac_energy_plane:sqr <- [DW_OP_constu 32, DW_OP_shr, DW_OP_LLVM_convert 64 7, DW_OP_LLVM_convert 32 7, DW_OP_stack_value] $r14
	#DEBUG_VALUE: ac_energy_mb:var <- [DW_OP_LLVM_arg 0, DW_OP_constu 32, DW_OP_shr, DW_OP_LLVM_convert 64 7, DW_OP_LLVM_convert 32 7, DW_OP_LLVM_arg 4, DW_OP_LLVM_convert 64 7, DW_OP_LLVM_convert 32 7, DW_OP_LLVM_arg 5, DW_OP_LLVM_convert 64 7, DW_OP_LLVM_convert 32 7, DW_OP_mul, DW_OP_constu 8, DW_OP_shr, DW_OP_minus, DW_OP_LLVM_arg 1, DW_OP_constu 32, DW_OP_shr, DW_OP_LLVM_convert 64 7, DW_OP_LLVM_convert 32 7, DW_OP_LLVM_arg 2, DW_OP_LLVM_convert 64 7, DW_OP_LLVM_convert 32 7, DW_OP_LLVM_arg 3, DW_OP_LLVM_convert 64 7, DW_OP_LLVM_convert 32 7, DW_OP_mul, DW_OP_constu 6, DW_OP_shr, DW_OP_minus, DW_OP_plus, DW_OP_stack_value] $r15, $r14, $r14, $r14, $r15, $r15
	#DEBUG_VALUE: ac_energy_plane:h <- [DW_OP_plus_uconst 56, DW_OP_deref] $rsp
	#DEBUG_VALUE: ac_energy_plane:mb_x <- $rbx
	#DEBUG_VALUE: ac_energy_plane:mb_y <- [DW_OP_plus_uconst 16, DW_OP_deref] $rsp
	#DEBUG_VALUE: ac_energy_plane:frame <- [DW_OP_plus_uconst 64, DW_OP_deref] $rsp
	#DEBUG_VALUE: ac_energy_plane:i <- 2
	#DEBUG_VALUE: ac_energy_plane:w <- undef
	#DEBUG_VALUE: ac_energy_plane:shift <- undef
	.loc	0 210 18 is_stmt 1              # x264_src/encoder/ratecontrol.c:210:18
	movl	112(%r12), %esi
.Ltmp121:
	#DEBUG_VALUE: ac_energy_plane:stride <- $esi
	.loc	0 211 24                        # x264_src/encoder/ratecontrol.c:211:24
	movl	16436(%rcx), %ecx
	.loc	0 211 18 is_stmt 0              # x264_src/encoder/ratecontrol.c:211:18
	testl	%ecx, %ecx
	movl	%r13d, 20(%rsp)                 # 4-byte Spill
	je	.LBB0_45
.Ltmp122:
# %bb.44:                               # %cond.true.i46.i240
                                        #   in Loop: Header=BB0_35 Depth=2
	#DEBUG_VALUE: x264_adaptive_quant_frame:h <- [DW_OP_plus_uconst 56] [$rsp+0]
	#DEBUG_VALUE: x264_adaptive_quant_frame:frame <- [DW_OP_plus_uconst 64] [$rsp+0]
	#DEBUG_VALUE: x264_adaptive_quant_frame:avg_adj <- [DW_OP_plus_uconst 8, DW_OP_deref] $rsp
	#DEBUG_VALUE: x264_adaptive_quant_frame:strength <- [DW_OP_plus_uconst 48, DW_OP_deref_size 16, DW_OP_stack_value] $rsp
	#DEBUG_VALUE: mb_y <- [DW_OP_plus_uconst 16, DW_OP_deref] $rsp
	#DEBUG_VALUE: mb_x <- $rbx
	#DEBUG_VALUE: ac_energy_mb:h <- [DW_OP_plus_uconst 56, DW_OP_deref] $rsp
	#DEBUG_VALUE: ac_energy_mb:mb_x <- $rbx
	#DEBUG_VALUE: ac_energy_mb:mb_y <- [DW_OP_plus_uconst 16, DW_OP_deref] $rsp
	#DEBUG_VALUE: ac_energy_mb:frame <- [DW_OP_plus_uconst 64, DW_OP_deref] $rsp
	#DEBUG_VALUE: ac_energy_mb:var <- [DW_OP_LLVM_arg 0, DW_OP_constu 32, DW_OP_shr, DW_OP_LLVM_convert 64 7, DW_OP_LLVM_convert 32 7, DW_OP_LLVM_arg 4, DW_OP_LLVM_convert 64 7, DW_OP_LLVM_convert 32 7, DW_OP_LLVM_arg 5, DW_OP_LLVM_convert 64 7, DW_OP_LLVM_convert 32 7, DW_OP_mul, DW_OP_constu 8, DW_OP_shr, DW_OP_minus, DW_OP_LLVM_arg 1, DW_OP_constu 32, DW_OP_shr, DW_OP_LLVM_convert 64 7, DW_OP_LLVM_convert 32 7, DW_OP_LLVM_arg 2, DW_OP_LLVM_convert 64 7, DW_OP_LLVM_convert 32 7, DW_OP_LLVM_arg 3, DW_OP_LLVM_convert 64 7, DW_OP_LLVM_convert 32 7, DW_OP_mul, DW_OP_constu 6, DW_OP_shr, DW_OP_minus, DW_OP_plus, DW_OP_stack_value] $r15, $r14, $r14, $r14, $r15, $r15
	#DEBUG_VALUE: ac_energy_plane:h <- [DW_OP_plus_uconst 56, DW_OP_deref] $rsp
	#DEBUG_VALUE: ac_energy_plane:mb_x <- $rbx
	#DEBUG_VALUE: ac_energy_plane:mb_y <- [DW_OP_plus_uconst 16, DW_OP_deref] $rsp
	#DEBUG_VALUE: ac_energy_plane:frame <- [DW_OP_plus_uconst 64, DW_OP_deref] $rsp
	#DEBUG_VALUE: ac_energy_plane:i <- 2
	#DEBUG_VALUE: ac_energy_plane:stride <- $esi
	#DEBUG_VALUE: ac_energy_plane:w <- undef
	.loc	0 212 54 is_stmt 1              # x264_src/encoder/ratecontrol.c:212:54
	testb	$1, %bpl
	movl	$0, %eax
	cmovnel	%esi, %eax
	movl	32(%rsp), %edx                  # 4-byte Reload
	.loc	0 211 18                        # x264_src/encoder/ratecontrol.c:211:18
	imull	%esi, %edx
	addl	%r13d, %eax
	addl	%edx, %eax
	jmp	.LBB0_46
.Ltmp123:
.LBB0_45:                               # %cond.false.i68.i269
                                        #   in Loop: Header=BB0_35 Depth=2
	#DEBUG_VALUE: x264_adaptive_quant_frame:h <- [DW_OP_plus_uconst 56] [$rsp+0]
	#DEBUG_VALUE: x264_adaptive_quant_frame:frame <- [DW_OP_plus_uconst 64] [$rsp+0]
	#DEBUG_VALUE: x264_adaptive_quant_frame:avg_adj <- [DW_OP_plus_uconst 8, DW_OP_deref] $rsp
	#DEBUG_VALUE: x264_adaptive_quant_frame:strength <- [DW_OP_plus_uconst 48, DW_OP_deref_size 16, DW_OP_stack_value] $rsp
	#DEBUG_VALUE: mb_y <- [DW_OP_plus_uconst 16, DW_OP_deref] $rsp
	#DEBUG_VALUE: mb_x <- $rbx
	#DEBUG_VALUE: ac_energy_mb:h <- [DW_OP_plus_uconst 56, DW_OP_deref] $rsp
	#DEBUG_VALUE: ac_energy_mb:mb_x <- $rbx
	#DEBUG_VALUE: ac_energy_mb:mb_y <- [DW_OP_plus_uconst 16, DW_OP_deref] $rsp
	#DEBUG_VALUE: ac_energy_mb:frame <- [DW_OP_plus_uconst 64, DW_OP_deref] $rsp
	#DEBUG_VALUE: ac_energy_mb:var <- [DW_OP_LLVM_arg 0, DW_OP_constu 32, DW_OP_shr, DW_OP_LLVM_convert 64 7, DW_OP_LLVM_convert 32 7, DW_OP_LLVM_arg 4, DW_OP_LLVM_convert 64 7, DW_OP_LLVM_convert 32 7, DW_OP_LLVM_arg 5, DW_OP_LLVM_convert 64 7, DW_OP_LLVM_convert 32 7, DW_OP_mul, DW_OP_constu 8, DW_OP_shr, DW_OP_minus, DW_OP_LLVM_arg 1, DW_OP_constu 32, DW_OP_shr, DW_OP_LLVM_convert 64 7, DW_OP_LLVM_convert 32 7, DW_OP_LLVM_arg 2, DW_OP_LLVM_convert 64 7, DW_OP_LLVM_convert 32 7, DW_OP_LLVM_arg 3, DW_OP_LLVM_convert 64 7, DW_OP_LLVM_convert 32 7, DW_OP_mul, DW_OP_constu 6, DW_OP_shr, DW_OP_minus, DW_OP_plus, DW_OP_stack_value] $r15, $r14, $r14, $r14, $r15, $r15
	#DEBUG_VALUE: ac_energy_plane:h <- [DW_OP_plus_uconst 56, DW_OP_deref] $rsp
	#DEBUG_VALUE: ac_energy_plane:mb_x <- $rbx
	#DEBUG_VALUE: ac_energy_plane:mb_y <- [DW_OP_plus_uconst 16, DW_OP_deref] $rsp
	#DEBUG_VALUE: ac_energy_plane:frame <- [DW_OP_plus_uconst 64, DW_OP_deref] $rsp
	#DEBUG_VALUE: ac_energy_plane:i <- 2
	#DEBUG_VALUE: ac_energy_plane:stride <- $esi
	.loc	0 213 13                        # x264_src/encoder/ratecontrol.c:213:13
	movl	%ebp, %eax
	imull	%esi, %eax
	addl	%ebx, %eax
	shll	$3, %eax
.Ltmp124:
.LBB0_46:                               # %ac_energy_mb.exit281
                                        #   in Loop: Header=BB0_35 Depth=2
	#DEBUG_VALUE: x264_adaptive_quant_frame:h <- [DW_OP_plus_uconst 56] [$rsp+0]
	#DEBUG_VALUE: x264_adaptive_quant_frame:frame <- [DW_OP_plus_uconst 64] [$rsp+0]
	#DEBUG_VALUE: x264_adaptive_quant_frame:avg_adj <- [DW_OP_plus_uconst 8, DW_OP_deref] $rsp
	#DEBUG_VALUE: x264_adaptive_quant_frame:strength <- [DW_OP_plus_uconst 48, DW_OP_deref_size 16, DW_OP_stack_value] $rsp
	#DEBUG_VALUE: mb_y <- [DW_OP_plus_uconst 16, DW_OP_deref] $rsp
	#DEBUG_VALUE: mb_x <- $rbx
	#DEBUG_VALUE: ac_energy_mb:h <- [DW_OP_plus_uconst 56, DW_OP_deref] $rsp
	#DEBUG_VALUE: ac_energy_mb:mb_x <- $rbx
	#DEBUG_VALUE: ac_energy_mb:mb_y <- [DW_OP_plus_uconst 16, DW_OP_deref] $rsp
	#DEBUG_VALUE: ac_energy_mb:frame <- [DW_OP_plus_uconst 64, DW_OP_deref] $rsp
	#DEBUG_VALUE: ac_energy_plane:h <- [DW_OP_plus_uconst 56, DW_OP_deref] $rsp
	#DEBUG_VALUE: ac_energy_plane:mb_x <- $rbx
	#DEBUG_VALUE: ac_energy_plane:mb_y <- [DW_OP_plus_uconst 16, DW_OP_deref] $rsp
	#DEBUG_VALUE: ac_energy_plane:frame <- [DW_OP_plus_uconst 64, DW_OP_deref] $rsp
	#DEBUG_VALUE: ac_energy_plane:i <- 0
	#DEBUG_VALUE: ac_energy_plane:res <- $r15
	#DEBUG_VALUE: ac_energy_mb:var <- [DW_OP_LLVM_arg 0, DW_OP_constu 32, DW_OP_shr, DW_OP_LLVM_convert 64 7, DW_OP_LLVM_convert 32 7, DW_OP_LLVM_arg 4, DW_OP_LLVM_convert 64 7, DW_OP_LLVM_convert 32 7, DW_OP_LLVM_arg 5, DW_OP_LLVM_convert 64 7, DW_OP_LLVM_convert 32 7, DW_OP_mul, DW_OP_constu 8, DW_OP_shr, DW_OP_minus, DW_OP_LLVM_arg 1, DW_OP_constu 32, DW_OP_shr, DW_OP_LLVM_convert 64 7, DW_OP_LLVM_convert 32 7, DW_OP_LLVM_arg 2, DW_OP_LLVM_convert 64 7, DW_OP_LLVM_convert 32 7, DW_OP_LLVM_arg 3, DW_OP_LLVM_convert 64 7, DW_OP_LLVM_convert 32 7, DW_OP_mul, DW_OP_constu 6, DW_OP_shr, DW_OP_minus, DW_OP_plus, DW_OP_stack_value] $r15, $r14, $r14, $r14, $r15, $r15
	#DEBUG_VALUE: ac_energy_plane:h <- [DW_OP_plus_uconst 56, DW_OP_deref] $rsp
	#DEBUG_VALUE: ac_energy_plane:mb_x <- $rbx
	#DEBUG_VALUE: ac_energy_plane:mb_y <- [DW_OP_plus_uconst 16, DW_OP_deref] $rsp
	#DEBUG_VALUE: ac_energy_plane:frame <- [DW_OP_plus_uconst 64, DW_OP_deref] $rsp
	#DEBUG_VALUE: ac_energy_plane:i <- 1
	#DEBUG_VALUE: ac_energy_plane:res <- $r14
	#DEBUG_VALUE: ac_energy_plane:h <- [DW_OP_plus_uconst 56, DW_OP_deref] $rsp
	#DEBUG_VALUE: ac_energy_plane:mb_x <- $rbx
	#DEBUG_VALUE: ac_energy_plane:mb_y <- [DW_OP_plus_uconst 16, DW_OP_deref] $rsp
	#DEBUG_VALUE: ac_energy_plane:frame <- [DW_OP_plus_uconst 64, DW_OP_deref] $rsp
	#DEBUG_VALUE: ac_energy_plane:i <- 2
	#DEBUG_VALUE: ac_energy_plane:stride <- $esi
	.loc	0 218 24                        # x264_src/encoder/ratecontrol.c:218:24
	movq	%r15, %r13
	shrq	$32, %r13
.Ltmp125:
	#DEBUG_VALUE: ac_energy_mb:var <- [DW_OP_LLVM_arg 0, DW_OP_LLVM_convert 64 7, DW_OP_LLVM_convert 32 7, DW_OP_LLVM_arg 1, DW_OP_LLVM_convert 64 7, DW_OP_LLVM_convert 32 7, DW_OP_LLVM_arg 2, DW_OP_LLVM_convert 64 7, DW_OP_LLVM_convert 32 7, DW_OP_mul, DW_OP_constu 8, DW_OP_shr, DW_OP_minus, DW_OP_stack_value] $r13, $r15, $r15
	#DEBUG_VALUE: ac_energy_plane:sqr <- [DW_OP_LLVM_convert 64 7, DW_OP_LLVM_convert 32 7, DW_OP_stack_value] $r13
	#DEBUG_VALUE: ac_energy_mb:var <- [DW_OP_LLVM_arg 0, DW_OP_LLVM_arg 1, DW_OP_LLVM_convert 64 7, DW_OP_LLVM_convert 32 7, DW_OP_LLVM_arg 2, DW_OP_LLVM_convert 64 7, DW_OP_LLVM_convert 32 7, DW_OP_mul, DW_OP_constu 8, DW_OP_shr, DW_OP_minus, DW_OP_stack_value] $r13d, $r15, $r15
	#DEBUG_VALUE: ac_energy_plane:sqr <- $r13d
	#DEBUG_VALUE: ac_energy_plane:sum <- $r15d
	#DEBUG_VALUE: ac_energy_mb:var <- [DW_OP_LLVM_arg 0, DW_OP_LLVM_arg 1, DW_OP_LLVM_arg 2, DW_OP_mul, DW_OP_constu 8, DW_OP_shr, DW_OP_minus, DW_OP_stack_value] $r13d, $r15d, $r15d
	.loc	0 219 23                        # x264_src/encoder/ratecontrol.c:219:23
	imull	%r15d, %r15d
.Ltmp126:
	#DEBUG_VALUE: ac_energy_mb:var <- [DW_OP_LLVM_arg 0, DW_OP_LLVM_arg 1, DW_OP_constu 8, DW_OP_shr, DW_OP_minus, DW_OP_stack_value] $r13d, $r15d
	.loc	0 219 29 is_stmt 0              # x264_src/encoder/ratecontrol.c:219:29
	shrl	$8, %r15d
.Ltmp127:
	#DEBUG_VALUE: ac_energy_mb:var <- undef
	.loc	0 218 24 is_stmt 1              # x264_src/encoder/ratecontrol.c:218:24
	movq	%r14, %r12
	shrq	$32, %r12
.Ltmp128:
	#DEBUG_VALUE: ac_energy_plane:sqr <- [DW_OP_LLVM_convert 64 7, DW_OP_LLVM_convert 32 7, DW_OP_stack_value] $r12
	#DEBUG_VALUE: ac_energy_plane:sqr <- $r12d
	#DEBUG_VALUE: ac_energy_plane:sum <- $r14d
	.loc	0 219 23                        # x264_src/encoder/ratecontrol.c:219:23
	imull	%r14d, %r14d
.Ltmp129:
	.loc	0 219 29 is_stmt 0              # x264_src/encoder/ratecontrol.c:219:29
	shrl	$6, %r14d
.Ltmp130:
	#DEBUG_VALUE: ac_energy_plane:shift <- 6
	#DEBUG_VALUE: ac_energy_plane:offset <- $eax
	#DEBUG_VALUE: ac_energy_plane:pix <- undef
                                        # kill: def $cl killed $cl killed $ecx
	.loc	0 215 12 is_stmt 1              # x264_src/encoder/ratecontrol.c:215:12
	shll	%cl, %esi
.Ltmp131:
	#DEBUG_VALUE: ac_energy_plane:stride <- $esi
	.loc	0 219 16                        # x264_src/encoder/ratecontrol.c:219:16
	addl	%r15d, %r14d
.Ltmp132:
	.loc	0 216 54                        # x264_src/encoder/ratecontrol.c:216:54
	movslq	%eax, %rdi
	movq	64(%rsp), %r15                  # 8-byte Reload
	addq	168(%r15), %rdi
	movq	56(%rsp), %rbp                  # 8-byte Reload
	.loc	0 216 20 is_stmt 0              # x264_src/encoder/ratecontrol.c:216:20
	callq	*32184(%rbp)
.Ltmp133:
	#DEBUG_VALUE: ac_energy_plane:res <- $rax
	#DEBUG_VALUE: ac_energy_plane:sum <- $eax
	.loc	0 218 24 is_stmt 1              # x264_src/encoder/ratecontrol.c:218:24
	movq	%rax, %rcx
	shrq	$32, %rcx
.Ltmp134:
	#DEBUG_VALUE: ac_energy_plane:sqr <- $ecx
	.loc	0 219 23                        # x264_src/encoder/ratecontrol.c:219:23
	imull	%eax, %eax
.Ltmp135:
	.loc	0 219 29 is_stmt 0              # x264_src/encoder/ratecontrol.c:219:29
	shrl	$6, %eax
.Ltmp136:
	.loc	0 231 17 is_stmt 1              # x264_src/encoder/ratecontrol.c:231:17
	addl	%r14d, %eax
	movq	%rbp, %r14
.Ltmp137:
	.loc	0 219 16                        # x264_src/encoder/ratecontrol.c:219:16
	addl	%r13d, %r12d
.Ltmp138:
	.loc	0 231 17                        # x264_src/encoder/ratecontrol.c:231:17
	addl	%ecx, %r12d
	subl	%eax, %r12d
.Ltmp139:
	#DEBUG_VALUE: ac_energy_mb:var <- $r12d
	#DEBUG_VALUE: energy <- $r12d
	.loc	0 285 49                        # x264_src/encoder/ratecontrol.c:285:49
	cmpl	$1, %r12d
	adcl	$0, %r12d
.Ltmp140:
	#DEBUG_VALUE: x264_log2:x <- $r12d
	.loc	1 273 14                        # x264_src/common/common.h:273:14
	bsrl	%r12d, %ecx
.Ltmp141:
	xorl	$31, %ecx
.Ltmp142:
	#DEBUG_VALUE: x264_log2:lz <- $ecx
	.loc	1 274 28                        # x264_src/common/common.h:274:28
	shll	%cl, %r12d
.Ltmp143:
	.loc	1 274 12 is_stmt 0              # x264_src/common/common.h:274:12
	shrl	$22, %r12d
	andl	$508, %r12d                     # imm = 0x1FC
	movq	x264_log2_lut@GOTPCREL(%rip), %rax
	movss	(%rax,%r12), %xmm0              # xmm0 = mem[0],zero,zero,zero
	movq	%r15, %r12
	.loc	1 274 44                        # x264_src/common/common.h:274:44
	movq	x264_log2_lz_lut@GOTPCREL(%rip), %rax
	addss	(%rax,%rcx,4), %xmm0
.Ltmp144:
	.loc	0 285 71 is_stmt 1              # x264_src/encoder/ratecontrol.c:285:71
	addss	.LCPI0_4(%rip), %xmm0
.Ltmp145:
	#DEBUG_VALUE: qp_adj <- undef
	.loc	0 0 71 is_stmt 0                # x264_src/encoder/ratecontrol.c:0:71
	movl	16372(%rbp), %eax
	movl	16(%rsp), %ebp                  # 4-byte Reload
.Ltmp146:
	.loc	0 288 13 is_stmt 1              # x264_src/encoder/ratecontrol.c:288:13
	imull	%ebp, %eax
	addl	%ebx, %eax
	cltq
	movss	48(%rsp), %xmm2                 # 4-byte Reload
                                        # xmm2 = mem[0],zero,zero,zero
	movq	40(%rsp), %rdi                  # 8-byte Reload
	movq	24(%rsp), %rsi                  # 8-byte Reload
	movl	20(%rsp), %r13d                 # 4-byte Reload
.Ltmp147:
.LBB0_47:                               # %if.end102
                                        #   in Loop: Header=BB0_35 Depth=2
	#DEBUG_VALUE: x264_adaptive_quant_frame:h <- [DW_OP_plus_uconst 56] [$rsp+0]
	#DEBUG_VALUE: x264_adaptive_quant_frame:frame <- [DW_OP_plus_uconst 64] [$rsp+0]
	#DEBUG_VALUE: x264_adaptive_quant_frame:avg_adj <- [DW_OP_plus_uconst 8, DW_OP_deref] $rsp
	#DEBUG_VALUE: x264_adaptive_quant_frame:strength <- [DW_OP_plus_uconst 48, DW_OP_deref_size 16, DW_OP_stack_value] $rsp
	#DEBUG_VALUE: mb_y <- [DW_OP_plus_uconst 16, DW_OP_deref] $rsp
	#DEBUG_VALUE: mb_x <- $rbx
	.loc	0 0 0 is_stmt 0                 # x264_src/encoder/ratecontrol.c:0:0
	mulss	%xmm2, %xmm0
.Ltmp148:
	#DEBUG_VALUE: qp_adj <- $xmm0
	.loc	0 288 20                        # x264_src/encoder/ratecontrol.c:288:20
	movq	12160(%r12), %rcx
	.loc	0 288 66                        # x264_src/encoder/ratecontrol.c:288:66
	movss	%xmm0, (%rcx,%rax,4)
	.loc	0 287 20 is_stmt 1              # x264_src/encoder/ratecontrol.c:287:20
	movq	12152(%r12), %rax
	.loc	0 287 50 is_stmt 0              # x264_src/encoder/ratecontrol.c:287:50
	movslq	16372(%r14), %rcx
	.loc	0 287 13                        # x264_src/encoder/ratecontrol.c:287:13
	imulq	%rsi, %rcx
	addq	%rbx, %rcx
	.loc	0 287 63                        # x264_src/encoder/ratecontrol.c:287:63
	movss	%xmm0, (%rax,%rcx,4)
.Ltmp149:
	.loc	0 289 17 is_stmt 1              # x264_src/encoder/ratecontrol.c:289:17
	cmpl	$0, 14672(%r14)
.Ltmp150:
	.loc	0 289 17 is_stmt 0              # x264_src/encoder/ratecontrol.c:289:17
	je	.LBB0_34
.Ltmp151:
# %bb.48:                               # %if.then120
                                        #   in Loop: Header=BB0_35 Depth=2
	#DEBUG_VALUE: x264_adaptive_quant_frame:h <- [DW_OP_plus_uconst 56] [$rsp+0]
	#DEBUG_VALUE: x264_adaptive_quant_frame:frame <- [DW_OP_plus_uconst 64] [$rsp+0]
	#DEBUG_VALUE: x264_adaptive_quant_frame:avg_adj <- [DW_OP_plus_uconst 8, DW_OP_deref] $rsp
	#DEBUG_VALUE: x264_adaptive_quant_frame:strength <- [DW_OP_plus_uconst 48, DW_OP_deref_size 16, DW_OP_stack_value] $rsp
	#DEBUG_VALUE: mb_y <- [DW_OP_plus_uconst 16, DW_OP_deref] $rsp
	#DEBUG_VALUE: mb_x <- $rbx
	#DEBUG_VALUE: qp_adj <- $xmm0
	#DEBUG_VALUE: x264_exp2fix8:x <- $xmm0
	.loc	1 265 27 is_stmt 1              # x264_src/common/common.h:265:27
	mulss	.LCPI0_5(%rip), %xmm0
.Ltmp152:
	addss	.LCPI0_6(%rip), %xmm0
	.loc	1 265 13 is_stmt 0              # x264_src/common/common.h:265:13
	cvttss2si	%xmm0, %ecx
.Ltmp153:
	#DEBUG_VALUE: x264_exp2fix8:i <- $ecx
	.loc	1 266 11 is_stmt 1              # x264_src/common/common.h:266:11
	testl	%ecx, %ecx
.Ltmp154:
	.loc	1 266 9 is_stmt 0               # x264_src/common/common.h:266:9
	js	.LBB0_32
.Ltmp155:
# %bb.49:                               # %if.end.i
                                        #   in Loop: Header=BB0_35 Depth=2
	#DEBUG_VALUE: x264_adaptive_quant_frame:h <- [DW_OP_plus_uconst 56] [$rsp+0]
	#DEBUG_VALUE: x264_adaptive_quant_frame:frame <- [DW_OP_plus_uconst 64] [$rsp+0]
	#DEBUG_VALUE: x264_adaptive_quant_frame:avg_adj <- [DW_OP_plus_uconst 8, DW_OP_deref] $rsp
	#DEBUG_VALUE: x264_adaptive_quant_frame:strength <- [DW_OP_plus_uconst 48, DW_OP_deref_size 16, DW_OP_stack_value] $rsp
	#DEBUG_VALUE: mb_y <- [DW_OP_plus_uconst 16, DW_OP_deref] $rsp
	#DEBUG_VALUE: mb_x <- $rbx
	#DEBUG_VALUE: x264_exp2fix8:i <- $ecx
	.loc	1 0 9                           # x264_src/common/common.h:0:9
	movl	$65535, %eax                    # imm = 0xFFFF
.Ltmp156:
	.loc	1 267 11 is_stmt 1              # x264_src/common/common.h:267:11
	cmpl	$1023, %ecx                     # imm = 0x3FF
.Ltmp157:
	.loc	1 267 9 is_stmt 0               # x264_src/common/common.h:267:9
	ja	.LBB0_33
.Ltmp158:
# %bb.50:                               # %if.end5.i
                                        #   in Loop: Header=BB0_35 Depth=2
	#DEBUG_VALUE: x264_adaptive_quant_frame:h <- [DW_OP_plus_uconst 56] [$rsp+0]
	#DEBUG_VALUE: x264_adaptive_quant_frame:frame <- [DW_OP_plus_uconst 64] [$rsp+0]
	#DEBUG_VALUE: x264_adaptive_quant_frame:avg_adj <- [DW_OP_plus_uconst 8, DW_OP_deref] $rsp
	#DEBUG_VALUE: x264_adaptive_quant_frame:strength <- [DW_OP_plus_uconst 48, DW_OP_deref_size 16, DW_OP_stack_value] $rsp
	#DEBUG_VALUE: mb_y <- [DW_OP_plus_uconst 16, DW_OP_deref] $rsp
	#DEBUG_VALUE: mb_x <- $rbx
	#DEBUG_VALUE: x264_exp2fix8:i <- $ecx
	.loc	1 268 28 is_stmt 1              # x264_src/common/common.h:268:28
	movl	%ecx, %eax
	andl	$63, %eax
	.loc	1 268 13 is_stmt 0              # x264_src/common/common.h:268:13
	movq	x264_exp2_lut@GOTPCREL(%rip), %rdx
	movzbl	(%rdx,%rax), %eax
	.loc	1 268 32                        # x264_src/common/common.h:268:32
	orl	$256, %eax                      # imm = 0x100
	.loc	1 268 43                        # x264_src/common/common.h:268:43
	shrl	$6, %ecx
.Ltmp159:
                                        # kill: def $cl killed $cl killed $ecx
	.loc	1 268 38                        # x264_src/common/common.h:268:38
	shll	%cl, %eax
	.loc	1 268 48                        # x264_src/common/common.h:268:48
	shrl	$8, %eax
	jmp	.LBB0_33
.Ltmp160:
.LBB0_51:                               # %cleanup
	#DEBUG_VALUE: x264_adaptive_quant_frame:h <- [DW_OP_LLVM_entry_value 1] $rdi
	#DEBUG_VALUE: x264_adaptive_quant_frame:frame <- [DW_OP_LLVM_entry_value 1] $rsi
	.loc	0 292 1 epilogue_begin is_stmt 1 # x264_src/encoder/ratecontrol.c:292:1
	addq	$72, %rsp
	.cfi_def_cfa_offset 56
	popq	%rbx
	.cfi_def_cfa_offset 48
	popq	%r12
	.cfi_def_cfa_offset 40
	popq	%r13
	.cfi_def_cfa_offset 32
	popq	%r14
	.cfi_def_cfa_offset 24
	popq	%r15
	.cfi_def_cfa_offset 16
	popq	%rbp
	.cfi_def_cfa_offset 8
	retq
.Ltmp161:
.Lfunc_end0:
	.size	x264_adaptive_quant_frame, .Lfunc_end0-x264_adaptive_quant_frame
	.cfi_endproc
	.file	7 "x264_src" "x264.h" md5 0x0b04871e4f52d5a4d8833c501cba2584
	.file	8 "x264_src/common" "bs.h" md5 0x5e3e135f4389fadb006d4bc4f2055a86
	.file	9 "/usr/include" "stdint.h" md5 0xa48e64edacc5b19f56c99745232c963c
	.file	10 "x264_src/common" "set.h" md5 0x36bc2db0356ac829288e85d371259e00
	.file	11 "x264_src/common" "mc.h" md5 0x04d0fbb98b637fe4174e4cc20d723861
	.file	12 "x264_src/common" "cabac.h" md5 0x22d062fb0f207ca9dcf17e0003a54ffb
	.file	13 "x264_src/common" "frame.h" md5 0x4a274a9291201f03b4af1f57e6a86f6f
	.file	14 "/usr/include/x86_64-linux-gnu/bits/types" "struct_FILE.h" md5 0x1bad07471b7974df4ecc1d1c2ca207e6
	.file	15 "/home/yjs/workspace" "GPUISel-llvm/build/lib/clang/19/include/__stddef_size_t.h" md5 0x2c44e821a2b1951cde2eb0fb2e656867
	.file	16 "/usr/include/x86_64-linux-gnu/bits/types" "FILE.h" md5 0x571f9fb6223c42439075fdde11a0de5d
	.file	17 "x264_src/common" "predict.h" md5 0x5f9c3dfea82ca04aa9f99900c2f3609a
	.file	18 "x264_src/common" "dct.h" md5 0xd983c98245ed7221137d0c4902e9385f
	.file	19 "x264_src/common" "quant.h" md5 0xd1558a6947b2031223cf5868b45335f7
	.file	20 "/usr/include/x86_64-linux-gnu/bits" "mathcalls.h" md5 0x8c6e2d0d2bda65bc5ba1ca02b65383b7
                                        # -- End function
	.section	.rodata.cst8,"aM",@progbits,8
	.p2align	3, 0x0                          # -- Begin function x264_macroblock_tree_read
.LCPI1_0:
	.quad	0x3f70000000000000              # double 0.00390625
	.section	.rodata.cst4,"aM",@progbits,4
	.p2align	2, 0x0
.LCPI1_1:
	.long	0xc12aaaab                      # float -10.666667
.LCPI1_2:
	.long	0x44002000                      # float 512.5
	.text
	.globl	x264_macroblock_tree_read
	.p2align	4, 0x90
	.type	x264_macroblock_tree_read,@function
x264_macroblock_tree_read:              # @x264_macroblock_tree_read
.Lfunc_begin1:
	.loc	0 295 0                         # x264_src/encoder/ratecontrol.c:295:0
	.cfi_startproc
# %bb.0:                                # %entry
	#DEBUG_VALUE: x264_macroblock_tree_read:h <- $rdi
	#DEBUG_VALUE: x264_macroblock_tree_read:frame <- $rsi
	pushq	%rbp
	.cfi_def_cfa_offset 16
	pushq	%r15
	.cfi_def_cfa_offset 24
	pushq	%r14
	.cfi_def_cfa_offset 32
	pushq	%r12
	.cfi_def_cfa_offset 40
	pushq	%rbx
	.cfi_def_cfa_offset 48
	subq	$16, %rsp
	.cfi_def_cfa_offset 64
	.cfi_offset %rbx, -48
	.cfi_offset %r12, -40
	.cfi_offset %r14, -32
	.cfi_offset %r15, -24
	.cfi_offset %rbp, -16
	movq	%rsi, %r14
	movq	%rdi, %rbx
.Ltmp162:
	.loc	0 296 33 prologue_end           # x264_src/encoder/ratecontrol.c:296:33
	movq	26704(%rdi), %r12
.Ltmp163:
	#DEBUG_VALUE: x264_macroblock_tree_read:rc <- $r12
	.loc	0 297 33                        # x264_src/encoder/ratecontrol.c:297:33
	movq	312(%r12), %rax
	.loc	0 297 46 is_stmt 0              # x264_src/encoder/ratecontrol.c:297:46
	movslq	56(%rsi), %rcx
	.loc	0 297 29                        # x264_src/encoder/ratecontrol.c:297:29
	imulq	$168, %rcx, %rcx
.Ltmp164:
	#DEBUG_VALUE: x264_macroblock_tree_read:i_type_actual <- [DW_OP_LLVM_convert 32 7, DW_OP_LLVM_convert 8 7, DW_OP_stack_value] undef
	.loc	0 299 9 is_stmt 1               # x264_src/encoder/ratecontrol.c:299:9
	cmpl	$0, 8(%rax,%rcx)
.Ltmp165:
	.loc	0 299 9 is_stmt 0               # x264_src/encoder/ratecontrol.c:299:9
	je	.LBB1_20
.Ltmp166:
# %bb.1:                                # %if.then
	#DEBUG_VALUE: x264_macroblock_tree_read:h <- $rbx
	#DEBUG_VALUE: x264_macroblock_tree_read:frame <- $r14
	#DEBUG_VALUE: x264_macroblock_tree_read:rc <- $r12
	.loc	0 302 27 is_stmt 1              # x264_src/encoder/ratecontrol.c:302:27
	cmpl	$0, 504(%r12)
.Ltmp167:
	.loc	0 302 13 is_stmt 0              # x264_src/encoder/ratecontrol.c:302:13
	js	.LBB1_3
.Ltmp168:
# %bb.2:                                # %if.then.if.end40_crit_edge
	#DEBUG_VALUE: x264_macroblock_tree_read:h <- $rbx
	#DEBUG_VALUE: x264_macroblock_tree_read:frame <- $r14
	#DEBUG_VALUE: x264_macroblock_tree_read:rc <- $r12
	.loc	0 321 35 is_stmt 1              # x264_src/encoder/ratecontrol.c:321:35
	movl	16368(%rbx), %eax
.Ltmp169:
.LBB1_10:                               # %if.end40
	#DEBUG_VALUE: x264_macroblock_tree_read:h <- $rbx
	#DEBUG_VALUE: x264_macroblock_tree_read:frame <- $r14
	#DEBUG_VALUE: x264_macroblock_tree_read:rc <- $r12
	#DEBUG_VALUE: i <- 0
	.loc	0 321 27 is_stmt 0              # x264_src/encoder/ratecontrol.c:321:27
	testl	%eax, %eax
.Ltmp170:
	.loc	0 321 9                         # x264_src/encoder/ratecontrol.c:321:9
	jle	.LBB1_19
.Ltmp171:
# %bb.11:                               # %for.body.lr.ph
	#DEBUG_VALUE: x264_macroblock_tree_read:h <- $rbx
	#DEBUG_VALUE: x264_macroblock_tree_read:frame <- $r14
	#DEBUG_VALUE: x264_macroblock_tree_read:rc <- $r12
	#DEBUG_VALUE: i <- 0
	.loc	0 0 9                           # x264_src/encoder/ratecontrol.c:0:9
	xorl	%eax, %eax
	movsd	.LCPI1_0(%rip), %xmm0           # xmm0 = [3.90625E-3,0.0E+0]
	movss	.LCPI1_1(%rip), %xmm1           # xmm1 = [-1.0666667E+1,0.0E+0,0.0E+0,0.0E+0]
	movss	.LCPI1_2(%rip), %xmm2           # xmm2 = [5.125E+2,0.0E+0,0.0E+0,0.0E+0]
	movq	x264_exp2_lut@GOTPCREL(%rip), %rdx
	jmp	.LBB1_12
.Ltmp172:
	.p2align	4, 0x90
.LBB1_14:                               #   in Loop: Header=BB1_12 Depth=1
	#DEBUG_VALUE: x264_macroblock_tree_read:h <- $rbx
	#DEBUG_VALUE: x264_macroblock_tree_read:frame <- $r14
	#DEBUG_VALUE: x264_macroblock_tree_read:rc <- $r12
	#DEBUG_VALUE: i <- $rax
	#DEBUG_VALUE: x264_exp2fix8:i <- $ecx
	xorl	%esi, %esi
.Ltmp173:
.LBB1_17:                               # %x264_exp2fix8.exit
                                        #   in Loop: Header=BB1_12 Depth=1
	#DEBUG_VALUE: x264_macroblock_tree_read:h <- $rbx
	#DEBUG_VALUE: x264_macroblock_tree_read:frame <- $r14
	#DEBUG_VALUE: x264_macroblock_tree_read:rc <- $r12
	#DEBUG_VALUE: i <- $rax
	.loc	0 325 24 is_stmt 1              # x264_src/encoder/ratecontrol.c:325:24
	movq	12192(%r14), %rcx
	.loc	0 325 47 is_stmt 0              # x264_src/encoder/ratecontrol.c:325:47
	movw	%si, (%rcx,%rax,2)
.Ltmp174:
.LBB1_18:                               # %for.inc
                                        #   in Loop: Header=BB1_12 Depth=1
	#DEBUG_VALUE: x264_macroblock_tree_read:h <- $rbx
	#DEBUG_VALUE: x264_macroblock_tree_read:frame <- $r14
	#DEBUG_VALUE: x264_macroblock_tree_read:rc <- $r12
	#DEBUG_VALUE: i <- $rax
	.loc	0 321 48 is_stmt 1              # x264_src/encoder/ratecontrol.c:321:48
	incq	%rax
.Ltmp175:
	#DEBUG_VALUE: i <- $rax
	.loc	0 321 35 is_stmt 0              # x264_src/encoder/ratecontrol.c:321:35
	movslq	16368(%rbx), %rcx
	.loc	0 321 27                        # x264_src/encoder/ratecontrol.c:321:27
	cmpq	%rcx, %rax
.Ltmp176:
	.loc	0 321 9                         # x264_src/encoder/ratecontrol.c:321:9
	jge	.LBB1_19
.Ltmp177:
.LBB1_12:                               # %for.body
                                        # =>This Inner Loop Header: Depth=1
	#DEBUG_VALUE: x264_macroblock_tree_read:h <- $rbx
	#DEBUG_VALUE: x264_macroblock_tree_read:frame <- $r14
	#DEBUG_VALUE: x264_macroblock_tree_read:rc <- $r12
	#DEBUG_VALUE: i <- $rax
	.loc	0 323 95 is_stmt 1              # x264_src/encoder/ratecontrol.c:323:95
	movslq	504(%r12), %rcx
	.loc	0 323 77 is_stmt 0              # x264_src/encoder/ratecontrol.c:323:77
	movq	488(%r12,%rcx,8), %rcx
	movzwl	(%rcx,%rax,2), %ecx
.Ltmp178:
	#DEBUG_VALUE: endian_fix16:x <- $cx
	.file	21 "x264_src/common" "osdep.h" md5 0xabed2b0134391efe02a749d457632ae9
	.loc	21 286 18 is_stmt 1             # x264_src/common/osdep.h:286:18
	rolw	$8, %cx
.Ltmp179:
	.loc	0 323 37                        # x264_src/encoder/ratecontrol.c:323:37
	movswl	%cx, %ecx
	xorps	%xmm3, %xmm3
	cvtsi2sd	%ecx, %xmm3
	.loc	0 323 112 is_stmt 0             # x264_src/encoder/ratecontrol.c:323:112
	mulsd	%xmm0, %xmm3
	.loc	0 323 37                        # x264_src/encoder/ratecontrol.c:323:37
	cvtsd2ss	%xmm3, %xmm3
	.loc	0 323 20                        # x264_src/encoder/ratecontrol.c:323:20
	movq	12152(%r14), %rcx
	.loc	0 323 35                        # x264_src/encoder/ratecontrol.c:323:35
	movss	%xmm3, (%rcx,%rax,4)
.Ltmp180:
	.loc	0 324 17 is_stmt 1              # x264_src/encoder/ratecontrol.c:324:17
	cmpl	$0, 14672(%rbx)
.Ltmp181:
	.loc	0 324 17 is_stmt 0              # x264_src/encoder/ratecontrol.c:324:17
	je	.LBB1_18
.Ltmp182:
# %bb.13:                               # %if.then58
                                        #   in Loop: Header=BB1_12 Depth=1
	#DEBUG_VALUE: x264_macroblock_tree_read:h <- $rbx
	#DEBUG_VALUE: x264_macroblock_tree_read:frame <- $r14
	#DEBUG_VALUE: x264_macroblock_tree_read:rc <- $r12
	#DEBUG_VALUE: i <- $rax
	.loc	0 325 70 is_stmt 1              # x264_src/encoder/ratecontrol.c:325:70
	movq	12152(%r14), %rcx
.Ltmp183:
	#DEBUG_VALUE: x264_exp2fix8:x <- undef
	.loc	0 0 70 is_stmt 0                # x264_src/encoder/ratecontrol.c:0:70
	movss	(%rcx,%rax,4), %xmm3            # xmm3 = mem[0],zero,zero,zero
.Ltmp184:
	.loc	1 265 27 is_stmt 1              # x264_src/common/common.h:265:27
	mulss	%xmm1, %xmm3
	addss	%xmm2, %xmm3
	.loc	1 265 13 is_stmt 0              # x264_src/common/common.h:265:13
	cvttss2si	%xmm3, %ecx
.Ltmp185:
	#DEBUG_VALUE: x264_exp2fix8:i <- $ecx
	.loc	1 266 11 is_stmt 1              # x264_src/common/common.h:266:11
	testl	%ecx, %ecx
.Ltmp186:
	.loc	1 266 9 is_stmt 0               # x264_src/common/common.h:266:9
	js	.LBB1_14
.Ltmp187:
# %bb.15:                               # %if.end.i
                                        #   in Loop: Header=BB1_12 Depth=1
	#DEBUG_VALUE: x264_macroblock_tree_read:h <- $rbx
	#DEBUG_VALUE: x264_macroblock_tree_read:frame <- $r14
	#DEBUG_VALUE: x264_macroblock_tree_read:rc <- $r12
	#DEBUG_VALUE: i <- $rax
	#DEBUG_VALUE: x264_exp2fix8:i <- $ecx
	.loc	1 0 9                           # x264_src/common/common.h:0:9
	movl	$65535, %esi                    # imm = 0xFFFF
.Ltmp188:
	.loc	1 267 11 is_stmt 1              # x264_src/common/common.h:267:11
	cmpl	$1023, %ecx                     # imm = 0x3FF
.Ltmp189:
	.loc	1 267 9 is_stmt 0               # x264_src/common/common.h:267:9
	ja	.LBB1_17
.Ltmp190:
# %bb.16:                               # %if.end5.i
                                        #   in Loop: Header=BB1_12 Depth=1
	#DEBUG_VALUE: x264_macroblock_tree_read:h <- $rbx
	#DEBUG_VALUE: x264_macroblock_tree_read:frame <- $r14
	#DEBUG_VALUE: x264_macroblock_tree_read:rc <- $r12
	#DEBUG_VALUE: i <- $rax
	#DEBUG_VALUE: x264_exp2fix8:i <- $ecx
	.loc	1 268 28 is_stmt 1              # x264_src/common/common.h:268:28
	movl	%ecx, %esi
	andl	$63, %esi
	.loc	1 268 13 is_stmt 0              # x264_src/common/common.h:268:13
	movzbl	(%rdx,%rsi), %esi
	.loc	1 268 32                        # x264_src/common/common.h:268:32
	orl	$256, %esi                      # imm = 0x100
	.loc	1 268 43                        # x264_src/common/common.h:268:43
	shrl	$6, %ecx
.Ltmp191:
                                        # kill: def $cl killed $cl killed $ecx
	.loc	1 268 38                        # x264_src/common/common.h:268:38
	shll	%cl, %esi
	.loc	1 268 48                        # x264_src/common/common.h:268:48
	shrl	$8, %esi
	jmp	.LBB1_17
.Ltmp192:
.LBB1_19:                               # %cleanup
	#DEBUG_VALUE: x264_macroblock_tree_read:h <- $rbx
	#DEBUG_VALUE: x264_macroblock_tree_read:frame <- $r14
	#DEBUG_VALUE: x264_macroblock_tree_read:rc <- $r12
	.loc	0 327 22 is_stmt 1              # x264_src/encoder/ratecontrol.c:327:22
	decl	504(%r12)
	xorl	%eax, %eax
	jmp	.LBB1_23
.Ltmp193:
.LBB1_20:                               # %if.else
	#DEBUG_VALUE: x264_macroblock_tree_read:h <- $rbx
	#DEBUG_VALUE: x264_macroblock_tree_read:frame <- $r14
	#DEBUG_VALUE: x264_macroblock_tree_read:rc <- $r12
	.loc	0 330 9                         # x264_src/encoder/ratecontrol.c:330:9
	movq	%rbx, %rdi
	movq	%r14, %rsi
	callq	x264_adaptive_quant_frame
.Ltmp194:
	.loc	0 0 9 is_stmt 0                 # x264_src/encoder/ratecontrol.c:0:9
	xorl	%eax, %eax
	jmp	.LBB1_23
.Ltmp195:
.LBB1_3:                                # %do.body.preheader
	#DEBUG_VALUE: x264_macroblock_tree_read:h <- $rbx
	#DEBUG_VALUE: x264_macroblock_tree_read:frame <- $r14
	#DEBUG_VALUE: x264_macroblock_tree_read:rc <- $r12
	movzbl	(%rax,%rcx), %ebp
.Ltmp196:
	#DEBUG_VALUE: x264_macroblock_tree_read:i_type_actual <- [DW_OP_LLVM_convert 32 7, DW_OP_LLVM_convert 8 7, DW_OP_stack_value] $ebp
	leaq	15(%rsp), %r15
	jmp	.LBB1_4
.Ltmp197:
	.p2align	4, 0x90
.LBB1_9:                                # %do.cond
                                        #   in Loop: Header=BB1_4 Depth=1
	#DEBUG_VALUE: x264_macroblock_tree_read:h <- $rbx
	#DEBUG_VALUE: x264_macroblock_tree_read:frame <- $r14
	#DEBUG_VALUE: x264_macroblock_tree_read:rc <- $r12
	#DEBUG_VALUE: x264_macroblock_tree_read:i_type_actual <- [DW_OP_LLVM_convert 32 7, DW_OP_LLVM_convert 8 7, DW_OP_stack_value] $ebp
	.loc	0 318 29 is_stmt 1              # x264_src/encoder/ratecontrol.c:318:29
	cmpb	%bpl, %cl
.Ltmp198:
	.loc	0 318 13 is_stmt 0              # x264_src/encoder/ratecontrol.c:318:13
	je	.LBB1_10
.Ltmp199:
.LBB1_4:                                # %do.body
                                        # =>This Inner Loop Header: Depth=1
	#DEBUG_VALUE: x264_macroblock_tree_read:h <- $rbx
	#DEBUG_VALUE: x264_macroblock_tree_read:frame <- $r14
	#DEBUG_VALUE: x264_macroblock_tree_read:rc <- $r12
	#DEBUG_VALUE: x264_macroblock_tree_read:i_type_actual <- [DW_OP_LLVM_convert 32 7, DW_OP_LLVM_convert 8 7, DW_OP_stack_value] $ebp
	.loc	0 306 30 is_stmt 1              # x264_src/encoder/ratecontrol.c:306:30
	incl	504(%r12)
.Ltmp200:
	.loc	0 308 48                        # x264_src/encoder/ratecontrol.c:308:48
	movq	296(%r12), %rcx
	.loc	0 308 22 is_stmt 0              # x264_src/encoder/ratecontrol.c:308:22
	movl	$1, %esi
	movl	$1, %edx
	movq	%r15, %rdi
	callq	fread@PLT
.Ltmp201:
	testq	%rax, %rax
.Ltmp202:
	.loc	0 308 21                        # x264_src/encoder/ratecontrol.c:308:21
	je	.LBB1_21
.Ltmp203:
# %bb.5:                                # %if.end
                                        #   in Loop: Header=BB1_4 Depth=1
	#DEBUG_VALUE: x264_macroblock_tree_read:h <- $rbx
	#DEBUG_VALUE: x264_macroblock_tree_read:frame <- $r14
	#DEBUG_VALUE: x264_macroblock_tree_read:rc <- $r12
	#DEBUG_VALUE: x264_macroblock_tree_read:i_type_actual <- [DW_OP_LLVM_convert 32 7, DW_OP_LLVM_convert 8 7, DW_OP_stack_value] $ebp
	.loc	0 310 52 is_stmt 1              # x264_src/encoder/ratecontrol.c:310:52
	movslq	504(%r12), %rax
	.loc	0 310 34 is_stmt 0              # x264_src/encoder/ratecontrol.c:310:34
	movq	488(%r12,%rax,8), %rdi
	.loc	0 310 88                        # x264_src/encoder/ratecontrol.c:310:88
	movslq	16368(%rbx), %rdx
	.loc	0 310 104                       # x264_src/encoder/ratecontrol.c:310:104
	movq	296(%r12), %rcx
	.loc	0 310 27                        # x264_src/encoder/ratecontrol.c:310:27
	movl	$2, %esi
	callq	fread@PLT
.Ltmp204:
	.loc	0 310 128                       # x264_src/encoder/ratecontrol.c:310:128
	cmpl	%eax, 16368(%rbx)
.Ltmp205:
	.loc	0 310 21                        # x264_src/encoder/ratecontrol.c:310:21
	jne	.LBB1_21
.Ltmp206:
# %bb.6:                                # %if.end24
                                        #   in Loop: Header=BB1_4 Depth=1
	#DEBUG_VALUE: x264_macroblock_tree_read:h <- $rbx
	#DEBUG_VALUE: x264_macroblock_tree_read:frame <- $r14
	#DEBUG_VALUE: x264_macroblock_tree_read:rc <- $r12
	#DEBUG_VALUE: x264_macroblock_tree_read:i_type_actual <- [DW_OP_LLVM_convert 32 7, DW_OP_LLVM_convert 8 7, DW_OP_stack_value] $ebp
	.loc	0 313 21 is_stmt 1              # x264_src/encoder/ratecontrol.c:313:21
	movzbl	15(%rsp), %ecx
	.loc	0 313 28 is_stmt 0              # x264_src/encoder/ratecontrol.c:313:28
	cmpl	%ecx, %ebp
	.loc	0 313 45                        # x264_src/encoder/ratecontrol.c:313:45
	je	.LBB1_9
.Ltmp207:
# %bb.7:                                # %land.lhs.true
                                        #   in Loop: Header=BB1_4 Depth=1
	#DEBUG_VALUE: x264_macroblock_tree_read:h <- $rbx
	#DEBUG_VALUE: x264_macroblock_tree_read:frame <- $r14
	#DEBUG_VALUE: x264_macroblock_tree_read:rc <- $r12
	#DEBUG_VALUE: x264_macroblock_tree_read:i_type_actual <- [DW_OP_LLVM_convert 32 7, DW_OP_LLVM_convert 8 7, DW_OP_stack_value] $ebp
	.loc	0 313 62                        # x264_src/encoder/ratecontrol.c:313:62
	cmpl	$1, 504(%r12)
.Ltmp208:
	.loc	0 313 21                        # x264_src/encoder/ratecontrol.c:313:21
	jne	.LBB1_9
.Ltmp209:
# %bb.8:                                # %cleanup.thread103
	#DEBUG_VALUE: x264_macroblock_tree_read:h <- $rbx
	#DEBUG_VALUE: x264_macroblock_tree_read:frame <- $r14
	#DEBUG_VALUE: x264_macroblock_tree_read:rc <- $r12
	#DEBUG_VALUE: x264_macroblock_tree_read:i_type_actual <- [DW_OP_LLVM_convert 32 7, DW_OP_LLVM_convert 8 7, DW_OP_stack_value] $ebp
	.loc	0 315 21 is_stmt 1              # x264_src/encoder/ratecontrol.c:315:21
	movl	$.L.str, %edx
	movq	%rbx, %rdi
	xorl	%esi, %esi
	movl	%ebp, %r8d
	xorl	%eax, %eax
	callq	x264_log@PLT
.Ltmp210:
	.loc	0 0 21 is_stmt 0                # x264_src/encoder/ratecontrol.c:0:21
	jmp	.LBB1_22
.Ltmp211:
.LBB1_21:                               # %fail
	#DEBUG_VALUE: x264_macroblock_tree_read:h <- $rbx
	#DEBUG_VALUE: x264_macroblock_tree_read:frame <- $r14
	#DEBUG_VALUE: x264_macroblock_tree_read:rc <- $r12
	#DEBUG_VALUE: x264_macroblock_tree_read:i_type_actual <- [DW_OP_LLVM_convert 32 7, DW_OP_LLVM_convert 8 7, DW_OP_stack_value] $ebp
	#DEBUG_LABEL: x264_macroblock_tree_read:fail
	.loc	0 333 5 is_stmt 1               # x264_src/encoder/ratecontrol.c:333:5
	movl	$.L.str.1, %edx
	movq	%rbx, %rdi
	xorl	%esi, %esi
	xorl	%eax, %eax
	callq	x264_log@PLT
.Ltmp212:
.LBB1_22:                               # %cleanup70
	#DEBUG_VALUE: x264_macroblock_tree_read:h <- $rbx
	#DEBUG_VALUE: x264_macroblock_tree_read:frame <- $r14
	#DEBUG_VALUE: x264_macroblock_tree_read:rc <- $r12
	#DEBUG_VALUE: x264_macroblock_tree_read:i_type_actual <- [DW_OP_LLVM_convert 32 7, DW_OP_LLVM_convert 8 7, DW_OP_stack_value] $ebp
	.loc	0 0 5 is_stmt 0                 # x264_src/encoder/ratecontrol.c:0:5
	movl	$-1, %eax
.Ltmp213:
.LBB1_23:                               # %cleanup70
	#DEBUG_VALUE: x264_macroblock_tree_read:h <- $rbx
	#DEBUG_VALUE: x264_macroblock_tree_read:frame <- $r14
	#DEBUG_VALUE: x264_macroblock_tree_read:rc <- $r12
	.loc	0 335 1 epilogue_begin is_stmt 1 # x264_src/encoder/ratecontrol.c:335:1
	addq	$16, %rsp
	.cfi_def_cfa_offset 48
	popq	%rbx
.Ltmp214:
	#DEBUG_VALUE: x264_macroblock_tree_read:h <- [DW_OP_LLVM_entry_value 1] $rdi
	.cfi_def_cfa_offset 40
	popq	%r12
.Ltmp215:
	.cfi_def_cfa_offset 32
	popq	%r14
.Ltmp216:
	#DEBUG_VALUE: x264_macroblock_tree_read:frame <- [DW_OP_LLVM_entry_value 1] $rsi
	.cfi_def_cfa_offset 24
	popq	%r15
	.cfi_def_cfa_offset 16
	popq	%rbp
	.cfi_def_cfa_offset 8
	retq
.Ltmp217:
.Lfunc_end1:
	.size	x264_macroblock_tree_read, .Lfunc_end1-x264_macroblock_tree_read
	.cfi_endproc
	.file	22 "/usr/include" "stdio.h" md5 0xf31eefcc3f15835fc5a4023a625cf609
                                        # -- End function
	.globl	x264_reference_build_list_optimal # -- Begin function x264_reference_build_list_optimal
	.p2align	4, 0x90
	.type	x264_reference_build_list_optimal,@function
x264_reference_build_list_optimal:      # @x264_reference_build_list_optimal
.Lfunc_begin2:
	.loc	0 338 0                         # x264_src/encoder/ratecontrol.c:338:0
	.cfi_startproc
# %bb.0:                                # %entry
	#DEBUG_VALUE: x264_reference_build_list_optimal:h <- $rdi
	pushq	%rbp
	.cfi_def_cfa_offset 16
	pushq	%r14
	.cfi_def_cfa_offset 24
	pushq	%rbx
	.cfi_def_cfa_offset 32
	subq	$3264, %rsp                     # imm = 0xCC0
	.cfi_def_cfa_offset 3296
	.cfi_offset %rbx, -32
	.cfi_offset %r14, -24
	.cfi_offset %rbp, -16
	.loc	0 339 35 prologue_end           # x264_src/encoder/ratecontrol.c:339:35
	movq	26704(%rdi), %rax
	.loc	0 339 39 is_stmt 0              # x264_src/encoder/ratecontrol.c:339:39
	movq	72(%rax), %rax
.Ltmp218:
	#DEBUG_VALUE: x264_reference_build_list_optimal:rce <- $rax
	.loc	0 344 14 is_stmt 1              # x264_src/encoder/ratecontrol.c:344:14
	movl	156(%rax), %ecx
	movl	$-1, %ebp
	.loc	0 344 19 is_stmt 0              # x264_src/encoder/ratecontrol.c:344:19
	cmpl	14696(%rdi), %ecx
.Ltmp219:
	.loc	0 344 9                         # x264_src/encoder/ratecontrol.c:344:9
	jne	.LBB2_10
.Ltmp220:
# %bb.1:                                # %if.end
	#DEBUG_VALUE: x264_reference_build_list_optimal:h <- $rdi
	#DEBUG_VALUE: x264_reference_build_list_optimal:rce <- $rax
	.loc	0 0 9                           # x264_src/encoder/ratecontrol.c:0:9
	movq	%rdi, %rbx
	.loc	0 347 5 is_stmt 1               # x264_src/encoder/ratecontrol.c:347:5
	movaps	14816(%rdi), %xmm0
	movaps	%xmm0, 176(%rsp)
	movaps	14800(%rdi), %xmm0
	movaps	%xmm0, 160(%rsp)
	movaps	14784(%rdi), %xmm0
	movaps	%xmm0, 144(%rsp)
	movaps	14768(%rdi), %xmm0
	movaps	%xmm0, 128(%rsp)
	movaps	14704(%rdi), %xmm0
	movaps	14720(%rdi), %xmm1
	movaps	14736(%rdi), %xmm2
	movaps	14752(%rdi), %xmm3
	movaps	%xmm3, 112(%rsp)
	movaps	%xmm2, 96(%rsp)
	movaps	%xmm1, 80(%rsp)
	movaps	%xmm0, 64(%rsp)
	.loc	0 348 5                         # x264_src/encoder/ratecontrol.c:348:5
	movups	92(%rax), %xmm0
	movups	108(%rax), %xmm1
	movups	124(%rax), %xmm2
	movups	140(%rax), %xmm3
	movaps	%xmm0, (%rsp)
	movaps	%xmm1, 16(%rsp)
	movaps	%xmm2, 32(%rsp)
	movaps	%xmm3, 48(%rsp)
	.loc	0 349 25                        # x264_src/encoder/ratecontrol.c:349:25
	movq	14680(%rdi), %r14
	.loc	0 349 31 is_stmt 0              # x264_src/encoder/ratecontrol.c:349:31
	leaq	320(%r14), %rsi
	leaq	192(%rsp), %rdi
.Ltmp221:
	#DEBUG_VALUE: x264_reference_build_list_optimal:h <- $rbx
	.loc	0 349 5                         # x264_src/encoder/ratecontrol.c:349:5
	movl	$3072, %edx                     # imm = 0xC00
	callq	memcpy@PLT
.Ltmp222:
	.loc	0 350 14 is_stmt 1              # x264_src/encoder/ratecontrol.c:350:14
	addq	$512, %r14                      # imm = 0x200
	xorl	%ebp, %ebp
	.loc	0 350 5 is_stmt 0               # x264_src/encoder/ratecontrol.c:350:5
	movl	$2880, %edx                     # imm = 0xB40
	movq	%r14, %rdi
	xorl	%esi, %esi
	callq	memset@PLT
.Ltmp223:
	#DEBUG_VALUE: ref <- 1
	.loc	0 354 32 is_stmt 1              # x264_src/encoder/ratecontrol.c:354:32
	movl	14696(%rbx), %eax
	.loc	0 354 27 is_stmt 0              # x264_src/encoder/ratecontrol.c:354:27
	cmpl	$2, %eax
.Ltmp224:
	.loc	0 354 5                         # x264_src/encoder/ratecontrol.c:354:5
	jl	.LBB2_10
.Ltmp225:
# %bb.2:                                # %for.cond13.preheader.preheader
	#DEBUG_VALUE: x264_reference_build_list_optimal:h <- $rbx
	#DEBUG_VALUE: ref <- 1
	.loc	0 0 5                           # x264_src/encoder/ratecontrol.c:0:5
	movl	$1, %r14d
	jmp	.LBB2_3
.Ltmp226:
	.p2align	4, 0x90
.LBB2_8:                                # %for.cond.cleanup16
                                        #   in Loop: Header=BB2_3 Depth=1
	#DEBUG_VALUE: x264_reference_build_list_optimal:h <- $rbx
	#DEBUG_VALUE: ref <- $r14
	.loc	0 366 9 is_stmt 1               # x264_src/encoder/ratecontrol.c:366:9
	movslq	%ecx, %rax
	.loc	0 366 27 is_stmt 0              # x264_src/encoder/ratecontrol.c:366:27
	movl	$-1, (%rsp,%rax,4)
	.loc	0 367 25 is_stmt 1              # x264_src/encoder/ratecontrol.c:367:25
	movq	64(%rsp,%rax,8), %rcx
	.loc	0 367 23 is_stmt 0              # x264_src/encoder/ratecontrol.c:367:23
	movq	%rcx, 14704(%rbx,%r14,8)
	.loc	0 368 20 is_stmt 1              # x264_src/encoder/ratecontrol.c:368:20
	movq	14680(%rbx), %rcx
	.loc	0 368 17 is_stmt 0              # x264_src/encoder/ratecontrol.c:368:17
	leaq	(%r14,%r14,2), %rdx
	shlq	$6, %rdx
	leaq	(%rcx,%rdx), %rdi
	addq	$320, %rdi                      # imm = 0x140
	.loc	0 368 39                        # x264_src/encoder/ratecontrol.c:368:39
	leaq	(%rax,%rax,2), %rax
	shlq	$6, %rax
	leaq	(%rsp,%rax), %rsi
	addq	$192, %rsi
	.loc	0 368 9                         # x264_src/encoder/ratecontrol.c:368:9
	movl	$192, %edx
	callq	memcpy@PLT
.Ltmp227:
	.loc	0 354 43 is_stmt 1              # x264_src/encoder/ratecontrol.c:354:43
	incq	%r14
.Ltmp228:
	#DEBUG_VALUE: ref <- $r14
	.loc	0 354 32 is_stmt 0              # x264_src/encoder/ratecontrol.c:354:32
	movslq	14696(%rbx), %rax
	.loc	0 354 27                        # x264_src/encoder/ratecontrol.c:354:27
	cmpq	%rax, %r14
.Ltmp229:
	.loc	0 354 5                         # x264_src/encoder/ratecontrol.c:354:5
	jge	.LBB2_9
.Ltmp230:
.LBB2_3:                                # %for.cond13.preheader
                                        # =>This Loop Header: Depth=1
                                        #     Child Loop BB2_12 Depth 2
                                        #     Child Loop BB2_7 Depth 2
	#DEBUG_VALUE: x264_reference_build_list_optimal:h <- $rbx
	#DEBUG_VALUE: ref <- $r14
	#DEBUG_VALUE: i <- 1
	#DEBUG_VALUE: bestref <- 1
	#DEBUG_VALUE: max <- -1
	.loc	0 0 5                           # x264_src/encoder/ratecontrol.c:0:5
	movl	$1, %ecx
.Ltmp231:
	.loc	0 359 27 is_stmt 1              # x264_src/encoder/ratecontrol.c:359:27
	cmpl	$2, %eax
.Ltmp232:
	.loc	0 359 9 is_stmt 0               # x264_src/encoder/ratecontrol.c:359:9
	jl	.LBB2_8
.Ltmp233:
# %bb.4:                                # %for.body17.preheader
                                        #   in Loop: Header=BB2_3 Depth=1
	#DEBUG_VALUE: x264_reference_build_list_optimal:h <- $rbx
	#DEBUG_VALUE: ref <- $r14
	#DEBUG_VALUE: i <- 1
	#DEBUG_VALUE: bestref <- 1
	#DEBUG_VALUE: max <- -1
	.loc	0 359 27                        # x264_src/encoder/ratecontrol.c:359:27
	movl	%eax, %ecx
.Ltmp234:
	.loc	0 359 9                         # x264_src/encoder/ratecontrol.c:359:9
	leaq	-1(%rcx), %rax
	addq	$-2, %rcx
	cmpq	$3, %rcx
	jae	.LBB2_11
.Ltmp235:
# %bb.5:                                #   in Loop: Header=BB2_3 Depth=1
	#DEBUG_VALUE: x264_reference_build_list_optimal:h <- $rbx
	#DEBUG_VALUE: ref <- $r14
	#DEBUG_VALUE: i <- 1
	#DEBUG_VALUE: bestref <- 1
	#DEBUG_VALUE: max <- -1
	.loc	0 0 9                           # x264_src/encoder/ratecontrol.c:0:9
	movl	$-1, %esi
	movl	$1, %ecx
	movl	$1, %edx
.Ltmp236:
.LBB2_6:                                # %for.cond.cleanup16.loopexit.unr-lcssa
                                        #   in Loop: Header=BB2_3 Depth=1
	#DEBUG_VALUE: x264_reference_build_list_optimal:h <- $rbx
	#DEBUG_VALUE: ref <- $r14
	.loc	0 359 9                         # x264_src/encoder/ratecontrol.c:359:9
	andl	$3, %eax
	je	.LBB2_8
.Ltmp237:
	.p2align	4, 0x90
.LBB2_7:                                # %for.body17.epil
                                        #   Parent Loop BB2_3 Depth=1
                                        # =>  This Inner Loop Header: Depth=2
	#DEBUG_VALUE: x264_reference_build_list_optimal:h <- $rbx
	#DEBUG_VALUE: ref <- $r14
	#DEBUG_VALUE: i <- $rdx
	#DEBUG_VALUE: bestref <- $ecx
	#DEBUG_VALUE: max <- $esi
	.loc	0 361 13 is_stmt 1              # x264_src/encoder/ratecontrol.c:361:13
	movl	(%rsp,%rdx,4), %edi
	cmpl	%esi, %edi
.Ltmp238:
	.loc	0 361 13 is_stmt 0              # x264_src/encoder/ratecontrol.c:361:13
	cmovgl	%edi, %esi
.Ltmp239:
	cmovgl	%edx, %ecx
.Ltmp240:
	#DEBUG_VALUE: bestref <- $ecx
	#DEBUG_VALUE: max <- $esi
	.loc	0 359 41 is_stmt 1              # x264_src/encoder/ratecontrol.c:359:41
	incq	%rdx
.Ltmp241:
	#DEBUG_VALUE: i <- $rdx
	.loc	0 359 9 is_stmt 0               # x264_src/encoder/ratecontrol.c:359:9
	decq	%rax
	jne	.LBB2_7
	jmp	.LBB2_8
.Ltmp242:
	.p2align	4, 0x90
.LBB2_11:                               # %for.body17.preheader.new
                                        #   in Loop: Header=BB2_3 Depth=1
	#DEBUG_VALUE: x264_reference_build_list_optimal:h <- $rbx
	#DEBUG_VALUE: ref <- $r14
	#DEBUG_VALUE: i <- 1
	#DEBUG_VALUE: bestref <- 1
	#DEBUG_VALUE: max <- -1
	movq	%rax, %rdi
	andq	$-4, %rdi
	movl	$-1, %esi
	movl	$1, %ecx
	movl	$1, %edx
	xorl	%r8d, %r8d
	jmp	.LBB2_12
.Ltmp243:
	.p2align	4, 0x90
.LBB2_20:                               # %for.body17
                                        #   in Loop: Header=BB2_12 Depth=2
	#DEBUG_VALUE: x264_reference_build_list_optimal:h <- $rbx
	#DEBUG_VALUE: ref <- $r14
	#DEBUG_VALUE: bestref <- $ecx
	#DEBUG_VALUE: max <- $r10d
	.loc	0 0 9                           # x264_src/encoder/ratecontrol.c:0:9
	movl	%r10d, %esi
.Ltmp244:
.LBB2_21:                               # %for.body17
                                        #   in Loop: Header=BB2_12 Depth=2
	#DEBUG_VALUE: x264_reference_build_list_optimal:h <- $rbx
	#DEBUG_VALUE: ref <- $r14
	#DEBUG_VALUE: max <- $r10d
	#DEBUG_VALUE: bestref <- $ecx
	#DEBUG_VALUE: max <- $esi
	.loc	0 359 41                        # x264_src/encoder/ratecontrol.c:359:41
	addq	$4, %rdx
.Ltmp245:
	#DEBUG_VALUE: i <- $rdx
	.loc	0 359 9                         # x264_src/encoder/ratecontrol.c:359:9
	addq	$4, %r8
	cmpq	%rdi, %r8
	je	.LBB2_6
.Ltmp246:
.LBB2_12:                               # %for.body17
                                        #   Parent Loop BB2_3 Depth=1
                                        # =>  This Inner Loop Header: Depth=2
	#DEBUG_VALUE: x264_reference_build_list_optimal:h <- $rbx
	#DEBUG_VALUE: ref <- $r14
	#DEBUG_VALUE: i <- $rdx
	#DEBUG_VALUE: bestref <- $ecx
	#DEBUG_VALUE: max <- $esi
	.loc	0 361 13 is_stmt 1              # x264_src/encoder/ratecontrol.c:361:13
	movl	(%rsp,%rdx,4), %r9d
.Ltmp247:
	#DEBUG_VALUE: i <- undef
	cmpl	%esi, %r9d
.Ltmp248:
	.loc	0 361 13 is_stmt 0              # x264_src/encoder/ratecontrol.c:361:13
	cmovgl	%r9d, %esi
.Ltmp249:
	.loc	0 361 13                        # x264_src/encoder/ratecontrol.c:361:13
	movl	4(%rsp,%rdx,4), %r9d
.Ltmp250:
	.loc	0 361 13                        # x264_src/encoder/ratecontrol.c:361:13
	cmovgl	%edx, %ecx
.Ltmp251:
	#DEBUG_VALUE: bestref <- $ecx
	#DEBUG_VALUE: max <- $esi
	.loc	0 361 13                        # x264_src/encoder/ratecontrol.c:361:13
	cmpl	%esi, %r9d
.Ltmp252:
	.loc	0 361 13                        # x264_src/encoder/ratecontrol.c:361:13
	jg	.LBB2_13
.Ltmp253:
# %bb.14:                               # %for.body17
                                        #   in Loop: Header=BB2_12 Depth=2
	#DEBUG_VALUE: x264_reference_build_list_optimal:h <- $rbx
	#DEBUG_VALUE: ref <- $r14
	#DEBUG_VALUE: bestref <- $ecx
	#DEBUG_VALUE: max <- $esi
	.loc	0 0 13                          # x264_src/encoder/ratecontrol.c:0:13
	movl	%esi, %r9d
	#DEBUG_VALUE: bestref <- $ecx
	#DEBUG_VALUE: max <- $esi
.Ltmp254:
	#DEBUG_VALUE: i <- undef
	.loc	0 361 13                        # x264_src/encoder/ratecontrol.c:361:13
	movl	8(%rsp,%rdx,4), %r10d
	cmpl	%r9d, %r10d
.Ltmp255:
	.loc	0 361 13                        # x264_src/encoder/ratecontrol.c:361:13
	jle	.LBB2_17
.Ltmp256:
.LBB2_16:                               #   in Loop: Header=BB2_12 Depth=2
	#DEBUG_VALUE: x264_reference_build_list_optimal:h <- $rbx
	#DEBUG_VALUE: ref <- $r14
	#DEBUG_VALUE: bestref <- $ecx
	#DEBUG_VALUE: max <- $r9d
	.loc	0 0 0                           # x264_src/encoder/ratecontrol.c:0:0
	leal	2(%rdx), %ecx
.Ltmp257:
	#DEBUG_VALUE: bestref <- $ecx
	#DEBUG_VALUE: max <- $r10d
	#DEBUG_VALUE: i <- undef
	.loc	0 361 13                        # x264_src/encoder/ratecontrol.c:361:13
	movl	12(%rsp,%rdx,4), %esi
	cmpl	%r10d, %esi
.Ltmp258:
	.loc	0 361 13                        # x264_src/encoder/ratecontrol.c:361:13
	jle	.LBB2_20
	jmp	.LBB2_19
.Ltmp259:
	.p2align	4, 0x90
.LBB2_13:                               #   in Loop: Header=BB2_12 Depth=2
	#DEBUG_VALUE: x264_reference_build_list_optimal:h <- $rbx
	#DEBUG_VALUE: ref <- $r14
	#DEBUG_VALUE: bestref <- $ecx
	#DEBUG_VALUE: max <- $esi
	.loc	0 0 0                           # x264_src/encoder/ratecontrol.c:0:0
	leal	1(%rdx), %ecx
.Ltmp260:
	#DEBUG_VALUE: bestref <- $ecx
	#DEBUG_VALUE: max <- $r9d
	#DEBUG_VALUE: i <- undef
	.loc	0 361 13                        # x264_src/encoder/ratecontrol.c:361:13
	movl	8(%rsp,%rdx,4), %r10d
	cmpl	%r9d, %r10d
.Ltmp261:
	.loc	0 361 13                        # x264_src/encoder/ratecontrol.c:361:13
	jg	.LBB2_16
.Ltmp262:
.LBB2_17:                               # %for.body17
                                        #   in Loop: Header=BB2_12 Depth=2
	#DEBUG_VALUE: x264_reference_build_list_optimal:h <- $rbx
	#DEBUG_VALUE: ref <- $r14
	#DEBUG_VALUE: bestref <- $ecx
	#DEBUG_VALUE: max <- $r9d
	.loc	0 0 13                          # x264_src/encoder/ratecontrol.c:0:13
	movl	%r9d, %r10d
	#DEBUG_VALUE: bestref <- $ecx
.Ltmp263:
	#DEBUG_VALUE: max <- $r10d
	#DEBUG_VALUE: i <- undef
	.loc	0 361 13                        # x264_src/encoder/ratecontrol.c:361:13
	movl	12(%rsp,%rdx,4), %esi
	cmpl	%r10d, %esi
.Ltmp264:
	.loc	0 361 13                        # x264_src/encoder/ratecontrol.c:361:13
	jle	.LBB2_20
.Ltmp265:
.LBB2_19:                               #   in Loop: Header=BB2_12 Depth=2
	#DEBUG_VALUE: x264_reference_build_list_optimal:h <- $rbx
	#DEBUG_VALUE: ref <- $r14
	#DEBUG_VALUE: bestref <- $ecx
	#DEBUG_VALUE: max <- $r10d
	.loc	0 0 0                           # x264_src/encoder/ratecontrol.c:0:0
	leal	3(%rdx), %ecx
.Ltmp266:
	.loc	0 361 13                        # x264_src/encoder/ratecontrol.c:361:13
	jmp	.LBB2_21
.Ltmp267:
.LBB2_9:
	#DEBUG_VALUE: x264_reference_build_list_optimal:h <- $rbx
	#DEBUG_VALUE: ref <- $r14
	.loc	0 0 13                          # x264_src/encoder/ratecontrol.c:0:13
	xorl	%ebp, %ebp
.Ltmp268:
.LBB2_10:                               # %cleanup
	#DEBUG_VALUE: x264_reference_build_list_optimal:h <- [DW_OP_LLVM_entry_value 1] $rdi
	.loc	0 372 1 is_stmt 1               # x264_src/encoder/ratecontrol.c:372:1
	movl	%ebp, %eax
	.loc	0 372 1 epilogue_begin is_stmt 0 # x264_src/encoder/ratecontrol.c:372:1
	addq	$3264, %rsp                     # imm = 0xCC0
	.cfi_def_cfa_offset 32
	popq	%rbx
	.cfi_def_cfa_offset 24
	popq	%r14
	.cfi_def_cfa_offset 16
	popq	%rbp
	.cfi_def_cfa_offset 8
	retq
.Ltmp269:
.Lfunc_end2:
	.size	x264_reference_build_list_optimal, .Lfunc_end2-x264_reference_build_list_optimal
	.cfi_endproc
                                        # -- End function
	.section	.rodata.cst8,"aM",@progbits,8
	.p2align	3, 0x0                          # -- Begin function x264_ratecontrol_init_reconfigurable
.LCPI3_0:
	.quad	0x3ff0000000000000              # double 1
.LCPI3_1:
	.quad	0x402b000000000000              # double 13.5
.LCPI3_2:
	.quad	0xc028000000000000              # double -12
.LCPI3_3:
	.quad	0x4018000000000000              # double 6
.LCPI3_4:
	.quad	0x3feb333333333333              # double 0.84999999999999998
.LCPI3_5:
	.quad	0x3fe0000000000000              # double 0.5
.LCPI3_6:
	.quad	0x40f5f90000000000              # double 9.0E+4
.LCPI3_7:
	.quad	0x3ff199999999999a              # double 1.1000000000000001
.LCPI3_8:
	.quad	0x3ff8000000000000              # double 1.5
.LCPI3_9:
	.quad	0xbfe0000000000000              # double -0.5
	.section	.rodata.cst4,"aM",@progbits,4
	.p2align	2, 0x0
.LCPI3_10:
	.long	0x3f800000                      # float 1
	.text
	.globl	x264_ratecontrol_init_reconfigurable
	.p2align	4, 0x90
	.type	x264_ratecontrol_init_reconfigurable,@function
x264_ratecontrol_init_reconfigurable:   # @x264_ratecontrol_init_reconfigurable
.Lfunc_begin3:
	.loc	0 385 0 is_stmt 1               # x264_src/encoder/ratecontrol.c:385:0
	.cfi_startproc
# %bb.0:                                # %entry
	#DEBUG_VALUE: x264_ratecontrol_init_reconfigurable:h <- $rdi
	#DEBUG_VALUE: x264_ratecontrol_init_reconfigurable:b_init <- $esi
	pushq	%rbp
	.cfi_def_cfa_offset 16
	pushq	%r14
	.cfi_def_cfa_offset 24
	pushq	%rbx
	.cfi_def_cfa_offset 32
	subq	$16, %rsp
	.cfi_def_cfa_offset 48
	.cfi_offset %rbx, -32
	.cfi_offset %r14, -24
	.cfi_offset %rbp, -16
	movl	%esi, %ebp
	movq	%rdi, %rbx
.Ltmp270:
	.loc	0 386 33 prologue_end           # x264_src/encoder/ratecontrol.c:386:33
	movq	26704(%rdi), %r14
.Ltmp271:
	#DEBUG_VALUE: x264_ratecontrol_init_reconfigurable:rc <- $r14
	.loc	0 387 10                        # x264_src/encoder/ratecontrol.c:387:10
	testl	%esi, %esi
	.loc	0 387 17 is_stmt 0              # x264_src/encoder/ratecontrol.c:387:17
	je	.LBB3_1
.Ltmp272:
.LBB3_2:                                # %if.end
	#DEBUG_VALUE: x264_ratecontrol_init_reconfigurable:h <- $rbx
	#DEBUG_VALUE: x264_ratecontrol_init_reconfigurable:b_init <- $ebp
	#DEBUG_VALUE: x264_ratecontrol_init_reconfigurable:rc <- $r14
	.loc	0 390 33 is_stmt 1              # x264_src/encoder/ratecontrol.c:390:33
	cmpl	$1, 488(%rbx)
.Ltmp273:
	.loc	0 390 9 is_stmt 0               # x264_src/encoder/ratecontrol.c:390:9
	jne	.LBB3_7
.Ltmp274:
# %bb.3:                                # %if.then4
	#DEBUG_VALUE: x264_ratecontrol_init_reconfigurable:h <- $rbx
	#DEBUG_VALUE: x264_ratecontrol_init_reconfigurable:b_init <- $ebp
	#DEBUG_VALUE: x264_ratecontrol_init_reconfigurable:rc <- $r14
	.loc	0 394 48 is_stmt 1              # x264_src/encoder/ratecontrol.c:394:48
	cmpl	$0, 100(%rbx)
	movl	$80, %eax
	movl	$120, %ecx
	cmovel	%eax, %ecx
	.loc	0 394 45 is_stmt 0              # x264_src/encoder/ratecontrol.c:394:45
	imull	16368(%rbx), %ecx
	.loc	0 394 28                        # x264_src/encoder/ratecontrol.c:394:28
	cvtsi2sd	%ecx, %xmm0
.Ltmp275:
	#DEBUG_VALUE: base_cplx <- $xmm0
	.loc	0 395 32 is_stmt 1              # x264_src/encoder/ratecontrol.c:395:32
	cmpl	$0, 552(%rbx)
	je	.LBB3_4
.Ltmp276:
# %bb.5:                                # %cond.true
	#DEBUG_VALUE: x264_ratecontrol_init_reconfigurable:h <- $rbx
	#DEBUG_VALUE: x264_ratecontrol_init_reconfigurable:b_init <- $ebp
	#DEBUG_VALUE: x264_ratecontrol_init_reconfigurable:rc <- $r14
	#DEBUG_VALUE: base_cplx <- $xmm0
	.loc	0 395 73 is_stmt 0              # x264_src/encoder/ratecontrol.c:395:73
	movss	592(%rbx), %xmm1                # xmm1 = mem[0],zero,zero,zero
	.loc	0 395 61                        # x264_src/encoder/ratecontrol.c:395:61
	cvtss2sd	%xmm1, %xmm1
	movsd	.LCPI3_0(%rip), %xmm2           # xmm2 = [1.0E+0,0.0E+0]
	.loc	0 395 60                        # x264_src/encoder/ratecontrol.c:395:60
	subsd	%xmm1, %xmm2
	.loc	0 395 85                        # x264_src/encoder/ratecontrol.c:395:85
	mulsd	.LCPI3_1(%rip), %xmm2
	movsd	%xmm2, (%rsp)                   # 8-byte Spill
	jmp	.LBB3_6
.Ltmp277:
.LBB3_1:                                # %land.lhs.true
	#DEBUG_VALUE: x264_ratecontrol_init_reconfigurable:h <- $rbx
	#DEBUG_VALUE: x264_ratecontrol_init_reconfigurable:b_init <- $ebp
	#DEBUG_VALUE: x264_ratecontrol_init_reconfigurable:rc <- $r14
	.loc	0 387 20 is_stmt 1              # x264_src/encoder/ratecontrol.c:387:20
	cmpl	$0, 4(%r14)
	jne	.LBB3_28
	jmp	.LBB3_2
.Ltmp278:
.LBB3_4:
	#DEBUG_VALUE: x264_ratecontrol_init_reconfigurable:h <- $rbx
	#DEBUG_VALUE: x264_ratecontrol_init_reconfigurable:b_init <- $ebp
	#DEBUG_VALUE: x264_ratecontrol_init_reconfigurable:rc <- $r14
	#DEBUG_VALUE: base_cplx <- $xmm0
	.loc	0 0 20 is_stmt 0                # x264_src/encoder/ratecontrol.c:0:20
	xorps	%xmm1, %xmm1
	movsd	%xmm1, (%rsp)                   # 8-byte Spill
.Ltmp279:
.LBB3_6:                                # %cond.end
	#DEBUG_VALUE: x264_ratecontrol_init_reconfigurable:h <- $rbx
	#DEBUG_VALUE: x264_ratecontrol_init_reconfigurable:b_init <- $ebp
	#DEBUG_VALUE: x264_ratecontrol_init_reconfigurable:rc <- $r14
	#DEBUG_VALUE: base_cplx <- $xmm0
	#DEBUG_VALUE: mbtree_offset <- [DW_OP_deref] $rsp
	movsd	.LCPI3_0(%rip), %xmm1           # xmm1 = [1.0E+0,0.0E+0]
.Ltmp280:
	.loc	0 396 54 is_stmt 1              # x264_src/encoder/ratecontrol.c:396:54
	subsd	40(%r14), %xmm1
	.loc	0 396 36 is_stmt 0              # x264_src/encoder/ratecontrol.c:396:36
	callq	pow@PLT
.Ltmp281:
	.loc	0 0 36                          # x264_src/encoder/ratecontrol.c:0:36
	movsd	%xmm0, 8(%rsp)                  # 8-byte Spill
	.loc	0 397 59 is_stmt 1              # x264_src/encoder/ratecontrol.c:397:59
	movss	512(%rbx), %xmm0                # xmm0 = mem[0],zero,zero,zero
	.loc	0 397 47 is_stmt 0              # x264_src/encoder/ratecontrol.c:397:47
	cvtss2sd	%xmm0, %xmm0
	.loc	0 397 73                        # x264_src/encoder/ratecontrol.c:397:73
	addsd	(%rsp), %xmm0                   # 8-byte Folded Reload
.Ltmp282:
	#DEBUG_VALUE: qp2qscale:qp <- $xmm0
	.loc	0 186 34 is_stmt 1              # x264_src/encoder/ratecontrol.c:186:34
	addsd	.LCPI3_2(%rip), %xmm0
.Ltmp283:
	.loc	0 186 43 is_stmt 0              # x264_src/encoder/ratecontrol.c:186:43
	divsd	.LCPI3_3(%rip), %xmm0
	.loc	0 186 19                        # x264_src/encoder/ratecontrol.c:186:19
	callq	exp2@PLT
.Ltmp284:
	.loc	0 186 17                        # x264_src/encoder/ratecontrol.c:186:17
	mulsd	.LCPI3_4(%rip), %xmm0
	movsd	8(%rsp), %xmm1                  # 8-byte Reload
                                        # xmm1 = mem[0],zero
.Ltmp285:
	.loc	0 397 34 is_stmt 1              # x264_src/encoder/ratecontrol.c:397:34
	divsd	%xmm0, %xmm1
	.loc	0 396 34                        # x264_src/encoder/ratecontrol.c:396:34
	movsd	%xmm1, 232(%r14)
.Ltmp286:
.LBB3_7:                                # %if.end20
	#DEBUG_VALUE: x264_ratecontrol_init_reconfigurable:h <- $rbx
	#DEBUG_VALUE: x264_ratecontrol_init_reconfigurable:b_init <- $ebp
	#DEBUG_VALUE: x264_ratecontrol_init_reconfigurable:rc <- $r14
	.loc	0 400 21                        # x264_src/encoder/ratecontrol.c:400:21
	movl	524(%rbx), %eax
	.loc	0 400 39 is_stmt 0              # x264_src/encoder/ratecontrol.c:400:39
	testl	%eax, %eax
	.loc	0 400 43                        # x264_src/encoder/ratecontrol.c:400:43
	jle	.LBB3_28
.Ltmp287:
# %bb.8:                                # %land.lhs.true25
	#DEBUG_VALUE: x264_ratecontrol_init_reconfigurable:h <- $rbx
	#DEBUG_VALUE: x264_ratecontrol_init_reconfigurable:b_init <- $ebp
	#DEBUG_VALUE: x264_ratecontrol_init_reconfigurable:rc <- $r14
	.loc	0 400 58                        # x264_src/encoder/ratecontrol.c:400:58
	movl	528(%rbx), %edx
	.loc	0 400 76                        # x264_src/encoder/ratecontrol.c:400:76
	testl	%edx, %edx
.Ltmp288:
	.loc	0 400 9                         # x264_src/encoder/ratecontrol.c:400:9
	jle	.LBB3_28
.Ltmp289:
# %bb.9:                                # %if.then30
	#DEBUG_VALUE: x264_ratecontrol_init_reconfigurable:h <- $rbx
	#DEBUG_VALUE: x264_ratecontrol_init_reconfigurable:b_init <- $ebp
	#DEBUG_VALUE: x264_ratecontrol_init_reconfigurable:rc <- $r14
	.loc	0 402 51 is_stmt 1              # x264_src/encoder/ratecontrol.c:402:51
	xorps	%xmm0, %xmm0
	cvtsi2sd	%eax, %xmm0
	.loc	0 402 81 is_stmt 0              # x264_src/encoder/ratecontrol.c:402:81
	divsd	16(%r14), %xmm0
	.loc	0 402 45                        # x264_src/encoder/ratecontrol.c:402:45
	cvttsd2si	%xmm0, %ecx
	.loc	0 402 43                        # x264_src/encoder/ratecontrol.c:402:43
	cmpl	%ecx, %edx
.Ltmp290:
	.loc	0 402 13                        # x264_src/encoder/ratecontrol.c:402:13
	jge	.LBB3_11
.Ltmp291:
# %bb.10:                               # %if.then42
	#DEBUG_VALUE: x264_ratecontrol_init_reconfigurable:h <- $rbx
	#DEBUG_VALUE: x264_ratecontrol_init_reconfigurable:b_init <- $ebp
	#DEBUG_VALUE: x264_ratecontrol_init_reconfigurable:rc <- $r14
	.loc	0 404 43 is_stmt 1              # x264_src/encoder/ratecontrol.c:404:43
	movl	%ecx, 528(%rbx)
	.loc	0 405 13                        # x264_src/encoder/ratecontrol.c:405:13
	movl	$.L.str.2, %edx
	movq	%rbx, %rdi
	movl	$1, %esi
	xorl	%eax, %eax
	callq	x264_log@PLT
.Ltmp292:
.LBB3_11:                               # %if.end56
	#DEBUG_VALUE: x264_ratecontrol_init_reconfigurable:h <- $rbx
	#DEBUG_VALUE: x264_ratecontrol_init_reconfigurable:b_init <- $ebp
	#DEBUG_VALUE: x264_ratecontrol_init_reconfigurable:rc <- $r14
	.loc	0 411 13                        # x264_src/encoder/ratecontrol.c:411:13
	cmpl	$0, 12(%r14)
.Ltmp293:
	.loc	0 411 13 is_stmt 0              # x264_src/encoder/ratecontrol.c:411:13
	je	.LBB3_12
.Ltmp294:
# %bb.13:                               # %if.then58
	#DEBUG_VALUE: x264_ratecontrol_init_reconfigurable:h <- $rbx
	#DEBUG_VALUE: x264_ratecontrol_init_reconfigurable:b_init <- $ebp
	#DEBUG_VALUE: x264_ratecontrol_init_reconfigurable:rc <- $r14
	.loc	0 412 57 is_stmt 1              # x264_src/encoder/ratecontrol.c:412:57
	movl	508(%rbx), %ecx
	.loc	0 412 43 is_stmt 0              # x264_src/encoder/ratecontrol.c:412:43
	movl	%ecx, 524(%rbx)
	jmp	.LBB3_14
.Ltmp295:
.LBB3_12:                               # %if.end56.if.end64_crit_edge
	#DEBUG_VALUE: x264_ratecontrol_init_reconfigurable:h <- $rbx
	#DEBUG_VALUE: x264_ratecontrol_init_reconfigurable:b_init <- $ebp
	#DEBUG_VALUE: x264_ratecontrol_init_reconfigurable:rc <- $r14
	.loc	0 415 43 is_stmt 1              # x264_src/encoder/ratecontrol.c:415:43
	movl	524(%rbx), %ecx
.Ltmp296:
.LBB3_14:                               # %if.end64
	#DEBUG_VALUE: x264_ratecontrol_init_reconfigurable:h <- $rbx
	#DEBUG_VALUE: x264_ratecontrol_init_reconfigurable:b_init <- $ebp
	#DEBUG_VALUE: x264_ratecontrol_init_reconfigurable:rc <- $r14
	.loc	0 387 10                        # x264_src/encoder/ratecontrol.c:387:10
	testl	%ebp, %ebp
	sete	%sil
.Ltmp297:
	.loc	0 414 61                        # x264_src/encoder/ratecontrol.c:414:61
	imull	$1000, 528(%rbx), %eax          # imm = 0x3E8
.Ltmp298:
	#DEBUG_VALUE: vbv_buffer_size <- $eax
	.loc	0 415 61                        # x264_src/encoder/ratecontrol.c:415:61
	imull	$1000, %ecx, %edx               # imm = 0x3E8
.Ltmp299:
	#DEBUG_VALUE: vbv_max_bitrate <- $edx
	.loc	0 418 22                        # x264_src/encoder/ratecontrol.c:418:22
	movl	40(%rbx), %ecx
	.loc	0 418 13 is_stmt 0              # x264_src/encoder/ratecontrol.c:418:13
	testl	%ecx, %ecx
	sete	%dil
	.loc	0 418 32                        # x264_src/encoder/ratecontrol.c:418:32
	orb	%sil, %dil
	jne	.LBB3_16
.Ltmp300:
# %bb.15:                               # %if.then77
	#DEBUG_VALUE: x264_ratecontrol_init_reconfigurable:h <- $rbx
	#DEBUG_VALUE: x264_ratecontrol_init_reconfigurable:b_init <- $ebp
	#DEBUG_VALUE: x264_ratecontrol_init_reconfigurable:rc <- $r14
	#DEBUG_VALUE: vbv_buffer_size <- $eax
	#DEBUG_VALUE: vbv_max_bitrate <- $edx
	.loc	0 420 16 is_stmt 1              # x264_src/encoder/ratecontrol.c:420:16
	movq	3200(%rbx), %rcx
	.loc	0 420 39 is_stmt 0              # x264_src/encoder/ratecontrol.c:420:39
	movl	$1, 1212(%rcx)
	.loc	0 421 60 is_stmt 1              # x264_src/encoder/ratecontrol.c:421:60
	xorl	%ecx, %ecx
	cmpl	$2, 40(%rbx)
	sete	%cl
	.loc	0 421 16 is_stmt 0              # x264_src/encoder/ratecontrol.c:421:16
	movq	3200(%rbx), %rsi
	.loc	0 421 39                        # x264_src/encoder/ratecontrol.c:421:39
	movl	%ecx, 1240(%rsi)
	.loc	0 422 16 is_stmt 1              # x264_src/encoder/ratecontrol.c:422:16
	movq	3200(%rbx), %rcx
	.loc	0 422 50 is_stmt 0              # x264_src/encoder/ratecontrol.c:422:50
	movl	$0, 1256(%rcx)
	.loc	0 427 31 is_stmt 1              # x264_src/encoder/ratecontrol.c:427:31
	imull	$1000, 524(%rbx), %esi          # imm = 0x3E8
.Ltmp301:
	#DEBUG_VALUE: bitrate <- $esi
	.loc	0 428 31                        # x264_src/encoder/ratecontrol.c:428:31
	imull	$1000, 528(%rbx), %edi          # imm = 0x3E8
.Ltmp302:
	#DEBUG_VALUE: bufsize <- $edi
	#DEBUG_VALUE: x264_clip3:v <- undef
	#DEBUG_VALUE: x264_clip3:i_min <- 0
	#DEBUG_VALUE: x264_clip3:i_max <- 15
	.loc	1 202 14                        # x264_src/common/common.h:202:14
	movl	%esi, %ecx
	orl	$2097152, %ecx                  # imm = 0x200000
	rep		bsfl	%ecx, %ecx
	cmpl	$7, %ecx
	movl	$6, %r8d
	cmovael	%ecx, %r8d
	addl	$-6, %r8d
.Ltmp303:
	.loc	0 431 16                        # x264_src/encoder/ratecontrol.c:431:16
	movq	3200(%rbx), %rcx
	.loc	0 431 46 is_stmt 0              # x264_src/encoder/ratecontrol.c:431:46
	movl	%r8d, 1216(%rcx)
	.loc	0 432 64 is_stmt 1              # x264_src/encoder/ratecontrol.c:432:64
	movq	3200(%rbx), %r8
	.loc	0 432 77 is_stmt 0              # x264_src/encoder/ratecontrol.c:432:77
	movzbl	1216(%r8), %ecx
	.loc	0 432 56                        # x264_src/encoder/ratecontrol.c:432:56
	addb	$6, %cl
	sarl	%cl, %esi
.Ltmp304:
	.loc	0 432 46                        # x264_src/encoder/ratecontrol.c:432:46
	movl	%esi, 1224(%r8)
	.loc	0 433 54 is_stmt 1              # x264_src/encoder/ratecontrol.c:433:54
	movq	3200(%rbx), %r8
	.loc	0 433 67 is_stmt 0              # x264_src/encoder/ratecontrol.c:433:67
	movl	1224(%r8), %r9d
	.loc	0 433 105                       # x264_src/encoder/ratecontrol.c:433:105
	movzbl	1216(%r8), %ecx
	.loc	0 433 84                        # x264_src/encoder/ratecontrol.c:433:84
	addb	$6, %cl
	shll	%cl, %r9d
.Ltmp305:
	.loc	1 202 14 is_stmt 1              # x264_src/common/common.h:202:14
	movl	%edi, %ecx
	orl	$524288, %ecx                   # imm = 0x80000
	rep		bsfl	%ecx, %ecx
	cmpl	$5, %ecx
	movl	$4, %esi
	cmovbl	%esi, %ecx
.Ltmp306:
	.loc	0 433 49                        # x264_src/encoder/ratecontrol.c:433:49
	movl	%r9d, 1232(%r8)
.Ltmp307:
	#DEBUG_VALUE: x264_clip3:v <- undef
	#DEBUG_VALUE: x264_clip3:i_min <- 0
	#DEBUG_VALUE: x264_clip3:i_max <- 15
	.loc	1 202 14                        # x264_src/common/common.h:202:14
	addl	$-4, %ecx
.Ltmp308:
	.loc	0 434 16                        # x264_src/encoder/ratecontrol.c:434:16
	movq	3200(%rbx), %r8
	.loc	0 434 46 is_stmt 0              # x264_src/encoder/ratecontrol.c:434:46
	movl	%ecx, 1220(%r8)
	.loc	0 435 64 is_stmt 1              # x264_src/encoder/ratecontrol.c:435:64
	movq	3200(%rbx), %r8
	.loc	0 435 77 is_stmt 0              # x264_src/encoder/ratecontrol.c:435:77
	movzbl	1220(%r8), %ecx
	.loc	0 435 56                        # x264_src/encoder/ratecontrol.c:435:56
	addb	$4, %cl
	sarl	%cl, %edi
.Ltmp309:
	.loc	0 435 46                        # x264_src/encoder/ratecontrol.c:435:46
	movl	%edi, 1228(%r8)
	.loc	0 436 54 is_stmt 1              # x264_src/encoder/ratecontrol.c:436:54
	movq	3200(%rbx), %rdi
	.loc	0 436 67 is_stmt 0              # x264_src/encoder/ratecontrol.c:436:67
	movl	1228(%rdi), %r8d
	.loc	0 436 105                       # x264_src/encoder/ratecontrol.c:436:105
	movzbl	1220(%rdi), %ecx
	.loc	0 436 84                        # x264_src/encoder/ratecontrol.c:436:84
	addb	$4, %cl
	shll	%cl, %r8d
	.loc	0 436 49                        # x264_src/encoder/ratecontrol.c:436:49
	movl	%r8d, 1236(%rdi)
	.loc	0 444 40 is_stmt 1              # x264_src/encoder/ratecontrol.c:444:40
	cvtsi2sdl	84(%rbx), %xmm0
	movsd	.LCPI3_5(%rip), %xmm1           # xmm1 = [5.0E-1,0.0E+0]
	.loc	0 444 62 is_stmt 0              # x264_src/encoder/ratecontrol.c:444:62
	mulsd	%xmm1, %xmm0
	.loc	0 444 82                        # x264_src/encoder/ratecontrol.c:444:82
	movq	3200(%rbx), %rcx
	.loc	0 444 118                       # x264_src/encoder/ratecontrol.c:444:118
	movl	1192(%rcx), %edi
	.loc	0 444 91                        # x264_src/encoder/ratecontrol.c:444:91
	movl	1196(%rcx), %r8d
	.loc	0 444 79                        # x264_src/encoder/ratecontrol.c:444:79
	cvtsi2sd	%r8, %xmm2
	.loc	0 444 77                        # x264_src/encoder/ratecontrol.c:444:77
	mulsd	%xmm2, %xmm0
	.loc	0 444 106                       # x264_src/encoder/ratecontrol.c:444:106
	cvtsi2sd	%rdi, %xmm3
	.loc	0 444 104                       # x264_src/encoder/ratecontrol.c:444:104
	divsd	%xmm3, %xmm0
	.loc	0 444 40                        # x264_src/encoder/ratecontrol.c:444:40
	cvttsd2si	%xmm0, %r8d
.Ltmp310:
	#DEBUG_VALUE: max_cpb_output_delay <- $r8d
	.loc	0 445 40 is_stmt 1              # x264_src/encoder/ratecontrol.c:445:40
	xorps	%xmm0, %xmm0
	cvtsi2sdl	1292(%rcx), %xmm0
	.loc	0 445 78 is_stmt 0              # x264_src/encoder/ratecontrol.c:445:78
	mulsd	%xmm1, %xmm0
	.loc	0 445 93                        # x264_src/encoder/ratecontrol.c:445:93
	mulsd	%xmm2, %xmm0
	.loc	0 445 120                       # x264_src/encoder/ratecontrol.c:445:120
	divsd	%xmm3, %xmm0
	.loc	0 445 40                        # x264_src/encoder/ratecontrol.c:445:40
	cvttsd2si	%xmm0, %edi
.Ltmp311:
	#DEBUG_VALUE: max_dpb_output_delay <- $edi
	.loc	0 446 45 is_stmt 1              # x264_src/encoder/ratecontrol.c:446:45
	xorps	%xmm0, %xmm0
	cvtsi2sdl	1236(%rcx), %xmm0
	.loc	0 446 43 is_stmt 0              # x264_src/encoder/ratecontrol.c:446:43
	mulsd	.LCPI3_6(%rip), %xmm0
	.loc	0 446 91                        # x264_src/encoder/ratecontrol.c:446:91
	xorps	%xmm2, %xmm2
	cvtsi2sdl	1232(%rcx), %xmm2
	.loc	0 446 89                        # x264_src/encoder/ratecontrol.c:446:89
	divsd	%xmm2, %xmm0
	.loc	0 446 127                       # x264_src/encoder/ratecontrol.c:446:127
	addsd	%xmm1, %xmm0
	.loc	0 446 29                        # x264_src/encoder/ratecontrol.c:446:29
	cvttsd2si	%xmm0, %r9d
.Ltmp312:
	#DEBUG_VALUE: max_delay <- $r9d
	.loc	0 448 87 is_stmt 1              # x264_src/encoder/ratecontrol.c:448:87
	bsrl	%r9d, %r9d
.Ltmp313:
	xorl	$-32, %r9d
	.loc	0 448 85 is_stmt 0              # x264_src/encoder/ratecontrol.c:448:85
	addl	$33, %r9d
.Ltmp314:
	#DEBUG_VALUE: x264_clip3:v <- $r9d
	#DEBUG_VALUE: x264_clip3:i_min <- 4
	#DEBUG_VALUE: x264_clip3:i_max <- 22
	.loc	1 202 14 is_stmt 1              # x264_src/common/common.h:202:14
	cmpl	$22, %r9d
	movl	$22, %r10d
	cmovbl	%r9d, %r10d
	cmpl	$5, %r10d
	cmovbl	%esi, %r10d
.Ltmp315:
	.loc	0 448 68                        # x264_src/encoder/ratecontrol.c:448:68
	addl	$2, %r10d
	.loc	0 449 75                        # x264_src/encoder/ratecontrol.c:449:75
	bsrl	%r8d, %r8d
.Ltmp316:
	xorl	$-32, %r8d
	.loc	0 449 73 is_stmt 0              # x264_src/encoder/ratecontrol.c:449:73
	addl	$33, %r8d
.Ltmp317:
	#DEBUG_VALUE: x264_clip3:v <- $r8d
	#DEBUG_VALUE: x264_clip3:i_min <- 4
	#DEBUG_VALUE: x264_clip3:i_max <- 32
	.loc	1 202 14 is_stmt 1              # x264_src/common/common.h:202:14
	cmpl	$5, %r8d
	cmovbl	%esi, %r8d
.Ltmp318:
	.loc	0 448 64                        # x264_src/encoder/ratecontrol.c:448:64
	movl	%r10d, 1244(%rcx)
	.loc	0 449 16                        # x264_src/encoder/ratecontrol.c:449:16
	movq	3200(%rbx), %rcx
	.loc	0 450 75                        # x264_src/encoder/ratecontrol.c:450:75
	bsrl	%edi, %edi
.Ltmp319:
	xorl	$-32, %edi
	.loc	0 450 73 is_stmt 0              # x264_src/encoder/ratecontrol.c:450:73
	addl	$33, %edi
.Ltmp320:
	#DEBUG_VALUE: x264_clip3:v <- $edi
	#DEBUG_VALUE: x264_clip3:i_min <- 4
	#DEBUG_VALUE: x264_clip3:i_max <- 32
	.loc	1 202 14 is_stmt 1              # x264_src/common/common.h:202:14
	cmpl	$5, %edi
	cmovbl	%esi, %edi
.Ltmp321:
	.loc	0 449 56                        # x264_src/encoder/ratecontrol.c:449:56
	movl	%r8d, 1248(%rcx)
	.loc	0 450 16                        # x264_src/encoder/ratecontrol.c:450:16
	movq	3200(%rbx), %rcx
	.loc	0 450 56 is_stmt 0              # x264_src/encoder/ratecontrol.c:450:56
	movl	%edi, 1252(%rcx)
	.loc	0 454 31 is_stmt 1              # x264_src/encoder/ratecontrol.c:454:31
	movq	3200(%rbx), %rcx
	movl	1236(%rcx), %esi
	cmpl	%esi, %eax
	cmovgel	%esi, %eax
.Ltmp322:
	#DEBUG_VALUE: vbv_buffer_size <- $eax
	.loc	0 455 31                        # x264_src/encoder/ratecontrol.c:455:31
	movl	1232(%rcx), %ecx
	cmpl	%ecx, %edx
	cmovgel	%ecx, %edx
.Ltmp323:
	#DEBUG_VALUE: vbv_max_bitrate <- $edx
	.loc	0 456 9                         # x264_src/encoder/ratecontrol.c:456:9
	jmp	.LBB3_17
.Ltmp324:
.LBB3_16:                               # %if.else
	#DEBUG_VALUE: x264_ratecontrol_init_reconfigurable:h <- $rbx
	#DEBUG_VALUE: x264_ratecontrol_init_reconfigurable:b_init <- $ebp
	#DEBUG_VALUE: x264_ratecontrol_init_reconfigurable:rc <- $r14
	#DEBUG_VALUE: vbv_buffer_size <- $eax
	#DEBUG_VALUE: vbv_max_bitrate <- $edx
	.loc	0 387 10                        # x264_src/encoder/ratecontrol.c:387:10
	testl	%ebp, %ebp
	setne	%sil
.Ltmp325:
	.loc	0 457 18                        # x264_src/encoder/ratecontrol.c:457:18
	testl	%ecx, %ecx
	sete	%cl
	.loc	0 457 37 is_stmt 0              # x264_src/encoder/ratecontrol.c:457:37
	orb	%sil, %cl
	je	.LBB3_29
.Ltmp326:
.LBB3_17:                               # %if.end240
	#DEBUG_VALUE: x264_ratecontrol_init_reconfigurable:h <- $rbx
	#DEBUG_VALUE: x264_ratecontrol_init_reconfigurable:b_init <- $ebp
	#DEBUG_VALUE: x264_ratecontrol_init_reconfigurable:rc <- $r14
	#DEBUG_VALUE: vbv_buffer_size <- $eax
	#DEBUG_VALUE: vbv_max_bitrate <- $edx
	#DEBUG_VALUE: vbv_buffer_size <- $eax
	#DEBUG_VALUE: vbv_max_bitrate <- $edx
	.loc	0 463 27 is_stmt 1              # x264_src/encoder/ratecontrol.c:463:27
	xorps	%xmm1, %xmm1
	cvtsi2sd	%edx, %xmm1
	.loc	0 463 49 is_stmt 0              # x264_src/encoder/ratecontrol.c:463:49
	movsd	16(%r14), %xmm2                 # xmm2 = mem[0],zero
	.loc	0 463 43                        # x264_src/encoder/ratecontrol.c:463:43
	movapd	%xmm1, %xmm0
	divsd	%xmm2, %xmm0
	.loc	0 463 25                        # x264_src/encoder/ratecontrol.c:463:25
	movsd	%xmm0, 128(%r14)
	.loc	0 464 26 is_stmt 1              # x264_src/encoder/ratecontrol.c:464:26
	movsd	%xmm1, 136(%r14)
	.loc	0 465 27                        # x264_src/encoder/ratecontrol.c:465:27
	xorps	%xmm1, %xmm1
	cvtsi2sd	%eax, %xmm1
	.loc	0 465 25 is_stmt 0              # x264_src/encoder/ratecontrol.c:465:25
	movsd	%xmm1, 104(%r14)
	movsd	.LCPI3_7(%rip), %xmm3           # xmm3 = [1.1000000000000001E+0,0.0E+0]
	.loc	0 466 48 is_stmt 1              # x264_src/encoder/ratecontrol.c:466:48
	mulsd	%xmm0, %xmm3
	.loc	0 466 54 is_stmt 0              # x264_src/encoder/ratecontrol.c:466:54
	xorl	%eax, %eax
.Ltmp327:
	ucomisd	%xmm1, %xmm3
	seta	%al
	.loc	0 466 30                        # x264_src/encoder/ratecontrol.c:466:30
	movl	%eax, 152(%r14)
	.loc	0 468 31 is_stmt 1              # x264_src/encoder/ratecontrol.c:468:31
	mulsd	%xmm0, %xmm2
	.loc	0 467 47                        # x264_src/encoder/ratecontrol.c:467:47
	divsd	%xmm1, %xmm0
	.loc	0 468 31                        # x264_src/encoder/ratecontrol.c:468:31
	divsd	24(%r14), %xmm2
	movsd	.LCPI3_8(%rip), %xmm1           # xmm1 = [1.5E+0,0.0E+0]
	subsd	%xmm2, %xmm1
	xorpd	%xmm2, %xmm2
	.loc	0 467 29                        # x264_src/encoder/ratecontrol.c:467:29
	mulsd	.LCPI3_9(%rip), %xmm0
	.loc	0 468 31                        # x264_src/encoder/ratecontrol.c:468:31
	maxsd	%xmm1, %xmm2
	.loc	0 467 29                        # x264_src/encoder/ratecontrol.c:467:29
	mulsd	%xmm2, %xmm0
	addsd	.LCPI3_0(%rip), %xmm0
	.loc	0 467 23 is_stmt 0              # x264_src/encoder/ratecontrol.c:467:23
	movsd	%xmm0, 208(%r14)
.Ltmp328:
	.loc	0 469 37 is_stmt 1              # x264_src/encoder/ratecontrol.c:469:37
	cmpl	$1, 488(%rbx)
	.loc	0 469 52 is_stmt 0              # x264_src/encoder/ratecontrol.c:469:52
	jne	.LBB3_21
.Ltmp329:
# %bb.18:                               # %land.lhs.true279
	#DEBUG_VALUE: x264_ratecontrol_init_reconfigurable:h <- $rbx
	#DEBUG_VALUE: x264_ratecontrol_init_reconfigurable:b_init <- $ebp
	#DEBUG_VALUE: x264_ratecontrol_init_reconfigurable:rc <- $r14
	#DEBUG_VALUE: vbv_max_bitrate <- $edx
	.loc	0 469 67                        # x264_src/encoder/ratecontrol.c:469:67
	movss	516(%rbx), %xmm0                # xmm0 = mem[0],zero,zero,zero
	xorpd	%xmm1, %xmm1
	.loc	0 469 55                        # x264_src/encoder/ratecontrol.c:469:55
	ucomiss	%xmm1, %xmm0
.Ltmp330:
	.loc	0 469 13                        # x264_src/encoder/ratecontrol.c:469:13
	jne	.LBB3_19
	jnp	.LBB3_21
.Ltmp331:
.LBB3_19:                               # %if.then283
	#DEBUG_VALUE: x264_ratecontrol_init_reconfigurable:h <- $rbx
	#DEBUG_VALUE: x264_ratecontrol_init_reconfigurable:b_init <- $ebp
	#DEBUG_VALUE: x264_ratecontrol_init_reconfigurable:rc <- $r14
	#DEBUG_VALUE: vbv_max_bitrate <- $edx
	.loc	0 471 75 is_stmt 1              # x264_src/encoder/ratecontrol.c:471:75
	subss	512(%rbx), %xmm0
	.loc	0 471 45 is_stmt 0              # x264_src/encoder/ratecontrol.c:471:45
	xorps	%xmm2, %xmm2
	cvtss2sd	%xmm0, %xmm2
	.loc	0 471 43                        # x264_src/encoder/ratecontrol.c:471:43
	movsd	%xmm2, 160(%r14)
.Ltmp332:
	.loc	0 472 47 is_stmt 1              # x264_src/encoder/ratecontrol.c:472:47
	ucomiss	%xmm0, %xmm1
.Ltmp333:
	.loc	0 472 17 is_stmt 0              # x264_src/encoder/ratecontrol.c:472:17
	jb	.LBB3_21
.Ltmp334:
# %bb.20:                               # %if.then295
	#DEBUG_VALUE: x264_ratecontrol_init_reconfigurable:h <- $rbx
	#DEBUG_VALUE: x264_ratecontrol_init_reconfigurable:b_init <- $ebp
	#DEBUG_VALUE: x264_ratecontrol_init_reconfigurable:rc <- $r14
	#DEBUG_VALUE: vbv_max_bitrate <- $edx
	.loc	0 474 17 is_stmt 1              # x264_src/encoder/ratecontrol.c:474:17
	movl	$.L.str.4, %edx
.Ltmp335:
	movq	%rbx, %rdi
	movl	$1, %esi
	xorl	%eax, %eax
	callq	x264_log@PLT
.Ltmp336:
	.loc	0 475 47                        # x264_src/encoder/ratecontrol.c:475:47
	movq	$0, 160(%r14)
.Ltmp337:
.LBB3_21:                               # %if.end298
	#DEBUG_VALUE: x264_ratecontrol_init_reconfigurable:h <- $rbx
	#DEBUG_VALUE: x264_ratecontrol_init_reconfigurable:b_init <- $ebp
	#DEBUG_VALUE: x264_ratecontrol_init_reconfigurable:rc <- $r14
	.loc	0 387 10                        # x264_src/encoder/ratecontrol.c:387:10
	testl	%ebp, %ebp
.Ltmp338:
	.loc	0 478 13                        # x264_src/encoder/ratecontrol.c:478:13
	je	.LBB3_28
.Ltmp339:
# %bb.22:                               # %if.then300
	#DEBUG_VALUE: x264_ratecontrol_init_reconfigurable:h <- $rbx
	#DEBUG_VALUE: x264_ratecontrol_init_reconfigurable:b_init <- $ebp
	#DEBUG_VALUE: x264_ratecontrol_init_reconfigurable:rc <- $r14
	.loc	0 480 29                        # x264_src/encoder/ratecontrol.c:480:29
	movss	532(%rbx), %xmm0                # xmm0 = mem[0],zero,zero,zero
	.loc	0 480 47 is_stmt 0              # x264_src/encoder/ratecontrol.c:480:47
	ucomiss	.LCPI3_10(%rip), %xmm0
.Ltmp340:
	.loc	0 480 17                        # x264_src/encoder/ratecontrol.c:480:17
	jbe	.LBB3_24
.Ltmp341:
# %bb.23:                               # %if.then306
	#DEBUG_VALUE: x264_ratecontrol_init_reconfigurable:h <- $rbx
	#DEBUG_VALUE: x264_ratecontrol_init_reconfigurable:b_init <- $ebp
	#DEBUG_VALUE: x264_ratecontrol_init_reconfigurable:rc <- $r14
	.loc	0 481 94 is_stmt 1              # x264_src/encoder/ratecontrol.c:481:94
	xorps	%xmm1, %xmm1
	cvtsi2ssl	528(%rbx), %xmm1
	.loc	0 481 92 is_stmt 0              # x264_src/encoder/ratecontrol.c:481:92
	divss	%xmm1, %xmm0
	movss	.LCPI3_10(%rip), %xmm1          # xmm1 = [1.0E+0,0.0E+0,0.0E+0,0.0E+0]
.Ltmp342:
	#DEBUG_VALUE: x264_clip3f:v <- undef
	#DEBUG_VALUE: x264_clip3f:f_min <- 0.000000e+00
	#DEBUG_VALUE: x264_clip3f:f_max <- 1.000000e+00
	.loc	0 481 49                        # x264_src/encoder/ratecontrol.c:481:49
	minss	%xmm0, %xmm1
	xorpd	%xmm2, %xmm2
	cmpltss	%xmm2, %xmm0
	andnps	%xmm1, %xmm0
	.loc	0 481 47                        # x264_src/encoder/ratecontrol.c:481:47
	movss	%xmm0, 532(%rbx)
.Ltmp343:
.LBB3_24:                               # %if.end321
	#DEBUG_VALUE: x264_ratecontrol_init_reconfigurable:h <- $rbx
	#DEBUG_VALUE: x264_ratecontrol_init_reconfigurable:b_init <- $ebp
	#DEBUG_VALUE: x264_ratecontrol_init_reconfigurable:rc <- $r14
	.loc	0 482 58 is_stmt 1              # x264_src/encoder/ratecontrol.c:482:58
	cvtss2sd	%xmm0, %xmm0
	movsd	128(%r14), %xmm1                # xmm1 = mem[0],zero
	divsd	104(%r14), %xmm1
	maxsd	%xmm1, %xmm0
.Ltmp344:
	#DEBUG_VALUE: x264_clip3f:v <- $xmm0
	.loc	0 0 58 is_stmt 0                # x264_src/encoder/ratecontrol.c:0:58
	movsd	.LCPI3_0(%rip), %xmm1           # xmm1 = [1.0E+0,0.0E+0]
.Ltmp345:
	#DEBUG_VALUE: x264_clip3f:f_min <- 0.000000e+00
	#DEBUG_VALUE: x264_clip3f:f_max <- 1.000000e+00
	.loc	1 207 14 is_stmt 1              # x264_src/common/common.h:207:14
	minsd	%xmm0, %xmm1
	xorpd	%xmm2, %xmm2
	cmpltsd	%xmm2, %xmm0
.Ltmp346:
	andnpd	%xmm1, %xmm0
.Ltmp347:
	.loc	0 482 45                        # x264_src/encoder/ratecontrol.c:482:45
	cvtsd2ss	%xmm0, %xmm0
	.loc	0 482 43 is_stmt 0              # x264_src/encoder/ratecontrol.c:482:43
	movss	%xmm0, 532(%rbx)
	.loc	0 483 55 is_stmt 1              # x264_src/encoder/ratecontrol.c:483:55
	cvtss2sd	%xmm0, %xmm0
	.loc	0 483 53 is_stmt 0              # x264_src/encoder/ratecontrol.c:483:53
	mulsd	104(%r14), %xmm0
	.loc	0 483 35                        # x264_src/encoder/ratecontrol.c:483:35
	movsd	%xmm0, 112(%r14)
	.loc	0 484 23 is_stmt 1              # x264_src/encoder/ratecontrol.c:484:23
	movl	$1, 8(%r14)
	xorl	%eax, %eax
	.loc	0 485 35                        # x264_src/encoder/ratecontrol.c:485:35
	cmpl	$0, 4(%r14)
	.loc	0 486 27                        # x264_src/encoder/ratecontrol.c:486:27
	jne	.LBB3_27
.Ltmp348:
# %bb.25:                               # %land.lhs.true355
	#DEBUG_VALUE: x264_ratecontrol_init_reconfigurable:h <- $rbx
	#DEBUG_VALUE: x264_ratecontrol_init_reconfigurable:b_init <- $ebp
	#DEBUG_VALUE: x264_ratecontrol_init_reconfigurable:rc <- $r14
	.loc	0 486 54 is_stmt 0              # x264_src/encoder/ratecontrol.c:486:54
	cmpl	$2, 488(%rbx)
	.loc	0 487 27 is_stmt 1              # x264_src/encoder/ratecontrol.c:487:27
	jne	.LBB3_27
.Ltmp349:
# %bb.26:                               # %land.rhs
	#DEBUG_VALUE: x264_ratecontrol_init_reconfigurable:h <- $rbx
	#DEBUG_VALUE: x264_ratecontrol_init_reconfigurable:b_init <- $ebp
	#DEBUG_VALUE: x264_ratecontrol_init_reconfigurable:rc <- $r14
	.loc	0 487 42 is_stmt 0              # x264_src/encoder/ratecontrol.c:487:42
	movl	524(%rbx), %ecx
	.loc	0 487 60                        # x264_src/encoder/ratecontrol.c:487:60
	xorl	%eax, %eax
	cmpl	508(%rbx), %ecx
	setle	%al
.Ltmp350:
.LBB3_27:                               # %land.end
	#DEBUG_VALUE: x264_ratecontrol_init_reconfigurable:h <- $rbx
	#DEBUG_VALUE: x264_ratecontrol_init_reconfigurable:b_init <- $ebp
	#DEBUG_VALUE: x264_ratecontrol_init_reconfigurable:rc <- $r14
	.loc	0 485 32 is_stmt 1              # x264_src/encoder/ratecontrol.c:485:32
	movl	%eax, 12(%r14)
.Ltmp351:
.LBB3_28:                               # %cleanup373
	#DEBUG_VALUE: x264_ratecontrol_init_reconfigurable:h <- $rbx
	#DEBUG_VALUE: x264_ratecontrol_init_reconfigurable:b_init <- $ebp
	#DEBUG_VALUE: x264_ratecontrol_init_reconfigurable:rc <- $r14
	.loc	0 490 1 epilogue_begin          # x264_src/encoder/ratecontrol.c:490:1
	addq	$16, %rsp
	.cfi_def_cfa_offset 32
	popq	%rbx
.Ltmp352:
	#DEBUG_VALUE: x264_ratecontrol_init_reconfigurable:h <- [DW_OP_LLVM_entry_value 1] $rdi
	.cfi_def_cfa_offset 24
	popq	%r14
.Ltmp353:
	.cfi_def_cfa_offset 16
	popq	%rbp
.Ltmp354:
	#DEBUG_VALUE: x264_ratecontrol_init_reconfigurable:b_init <- [DW_OP_LLVM_entry_value 1] $esi
	.cfi_def_cfa_offset 8
	retq
.Ltmp355:
.LBB3_29:                               # %if.then238
	.cfi_def_cfa_offset 48
	#DEBUG_VALUE: x264_ratecontrol_init_reconfigurable:h <- $rbx
	#DEBUG_VALUE: x264_ratecontrol_init_reconfigurable:b_init <- $ebp
	#DEBUG_VALUE: x264_ratecontrol_init_reconfigurable:rc <- $r14
	#DEBUG_VALUE: vbv_buffer_size <- $eax
	#DEBUG_VALUE: vbv_max_bitrate <- $edx
	.loc	0 459 13                        # x264_src/encoder/ratecontrol.c:459:13
	movl	$.L.str.3, %edx
.Ltmp356:
	movq	%rbx, %rdi
	movl	$1, %esi
	xorl	%eax, %eax
.Ltmp357:
	.loc	0 459 13 epilogue_begin is_stmt 0 # x264_src/encoder/ratecontrol.c:459:13
	addq	$16, %rsp
	.cfi_def_cfa_offset 32
	popq	%rbx
.Ltmp358:
	#DEBUG_VALUE: x264_ratecontrol_init_reconfigurable:h <- $rdi
	.cfi_def_cfa_offset 24
	popq	%r14
.Ltmp359:
	.cfi_def_cfa_offset 16
	popq	%rbp
.Ltmp360:
	#DEBUG_VALUE: x264_ratecontrol_init_reconfigurable:b_init <- [DW_OP_LLVM_entry_value 1] $esi
	.cfi_def_cfa_offset 8
	jmp	x264_log@PLT                    # TAILCALL
.Ltmp361:
.Lfunc_end3:
	.size	x264_ratecontrol_init_reconfigurable, .Lfunc_end3-x264_ratecontrol_init_reconfigurable
	.cfi_endproc
                                        # -- End function
	.section	.rodata.cst8,"aM",@progbits,8
	.p2align	3, 0x0                          # -- Begin function x264_ratecontrol_new
.LCPI4_0:
	.quad	0x4039000000000000              # double 25
.LCPI4_1:
	.quad	0x3ff0000000000000              # double 1
.LCPI4_2:
	.quad	0x408f400000000000              # double 1000
.LCPI4_3:
	.quad	0x3f847ae147ae147b              # double 0.01
.LCPI4_5:
	.quad	0x41255cc000000000              # double 7.0E+5
.LCPI4_7:
	.quad	0x4018000000000000              # double 6
.LCPI4_8:
	.quad	0x3fe0000000000000              # double 0.5
.LCPI4_9:
	.quad	0xc028000000000000              # double -12
.LCPI4_10:
	.quad	0x3feb333333333333              # double 0.84999999999999998
	.section	.rodata.cst4,"aM",@progbits,4
	.p2align	2, 0x0
.LCPI4_4:
	.long	0x41c00000                      # float 24
	.section	.rodata.cst16,"aM",@progbits,16
	.p2align	4, 0x0
.LCPI4_6:
	.quad	0x7fffffffffffffff              # double NaN
	.quad	0x7fffffffffffffff              # double NaN
.LCPI4_11:
	.quad	0x3fd0000000000000              # double 0.25
	.quad	0x3ff0000000000000              # double 1
.LCPI4_12:
	.long	1                               # 0x1
	.long	5                               # 0x5
	.zero	4
	.zero	4
.LCPI4_13:
	.long	2                               # 0x2
	.long	1                               # 0x1
	.zero	4
	.zero	4
.LCPI4_14:
	.long	1                               # 0x1
	.long	4                               # 0x4
	.zero	4
	.zero	4
.LCPI4_15:
	.long	0                               # 0x0
	.long	3                               # 0x3
	.zero	4
	.zero	4
.LCPI4_16:
	.long	2                               # 0x2
	.long	2                               # 0x2
	.zero	4
	.zero	4
.LCPI4_17:
	.long	1                               # 0x1
	.long	5                               # 0x5
	.long	0                               # 0x0
	.long	0                               # 0x0
.LCPI4_18:
	.long	2                               # 0x2
	.long	1                               # 0x1
	.long	0                               # 0x0
	.long	0                               # 0x0
.LCPI4_19:
	.long	1                               # 0x1
	.long	4                               # 0x4
	.long	0                               # 0x0
	.long	0                               # 0x0
.LCPI4_20:
	.long	0                               # 0x0
	.long	3                               # 0x3
	.long	0                               # 0x0
	.long	0                               # 0x0
	.text
	.globl	x264_ratecontrol_new
	.p2align	4, 0x90
	.type	x264_ratecontrol_new,@function
x264_ratecontrol_new:                   # @x264_ratecontrol_new
.Lfunc_begin4:
	.loc	0 493 0 is_stmt 1               # x264_src/encoder/ratecontrol.c:493:0
	.cfi_startproc
# %bb.0:                                # %entry
	#DEBUG_VALUE: x264_ratecontrol_new:h <- $rdi
	pushq	%rbp
	.cfi_def_cfa_offset 16
	pushq	%r15
	.cfi_def_cfa_offset 24
	pushq	%r14
	.cfi_def_cfa_offset 32
	pushq	%r13
	.cfi_def_cfa_offset 40
	pushq	%r12
	.cfi_def_cfa_offset 48
	pushq	%rbx
	.cfi_def_cfa_offset 56
	subq	$104, %rsp
	.cfi_def_cfa_offset 160
	.cfi_offset %rbx, -56
	.cfi_offset %r12, -48
	.cfi_offset %r13, -40
	.cfi_offset %r14, -32
	.cfi_offset %r15, -24
	.cfi_offset %rbp, -16
	movq	%rdi, %r14
.Ltmp362:
	.loc	0 498 5 prologue_end            # x264_src/encoder/ratecontrol.c:498:5
	imull	$936, 4(%rdi), %edi             # imm = 0x3A8
.Ltmp363:
	#DEBUG_VALUE: x264_ratecontrol_new:h <- $r14
	callq	x264_malloc@PLT
.Ltmp364:
	movq	%rax, 26704(%r14)
	movl	$-1, %ebp
.Ltmp365:
	.loc	0 498 5 is_stmt 0               # x264_src/encoder/ratecontrol.c:498:5
	testq	%rax, %rax
.Ltmp366:
	.loc	0 498 5                         # x264_src/encoder/ratecontrol.c:498:5
	je	.LBB4_245
.Ltmp367:
# %bb.1:                                # %do.end
	#DEBUG_VALUE: x264_ratecontrol_new:h <- $r14
	.loc	0 498 5                         # x264_src/encoder/ratecontrol.c:498:5
	movslq	4(%r14), %rcx
	imulq	$936, %rcx, %rdx                # imm = 0x3A8
	xorl	%ebx, %ebx
	movq	%rax, %rdi
	xorl	%esi, %esi
	callq	memset@PLT
.Ltmp368:
	.loc	0 499 13 is_stmt 1              # x264_src/encoder/ratecontrol.c:499:13
	movq	26704(%r14), %r15
.Ltmp369:
	#DEBUG_VALUE: x264_ratecontrol_new:rc <- $r15
	.loc	0 501 41                        # x264_src/encoder/ratecontrol.c:501:41
	cmpl	$0, 488(%r14)
	.loc	0 501 56 is_stmt 0              # x264_src/encoder/ratecontrol.c:501:56
	je	.LBB4_3
.Ltmp370:
# %bb.2:                                # %land.rhs
	#DEBUG_VALUE: x264_ratecontrol_new:h <- $r14
	#DEBUG_VALUE: x264_ratecontrol_new:rc <- $r15
	.loc	0 501 59                        # x264_src/encoder/ratecontrol.c:501:59
	cmpl	$0, 576(%r14)
	sete	%bl
.Ltmp371:
.LBB4_3:                                # %land.end
	#DEBUG_VALUE: x264_ratecontrol_new:h <- $r14
	#DEBUG_VALUE: x264_ratecontrol_new:rc <- $r15
	.loc	0 501 56                        # x264_src/encoder/ratecontrol.c:501:56
	movzbl	%bl, %eax
	.loc	0 501 15                        # x264_src/encoder/ratecontrol.c:501:15
	movl	%eax, (%r15)
	.loc	0 502 43 is_stmt 1              # x264_src/encoder/ratecontrol.c:502:43
	cmpl	$2, 488(%r14)
	.loc	0 502 58 is_stmt 0              # x264_src/encoder/ratecontrol.c:502:58
	jne	.LBB4_4
.Ltmp372:
# %bb.5:                                # %land.rhs24
	#DEBUG_VALUE: x264_ratecontrol_new:h <- $r14
	#DEBUG_VALUE: x264_ratecontrol_new:rc <- $r15
	cmpl	$0, 576(%r14)
	setne	%al
	jmp	.LBB4_6
.Ltmp373:
.LBB4_4:
	#DEBUG_VALUE: x264_ratecontrol_new:h <- $r14
	#DEBUG_VALUE: x264_ratecontrol_new:rc <- $r15
	.loc	0 0 58                          # x264_src/encoder/ratecontrol.c:0:58
	xorl	%eax, %eax
.Ltmp374:
.LBB4_6:                                # %land.end29
	#DEBUG_VALUE: x264_ratecontrol_new:h <- $r14
	#DEBUG_VALUE: x264_ratecontrol_new:rc <- $r15
	.loc	0 502 58                        # x264_src/encoder/ratecontrol.c:502:58
	movzbl	%al, %eax
	.loc	0 502 17                        # x264_src/encoder/ratecontrol.c:502:17
	movl	%eax, 4(%r15)
.Ltmp375:
	.loc	0 505 18 is_stmt 1              # x264_src/encoder/ratecontrol.c:505:18
	movl	652(%r14), %eax
	movsd	.LCPI4_0(%rip), %xmm0           # xmm0 = [2.5E+1,0.0E+0]
	.loc	0 505 28 is_stmt 0              # x264_src/encoder/ratecontrol.c:505:28
	testl	%eax, %eax
	.loc	0 505 32                        # x264_src/encoder/ratecontrol.c:505:32
	je	.LBB4_9
.Ltmp376:
# %bb.7:                                # %land.lhs.true
	#DEBUG_VALUE: x264_ratecontrol_new:h <- $r14
	#DEBUG_VALUE: x264_ratecontrol_new:rc <- $r15
	.loc	0 505 44                        # x264_src/encoder/ratecontrol.c:505:44
	movl	656(%r14), %ecx
	.loc	0 505 54                        # x264_src/encoder/ratecontrol.c:505:54
	testl	%ecx, %ecx
.Ltmp377:
	.loc	0 505 9                         # x264_src/encoder/ratecontrol.c:505:9
	je	.LBB4_9
.Ltmp378:
# %bb.8:                                # %if.then37
	#DEBUG_VALUE: x264_ratecontrol_new:h <- $r14
	#DEBUG_VALUE: x264_ratecontrol_new:rc <- $r15
	.loc	0 506 19 is_stmt 1              # x264_src/encoder/ratecontrol.c:506:19
	movl	%eax, %eax
	xorps	%xmm0, %xmm0
	cvtsi2ss	%rax, %xmm0
	.loc	0 506 48 is_stmt 0              # x264_src/encoder/ratecontrol.c:506:48
	movl	%ecx, %eax
	cvtsi2ss	%rax, %xmm1
	.loc	0 506 46                        # x264_src/encoder/ratecontrol.c:506:46
	divss	%xmm1, %xmm0
	.loc	0 506 19                        # x264_src/encoder/ratecontrol.c:506:19
	cvtss2sd	%xmm0, %xmm0
.Ltmp379:
.LBB4_9:                                # %if.end46
	#DEBUG_VALUE: x264_ratecontrol_new:h <- $r14
	#DEBUG_VALUE: x264_ratecontrol_new:rc <- $r15
	.loc	0 0 0                           # x264_src/encoder/ratecontrol.c:0:0
	movsd	%xmm0, 16(%r15)
.Ltmp380:
	.loc	0 510 9 is_stmt 1               # x264_src/encoder/ratecontrol.c:510:9
	cmpl	$0, 552(%r14)
.Ltmp381:
	.loc	0 510 9 is_stmt 0               # x264_src/encoder/ratecontrol.c:510:9
	je	.LBB4_11
.Ltmp382:
# %bb.10:                               # %if.then50
	#DEBUG_VALUE: x264_ratecontrol_new:h <- $r14
	#DEBUG_VALUE: x264_ratecontrol_new:rc <- $r15
	.loc	0 512 33 is_stmt 1              # x264_src/encoder/ratecontrol.c:512:33
	movl	$1065353216, 540(%r14)          # imm = 0x3F800000
	movsd	.LCPI4_1(%rip), %xmm0           # xmm0 = [1.0E+0,0.0E+0]
	.loc	0 514 5                         # x264_src/encoder/ratecontrol.c:514:5
	jmp	.LBB4_12
.Ltmp383:
.LBB4_11:                               # %if.else53
	#DEBUG_VALUE: x264_ratecontrol_new:h <- $r14
	#DEBUG_VALUE: x264_ratecontrol_new:rc <- $r15
	.loc	0 516 37                        # x264_src/encoder/ratecontrol.c:516:37
	movss	592(%r14), %xmm0                # xmm0 = mem[0],zero,zero,zero
	.loc	0 516 25 is_stmt 0              # x264_src/encoder/ratecontrol.c:516:25
	cvtss2sd	%xmm0, %xmm0
.Ltmp384:
.LBB4_12:                               # %if.end58
	#DEBUG_VALUE: x264_ratecontrol_new:h <- $r14
	#DEBUG_VALUE: x264_ratecontrol_new:rc <- $r15
	.loc	0 0 0                           # x264_src/encoder/ratecontrol.c:0:0
	movsd	%xmm0, 40(%r15)
.Ltmp385:
	.loc	0 518 19 is_stmt 1              # x264_src/encoder/ratecontrol.c:518:19
	xorps	%xmm0, %xmm0
	cvtsi2sdl	508(%r14), %xmm0
	.loc	0 518 41 is_stmt 0              # x264_src/encoder/ratecontrol.c:518:41
	mulsd	.LCPI4_2(%rip), %xmm0
	.loc	0 518 17                        # x264_src/encoder/ratecontrol.c:518:17
	movsd	%xmm0, 24(%r15)
	.loc	0 519 38 is_stmt 1              # x264_src/encoder/ratecontrol.c:519:38
	movss	520(%r14), %xmm0                # xmm0 = mem[0],zero,zero,zero
	.loc	0 519 26 is_stmt 0              # x264_src/encoder/ratecontrol.c:519:26
	cvtss2sd	%xmm0, %xmm0
	.loc	0 519 24                        # x264_src/encoder/ratecontrol.c:519:24
	movsd	%xmm0, 32(%r15)
	.loc	0 520 21 is_stmt 1              # x264_src/encoder/ratecontrol.c:520:21
	movl	16368(%r14), %eax
	.loc	0 520 13 is_stmt 0              # x264_src/encoder/ratecontrol.c:520:13
	movl	%eax, 48(%r15)
	.loc	0 521 30 is_stmt 1              # x264_src/encoder/ratecontrol.c:521:30
	movl	$-1, 368(%r15)
	movabsq	$4607182418800017408, %rax      # imm = 0x3FF0000000000000
	.loc	0 522 19                        # x264_src/encoder/ratecontrol.c:522:19
	movq	%rax, 208(%r15)
.Ltmp386:
	.loc	0 524 33                        # x264_src/encoder/ratecontrol.c:524:33
	cmpl	$1, 488(%r14)
	.loc	0 524 48 is_stmt 0              # x264_src/encoder/ratecontrol.c:524:48
	jne	.LBB4_15
.Ltmp387:
# %bb.13:                               # %land.lhs.true71
	#DEBUG_VALUE: x264_ratecontrol_new:h <- $r14
	#DEBUG_VALUE: x264_ratecontrol_new:rc <- $r15
	.loc	0 524 51                        # x264_src/encoder/ratecontrol.c:524:51
	cmpl	$0, 576(%r14)
.Ltmp388:
	.loc	0 524 9                         # x264_src/encoder/ratecontrol.c:524:9
	je	.LBB4_15
.Ltmp389:
# %bb.14:                               # %if.then76
	#DEBUG_VALUE: x264_ratecontrol_new:h <- $r14
	#DEBUG_VALUE: x264_ratecontrol_new:rc <- $r15
	.loc	0 526 9 is_stmt 1               # x264_src/encoder/ratecontrol.c:526:9
	movl	$.L.str.5, %edx
	movq	%r14, %rdi
	jmp	.LBB4_63
.Ltmp390:
.LBB4_15:                               # %if.end77
	#DEBUG_VALUE: x264_ratecontrol_new:h <- $r14
	#DEBUG_VALUE: x264_ratecontrol_new:rc <- $r15
	.loc	0 530 5                         # x264_src/encoder/ratecontrol.c:530:5
	movq	%r14, %rdi
	movl	$1, %esi
	callq	x264_ratecontrol_init_reconfigurable
.Ltmp391:
	.loc	0 0 5 is_stmt 0                 # x264_src/encoder/ratecontrol.c:0:5
	movsd	.LCPI4_3(%rip), %xmm1           # xmm1 = [1.0E-2,0.0E+0]
.Ltmp392:
	.loc	0 532 28 is_stmt 1              # x264_src/encoder/ratecontrol.c:532:28
	ucomisd	32(%r15), %xmm1
	movabsq	$4576918229304087675, %rbx      # imm = 0x3F847AE147AE147B
.Ltmp393:
	.loc	0 532 9 is_stmt 0               # x264_src/encoder/ratecontrol.c:532:9
	ja	.LBB4_16
.Ltmp394:
# %bb.17:                               # %if.end83
	#DEBUG_VALUE: x264_ratecontrol_new:h <- $r14
	#DEBUG_VALUE: x264_ratecontrol_new:rc <- $r15
	.loc	0 0 9                           # x264_src/encoder/ratecontrol.c:0:9
	movb	$1, %al
	.loc	0 538 27 is_stmt 1              # x264_src/encoder/ratecontrol.c:538:27
	cmpl	$0, 8(%r15)
	.loc	0 538 37 is_stmt 0              # x264_src/encoder/ratecontrol.c:538:37
	je	.LBB4_18
.Ltmp395:
.LBB4_19:                               # %lor.end
	#DEBUG_VALUE: x264_ratecontrol_new:h <- $r14
	#DEBUG_VALUE: x264_ratecontrol_new:rc <- $r15
	movzbl	%al, %eax
	.loc	0 538 25                        # x264_src/encoder/ratecontrol.c:538:25
	movl	%eax, 25808(%r14)
.Ltmp396:
	.loc	0 540 9 is_stmt 1               # x264_src/encoder/ratecontrol.c:540:9
	cmpl	$0, (%r15)
.Ltmp397:
	.loc	0 540 9 is_stmt 0               # x264_src/encoder/ratecontrol.c:540:9
	jne	.LBB4_20
	jmp	.LBB4_27
.Ltmp398:
.LBB4_16:                               # %if.then81
	#DEBUG_VALUE: x264_ratecontrol_new:h <- $r14
	#DEBUG_VALUE: x264_ratecontrol_new:rc <- $r15
	.loc	0 534 9 is_stmt 1               # x264_src/encoder/ratecontrol.c:534:9
	movl	$.L.str.6, %edx
	movq	%r14, %rdi
	movl	$1, %esi
	xorl	%eax, %eax
	callq	x264_log@PLT
.Ltmp399:
	.loc	0 0 9 is_stmt 0                 # x264_src/encoder/ratecontrol.c:0:9
	movsd	.LCPI4_3(%rip), %xmm1           # xmm1 = [1.0E-2,0.0E+0]
	.loc	0 535 28 is_stmt 1              # x264_src/encoder/ratecontrol.c:535:28
	movq	%rbx, 32(%r15)
	movb	$1, %al
.Ltmp400:
	.loc	0 538 27                        # x264_src/encoder/ratecontrol.c:538:27
	cmpl	$0, 8(%r15)
	.loc	0 538 37 is_stmt 0              # x264_src/encoder/ratecontrol.c:538:37
	jne	.LBB4_19
.Ltmp401:
.LBB4_18:                               # %lor.rhs
	#DEBUG_VALUE: x264_ratecontrol_new:h <- $r14
	#DEBUG_VALUE: x264_ratecontrol_new:rc <- $r15
	cmpl	$0, 544(%r14)
	setne	%al
	movzbl	%al, %eax
	.loc	0 538 25                        # x264_src/encoder/ratecontrol.c:538:25
	movl	%eax, 25808(%r14)
.Ltmp402:
	.loc	0 540 9 is_stmt 1               # x264_src/encoder/ratecontrol.c:540:9
	cmpl	$0, (%r15)
.Ltmp403:
	.loc	0 540 9 is_stmt 0               # x264_src/encoder/ratecontrol.c:540:9
	je	.LBB4_27
.Ltmp404:
.LBB4_20:                               # %if.then91
	#DEBUG_VALUE: x264_ratecontrol_new:h <- $r14
	#DEBUG_VALUE: x264_ratecontrol_new:rc <- $r15
	.loc	0 544 26 is_stmt 1              # x264_src/encoder/ratecontrol.c:544:26
	movq	%rbx, 384(%r15)
	.loc	0 545 26                        # x264_src/encoder/ratecontrol.c:545:26
	cmpl	$1, 488(%r14)
	jne	.LBB4_21
.Ltmp405:
# %bb.22:                               # %cond.true
	#DEBUG_VALUE: x264_ratecontrol_new:h <- $r14
	#DEBUG_VALUE: x264_ratecontrol_new:rc <- $r15
	movss	512(%r14), %xmm0                # xmm0 = mem[0],zero,zero,zero
	jmp	.LBB4_23
.Ltmp406:
.LBB4_21:
	#DEBUG_VALUE: x264_ratecontrol_new:h <- $r14
	#DEBUG_VALUE: x264_ratecontrol_new:rc <- $r15
	.loc	0 0 26 is_stmt 0                # x264_src/encoder/ratecontrol.c:0:26
	movss	.LCPI4_4(%rip), %xmm0           # xmm0 = [2.4E+1,0.0E+0,0.0E+0,0.0E+0]
.Ltmp407:
.LBB4_23:                               # %cond.end
	#DEBUG_VALUE: x264_ratecontrol_new:h <- $r14
	#DEBUG_VALUE: x264_ratecontrol_new:rc <- $r15
	.loc	0 545 26                        # x264_src/encoder/ratecontrol.c:545:26
	cvtss2sd	%xmm0, %xmm0
	.loc	0 545 38                        # x264_src/encoder/ratecontrol.c:545:38
	mulsd	%xmm1, %xmm0
	.loc	0 545 24                        # x264_src/encoder/ratecontrol.c:545:24
	movsd	%xmm0, 376(%r15)
	.loc	0 547 47 is_stmt 1              # x264_src/encoder/ratecontrol.c:547:47
	movsd	40(%r15), %xmm1                 # xmm1 = mem[0],zero
	movsd	.LCPI4_5(%rip), %xmm0           # xmm0 = [7.0E+5,0.0E+0]
	.loc	0 547 31 is_stmt 0              # x264_src/encoder/ratecontrol.c:547:31
	callq	pow@PLT
.Ltmp408:
	movapd	%xmm0, %xmm2
	.loc	0 547 66                        # x264_src/encoder/ratecontrol.c:547:66
	xorps	%xmm0, %xmm0
	cvtsi2sdl	16368(%r14), %xmm0
	.loc	0 547 29                        # x264_src/encoder/ratecontrol.c:547:29
	mulsd	.LCPI4_3(%rip), %xmm2
	xorpd	%xmm1, %xmm1
	.loc	0 547 61                        # x264_src/encoder/ratecontrol.c:547:61
	ucomisd	%xmm1, %xmm0
	jb	.LBB4_25
.Ltmp409:
# %bb.24:
	#DEBUG_VALUE: x264_ratecontrol_new:h <- $r14
	#DEBUG_VALUE: x264_ratecontrol_new:rc <- $r15
	sqrtsd	%xmm0, %xmm0
	jmp	.LBB4_26
.Ltmp410:
.LBB4_25:                               # %call.sqrt
	#DEBUG_VALUE: x264_ratecontrol_new:h <- $r14
	#DEBUG_VALUE: x264_ratecontrol_new:rc <- $r15
	.loc	0 0 61                          # x264_src/encoder/ratecontrol.c:0:61
	movsd	%xmm2, 24(%rsp)                 # 8-byte Spill
	.loc	0 547 61                        # x264_src/encoder/ratecontrol.c:547:61
	callq	sqrt@PLT
.Ltmp411:
	.loc	0 0 61                          # x264_src/encoder/ratecontrol.c:0:61
	movsd	24(%rsp), %xmm2                 # 8-byte Reload
                                        # xmm2 = mem[0],zero
.Ltmp412:
.LBB4_26:                               # %cond.end.split
	#DEBUG_VALUE: x264_ratecontrol_new:h <- $r14
	#DEBUG_VALUE: x264_ratecontrol_new:rc <- $r15
	.loc	0 547 61                        # x264_src/encoder/ratecontrol.c:547:61
	andpd	.LCPI4_6(%rip), %xmm0
	.loc	0 547 59                        # x264_src/encoder/ratecontrol.c:547:59
	mulsd	%xmm0, %xmm2
	.loc	0 547 23                        # x264_src/encoder/ratecontrol.c:547:23
	movsd	%xmm2, 184(%r15)
	.loc	0 548 44 is_stmt 1              # x264_src/encoder/ratecontrol.c:548:44
	movsd	24(%r15), %xmm0                 # xmm0 = mem[0],zero
	.loc	0 548 52 is_stmt 0              # x264_src/encoder/ratecontrol.c:548:52
	divsd	16(%r15), %xmm0
	.loc	0 548 32                        # x264_src/encoder/ratecontrol.c:548:32
	movsd	%xmm0, 200(%r15)
	.loc	0 549 34 is_stmt 1              # x264_src/encoder/ratecontrol.c:549:34
	movl	$2, 368(%r15)
.Ltmp413:
.LBB4_27:                               # %if.end115
	#DEBUG_VALUE: x264_ratecontrol_new:h <- $r14
	#DEBUG_VALUE: x264_ratecontrol_new:rc <- $r15
	.loc	0 552 46                        # x264_src/encoder/ratecontrol.c:552:46
	movss	536(%r14), %xmm0                # xmm0 = mem[0],zero,zero,zero
	.loc	0 552 27 is_stmt 0              # x264_src/encoder/ratecontrol.c:552:27
	callq	log2f@PLT
.Ltmp414:
	cvtss2sd	%xmm0, %xmm0
	.loc	0 552 25                        # x264_src/encoder/ratecontrol.c:552:25
	mulsd	.LCPI4_7(%rip), %xmm0
	.loc	0 552 19                        # x264_src/encoder/ratecontrol.c:552:19
	movsd	%xmm0, 240(%r15)
	.loc	0 553 46 is_stmt 1              # x264_src/encoder/ratecontrol.c:553:46
	movss	540(%r14), %xmm0                # xmm0 = mem[0],zero,zero,zero
	.loc	0 553 27 is_stmt 0              # x264_src/encoder/ratecontrol.c:553:27
	callq	log2f@PLT
.Ltmp415:
	cvtss2sd	%xmm0, %xmm0
	movsd	.LCPI4_7(%rip), %xmm4           # xmm4 = [6.0E+0,0.0E+0]
	.loc	0 553 25                        # x264_src/encoder/ratecontrol.c:553:25
	mulsd	%xmm4, %xmm0
	.loc	0 553 19                        # x264_src/encoder/ratecontrol.c:553:19
	movsd	%xmm0, 248(%r15)
	.loc	0 554 49 is_stmt 1              # x264_src/encoder/ratecontrol.c:554:49
	movl	492(%r14), %eax
	.loc	0 554 35 is_stmt 0              # x264_src/encoder/ratecontrol.c:554:35
	movl	%eax, 52(%r15)
	.loc	0 555 49 is_stmt 1              # x264_src/encoder/ratecontrol.c:555:49
	xorps	%xmm1, %xmm1
	cvtsi2sd	%eax, %xmm1
	.loc	0 555 81 is_stmt 0              # x264_src/encoder/ratecontrol.c:555:81
	movsd	240(%r15), %xmm2                # xmm2 = mem[0],zero
	.loc	0 555 75                        # x264_src/encoder/ratecontrol.c:555:75
	subsd	%xmm2, %xmm1
	movsd	.LCPI4_8(%rip), %xmm3           # xmm3 = [5.0E-1,0.0E+0]
	.loc	0 555 91                        # x264_src/encoder/ratecontrol.c:555:91
	addsd	%xmm3, %xmm1
	.loc	0 555 49                        # x264_src/encoder/ratecontrol.c:555:49
	cvttsd2si	%xmm1, %eax
.Ltmp416:
	#DEBUG_VALUE: x264_clip3:v <- $eax
	#DEBUG_VALUE: x264_clip3:i_min <- 0
	#DEBUG_VALUE: x264_clip3:i_max <- 51
	.loc	1 202 14 is_stmt 1              # x264_src/common/common.h:202:14
	cmpl	$51, %eax
	movl	$51, %ecx
	cmovgel	%ecx, %eax
.Ltmp417:
	.loc	1 0 14 is_stmt 0                # x264_src/common/common.h:0:14
	xorl	%edx, %edx
	.loc	1 202 14                        # x264_src/common/common.h:202:14
	testl	%eax, %eax
	cmovlel	%edx, %eax
.Ltmp418:
	.loc	0 555 35 is_stmt 1              # x264_src/encoder/ratecontrol.c:555:35
	movl	%eax, 60(%r15)
	.loc	0 556 49                        # x264_src/encoder/ratecontrol.c:556:49
	xorps	%xmm1, %xmm1
	cvtsi2sdl	492(%r14), %xmm1
	.loc	0 556 75 is_stmt 0              # x264_src/encoder/ratecontrol.c:556:75
	addsd	%xmm0, %xmm1
	.loc	0 556 91                        # x264_src/encoder/ratecontrol.c:556:91
	addsd	%xmm3, %xmm1
	.loc	0 556 49                        # x264_src/encoder/ratecontrol.c:556:49
	cvttsd2si	%xmm1, %eax
.Ltmp419:
	#DEBUG_VALUE: x264_clip3:v <- $eax
	#DEBUG_VALUE: x264_clip3:i_min <- 0
	#DEBUG_VALUE: x264_clip3:i_max <- 51
	.loc	1 202 14 is_stmt 1              # x264_src/common/common.h:202:14
	cmpl	$51, %eax
	cmovll	%eax, %ecx
	testl	%ecx, %ecx
	cmovlel	%edx, %ecx
.Ltmp420:
	.loc	0 556 35                        # x264_src/encoder/ratecontrol.c:556:35
	movl	%ecx, 56(%r15)
	.loc	0 557 37                        # x264_src/encoder/ratecontrol.c:557:37
	addsd	%xmm3, %xmm2
	.loc	0 557 23 is_stmt 0              # x264_src/encoder/ratecontrol.c:557:23
	cvttsd2si	%xmm2, %eax
.Ltmp421:
	.loc	0 557 21                        # x264_src/encoder/ratecontrol.c:557:21
	movl	%eax, 17428(%r14)
	.loc	0 559 25 is_stmt 1              # x264_src/encoder/ratecontrol.c:559:25
	xorps	%xmm0, %xmm0
	cvtsi2sdl	504(%r14), %xmm0
	.loc	0 559 47 is_stmt 0              # x264_src/encoder/ratecontrol.c:559:47
	divsd	%xmm4, %xmm0
	.loc	0 559 17                        # x264_src/encoder/ratecontrol.c:559:17
	callq	exp2@PLT
.Ltmp422:
	.loc	0 559 15                        # x264_src/encoder/ratecontrol.c:559:15
	movsd	%xmm0, 480(%r15)
	movabsq	$4616509071402587280, %rax      # imm = 0x4011228A8751D490
.Ltmp423:
	#DEBUG_VALUE: qp2qscale:qp <- 2.600000e+01
	.loc	0 560 21 is_stmt 1              # x264_src/encoder/ratecontrol.c:560:21
	movq	%rax, 320(%r15)
	.loc	0 561 58                        # x264_src/encoder/ratecontrol.c:561:58
	movl	4(%r14), %eax
	.loc	0 561 47 is_stmt 0              # x264_src/encoder/ratecontrol.c:561:47
	imull	8(%r14), %eax
.Ltmp424:
	#DEBUG_VALUE: x264_ratecontrol_new:num_preds <- [DW_OP_plus_uconst 1, DW_OP_stack_value] $eax
	.loc	0 0 47                          # x264_src/encoder/ratecontrol.c:0:47
	movq	%rax, 24(%rsp)                  # 8-byte Spill
.Ltmp425:
	#DEBUG_VALUE: x264_ratecontrol_new:num_preds <- [DW_OP_plus_uconst 24, DW_OP_deref, DW_OP_plus_uconst 1, DW_OP_stack_value] $rsp
	.loc	0 562 5 is_stmt 1               # x264_src/encoder/ratecontrol.c:562:5
	leal	(%rax,%rax,4), %edi
	shll	$5, %edi
	addl	$160, %edi
	callq	x264_malloc@PLT
.Ltmp426:
	movq	%rax, 144(%r15)
.Ltmp427:
	.loc	0 562 5 is_stmt 0               # x264_src/encoder/ratecontrol.c:562:5
	testq	%rax, %rax
.Ltmp428:
	.loc	0 562 5                         # x264_src/encoder/ratecontrol.c:562:5
	je	.LBB4_245
.Ltmp429:
# %bb.28:                               # %do.body176
	#DEBUG_VALUE: x264_ratecontrol_new:h <- $r14
	#DEBUG_VALUE: x264_ratecontrol_new:rc <- $r15
	#DEBUG_VALUE: x264_ratecontrol_new:num_preds <- [DW_OP_plus_uconst 24, DW_OP_deref, DW_OP_plus_uconst 1, DW_OP_stack_value] $rsp
	.loc	0 563 5 is_stmt 1               # x264_src/encoder/ratecontrol.c:563:5
	movl	$32, %edi
	callq	x264_malloc@PLT
.Ltmp430:
	movq	%rax, 872(%r15)
.Ltmp431:
	.loc	0 563 5 is_stmt 0               # x264_src/encoder/ratecontrol.c:563:5
	testq	%rax, %rax
.Ltmp432:
	.loc	0 563 5                         # x264_src/encoder/ratecontrol.c:563:5
	je	.LBB4_245
.Ltmp433:
# %bb.29:                               # %for.cond.preheader
	#DEBUG_VALUE: x264_ratecontrol_new:h <- $r14
	#DEBUG_VALUE: x264_ratecontrol_new:rc <- $r15
	#DEBUG_VALUE: x264_ratecontrol_new:num_preds <- [DW_OP_plus_uconst 24, DW_OP_deref, DW_OP_plus_uconst 1, DW_OP_stack_value] $rsp
	#DEBUG_VALUE: i <- 0
	.loc	0 0 5                           # x264_src/encoder/ratecontrol.c:0:5
	movq	%r14, 16(%rsp)                  # 8-byte Spill
.Ltmp434:
	#DEBUG_VALUE: x264_ratecontrol_new:h <- [DW_OP_plus_uconst 16] [$rsp+0]
	leaq	552(%r15), %rax
	movq	%rax, 40(%rsp)                  # 8-byte Spill
	movq	24(%rsp), %rax                  # 8-byte Reload
.Ltmp435:
	.loc	0 564 5 is_stmt 1               # x264_src/encoder/ratecontrol.c:564:5
	incl	%eax
	movq	%rax, 32(%rsp)                  # 8-byte Spill
	xorl	%r14d, %r14d
	movabsq	$4611686018427387904, %rbp      # imm = 0x4000000000000000
	movabsq	$4602678819172646912, %r12      # imm = 0x3FE0000000000000
	xorl	%ebx, %ebx
	movq	16(%rsp), %r13                  # 8-byte Reload
	jmp	.LBB4_30
.Ltmp436:
	.p2align	4, 0x90
.LBB4_33:                               # %for.cond239.preheader
                                        #   in Loop: Header=BB4_30 Depth=1
	#DEBUG_VALUE: x264_ratecontrol_new:h <- [DW_OP_plus_uconst 16] [$rsp+0]
	#DEBUG_VALUE: x264_ratecontrol_new:rc <- $r15
	#DEBUG_VALUE: x264_ratecontrol_new:num_preds <- [DW_OP_plus_uconst 24, DW_OP_deref, DW_OP_plus_uconst 1, DW_OP_stack_value] $rsp
	#DEBUG_VALUE: i <- $rbx
	#DEBUG_VALUE: j <- 0
	.loc	0 578 13                        # x264_src/encoder/ratecontrol.c:578:13
	movq	%rbx, %rax
	shlq	$6, %rax
	movq	40(%rsp), %rcx                  # 8-byte Reload
	movapd	.LCPI4_11(%rip), %xmm0          # xmm0 = [2.5E-1,1.0E+0]
	.loc	0 578 38 is_stmt 0              # x264_src/encoder/ratecontrol.c:578:38
	movupd	%xmm0, (%rcx,%rax)
	movsd	.LCPI4_8(%rip), %xmm1           # xmm1 = [5.0E-1,0.0E+0]
	.loc	0 580 38 is_stmt 1              # x264_src/encoder/ratecontrol.c:580:38
	movupd	%xmm1, 16(%rcx,%rax)
.Ltmp437:
	#DEBUG_VALUE: j <- 1
	.loc	0 578 38                        # x264_src/encoder/ratecontrol.c:578:38
	movupd	%xmm0, 32(%rcx,%rax)
	.loc	0 580 38                        # x264_src/encoder/ratecontrol.c:580:38
	movupd	%xmm1, 48(%rcx,%rax)
.Ltmp438:
	#DEBUG_VALUE: j <- 2
	.loc	0 564 29                        # x264_src/encoder/ratecontrol.c:564:29
	incq	%rbx
.Ltmp439:
	#DEBUG_VALUE: i <- $rbx
	.loc	0 564 5 is_stmt 0               # x264_src/encoder/ratecontrol.c:564:5
	addq	$32, %r14
.Ltmp440:
	.loc	0 564 23                        # x264_src/encoder/ratecontrol.c:564:23
	cmpq	$5, %rbx
.Ltmp441:
	.loc	0 564 5                         # x264_src/encoder/ratecontrol.c:564:5
	je	.LBB4_34
.Ltmp442:
.LBB4_30:                               # %for.body
                                        # =>This Loop Header: Depth=1
                                        #     Child Loop BB4_85 Depth 2
	#DEBUG_VALUE: x264_ratecontrol_new:h <- [DW_OP_plus_uconst 16] [$rsp+0]
	#DEBUG_VALUE: x264_ratecontrol_new:rc <- $r15
	#DEBUG_VALUE: x264_ratecontrol_new:num_preds <- [DW_OP_plus_uconst 24, DW_OP_deref, DW_OP_plus_uconst 1, DW_OP_stack_value] $rsp
	#DEBUG_VALUE: i <- $rbx
	.loc	0 566 45 is_stmt 1              # x264_src/encoder/ratecontrol.c:566:45
	cmpl	$1, 488(%r13)
	movss	.LCPI4_4(%rip), %xmm0           # xmm0 = [2.4E+1,0.0E+0,0.0E+0,0.0E+0]
	jne	.LBB4_32
.Ltmp443:
# %bb.31:                               # %cond.true191
                                        #   in Loop: Header=BB4_30 Depth=1
	#DEBUG_VALUE: x264_ratecontrol_new:h <- [DW_OP_plus_uconst 16] [$rsp+0]
	#DEBUG_VALUE: x264_ratecontrol_new:rc <- $r15
	#DEBUG_VALUE: x264_ratecontrol_new:num_preds <- [DW_OP_plus_uconst 24, DW_OP_deref, DW_OP_plus_uconst 1, DW_OP_stack_value] $rsp
	#DEBUG_VALUE: i <- $rbx
	movss	512(%r13), %xmm0                # xmm0 = mem[0],zero,zero,zero
.Ltmp444:
.LBB4_32:                               # %cond.end196
                                        #   in Loop: Header=BB4_30 Depth=1
	#DEBUG_VALUE: x264_ratecontrol_new:h <- [DW_OP_plus_uconst 16] [$rsp+0]
	#DEBUG_VALUE: x264_ratecontrol_new:rc <- $r15
	#DEBUG_VALUE: x264_ratecontrol_new:num_preds <- [DW_OP_plus_uconst 24, DW_OP_deref, DW_OP_plus_uconst 1, DW_OP_stack_value] $rsp
	#DEBUG_VALUE: i <- $rbx
	cvtss2sd	%xmm0, %xmm0
.Ltmp445:
	#DEBUG_VALUE: qp2qscale:qp <- $xmm0
	.loc	0 0 45 is_stmt 0                # x264_src/encoder/ratecontrol.c:0:45
	movsd	.LCPI4_9(%rip), %xmm1           # xmm1 = [-1.2E+1,0.0E+0]
.Ltmp446:
	.loc	0 186 34 is_stmt 1              # x264_src/encoder/ratecontrol.c:186:34
	addsd	%xmm1, %xmm0
.Ltmp447:
	.loc	0 0 34 is_stmt 0                # x264_src/encoder/ratecontrol.c:0:34
	movsd	.LCPI4_7(%rip), %xmm1           # xmm1 = [6.0E+0,0.0E+0]
	.loc	0 186 43                        # x264_src/encoder/ratecontrol.c:186:43
	divsd	%xmm1, %xmm0
	.loc	0 186 19                        # x264_src/encoder/ratecontrol.c:186:19
	callq	exp2@PLT
.Ltmp448:
	.loc	0 0 19                          # x264_src/encoder/ratecontrol.c:0:19
	movsd	.LCPI4_10(%rip), %xmm1          # xmm1 = [8.4999999999999998E-1,0.0E+0]
	.loc	0 186 17                        # x264_src/encoder/ratecontrol.c:186:17
	mulsd	%xmm1, %xmm0
.Ltmp449:
	.loc	0 566 32 is_stmt 1              # x264_src/encoder/ratecontrol.c:566:32
	movsd	%xmm0, 328(%r15,%rbx,8)
	.loc	0 567 34                        # x264_src/encoder/ratecontrol.c:567:34
	xorps	%xmm0, %xmm0
	cvtsi2sdl	496(%r13), %xmm0
.Ltmp450:
	#DEBUG_VALUE: qp2qscale:qp <- $xmm0
	.loc	0 186 34                        # x264_src/encoder/ratecontrol.c:186:34
	addsd	.LCPI4_9(%rip), %xmm0
.Ltmp451:
	.loc	0 186 43 is_stmt 0              # x264_src/encoder/ratecontrol.c:186:43
	divsd	.LCPI4_7(%rip), %xmm0
	.loc	0 186 19                        # x264_src/encoder/ratecontrol.c:186:19
	callq	exp2@PLT
.Ltmp452:
	.loc	0 186 17                        # x264_src/encoder/ratecontrol.c:186:17
	mulsd	.LCPI4_10(%rip), %xmm0
.Ltmp453:
	.loc	0 567 21 is_stmt 1              # x264_src/encoder/ratecontrol.c:567:21
	movsd	%xmm0, 400(%r15,%rbx,8)
	.loc	0 568 34                        # x264_src/encoder/ratecontrol.c:568:34
	xorps	%xmm0, %xmm0
	cvtsi2sdl	500(%r13), %xmm0
.Ltmp454:
	#DEBUG_VALUE: qp2qscale:qp <- $xmm0
	.loc	0 186 34                        # x264_src/encoder/ratecontrol.c:186:34
	addsd	.LCPI4_9(%rip), %xmm0
.Ltmp455:
	.loc	0 186 43 is_stmt 0              # x264_src/encoder/ratecontrol.c:186:43
	divsd	.LCPI4_7(%rip), %xmm0
	.loc	0 186 19                        # x264_src/encoder/ratecontrol.c:186:19
	callq	exp2@PLT
.Ltmp456:
	.loc	0 186 17                        # x264_src/encoder/ratecontrol.c:186:17
	mulsd	.LCPI4_10(%rip), %xmm0
.Ltmp457:
	.loc	0 568 21 is_stmt 1              # x264_src/encoder/ratecontrol.c:568:21
	movsd	%xmm0, 440(%r15,%rbx,8)
.Ltmp458:
	#DEBUG_VALUE: j <- 0
	.loc	0 0 21 is_stmt 0                # x264_src/encoder/ratecontrol.c:0:21
	movq	%r14, %rax
	movq	32(%rsp), %rcx                  # 8-byte Reload
	cmpl	$0, 24(%rsp)                    # 4-byte Folded Reload
	movabsq	$4607182418800017408, %rsi      # imm = 0x3FF0000000000000
.Ltmp459:
	.loc	0 569 9 is_stmt 1               # x264_src/encoder/ratecontrol.c:569:9
	js	.LBB4_33
.Ltmp460:
	.p2align	4, 0x90
.LBB4_85:                               # %for.body217
                                        #   Parent Loop BB4_30 Depth=1
                                        # =>  This Inner Loop Header: Depth=2
	#DEBUG_VALUE: x264_ratecontrol_new:h <- [DW_OP_plus_uconst 16] [$rsp+0]
	#DEBUG_VALUE: x264_ratecontrol_new:rc <- $r15
	#DEBUG_VALUE: x264_ratecontrol_new:num_preds <- [DW_OP_plus_uconst 24, DW_OP_deref, DW_OP_plus_uconst 1, DW_OP_stack_value] $rsp
	#DEBUG_VALUE: i <- $rbx
	#DEBUG_VALUE: j <- [DW_OP_LLVM_arg 0, DW_OP_consts 1, DW_OP_LLVM_arg 0, DW_OP_LLVM_arg 0, DW_OP_mul, DW_OP_plus, DW_OP_LLVM_convert 64 7, DW_OP_minus, DW_OP_consts 18446744073709551615, DW_OP_div, DW_OP_stack_value] undef
	.loc	0 571 17                        # x264_src/encoder/ratecontrol.c:571:17
	movq	144(%r15), %rdx
	.loc	0 571 34 is_stmt 0              # x264_src/encoder/ratecontrol.c:571:34
	movq	%rbp, (%rdx,%rax)
	.loc	0 572 17 is_stmt 1              # x264_src/encoder/ratecontrol.c:572:17
	movq	144(%r15), %rdx
	.loc	0 572 34 is_stmt 0              # x264_src/encoder/ratecontrol.c:572:34
	movq	%rsi, 8(%rdx,%rax)
	.loc	0 573 17 is_stmt 1              # x264_src/encoder/ratecontrol.c:573:17
	movq	144(%r15), %rdx
	.loc	0 573 34 is_stmt 0              # x264_src/encoder/ratecontrol.c:573:34
	movq	%r12, 16(%rdx,%rax)
	.loc	0 574 17 is_stmt 1              # x264_src/encoder/ratecontrol.c:574:17
	movq	144(%r15), %rdx
	.loc	0 574 35 is_stmt 0              # x264_src/encoder/ratecontrol.c:574:35
	movq	$0, 24(%rdx,%rax)
.Ltmp461:
	#DEBUG_VALUE: j <- [DW_OP_LLVM_arg 0, DW_OP_consts 1, DW_OP_LLVM_arg 0, DW_OP_LLVM_arg 0, DW_OP_mul, DW_OP_plus, DW_OP_LLVM_convert 64 7, DW_OP_minus, DW_OP_consts 18446744073709551615, DW_OP_div, DW_OP_consts 1, DW_OP_plus, DW_OP_stack_value] undef
	.loc	0 569 27 is_stmt 1              # x264_src/encoder/ratecontrol.c:569:27
	addq	$160, %rax
	decq	%rcx
.Ltmp462:
	.loc	0 569 9 is_stmt 0               # x264_src/encoder/ratecontrol.c:569:9
	jne	.LBB4_85
	jmp	.LBB4_33
.Ltmp463:
.LBB4_34:                               # %for.cond.cleanup
	#DEBUG_VALUE: x264_ratecontrol_new:h <- [DW_OP_plus_uconst 16] [$rsp+0]
	#DEBUG_VALUE: x264_ratecontrol_new:rc <- $r15
	#DEBUG_VALUE: x264_ratecontrol_new:num_preds <- [DW_OP_plus_uconst 24, DW_OP_deref, DW_OP_plus_uconst 1, DW_OP_stack_value] $rsp
	.loc	0 584 10 is_stmt 1              # x264_src/encoder/ratecontrol.c:584:10
	movq	872(%r15), %rax
	.loc	0 584 30 is_stmt 0              # x264_src/encoder/ratecontrol.c:584:30
	movq	144(%r15), %rcx
	.loc	0 584 26                        # x264_src/encoder/ratecontrol.c:584:26
	movups	(%rcx), %xmm0
	movups	16(%rcx), %xmm1
	movups	%xmm1, 16(%rax)
	movups	%xmm0, (%rax)
	#DEBUG_VALUE: z <- [DW_OP_LLVM_fragment 160 96] undef
.Ltmp464:
	#DEBUG_VALUE: parse_zones:h <- [DW_OP_plus_uconst 16, DW_OP_deref] $rsp
	.loc	0 0 26                          # x264_src/encoder/ratecontrol.c:0:26
	movq	16(%rsp), %r12                  # 8-byte Reload
.Ltmp465:
	.loc	0 923 33 is_stmt 1              # x264_src/encoder/ratecontrol.c:923:33
	movq	26704(%r12), %rbx
.Ltmp466:
	#DEBUG_VALUE: parse_zones:rc <- $rbx
	.loc	0 924 21                        # x264_src/encoder/ratecontrol.c:924:21
	movq	624(%r12), %rdi
	.loc	0 924 9 is_stmt 0               # x264_src/encoder/ratecontrol.c:924:9
	testq	%rdi, %rdi
	.loc	0 924 31                        # x264_src/encoder/ratecontrol.c:924:31
	je	.LBB4_66
.Ltmp467:
# %bb.35:                               # %land.lhs.true.i
	#DEBUG_VALUE: x264_ratecontrol_new:h <- [DW_OP_plus_uconst 16] [$rsp+0]
	#DEBUG_VALUE: x264_ratecontrol_new:rc <- $r15
	#DEBUG_VALUE: x264_ratecontrol_new:num_preds <- [DW_OP_plus_uconst 24, DW_OP_deref, DW_OP_plus_uconst 1, DW_OP_stack_value] $rsp
	#DEBUG_VALUE: parse_zones:h <- [DW_OP_plus_uconst 16, DW_OP_deref] $rsp
	#DEBUG_VALUE: parse_zones:rc <- $rbx
	.loc	0 924 35                        # x264_src/encoder/ratecontrol.c:924:35
	cmpl	$0, 616(%r12)
.Ltmp468:
	.loc	0 924 9                         # x264_src/encoder/ratecontrol.c:924:9
	je	.LBB4_36
.Ltmp469:
.LBB4_66:                               # %if.end71.i
	#DEBUG_VALUE: x264_ratecontrol_new:h <- [DW_OP_plus_uconst 16] [$rsp+0]
	#DEBUG_VALUE: x264_ratecontrol_new:rc <- $r15
	#DEBUG_VALUE: x264_ratecontrol_new:num_preds <- [DW_OP_plus_uconst 24, DW_OP_deref, DW_OP_plus_uconst 1, DW_OP_stack_value] $rsp
	#DEBUG_VALUE: parse_zones:h <- [DW_OP_plus_uconst 16, DW_OP_deref] $rsp
	#DEBUG_VALUE: parse_zones:rc <- $rbx
	.loc	0 945 21 is_stmt 1              # x264_src/encoder/ratecontrol.c:945:21
	movslq	616(%r12), %rdi
	testq	%rdi, %rdi
	movl	$-1, %ebp
.Ltmp470:
	.loc	0 945 9 is_stmt 0               # x264_src/encoder/ratecontrol.c:945:9
	jle	.LBB4_82
.Ltmp471:
.LBB4_67:                               # %for.cond79.preheader.i
	#DEBUG_VALUE: x264_ratecontrol_new:h <- [DW_OP_plus_uconst 16] [$rsp+0]
	#DEBUG_VALUE: x264_ratecontrol_new:rc <- $r15
	#DEBUG_VALUE: parse_zones:h <- [DW_OP_plus_uconst 16, DW_OP_deref] $rsp
	#DEBUG_VALUE: parse_zones:rc <- $rbx
	#DEBUG_VALUE: i <- 0
	.loc	0 0 9                           # x264_src/encoder/ratecontrol.c:0:9
	movq	608(%r12), %rax
.Ltmp472:
	.loc	0 947 9 is_stmt 1               # x264_src/encoder/ratecontrol.c:947:9
	movq	%rdi, %rdx
	shlq	$5, %rdx
	xorl	%esi, %esi
	xorps	%xmm0, %xmm0
	jmp	.LBB4_69
.Ltmp473:
	.p2align	4, 0x90
.LBB4_68:                               # %for.cond79.i
                                        #   in Loop: Header=BB4_69 Depth=1
	#DEBUG_VALUE: x264_ratecontrol_new:h <- [DW_OP_plus_uconst 16] [$rsp+0]
	#DEBUG_VALUE: x264_ratecontrol_new:rc <- $r15
	#DEBUG_VALUE: parse_zones:h <- [DW_OP_plus_uconst 16, DW_OP_deref] $rsp
	#DEBUG_VALUE: parse_zones:rc <- $rbx
	#DEBUG_VALUE: i <- [DW_OP_plus_uconst 1, DW_OP_stack_value] $rsi
	#DEBUG_VALUE: i <- [DW_OP_consts 32, DW_OP_div, DW_OP_consts 1, DW_OP_plus, DW_OP_stack_value] $rsi
	.loc	0 947 27 is_stmt 0              # x264_src/encoder/ratecontrol.c:947:27
	addq	$32, %rsi
.Ltmp474:
	cmpq	%rsi, %rdx
.Ltmp475:
	.loc	0 947 9                         # x264_src/encoder/ratecontrol.c:947:9
	je	.LBB4_75
.Ltmp476:
.LBB4_69:                               # %for.body86.i
                                        # =>This Inner Loop Header: Depth=1
	#DEBUG_VALUE: x264_ratecontrol_new:h <- [DW_OP_plus_uconst 16] [$rsp+0]
	#DEBUG_VALUE: x264_ratecontrol_new:rc <- $r15
	#DEBUG_VALUE: parse_zones:h <- [DW_OP_plus_uconst 16, DW_OP_deref] $rsp
	#DEBUG_VALUE: parse_zones:rc <- $rbx
	#DEBUG_VALUE: i <- [DW_OP_consts 32, DW_OP_div, DW_OP_stack_value] $rsi
	.loc	0 949 29 is_stmt 1              # x264_src/encoder/ratecontrol.c:949:29
	movl	(%rax,%rsi), %ecx
	movl	4(%rax,%rsi), %r8d
.Ltmp477:
	#DEBUG_VALUE: z <- [DW_OP_LLVM_fragment 32 32] $r8d
	#DEBUG_VALUE: z <- [DW_OP_LLVM_fragment 0 32] $ecx
	#DEBUG_VALUE: z <- [DW_OP_LLVM_fragment 64 32] undef
	#DEBUG_VALUE: z <- [DW_OP_LLVM_fragment 96 32] undef
	#DEBUG_VALUE: z <- [DW_OP_LLVM_fragment 128 32] undef
	#DEBUG_VALUE: z <- [DW_OP_LLVM_fragment 160 96] undef
	.loc	0 950 27                        # x264_src/encoder/ratecontrol.c:950:27
	testl	%ecx, %ecx
	.loc	0 950 31 is_stmt 0              # x264_src/encoder/ratecontrol.c:950:31
	js	.LBB4_71
.Ltmp478:
# %bb.70:                               # %for.body86.i
                                        #   in Loop: Header=BB4_69 Depth=1
	#DEBUG_VALUE: x264_ratecontrol_new:h <- [DW_OP_plus_uconst 16] [$rsp+0]
	#DEBUG_VALUE: x264_ratecontrol_new:rc <- $r15
	#DEBUG_VALUE: parse_zones:h <- [DW_OP_plus_uconst 16, DW_OP_deref] $rsp
	#DEBUG_VALUE: parse_zones:rc <- $rbx
	#DEBUG_VALUE: i <- [DW_OP_consts 32, DW_OP_div, DW_OP_stack_value] $rsi
	#DEBUG_VALUE: z <- [DW_OP_LLVM_fragment 32 32] $r8d
	#DEBUG_VALUE: z <- [DW_OP_LLVM_fragment 0 32] $ecx
	cmpl	%r8d, %ecx
	jg	.LBB4_71
.Ltmp479:
# %bb.72:                               # %if.else.i
                                        #   in Loop: Header=BB4_69 Depth=1
	#DEBUG_VALUE: x264_ratecontrol_new:h <- [DW_OP_plus_uconst 16] [$rsp+0]
	#DEBUG_VALUE: x264_ratecontrol_new:rc <- $r15
	#DEBUG_VALUE: parse_zones:h <- [DW_OP_plus_uconst 16, DW_OP_deref] $rsp
	#DEBUG_VALUE: parse_zones:rc <- $rbx
	#DEBUG_VALUE: i <- [DW_OP_consts 32, DW_OP_div, DW_OP_stack_value] $rsi
	#DEBUG_VALUE: z <- [DW_OP_LLVM_fragment 32 32] $r8d
	#DEBUG_VALUE: z <- [DW_OP_LLVM_fragment 0 32] $ecx
	#DEBUG_VALUE: z <- [DW_OP_LLVM_fragment 128 32] undef
	#DEBUG_VALUE: z <- [DW_OP_LLVM_fragment 64 32] undef
	.loc	0 956 23 is_stmt 1              # x264_src/encoder/ratecontrol.c:956:23
	cmpl	$0, 8(%rax,%rsi)
.Ltmp480:
	#DEBUG_VALUE: i <- [DW_OP_plus_uconst 1, DW_OP_stack_value] $rsi
	.loc	0 956 36 is_stmt 0              # x264_src/encoder/ratecontrol.c:956:36
	jne	.LBB4_68
.Ltmp481:
# %bb.73:                               # %if.else.i
                                        #   in Loop: Header=BB4_69 Depth=1
	#DEBUG_VALUE: x264_ratecontrol_new:h <- [DW_OP_plus_uconst 16] [$rsp+0]
	#DEBUG_VALUE: x264_ratecontrol_new:rc <- $r15
	#DEBUG_VALUE: parse_zones:h <- [DW_OP_plus_uconst 16, DW_OP_deref] $rsp
	#DEBUG_VALUE: parse_zones:rc <- $rbx
	#DEBUG_VALUE: i <- [DW_OP_plus_uconst 1, DW_OP_stack_value] $rsi
	#DEBUG_VALUE: z <- [DW_OP_LLVM_fragment 32 32] $r8d
	#DEBUG_VALUE: z <- [DW_OP_LLVM_fragment 0 32] $ecx
	.loc	0 0 0                           # x264_src/encoder/ratecontrol.c:0:0
	movss	16(%rax,%rsi), %xmm1            # xmm1 = mem[0],zero,zero,zero
.Ltmp482:
	#DEBUG_VALUE: z <- [DW_OP_LLVM_fragment 128 32] $xmm1
	.loc	0 956 36                        # x264_src/encoder/ratecontrol.c:956:36
	ucomiss	%xmm1, %xmm0
	jb	.LBB4_68
.Ltmp483:
# %bb.74:                               # %if.then104.i
	#DEBUG_VALUE: x264_ratecontrol_new:h <- [DW_OP_plus_uconst 16] [$rsp+0]
	#DEBUG_VALUE: x264_ratecontrol_new:rc <- $r15
	#DEBUG_VALUE: parse_zones:h <- [DW_OP_plus_uconst 16, DW_OP_deref] $rsp
	#DEBUG_VALUE: parse_zones:rc <- $rbx
	#DEBUG_VALUE: i <- [DW_OP_plus_uconst 1, DW_OP_stack_value] $rsi
	#DEBUG_VALUE: z <- [DW_OP_LLVM_fragment 32 32] $r8d
	#DEBUG_VALUE: z <- [DW_OP_LLVM_fragment 0 32] $ecx
	#DEBUG_VALUE: z <- [DW_OP_LLVM_fragment 128 32] $xmm1
	.loc	0 959 27 is_stmt 1              # x264_src/encoder/ratecontrol.c:959:27
	xorps	%xmm0, %xmm0
	cvtss2sd	%xmm1, %xmm0
	.loc	0 958 17                        # x264_src/encoder/ratecontrol.c:958:17
	movl	$.L.str.76, %edx
	movq	%r12, %rdi
	xorl	%esi, %esi
.Ltmp484:
	movb	$1, %al
	callq	x264_log@PLT
.Ltmp485:
	.loc	0 960 17                        # x264_src/encoder/ratecontrol.c:960:17
	jmp	.LBB4_61
.Ltmp486:
.LBB4_36:                               # %if.then.i
	#DEBUG_VALUE: x264_ratecontrol_new:h <- [DW_OP_plus_uconst 16] [$rsp+0]
	#DEBUG_VALUE: x264_ratecontrol_new:rc <- $r15
	#DEBUG_VALUE: x264_ratecontrol_new:num_preds <- [DW_OP_plus_uconst 24, DW_OP_deref, DW_OP_plus_uconst 1, DW_OP_stack_value] $rsp
	#DEBUG_VALUE: parse_zones:h <- [DW_OP_plus_uconst 16, DW_OP_deref] $rsp
	#DEBUG_VALUE: parse_zones:rc <- $rbx
	.loc	0 927 9                         # x264_src/encoder/ratecontrol.c:927:9
	callq	strlen@PLT
.Ltmp487:
	leal	1(%rax), %edi
	callq	x264_malloc@PLT
.Ltmp488:
	#DEBUG_VALUE: psz_zones <- $rax
	.loc	0 927 9 is_stmt 0               # x264_src/encoder/ratecontrol.c:927:9
	testq	%rax, %rax
	movl	$-1, %ebp
.Ltmp489:
	.loc	0 927 9                         # x264_src/encoder/ratecontrol.c:927:9
	je	.LBB4_61
.Ltmp490:
# %bb.37:                               # %do.end.i
	#DEBUG_VALUE: x264_ratecontrol_new:h <- [DW_OP_plus_uconst 16] [$rsp+0]
	#DEBUG_VALUE: x264_ratecontrol_new:rc <- $r15
	#DEBUG_VALUE: x264_ratecontrol_new:num_preds <- [DW_OP_plus_uconst 24, DW_OP_deref, DW_OP_plus_uconst 1, DW_OP_stack_value] $rsp
	#DEBUG_VALUE: parse_zones:h <- [DW_OP_plus_uconst 16, DW_OP_deref] $rsp
	#DEBUG_VALUE: parse_zones:rc <- $rbx
	#DEBUG_VALUE: psz_zones <- $rax
	.loc	0 0 0                           # x264_src/encoder/ratecontrol.c:0:0
	movq	%rax, %r14
	.loc	0 928 40 is_stmt 1              # x264_src/encoder/ratecontrol.c:928:40
	movq	624(%r12), %rsi
	.loc	0 928 9 is_stmt 0               # x264_src/encoder/ratecontrol.c:928:9
	movq	%rax, %rdi
	callq	strcpy@PLT
.Ltmp491:
	#DEBUG_VALUE: psz_zones <- $r14
	.loc	0 929 29 is_stmt 1              # x264_src/encoder/ratecontrol.c:929:29
	movl	$1, 616(%r12)
.Ltmp492:
	#DEBUG_VALUE: p <- $r14
	.loc	0 930 29                        # x264_src/encoder/ratecontrol.c:930:29
	movzbl	(%r14), %ecx
.Ltmp493:
	.loc	0 930 9 is_stmt 0               # x264_src/encoder/ratecontrol.c:930:9
	testb	%cl, %cl
	je	.LBB4_38
.Ltmp494:
# %bb.39:                               # %for.body.i.preheader
	#DEBUG_VALUE: x264_ratecontrol_new:h <- [DW_OP_plus_uconst 16] [$rsp+0]
	#DEBUG_VALUE: x264_ratecontrol_new:rc <- $r15
	#DEBUG_VALUE: x264_ratecontrol_new:num_preds <- [DW_OP_plus_uconst 24, DW_OP_deref, DW_OP_plus_uconst 1, DW_OP_stack_value] $rsp
	#DEBUG_VALUE: parse_zones:h <- [DW_OP_plus_uconst 16, DW_OP_deref] $rsp
	#DEBUG_VALUE: parse_zones:rc <- $rbx
	#DEBUG_VALUE: psz_zones <- $r14
	#DEBUG_VALUE: p <- $r14
	movq	%r14, %rax
	incq	%rax
	movl	$1, %edi
.Ltmp495:
	.p2align	4, 0x90
.LBB4_40:                               # %for.body.i
                                        # =>This Inner Loop Header: Depth=1
	#DEBUG_VALUE: x264_ratecontrol_new:h <- [DW_OP_plus_uconst 16] [$rsp+0]
	#DEBUG_VALUE: x264_ratecontrol_new:rc <- $r15
	#DEBUG_VALUE: x264_ratecontrol_new:num_preds <- [DW_OP_plus_uconst 24, DW_OP_deref, DW_OP_plus_uconst 1, DW_OP_stack_value] $rsp
	#DEBUG_VALUE: parse_zones:h <- [DW_OP_plus_uconst 16, DW_OP_deref] $rsp
	#DEBUG_VALUE: parse_zones:rc <- $rbx
	#DEBUG_VALUE: psz_zones <- $r14
	#DEBUG_VALUE: p <- [DW_OP_constu 1, DW_OP_minus, DW_OP_stack_value] $rax
	.loc	0 931 40 is_stmt 1              # x264_src/encoder/ratecontrol.c:931:40
	xorl	%edx, %edx
	cmpb	$47, %cl
	sete	%dl
	.loc	0 931 33 is_stmt 0              # x264_src/encoder/ratecontrol.c:931:33
	addl	%edx, %edi
	movl	%edi, 616(%r12)
.Ltmp496:
	#DEBUG_VALUE: p <- $rax
	.loc	0 930 29 is_stmt 1              # x264_src/encoder/ratecontrol.c:930:29
	movzbl	(%rax), %ecx
.Ltmp497:
	.loc	0 930 9 is_stmt 0               # x264_src/encoder/ratecontrol.c:930:9
	incq	%rax
.Ltmp498:
	testb	%cl, %cl
	jne	.LBB4_40
.Ltmp499:
# %bb.41:                               # %do.body27.loopexit.i
	#DEBUG_VALUE: x264_ratecontrol_new:h <- [DW_OP_plus_uconst 16] [$rsp+0]
	#DEBUG_VALUE: x264_ratecontrol_new:rc <- $r15
	#DEBUG_VALUE: x264_ratecontrol_new:num_preds <- [DW_OP_plus_uconst 24, DW_OP_deref, DW_OP_plus_uconst 1, DW_OP_stack_value] $rsp
	#DEBUG_VALUE: parse_zones:h <- [DW_OP_plus_uconst 16, DW_OP_deref] $rsp
	#DEBUG_VALUE: parse_zones:rc <- $rbx
	#DEBUG_VALUE: psz_zones <- $r14
	.loc	0 932 9 is_stmt 1               # x264_src/encoder/ratecontrol.c:932:9
	shll	$5, %edi
	jmp	.LBB4_42
.Ltmp500:
.LBB4_71:                               # %if.then97.i
	#DEBUG_VALUE: x264_ratecontrol_new:h <- [DW_OP_plus_uconst 16] [$rsp+0]
	#DEBUG_VALUE: x264_ratecontrol_new:rc <- $r15
	#DEBUG_VALUE: parse_zones:h <- [DW_OP_plus_uconst 16, DW_OP_deref] $rsp
	#DEBUG_VALUE: parse_zones:rc <- $rbx
	#DEBUG_VALUE: i <- [DW_OP_consts 32, DW_OP_div, DW_OP_stack_value] $rsi
	#DEBUG_VALUE: z <- [DW_OP_LLVM_fragment 32 32] $r8d
	#DEBUG_VALUE: z <- [DW_OP_LLVM_fragment 0 32] $ecx
	.loc	0 952 17                        # x264_src/encoder/ratecontrol.c:952:17
	movl	$.L.str.75, %edx
	movq	%r12, %rdi
	xorl	%esi, %esi
.Ltmp501:
	xorl	%eax, %eax
	callq	x264_log@PLT
.Ltmp502:
	.loc	0 954 17                        # x264_src/encoder/ratecontrol.c:954:17
	jmp	.LBB4_61
.Ltmp503:
.LBB4_75:                               # %for.end116.i
	#DEBUG_VALUE: x264_ratecontrol_new:h <- [DW_OP_plus_uconst 16] [$rsp+0]
	#DEBUG_VALUE: x264_ratecontrol_new:rc <- $r15
	#DEBUG_VALUE: parse_zones:h <- [DW_OP_plus_uconst 16, DW_OP_deref] $rsp
	#DEBUG_VALUE: parse_zones:rc <- $rbx
	.loc	0 964 43                        # x264_src/encoder/ratecontrol.c:964:43
	incl	%edi
	.loc	0 964 21 is_stmt 0              # x264_src/encoder/ratecontrol.c:964:21
	movl	%edi, 888(%rbx)
.Ltmp504:
	.loc	0 965 9 is_stmt 1               # x264_src/encoder/ratecontrol.c:965:9
	shll	$5, %edi
                                        # kill: def $edi killed $edi killed $rdi
	callq	x264_malloc@PLT
.Ltmp505:
	movq	%rax, 896(%rbx)
.Ltmp506:
	.loc	0 965 9 is_stmt 0               # x264_src/encoder/ratecontrol.c:965:9
	testq	%rax, %rax
.Ltmp507:
	.loc	0 965 9                         # x264_src/encoder/ratecontrol.c:965:9
	je	.LBB4_61
.Ltmp508:
# %bb.76:                               # %do.end134.i
	#DEBUG_VALUE: x264_ratecontrol_new:h <- [DW_OP_plus_uconst 16] [$rsp+0]
	#DEBUG_VALUE: x264_ratecontrol_new:rc <- $r15
	#DEBUG_VALUE: parse_zones:h <- [DW_OP_plus_uconst 16, DW_OP_deref] $rsp
	#DEBUG_VALUE: parse_zones:rc <- $rbx
	.loc	0 966 26 is_stmt 1              # x264_src/encoder/ratecontrol.c:966:26
	addq	$32, %rax
	.loc	0 966 42 is_stmt 0              # x264_src/encoder/ratecontrol.c:966:42
	movq	608(%r12), %rsi
	.loc	0 966 54                        # x264_src/encoder/ratecontrol.c:966:54
	movslq	888(%rbx), %rdx
	.loc	0 966 61                        # x264_src/encoder/ratecontrol.c:966:61
	shlq	$5, %rdx
	.loc	0 966 65                        # x264_src/encoder/ratecontrol.c:966:65
	addq	$-32, %rdx
	.loc	0 966 9                         # x264_src/encoder/ratecontrol.c:966:9
	movq	%rax, %rdi
	callq	memcpy@PLT
.Ltmp509:
	.loc	0 969 13 is_stmt 1              # x264_src/encoder/ratecontrol.c:969:13
	movq	896(%rbx), %rax
	.loc	0 969 30 is_stmt 0              # x264_src/encoder/ratecontrol.c:969:30
	movl	$0, (%rax)
	.loc	0 970 13 is_stmt 1              # x264_src/encoder/ratecontrol.c:970:13
	movq	896(%rbx), %rax
	.loc	0 970 28 is_stmt 0              # x264_src/encoder/ratecontrol.c:970:28
	movl	$2147483647, 4(%rax)            # imm = 0x7FFFFFFF
	.loc	0 971 13 is_stmt 1              # x264_src/encoder/ratecontrol.c:971:13
	movq	896(%rbx), %rax
	.loc	0 971 33 is_stmt 0              # x264_src/encoder/ratecontrol.c:971:33
	movl	$0, 8(%rax)
	.loc	0 972 13 is_stmt 1              # x264_src/encoder/ratecontrol.c:972:13
	movq	896(%rbx), %rax
	.loc	0 972 39 is_stmt 0              # x264_src/encoder/ratecontrol.c:972:39
	movl	$1065353216, 16(%rax)           # imm = 0x3F800000
.Ltmp510:
	.loc	0 973 9 is_stmt 1               # x264_src/encoder/ratecontrol.c:973:9
	movl	$704, %edi                      # imm = 0x2C0
	callq	x264_malloc@PLT
.Ltmp511:
	movq	896(%rbx), %rcx
	movq	%rax, 24(%rcx)
.Ltmp512:
	.loc	0 973 9 is_stmt 0               # x264_src/encoder/ratecontrol.c:973:9
	movq	896(%rbx), %rax
	movq	24(%rax), %rdi
	testq	%rdi, %rdi
.Ltmp513:
	.loc	0 973 9                         # x264_src/encoder/ratecontrol.c:973:9
	je	.LBB4_61
.Ltmp514:
# %bb.77:                               # %do.end167.i
	#DEBUG_VALUE: x264_ratecontrol_new:h <- [DW_OP_plus_uconst 16] [$rsp+0]
	#DEBUG_VALUE: x264_ratecontrol_new:rc <- $r15
	#DEBUG_VALUE: parse_zones:h <- [DW_OP_plus_uconst 16, DW_OP_deref] $rsp
	#DEBUG_VALUE: parse_zones:rc <- $rbx
	.loc	0 974 9 is_stmt 1               # x264_src/encoder/ratecontrol.c:974:9
	movl	$704, %edx                      # imm = 0x2C0
	movq	%r12, %rsi
	callq	memcpy@PLT
.Ltmp515:
	#DEBUG_VALUE: i <- 1
	.loc	0 975 33                        # x264_src/encoder/ratecontrol.c:975:33
	movl	888(%rbx), %eax
	.loc	0 975 27 is_stmt 0              # x264_src/encoder/ratecontrol.c:975:27
	cmpl	$2, %eax
.Ltmp516:
	.loc	0 975 9                         # x264_src/encoder/ratecontrol.c:975:9
	jl	.LBB4_82
.Ltmp517:
# %bb.78:                               # %for.body178.i.preheader
	#DEBUG_VALUE: x264_ratecontrol_new:h <- [DW_OP_plus_uconst 16] [$rsp+0]
	#DEBUG_VALUE: x264_ratecontrol_new:rc <- $r15
	#DEBUG_VALUE: parse_zones:h <- [DW_OP_plus_uconst 16, DW_OP_deref] $rsp
	#DEBUG_VALUE: parse_zones:rc <- $rbx
	#DEBUG_VALUE: i <- 1
	.loc	0 0 9                           # x264_src/encoder/ratecontrol.c:0:9
	movl	$1, %ecx
	movl	$56, %edx
	jmp	.LBB4_79
.Ltmp518:
.LBB4_81:                               # %for.inc193.i
                                        #   in Loop: Header=BB4_79 Depth=1
	#DEBUG_VALUE: x264_ratecontrol_new:h <- [DW_OP_plus_uconst 16] [$rsp+0]
	#DEBUG_VALUE: x264_ratecontrol_new:rc <- $r15
	#DEBUG_VALUE: parse_zones:h <- [DW_OP_plus_uconst 16, DW_OP_deref] $rsp
	#DEBUG_VALUE: parse_zones:rc <- $rbx
	#DEBUG_VALUE: i <- $rcx
	.loc	0 975 43                        # x264_src/encoder/ratecontrol.c:975:43
	incq	%rcx
.Ltmp519:
	#DEBUG_VALUE: i <- $rcx
	.loc	0 975 27                        # x264_src/encoder/ratecontrol.c:975:27
	movslq	%eax, %rsi
	addq	$32, %rdx
	cmpq	%rsi, %rcx
.Ltmp520:
	.loc	0 975 9                         # x264_src/encoder/ratecontrol.c:975:9
	jge	.LBB4_82
.Ltmp521:
.LBB4_79:                               # %for.body178.i
                                        # =>This Inner Loop Header: Depth=1
	#DEBUG_VALUE: x264_ratecontrol_new:h <- [DW_OP_plus_uconst 16] [$rsp+0]
	#DEBUG_VALUE: x264_ratecontrol_new:rc <- $r15
	#DEBUG_VALUE: parse_zones:h <- [DW_OP_plus_uconst 16, DW_OP_deref] $rsp
	#DEBUG_VALUE: parse_zones:rc <- $rbx
	#DEBUG_VALUE: i <- $rcx
	.loc	0 977 22 is_stmt 1              # x264_src/encoder/ratecontrol.c:977:22
	movq	896(%rbx), %rsi
	.loc	0 977 18 is_stmt 0              # x264_src/encoder/ratecontrol.c:977:18
	cmpq	$0, (%rsi,%rdx)
.Ltmp522:
	.loc	0 977 17                        # x264_src/encoder/ratecontrol.c:977:17
	jne	.LBB4_81
.Ltmp523:
# %bb.80:                               # %if.then184.i
                                        #   in Loop: Header=BB4_79 Depth=1
	#DEBUG_VALUE: x264_ratecontrol_new:h <- [DW_OP_plus_uconst 16] [$rsp+0]
	#DEBUG_VALUE: x264_ratecontrol_new:rc <- $r15
	#DEBUG_VALUE: parse_zones:h <- [DW_OP_plus_uconst 16, DW_OP_deref] $rsp
	#DEBUG_VALUE: parse_zones:rc <- $rbx
	#DEBUG_VALUE: i <- $rcx
	.loc	0 978 51 is_stmt 1              # x264_src/encoder/ratecontrol.c:978:51
	movq	24(%rsi), %rax
	.loc	0 978 36 is_stmt 0              # x264_src/encoder/ratecontrol.c:978:36
	movq	%rax, (%rsi,%rdx)
.Ltmp524:
	.loc	0 975 33 is_stmt 1              # x264_src/encoder/ratecontrol.c:975:33
	movl	888(%rbx), %eax
	jmp	.LBB4_81
.Ltmp525:
.LBB4_38:
	#DEBUG_VALUE: x264_ratecontrol_new:h <- [DW_OP_plus_uconst 16] [$rsp+0]
	#DEBUG_VALUE: x264_ratecontrol_new:rc <- $r15
	#DEBUG_VALUE: x264_ratecontrol_new:num_preds <- [DW_OP_plus_uconst 24, DW_OP_deref, DW_OP_plus_uconst 1, DW_OP_stack_value] $rsp
	#DEBUG_VALUE: parse_zones:h <- [DW_OP_plus_uconst 16, DW_OP_deref] $rsp
	#DEBUG_VALUE: parse_zones:rc <- $rbx
	#DEBUG_VALUE: psz_zones <- $r14
	#DEBUG_VALUE: p <- $r14
	.loc	0 0 33 is_stmt 0                # x264_src/encoder/ratecontrol.c:0:33
	movl	$32, %edi
.Ltmp526:
.LBB4_42:                               # %do.body27.i
	#DEBUG_VALUE: x264_ratecontrol_new:h <- [DW_OP_plus_uconst 16] [$rsp+0]
	#DEBUG_VALUE: x264_ratecontrol_new:rc <- $r15
	#DEBUG_VALUE: x264_ratecontrol_new:num_preds <- [DW_OP_plus_uconst 24, DW_OP_deref, DW_OP_plus_uconst 1, DW_OP_stack_value] $rsp
	#DEBUG_VALUE: parse_zones:h <- [DW_OP_plus_uconst 16, DW_OP_deref] $rsp
	#DEBUG_VALUE: parse_zones:rc <- $rbx
	#DEBUG_VALUE: psz_zones <- $r14
	.loc	0 932 9 is_stmt 1               # x264_src/encoder/ratecontrol.c:932:9
	callq	x264_malloc@PLT
.Ltmp527:
	movq	%rax, 608(%r12)
.Ltmp528:
	.loc	0 932 9 is_stmt 0               # x264_src/encoder/ratecontrol.c:932:9
	testq	%rax, %rax
.Ltmp529:
	.loc	0 932 9                         # x264_src/encoder/ratecontrol.c:932:9
	je	.LBB4_61
.Ltmp530:
# %bb.43:                               # %for.cond44.preheader.i
	#DEBUG_VALUE: x264_ratecontrol_new:h <- [DW_OP_plus_uconst 16] [$rsp+0]
	#DEBUG_VALUE: x264_ratecontrol_new:rc <- $r15
	#DEBUG_VALUE: x264_ratecontrol_new:num_preds <- [DW_OP_plus_uconst 24, DW_OP_deref, DW_OP_plus_uconst 1, DW_OP_stack_value] $rsp
	#DEBUG_VALUE: parse_zones:h <- [DW_OP_plus_uconst 16, DW_OP_deref] $rsp
	#DEBUG_VALUE: parse_zones:rc <- $rbx
	#DEBUG_VALUE: psz_zones <- $r14
	#DEBUG_VALUE: p <- $r14
	#DEBUG_VALUE: i <- 0
	.loc	0 0 9                           # x264_src/encoder/ratecontrol.c:0:9
	movq	%r14, 72(%rsp)                  # 8-byte Spill
.Ltmp531:
	#DEBUG_VALUE: p <- [DW_OP_plus_uconst 72, DW_OP_deref] $rsp
	#DEBUG_VALUE: psz_zones <- [DW_OP_plus_uconst 72, DW_OP_deref] $rsp
	movq	%rbx, 80(%rsp)                  # 8-byte Spill
.Ltmp532:
	#DEBUG_VALUE: parse_zones:rc <- [DW_OP_plus_uconst 80, DW_OP_deref] $rsp
	.loc	0 934 27 is_stmt 1              # x264_src/encoder/ratecontrol.c:934:27
	cmpl	$0, 616(%r12)
.Ltmp533:
	.loc	0 934 9 is_stmt 0               # x264_src/encoder/ratecontrol.c:934:9
	jle	.LBB4_65
.Ltmp534:
# %bb.44:                               # %for.body50.i.preheader
	#DEBUG_VALUE: x264_ratecontrol_new:h <- [DW_OP_plus_uconst 16] [$rsp+0]
	#DEBUG_VALUE: x264_ratecontrol_new:rc <- $r15
	#DEBUG_VALUE: x264_ratecontrol_new:num_preds <- [DW_OP_plus_uconst 24, DW_OP_deref, DW_OP_plus_uconst 1, DW_OP_stack_value] $rsp
	#DEBUG_VALUE: parse_zones:h <- [DW_OP_plus_uconst 16, DW_OP_deref] $rsp
	#DEBUG_VALUE: parse_zones:rc <- [DW_OP_plus_uconst 80, DW_OP_deref] $rsp
	#DEBUG_VALUE: psz_zones <- [DW_OP_plus_uconst 72, DW_OP_deref] $rsp
	#DEBUG_VALUE: p <- [DW_OP_plus_uconst 72, DW_OP_deref] $rsp
	#DEBUG_VALUE: i <- 0
	.loc	0 0 9                           # x264_src/encoder/ratecontrol.c:0:9
	leaq	12(%rsp), %rbp
	xorl	%ebx, %ebx
	movq	72(%rsp), %r13                  # 8-byte Reload
	jmp	.LBB4_45
.Ltmp535:
.LBB4_64:                               # %for.inc63.i
                                        #   in Loop: Header=BB4_45 Depth=1
	#DEBUG_VALUE: x264_ratecontrol_new:h <- [DW_OP_plus_uconst 16] [$rsp+0]
	#DEBUG_VALUE: x264_ratecontrol_new:rc <- $r15
	#DEBUG_VALUE: parse_zones:h <- [DW_OP_plus_uconst 16, DW_OP_deref] $rsp
	#DEBUG_VALUE: parse_zones:rc <- [DW_OP_plus_uconst 80, DW_OP_deref] $rsp
	#DEBUG_VALUE: psz_zones <- [DW_OP_plus_uconst 72, DW_OP_deref] $rsp
	#DEBUG_VALUE: p <- $r13
	#DEBUG_VALUE: i <- [DW_OP_plus_uconst 24, DW_OP_deref_size 8, DW_OP_stack_value] $rsp
	#DEBUG_VALUE: i_tok <- [DW_OP_plus_uconst 40, DW_OP_deref_size 8, DW_OP_LLVM_convert 64 7, DW_OP_LLVM_convert 32 7, DW_OP_stack_value] $rsp
	movq	40(%rsp), %rcx                  # 8-byte Reload
.Ltmp536:
	shlq	$32, %rcx
	.loc	0 938 17 is_stmt 1              # x264_src/encoder/ratecontrol.c:938:17
	movabsq	$4294967296, %rax               # imm = 0x100000000
	addq	%rax, %rcx
	sarq	$32, %rcx
	addq	%rcx, %r13
.Ltmp537:
	#DEBUG_VALUE: p <- $r13
	.loc	0 0 17 is_stmt 0                # x264_src/encoder/ratecontrol.c:0:17
	movq	24(%rsp), %rbx                  # 8-byte Reload
.Ltmp538:
	.loc	0 934 51 is_stmt 1              # x264_src/encoder/ratecontrol.c:934:51
	incq	%rbx
.Ltmp539:
	#DEBUG_VALUE: i <- $rbx
	.loc	0 0 51 is_stmt 0                # x264_src/encoder/ratecontrol.c:0:51
	movq	16(%rsp), %r12                  # 8-byte Reload
	.loc	0 934 41                        # x264_src/encoder/ratecontrol.c:934:41
	movslq	616(%r12), %rax
	.loc	0 934 27                        # x264_src/encoder/ratecontrol.c:934:27
	cmpq	%rax, %rbx
	movq	%r14, %rbp
.Ltmp540:
	.loc	0 934 9                         # x264_src/encoder/ratecontrol.c:934:9
	jge	.LBB4_65
.Ltmp541:
.LBB4_45:                               # %for.body50.i
                                        # =>This Loop Header: Depth=1
                                        #     Child Loop BB4_56 Depth 2
	#DEBUG_VALUE: x264_ratecontrol_new:h <- [DW_OP_plus_uconst 16] [$rsp+0]
	#DEBUG_VALUE: x264_ratecontrol_new:rc <- $r15
	#DEBUG_VALUE: parse_zones:h <- [DW_OP_plus_uconst 16, DW_OP_deref] $rsp
	#DEBUG_VALUE: parse_zones:rc <- [DW_OP_plus_uconst 80, DW_OP_deref] $rsp
	#DEBUG_VALUE: psz_zones <- [DW_OP_plus_uconst 72, DW_OP_deref] $rsp
	#DEBUG_VALUE: p <- $r13
	#DEBUG_VALUE: p <- $r13
	#DEBUG_VALUE: i <- $rbx
	.loc	0 936 25 is_stmt 1              # x264_src/encoder/ratecontrol.c:936:25
	movl	$.L.str.74, %esi
	movq	%r13, %rdi
	callq	strcspn@PLT
.Ltmp542:
	#DEBUG_VALUE: i_tok <- [DW_OP_LLVM_convert 64 7, DW_OP_LLVM_convert 32 7, DW_OP_stack_value] $rax
	.loc	0 0 25 is_stmt 0                # x264_src/encoder/ratecontrol.c:0:25
	movq	%rax, 40(%rsp)                  # 8-byte Spill
.Ltmp543:
	#DEBUG_VALUE: i_tok <- [DW_OP_plus_uconst 40, DW_OP_deref_size 8, DW_OP_LLVM_convert 64 7, DW_OP_LLVM_convert 32 7, DW_OP_stack_value] $rsp
	.loc	0 937 13 is_stmt 1              # x264_src/encoder/ratecontrol.c:937:13
	cltq
	.loc	0 937 22 is_stmt 0              # x264_src/encoder/ratecontrol.c:937:22
	movb	$0, (%r13,%rax)
.Ltmp544:
	.loc	0 938 45 is_stmt 1              # x264_src/encoder/ratecontrol.c:938:45
	movq	608(%r12), %r14
	movq	%rbx, 24(%rsp)                  # 8-byte Spill
.Ltmp545:
	#DEBUG_VALUE: i <- [DW_OP_plus_uconst 24, DW_OP_deref_size 8, DW_OP_stack_value] $rsp
	.loc	0 938 33 is_stmt 0              # x264_src/encoder/ratecontrol.c:938:33
	shlq	$5, %rbx
	leaq	(%r14,%rbx), %r12
.Ltmp546:
	#DEBUG_VALUE: parse_zone:z <- $r12
	#DEBUG_VALUE: parse_zone:len <- undef
	#DEBUG_VALUE: parse_zone:h <- [DW_OP_plus_uconst 16, DW_OP_deref] $rsp
	#DEBUG_VALUE: parse_zone:p <- $r13
	.loc	0 876 9 is_stmt 1               # x264_src/encoder/ratecontrol.c:876:9
	movl	$0, 12(%rsp)
.Ltmp547:
	#DEBUG_VALUE: parse_zone:len <- [DW_OP_plus_uconst 12, DW_OP_deref] $rsp
	#DEBUG_VALUE: parse_zone:saveptr <- 0
	.loc	0 878 14                        # x264_src/encoder/ratecontrol.c:878:14
	movq	$0, 24(%r14,%rbx)
	.loc	0 879 25                        # x264_src/encoder/ratecontrol.c:879:25
	movl	$1065353216, 16(%r14,%rbx)      # imm = 0x3F800000
.Ltmp548:
	.loc	0 880 57                        # x264_src/encoder/ratecontrol.c:880:57
	leaq	4(%r14,%rbx), %rcx
	.loc	0 880 68 is_stmt 0              # x264_src/encoder/ratecontrol.c:880:68
	leaq	12(%r14,%rbx), %r8
	.loc	0 880 14                        # x264_src/encoder/ratecontrol.c:880:14
	movl	$.L.str.77, %esi
	movq	%r13, %rdi
	movq	%r12, %rdx
	movq	%rcx, 32(%rsp)                  # 8-byte Spill
	movq	%rbp, %r9
	xorl	%eax, %eax
	callq	__isoc99_sscanf@PLT
.Ltmp549:
	.loc	0 0 14                          # x264_src/encoder/ratecontrol.c:0:14
	movq	%rbp, %r9
	movl	$1, %ebp
	.loc	0 880 11                        # x264_src/encoder/ratecontrol.c:880:11
	cmpl	$2, %eax
.Ltmp550:
	.loc	0 880 9                         # x264_src/encoder/ratecontrol.c:880:9
	jg	.LBB4_50
.Ltmp551:
# %bb.46:                               # %if.else.i.i
                                        #   in Loop: Header=BB4_45 Depth=1
	#DEBUG_VALUE: x264_ratecontrol_new:h <- [DW_OP_plus_uconst 16] [$rsp+0]
	#DEBUG_VALUE: x264_ratecontrol_new:rc <- $r15
	#DEBUG_VALUE: parse_zones:h <- [DW_OP_plus_uconst 16, DW_OP_deref] $rsp
	#DEBUG_VALUE: parse_zones:rc <- [DW_OP_plus_uconst 80, DW_OP_deref] $rsp
	#DEBUG_VALUE: psz_zones <- [DW_OP_plus_uconst 72, DW_OP_deref] $rsp
	#DEBUG_VALUE: p <- $r13
	#DEBUG_VALUE: i <- [DW_OP_plus_uconst 24, DW_OP_deref_size 8, DW_OP_stack_value] $rsp
	#DEBUG_VALUE: i_tok <- [DW_OP_plus_uconst 40, DW_OP_deref_size 8, DW_OP_LLVM_convert 64 7, DW_OP_LLVM_convert 32 7, DW_OP_stack_value] $rsp
	#DEBUG_VALUE: parse_zone:z <- $r12
	#DEBUG_VALUE: parse_zone:len <- [DW_OP_plus_uconst 12, DW_OP_deref] $rsp
	#DEBUG_VALUE: parse_zone:h <- [DW_OP_plus_uconst 16, DW_OP_deref] $rsp
	#DEBUG_VALUE: parse_zone:p <- $r13
	#DEBUG_VALUE: parse_zone:saveptr <- 0
	.loc	0 0 0                           # x264_src/encoder/ratecontrol.c:0:0
	leaq	(%r14,%rbx), %r8
	addq	$16, %r8
	xorl	%ebp, %ebp
.Ltmp552:
	.loc	0 882 19 is_stmt 1              # x264_src/encoder/ratecontrol.c:882:19
	movl	$.L.str.78, %esi
	movq	%r13, %rdi
	movq	%r12, %rdx
	movq	32(%rsp), %rcx                  # 8-byte Reload
	movq	%r9, %rbx
	xorl	%eax, %eax
	callq	__isoc99_sscanf@PLT
.Ltmp553:
	.loc	0 0 19 is_stmt 0                # x264_src/encoder/ratecontrol.c:0:19
	movq	%rbx, %r9
	.loc	0 882 16                        # x264_src/encoder/ratecontrol.c:882:16
	cmpl	$2, %eax
.Ltmp554:
	.loc	0 882 14                        # x264_src/encoder/ratecontrol.c:882:14
	jg	.LBB4_50
.Ltmp555:
# %bb.47:                               # %if.else8.i.i
                                        #   in Loop: Header=BB4_45 Depth=1
	#DEBUG_VALUE: x264_ratecontrol_new:h <- [DW_OP_plus_uconst 16] [$rsp+0]
	#DEBUG_VALUE: x264_ratecontrol_new:rc <- $r15
	#DEBUG_VALUE: parse_zones:h <- [DW_OP_plus_uconst 16, DW_OP_deref] $rsp
	#DEBUG_VALUE: parse_zones:rc <- [DW_OP_plus_uconst 80, DW_OP_deref] $rsp
	#DEBUG_VALUE: psz_zones <- [DW_OP_plus_uconst 72, DW_OP_deref] $rsp
	#DEBUG_VALUE: p <- $r13
	#DEBUG_VALUE: i <- [DW_OP_plus_uconst 24, DW_OP_deref_size 8, DW_OP_stack_value] $rsp
	#DEBUG_VALUE: i_tok <- [DW_OP_plus_uconst 40, DW_OP_deref_size 8, DW_OP_LLVM_convert 64 7, DW_OP_LLVM_convert 32 7, DW_OP_stack_value] $rsp
	#DEBUG_VALUE: parse_zone:z <- $r12
	#DEBUG_VALUE: parse_zone:len <- [DW_OP_plus_uconst 12, DW_OP_deref] $rsp
	#DEBUG_VALUE: parse_zone:h <- [DW_OP_plus_uconst 16, DW_OP_deref] $rsp
	#DEBUG_VALUE: parse_zone:p <- $r13
	#DEBUG_VALUE: parse_zone:saveptr <- 0
	.loc	0 0 14                          # x264_src/encoder/ratecontrol.c:0:14
	xorl	%ebp, %ebp
.Ltmp556:
	.loc	0 884 20 is_stmt 1              # x264_src/encoder/ratecontrol.c:884:20
	movl	$.L.str.79, %esi
	movq	%r13, %rdi
	movq	%r12, %rdx
	movq	32(%rsp), %rcx                  # 8-byte Reload
	movq	%r9, %r8
	xorl	%eax, %eax
	callq	__isoc99_sscanf@PLT
.Ltmp557:
	.loc	0 0 20 is_stmt 0                # x264_src/encoder/ratecontrol.c:0:20
	movq	%rbx, %r9
	.loc	0 884 16                        # x264_src/encoder/ratecontrol.c:884:16
	cmpl	$1, %eax
.Ltmp558:
	.loc	0 884 14                        # x264_src/encoder/ratecontrol.c:884:14
	jle	.LBB4_48
.Ltmp559:
.LBB4_50:                               # %if.end17.i.i
                                        #   in Loop: Header=BB4_45 Depth=1
	#DEBUG_VALUE: x264_ratecontrol_new:h <- [DW_OP_plus_uconst 16] [$rsp+0]
	#DEBUG_VALUE: x264_ratecontrol_new:rc <- $r15
	#DEBUG_VALUE: parse_zones:h <- [DW_OP_plus_uconst 16, DW_OP_deref] $rsp
	#DEBUG_VALUE: parse_zones:rc <- [DW_OP_plus_uconst 80, DW_OP_deref] $rsp
	#DEBUG_VALUE: psz_zones <- [DW_OP_plus_uconst 72, DW_OP_deref] $rsp
	#DEBUG_VALUE: p <- $r13
	#DEBUG_VALUE: i <- [DW_OP_plus_uconst 24, DW_OP_deref_size 8, DW_OP_stack_value] $rsp
	#DEBUG_VALUE: i_tok <- [DW_OP_plus_uconst 40, DW_OP_deref_size 8, DW_OP_LLVM_convert 64 7, DW_OP_LLVM_convert 32 7, DW_OP_stack_value] $rsp
	#DEBUG_VALUE: parse_zone:z <- $r12
	#DEBUG_VALUE: parse_zone:len <- [DW_OP_plus_uconst 12, DW_OP_deref] $rsp
	#DEBUG_VALUE: parse_zone:h <- [DW_OP_plus_uconst 16, DW_OP_deref] $rsp
	#DEBUG_VALUE: parse_zone:p <- $r13
	#DEBUG_VALUE: parse_zone:saveptr <- 0
	.loc	0 0 14                          # x264_src/encoder/ratecontrol.c:0:14
	movq	%r9, %r14
	movl	%ebp, 8(%r12)
.Ltmp560:
	.loc	0 891 10 is_stmt 1              # x264_src/encoder/ratecontrol.c:891:10
	movslq	12(%rsp), %rbx
.Ltmp561:
	#DEBUG_VALUE: parse_zone:p <- undef
	.loc	0 892 10                        # x264_src/encoder/ratecontrol.c:892:10
	cmpb	$0, (%r13,%rbx)
.Ltmp562:
	.loc	0 892 9 is_stmt 0               # x264_src/encoder/ratecontrol.c:892:9
	je	.LBB4_64
.Ltmp563:
# %bb.51:                               # %do.body.i.i
                                        #   in Loop: Header=BB4_45 Depth=1
	#DEBUG_VALUE: x264_ratecontrol_new:h <- [DW_OP_plus_uconst 16] [$rsp+0]
	#DEBUG_VALUE: x264_ratecontrol_new:rc <- $r15
	#DEBUG_VALUE: parse_zones:h <- [DW_OP_plus_uconst 16, DW_OP_deref] $rsp
	#DEBUG_VALUE: parse_zones:rc <- [DW_OP_plus_uconst 80, DW_OP_deref] $rsp
	#DEBUG_VALUE: psz_zones <- [DW_OP_plus_uconst 72, DW_OP_deref] $rsp
	#DEBUG_VALUE: p <- $r13
	#DEBUG_VALUE: i <- [DW_OP_plus_uconst 24, DW_OP_deref_size 8, DW_OP_stack_value] $rsp
	#DEBUG_VALUE: i_tok <- [DW_OP_plus_uconst 40, DW_OP_deref_size 8, DW_OP_LLVM_convert 64 7, DW_OP_LLVM_convert 32 7, DW_OP_stack_value] $rsp
	#DEBUG_VALUE: parse_zone:z <- $r12
	#DEBUG_VALUE: parse_zone:len <- [DW_OP_plus_uconst 12, DW_OP_deref] $rsp
	#DEBUG_VALUE: parse_zone:h <- [DW_OP_plus_uconst 16, DW_OP_deref] $rsp
	#DEBUG_VALUE: parse_zone:saveptr <- 0
	.loc	0 894 5 is_stmt 1               # x264_src/encoder/ratecontrol.c:894:5
	movl	$704, %edi                      # imm = 0x2C0
	callq	x264_malloc@PLT
.Ltmp564:
	movq	%rax, 24(%r12)
.Ltmp565:
	.loc	0 894 5 is_stmt 0               # x264_src/encoder/ratecontrol.c:894:5
	testq	%rax, %rax
.Ltmp566:
	.loc	0 894 5                         # x264_src/encoder/ratecontrol.c:894:5
	je	.LBB4_49
.Ltmp567:
# %bb.52:                               # %do.end.i.i
                                        #   in Loop: Header=BB4_45 Depth=1
	#DEBUG_VALUE: x264_ratecontrol_new:h <- [DW_OP_plus_uconst 16] [$rsp+0]
	#DEBUG_VALUE: x264_ratecontrol_new:rc <- $r15
	#DEBUG_VALUE: parse_zones:h <- [DW_OP_plus_uconst 16, DW_OP_deref] $rsp
	#DEBUG_VALUE: parse_zones:rc <- [DW_OP_plus_uconst 80, DW_OP_deref] $rsp
	#DEBUG_VALUE: psz_zones <- [DW_OP_plus_uconst 72, DW_OP_deref] $rsp
	#DEBUG_VALUE: p <- $r13
	#DEBUG_VALUE: i <- [DW_OP_plus_uconst 24, DW_OP_deref_size 8, DW_OP_stack_value] $rsp
	#DEBUG_VALUE: i_tok <- [DW_OP_plus_uconst 40, DW_OP_deref_size 8, DW_OP_LLVM_convert 64 7, DW_OP_LLVM_convert 32 7, DW_OP_stack_value] $rsp
	#DEBUG_VALUE: parse_zone:z <- $r12
	#DEBUG_VALUE: parse_zone:len <- [DW_OP_plus_uconst 12, DW_OP_deref] $rsp
	#DEBUG_VALUE: parse_zone:h <- [DW_OP_plus_uconst 16, DW_OP_deref] $rsp
	#DEBUG_VALUE: parse_zone:saveptr <- 0
	.loc	0 0 0                           # x264_src/encoder/ratecontrol.c:0:0
	addq	%r13, %rbx
.Ltmp568:
	#DEBUG_VALUE: parse_zone:p <- $rbx
	.loc	0 895 5 is_stmt 1               # x264_src/encoder/ratecontrol.c:895:5
	movl	$704, %edx                      # imm = 0x2C0
	movq	%rax, %rdi
	movq	16(%rsp), %rsi                  # 8-byte Reload
	callq	memcpy@PLT
.Ltmp569:
	.loc	0 896 8                         # x264_src/encoder/ratecontrol.c:896:8
	movq	24(%r12), %rax
	.loc	0 896 26 is_stmt 0              # x264_src/encoder/ratecontrol.c:896:26
	movq	x264_free@GOTPCREL(%rip), %rcx
	movq	%rcx, 696(%rax)
	#DEBUG_VALUE: parse_zone:p <- $rbx
	.loc	0 898 19 is_stmt 1              # x264_src/encoder/ratecontrol.c:898:19
	movl	$.L.str.81, %esi
	movq	%rbx, %rdi
	callq	strtok@PLT
.Ltmp570:
	#DEBUG_VALUE: parse_zone:tok <- $rax
	.loc	0 898 5 is_stmt 0               # x264_src/encoder/ratecontrol.c:898:5
	testq	%rax, %rax
	je	.LBB4_64
.Ltmp571:
# %bb.53:                               # %while.body.peel.i.i
                                        #   in Loop: Header=BB4_45 Depth=1
	#DEBUG_VALUE: x264_ratecontrol_new:h <- [DW_OP_plus_uconst 16] [$rsp+0]
	#DEBUG_VALUE: x264_ratecontrol_new:rc <- $r15
	#DEBUG_VALUE: parse_zones:h <- [DW_OP_plus_uconst 16, DW_OP_deref] $rsp
	#DEBUG_VALUE: parse_zones:rc <- [DW_OP_plus_uconst 80, DW_OP_deref] $rsp
	#DEBUG_VALUE: psz_zones <- [DW_OP_plus_uconst 72, DW_OP_deref] $rsp
	#DEBUG_VALUE: p <- $r13
	#DEBUG_VALUE: i <- [DW_OP_plus_uconst 24, DW_OP_deref_size 8, DW_OP_stack_value] $rsp
	#DEBUG_VALUE: i_tok <- [DW_OP_plus_uconst 40, DW_OP_deref_size 8, DW_OP_LLVM_convert 64 7, DW_OP_LLVM_convert 32 7, DW_OP_stack_value] $rsp
	#DEBUG_VALUE: parse_zone:z <- $r12
	#DEBUG_VALUE: parse_zone:len <- [DW_OP_plus_uconst 12, DW_OP_deref] $rsp
	#DEBUG_VALUE: parse_zone:h <- [DW_OP_plus_uconst 16, DW_OP_deref] $rsp
	#DEBUG_VALUE: parse_zone:p <- $rbx
	#DEBUG_VALUE: parse_zone:saveptr <- 0
	#DEBUG_VALUE: parse_zone:tok <- $rax
	.loc	0 0 0                           # x264_src/encoder/ratecontrol.c:0:0
	movq	%rax, %rbx
.Ltmp572:
	.loc	0 903 21 is_stmt 1              # x264_src/encoder/ratecontrol.c:903:21
	movq	%rax, %rdi
	movl	$61, %esi
	callq	strchr@PLT
.Ltmp573:
	#DEBUG_VALUE: parse_zone:tok <- $rbx
	#DEBUG_VALUE: val <- $rax
	.loc	0 904 13                        # x264_src/encoder/ratecontrol.c:904:13
	testq	%rax, %rax
.Ltmp574:
	.loc	0 904 13 is_stmt 0              # x264_src/encoder/ratecontrol.c:904:13
	je	.LBB4_54
.Ltmp575:
.LBB4_55:                               # %if.then33.peel.i.i
                                        #   in Loop: Header=BB4_45 Depth=1
	#DEBUG_VALUE: x264_ratecontrol_new:h <- [DW_OP_plus_uconst 16] [$rsp+0]
	#DEBUG_VALUE: x264_ratecontrol_new:rc <- $r15
	#DEBUG_VALUE: parse_zones:h <- [DW_OP_plus_uconst 16, DW_OP_deref] $rsp
	#DEBUG_VALUE: parse_zones:rc <- [DW_OP_plus_uconst 80, DW_OP_deref] $rsp
	#DEBUG_VALUE: psz_zones <- [DW_OP_plus_uconst 72, DW_OP_deref] $rsp
	#DEBUG_VALUE: p <- $r13
	#DEBUG_VALUE: i <- [DW_OP_plus_uconst 24, DW_OP_deref_size 8, DW_OP_stack_value] $rsp
	#DEBUG_VALUE: i_tok <- [DW_OP_plus_uconst 40, DW_OP_deref_size 8, DW_OP_LLVM_convert 64 7, DW_OP_LLVM_convert 32 7, DW_OP_stack_value] $rsp
	#DEBUG_VALUE: parse_zone:z <- $r12
	#DEBUG_VALUE: parse_zone:len <- [DW_OP_plus_uconst 12, DW_OP_deref] $rsp
	#DEBUG_VALUE: parse_zone:h <- [DW_OP_plus_uconst 16, DW_OP_deref] $rsp
	#DEBUG_VALUE: parse_zone:saveptr <- 0
	#DEBUG_VALUE: parse_zone:tok <- $rbx
	#DEBUG_VALUE: val <- $rax
	.loc	0 0 0                           # x264_src/encoder/ratecontrol.c:0:0
	movq	%rax, %rbp
.Ltmp576:
	.loc	0 906 18 is_stmt 1              # x264_src/encoder/ratecontrol.c:906:18
	movb	$0, (%rax)
	.loc	0 907 16                        # x264_src/encoder/ratecontrol.c:907:16
	incq	%rbp
.Ltmp577:
	#DEBUG_VALUE: val <- $rbp
.LBB4_56:                               # %if.end34.peel.i.i
                                        #   Parent Loop BB4_45 Depth=1
                                        # =>  This Inner Loop Header: Depth=2
	#DEBUG_VALUE: x264_ratecontrol_new:h <- [DW_OP_plus_uconst 16] [$rsp+0]
	#DEBUG_VALUE: x264_ratecontrol_new:rc <- $r15
	#DEBUG_VALUE: parse_zones:h <- [DW_OP_plus_uconst 16, DW_OP_deref] $rsp
	#DEBUG_VALUE: parse_zones:rc <- [DW_OP_plus_uconst 80, DW_OP_deref] $rsp
	#DEBUG_VALUE: psz_zones <- [DW_OP_plus_uconst 72, DW_OP_deref] $rsp
	#DEBUG_VALUE: p <- $r13
	#DEBUG_VALUE: i <- [DW_OP_plus_uconst 24, DW_OP_deref_size 8, DW_OP_stack_value] $rsp
	#DEBUG_VALUE: i_tok <- [DW_OP_plus_uconst 40, DW_OP_deref_size 8, DW_OP_LLVM_convert 64 7, DW_OP_LLVM_convert 32 7, DW_OP_stack_value] $rsp
	#DEBUG_VALUE: parse_zone:z <- $r12
	#DEBUG_VALUE: parse_zone:len <- [DW_OP_plus_uconst 12, DW_OP_deref] $rsp
	#DEBUG_VALUE: parse_zone:h <- [DW_OP_plus_uconst 16, DW_OP_deref] $rsp
	#DEBUG_VALUE: parse_zone:saveptr <- 0
	#DEBUG_VALUE: parse_zone:tok <- $rbx
	#DEBUG_VALUE: val <- $rbp
	.loc	0 909 34                        # x264_src/encoder/ratecontrol.c:909:34
	movq	24(%r12), %rdi
	.loc	0 909 13 is_stmt 0              # x264_src/encoder/ratecontrol.c:909:13
	movq	%rbx, %rsi
	movq	%rbp, %rdx
	callq	x264_param_parse@PLT
.Ltmp578:
	testl	%eax, %eax
.Ltmp579:
	.loc	0 909 13                        # x264_src/encoder/ratecontrol.c:909:13
	jne	.LBB4_60
.Ltmp580:
# %bb.57:                               # %while.cond.i.i
                                        #   in Loop: Header=BB4_56 Depth=2
	#DEBUG_VALUE: x264_ratecontrol_new:h <- [DW_OP_plus_uconst 16] [$rsp+0]
	#DEBUG_VALUE: x264_ratecontrol_new:rc <- $r15
	#DEBUG_VALUE: parse_zones:h <- [DW_OP_plus_uconst 16, DW_OP_deref] $rsp
	#DEBUG_VALUE: parse_zones:rc <- [DW_OP_plus_uconst 80, DW_OP_deref] $rsp
	#DEBUG_VALUE: psz_zones <- [DW_OP_plus_uconst 72, DW_OP_deref] $rsp
	#DEBUG_VALUE: p <- $r13
	#DEBUG_VALUE: i <- [DW_OP_plus_uconst 24, DW_OP_deref_size 8, DW_OP_stack_value] $rsp
	#DEBUG_VALUE: i_tok <- [DW_OP_plus_uconst 40, DW_OP_deref_size 8, DW_OP_LLVM_convert 64 7, DW_OP_LLVM_convert 32 7, DW_OP_stack_value] $rsp
	#DEBUG_VALUE: parse_zone:z <- $r12
	#DEBUG_VALUE: parse_zone:len <- [DW_OP_plus_uconst 12, DW_OP_deref] $rsp
	#DEBUG_VALUE: parse_zone:h <- [DW_OP_plus_uconst 16, DW_OP_deref] $rsp
	#DEBUG_VALUE: parse_zone:saveptr <- 0
	#DEBUG_VALUE: parse_zone:tok <- $rbx
	#DEBUG_VALUE: parse_zone:p <- 0
	.loc	0 898 19 is_stmt 1              # x264_src/encoder/ratecontrol.c:898:19
	movl	$.L.str.81, %esi
	xorl	%edi, %edi
	callq	strtok@PLT
.Ltmp581:
	#DEBUG_VALUE: parse_zone:tok <- $rax
	.loc	0 898 5 is_stmt 0               # x264_src/encoder/ratecontrol.c:898:5
	testq	%rax, %rax
	je	.LBB4_64
.Ltmp582:
# %bb.58:                               # %while.body.i.i
                                        #   in Loop: Header=BB4_56 Depth=2
	#DEBUG_VALUE: x264_ratecontrol_new:h <- [DW_OP_plus_uconst 16] [$rsp+0]
	#DEBUG_VALUE: x264_ratecontrol_new:rc <- $r15
	#DEBUG_VALUE: parse_zones:h <- [DW_OP_plus_uconst 16, DW_OP_deref] $rsp
	#DEBUG_VALUE: parse_zones:rc <- [DW_OP_plus_uconst 80, DW_OP_deref] $rsp
	#DEBUG_VALUE: psz_zones <- [DW_OP_plus_uconst 72, DW_OP_deref] $rsp
	#DEBUG_VALUE: p <- $r13
	#DEBUG_VALUE: i <- [DW_OP_plus_uconst 24, DW_OP_deref_size 8, DW_OP_stack_value] $rsp
	#DEBUG_VALUE: i_tok <- [DW_OP_plus_uconst 40, DW_OP_deref_size 8, DW_OP_LLVM_convert 64 7, DW_OP_LLVM_convert 32 7, DW_OP_stack_value] $rsp
	#DEBUG_VALUE: parse_zone:z <- $r12
	#DEBUG_VALUE: parse_zone:len <- [DW_OP_plus_uconst 12, DW_OP_deref] $rsp
	#DEBUG_VALUE: parse_zone:h <- [DW_OP_plus_uconst 16, DW_OP_deref] $rsp
	#DEBUG_VALUE: parse_zone:p <- 0
	#DEBUG_VALUE: parse_zone:saveptr <- 0
	#DEBUG_VALUE: parse_zone:tok <- $rax
	.loc	0 0 0                           # x264_src/encoder/ratecontrol.c:0:0
	movq	%rax, %rbx
.Ltmp583:
	.loc	0 903 21 is_stmt 1              # x264_src/encoder/ratecontrol.c:903:21
	movq	%rax, %rdi
	movl	$61, %esi
	callq	strchr@PLT
.Ltmp584:
	#DEBUG_VALUE: parse_zone:tok <- $rbx
	#DEBUG_VALUE: val <- $rax
	.loc	0 904 13                        # x264_src/encoder/ratecontrol.c:904:13
	testq	%rax, %rax
.Ltmp585:
	.loc	0 904 13 is_stmt 0              # x264_src/encoder/ratecontrol.c:904:13
	jne	.LBB4_55
.Ltmp586:
# %bb.59:                               #   in Loop: Header=BB4_56 Depth=2
	#DEBUG_VALUE: x264_ratecontrol_new:h <- [DW_OP_plus_uconst 16] [$rsp+0]
	#DEBUG_VALUE: x264_ratecontrol_new:rc <- $r15
	#DEBUG_VALUE: parse_zones:h <- [DW_OP_plus_uconst 16, DW_OP_deref] $rsp
	#DEBUG_VALUE: parse_zones:rc <- [DW_OP_plus_uconst 80, DW_OP_deref] $rsp
	#DEBUG_VALUE: psz_zones <- [DW_OP_plus_uconst 72, DW_OP_deref] $rsp
	#DEBUG_VALUE: p <- $r13
	#DEBUG_VALUE: i <- [DW_OP_plus_uconst 24, DW_OP_deref_size 8, DW_OP_stack_value] $rsp
	#DEBUG_VALUE: i_tok <- [DW_OP_plus_uconst 40, DW_OP_deref_size 8, DW_OP_LLVM_convert 64 7, DW_OP_LLVM_convert 32 7, DW_OP_stack_value] $rsp
	#DEBUG_VALUE: parse_zone:z <- $r12
	#DEBUG_VALUE: parse_zone:len <- [DW_OP_plus_uconst 12, DW_OP_deref] $rsp
	#DEBUG_VALUE: parse_zone:h <- [DW_OP_plus_uconst 16, DW_OP_deref] $rsp
	#DEBUG_VALUE: parse_zone:p <- 0
	#DEBUG_VALUE: parse_zone:saveptr <- 0
	#DEBUG_VALUE: parse_zone:tok <- $rbx
	#DEBUG_VALUE: val <- $rax
	.loc	0 0 13                          # x264_src/encoder/ratecontrol.c:0:13
	xorl	%ebp, %ebp
	.loc	0 904 13                        # x264_src/encoder/ratecontrol.c:904:13
	jmp	.LBB4_56
.Ltmp587:
.LBB4_54:                               #   in Loop: Header=BB4_45 Depth=1
	#DEBUG_VALUE: x264_ratecontrol_new:h <- [DW_OP_plus_uconst 16] [$rsp+0]
	#DEBUG_VALUE: x264_ratecontrol_new:rc <- $r15
	#DEBUG_VALUE: parse_zones:h <- [DW_OP_plus_uconst 16, DW_OP_deref] $rsp
	#DEBUG_VALUE: parse_zones:rc <- [DW_OP_plus_uconst 80, DW_OP_deref] $rsp
	#DEBUG_VALUE: psz_zones <- [DW_OP_plus_uconst 72, DW_OP_deref] $rsp
	#DEBUG_VALUE: p <- $r13
	#DEBUG_VALUE: i <- [DW_OP_plus_uconst 24, DW_OP_deref_size 8, DW_OP_stack_value] $rsp
	#DEBUG_VALUE: i_tok <- [DW_OP_plus_uconst 40, DW_OP_deref_size 8, DW_OP_LLVM_convert 64 7, DW_OP_LLVM_convert 32 7, DW_OP_stack_value] $rsp
	#DEBUG_VALUE: parse_zone:z <- $r12
	#DEBUG_VALUE: parse_zone:len <- [DW_OP_plus_uconst 12, DW_OP_deref] $rsp
	#DEBUG_VALUE: parse_zone:h <- [DW_OP_plus_uconst 16, DW_OP_deref] $rsp
	#DEBUG_VALUE: parse_zone:saveptr <- 0
	#DEBUG_VALUE: parse_zone:tok <- $rbx
	#DEBUG_VALUE: val <- $rax
	.loc	0 0 13                          # x264_src/encoder/ratecontrol.c:0:13
	xorl	%ebp, %ebp
	.loc	0 904 13                        # x264_src/encoder/ratecontrol.c:904:13
	jmp	.LBB4_56
.Ltmp588:
.LBB4_60:                               # %cleanup64.i
	#DEBUG_VALUE: x264_ratecontrol_new:h <- [DW_OP_plus_uconst 16] [$rsp+0]
	#DEBUG_VALUE: x264_ratecontrol_new:rc <- $r15
	#DEBUG_VALUE: parse_zones:h <- [DW_OP_plus_uconst 16, DW_OP_deref] $rsp
	#DEBUG_VALUE: parse_zones:rc <- [DW_OP_plus_uconst 80, DW_OP_deref] $rsp
	#DEBUG_VALUE: psz_zones <- [DW_OP_plus_uconst 72, DW_OP_deref] $rsp
	#DEBUG_VALUE: p <- $r13
	#DEBUG_VALUE: i <- [DW_OP_plus_uconst 24, DW_OP_deref_size 8, DW_OP_stack_value] $rsp
	#DEBUG_VALUE: i_tok <- [DW_OP_plus_uconst 40, DW_OP_deref_size 8, DW_OP_LLVM_convert 64 7, DW_OP_LLVM_convert 32 7, DW_OP_stack_value] $rsp
	#DEBUG_VALUE: parse_zone:z <- $r12
	#DEBUG_VALUE: parse_zone:len <- [DW_OP_plus_uconst 12, DW_OP_deref] $rsp
	#DEBUG_VALUE: parse_zone:h <- [DW_OP_plus_uconst 16, DW_OP_deref] $rsp
	#DEBUG_VALUE: parse_zone:saveptr <- 0
	#DEBUG_VALUE: parse_zone:tok <- $rbx
	#DEBUG_VALUE: val <- $rbp
	.loc	0 911 13 is_stmt 1              # x264_src/encoder/ratecontrol.c:911:13
	movl	$.L.str.82, %edx
	movq	16(%rsp), %r12                  # 8-byte Reload
.Ltmp589:
	movq	%r12, %rdi
	xorl	%esi, %esi
	movq	%rbx, %rcx
	movq	%rbp, %r8
	xorl	%eax, %eax
	callq	x264_log@PLT
.Ltmp590:
	#DEBUG_VALUE: parse_zone:p <- undef
	#DEBUG_VALUE: p <- undef
	.loc	0 0 13 is_stmt 0                # x264_src/encoder/ratecontrol.c:0:13
	movl	$-1, %ebp
.Ltmp591:
.LBB4_61:                               # %if.then279
	#DEBUG_VALUE: x264_ratecontrol_new:h <- [DW_OP_plus_uconst 16] [$rsp+0]
	#DEBUG_VALUE: x264_ratecontrol_new:rc <- $r15
	.loc	0 588 9 is_stmt 1               # x264_src/encoder/ratecontrol.c:588:9
	movl	$.L.str.7, %edx
.Ltmp592:
.LBB4_62:                               # %cleanup873
	#DEBUG_VALUE: x264_ratecontrol_new:h <- [DW_OP_plus_uconst 16] [$rsp+0]
	#DEBUG_VALUE: x264_ratecontrol_new:rc <- $r15
	.loc	0 0 0 is_stmt 0                 # x264_src/encoder/ratecontrol.c:0:0
	movq	%r12, %rdi
.Ltmp593:
.LBB4_63:                               # %cleanup873
	#DEBUG_VALUE: x264_ratecontrol_new:h <- $rdi
	#DEBUG_VALUE: x264_ratecontrol_new:rc <- $r15
	xorl	%esi, %esi
	xorl	%eax, %eax
	callq	x264_log@PLT
.Ltmp594:
	#DEBUG_VALUE: x264_ratecontrol_new:h <- [DW_OP_LLVM_entry_value 1] $rdi
.LBB4_245:                              # %cleanup873
	#DEBUG_VALUE: x264_ratecontrol_new:h <- [DW_OP_LLVM_entry_value 1] $rdi
	.loc	0 872 1 is_stmt 1               # x264_src/encoder/ratecontrol.c:872:1
	movl	%ebp, %eax
	.loc	0 872 1 epilogue_begin is_stmt 0 # x264_src/encoder/ratecontrol.c:872:1
	addq	$104, %rsp
	.cfi_def_cfa_offset 56
	popq	%rbx
	.cfi_def_cfa_offset 48
	popq	%r12
	.cfi_def_cfa_offset 40
	popq	%r13
	.cfi_def_cfa_offset 32
	popq	%r14
	.cfi_def_cfa_offset 24
	popq	%r15
	.cfi_def_cfa_offset 16
	popq	%rbp
	.cfi_def_cfa_offset 8
	retq
.Ltmp595:
.LBB4_65:                               # %cleanup67.i
	.cfi_def_cfa_offset 160
	#DEBUG_VALUE: x264_ratecontrol_new:h <- [DW_OP_plus_uconst 16] [$rsp+0]
	#DEBUG_VALUE: x264_ratecontrol_new:rc <- $r15
	#DEBUG_VALUE: parse_zones:h <- [DW_OP_plus_uconst 16, DW_OP_deref] $rsp
	#DEBUG_VALUE: parse_zones:rc <- [DW_OP_plus_uconst 80, DW_OP_deref] $rsp
	#DEBUG_VALUE: psz_zones <- [DW_OP_plus_uconst 72, DW_OP_deref] $rsp
	.loc	0 0 1                           # x264_src/encoder/ratecontrol.c:0:1
	movq	72(%rsp), %rdi                  # 8-byte Reload
.Ltmp596:
	.loc	0 942 9 is_stmt 1               # x264_src/encoder/ratecontrol.c:942:9
	callq	x264_free@PLT
.Ltmp597:
	.loc	0 0 9 is_stmt 0                 # x264_src/encoder/ratecontrol.c:0:9
	movq	80(%rsp), %rbx                  # 8-byte Reload
.Ltmp598:
	.loc	0 945 21 is_stmt 1              # x264_src/encoder/ratecontrol.c:945:21
	movslq	616(%r12), %rdi
	testq	%rdi, %rdi
	movl	$-1, %ebp
.Ltmp599:
	.loc	0 945 9 is_stmt 0               # x264_src/encoder/ratecontrol.c:945:9
	jg	.LBB4_67
.Ltmp600:
.LBB4_82:                               # %if.end280
	#DEBUG_VALUE: x264_ratecontrol_new:h <- [DW_OP_plus_uconst 16] [$rsp+0]
	#DEBUG_VALUE: x264_ratecontrol_new:rc <- $r15
	.loc	0 593 9 is_stmt 1               # x264_src/encoder/ratecontrol.c:593:9
	cmpl	$0, 576(%r12)
.Ltmp601:
	.loc	0 593 9 is_stmt 0               # x264_src/encoder/ratecontrol.c:593:9
	je	.LBB4_222
.Ltmp602:
# %bb.83:                               # %if.then285
	#DEBUG_VALUE: x264_ratecontrol_new:h <- [DW_OP_plus_uconst 16] [$rsp+0]
	#DEBUG_VALUE: x264_ratecontrol_new:rc <- $r15
	.loc	0 598 9 is_stmt 1               # x264_src/encoder/ratecontrol.c:598:9
	movq	584(%r12), %rdi
	testq	%rdi, %rdi
	je	.LBB4_84
.Ltmp603:
# %bb.86:                               # %cond.end291
	#DEBUG_VALUE: x264_ratecontrol_new:h <- [DW_OP_plus_uconst 16] [$rsp+0]
	#DEBUG_VALUE: x264_ratecontrol_new:rc <- $r15
	.loc	0 599 32                        # x264_src/encoder/ratecontrol.c:599:32
	callq	x264_slurp_file@PLT
.Ltmp604:
	#DEBUG_VALUE: stats_in <- $rax
	#DEBUG_VALUE: stats_buf <- $rax
	.loc	0 600 14                        # x264_src/encoder/ratecontrol.c:600:14
	testq	%rax, %rax
.Ltmp605:
	.loc	0 600 13 is_stmt 0              # x264_src/encoder/ratecontrol.c:600:13
	je	.LBB4_87
.Ltmp606:
# %bb.88:                               # %if.end298
	#DEBUG_VALUE: x264_ratecontrol_new:h <- [DW_OP_plus_uconst 16] [$rsp+0]
	#DEBUG_VALUE: x264_ratecontrol_new:rc <- $r15
	#DEBUG_VALUE: stats_in <- $rax
	#DEBUG_VALUE: stats_buf <- $rax
	.loc	0 0 0                           # x264_src/encoder/ratecontrol.c:0:0
	movq	%rax, %r14
.Ltmp607:
	.loc	0 605 13 is_stmt 1              # x264_src/encoder/ratecontrol.c:605:13
	cmpl	$0, 552(%r12)
.Ltmp608:
	.loc	0 605 13 is_stmt 0              # x264_src/encoder/ratecontrol.c:605:13
	je	.LBB4_92
.Ltmp609:
# %bb.89:                               # %if.then303
	#DEBUG_VALUE: x264_ratecontrol_new:h <- [DW_OP_plus_uconst 16] [$rsp+0]
	#DEBUG_VALUE: x264_ratecontrol_new:rc <- $r15
	#DEBUG_VALUE: stats_in <- $r14
	#DEBUG_VALUE: stats_buf <- $r14
	.loc	0 607 71 is_stmt 1              # x264_src/encoder/ratecontrol.c:607:71
	movq	584(%r12), %r12
.Ltmp610:
	#DEBUG_VALUE: x264_strcat_filename:input <- $r12
	.loc	0 376 33                        # x264_src/encoder/ratecontrol.c:376:33
	movq	%r12, %rdi
	callq	strlen@PLT
.Ltmp611:
	leal	8(%rax), %edi
	.loc	0 376 20 is_stmt 0              # x264_src/encoder/ratecontrol.c:376:20
	callq	x264_malloc@PLT
.Ltmp612:
	#DEBUG_VALUE: x264_strcat_filename:output <- $rax
	.loc	0 377 10 is_stmt 1              # x264_src/encoder/ratecontrol.c:377:10
	testq	%rax, %rax
.Ltmp613:
	#DEBUG_VALUE: x264_strcat_filename:suffix <- undef
	.loc	0 377 9 is_stmt 0               # x264_src/encoder/ratecontrol.c:377:9
	je	.LBB4_245
.Ltmp614:
# %bb.90:                               # %if.end310
	#DEBUG_VALUE: x264_ratecontrol_new:h <- [DW_OP_plus_uconst 16] [$rsp+0]
	#DEBUG_VALUE: x264_ratecontrol_new:rc <- $r15
	#DEBUG_VALUE: stats_in <- $r14
	#DEBUG_VALUE: stats_buf <- $r14
	#DEBUG_VALUE: x264_strcat_filename:input <- $r12
	#DEBUG_VALUE: x264_strcat_filename:output <- $rax
	.loc	0 0 0                           # x264_src/encoder/ratecontrol.c:0:0
	movq	%rax, %rbx
	.loc	0 379 5 is_stmt 1               # x264_src/encoder/ratecontrol.c:379:5
	movq	%rax, %rdi
	movq	%r12, %rsi
	callq	strcpy@PLT
.Ltmp615:
	#DEBUG_VALUE: x264_strcat_filename:output <- $rbx
	.loc	0 380 5                         # x264_src/encoder/ratecontrol.c:380:5
	movq	%rbx, %rdi
	callq	strlen@PLT
.Ltmp616:
	.loc	0 0 5 is_stmt 0                 # x264_src/encoder/ratecontrol.c:0:5
	movabsq	$28540514901060910, %rcx        # imm = 0x65657274626D2E
	.loc	0 380 5                         # x264_src/encoder/ratecontrol.c:380:5
	movq	%rcx, (%rbx,%rax)
.Ltmp617:
	#DEBUG_VALUE: mbtree_stats_in <- $rbx
	.loc	0 610 41 is_stmt 1              # x264_src/encoder/ratecontrol.c:610:41
	movl	$.L.str.12, %esi
	movq	%rbx, %rdi
	callq	fopen@PLT
.Ltmp618:
	.loc	0 610 39 is_stmt 0              # x264_src/encoder/ratecontrol.c:610:39
	movq	%rax, 296(%r15)
	.loc	0 611 13 is_stmt 1              # x264_src/encoder/ratecontrol.c:611:13
	movq	%rbx, %rdi
	callq	x264_free@PLT
.Ltmp619:
	.loc	0 612 18                        # x264_src/encoder/ratecontrol.c:612:18
	cmpq	$0, 296(%r15)
	movq	16(%rsp), %r12                  # 8-byte Reload
.Ltmp620:
	.loc	0 612 17 is_stmt 0              # x264_src/encoder/ratecontrol.c:612:17
	je	.LBB4_91
.Ltmp621:
.LBB4_92:                               # %if.end316
	#DEBUG_VALUE: x264_ratecontrol_new:h <- [DW_OP_plus_uconst 16] [$rsp+0]
	#DEBUG_VALUE: x264_ratecontrol_new:rc <- $r15
	#DEBUG_VALUE: stats_in <- $r14
	#DEBUG_VALUE: stats_buf <- $r14
	.loc	0 620 14 is_stmt 1              # x264_src/encoder/ratecontrol.c:620:14
	movl	$.L.str.14, %esi
	movl	$9, %edx
	movq	%r14, %rdi
	callq	strncmp@PLT
.Ltmp622:
	.loc	0 0 14 is_stmt 0                # x264_src/encoder/ratecontrol.c:0:14
	movq	%r14, %r13
	.loc	0 620 14                        # x264_src/encoder/ratecontrol.c:620:14
	testl	%eax, %eax
.Ltmp623:
	.loc	0 620 13                        # x264_src/encoder/ratecontrol.c:620:13
	je	.LBB4_93
.Ltmp624:
.LBB4_147:                              # %if.end519
	#DEBUG_VALUE: x264_ratecontrol_new:h <- [DW_OP_plus_uconst 16] [$rsp+0]
	#DEBUG_VALUE: x264_ratecontrol_new:rc <- $r15
	#DEBUG_VALUE: stats_in <- $r13
	#DEBUG_VALUE: stats_buf <- $r14
	.loc	0 0 13                          # x264_src/encoder/ratecontrol.c:0:13
	xorl	%ebx, %ebx
	#DEBUG_VALUE: stats_in <- $r13
.Ltmp625:
	#DEBUG_VALUE: p <- $r13
	#DEBUG_VALUE: num_entries <- -1
	movq	%r13, %rax
.Ltmp626:
	.p2align	4, 0x90
.LBB4_148:                              # %for.body522
                                        # =>This Inner Loop Header: Depth=1
	#DEBUG_VALUE: x264_ratecontrol_new:h <- [DW_OP_plus_uconst 16] [$rsp+0]
	#DEBUG_VALUE: x264_ratecontrol_new:rc <- $r15
	#DEBUG_VALUE: stats_in <- $r13
	#DEBUG_VALUE: stats_buf <- $r14
	#DEBUG_VALUE: p <- $rax
	#DEBUG_VALUE: num_entries <- [DW_OP_consts 18446744073709551615, DW_OP_div, DW_OP_consts 18446744073709551615, DW_OP_plus, DW_OP_stack_value] $ebx
	#DEBUG_VALUE: p <- $rax
	.loc	0 685 27 is_stmt 1              # x264_src/encoder/ratecontrol.c:685:27
	incq	%rax
.Ltmp627:
	.loc	0 685 17 is_stmt 0              # x264_src/encoder/ratecontrol.c:685:17
	movq	%rax, %rdi
	movl	$59, %esi
	callq	strchr@PLT
.Ltmp628:
	#DEBUG_VALUE: p <- $rax
	.loc	0 684 9 is_stmt 1               # x264_src/encoder/ratecontrol.c:684:9
	decl	%ebx
.Ltmp629:
	#DEBUG_VALUE: num_entries <- [DW_OP_consts 18446744073709551615, DW_OP_div, DW_OP_stack_value] undef
	testq	%rax, %rax
	jne	.LBB4_148
.Ltmp630:
# %bb.149:                              # %for.end526
	#DEBUG_VALUE: x264_ratecontrol_new:h <- [DW_OP_plus_uconst 16] [$rsp+0]
	#DEBUG_VALUE: x264_ratecontrol_new:rc <- $r15
	#DEBUG_VALUE: stats_in <- $r13
	#DEBUG_VALUE: stats_buf <- $r14
	#DEBUG_VALUE: p <- $rax
	.loc	0 686 14                        # x264_src/encoder/ratecontrol.c:686:14
	cmpl	$-1, %ebx
.Ltmp631:
	.loc	0 686 13 is_stmt 0              # x264_src/encoder/ratecontrol.c:686:13
	je	.LBB4_150
.Ltmp632:
# %bb.153:                              # %if.end529
	#DEBUG_VALUE: x264_ratecontrol_new:h <- [DW_OP_plus_uconst 16] [$rsp+0]
	#DEBUG_VALUE: x264_ratecontrol_new:rc <- $r15
	#DEBUG_VALUE: stats_in <- $r13
	#DEBUG_VALUE: stats_buf <- $r14
	#DEBUG_VALUE: p <- $rax
	.loc	0 0 13                          # x264_src/encoder/ratecontrol.c:0:13
	movl	$-2, %eax
.Ltmp633:
	subl	%ebx, %eax
	notl	%ebx
	.loc	0 691 25 is_stmt 1              # x264_src/encoder/ratecontrol.c:691:25
	movl	%ebx, 304(%r15)
.Ltmp634:
	.loc	0 693 22                        # x264_src/encoder/ratecontrol.c:693:22
	movl	36(%r12), %ecx
	.loc	0 693 36 is_stmt 0              # x264_src/encoder/ratecontrol.c:693:36
	cmpl	%eax, %ecx
	setg	%al
	testl	%ecx, %ecx
	setle	%dl
	.loc	0 693 54                        # x264_src/encoder/ratecontrol.c:693:54
	orb	%al, %dl
	jne	.LBB4_155
.Ltmp635:
# %bb.154:                              # %if.then540
	#DEBUG_VALUE: x264_ratecontrol_new:h <- [DW_OP_plus_uconst 16] [$rsp+0]
	#DEBUG_VALUE: x264_ratecontrol_new:rc <- $r15
	#DEBUG_VALUE: stats_in <- $r13
	#DEBUG_VALUE: stats_buf <- $r14
	.loc	0 695 13 is_stmt 1              # x264_src/encoder/ratecontrol.c:695:13
	movl	$.L.str.47, %edx
	movq	%r12, %rdi
	movl	$1, %esi
	movl	%ebx, %r8d
	xorl	%eax, %eax
	callq	x264_log@PLT
.Ltmp636:
	.loc	0 698 22                        # x264_src/encoder/ratecontrol.c:698:22
	movl	36(%r12), %ecx
	.loc	0 698 42 is_stmt 0              # x264_src/encoder/ratecontrol.c:698:42
	movl	304(%r15), %ebx
.Ltmp637:
.LBB4_155:                              # %if.end544
	#DEBUG_VALUE: x264_ratecontrol_new:h <- [DW_OP_plus_uconst 16] [$rsp+0]
	#DEBUG_VALUE: x264_ratecontrol_new:rc <- $r15
	#DEBUG_VALUE: stats_in <- $r13
	#DEBUG_VALUE: stats_buf <- $r14
	.loc	0 698 36                        # x264_src/encoder/ratecontrol.c:698:36
	cmpl	%ebx, %ecx
.Ltmp638:
	.loc	0 698 13                        # x264_src/encoder/ratecontrol.c:698:13
	jle	.LBB4_157
.Ltmp639:
# %bb.156:                              # %if.then550
	#DEBUG_VALUE: x264_ratecontrol_new:h <- [DW_OP_plus_uconst 16] [$rsp+0]
	#DEBUG_VALUE: x264_ratecontrol_new:rc <- $r15
	#DEBUG_VALUE: stats_in <- $r13
	#DEBUG_VALUE: stats_buf <- $r14
	.loc	0 700 13 is_stmt 1              # x264_src/encoder/ratecontrol.c:700:13
	movl	$.L.str.48, %edx
	movq	%r12, %rdi
	xorl	%esi, %esi
	movl	%ebx, %r8d
.Ltmp640:
.LBB4_118:                              # %cleanup512.thread
	#DEBUG_VALUE: x264_ratecontrol_new:h <- [DW_OP_plus_uconst 16] [$rsp+0]
	#DEBUG_VALUE: x264_ratecontrol_new:rc <- $r15
	#DEBUG_VALUE: stats_buf <- $r14
	.loc	0 0 0 is_stmt 0                 # x264_src/encoder/ratecontrol.c:0:0
	xorl	%eax, %eax
	callq	x264_log@PLT
.Ltmp641:
	.loc	0 655 13 is_stmt 1              # x264_src/encoder/ratecontrol.c:655:13
	jmp	.LBB4_245
.Ltmp642:
.LBB4_87:                               # %if.then297
	#DEBUG_VALUE: x264_ratecontrol_new:h <- [DW_OP_plus_uconst 16] [$rsp+0]
	#DEBUG_VALUE: x264_ratecontrol_new:rc <- $r15
	#DEBUG_VALUE: stats_in <- $rax
	#DEBUG_VALUE: stats_buf <- $rax
	.loc	0 602 13                        # x264_src/encoder/ratecontrol.c:602:13
	movl	$.L.str.10, %edx
.Ltmp643:
	.loc	0 688 13                        # x264_src/encoder/ratecontrol.c:688:13
	jmp	.LBB4_62
.Ltmp644:
.LBB4_93:                               # %if.then319
	#DEBUG_VALUE: x264_ratecontrol_new:h <- [DW_OP_plus_uconst 16] [$rsp+0]
	#DEBUG_VALUE: x264_ratecontrol_new:rc <- $r15
	#DEBUG_VALUE: stats_in <- $r14
	#DEBUG_VALUE: stats_buf <- $r14
	#DEBUG_VALUE: opts <- $r14
	.loc	0 625 24                        # x264_src/encoder/ratecontrol.c:625:24
	movq	%r14, %rdi
	movl	$10, %esi
	callq	strchr@PLT
.Ltmp645:
	#DEBUG_VALUE: stats_in <- $rax
	.loc	0 626 18                        # x264_src/encoder/ratecontrol.c:626:18
	testq	%rax, %rax
.Ltmp646:
	.loc	0 626 17 is_stmt 0              # x264_src/encoder/ratecontrol.c:626:17
	je	.LBB4_245
.Ltmp647:
# %bb.94:                               # %if.end325
	#DEBUG_VALUE: x264_ratecontrol_new:h <- [DW_OP_plus_uconst 16] [$rsp+0]
	#DEBUG_VALUE: x264_ratecontrol_new:rc <- $r15
	#DEBUG_VALUE: stats_in <- $rax
	#DEBUG_VALUE: stats_buf <- $r14
	#DEBUG_VALUE: opts <- $r14
	.loc	0 0 17                          # x264_src/encoder/ratecontrol.c:0:17
	movq	%rax, %r13
	.loc	0 628 23 is_stmt 1              # x264_src/encoder/ratecontrol.c:628:23
	movb	$0, (%rax)
.Ltmp648:
	#DEBUG_VALUE: stats_in <- undef
	.loc	0 0 23 is_stmt 0                # x264_src/encoder/ratecontrol.c:0:23
	leaq	12(%rsp), %rdx
	leaq	60(%rsp), %rcx
.Ltmp649:
	.loc	0 630 17 is_stmt 1              # x264_src/encoder/ratecontrol.c:630:17
	movl	$.L.str.15, %esi
	movq	%r14, %rdi
	xorl	%eax, %eax
	callq	__isoc99_sscanf@PLT
.Ltmp650:
	.loc	0 630 59 is_stmt 0              # x264_src/encoder/ratecontrol.c:630:59
	cmpl	$2, %eax
.Ltmp651:
	.loc	0 630 17                        # x264_src/encoder/ratecontrol.c:630:17
	jne	.LBB4_95
.Ltmp652:
# %bb.96:                               # %if.else330
	#DEBUG_VALUE: x264_ratecontrol_new:h <- [DW_OP_plus_uconst 16] [$rsp+0]
	#DEBUG_VALUE: x264_ratecontrol_new:rc <- $r15
	#DEBUG_VALUE: stats_buf <- $r14
	#DEBUG_VALUE: opts <- $r14
	.loc	0 635 22 is_stmt 1              # x264_src/encoder/ratecontrol.c:635:22
	cmpl	$0, 552(%r12)
	.loc	0 635 44 is_stmt 0              # x264_src/encoder/ratecontrol.c:635:44
	je	.LBB4_102
.Ltmp653:
# %bb.97:                               # %land.lhs.true335
	#DEBUG_VALUE: x264_ratecontrol_new:h <- [DW_OP_plus_uconst 16] [$rsp+0]
	#DEBUG_VALUE: x264_ratecontrol_new:rc <- $r15
	#DEBUG_VALUE: stats_buf <- $r14
	#DEBUG_VALUE: opts <- $r14
