	.text
	.file	"set.c"
	.file	0 "/home/yjs/workspace/x264-test/src" "x264_src/encoder/set.c" md5 0xea40f435c7b0b136261e35ce3d199c9a
	.file	1 "/usr/include/x86_64-linux-gnu/bits" "types.h" md5 0xd108b5f93a74c50510d7d9bc0ab36df9
	.file	2 "/usr/include/x86_64-linux-gnu/bits" "stdint-uintn.h" md5 0x2bf2ae53c58c01b1a1b9383b5195125c
	.file	3 "x264_src" "x264.h" md5 0x0b04871e4f52d5a4d8833c501cba2584
	.file	4 "x264_src/common" "bs.h" md5 0x5e3e135f4389fadb006d4bc4f2055a86
	.file	5 "x264_src/common" "set.h" md5 0x36bc2db0356ac829288e85d371259e00
	.file	6 "x264_src/common" "macroblock.h" md5 0x15f4a9c1d53f4196a5f2b80807bb8b1a
	.file	7 "x264_src/common" "common.h" md5 0x5afac7bf2f5673f1628c455d7d320ad7
	.file	8 "/usr/include/x86_64-linux-gnu/bits" "stdint-intn.h" md5 0x55bcbdc3159515ebd91d351a70d505f4
	.file	9 "/usr/include" "stdint.h" md5 0xa48e64edacc5b19f56c99745232c963c
	.section	.rodata.cst16,"aM",@progbits,16
	.p2align	4, 0x0                          # -- Begin function x264_sps_init
.LCPI0_0:
	.long	1                               # 0x1
	.long	1                               # 0x1
	.long	0                               # 0x0
	.long	0                               # 0x0
	.section	.rodata.cst4,"aM",@progbits,4
	.p2align	2, 0x0
.LCPI0_1:
	.long	0x3f800000                      # float 1
	.text
	.globl	x264_sps_init
	.p2align	4, 0x90
	.type	x264_sps_init,@function
x264_sps_init:                          # @x264_sps_init
.Lfunc_begin0:
	.loc	0 100 0                         # x264_src/encoder/set.c:100:0
	.cfi_startproc
# %bb.0:                                # %entry
	#DEBUG_VALUE: x264_sps_init:sps <- $rdi
	#DEBUG_VALUE: x264_sps_init:i_id <- $esi
	#DEBUG_VALUE: x264_sps_init:param <- $rdx
	pushq	%rbx
	.cfi_def_cfa_offset 16
	.cfi_offset %rbx, -16
	movq	%rdi, %rbx
.Ltmp0:
	.loc	0 101 15 prologue_end           # x264_src/encoder/set.c:101:15
	movl	%esi, (%rdi)
	.loc	0 103 68                        # x264_src/encoder/set.c:103:68
	cmpl	$0, 488(%rdx)
	.loc	0 103 83 is_stmt 0              # x264_src/encoder/set.c:103:83
	je	.LBB0_2
.Ltmp1:
# %bb.1:                                # %if.else.critedge
	#DEBUG_VALUE: x264_sps_init:sps <- $rbx
	#DEBUG_VALUE: x264_sps_init:i_id <- $esi
	#DEBUG_VALUE: x264_sps_init:param <- $rdx
	.loc	0 103 44                        # x264_src/encoder/set.c:103:44
	movl	$0, 1296(%rbx)
	jmp	.LBB0_3
.Ltmp2:
.LBB0_2:                                # %land.rhs
	#DEBUG_VALUE: x264_sps_init:sps <- $rbx
	#DEBUG_VALUE: x264_sps_init:i_id <- $esi
	#DEBUG_VALUE: x264_sps_init:param <- $rdx
	.loc	0 103 110                       # x264_src/encoder/set.c:103:110
	xorl	%eax, %eax
	cmpl	$0, 492(%rdx)
	sete	%al
	.loc	0 103 44                        # x264_src/encoder/set.c:103:44
	movl	%eax, 1296(%rbx)
	.loc	0 104 9 is_stmt 1               # x264_src/encoder/set.c:104:9
	je	.LBB0_7
.Ltmp3:
.LBB0_3:                                # %if.else
	#DEBUG_VALUE: x264_sps_init:sps <- $rbx
	#DEBUG_VALUE: x264_sps_init:i_id <- $esi
	#DEBUG_VALUE: x264_sps_init:param <- $rdx
	.loc	0 0 9 is_stmt 0                 # x264_src/encoder/set.c:0:9
	xorl	%eax, %eax
	movl	$100, %ecx
.Ltmp4:
	.loc	0 106 14 is_stmt 1              # x264_src/encoder/set.c:106:14
	cmpl	$0, 392(%rdx)
	.loc	0 106 45 is_stmt 0              # x264_src/encoder/set.c:106:45
	jne	.LBB0_4
.Ltmp5:
# %bb.5:                                # %lor.lhs.false
	#DEBUG_VALUE: x264_sps_init:sps <- $rbx
	#DEBUG_VALUE: x264_sps_init:i_id <- $esi
	#DEBUG_VALUE: x264_sps_init:param <- $rdx
	.loc	0 106 68                        # x264_src/encoder/set.c:106:68
	cmpl	$0, 144(%rdx)
.Ltmp6:
	.loc	0 106 14                        # x264_src/encoder/set.c:106:14
	je	.LBB0_8
.Ltmp7:
.LBB0_4:
	#DEBUG_VALUE: x264_sps_init:sps <- $rbx
	#DEBUG_VALUE: x264_sps_init:i_id <- $esi
	#DEBUG_VALUE: x264_sps_init:param <- $rdx
	.loc	0 0 14                          # x264_src/encoder/set.c:0:14
	xorl	%esi, %esi
.Ltmp8:
	#DEBUG_VALUE: x264_sps_init:i_id <- [DW_OP_LLVM_entry_value 1] $esi
.LBB0_12:                               # %if.end23
	#DEBUG_VALUE: x264_sps_init:sps <- $rbx
	#DEBUG_VALUE: x264_sps_init:i_id <- [DW_OP_LLVM_entry_value 1] $esi
	#DEBUG_VALUE: x264_sps_init:param <- $rdx
	movl	%ecx, 4(%rbx)
.Ltmp9:
	.loc	0 112 31 is_stmt 1              # x264_src/encoder/set.c:112:31
	movl	32(%rdx), %ecx
	.loc	0 112 22 is_stmt 0              # x264_src/encoder/set.c:112:22
	movl	%ecx, 8(%rbx)
	.loc	0 114 29 is_stmt 1              # x264_src/encoder/set.c:114:29
	movl	%eax, 12(%rbx)
	.loc	0 117 29                        # x264_src/encoder/set.c:117:29
	movl	%esi, 16(%rbx)
	movabsq	$17179869184, %rax              # imm = 0x400000000
	.loc	0 119 29                        # x264_src/encoder/set.c:119:29
	movq	%rax, 20(%rbx)
	.loc	0 122 45                        # x264_src/encoder/set.c:122:45
	cmpl	$16, 84(%rdx)
	.loc	0 122 68 is_stmt 0              # x264_src/encoder/set.c:122:68
	jl	.LBB0_18
.Ltmp10:
# %bb.13:                               # %while.cond.1
	#DEBUG_VALUE: x264_sps_init:sps <- $rbx
	#DEBUG_VALUE: x264_sps_init:i_id <- [DW_OP_LLVM_entry_value 1] $esi
	#DEBUG_VALUE: x264_sps_init:param <- $rdx
	.loc	0 0 0                           # x264_src/encoder/set.c:0:0
	movl	$5, 24(%rbx)
	.loc	0 122 45                        # x264_src/encoder/set.c:122:45
	cmpl	$32, 84(%rdx)
	.loc	0 122 68                        # x264_src/encoder/set.c:122:68
	jl	.LBB0_19
.Ltmp11:
# %bb.14:                               # %while.cond.2
	#DEBUG_VALUE: x264_sps_init:sps <- $rbx
	#DEBUG_VALUE: x264_sps_init:i_id <- [DW_OP_LLVM_entry_value 1] $esi
	#DEBUG_VALUE: x264_sps_init:param <- $rdx
	.loc	0 0 0                           # x264_src/encoder/set.c:0:0
	movl	$6, 24(%rbx)
	.loc	0 122 45                        # x264_src/encoder/set.c:122:45
	cmpl	$64, 84(%rdx)
	.loc	0 122 68                        # x264_src/encoder/set.c:122:68
	jl	.LBB0_20
.Ltmp12:
# %bb.15:                               # %while.cond.3
	#DEBUG_VALUE: x264_sps_init:sps <- $rbx
	#DEBUG_VALUE: x264_sps_init:i_id <- [DW_OP_LLVM_entry_value 1] $esi
	#DEBUG_VALUE: x264_sps_init:param <- $rdx
	.loc	0 0 0                           # x264_src/encoder/set.c:0:0
	movl	$7, 24(%rbx)
	.loc	0 122 45                        # x264_src/encoder/set.c:122:45
	cmpl	$128, 84(%rdx)
	.loc	0 122 68                        # x264_src/encoder/set.c:122:68
	jl	.LBB0_21
.Ltmp13:
# %bb.16:                               # %while.cond.4
	#DEBUG_VALUE: x264_sps_init:sps <- $rbx
	#DEBUG_VALUE: x264_sps_init:i_id <- [DW_OP_LLVM_entry_value 1] $esi
	#DEBUG_VALUE: x264_sps_init:param <- $rdx
	.loc	0 0 0                           # x264_src/encoder/set.c:0:0
	movl	$8, 24(%rbx)
	.loc	0 122 45                        # x264_src/encoder/set.c:122:45
	cmpl	$256, 84(%rdx)                  # imm = 0x100
	.loc	0 122 68                        # x264_src/encoder/set.c:122:68
	jl	.LBB0_22
.Ltmp14:
# %bb.17:                               # %while.cond.5
	#DEBUG_VALUE: x264_sps_init:sps <- $rbx
	#DEBUG_VALUE: x264_sps_init:i_id <- [DW_OP_LLVM_entry_value 1] $esi
	#DEBUG_VALUE: x264_sps_init:param <- $rdx
	.loc	0 0 0                           # x264_src/encoder/set.c:0:0
	movl	$9, 24(%rbx)
	.loc	0 122 45                        # x264_src/encoder/set.c:122:45
	xorl	%eax, %eax
	cmpl	$512, 84(%rdx)                  # imm = 0x200
	setge	%al
	.loc	0 122 68                        # x264_src/encoder/set.c:122:68
	leal	9(%rax), %ecx
	.loc	0 0 0                           # x264_src/encoder/set.c:0:0
	movl	%ecx, 24(%rbx)
	.loc	0 122 68                        # x264_src/encoder/set.c:122:68
	leal	11(%rax), %ecx
	orl	$10, %eax
	jmp	.LBB0_23
.Ltmp15:
.LBB0_18:
	#DEBUG_VALUE: x264_sps_init:sps <- $rbx
	#DEBUG_VALUE: x264_sps_init:i_id <- [DW_OP_LLVM_entry_value 1] $esi
	#DEBUG_VALUE: x264_sps_init:param <- $rdx
	.loc	0 0 68                          # x264_src/encoder/set.c:0:68
	movl	$5, %eax
	movl	$6, %ecx
	.loc	0 122 68                        # x264_src/encoder/set.c:122:68
	jmp	.LBB0_23
.Ltmp16:
.LBB0_19:
	#DEBUG_VALUE: x264_sps_init:sps <- $rbx
	#DEBUG_VALUE: x264_sps_init:i_id <- [DW_OP_LLVM_entry_value 1] $esi
	#DEBUG_VALUE: x264_sps_init:param <- $rdx
	.loc	0 0 68                          # x264_src/encoder/set.c:0:68
	movl	$6, %eax
	movl	$7, %ecx
	.loc	0 122 68                        # x264_src/encoder/set.c:122:68
	jmp	.LBB0_23
.Ltmp17:
.LBB0_7:
	#DEBUG_VALUE: x264_sps_init:sps <- $rbx
	#DEBUG_VALUE: x264_sps_init:i_id <- $esi
	#DEBUG_VALUE: x264_sps_init:param <- $rdx
	.loc	0 0 68                          # x264_src/encoder/set.c:0:68
	xorl	%eax, %eax
	movl	$244, %ecx
	xorl	%esi, %esi
.Ltmp18:
	#DEBUG_VALUE: x264_sps_init:i_id <- [DW_OP_LLVM_entry_value 1] $esi
	.loc	0 106 14 is_stmt 1              # x264_src/encoder/set.c:106:14
	jmp	.LBB0_12
.Ltmp19:
.LBB0_20:
	#DEBUG_VALUE: x264_sps_init:sps <- $rbx
	#DEBUG_VALUE: x264_sps_init:i_id <- [DW_OP_LLVM_entry_value 1] $esi
	#DEBUG_VALUE: x264_sps_init:param <- $rdx
	.loc	0 0 14 is_stmt 0                # x264_src/encoder/set.c:0:14
	movl	$7, %eax
	movl	$8, %ecx
	.loc	0 122 68 is_stmt 1              # x264_src/encoder/set.c:122:68
	jmp	.LBB0_23
.Ltmp20:
.LBB0_8:                                # %if.else9
	#DEBUG_VALUE: x264_sps_init:sps <- $rbx
	#DEBUG_VALUE: x264_sps_init:i_id <- $esi
	#DEBUG_VALUE: x264_sps_init:param <- $rdx
	.loc	0 0 68 is_stmt 0                # x264_src/encoder/set.c:0:68
	movl	$1, %esi
.Ltmp21:
	#DEBUG_VALUE: x264_sps_init:i_id <- [DW_OP_LLVM_entry_value 1] $esi
	movl	$77, %ecx
.Ltmp22:
	.loc	0 108 14 is_stmt 1              # x264_src/encoder/set.c:108:14
	cmpl	$0, 128(%rdx)
	.loc	0 108 29 is_stmt 0              # x264_src/encoder/set.c:108:29
	jne	.LBB0_12
.Ltmp23:
# %bb.9:                                # %lor.lhs.false11
	#DEBUG_VALUE: x264_sps_init:sps <- $rbx
	#DEBUG_VALUE: x264_sps_init:i_id <- [DW_OP_LLVM_entry_value 1] $esi
	#DEBUG_VALUE: x264_sps_init:param <- $rdx
	.loc	0 108 48                        # x264_src/encoder/set.c:108:48
	cmpl	$0, 100(%rdx)
	.loc	0 108 52                        # x264_src/encoder/set.c:108:52
	jg	.LBB0_12
.Ltmp24:
# %bb.10:                               # %lor.lhs.false13
	#DEBUG_VALUE: x264_sps_init:sps <- $rbx
	#DEBUG_VALUE: x264_sps_init:i_id <- [DW_OP_LLVM_entry_value 1] $esi
	#DEBUG_VALUE: x264_sps_init:param <- $rdx
	.loc	0 108 55                        # x264_src/encoder/set.c:108:55
	cmpl	$0, 136(%rdx)
	.loc	0 108 75                        # x264_src/encoder/set.c:108:75
	jne	.LBB0_12
.Ltmp25:
# %bb.11:                               # %lor.lhs.false15
	#DEBUG_VALUE: x264_sps_init:sps <- $rbx
	#DEBUG_VALUE: x264_sps_init:i_id <- [DW_OP_LLVM_entry_value 1] $esi
	#DEBUG_VALUE: x264_sps_init:param <- $rdx
	.loc	0 108 109                       # x264_src/encoder/set.c:108:109
	xorl	%eax, %eax
	cmpl	$0, 396(%rdx)
	setle	%al
	movl	$66, %edi
.Ltmp26:
	.loc	0 108 14                        # x264_src/encoder/set.c:108:14
	cmovlel	%edi, %ecx
	jmp	.LBB0_12
.Ltmp27:
.LBB0_21:
	#DEBUG_VALUE: x264_sps_init:sps <- $rbx
	#DEBUG_VALUE: x264_sps_init:i_id <- [DW_OP_LLVM_entry_value 1] $esi
	#DEBUG_VALUE: x264_sps_init:param <- $rdx
	.loc	0 0 14                          # x264_src/encoder/set.c:0:14
	movl	$8, %eax
	movl	$9, %ecx
	.loc	0 122 68 is_stmt 1              # x264_src/encoder/set.c:122:68
	jmp	.LBB0_23
.Ltmp28:
.LBB0_22:
	#DEBUG_VALUE: x264_sps_init:sps <- $rbx
	#DEBUG_VALUE: x264_sps_init:i_id <- [DW_OP_LLVM_entry_value 1] $esi
	#DEBUG_VALUE: x264_sps_init:param <- $rdx
	.loc	0 0 68 is_stmt 0                # x264_src/encoder/set.c:0:68
	movl	$9, %eax
	movl	$10, %ecx
.Ltmp29:
.LBB0_23:                               # %while.end
	#DEBUG_VALUE: x264_sps_init:sps <- $rbx
	#DEBUG_VALUE: x264_sps_init:i_id <- [DW_OP_LLVM_entry_value 1] $esi
	#DEBUG_VALUE: x264_sps_init:param <- $rdx
	.loc	0 124 30 is_stmt 1              # x264_src/encoder/set.c:124:30
	movl	%eax, 24(%rbx)
	.loc	0 126 21                        # x264_src/encoder/set.c:126:21
	movl	$0, 28(%rbx)
.Ltmp30:
	.loc	0 129 33                        # x264_src/encoder/set.c:129:33
	movl	%ecx, 32(%rbx)
.Ltmp31:
	.loc	0 147 16                        # x264_src/encoder/set.c:147:16
	movl	$1, 1124(%rbx)
	.loc	0 149 44                        # x264_src/encoder/set.c:149:44
	movl	$0, 1080(%rbx)
	.loc	0 150 32                        # x264_src/encoder/set.c:150:32
	movl	20(%rdx), %eax
	.loc	0 150 40 is_stmt 0              # x264_src/encoder/set.c:150:40
	leal	15(%rax), %ecx
	.loc	0 150 47                        # x264_src/encoder/set.c:150:47
	addl	$30, %eax
	testl	%ecx, %ecx
	cmovnsl	%ecx, %eax
	sarl	$4, %eax
	.loc	0 150 21                        # x264_src/encoder/set.c:150:21
	movl	%eax, 1084(%rbx)
	.loc	0 151 32 is_stmt 1              # x264_src/encoder/set.c:151:32
	movl	24(%rdx), %esi
	.loc	0 151 41 is_stmt 0              # x264_src/encoder/set.c:151:41
	leal	15(%rsi), %ecx
	.loc	0 151 48                        # x264_src/encoder/set.c:151:48
	addl	$30, %esi
	testl	%ecx, %ecx
	cmovnsl	%ecx, %esi
	sarl	$4, %esi
	.loc	0 151 21                        # x264_src/encoder/set.c:151:21
	movl	%esi, 1088(%rbx)
	.loc	0 152 29 is_stmt 1              # x264_src/encoder/set.c:152:29
	cmpl	$0, 136(%rdx)
	je	.LBB0_25
.Ltmp32:
# %bb.24:                               # %cond.end.thread
	#DEBUG_VALUE: x264_sps_init:sps <- $rbx
	#DEBUG_VALUE: x264_sps_init:i_id <- [DW_OP_LLVM_entry_value 1] $esi
	#DEBUG_VALUE: x264_sps_init:param <- $rdx
	.loc	0 152 27 is_stmt 0              # x264_src/encoder/set.c:152:27
	movl	$0, 1092(%rbx)
	jmp	.LBB0_26
.Ltmp33:
.LBB0_25:                               # %cond.end
	#DEBUG_VALUE: x264_sps_init:sps <- $rbx
	#DEBUG_VALUE: x264_sps_init:i_id <- [DW_OP_LLVM_entry_value 1] $esi
	#DEBUG_VALUE: x264_sps_init:param <- $rdx
	.loc	0 152 55                        # x264_src/encoder/set.c:152:55
	xorl	%ecx, %ecx
	cmpl	$0, 680(%rdx)
	sete	%cl
	.loc	0 152 27                        # x264_src/encoder/set.c:152:27
	movl	%ecx, 1092(%rbx)
	.loc	0 153 9 is_stmt 1               # x264_src/encoder/set.c:153:9
	je	.LBB0_50
.Ltmp34:
.LBB0_26:                               # %if.then66
	#DEBUG_VALUE: x264_sps_init:sps <- $rbx
	#DEBUG_VALUE: x264_sps_init:i_id <- [DW_OP_LLVM_entry_value 1] $esi
	#DEBUG_VALUE: x264_sps_init:param <- $rdx
	.loc	0 154 47                        # x264_src/encoder/set.c:154:47
	incl	%esi
	.loc	0 154 53 is_stmt 0              # x264_src/encoder/set.c:154:53
	andl	$-2, %esi
	.loc	0 154 26                        # x264_src/encoder/set.c:154:26
	movl	%esi, 1088(%rbx)
	movl	$1, %ecx
.Ltmp35:
.LBB0_27:                               # %lor.end
	#DEBUG_VALUE: x264_sps_init:sps <- $rbx
	#DEBUG_VALUE: x264_sps_init:i_id <- [DW_OP_LLVM_entry_value 1] $esi
	#DEBUG_VALUE: x264_sps_init:param <- $rdx
	.loc	0 155 45 is_stmt 1              # x264_src/encoder/set.c:155:45
	movl	136(%rdx), %edi
	.loc	0 155 36 is_stmt 0              # x264_src/encoder/set.c:155:36
	movl	%edi, 1096(%rbx)
	.loc	0 156 32 is_stmt 1              # x264_src/encoder/set.c:156:32
	movl	$1, 1100(%rbx)
	.loc	0 158 24                        # x264_src/encoder/set.c:158:24
	movl	$0, 1108(%rbx)
	.loc	0 159 24                        # x264_src/encoder/set.c:159:24
	movl	$0, 1116(%rbx)
	.loc	0 160 41                        # x264_src/encoder/set.c:160:41
	shll	$4, %eax
	.loc	0 160 54 is_stmt 0              # x264_src/encoder/set.c:160:54
	movl	20(%rdx), %edi
	.loc	0 160 45                        # x264_src/encoder/set.c:160:45
	movl	%eax, %r8d
	subl	%edi, %r8d
	.loc	0 160 24                        # x264_src/encoder/set.c:160:24
	movl	%r8d, 1112(%rbx)
	.loc	0 161 43 is_stmt 1              # x264_src/encoder/set.c:161:43
	shll	$4, %esi
	.loc	0 161 47 is_stmt 0              # x264_src/encoder/set.c:161:47
	subl	24(%rdx), %esi
                                        # kill: def $cl killed $cl killed $ecx
	.loc	0 161 66                        # x264_src/encoder/set.c:161:66
	sarl	%cl, %esi
	.loc	0 161 24                        # x264_src/encoder/set.c:161:24
	movl	%esi, 1120(%rbx)
	.loc	0 163 19 is_stmt 1              # x264_src/encoder/set.c:163:19
	xorl	%edi, %eax
	.loc	0 163 37 is_stmt 0              # x264_src/encoder/set.c:163:37
	xorl	%ecx, %ecx
	orl	%esi, %eax
	setne	%cl
	.loc	0 162 17 is_stmt 1              # x264_src/encoder/set.c:162:17
	movl	%ecx, 1104(%rbx)
	.loc	0 165 42                        # x264_src/encoder/set.c:165:42
	movl	$0, 1128(%rbx)
.Ltmp36:
	.loc	0 166 32                        # x264_src/encoder/set.c:166:32
	cmpl	$0, 48(%rdx)
	.loc	0 166 36 is_stmt 0              # x264_src/encoder/set.c:166:36
	jle	.LBB0_30
.Ltmp37:
# %bb.28:                               # %land.lhs.true
	#DEBUG_VALUE: x264_sps_init:sps <- $rbx
	#DEBUG_VALUE: x264_sps_init:i_id <- [DW_OP_LLVM_entry_value 1] $esi
	#DEBUG_VALUE: x264_sps_init:param <- $rdx
	.loc	0 166 63                        # x264_src/encoder/set.c:166:63
	cmpl	$0, 44(%rdx)
.Ltmp38:
	.loc	0 166 9                         # x264_src/encoder/set.c:166:9
	jle	.LBB0_30
.Ltmp39:
# %bb.29:                               # %if.then105
	#DEBUG_VALUE: x264_sps_init:sps <- $rbx
	#DEBUG_VALUE: x264_sps_init:i_id <- [DW_OP_LLVM_entry_value 1] $esi
	#DEBUG_VALUE: x264_sps_init:param <- $rdx
	.loc	0 168 46 is_stmt 1              # x264_src/encoder/set.c:168:46
	movl	$1, 1128(%rbx)
	.loc	0 169 43                        # x264_src/encoder/set.c:169:43
	movl	48(%rdx), %eax
	.loc	0 169 30 is_stmt 0              # x264_src/encoder/set.c:169:30
	movl	%eax, 1132(%rbx)
	.loc	0 170 43 is_stmt 1              # x264_src/encoder/set.c:170:43
	movl	44(%rdx), %eax
	.loc	0 170 30 is_stmt 0              # x264_src/encoder/set.c:170:30
	movl	%eax, 1136(%rbx)
.Ltmp40:
.LBB0_30:                               # %if.end116
	#DEBUG_VALUE: x264_sps_init:sps <- $rbx
	#DEBUG_VALUE: x264_sps_init:i_id <- [DW_OP_LLVM_entry_value 1] $esi
	#DEBUG_VALUE: x264_sps_init:param <- $rdx
	.loc	0 173 42 is_stmt 1              # x264_src/encoder/set.c:173:42
	xorl	%eax, %eax
	cmpl	$0, 52(%rdx)
	setne	%al
	.loc	0 173 38 is_stmt 0              # x264_src/encoder/set.c:173:38
	movl	%eax, 1140(%rbx)
	.loc	0 174 9 is_stmt 1               # x264_src/encoder/set.c:174:9
	je	.LBB0_32
.Ltmp41:
# %bb.31:                               # %if.then124
	#DEBUG_VALUE: x264_sps_init:sps <- $rbx
	#DEBUG_VALUE: x264_sps_init:i_id <- [DW_OP_LLVM_entry_value 1] $esi
	#DEBUG_VALUE: x264_sps_init:param <- $rdx
	.loc	0 175 60                        # x264_src/encoder/set.c:175:60
	xorl	%eax, %eax
	cmpl	$2, 52(%rdx)
	sete	%al
	.loc	0 175 34 is_stmt 0              # x264_src/encoder/set.c:175:34
	movl	%eax, 1144(%rbx)
.Ltmp42:
.LBB0_32:                               # %if.end131
	#DEBUG_VALUE: x264_sps_init:sps <- $rbx
	#DEBUG_VALUE: x264_sps_init:i_id <- [DW_OP_LLVM_entry_value 1] $esi
	#DEBUG_VALUE: x264_sps_init:param <- $rdx
	.loc	0 177 36 is_stmt 1              # x264_src/encoder/set.c:177:36
	movl	$0, 1148(%rbx)
	.loc	0 178 41                        # x264_src/encoder/set.c:178:41
	movl	56(%rdx), %eax
	.loc	0 178 30 is_stmt 0              # x264_src/encoder/set.c:178:30
	cmpl	$5, %eax
	movl	$5, %ecx
	cmovll	%eax, %ecx
	.loc	0 178 26                        # x264_src/encoder/set.c:178:26
	movl	%ecx, 1152(%rbx)
	.loc	0 179 41 is_stmt 1              # x264_src/encoder/set.c:179:41
	movl	60(%rdx), %ecx
	.loc	0 179 30 is_stmt 0              # x264_src/encoder/set.c:179:30
	xorl	%esi, %esi
	testl	%ecx, %ecx
	setne	%sil
	.loc	0 179 26                        # x264_src/encoder/set.c:179:26
	movl	%esi, 1156(%rbx)
	.loc	0 180 42 is_stmt 1              # x264_src/encoder/set.c:180:42
	movl	$0, 1160(%rbx)
	.loc	0 182 41                        # x264_src/encoder/set.c:182:41
	movl	64(%rdx), %r8d
	.loc	0 182 53 is_stmt 0              # x264_src/encoder/set.c:182:53
	cmpl	$10, %r8d
	movl	$2, %esi
	.loc	0 182 30                        # x264_src/encoder/set.c:182:30
	cmovgel	%esi, %r8d
	.loc	0 182 26                        # x264_src/encoder/set.c:182:26
	movl	%r8d, 1164(%rbx)
	.loc	0 183 41 is_stmt 1              # x264_src/encoder/set.c:183:41
	movl	68(%rdx), %edi
	.loc	0 183 53 is_stmt 0              # x264_src/encoder/set.c:183:53
	cmpl	$12, %edi
	.loc	0 183 30                        # x264_src/encoder/set.c:183:30
	cmovgel	%esi, %edi
	.loc	0 183 26                        # x264_src/encoder/set.c:183:26
	movl	%edi, 1168(%rbx)
	.loc	0 184 41 is_stmt 1              # x264_src/encoder/set.c:184:41
	movl	72(%rdx), %r9d
	.loc	0 184 53 is_stmt 0              # x264_src/encoder/set.c:184:53
	cmpl	$10, %r9d
	.loc	0 184 30                        # x264_src/encoder/set.c:184:30
	cmovll	%r9d, %esi
	.loc	0 184 26                        # x264_src/encoder/set.c:184:26
	movl	%esi, 1172(%rbx)
.Ltmp43:
	.loc	0 185 30 is_stmt 1              # x264_src/encoder/set.c:185:30
	cmpl	$2, %r8d
	.loc	0 185 35 is_stmt 0              # x264_src/encoder/set.c:185:35
	jne	.LBB0_35
.Ltmp44:
# %bb.33:                               # %lor.lhs.false187
	#DEBUG_VALUE: x264_sps_init:sps <- $rbx
	#DEBUG_VALUE: x264_sps_init:i_id <- [DW_OP_LLVM_entry_value 1] $esi
	#DEBUG_VALUE: x264_sps_init:param <- $rdx
	.loc	0 186 30 is_stmt 1              # x264_src/encoder/set.c:186:30
	xorl	$2, %edi
	xorl	$2, %esi
	.loc	0 186 35 is_stmt 0              # x264_src/encoder/set.c:186:35
	orl	%edi, %esi
	jne	.LBB0_35
.Ltmp45:
# %bb.34:                               # %if.end200
	#DEBUG_VALUE: x264_sps_init:sps <- $rbx
	#DEBUG_VALUE: x264_sps_init:i_id <- [DW_OP_LLVM_entry_value 1] $esi
	#DEBUG_VALUE: x264_sps_init:param <- $rdx
	.loc	0 179 30 is_stmt 1              # x264_src/encoder/set.c:179:30
	testl	%ecx, %ecx
	setne	%cl
.Ltmp46:
	.loc	0 192 30                        # x264_src/encoder/set.c:192:30
	cmpl	$5, %eax
	setl	%al
	.loc	0 192 35 is_stmt 0              # x264_src/encoder/set.c:192:35
	orb	%cl, %al
	jne	.LBB0_36
	jmp	.LBB0_37
.Ltmp47:
.LBB0_35:                               # %if.end200.thread
	#DEBUG_VALUE: x264_sps_init:sps <- $rbx
	#DEBUG_VALUE: x264_sps_init:i_id <- [DW_OP_LLVM_entry_value 1] $esi
	#DEBUG_VALUE: x264_sps_init:param <- $rdx
	.loc	0 189 46 is_stmt 1              # x264_src/encoder/set.c:189:46
	movl	$1, 1160(%rbx)
.Ltmp48:
.LBB0_36:                               # %if.then213
	#DEBUG_VALUE: x264_sps_init:sps <- $rbx
	#DEBUG_VALUE: x264_sps_init:i_id <- [DW_OP_LLVM_entry_value 1] $esi
	#DEBUG_VALUE: x264_sps_init:param <- $rdx
	.loc	0 196 40                        # x264_src/encoder/set.c:196:40
	movl	$1, 1148(%rbx)
.Ltmp49:
.LBB0_37:                               # %if.end216
	#DEBUG_VALUE: x264_sps_init:sps <- $rbx
	#DEBUG_VALUE: x264_sps_init:i_id <- [DW_OP_LLVM_entry_value 1] $esi
	#DEBUG_VALUE: x264_sps_init:param <- $rdx
	.loc	0 200 44                        # x264_src/encoder/set.c:200:44
	xorl	%eax, %eax
	cmpl	$0, 76(%rdx)
	setne	%al
	.loc	0 200 40 is_stmt 0              # x264_src/encoder/set.c:200:40
	movl	%eax, 1176(%rbx)
	.loc	0 201 9 is_stmt 1               # x264_src/encoder/set.c:201:9
	je	.LBB0_39
.Ltmp50:
# %bb.38:                               # %if.then224
	#DEBUG_VALUE: x264_sps_init:sps <- $rbx
	#DEBUG_VALUE: x264_sps_init:i_id <- [DW_OP_LLVM_entry_value 1] $esi
	#DEBUG_VALUE: x264_sps_init:param <- $rdx
	.loc	0 203 48                        # x264_src/encoder/set.c:203:48
	movl	76(%rdx), %eax
	.loc	0 203 35 is_stmt 0              # x264_src/encoder/set.c:203:35
	movl	%eax, 1180(%rbx)
	.loc	0 204 38 is_stmt 1              # x264_src/encoder/set.c:204:38
	movl	%eax, 1184(%rbx)
.Ltmp51:
.LBB0_39:                               # %if.end231
	#DEBUG_VALUE: x264_sps_init:sps <- $rbx
	#DEBUG_VALUE: x264_sps_init:i_id <- [DW_OP_LLVM_entry_value 1] $esi
	#DEBUG_VALUE: x264_sps_init:param <- $rdx
	.loc	0 207 60                        # x264_src/encoder/set.c:207:60
	cmpl	$0, 660(%rdx)
	.loc	0 207 64 is_stmt 0              # x264_src/encoder/set.c:207:64
	je	.LBB0_42
.Ltmp52:
# %bb.40:                               # %land.rhs234
	#DEBUG_VALUE: x264_sps_init:sps <- $rbx
	#DEBUG_VALUE: x264_sps_init:i_id <- [DW_OP_LLVM_entry_value 1] $esi
	#DEBUG_VALUE: x264_sps_init:param <- $rdx
	.loc	0 207 89                        # x264_src/encoder/set.c:207:89
	xorl	%eax, %eax
	cmpl	$0, 664(%rdx)
	setne	%al
	.loc	0 207 36                        # x264_src/encoder/set.c:207:36
	movl	%eax, 1188(%rbx)
	.loc	0 209 9 is_stmt 1               # x264_src/encoder/set.c:209:9
	je	.LBB0_44
.Ltmp53:
# %bb.41:                               # %if.then243
	#DEBUG_VALUE: x264_sps_init:sps <- $rbx
	#DEBUG_VALUE: x264_sps_init:i_id <- [DW_OP_LLVM_entry_value 1] $esi
	#DEBUG_VALUE: x264_sps_init:param <- $rdx
	.loc	0 211 47                        # x264_src/encoder/set.c:211:47
	movl	660(%rdx), %eax
	.loc	0 211 38 is_stmt 0              # x264_src/encoder/set.c:211:38
	movl	%eax, 1192(%rbx)
	.loc	0 212 40 is_stmt 1              # x264_src/encoder/set.c:212:40
	movl	664(%rdx), %eax
	.loc	0 212 55 is_stmt 0              # x264_src/encoder/set.c:212:55
	addl	%eax, %eax
	.loc	0 212 31                        # x264_src/encoder/set.c:212:31
	movl	%eax, 1196(%rbx)
	.loc	0 213 39 is_stmt 1              # x264_src/encoder/set.c:213:39
	xorl	%eax, %eax
	cmpl	$0, 648(%rdx)
	sete	%al
	movl	$1200, %ecx                     # imm = 0x4B0
	jmp	.LBB0_43
.Ltmp54:
.LBB0_42:
	#DEBUG_VALUE: x264_sps_init:sps <- $rbx
	#DEBUG_VALUE: x264_sps_init:i_id <- [DW_OP_LLVM_entry_value 1] $esi
	#DEBUG_VALUE: x264_sps_init:param <- $rdx
	.loc	0 0 39 is_stmt 0                # x264_src/encoder/set.c:0:39
	xorl	%eax, %eax
	movl	$1188, %ecx                     # imm = 0x4A4
.Ltmp55:
.LBB0_43:                               # %if.end253.sink.split
	#DEBUG_VALUE: x264_sps_init:sps <- $rbx
	#DEBUG_VALUE: x264_sps_init:i_id <- [DW_OP_LLVM_entry_value 1] $esi
	#DEBUG_VALUE: x264_sps_init:param <- $rdx
	movl	%eax, (%rbx,%rcx)
.Ltmp56:
.LBB0_44:                               # %if.end253
	#DEBUG_VALUE: x264_sps_init:sps <- $rbx
	#DEBUG_VALUE: x264_sps_init:i_id <- [DW_OP_LLVM_entry_value 1] $esi
	#DEBUG_VALUE: x264_sps_init:param <- $rdx
	.loc	0 216 43 is_stmt 1              # x264_src/encoder/set.c:216:43
	movl	$0, 1208(%rbx)
	.loc	0 217 46                        # x264_src/encoder/set.c:217:46
	xorl	%eax, %eax
	cmpl	$0, 40(%rdx)
	setne	%al
	.loc	0 217 43 is_stmt 0              # x264_src/encoder/set.c:217:43
	movl	%eax, 1204(%rbx)
	.loc	0 218 44 is_stmt 1              # x264_src/encoder/set.c:218:44
	movl	676(%rdx), %eax
	.loc	0 218 35 is_stmt 0              # x264_src/encoder/set.c:218:35
	movl	%eax, 1260(%rbx)
	movl	$2, %eax
	.loc	0 222 37 is_stmt 1              # x264_src/encoder/set.c:222:37
	cmpl	$0, 112(%rdx)
	jne	.LBB0_46
.Ltmp57:
# %bb.45:                               # %cond.false264
	#DEBUG_VALUE: x264_sps_init:sps <- $rbx
	#DEBUG_VALUE: x264_sps_init:i_id <- [DW_OP_LLVM_entry_value 1] $esi
	#DEBUG_VALUE: x264_sps_init:param <- $rdx
	.loc	0 222 67 is_stmt 0              # x264_src/encoder/set.c:222:67
	xorl	%eax, %eax
	cmpl	$0, 100(%rdx)
	setne	%al
.Ltmp58:
.LBB0_46:                               # %cond.end268
	#DEBUG_VALUE: x264_sps_init:sps <- $rbx
	#DEBUG_VALUE: x264_sps_init:i_id <- [DW_OP_LLVM_entry_value 1] $esi
	#DEBUG_VALUE: x264_sps_init:param <- $rdx
	.loc	0 222 35                        # x264_src/encoder/set.c:222:35
	movl	%eax, 1288(%rbx)
	.loc	0 226 29 is_stmt 1              # x264_src/encoder/set.c:226:29
	xorl	%ecx, %ecx
	cmpl	$0, 112(%rdx)
	setne	%cl
	leal	(%rcx,%rcx,2), %ecx
	incl	%ecx
	leal	1(%rax), %esi
	cmpl	%ecx, %eax
	cmovbl	%ecx, %esi
	movl	80(%rdx), %eax
	cmpl	%esi, %eax
	cmovgl	%eax, %esi
	movl	$16, %ecx
	cmovlel	%esi, %ecx
	cmpl	$17, %eax
	cmovbl	%esi, %ecx
	.loc	0 226 27 is_stmt 0              # x264_src/encoder/set.c:226:27
	movl	%ecx, 1076(%rbx)
	.loc	0 225 40 is_stmt 1              # x264_src/encoder/set.c:225:40
	movl	%ecx, 1292(%rbx)
	.loc	0 228 54                        # x264_src/encoder/set.c:228:54
	xorl	%eax, %eax
	cmpl	$1, 112(%rdx)
	sete	%al
	.loc	0 228 27 is_stmt 0              # x264_src/encoder/set.c:228:27
	subl	%eax, %ecx
	movl	%ecx, 1076(%rbx)
	.loc	0 230 38 is_stmt 1              # x264_src/encoder/set.c:230:38
	movsd	.LCPI0_0(%rip), %xmm0           # xmm0 = [1,1,0,0]
	movups	%xmm0, 1264(%rbx)
.Ltmp59:
	.loc	0 237 62                        # x264_src/encoder/set.c:237:62
	movl	420(%rdx), %eax
	testl	%eax, %eax
	jle	.LBB0_48
.Ltmp60:
# %bb.47:                               # %cond.end268
	#DEBUG_VALUE: x264_sps_init:sps <- $rbx
	#DEBUG_VALUE: x264_sps_init:i_id <- [DW_OP_LLVM_entry_value 1] $esi
	#DEBUG_VALUE: x264_sps_init:param <- $rdx
	.loc	0 0 62 is_stmt 0                # x264_src/encoder/set.c:0:62
	leal	-1(,%rax,4), %eax
	xorps	%xmm0, %xmm0
	cvtsi2ss	%eax, %xmm0
	jmp	.LBB0_49
.Ltmp61:
.LBB0_48:
	#DEBUG_VALUE: x264_sps_init:sps <- $rbx
	#DEBUG_VALUE: x264_sps_init:i_id <- [DW_OP_LLVM_entry_value 1] $esi
	#DEBUG_VALUE: x264_sps_init:param <- $rdx
	movss	.LCPI0_1(%rip), %xmm0           # xmm0 = [1.0E+0,0.0E+0,0.0E+0,0.0E+0]
.Ltmp62:
.LBB0_49:                               # %cond.end268
	#DEBUG_VALUE: x264_sps_init:sps <- $rbx
	#DEBUG_VALUE: x264_sps_init:i_id <- [DW_OP_LLVM_entry_value 1] $esi
	#DEBUG_VALUE: x264_sps_init:param <- $rdx
	.loc	0 237 55                        # x264_src/encoder/set.c:237:55
	callq	log2f@PLT
.Ltmp63:
	#DEBUG_VALUE: x264_sps_init:param <- [DW_OP_LLVM_entry_value 1] $rdx
	.loc	0 237 50                        # x264_src/encoder/set.c:237:50
	cvttss2si	%xmm0, %eax
	.loc	0 237 109                       # x264_src/encoder/set.c:237:109
	incl	%eax
	.loc	0 237 48                        # x264_src/encoder/set.c:237:48
	movl	%eax, 1284(%rbx)
	.loc	0 236 50 is_stmt 1              # x264_src/encoder/set.c:236:50
	movl	%eax, 1280(%rbx)
.Ltmp64:
	.loc	0 239 1 epilogue_begin          # x264_src/encoder/set.c:239:1
	popq	%rbx
.Ltmp65:
	#DEBUG_VALUE: x264_sps_init:sps <- [DW_OP_LLVM_entry_value 1] $rdi
	.cfi_def_cfa_offset 8
	retq
.Ltmp66:
.LBB0_50:
	.cfi_def_cfa_offset 16
	#DEBUG_VALUE: x264_sps_init:sps <- $rbx
	#DEBUG_VALUE: x264_sps_init:i_id <- [DW_OP_LLVM_entry_value 1] $esi
	#DEBUG_VALUE: x264_sps_init:param <- $rdx
	.loc	0 0 1 is_stmt 0                 # x264_src/encoder/set.c:0:1
	xorl	%ecx, %ecx
	jmp	.LBB0_27
.Lfunc_end0:
	.size	x264_sps_init, .Lfunc_end0-x264_sps_init
	.cfi_endproc
	.file	10 "/usr/include/x86_64-linux-gnu/bits" "mathcalls.h" md5 0x8c6e2d0d2bda65bc5ba1ca02b65383b7
                                        # -- End function
	.globl	x264_sps_write                  # -- Begin function x264_sps_write
	.p2align	4, 0x90
	.type	x264_sps_write,@function
x264_sps_write:                         # @x264_sps_write
.Lfunc_begin1:
	.cfi_startproc
# %bb.0:                                # %entry
	#DEBUG_VALUE: x264_sps_write:s <- $rdi
	#DEBUG_VALUE: x264_sps_write:sps <- $rsi
	#DEBUG_VALUE: bs_realign:s <- $rdi
	.loc	4 103 32 prologue_end is_stmt 1 # x264_src/common/bs.h:103:32
	movq	8(%rdi), %r11
.Ltmp67:
	.loc	4 104 9                         # x264_src/common/bs.h:104:9
	movl	%r11d, %ecx
	andl	$3, %ecx
.Ltmp68:
	#DEBUG_VALUE: bs_realign:offset <- $ecx
	.loc	4 104 9 is_stmt 0               # x264_src/common/bs.h:104:9
	je	.LBB1_1
.Ltmp69:
# %bb.2:                                # %if.then.i
	#DEBUG_VALUE: x264_sps_write:s <- $rdi
	#DEBUG_VALUE: x264_sps_write:sps <- $rsi
	#DEBUG_VALUE: bs_realign:s <- $rdi
	#DEBUG_VALUE: bs_realign:offset <- $ecx
	.loc	4 106 37 is_stmt 1              # x264_src/common/bs.h:106:37
	movl	%r11d, %edx
	andl	$3, %edx
	andq	$-4, %r11
	.loc	4 106 20 is_stmt 0              # x264_src/common/bs.h:106:20
	movq	%r11, 8(%rdi)
	.loc	4 107 22 is_stmt 1              # x264_src/common/bs.h:107:22
	shll	$3, %edx
	movl	$64, %eax
	subl	%edx, %eax
	.loc	4 107 20 is_stmt 0              # x264_src/common/bs.h:107:20
	movl	%eax, 32(%rdi)
	.loc	4 108 37 is_stmt 1              # x264_src/common/bs.h:108:37
	movl	(%r11), %r8d
.Ltmp70:
	#DEBUG_VALUE: endian_fix32:x <- $r8d
	.file	11 "x264_src/common" "osdep.h" md5 0xabed2b0134391efe02a749d457632ae9
	.loc	11 264 58                       # x264_src/common/osdep.h:264:58
	bswapl	%r8d
.Ltmp71:
	.loc	4 109 21                        # x264_src/common/bs.h:109:21
	leal	32(,%rcx,8), %ecx
.Ltmp72:
	negl	%ecx
                                        # kill: def $cl killed $cl killed $ecx
	shrq	%cl, %r8
	movq	%r8, 24(%rdi)
	jmp	.LBB1_3
.Ltmp73:
.LBB1_1:                                # %entry.bs_realign.exit_crit_edge
	#DEBUG_VALUE: x264_sps_write:s <- $rdi
	#DEBUG_VALUE: x264_sps_write:sps <- $rsi
	.loc	4 117 27                        # x264_src/common/bs.h:117:27
	movq	24(%rdi), %r8
	.loc	4 118 19                        # x264_src/common/bs.h:118:19
	movl	32(%rdi), %eax
.Ltmp74:
.LBB1_3:                                # %bs_realign.exit
	#DEBUG_VALUE: x264_sps_write:s <- $rdi
	#DEBUG_VALUE: x264_sps_write:sps <- $rsi
	.loc	0 0 0 is_stmt 0                 # x264_src/encoder/set.c:0:0
	leaq	8(%rdi), %r9
	.loc	0 244 26 is_stmt 1              # x264_src/encoder/set.c:244:26
	movl	4(%rsi), %ecx
.Ltmp75:
	#DEBUG_VALUE: bs_write:s <- $rdi
	#DEBUG_VALUE: bs_write:i_count <- 8
	#DEBUG_VALUE: bs_write:i_bits <- undef
	.loc	4 117 27                        # x264_src/common/bs.h:117:27
	leaq	24(%rdi), %r10
	.loc	4 117 36 is_stmt 0              # x264_src/common/bs.h:117:36
	shlq	$8, %r8
	.loc	4 117 48                        # x264_src/common/bs.h:117:48
	orq	%rcx, %r8
	.loc	4 117 21                        # x264_src/common/bs.h:117:21
	movq	%r8, 24(%rdi)
	.loc	4 118 19 is_stmt 1              # x264_src/common/bs.h:118:19
	leal	-8(%rax), %ecx
	movl	%ecx, 32(%rdi)
	.loc	4 118 12 is_stmt 0              # x264_src/common/bs.h:118:12
	addq	$32, %rdi
.Ltmp76:
	#DEBUG_VALUE: x264_sps_write:s <- [DW_OP_LLVM_entry_value 1] $rdi
	.loc	4 119 23 is_stmt 1              # x264_src/common/bs.h:119:23
	cmpl	$40, %eax
.Ltmp77:
	.loc	4 119 13 is_stmt 0              # x264_src/common/bs.h:119:13
	jg	.LBB1_5
.Ltmp78:
# %bb.4:                                # %if.then.i356
	#DEBUG_VALUE: x264_sps_write:s <- [DW_OP_LLVM_entry_value 1] $rdi
	#DEBUG_VALUE: x264_sps_write:sps <- $rsi
	#DEBUG_VALUE: bs_write:i_count <- 8
                                        # kill: def $cl killed $cl killed $rcx
	.loc	4 124 51 is_stmt 1              # x264_src/common/bs.h:124:51
	shlq	%cl, %r8
.Ltmp79:
	#DEBUG_VALUE: endian_fix:x <- $r8
	#DEBUG_VALUE: endian_fix64:x <- $r8
	.loc	11 277 32                       # x264_src/common/osdep.h:277:32
	bswapq	%r8
.Ltmp80:
	.loc	4 124 25                        # x264_src/common/bs.h:124:25
	movl	%r8d, (%r11)
	.loc	4 126 23                        # x264_src/common/bs.h:126:23
	movl	(%rdi), %ecx
	addl	$32, %ecx
	movl	%ecx, (%rdi)
	.loc	4 127 18                        # x264_src/common/bs.h:127:18
	movq	(%r9), %r11
	addq	$4, %r11
	movq	%r11, (%r9)
.Ltmp81:
	.loc	4 117 27                        # x264_src/common/bs.h:117:27
	movq	(%r10), %r8
.Ltmp82:
.LBB1_5:                                # %bs_write.exit
	#DEBUG_VALUE: x264_sps_write:s <- [DW_OP_LLVM_entry_value 1] $rdi
	#DEBUG_VALUE: x264_sps_write:sps <- $rsi
	.loc	0 245 26                        # x264_src/encoder/set.c:245:26
	movl	12(%rsi), %eax
.Ltmp83:
	#DEBUG_VALUE: bs_write:s <- undef
	#DEBUG_VALUE: bs_write:i_count <- 1
	#DEBUG_VALUE: bs_write:i_bits <- undef
	.loc	4 117 36                        # x264_src/common/bs.h:117:36
	addq	%r8, %r8
	.loc	4 117 48 is_stmt 0              # x264_src/common/bs.h:117:48
	orq	%rax, %r8
	.loc	4 117 21                        # x264_src/common/bs.h:117:21
	movq	%r8, (%r10)
	.loc	4 118 19 is_stmt 1              # x264_src/common/bs.h:118:19
	leal	-1(%rcx), %eax
	movl	%eax, (%rdi)
.Ltmp84:
	.loc	4 119 23                        # x264_src/common/bs.h:119:23
	cmpl	$33, %ecx
.Ltmp85:
	.loc	4 119 13 is_stmt 0              # x264_src/common/bs.h:119:13
	jg	.LBB1_7
.Ltmp86:
# %bb.6:                                # %if.then.i366
	#DEBUG_VALUE: x264_sps_write:s <- [DW_OP_LLVM_entry_value 1] $rdi
	#DEBUG_VALUE: x264_sps_write:sps <- $rsi
	#DEBUG_VALUE: bs_write:i_count <- 1
	.loc	4 124 51 is_stmt 1              # x264_src/common/bs.h:124:51
	movl	%eax, %ecx
	shlq	%cl, %r8
.Ltmp87:
	#DEBUG_VALUE: endian_fix:x <- $r8
	#DEBUG_VALUE: endian_fix64:x <- $r8
	.loc	11 277 32                       # x264_src/common/osdep.h:277:32
	bswapq	%r8
.Ltmp88:
	.loc	4 124 25                        # x264_src/common/bs.h:124:25
	movl	%r8d, (%r11)
	.loc	4 126 23                        # x264_src/common/bs.h:126:23
	movl	(%rdi), %eax
	addl	$32, %eax
	movl	%eax, (%rdi)
	.loc	4 127 18                        # x264_src/common/bs.h:127:18
	movq	(%r9), %r11
	addq	$4, %r11
	movq	%r11, (%r9)
.Ltmp89:
	.loc	4 117 27                        # x264_src/common/bs.h:117:27
	movq	(%r10), %r8
.Ltmp90:
.LBB1_7:                                # %bs_write.exit374
	#DEBUG_VALUE: x264_sps_write:s <- [DW_OP_LLVM_entry_value 1] $rdi
	#DEBUG_VALUE: x264_sps_write:sps <- $rsi
	.loc	0 246 26                        # x264_src/encoder/set.c:246:26
	movl	16(%rsi), %ecx
.Ltmp91:
	#DEBUG_VALUE: bs_write:s <- undef
	#DEBUG_VALUE: bs_write:i_count <- 1
	#DEBUG_VALUE: bs_write:i_bits <- undef
	.loc	4 117 36                        # x264_src/common/bs.h:117:36
	addq	%r8, %r8
	.loc	4 117 48 is_stmt 0              # x264_src/common/bs.h:117:48
	orq	%rcx, %r8
	.loc	4 117 21                        # x264_src/common/bs.h:117:21
	movq	%r8, (%r10)
	.loc	4 118 19 is_stmt 1              # x264_src/common/bs.h:118:19
	leal	-1(%rax), %ecx
	movl	%ecx, (%rdi)
.Ltmp92:
	.loc	4 119 23                        # x264_src/common/bs.h:119:23
	cmpl	$33, %eax
.Ltmp93:
	.loc	4 119 13 is_stmt 0              # x264_src/common/bs.h:119:13
	jg	.LBB1_9
.Ltmp94:
# %bb.8:                                # %if.then.i382
	#DEBUG_VALUE: x264_sps_write:s <- [DW_OP_LLVM_entry_value 1] $rdi
	#DEBUG_VALUE: x264_sps_write:sps <- $rsi
	#DEBUG_VALUE: bs_write:i_count <- 1
                                        # kill: def $cl killed $cl killed $rcx
	.loc	4 124 51 is_stmt 1              # x264_src/common/bs.h:124:51
	shlq	%cl, %r8
.Ltmp95:
	#DEBUG_VALUE: endian_fix:x <- $r8
	#DEBUG_VALUE: endian_fix64:x <- $r8
	.loc	11 277 32                       # x264_src/common/osdep.h:277:32
	bswapq	%r8
.Ltmp96:
	.loc	4 124 25                        # x264_src/common/bs.h:124:25
	movl	%r8d, (%r11)
	.loc	4 126 23                        # x264_src/common/bs.h:126:23
	movl	(%rdi), %ecx
	addl	$32, %ecx
	movl	%ecx, (%rdi)
	.loc	4 127 18                        # x264_src/common/bs.h:127:18
	movq	(%r9), %r11
	addq	$4, %r11
	movq	%r11, (%r9)
.Ltmp97:
	.loc	4 117 27                        # x264_src/common/bs.h:117:27
	movq	(%r10), %r8
.Ltmp98:
.LBB1_9:                                # %bs_write.exit390
	#DEBUG_VALUE: x264_sps_write:s <- [DW_OP_LLVM_entry_value 1] $rdi
	#DEBUG_VALUE: x264_sps_write:sps <- $rsi
	.loc	0 247 26                        # x264_src/encoder/set.c:247:26
	movl	20(%rsi), %eax
.Ltmp99:
	#DEBUG_VALUE: bs_write:s <- undef
	#DEBUG_VALUE: bs_write:i_count <- 1
	#DEBUG_VALUE: bs_write:i_bits <- undef
	.loc	4 117 36                        # x264_src/common/bs.h:117:36
	addq	%r8, %r8
	.loc	4 117 48 is_stmt 0              # x264_src/common/bs.h:117:48
	orq	%rax, %r8
	.loc	4 117 21                        # x264_src/common/bs.h:117:21
	movq	%r8, (%r10)
	.loc	4 118 19 is_stmt 1              # x264_src/common/bs.h:118:19
	leal	-1(%rcx), %eax
	movl	%eax, (%rdi)
.Ltmp100:
	.loc	4 119 23                        # x264_src/common/bs.h:119:23
	cmpl	$33, %ecx
.Ltmp101:
	.loc	4 119 13 is_stmt 0              # x264_src/common/bs.h:119:13
	jg	.LBB1_11
.Ltmp102:
# %bb.10:                               # %if.then.i398
	#DEBUG_VALUE: x264_sps_write:s <- [DW_OP_LLVM_entry_value 1] $rdi
	#DEBUG_VALUE: x264_sps_write:sps <- $rsi
	#DEBUG_VALUE: bs_write:i_count <- 1
	.loc	4 124 51 is_stmt 1              # x264_src/common/bs.h:124:51
	movl	%eax, %ecx
	shlq	%cl, %r8
.Ltmp103:
	#DEBUG_VALUE: endian_fix:x <- $r8
	#DEBUG_VALUE: endian_fix64:x <- $r8
	.loc	11 277 32                       # x264_src/common/osdep.h:277:32
	bswapq	%r8
.Ltmp104:
	.loc	4 124 25                        # x264_src/common/bs.h:124:25
	movl	%r8d, (%r11)
	.loc	4 126 23                        # x264_src/common/bs.h:126:23
	movl	(%rdi), %eax
	addl	$32, %eax
	.loc	4 127 18                        # x264_src/common/bs.h:127:18
	movq	(%r9), %r11
	addq	$4, %r11
	movq	%r11, (%r9)
.Ltmp105:
	.loc	4 117 27                        # x264_src/common/bs.h:117:27
	movq	(%r10), %r8
.Ltmp106:
.LBB1_11:                               # %bs_write.exit406
	#DEBUG_VALUE: x264_sps_write:s <- [DW_OP_LLVM_entry_value 1] $rdi
	#DEBUG_VALUE: x264_sps_write:sps <- $rsi
	#DEBUG_VALUE: bs_write:s <- undef
	#DEBUG_VALUE: bs_write:i_count <- 5
	#DEBUG_VALUE: bs_write:i_bits <- 0
	.loc	4 117 36 is_stmt 0              # x264_src/common/bs.h:117:36
	shlq	$5, %r8
	.loc	4 117 21                        # x264_src/common/bs.h:117:21
	movq	%r8, (%r10)
	.loc	4 118 19 is_stmt 1              # x264_src/common/bs.h:118:19
	leal	-5(%rax), %ecx
	movl	%ecx, (%rdi)
.Ltmp107:
	.loc	4 119 23                        # x264_src/common/bs.h:119:23
	cmpl	$37, %eax
.Ltmp108:
	.loc	4 119 13 is_stmt 0              # x264_src/common/bs.h:119:13
	jg	.LBB1_13
.Ltmp109:
# %bb.12:                               # %if.then.i413
	#DEBUG_VALUE: x264_sps_write:s <- [DW_OP_LLVM_entry_value 1] $rdi
	#DEBUG_VALUE: x264_sps_write:sps <- $rsi
	#DEBUG_VALUE: bs_write:i_count <- 5
	#DEBUG_VALUE: bs_write:i_bits <- 0
                                        # kill: def $cl killed $cl killed $rcx
	.loc	4 124 51 is_stmt 1              # x264_src/common/bs.h:124:51
	shlq	%cl, %r8
.Ltmp110:
	#DEBUG_VALUE: endian_fix:x <- $r8
	#DEBUG_VALUE: endian_fix64:x <- $r8
	.loc	11 277 32                       # x264_src/common/osdep.h:277:32
	bswapq	%r8
.Ltmp111:
	.loc	4 124 25                        # x264_src/common/bs.h:124:25
	movl	%r8d, (%r11)
	.loc	4 126 23                        # x264_src/common/bs.h:126:23
	movl	(%rdi), %ecx
	addl	$32, %ecx
	movl	%ecx, (%rdi)
	.loc	4 127 18                        # x264_src/common/bs.h:127:18
	movq	(%r9), %r11
	addq	$4, %r11
	movq	%r11, (%r9)
.Ltmp112:
	.loc	4 117 27                        # x264_src/common/bs.h:117:27
	movq	(%r10), %r8
.Ltmp113:
.LBB1_13:                               # %bs_write.exit421
	#DEBUG_VALUE: x264_sps_write:s <- [DW_OP_LLVM_entry_value 1] $rdi
	#DEBUG_VALUE: x264_sps_write:sps <- $rsi
	.loc	0 251 26                        # x264_src/encoder/set.c:251:26
	movl	8(%rsi), %eax
.Ltmp114:
	#DEBUG_VALUE: bs_write:s <- undef
	#DEBUG_VALUE: bs_write:i_count <- 8
	#DEBUG_VALUE: bs_write:i_bits <- undef
	.loc	4 117 36                        # x264_src/common/bs.h:117:36
	shlq	$8, %r8
	.loc	4 117 48 is_stmt 0              # x264_src/common/bs.h:117:48
	orq	%rax, %r8
	.loc	4 117 21                        # x264_src/common/bs.h:117:21
	movq	%r8, (%r10)
	.loc	4 118 19 is_stmt 1              # x264_src/common/bs.h:118:19
	leal	-8(%rcx), %eax
	movl	%eax, (%rdi)
.Ltmp115:
	.loc	4 119 23                        # x264_src/common/bs.h:119:23
	cmpl	$40, %ecx
.Ltmp116:
	.loc	4 119 13 is_stmt 0              # x264_src/common/bs.h:119:13
	jg	.LBB1_15
.Ltmp117:
# %bb.14:                               # %if.then.i429
	#DEBUG_VALUE: x264_sps_write:s <- [DW_OP_LLVM_entry_value 1] $rdi
	#DEBUG_VALUE: x264_sps_write:sps <- $rsi
	#DEBUG_VALUE: bs_write:i_count <- 8
	.loc	4 124 51 is_stmt 1              # x264_src/common/bs.h:124:51
	movl	%eax, %ecx
	shlq	%cl, %r8
.Ltmp118:
	#DEBUG_VALUE: endian_fix:x <- $r8
	#DEBUG_VALUE: endian_fix64:x <- $r8
	.loc	11 277 32                       # x264_src/common/osdep.h:277:32
	bswapq	%r8
.Ltmp119:
	.loc	4 124 25                        # x264_src/common/bs.h:124:25
	movl	%r8d, (%r11)
	.loc	4 126 23                        # x264_src/common/bs.h:126:23
	movl	(%rdi), %eax
	addl	$32, %eax
	movl	%eax, (%rdi)
	.loc	4 127 18                        # x264_src/common/bs.h:127:18
	movq	(%r9), %r11
	addq	$4, %r11
	movq	%r11, (%r9)
.Ltmp120:
	.loc	4 117 27                        # x264_src/common/bs.h:117:27
	movq	(%r10), %r8
.Ltmp121:
.LBB1_15:                               # %bs_write.exit437
	#DEBUG_VALUE: x264_sps_write:s <- [DW_OP_LLVM_entry_value 1] $rdi
	#DEBUG_VALUE: x264_sps_write:sps <- $rsi
	pushq	%rbp
	.cfi_def_cfa_offset 16
	pushq	%r14
	.cfi_def_cfa_offset 24
	pushq	%rbx
	.cfi_def_cfa_offset 32
	.cfi_offset %rbx, -32
	.cfi_offset %r14, -24
	.cfi_offset %rbp, -16
	.loc	0 253 26                        # x264_src/encoder/set.c:253:26
	movl	(%rsi), %ebx
.Ltmp122:
	#DEBUG_VALUE: bs_write_ue_big:val <- $ebx
	#DEBUG_VALUE: bs_write_ue_big:s <- undef
	#DEBUG_VALUE: bs_write_ue_big:size <- 0
	.loc	4 211 15                        # x264_src/common/bs.h:211:15
	incl	%ebx
.Ltmp123:
	#DEBUG_VALUE: bs_write_ue_big:val <- $ebx
	#DEBUG_VALUE: bs_write_ue_big:tmp <- $ebx
	.loc	4 0 15 is_stmt 0                # x264_src/common/bs.h:0:15
	movl	%ebx, %ecx
	shrl	$16, %ecx
.Ltmp124:
	.loc	4 212 13 is_stmt 1              # x264_src/common/bs.h:212:13
	xorl	%edx, %edx
	cmpl	$65536, %ebx                    # imm = 0x10000
.Ltmp125:
	.loc	4 212 9 is_stmt 0               # x264_src/common/bs.h:212:9
	cmovll	%ebx, %ecx
.Ltmp126:
	#DEBUG_VALUE: bs_write_ue_big:tmp <- $ecx
	.loc	4 212 13                        # x264_src/common/bs.h:212:13
	setge	%dl
.Ltmp127:
	.loc	4 212 9                         # x264_src/common/bs.h:212:9
	shll	$5, %edx
.Ltmp128:
	#DEBUG_VALUE: bs_write_ue_big:size <- $edx
	.loc	4 217 9 is_stmt 1               # x264_src/common/bs.h:217:9
	movl	%ecx, %ebp
	shrl	$8, %ebp
	leal	16(%rdx), %r14d
.Ltmp129:
	.loc	4 217 13 is_stmt 0              # x264_src/common/bs.h:217:13
	cmpl	$256, %ecx                      # imm = 0x100
.Ltmp130:
	.loc	4 217 9                         # x264_src/common/bs.h:217:9
	cmovll	%ecx, %ebp
.Ltmp131:
	#DEBUG_VALUE: bs_write_ue_big:tmp <- $ebp
	#DEBUG_VALUE: bs_write_ue_big:size <- undef
	.loc	4 222 13 is_stmt 1              # x264_src/common/bs.h:222:13
	movslq	%ebp, %rcx
	.loc	4 223 22                        # x264_src/common/bs.h:223:22
	movzbl	%r14b, %ebp
.Ltmp132:
	cmovll	%edx, %ebp
	.loc	4 222 13                        # x264_src/common/bs.h:222:13
	movzbl	x264_ue_size_tab(%rcx), %ecx
	.loc	4 223 22                        # x264_src/common/bs.h:223:22
	movzbl	%bpl, %edx
	addl	%ecx, %edx
	shrl	%edx
.Ltmp133:
	#DEBUG_VALUE: bs_write:i_count <- $edx
	#DEBUG_VALUE: bs_write:s <- undef
	#DEBUG_VALUE: bs_write:i_bits <- 0
	.loc	4 117 36                        # x264_src/common/bs.h:117:36
	movl	%edx, %ecx
	shlq	%cl, %r8
	.loc	4 117 21 is_stmt 0              # x264_src/common/bs.h:117:21
	movq	%r8, (%r10)
	.loc	4 118 19 is_stmt 1              # x264_src/common/bs.h:118:19
	subl	%edx, %eax
	movl	%eax, (%rdi)
.Ltmp134:
	.loc	4 119 23                        # x264_src/common/bs.h:119:23
	cmpl	$32, %eax
.Ltmp135:
	.loc	4 119 13 is_stmt 0              # x264_src/common/bs.h:119:13
	jg	.LBB1_17
.Ltmp136:
# %bb.16:                               # %if.then.i.i
	#DEBUG_VALUE: x264_sps_write:s <- [DW_OP_LLVM_entry_value 1] $rdi
	#DEBUG_VALUE: x264_sps_write:sps <- $rsi
	#DEBUG_VALUE: bs_write_ue_big:val <- $ebx
	#DEBUG_VALUE: bs_write:i_count <- $ecx
	#DEBUG_VALUE: bs_write:i_bits <- 0
	.loc	4 124 51 is_stmt 1              # x264_src/common/bs.h:124:51
	movl	%eax, %ecx
.Ltmp137:
	#DEBUG_VALUE: bs_write:i_count <- $edx
	shlq	%cl, %r8
.Ltmp138:
	#DEBUG_VALUE: endian_fix:x <- $r8
	#DEBUG_VALUE: endian_fix64:x <- $r8
	.loc	11 277 32                       # x264_src/common/osdep.h:277:32
	bswapq	%r8
.Ltmp139:
	.loc	4 124 25                        # x264_src/common/bs.h:124:25
	movl	%r8d, (%r11)
	.loc	4 126 23                        # x264_src/common/bs.h:126:23
	movl	(%rdi), %eax
	addl	$32, %eax
	.loc	4 127 18                        # x264_src/common/bs.h:127:18
	movq	(%r9), %r11
	addq	$4, %r11
	movq	%r11, (%r9)
.Ltmp140:
	.loc	4 117 27                        # x264_src/common/bs.h:117:27
	movq	(%r10), %r8
.Ltmp141:
.LBB1_17:                               # %bs_write.exit.i
	#DEBUG_VALUE: x264_sps_write:s <- [DW_OP_LLVM_entry_value 1] $rdi
	#DEBUG_VALUE: x264_sps_write:sps <- $rsi
	#DEBUG_VALUE: bs_write_ue_big:val <- $ebx
	.loc	4 224 27                        # x264_src/common/bs.h:224:27
	incl	%edx
.Ltmp142:
	#DEBUG_VALUE: bs_write:i_count <- $edx
	#DEBUG_VALUE: bs_write:s <- undef
	#DEBUG_VALUE: bs_write:i_bits <- $ebx
	.loc	4 117 36                        # x264_src/common/bs.h:117:36
	movl	%edx, %ecx
	shlq	%cl, %r8
	.loc	4 117 50 is_stmt 0              # x264_src/common/bs.h:117:50
	movl	%ebx, %ebx
.Ltmp143:
	.loc	4 117 48                        # x264_src/common/bs.h:117:48
	orq	%r8, %rbx
	.loc	4 117 21                        # x264_src/common/bs.h:117:21
	movq	%rbx, (%r10)
	.loc	4 118 19 is_stmt 1              # x264_src/common/bs.h:118:19
	subl	%edx, %eax
	movl	%eax, (%rdi)
.Ltmp144:
	.loc	4 119 23                        # x264_src/common/bs.h:119:23
	cmpl	$32, %eax
.Ltmp145:
	.loc	4 119 13 is_stmt 0              # x264_src/common/bs.h:119:13
	jg	.LBB1_19
.Ltmp146:
# %bb.18:                               # %if.then.i25.i
	#DEBUG_VALUE: x264_sps_write:s <- [DW_OP_LLVM_entry_value 1] $rdi
	#DEBUG_VALUE: x264_sps_write:sps <- $rsi
	#DEBUG_VALUE: bs_write:i_count <- $ecx
	.loc	4 124 51 is_stmt 1              # x264_src/common/bs.h:124:51
	movl	%eax, %ecx
.Ltmp147:
	#DEBUG_VALUE: bs_write:i_count <- $edx
	shlq	%cl, %rbx
.Ltmp148:
	#DEBUG_VALUE: endian_fix:x <- $rbx
	#DEBUG_VALUE: endian_fix64:x <- $rbx
	.loc	11 277 32                       # x264_src/common/osdep.h:277:32
	bswapq	%rbx
.Ltmp149:
	.loc	4 124 25                        # x264_src/common/bs.h:124:25
	movl	%ebx, (%r11)
	.loc	4 126 23                        # x264_src/common/bs.h:126:23
	movl	(%rdi), %eax
	addl	$32, %eax
	movl	%eax, (%rdi)
	.loc	4 127 18                        # x264_src/common/bs.h:127:18
	movq	(%r9), %r11
	addq	$4, %r11
	movq	%r11, (%r9)
.Ltmp150:
	.loc	4 117 27                        # x264_src/common/bs.h:117:27
	movq	(%r10), %rbx
.Ltmp151:
.LBB1_19:                               # %bs_write_ue_big.exit
	#DEBUG_VALUE: x264_sps_write:s <- [DW_OP_LLVM_entry_value 1] $rdi
	#DEBUG_VALUE: x264_sps_write:sps <- $rsi
	.loc	0 255 28                        # x264_src/encoder/set.c:255:28
	cmpl	$100, 4(%rsi)
.Ltmp152:
	.loc	0 255 9 is_stmt 0               # x264_src/encoder/set.c:255:9
	jl	.LBB1_34
.Ltmp153:
# %bb.20:                               # %if.then
	#DEBUG_VALUE: x264_sps_write:s <- [DW_OP_LLVM_entry_value 1] $rdi
	#DEBUG_VALUE: x264_sps_write:sps <- $rsi
	#DEBUG_VALUE: bs_write_ue_big:s <- undef
	#DEBUG_VALUE: bs_write_ue_big:val <- 2
	#DEBUG_VALUE: bs_write_ue_big:tmp <- 2
	#DEBUG_VALUE: bs_write_ue_big:size <- 3
	#DEBUG_VALUE: bs_write:s <- undef
	#DEBUG_VALUE: bs_write:i_count <- 1
	#DEBUG_VALUE: bs_write:i_bits <- 0
	.loc	4 117 36 is_stmt 1              # x264_src/common/bs.h:117:36
	addq	%rbx, %rbx
	.loc	4 117 21 is_stmt 0              # x264_src/common/bs.h:117:21
	movq	%rbx, (%r10)
	.loc	4 118 19 is_stmt 1              # x264_src/common/bs.h:118:19
	leal	-1(%rax), %edx
	movl	%edx, (%rdi)
.Ltmp154:
	.loc	4 119 23                        # x264_src/common/bs.h:119:23
	cmpl	$33, %eax
.Ltmp155:
	.loc	4 119 13 is_stmt 0              # x264_src/common/bs.h:119:13
	jg	.LBB1_22
.Ltmp156:
# %bb.21:                               # %if.then.i.i460
	#DEBUG_VALUE: x264_sps_write:s <- [DW_OP_LLVM_entry_value 1] $rdi
	#DEBUG_VALUE: x264_sps_write:sps <- $rsi
	#DEBUG_VALUE: bs_write_ue_big:val <- 2
	#DEBUG_VALUE: bs_write_ue_big:tmp <- 2
	#DEBUG_VALUE: bs_write_ue_big:size <- 3
	#DEBUG_VALUE: bs_write:i_count <- 1
	#DEBUG_VALUE: bs_write:i_bits <- 0
	.loc	4 124 51 is_stmt 1              # x264_src/common/bs.h:124:51
	movl	%edx, %ecx
	shlq	%cl, %rbx
.Ltmp157:
	#DEBUG_VALUE: endian_fix:x <- $rbx
	#DEBUG_VALUE: endian_fix64:x <- $rbx
	.loc	11 277 32                       # x264_src/common/osdep.h:277:32
	bswapq	%rbx
.Ltmp158:
	.loc	4 124 25                        # x264_src/common/bs.h:124:25
	movl	%ebx, (%r11)
	.loc	4 126 23                        # x264_src/common/bs.h:126:23
	movl	(%rdi), %edx
	addl	$32, %edx
	.loc	4 127 18                        # x264_src/common/bs.h:127:18
	movq	(%r9), %r11
	addq	$4, %r11
	movq	%r11, (%r9)
.Ltmp159:
	.loc	4 117 27                        # x264_src/common/bs.h:117:27
	movq	(%r10), %rbx
.Ltmp160:
.LBB1_22:                               # %bs_write.exit.i447
	#DEBUG_VALUE: x264_sps_write:s <- [DW_OP_LLVM_entry_value 1] $rdi
	#DEBUG_VALUE: x264_sps_write:sps <- $rsi
	#DEBUG_VALUE: bs_write_ue_big:val <- 2
	#DEBUG_VALUE: bs_write_ue_big:tmp <- 2
	#DEBUG_VALUE: bs_write_ue_big:size <- 3
	#DEBUG_VALUE: bs_write:s <- undef
	#DEBUG_VALUE: bs_write:i_count <- 2
	#DEBUG_VALUE: bs_write:i_bits <- 2
	.loc	4 117 48 is_stmt 0              # x264_src/common/bs.h:117:48
	leaq	2(,%rbx,4), %rax
	.loc	4 117 21                        # x264_src/common/bs.h:117:21
	movq	%rax, (%r10)
	.loc	4 118 19 is_stmt 1              # x264_src/common/bs.h:118:19
	leal	-2(%rdx), %ecx
	movl	%ecx, (%rdi)
.Ltmp161:
	.loc	4 119 23                        # x264_src/common/bs.h:119:23
	cmpl	$34, %edx
.Ltmp162:
	.loc	4 119 13 is_stmt 0              # x264_src/common/bs.h:119:13
	jg	.LBB1_25
.Ltmp163:
# %bb.23:                               # %bs_write_ue_big.exit469
	#DEBUG_VALUE: x264_sps_write:s <- [DW_OP_LLVM_entry_value 1] $rdi
	#DEBUG_VALUE: x264_sps_write:sps <- $rsi
	#DEBUG_VALUE: bs_write_ue_big:val <- 2
	#DEBUG_VALUE: bs_write_ue_big:tmp <- 2
	#DEBUG_VALUE: bs_write_ue_big:size <- 3
	#DEBUG_VALUE: bs_write:i_count <- 2
	#DEBUG_VALUE: bs_write:i_bits <- 2
                                        # kill: def $cl killed $cl killed $rcx
	.loc	4 124 51 is_stmt 1              # x264_src/common/bs.h:124:51
	shlq	%cl, %rax
.Ltmp164:
	#DEBUG_VALUE: endian_fix:x <- $rax
	#DEBUG_VALUE: endian_fix64:x <- $rax
	.loc	11 277 32                       # x264_src/common/osdep.h:277:32
	bswapq	%rax
.Ltmp165:
	.loc	4 124 25                        # x264_src/common/bs.h:124:25
	movl	%eax, (%r11)
	.loc	4 126 23                        # x264_src/common/bs.h:126:23
	movl	(%rdi), %edx
	leal	32(%rdx), %ecx
	movl	%ecx, (%rdi)
	.loc	4 127 18                        # x264_src/common/bs.h:127:18
	movq	(%r9), %r11
	addq	$4, %r11
	movq	%r11, (%r9)
.Ltmp166:
	#DEBUG_VALUE: bs_write_ue_big:s <- undef
	#DEBUG_VALUE: bs_write_ue_big:val <- 1
	#DEBUG_VALUE: bs_write_ue_big:tmp <- 1
	#DEBUG_VALUE: bs_write_ue_big:size <- 1
	#DEBUG_VALUE: bs_write:s <- undef
	#DEBUG_VALUE: bs_write:i_count <- 0
	#DEBUG_VALUE: bs_write:i_bits <- 0
	.loc	4 117 27                        # x264_src/common/bs.h:117:27
	movq	(%r10), %rax
.Ltmp167:
	.loc	4 119 23                        # x264_src/common/bs.h:119:23
	testl	%edx, %edx
.Ltmp168:
	.loc	4 119 13 is_stmt 0              # x264_src/common/bs.h:119:13
	jg	.LBB1_25
.Ltmp169:
# %bb.24:                               # %if.then.i.i488
	#DEBUG_VALUE: x264_sps_write:s <- [DW_OP_LLVM_entry_value 1] $rdi
	#DEBUG_VALUE: x264_sps_write:sps <- $rsi
	#DEBUG_VALUE: bs_write_ue_big:val <- 1
	#DEBUG_VALUE: bs_write_ue_big:tmp <- 1
	#DEBUG_VALUE: bs_write_ue_big:size <- 1
	#DEBUG_VALUE: bs_write:i_count <- 0
	#DEBUG_VALUE: bs_write:i_bits <- 0
                                        # kill: def $cl killed $cl killed $rcx
	.loc	4 124 51 is_stmt 1              # x264_src/common/bs.h:124:51
	shlq	%cl, %rax
.Ltmp170:
	#DEBUG_VALUE: endian_fix:x <- $rax
	#DEBUG_VALUE: endian_fix64:x <- $rax
	.loc	11 277 32                       # x264_src/common/osdep.h:277:32
	bswapq	%rax
.Ltmp171:
	.loc	4 124 25                        # x264_src/common/bs.h:124:25
	movl	%eax, (%r11)
	.loc	4 126 23                        # x264_src/common/bs.h:126:23
	movl	(%rdi), %ecx
	addl	$32, %ecx
	.loc	4 127 18                        # x264_src/common/bs.h:127:18
	movq	(%r9), %r11
	addq	$4, %r11
	movq	%r11, (%r9)
.Ltmp172:
	.loc	4 117 27                        # x264_src/common/bs.h:117:27
	movq	(%r10), %rax
.Ltmp173:
.LBB1_25:                               # %bs_write.exit.i475
	#DEBUG_VALUE: x264_sps_write:s <- [DW_OP_LLVM_entry_value 1] $rdi
	#DEBUG_VALUE: x264_sps_write:sps <- $rsi
	#DEBUG_VALUE: bs_write:s <- undef
	#DEBUG_VALUE: bs_write:i_count <- 1
	#DEBUG_VALUE: bs_write:i_bits <- 1
	.loc	4 117 48 is_stmt 0              # x264_src/common/bs.h:117:48
	leaq	1(,%rax,2), %rdx
	.loc	4 117 21                        # x264_src/common/bs.h:117:21
	movq	%rdx, (%r10)
	.loc	4 118 19 is_stmt 1              # x264_src/common/bs.h:118:19
	leal	-1(%rcx), %eax
	movl	%eax, (%rdi)
.Ltmp174:
	.loc	4 119 23                        # x264_src/common/bs.h:119:23
	cmpl	$33, %ecx
.Ltmp175:
	.loc	4 119 13 is_stmt 0              # x264_src/common/bs.h:119:13
	jg	.LBB1_28
.Ltmp176:
# %bb.26:                               # %bs_write_ue_big.exit497
	#DEBUG_VALUE: x264_sps_write:s <- [DW_OP_LLVM_entry_value 1] $rdi
	#DEBUG_VALUE: x264_sps_write:sps <- $rsi
	#DEBUG_VALUE: bs_write:i_count <- 1
	#DEBUG_VALUE: bs_write:i_bits <- 1
	.loc	4 124 51 is_stmt 1              # x264_src/common/bs.h:124:51
	movl	%eax, %ecx
	shlq	%cl, %rdx
.Ltmp177:
	#DEBUG_VALUE: endian_fix:x <- $rdx
	#DEBUG_VALUE: endian_fix64:x <- $rdx
	.loc	11 277 32                       # x264_src/common/osdep.h:277:32
	bswapq	%rdx
.Ltmp178:
	.loc	4 124 25                        # x264_src/common/bs.h:124:25
	movl	%edx, (%r11)
	.loc	4 126 23                        # x264_src/common/bs.h:126:23
	movl	(%rdi), %ecx
	leal	32(%rcx), %eax
	movl	%eax, (%rdi)
	.loc	4 127 18                        # x264_src/common/bs.h:127:18
	movq	(%r9), %r11
	addq	$4, %r11
	movq	%r11, (%r9)
.Ltmp179:
	#DEBUG_VALUE: bs_write_ue_big:s <- undef
	#DEBUG_VALUE: bs_write_ue_big:val <- 1
	#DEBUG_VALUE: bs_write_ue_big:tmp <- 1
	#DEBUG_VALUE: bs_write_ue_big:size <- 1
	#DEBUG_VALUE: bs_write:s <- undef
	#DEBUG_VALUE: bs_write:i_count <- 0
	#DEBUG_VALUE: bs_write:i_bits <- 0
	.loc	4 117 27                        # x264_src/common/bs.h:117:27
	movq	(%r10), %rdx
.Ltmp180:
	.loc	4 119 23                        # x264_src/common/bs.h:119:23
	testl	%ecx, %ecx
.Ltmp181:
	.loc	4 119 13 is_stmt 0              # x264_src/common/bs.h:119:13
	jg	.LBB1_28
.Ltmp182:
# %bb.27:                               # %if.then.i.i516
	#DEBUG_VALUE: x264_sps_write:s <- [DW_OP_LLVM_entry_value 1] $rdi
	#DEBUG_VALUE: x264_sps_write:sps <- $rsi
	#DEBUG_VALUE: bs_write_ue_big:val <- 1
	#DEBUG_VALUE: bs_write_ue_big:tmp <- 1
	#DEBUG_VALUE: bs_write_ue_big:size <- 1
	#DEBUG_VALUE: bs_write:i_count <- 0
	#DEBUG_VALUE: bs_write:i_bits <- 0
	.loc	4 124 51 is_stmt 1              # x264_src/common/bs.h:124:51
	movl	%eax, %ecx
	shlq	%cl, %rdx
.Ltmp183:
	#DEBUG_VALUE: endian_fix:x <- $rdx
	#DEBUG_VALUE: endian_fix64:x <- $rdx
	.loc	11 277 32                       # x264_src/common/osdep.h:277:32
	bswapq	%rdx
.Ltmp184:
	.loc	4 124 25                        # x264_src/common/bs.h:124:25
	movl	%edx, (%r11)
	.loc	4 126 23                        # x264_src/common/bs.h:126:23
	movl	(%rdi), %eax
	addl	$32, %eax
	.loc	4 127 18                        # x264_src/common/bs.h:127:18
	movq	(%r9), %r11
	addq	$4, %r11
	movq	%r11, (%r9)
.Ltmp185:
	.loc	4 117 27                        # x264_src/common/bs.h:117:27
	movq	(%r10), %rdx
.Ltmp186:
.LBB1_28:                               # %bs_write.exit.i503
	#DEBUG_VALUE: x264_sps_write:s <- [DW_OP_LLVM_entry_value 1] $rdi
	#DEBUG_VALUE: x264_sps_write:sps <- $rsi
	#DEBUG_VALUE: bs_write:s <- undef
	#DEBUG_VALUE: bs_write:i_count <- 1
	#DEBUG_VALUE: bs_write:i_bits <- 1
	.loc	4 117 48 is_stmt 0              # x264_src/common/bs.h:117:48
	leaq	1(,%rdx,2), %rbx
	.loc	4 117 21                        # x264_src/common/bs.h:117:21
	movq	%rbx, (%r10)
	.loc	4 118 19 is_stmt 1              # x264_src/common/bs.h:118:19
	leal	-1(%rax), %ecx
	movl	%ecx, (%rdi)
.Ltmp187:
	.loc	4 119 23                        # x264_src/common/bs.h:119:23
	cmpl	$33, %eax
.Ltmp188:
	.loc	4 119 13 is_stmt 0              # x264_src/common/bs.h:119:13
	jg	.LBB1_30
.Ltmp189:
# %bb.29:                               # %if.then.i25.i508
	#DEBUG_VALUE: x264_sps_write:s <- [DW_OP_LLVM_entry_value 1] $rdi
	#DEBUG_VALUE: x264_sps_write:sps <- $rsi
	#DEBUG_VALUE: bs_write:i_count <- 1
	#DEBUG_VALUE: bs_write:i_bits <- 1
                                        # kill: def $cl killed $cl killed $rcx
	.loc	4 124 51 is_stmt 1              # x264_src/common/bs.h:124:51
	shlq	%cl, %rbx
.Ltmp190:
	#DEBUG_VALUE: endian_fix:x <- $rbx
	#DEBUG_VALUE: endian_fix64:x <- $rbx
	.loc	11 277 32                       # x264_src/common/osdep.h:277:32
	bswapq	%rbx
.Ltmp191:
	.loc	4 124 25                        # x264_src/common/bs.h:124:25
	movl	%ebx, (%r11)
	.loc	4 126 23                        # x264_src/common/bs.h:126:23
	movl	(%rdi), %ecx
	addl	$32, %ecx
	movl	%ecx, (%rdi)
	.loc	4 127 18                        # x264_src/common/bs.h:127:18
	movq	(%r9), %r11
	addq	$4, %r11
	movq	%r11, (%r9)
.Ltmp192:
	.loc	4 117 27                        # x264_src/common/bs.h:117:27
	movq	(%r10), %rbx
.Ltmp193:
.LBB1_30:                               # %bs_write_ue_big.exit525
	#DEBUG_VALUE: x264_sps_write:s <- [DW_OP_LLVM_entry_value 1] $rdi
	#DEBUG_VALUE: x264_sps_write:sps <- $rsi
	.loc	0 260 30                        # x264_src/encoder/set.c:260:30
	movl	1296(%rsi), %eax
.Ltmp194:
	#DEBUG_VALUE: bs_write:s <- undef
	#DEBUG_VALUE: bs_write:i_count <- 1
	#DEBUG_VALUE: bs_write:i_bits <- undef
	.loc	4 117 36                        # x264_src/common/bs.h:117:36
	addq	%rbx, %rbx
	.loc	4 117 48 is_stmt 0              # x264_src/common/bs.h:117:48
	orq	%rax, %rbx
	.loc	4 117 21                        # x264_src/common/bs.h:117:21
	movq	%rbx, (%r10)
	.loc	4 118 19 is_stmt 1              # x264_src/common/bs.h:118:19
	leal	-1(%rcx), %edx
	movl	%edx, (%rdi)
.Ltmp195:
	.loc	4 119 23                        # x264_src/common/bs.h:119:23
	cmpl	$33, %ecx
.Ltmp196:
	.loc	4 119 13 is_stmt 0              # x264_src/common/bs.h:119:13
	jg	.LBB1_32
.Ltmp197:
# %bb.31:                               # %if.then.i533
	#DEBUG_VALUE: x264_sps_write:s <- [DW_OP_LLVM_entry_value 1] $rdi
	#DEBUG_VALUE: x264_sps_write:sps <- $rsi
	#DEBUG_VALUE: bs_write:i_count <- 1
	.loc	4 124 51 is_stmt 1              # x264_src/common/bs.h:124:51
	movl	%edx, %ecx
	shlq	%cl, %rbx
.Ltmp198:
	#DEBUG_VALUE: endian_fix:x <- $rbx
	#DEBUG_VALUE: endian_fix64:x <- $rbx
	.loc	11 277 32                       # x264_src/common/osdep.h:277:32
	bswapq	%rbx
.Ltmp199:
	.loc	4 124 25                        # x264_src/common/bs.h:124:25
	movl	%ebx, (%r11)
	.loc	4 126 23                        # x264_src/common/bs.h:126:23
	movl	(%rdi), %edx
	addl	$32, %edx
	.loc	4 127 18                        # x264_src/common/bs.h:127:18
	movq	(%r9), %r11
	addq	$4, %r11
	movq	%r11, (%r9)
.Ltmp200:
	.loc	4 117 27                        # x264_src/common/bs.h:117:27
	movq	(%r10), %rbx
.Ltmp201:
.LBB1_32:                               # %bs_write.exit541
	#DEBUG_VALUE: x264_sps_write:s <- [DW_OP_LLVM_entry_value 1] $rdi
	#DEBUG_VALUE: x264_sps_write:sps <- $rsi
	#DEBUG_VALUE: bs_write:s <- undef
	#DEBUG_VALUE: bs_write:i_count <- 1
	#DEBUG_VALUE: bs_write:i_bits <- 0
	.loc	4 117 36 is_stmt 0              # x264_src/common/bs.h:117:36
	addq	%rbx, %rbx
	.loc	4 117 21                        # x264_src/common/bs.h:117:21
	movq	%rbx, (%r10)
	.loc	4 118 19 is_stmt 1              # x264_src/common/bs.h:118:19
	leal	-1(%rdx), %eax
	movl	%eax, (%rdi)
.Ltmp202:
	.loc	4 119 23                        # x264_src/common/bs.h:119:23
	cmpl	$33, %edx
.Ltmp203:
	.loc	4 119 13 is_stmt 0              # x264_src/common/bs.h:119:13
	jg	.LBB1_34
.Ltmp204:
# %bb.33:                               # %if.then.i548
	#DEBUG_VALUE: x264_sps_write:s <- [DW_OP_LLVM_entry_value 1] $rdi
	#DEBUG_VALUE: x264_sps_write:sps <- $rsi
	#DEBUG_VALUE: bs_write:i_count <- 1
	#DEBUG_VALUE: bs_write:i_bits <- 0
	.loc	4 124 51 is_stmt 1              # x264_src/common/bs.h:124:51
	movl	%eax, %ecx
	shlq	%cl, %rbx
.Ltmp205:
	#DEBUG_VALUE: endian_fix:x <- $rbx
	#DEBUG_VALUE: endian_fix64:x <- $rbx
	.loc	11 277 32                       # x264_src/common/osdep.h:277:32
	bswapq	%rbx
.Ltmp206:
	.loc	4 124 25                        # x264_src/common/bs.h:124:25
	movl	%ebx, (%r11)
	.loc	4 126 23                        # x264_src/common/bs.h:126:23
	movl	(%rdi), %eax
	addl	$32, %eax
	movl	%eax, (%rdi)
	.loc	4 127 18                        # x264_src/common/bs.h:127:18
	movq	(%r9), %r11
	addq	$4, %r11
	movq	%r11, (%r9)
.Ltmp207:
	.loc	4 117 27                        # x264_src/common/bs.h:117:27
	movq	(%r10), %rbx
.Ltmp208:
.LBB1_34:                               # %if.end
	#DEBUG_VALUE: x264_sps_write:s <- [DW_OP_LLVM_entry_value 1] $rdi
	#DEBUG_VALUE: x264_sps_write:sps <- $rsi
	.loc	0 264 26                        # x264_src/encoder/set.c:264:26
	movl	24(%rsi), %ecx
.Ltmp209:
	#DEBUG_VALUE: bs_write_ue_big:val <- [DW_OP_constu 4, DW_OP_minus, DW_OP_stack_value] $ecx
	#DEBUG_VALUE: bs_write_ue_big:s <- undef
	#DEBUG_VALUE: bs_write_ue_big:size <- 0
	.loc	4 211 15                        # x264_src/common/bs.h:211:15
	leal	-3(%rcx), %r8d
.Ltmp210:
	#DEBUG_VALUE: bs_write_ue_big:val <- $r8d
	#DEBUG_VALUE: bs_write_ue_big:tmp <- $r8d
	.loc	4 0 15 is_stmt 0                # x264_src/common/bs.h:0:15
	movl	%r8d, %edx
	shrl	$16, %edx
.Ltmp211:
	.loc	4 212 13 is_stmt 1              # x264_src/common/bs.h:212:13
	xorl	%r14d, %r14d
	cmpl	$65539, %ecx                    # imm = 0x10003
.Ltmp212:
	.loc	4 212 9 is_stmt 0               # x264_src/common/bs.h:212:9
	cmovll	%r8d, %edx
.Ltmp213:
	#DEBUG_VALUE: bs_write_ue_big:tmp <- $edx
	.loc	4 212 13                        # x264_src/common/bs.h:212:13
	setge	%r14b
.Ltmp214:
	.loc	4 212 9                         # x264_src/common/bs.h:212:9
	shll	$5, %r14d
.Ltmp215:
	#DEBUG_VALUE: bs_write_ue_big:size <- $r14d
	.loc	4 217 9 is_stmt 1               # x264_src/common/bs.h:217:9
	movl	%edx, %ecx
	shrl	$8, %ecx
	leal	16(%r14), %ebp
.Ltmp216:
	.loc	4 217 13 is_stmt 0              # x264_src/common/bs.h:217:13
	cmpl	$256, %edx                      # imm = 0x100
.Ltmp217:
	.loc	4 217 9                         # x264_src/common/bs.h:217:9
	cmovll	%edx, %ecx
.Ltmp218:
	#DEBUG_VALUE: bs_write_ue_big:tmp <- $ecx
	#DEBUG_VALUE: bs_write_ue_big:size <- undef
	.loc	4 222 13 is_stmt 1              # x264_src/common/bs.h:222:13
	movslq	%ecx, %rcx
.Ltmp219:
	.loc	4 223 22                        # x264_src/common/bs.h:223:22
	movzbl	%bpl, %edx
	cmovll	%r14d, %edx
	.loc	4 222 13                        # x264_src/common/bs.h:222:13
	movzbl	x264_ue_size_tab(%rcx), %ecx
	.loc	4 223 22                        # x264_src/common/bs.h:223:22
	movzbl	%dl, %edx
	addl	%ecx, %edx
	shrl	%edx
.Ltmp220:
	#DEBUG_VALUE: bs_write:i_count <- $edx
	#DEBUG_VALUE: bs_write:s <- undef
	#DEBUG_VALUE: bs_write:i_bits <- 0
	.loc	4 117 36                        # x264_src/common/bs.h:117:36
	movl	%edx, %ecx
	shlq	%cl, %rbx
	.loc	4 117 21 is_stmt 0              # x264_src/common/bs.h:117:21
	movq	%rbx, (%r10)
	.loc	4 118 19 is_stmt 1              # x264_src/common/bs.h:118:19
	subl	%edx, %eax
	movl	%eax, (%rdi)
.Ltmp221:
	.loc	4 119 23                        # x264_src/common/bs.h:119:23
	cmpl	$32, %eax
.Ltmp222:
	.loc	4 119 13 is_stmt 0              # x264_src/common/bs.h:119:13
	jg	.LBB1_36
.Ltmp223:
# %bb.35:                               # %if.then.i.i594
	#DEBUG_VALUE: x264_sps_write:s <- [DW_OP_LLVM_entry_value 1] $rdi
	#DEBUG_VALUE: x264_sps_write:sps <- $rsi
	#DEBUG_VALUE: bs_write_ue_big:val <- $r8d
	#DEBUG_VALUE: bs_write:i_count <- $ecx
	#DEBUG_VALUE: bs_write:i_bits <- 0
	.loc	4 124 51 is_stmt 1              # x264_src/common/bs.h:124:51
	movl	%eax, %ecx
.Ltmp224:
	#DEBUG_VALUE: bs_write:i_count <- $edx
	shlq	%cl, %rbx
.Ltmp225:
	#DEBUG_VALUE: endian_fix:x <- $rbx
	#DEBUG_VALUE: endian_fix64:x <- $rbx
	.loc	11 277 32                       # x264_src/common/osdep.h:277:32
	bswapq	%rbx
.Ltmp226:
	.loc	4 124 25                        # x264_src/common/bs.h:124:25
	movl	%ebx, (%r11)
	.loc	4 126 23                        # x264_src/common/bs.h:126:23
	movl	(%rdi), %eax
	addl	$32, %eax
	.loc	4 127 18                        # x264_src/common/bs.h:127:18
	movq	(%r9), %r11
	addq	$4, %r11
	movq	%r11, (%r9)
.Ltmp227:
	.loc	4 117 27                        # x264_src/common/bs.h:117:27
	movq	(%r10), %rbx
.Ltmp228:
.LBB1_36:                               # %bs_write.exit.i578
	#DEBUG_VALUE: x264_sps_write:s <- [DW_OP_LLVM_entry_value 1] $rdi
	#DEBUG_VALUE: x264_sps_write:sps <- $rsi
	#DEBUG_VALUE: bs_write_ue_big:val <- $r8d
	.loc	4 224 27                        # x264_src/common/bs.h:224:27
	incl	%edx
.Ltmp229:
	#DEBUG_VALUE: bs_write:i_count <- $edx
	#DEBUG_VALUE: bs_write:s <- undef
	#DEBUG_VALUE: bs_write:i_bits <- $r8d
	.loc	4 117 36                        # x264_src/common/bs.h:117:36
	movl	%edx, %ecx
	shlq	%cl, %rbx
	.loc	4 117 50 is_stmt 0              # x264_src/common/bs.h:117:50
	movl	%r8d, %r8d
.Ltmp230:
	.loc	4 117 48                        # x264_src/common/bs.h:117:48
	orq	%rbx, %r8
	.loc	4 117 21                        # x264_src/common/bs.h:117:21
	movq	%r8, (%r10)
	.loc	4 118 19 is_stmt 1              # x264_src/common/bs.h:118:19
	subl	%edx, %eax
	movl	%eax, (%rdi)
.Ltmp231:
	.loc	4 119 23                        # x264_src/common/bs.h:119:23
	cmpl	$32, %eax
.Ltmp232:
	.loc	4 119 13 is_stmt 0              # x264_src/common/bs.h:119:13
	jg	.LBB1_38
.Ltmp233:
# %bb.37:                               # %if.then.i25.i586
	#DEBUG_VALUE: x264_sps_write:s <- [DW_OP_LLVM_entry_value 1] $rdi
	#DEBUG_VALUE: x264_sps_write:sps <- $rsi
	#DEBUG_VALUE: bs_write:i_count <- $ecx
	.loc	4 124 51 is_stmt 1              # x264_src/common/bs.h:124:51
	movl	%eax, %ecx
.Ltmp234:
	#DEBUG_VALUE: bs_write:i_count <- $edx
	shlq	%cl, %r8
.Ltmp235:
	#DEBUG_VALUE: endian_fix:x <- $r8
	#DEBUG_VALUE: endian_fix64:x <- $r8
	.loc	11 277 32                       # x264_src/common/osdep.h:277:32
	bswapq	%r8
.Ltmp236:
	.loc	4 124 25                        # x264_src/common/bs.h:124:25
	movl	%r8d, (%r11)
	.loc	4 126 23                        # x264_src/common/bs.h:126:23
	movl	(%rdi), %eax
	addl	$32, %eax
	movl	%eax, (%rdi)
	.loc	4 127 18                        # x264_src/common/bs.h:127:18
	movq	(%r9), %r11
	addq	$4, %r11
	movq	%r11, (%r9)
.Ltmp237:
	.loc	4 117 27                        # x264_src/common/bs.h:117:27
	movq	(%r10), %r8
.Ltmp238:
.LBB1_38:                               # %bs_write_ue_big.exit603
	#DEBUG_VALUE: x264_sps_write:s <- [DW_OP_LLVM_entry_value 1] $rdi
	#DEBUG_VALUE: x264_sps_write:sps <- $rsi
	.loc	0 265 26                        # x264_src/encoder/set.c:265:26
	movl	28(%rsi), %ebx
.Ltmp239:
	#DEBUG_VALUE: bs_write_ue_big:val <- $ebx
	#DEBUG_VALUE: bs_write_ue_big:s <- undef
	#DEBUG_VALUE: bs_write_ue_big:size <- 0
	.loc	4 211 15                        # x264_src/common/bs.h:211:15
	incl	%ebx
.Ltmp240:
	#DEBUG_VALUE: bs_write_ue_big:val <- $ebx
	#DEBUG_VALUE: bs_write_ue_big:tmp <- $ebx
	.loc	4 0 15 is_stmt 0                # x264_src/common/bs.h:0:15
	movl	%ebx, %ecx
	shrl	$16, %ecx
.Ltmp241:
	.loc	4 212 13 is_stmt 1              # x264_src/common/bs.h:212:13
	xorl	%edx, %edx
	cmpl	$65536, %ebx                    # imm = 0x10000
.Ltmp242:
	.loc	4 212 9 is_stmt 0               # x264_src/common/bs.h:212:9
	cmovll	%ebx, %ecx
.Ltmp243:
	#DEBUG_VALUE: bs_write_ue_big:tmp <- $ecx
	.loc	4 212 13                        # x264_src/common/bs.h:212:13
	setge	%dl
.Ltmp244:
	.loc	4 212 9                         # x264_src/common/bs.h:212:9
	shll	$5, %edx
.Ltmp245:
	#DEBUG_VALUE: bs_write_ue_big:size <- $edx
	.loc	4 217 9 is_stmt 1               # x264_src/common/bs.h:217:9
	movl	%ecx, %ebp
	shrl	$8, %ebp
	leal	16(%rdx), %r14d
.Ltmp246:
	.loc	4 217 13 is_stmt 0              # x264_src/common/bs.h:217:13
	cmpl	$256, %ecx                      # imm = 0x100
.Ltmp247:
	.loc	4 217 9                         # x264_src/common/bs.h:217:9
	cmovll	%ecx, %ebp
.Ltmp248:
	#DEBUG_VALUE: bs_write_ue_big:tmp <- $ebp
	#DEBUG_VALUE: bs_write_ue_big:size <- undef
	.loc	4 222 13 is_stmt 1              # x264_src/common/bs.h:222:13
	movslq	%ebp, %rcx
	.loc	4 223 22                        # x264_src/common/bs.h:223:22
	movzbl	%r14b, %ebp
.Ltmp249:
	cmovll	%edx, %ebp
	.loc	4 222 13                        # x264_src/common/bs.h:222:13
	movzbl	x264_ue_size_tab(%rcx), %ecx
	.loc	4 223 22                        # x264_src/common/bs.h:223:22
	movzbl	%bpl, %edx
	addl	%ecx, %edx
	shrl	%edx
.Ltmp250:
	#DEBUG_VALUE: bs_write:i_count <- $edx
	#DEBUG_VALUE: bs_write:s <- undef
	#DEBUG_VALUE: bs_write:i_bits <- 0
	.loc	4 117 36                        # x264_src/common/bs.h:117:36
	movl	%edx, %ecx
	shlq	%cl, %r8
	.loc	4 117 21 is_stmt 0              # x264_src/common/bs.h:117:21
	movq	%r8, (%r10)
	.loc	4 118 19 is_stmt 1              # x264_src/common/bs.h:118:19
	subl	%edx, %eax
	movl	%eax, (%rdi)
.Ltmp251:
	.loc	4 119 23                        # x264_src/common/bs.h:119:23
	cmpl	$32, %eax
.Ltmp252:
	.loc	4 119 13 is_stmt 0              # x264_src/common/bs.h:119:13
	jg	.LBB1_40
.Ltmp253:
# %bb.39:                               # %if.then.i.i641
	#DEBUG_VALUE: x264_sps_write:s <- [DW_OP_LLVM_entry_value 1] $rdi
	#DEBUG_VALUE: x264_sps_write:sps <- $rsi
	#DEBUG_VALUE: bs_write_ue_big:val <- $ebx
	#DEBUG_VALUE: bs_write:i_count <- $ecx
	#DEBUG_VALUE: bs_write:i_bits <- 0
	.loc	4 124 51 is_stmt 1              # x264_src/common/bs.h:124:51
	movl	%eax, %ecx
.Ltmp254:
	#DEBUG_VALUE: bs_write:i_count <- $edx
	shlq	%cl, %r8
.Ltmp255:
	#DEBUG_VALUE: endian_fix:x <- $r8
	#DEBUG_VALUE: endian_fix64:x <- $r8
	.loc	11 277 32                       # x264_src/common/osdep.h:277:32
	bswapq	%r8
.Ltmp256:
	.loc	4 124 25                        # x264_src/common/bs.h:124:25
	movl	%r8d, (%r11)
	.loc	4 126 23                        # x264_src/common/bs.h:126:23
	movl	(%rdi), %eax
	addl	$32, %eax
	.loc	4 127 18                        # x264_src/common/bs.h:127:18
	movq	(%r9), %r11
	addq	$4, %r11
	movq	%r11, (%r9)
.Ltmp257:
	.loc	4 117 27                        # x264_src/common/bs.h:117:27
	movq	(%r10), %r8
.Ltmp258:
.LBB1_40:                               # %bs_write.exit.i625
	#DEBUG_VALUE: x264_sps_write:s <- [DW_OP_LLVM_entry_value 1] $rdi
	#DEBUG_VALUE: x264_sps_write:sps <- $rsi
	#DEBUG_VALUE: bs_write_ue_big:val <- $ebx
	.loc	4 224 27                        # x264_src/common/bs.h:224:27
	incl	%edx
.Ltmp259:
	#DEBUG_VALUE: bs_write:i_count <- $edx
	#DEBUG_VALUE: bs_write:s <- undef
	#DEBUG_VALUE: bs_write:i_bits <- $ebx
	.loc	4 117 36                        # x264_src/common/bs.h:117:36
	movl	%edx, %ecx
	shlq	%cl, %r8
	.loc	4 117 50 is_stmt 0              # x264_src/common/bs.h:117:50
	movl	%ebx, %ebx
.Ltmp260:
	.loc	4 117 48                        # x264_src/common/bs.h:117:48
	orq	%r8, %rbx
	.loc	4 117 21                        # x264_src/common/bs.h:117:21
	movq	%rbx, (%r10)
	.loc	4 118 19 is_stmt 1              # x264_src/common/bs.h:118:19
	subl	%edx, %eax
	movl	%eax, (%rdi)
.Ltmp261:
	.loc	4 119 23                        # x264_src/common/bs.h:119:23
	cmpl	$32, %eax
.Ltmp262:
	.loc	4 119 13 is_stmt 0              # x264_src/common/bs.h:119:13
	jg	.LBB1_42
.Ltmp263:
# %bb.41:                               # %if.then.i25.i633
	#DEBUG_VALUE: x264_sps_write:s <- [DW_OP_LLVM_entry_value 1] $rdi
	#DEBUG_VALUE: x264_sps_write:sps <- $rsi
	#DEBUG_VALUE: bs_write:i_count <- $ecx
	.loc	4 124 51 is_stmt 1              # x264_src/common/bs.h:124:51
	movl	%eax, %ecx
.Ltmp264:
	#DEBUG_VALUE: bs_write:i_count <- $edx
	shlq	%cl, %rbx
.Ltmp265:
	#DEBUG_VALUE: endian_fix:x <- $rbx
	#DEBUG_VALUE: endian_fix64:x <- $rbx
	.loc	11 277 32                       # x264_src/common/osdep.h:277:32
	bswapq	%rbx
.Ltmp266:
	.loc	4 124 25                        # x264_src/common/bs.h:124:25
	movl	%ebx, (%r11)
	.loc	4 126 23                        # x264_src/common/bs.h:126:23
	movl	(%rdi), %eax
	addl	$32, %eax
	movl	%eax, (%rdi)
	.loc	4 127 18                        # x264_src/common/bs.h:127:18
	movq	(%r9), %r11
	addq	$4, %r11
	movq	%r11, (%r9)
.Ltmp267:
.LBB1_42:                               # %bs_write_ue_big.exit650
	#DEBUG_VALUE: x264_sps_write:s <- [DW_OP_LLVM_entry_value 1] $rdi
	#DEBUG_VALUE: x264_sps_write:sps <- $rsi
	.loc	0 266 14                        # x264_src/encoder/set.c:266:14
	movl	28(%rsi), %ecx
.Ltmp268:
	.loc	0 266 9 is_stmt 0               # x264_src/encoder/set.c:266:9
	cmpl	$1, %ecx
	je	.LBB1_48
.Ltmp269:
# %bb.43:                               # %bs_write_ue_big.exit650
	#DEBUG_VALUE: x264_sps_write:s <- [DW_OP_LLVM_entry_value 1] $rdi
	#DEBUG_VALUE: x264_sps_write:sps <- $rsi
	testl	%ecx, %ecx
	jne	.LBB1_63
.Ltmp270:
# %bb.44:                               # %if.then4
	#DEBUG_VALUE: x264_sps_write:s <- [DW_OP_LLVM_entry_value 1] $rdi
	#DEBUG_VALUE: x264_sps_write:sps <- $rsi
	.loc	0 268 30 is_stmt 1              # x264_src/encoder/set.c:268:30
	movl	32(%rsi), %ecx
.Ltmp271:
	#DEBUG_VALUE: bs_write_ue_big:val <- [DW_OP_constu 4, DW_OP_minus, DW_OP_stack_value] $ecx
	#DEBUG_VALUE: bs_write_ue_big:s <- undef
	#DEBUG_VALUE: bs_write_ue_big:size <- 0
	.loc	4 211 15                        # x264_src/common/bs.h:211:15
	leal	-3(%rcx), %r8d
.Ltmp272:
	#DEBUG_VALUE: bs_write_ue_big:val <- $r8d
	#DEBUG_VALUE: bs_write_ue_big:tmp <- $r8d
	.loc	4 0 15 is_stmt 0                # x264_src/common/bs.h:0:15
	movl	%r8d, %edx
	shrl	$16, %edx
.Ltmp273:
	.loc	4 212 13 is_stmt 1              # x264_src/common/bs.h:212:13
	xorl	%ebx, %ebx
	cmpl	$65539, %ecx                    # imm = 0x10003
	setge	%bl
.Ltmp274:
	.loc	4 212 9 is_stmt 0               # x264_src/common/bs.h:212:9
	cmovll	%r8d, %edx
.Ltmp275:
	#DEBUG_VALUE: bs_write_ue_big:tmp <- $edx
	shll	$5, %ebx
.Ltmp276:
	#DEBUG_VALUE: bs_write_ue_big:size <- $ebx
	.loc	4 217 9 is_stmt 1               # x264_src/common/bs.h:217:9
	movl	%edx, %ecx
	shrl	$8, %ecx
	leal	16(%rbx), %ebp
.Ltmp277:
	.loc	4 217 13 is_stmt 0              # x264_src/common/bs.h:217:13
	cmpl	$256, %edx                      # imm = 0x100
.Ltmp278:
	.loc	4 217 9                         # x264_src/common/bs.h:217:9
	cmovll	%edx, %ecx
.Ltmp279:
	#DEBUG_VALUE: bs_write_ue_big:tmp <- $ecx
	#DEBUG_VALUE: bs_write_ue_big:size <- undef
	.loc	4 222 13 is_stmt 1              # x264_src/common/bs.h:222:13
	movslq	%ecx, %rcx
.Ltmp280:
	movzbl	x264_ue_size_tab(%rcx), %ecx
	.loc	4 223 22                        # x264_src/common/bs.h:223:22
	movzbl	%bpl, %edx
	cmovll	%ebx, %edx
	movzbl	%dl, %edx
	addl	%ecx, %edx
	shrl	%edx
.Ltmp281:
	#DEBUG_VALUE: bs_write:i_count <- $edx
	#DEBUG_VALUE: bs_write:s <- undef
	#DEBUG_VALUE: bs_write:i_bits <- 0
	.loc	4 117 27                        # x264_src/common/bs.h:117:27
	movq	(%r10), %rbx
	.loc	4 117 36 is_stmt 0              # x264_src/common/bs.h:117:36
	movl	%edx, %ecx
	shlq	%cl, %rbx
	.loc	4 117 21                        # x264_src/common/bs.h:117:21
	movq	%rbx, (%r10)
	.loc	4 118 19 is_stmt 1              # x264_src/common/bs.h:118:19
	subl	%edx, %eax
	movl	%eax, (%rdi)
.Ltmp282:
	.loc	4 119 23                        # x264_src/common/bs.h:119:23
	cmpl	$32, %eax
.Ltmp283:
	.loc	4 119 13 is_stmt 0              # x264_src/common/bs.h:119:13
	jg	.LBB1_46
.Ltmp284:
# %bb.45:                               # %if.then.i.i688
	#DEBUG_VALUE: x264_sps_write:s <- [DW_OP_LLVM_entry_value 1] $rdi
	#DEBUG_VALUE: x264_sps_write:sps <- $rsi
	#DEBUG_VALUE: bs_write_ue_big:val <- $r8d
	#DEBUG_VALUE: bs_write:i_count <- $ecx
	#DEBUG_VALUE: bs_write:i_bits <- 0
	.loc	4 124 51 is_stmt 1              # x264_src/common/bs.h:124:51
	movl	%eax, %ecx
.Ltmp285:
	#DEBUG_VALUE: bs_write:i_count <- $edx
	shlq	%cl, %rbx
.Ltmp286:
	#DEBUG_VALUE: endian_fix:x <- $rbx
	#DEBUG_VALUE: endian_fix64:x <- $rbx
	.loc	11 277 32                       # x264_src/common/osdep.h:277:32
	bswapq	%rbx
.Ltmp287:
	.loc	4 124 25                        # x264_src/common/bs.h:124:25
	movl	%ebx, (%r11)
	.loc	4 126 23                        # x264_src/common/bs.h:126:23
	movl	(%rdi), %eax
	addl	$32, %eax
	.loc	4 127 18                        # x264_src/common/bs.h:127:18
	movq	(%r9), %r11
	addq	$4, %r11
	movq	%r11, (%r9)
.Ltmp288:
	.loc	4 117 27                        # x264_src/common/bs.h:117:27
	movq	(%r10), %rbx
.Ltmp289:
.LBB1_46:                               # %bs_write.exit.i672
	#DEBUG_VALUE: x264_sps_write:s <- [DW_OP_LLVM_entry_value 1] $rdi
	#DEBUG_VALUE: x264_sps_write:sps <- $rsi
	#DEBUG_VALUE: bs_write_ue_big:val <- $r8d
	.loc	4 224 27                        # x264_src/common/bs.h:224:27
	incl	%edx
.Ltmp290:
	#DEBUG_VALUE: bs_write:i_count <- $edx
	#DEBUG_VALUE: bs_write:s <- undef
	#DEBUG_VALUE: bs_write:i_bits <- $r8d
	.loc	4 117 36                        # x264_src/common/bs.h:117:36
	movl	%edx, %ecx
	shlq	%cl, %rbx
	.loc	4 117 50 is_stmt 0              # x264_src/common/bs.h:117:50
	movl	%r8d, %r8d
.Ltmp291:
	.loc	4 117 48                        # x264_src/common/bs.h:117:48
	orq	%rbx, %r8
	.loc	4 117 21                        # x264_src/common/bs.h:117:21
	movq	%r8, (%r10)
	.loc	4 118 19 is_stmt 1              # x264_src/common/bs.h:118:19
	subl	%edx, %eax
	movl	%eax, (%rdi)
.Ltmp292:
	.loc	4 119 23                        # x264_src/common/bs.h:119:23
	cmpl	$32, %eax
.Ltmp293:
	.loc	4 119 13 is_stmt 0              # x264_src/common/bs.h:119:13
	jg	.LBB1_63
.Ltmp294:
# %bb.47:                               # %if.then.i25.i680
	#DEBUG_VALUE: x264_sps_write:s <- [DW_OP_LLVM_entry_value 1] $rdi
	#DEBUG_VALUE: x264_sps_write:sps <- $rsi
	#DEBUG_VALUE: bs_write:i_count <- $ecx
	.loc	4 124 51 is_stmt 1              # x264_src/common/bs.h:124:51
	movl	%eax, %ecx
.Ltmp295:
	#DEBUG_VALUE: bs_write:i_count <- $edx
	shlq	%cl, %r8
.Ltmp296:
	#DEBUG_VALUE: endian_fix:x <- $r8
	#DEBUG_VALUE: endian_fix64:x <- $r8
	.loc	11 277 32                       # x264_src/common/osdep.h:277:32
	bswapq	%r8
.Ltmp297:
	.loc	4 124 25                        # x264_src/common/bs.h:124:25
	movl	%r8d, (%r11)
	.loc	4 126 23                        # x264_src/common/bs.h:126:23
	movl	(%rdi), %eax
	addl	$32, %eax
	movl	%eax, (%rdi)
	.loc	4 127 18                        # x264_src/common/bs.h:127:18
	movq	(%r9), %r11
	addq	$4, %r11
	movq	%r11, (%r9)
	.loc	4 128 9                         # x264_src/common/bs.h:128:9
	jmp	.LBB1_63
.Ltmp298:
.LBB1_48:                               # %if.then8
	#DEBUG_VALUE: x264_sps_write:s <- [DW_OP_LLVM_entry_value 1] $rdi
	#DEBUG_VALUE: x264_sps_write:sps <- $rsi
	.loc	0 274 30                        # x264_src/encoder/set.c:274:30
	movl	36(%rsi), %ecx
.Ltmp299:
	#DEBUG_VALUE: bs_write:s <- undef
	#DEBUG_VALUE: bs_write:i_count <- 1
	#DEBUG_VALUE: bs_write:i_bits <- undef
	.loc	4 117 27                        # x264_src/common/bs.h:117:27
	movq	(%r10), %rbx
	.loc	4 117 36 is_stmt 0              # x264_src/common/bs.h:117:36
	addq	%rbx, %rbx
	.loc	4 117 48                        # x264_src/common/bs.h:117:48
	orq	%rcx, %rbx
	.loc	4 117 21                        # x264_src/common/bs.h:117:21
	movq	%rbx, (%r10)
	.loc	4 118 19 is_stmt 1              # x264_src/common/bs.h:118:19
	leal	-1(%rax), %edx
	movl	%edx, (%rdi)
.Ltmp300:
	.loc	4 119 23                        # x264_src/common/bs.h:119:23
	cmpl	$33, %eax
.Ltmp301:
	.loc	4 119 13 is_stmt 0              # x264_src/common/bs.h:119:13
	jg	.LBB1_50
.Ltmp302:
# %bb.49:                               # %if.then.i705
	#DEBUG_VALUE: x264_sps_write:s <- [DW_OP_LLVM_entry_value 1] $rdi
	#DEBUG_VALUE: x264_sps_write:sps <- $rsi
	#DEBUG_VALUE: bs_write:i_count <- 1
	.loc	4 124 51 is_stmt 1              # x264_src/common/bs.h:124:51
	movl	%edx, %ecx
	shlq	%cl, %rbx
.Ltmp303:
	#DEBUG_VALUE: endian_fix:x <- $rbx
	#DEBUG_VALUE: endian_fix64:x <- $rbx
	.loc	11 277 32                       # x264_src/common/osdep.h:277:32
	bswapq	%rbx
.Ltmp304:
	.loc	4 124 25                        # x264_src/common/bs.h:124:25
	movl	%ebx, (%r11)
	.loc	4 126 23                        # x264_src/common/bs.h:126:23
	movl	(%rdi), %edx
	addl	$32, %edx
	movl	%edx, (%rdi)
	.loc	4 127 18                        # x264_src/common/bs.h:127:18
	movq	(%r9), %r11
	addq	$4, %r11
	movq	%r11, (%r9)
.Ltmp305:
	.loc	4 117 27                        # x264_src/common/bs.h:117:27
	movq	(%r10), %rbx
.Ltmp306:
.LBB1_50:                               # %bs_write.exit713
	#DEBUG_VALUE: x264_sps_write:s <- [DW_OP_LLVM_entry_value 1] $rdi
	#DEBUG_VALUE: x264_sps_write:sps <- $rsi
	.loc	0 275 30                        # x264_src/encoder/set.c:275:30
	movl	40(%rsi), %ecx
.Ltmp307:
	#DEBUG_VALUE: bs_write_se:val <- $ecx
	#DEBUG_VALUE: bs_write_se:s <- undef
	#DEBUG_VALUE: bs_write_se:size <- 0
	.loc	4 238 22                        # x264_src/common/bs.h:238:22
	leal	(%rcx,%rcx), %ebp
	movl	$1, %eax
	.loc	4 238 17 is_stmt 0              # x264_src/common/bs.h:238:17
	movl	$1, %r8d
	subl	%ebp, %r8d
.Ltmp308:
	#DEBUG_VALUE: bs_write_se:tmp <- $r8d
	.loc	4 239 13 is_stmt 1              # x264_src/common/bs.h:239:13
	testl	%ecx, %ecx
.Ltmp309:
	.loc	4 239 9 is_stmt 0               # x264_src/common/bs.h:239:9
	cmovgl	%ebp, %r8d
.Ltmp310:
	#DEBUG_VALUE: bs_write_se:tmp <- $r8d
	#DEBUG_VALUE: bs_write_se:val <- $r8d
	.loc	4 242 9 is_stmt 1               # x264_src/common/bs.h:242:9
	movl	%r8d, %ecx
	shrl	$8, %ecx
.Ltmp311:
	.loc	4 242 13 is_stmt 0              # x264_src/common/bs.h:242:13
	xorl	%ebp, %ebp
	cmpl	$256, %r8d                      # imm = 0x100
	setge	%bpl
.Ltmp312:
	.loc	4 242 9                         # x264_src/common/bs.h:242:9
	cmovll	%r8d, %ecx
.Ltmp313:
	#DEBUG_VALUE: bs_write_se:tmp <- $ecx
	shll	$4, %ebp
.Ltmp314:
	#DEBUG_VALUE: bs_write_se:size <- $ebp
	.loc	4 247 13 is_stmt 1              # x264_src/common/bs.h:247:13
	movslq	%ecx, %rcx
.Ltmp315:
	movzbl	x264_ue_size_tab(%rcx), %ecx
	.loc	4 247 10 is_stmt 0              # x264_src/common/bs.h:247:10
	addl	%ebp, %ecx
.Ltmp316:
	#DEBUG_VALUE: bs_write_se:size <- $ecx
	#DEBUG_VALUE: bs_write:i_count <- $ecx
	#DEBUG_VALUE: bs_write:s <- undef
	#DEBUG_VALUE: bs_write:i_bits <- $r8d
	.loc	4 117 36 is_stmt 1              # x264_src/common/bs.h:117:36
	shlq	%cl, %rbx
	.loc	4 117 48 is_stmt 0              # x264_src/common/bs.h:117:48
	orq	%rbx, %r8
.Ltmp317:
	.loc	4 117 21                        # x264_src/common/bs.h:117:21
	movq	%r8, (%r10)
	.loc	4 118 19 is_stmt 1              # x264_src/common/bs.h:118:19
	subl	%ecx, %edx
	movl	%edx, (%rdi)
.Ltmp318:
	.loc	4 119 23                        # x264_src/common/bs.h:119:23
	cmpl	$32, %edx
.Ltmp319:
	.loc	4 119 13 is_stmt 0              # x264_src/common/bs.h:119:13
	jg	.LBB1_52
.Ltmp320:
# %bb.51:                               # %if.then.i.i732
	#DEBUG_VALUE: x264_sps_write:s <- [DW_OP_LLVM_entry_value 1] $rdi
	#DEBUG_VALUE: x264_sps_write:sps <- $rsi
	#DEBUG_VALUE: bs_write_se:size <- $ecx
	#DEBUG_VALUE: bs_write:i_count <- $ecx
	.loc	4 124 51 is_stmt 1              # x264_src/common/bs.h:124:51
	movl	%edx, %ecx
.Ltmp321:
	shlq	%cl, %r8
.Ltmp322:
	#DEBUG_VALUE: endian_fix:x <- $r8
	#DEBUG_VALUE: endian_fix64:x <- $r8
	.loc	11 277 32                       # x264_src/common/osdep.h:277:32
	bswapq	%r8
.Ltmp323:
	.loc	4 124 25                        # x264_src/common/bs.h:124:25
	movl	%r8d, (%r11)
	.loc	4 126 23                        # x264_src/common/bs.h:126:23
	movl	(%rdi), %edx
	addl	$32, %edx
	movl	%edx, (%rdi)
	.loc	4 127 18                        # x264_src/common/bs.h:127:18
	movq	(%r9), %r11
	addq	$4, %r11
	movq	%r11, (%r9)
.Ltmp324:
	.loc	4 117 27                        # x264_src/common/bs.h:117:27
	movq	(%r10), %r8
.Ltmp325:
.LBB1_52:                               # %bs_write_se.exit
	#DEBUG_VALUE: x264_sps_write:s <- [DW_OP_LLVM_entry_value 1] $rdi
	#DEBUG_VALUE: x264_sps_write:sps <- $rsi
	.loc	0 276 30                        # x264_src/encoder/set.c:276:30
	movl	44(%rsi), %ecx
.Ltmp326:
	#DEBUG_VALUE: bs_write_se:val <- $ecx
	#DEBUG_VALUE: bs_write_se:s <- undef
	#DEBUG_VALUE: bs_write_se:size <- 0
	.loc	4 238 22                        # x264_src/common/bs.h:238:22
	leal	(%rcx,%rcx), %ebx
	.loc	4 238 17 is_stmt 0              # x264_src/common/bs.h:238:17
	subl	%ebx, %eax
.Ltmp327:
	#DEBUG_VALUE: bs_write_se:tmp <- $eax
	.loc	4 239 13 is_stmt 1              # x264_src/common/bs.h:239:13
	testl	%ecx, %ecx
.Ltmp328:
	.loc	4 239 9 is_stmt 0               # x264_src/common/bs.h:239:9
	cmovgl	%ebx, %eax
.Ltmp329:
	#DEBUG_VALUE: bs_write_se:tmp <- $eax
	#DEBUG_VALUE: bs_write_se:val <- $eax
	.loc	4 242 9 is_stmt 1               # x264_src/common/bs.h:242:9
	movl	%eax, %ecx
	shrl	$8, %ecx
.Ltmp330:
	.loc	4 242 13 is_stmt 0              # x264_src/common/bs.h:242:13
	xorl	%ebx, %ebx
	cmpl	$256, %eax                      # imm = 0x100
	setge	%bl
.Ltmp331:
	.loc	4 242 9                         # x264_src/common/bs.h:242:9
	cmovll	%eax, %ecx
.Ltmp332:
	#DEBUG_VALUE: bs_write_se:tmp <- $ecx
	shll	$4, %ebx
.Ltmp333:
	#DEBUG_VALUE: bs_write_se:size <- $ebx
	.loc	4 247 13 is_stmt 1              # x264_src/common/bs.h:247:13
	movslq	%ecx, %rcx
.Ltmp334:
	movzbl	x264_ue_size_tab(%rcx), %ecx
	.loc	4 247 10 is_stmt 0              # x264_src/common/bs.h:247:10
	addl	%ebx, %ecx
.Ltmp335:
	#DEBUG_VALUE: bs_write_se:size <- $ecx
	#DEBUG_VALUE: bs_write:i_count <- $ecx
	#DEBUG_VALUE: bs_write:s <- undef
	#DEBUG_VALUE: bs_write:i_bits <- $eax
	.loc	4 117 36 is_stmt 1              # x264_src/common/bs.h:117:36
	shlq	%cl, %r8
	.loc	4 117 48 is_stmt 0              # x264_src/common/bs.h:117:48
	orq	%r8, %rax
.Ltmp336:
	.loc	4 117 21                        # x264_src/common/bs.h:117:21
	movq	%rax, (%r10)
	.loc	4 118 19 is_stmt 1              # x264_src/common/bs.h:118:19
	subl	%ecx, %edx
	movl	%edx, (%rdi)
.Ltmp337:
	.loc	4 119 23                        # x264_src/common/bs.h:119:23
	cmpl	$32, %edx
.Ltmp338:
	.loc	4 119 13 is_stmt 0              # x264_src/common/bs.h:119:13
	jg	.LBB1_54
.Ltmp339:
# %bb.53:                               # %if.then.i.i761
	#DEBUG_VALUE: x264_sps_write:s <- [DW_OP_LLVM_entry_value 1] $rdi
	#DEBUG_VALUE: x264_sps_write:sps <- $rsi
	#DEBUG_VALUE: bs_write_se:size <- $ecx
	#DEBUG_VALUE: bs_write:i_count <- $ecx
	.loc	4 124 51 is_stmt 1              # x264_src/common/bs.h:124:51
	movl	%edx, %ecx
.Ltmp340:
	shlq	%cl, %rax
.Ltmp341:
	#DEBUG_VALUE: endian_fix:x <- $rax
	#DEBUG_VALUE: endian_fix64:x <- $rax
	.loc	11 277 32                       # x264_src/common/osdep.h:277:32
	bswapq	%rax
.Ltmp342:
	.loc	4 124 25                        # x264_src/common/bs.h:124:25
	movl	%eax, (%r11)
	.loc	4 126 23                        # x264_src/common/bs.h:126:23
	movl	(%rdi), %edx
	addl	$32, %edx
	movl	%edx, (%rdi)
	.loc	4 127 18                        # x264_src/common/bs.h:127:18
	movq	(%r9), %r11
	addq	$4, %r11
	movq	%r11, (%r9)
.Ltmp343:
	.loc	4 117 27                        # x264_src/common/bs.h:117:27
	movq	(%r10), %rax
.Ltmp344:
.LBB1_54:                               # %bs_write_se.exit769
	#DEBUG_VALUE: x264_sps_write:s <- [DW_OP_LLVM_entry_value 1] $rdi
	#DEBUG_VALUE: x264_sps_write:sps <- $rsi
	.loc	0 277 30                        # x264_src/encoder/set.c:277:30
	movl	48(%rsi), %ebx
.Ltmp345:
	#DEBUG_VALUE: bs_write_ue_big:val <- $ebx
	#DEBUG_VALUE: bs_write_ue_big:s <- undef
	#DEBUG_VALUE: bs_write_ue_big:size <- 0
	.loc	4 211 15                        # x264_src/common/bs.h:211:15
	incl	%ebx
.Ltmp346:
	#DEBUG_VALUE: bs_write_ue_big:val <- $ebx
	#DEBUG_VALUE: bs_write_ue_big:tmp <- $ebx
	.loc	4 0 15 is_stmt 0                # x264_src/common/bs.h:0:15
	movl	%ebx, %ecx
	shrl	$16, %ecx
.Ltmp347:
	.loc	4 212 13 is_stmt 1              # x264_src/common/bs.h:212:13
	xorl	%r8d, %r8d
	cmpl	$65536, %ebx                    # imm = 0x10000
.Ltmp348:
	.loc	4 212 9 is_stmt 0               # x264_src/common/bs.h:212:9
	cmovll	%ebx, %ecx
.Ltmp349:
	#DEBUG_VALUE: bs_write_ue_big:tmp <- $ecx
	.loc	4 212 13                        # x264_src/common/bs.h:212:13
	setge	%r8b
.Ltmp350:
	.loc	4 212 9                         # x264_src/common/bs.h:212:9
	shll	$5, %r8d
.Ltmp351:
	#DEBUG_VALUE: bs_write_ue_big:size <- $r8d
	.loc	4 217 9 is_stmt 1               # x264_src/common/bs.h:217:9
	movl	%ecx, %ebp
	shrl	$8, %ebp
	leal	16(%r8), %r14d
.Ltmp352:
	.loc	4 217 13 is_stmt 0              # x264_src/common/bs.h:217:13
	cmpl	$256, %ecx                      # imm = 0x100
.Ltmp353:
	.loc	4 217 9                         # x264_src/common/bs.h:217:9
	cmovll	%ecx, %ebp
.Ltmp354:
	#DEBUG_VALUE: bs_write_ue_big:tmp <- $ebp
	#DEBUG_VALUE: bs_write_ue_big:size <- undef
	.loc	4 222 13 is_stmt 1              # x264_src/common/bs.h:222:13
	movslq	%ebp, %rcx
	.loc	4 223 22                        # x264_src/common/bs.h:223:22
	movzbl	%r14b, %ebp
.Ltmp355:
	cmovll	%r8d, %ebp
	.loc	4 222 13                        # x264_src/common/bs.h:222:13
	movzbl	x264_ue_size_tab(%rcx), %ecx
	.loc	4 223 22                        # x264_src/common/bs.h:223:22
	movzbl	%bpl, %r8d
	addl	%ecx, %r8d
	shrl	%r8d
.Ltmp356:
	#DEBUG_VALUE: bs_write:i_count <- $r8d
	#DEBUG_VALUE: bs_write:s <- undef
	#DEBUG_VALUE: bs_write:i_bits <- 0
	.loc	4 117 36                        # x264_src/common/bs.h:117:36
	movl	%r8d, %ecx
	shlq	%cl, %rax
	.loc	4 117 21 is_stmt 0              # x264_src/common/bs.h:117:21
	movq	%rax, (%r10)
	.loc	4 118 19 is_stmt 1              # x264_src/common/bs.h:118:19
	subl	%r8d, %edx
	movl	%edx, (%rdi)
.Ltmp357:
	.loc	4 119 23                        # x264_src/common/bs.h:119:23
	cmpl	$32, %edx
.Ltmp358:
	.loc	4 119 13 is_stmt 0              # x264_src/common/bs.h:119:13
	jg	.LBB1_56
.Ltmp359:
# %bb.55:                               # %if.then.i.i807
	#DEBUG_VALUE: x264_sps_write:s <- [DW_OP_LLVM_entry_value 1] $rdi
	#DEBUG_VALUE: x264_sps_write:sps <- $rsi
	#DEBUG_VALUE: bs_write_ue_big:val <- $ebx
	#DEBUG_VALUE: bs_write:i_count <- $ecx
	#DEBUG_VALUE: bs_write:i_bits <- 0
	.loc	4 124 51 is_stmt 1              # x264_src/common/bs.h:124:51
	movl	%edx, %ecx
.Ltmp360:
	#DEBUG_VALUE: bs_write:i_count <- $r8d
	shlq	%cl, %rax
.Ltmp361:
	#DEBUG_VALUE: endian_fix:x <- $rax
	#DEBUG_VALUE: endian_fix64:x <- $rax
	.loc	11 277 32                       # x264_src/common/osdep.h:277:32
	bswapq	%rax
.Ltmp362:
	.loc	4 124 25                        # x264_src/common/bs.h:124:25
	movl	%eax, (%r11)
	.loc	4 126 23                        # x264_src/common/bs.h:126:23
	movl	(%rdi), %edx
	addl	$32, %edx
	.loc	4 127 18                        # x264_src/common/bs.h:127:18
	movq	(%r9), %r11
	addq	$4, %r11
	movq	%r11, (%r9)
.Ltmp363:
	.loc	4 117 27                        # x264_src/common/bs.h:117:27
	movq	(%r10), %rax
.Ltmp364:
.LBB1_56:                               # %bs_write.exit.i791
	#DEBUG_VALUE: x264_sps_write:s <- [DW_OP_LLVM_entry_value 1] $rdi
	#DEBUG_VALUE: x264_sps_write:sps <- $rsi
	#DEBUG_VALUE: bs_write_ue_big:val <- $ebx
	.loc	4 224 27                        # x264_src/common/bs.h:224:27
	incl	%r8d
.Ltmp365:
	#DEBUG_VALUE: bs_write:i_count <- $r8d
	#DEBUG_VALUE: bs_write:s <- undef
	#DEBUG_VALUE: bs_write:i_bits <- $ebx
	.loc	4 117 36                        # x264_src/common/bs.h:117:36
	movl	%r8d, %ecx
	shlq	%cl, %rax
	.loc	4 117 50 is_stmt 0              # x264_src/common/bs.h:117:50
	movl	%ebx, %ebx
.Ltmp366:
	.loc	4 117 48                        # x264_src/common/bs.h:117:48
	orq	%rax, %rbx
	.loc	4 117 21                        # x264_src/common/bs.h:117:21
	movq	%rbx, (%r10)
	.loc	4 118 19 is_stmt 1              # x264_src/common/bs.h:118:19
	movl	%edx, %eax
	subl	%r8d, %eax
	movl	%eax, (%rdi)
.Ltmp367:
	.loc	4 119 23                        # x264_src/common/bs.h:119:23
	cmpl	$32, %eax
.Ltmp368:
	.loc	4 119 13 is_stmt 0              # x264_src/common/bs.h:119:13
	jg	.LBB1_58
.Ltmp369:
# %bb.57:                               # %if.then.i25.i799
	#DEBUG_VALUE: x264_sps_write:s <- [DW_OP_LLVM_entry_value 1] $rdi
	#DEBUG_VALUE: x264_sps_write:sps <- $rsi
	#DEBUG_VALUE: bs_write:i_count <- $ecx
	.loc	4 124 51 is_stmt 1              # x264_src/common/bs.h:124:51
	movl	%eax, %ecx
.Ltmp370:
	#DEBUG_VALUE: bs_write:i_count <- $r8d
	shlq	%cl, %rbx
.Ltmp371:
	#DEBUG_VALUE: endian_fix:x <- $rbx
	#DEBUG_VALUE: endian_fix64:x <- $rbx
	.loc	11 277 32                       # x264_src/common/osdep.h:277:32
	bswapq	%rbx
.Ltmp372:
	.loc	4 124 25                        # x264_src/common/bs.h:124:25
	movl	%ebx, (%r11)
	.loc	4 126 23                        # x264_src/common/bs.h:126:23
	movl	(%rdi), %eax
	addl	$32, %eax
	movl	%eax, (%rdi)
	.loc	4 127 18                        # x264_src/common/bs.h:127:18
	movq	(%r9), %r11
	addq	$4, %r11
	movq	%r11, (%r9)
.Ltmp373:
.LBB1_58:                               # %bs_write_ue_big.exit816
	#DEBUG_VALUE: x264_sps_write:s <- [DW_OP_LLVM_entry_value 1] $rdi
	#DEBUG_VALUE: x264_sps_write:sps <- $rsi
	#DEBUG_VALUE: i <- 0
	.loc	0 279 23                        # x264_src/encoder/set.c:279:23
	cmpl	$0, 48(%rsi)
.Ltmp374:
	.loc	0 279 9 is_stmt 0               # x264_src/encoder/set.c:279:9
	jle	.LBB1_63
.Ltmp375:
# %bb.59:                               # %for.body.lr.ph
	#DEBUG_VALUE: x264_sps_write:s <- [DW_OP_LLVM_entry_value 1] $rdi
	#DEBUG_VALUE: x264_sps_write:sps <- $rsi
	#DEBUG_VALUE: i <- 0
	.loc	0 0 9                           # x264_src/encoder/set.c:0:9
	xorl	%edx, %edx
	jmp	.LBB1_60
.Ltmp376:
	.p2align	4, 0x90
.LBB1_62:                               # %bs_write_se.exit846
                                        #   in Loop: Header=BB1_60 Depth=1
	#DEBUG_VALUE: x264_sps_write:s <- [DW_OP_LLVM_entry_value 1] $rdi
	#DEBUG_VALUE: x264_sps_write:sps <- $rsi
	#DEBUG_VALUE: i <- $rdx
	.loc	0 279 62                        # x264_src/encoder/set.c:279:62
	incq	%rdx
.Ltmp377:
	#DEBUG_VALUE: i <- $rdx
	.loc	0 279 30                        # x264_src/encoder/set.c:279:30
	movslq	48(%rsi), %rcx
	.loc	0 279 23                        # x264_src/encoder/set.c:279:23
	cmpq	%rcx, %rdx
.Ltmp378:
	.loc	0 279 9                         # x264_src/encoder/set.c:279:9
	jge	.LBB1_63
.Ltmp379:
.LBB1_60:                               # %for.body
                                        # =>This Inner Loop Header: Depth=1
	#DEBUG_VALUE: x264_sps_write:s <- [DW_OP_LLVM_entry_value 1] $rdi
	#DEBUG_VALUE: x264_sps_write:sps <- $rsi
	#DEBUG_VALUE: i <- $rdx
	.loc	0 281 29 is_stmt 1              # x264_src/encoder/set.c:281:29
	movl	52(%rsi,%rdx,4), %ecx
.Ltmp380:
	#DEBUG_VALUE: bs_write_se:val <- $ecx
	#DEBUG_VALUE: bs_write_se:s <- undef
	#DEBUG_VALUE: bs_write_se:size <- 0
	.loc	4 238 22                        # x264_src/common/bs.h:238:22
	leal	(%rcx,%rcx), %ebx
	.loc	4 238 17 is_stmt 0              # x264_src/common/bs.h:238:17
	movl	$1, %r8d
	subl	%ebx, %r8d
.Ltmp381:
	#DEBUG_VALUE: bs_write_se:tmp <- $r8d
	.loc	4 239 13 is_stmt 1              # x264_src/common/bs.h:239:13
	testl	%ecx, %ecx
.Ltmp382:
	.loc	4 239 9 is_stmt 0               # x264_src/common/bs.h:239:9
	cmovgl	%ebx, %r8d
.Ltmp383:
	#DEBUG_VALUE: bs_write_se:tmp <- $r8d
	#DEBUG_VALUE: bs_write_se:val <- $r8d
	.loc	4 242 9 is_stmt 1               # x264_src/common/bs.h:242:9
	movl	%r8d, %ecx
	shrl	$8, %ecx
.Ltmp384:
	.loc	4 242 13 is_stmt 0              # x264_src/common/bs.h:242:13
	xorl	%ebx, %ebx
	cmpl	$256, %r8d                      # imm = 0x100
	setge	%bl
.Ltmp385:
	.loc	4 242 9                         # x264_src/common/bs.h:242:9
	cmovll	%r8d, %ecx
.Ltmp386:
	#DEBUG_VALUE: bs_write_se:tmp <- $ecx
	shll	$4, %ebx
.Ltmp387:
	#DEBUG_VALUE: bs_write_se:size <- $ebx
	.loc	4 247 13 is_stmt 1              # x264_src/common/bs.h:247:13
	movslq	%ecx, %rcx
.Ltmp388:
	movzbl	x264_ue_size_tab(%rcx), %ecx
	.loc	4 247 10 is_stmt 0              # x264_src/common/bs.h:247:10
	addl	%ebx, %ecx
.Ltmp389:
	#DEBUG_VALUE: bs_write_se:size <- $ecx
	#DEBUG_VALUE: bs_write:i_count <- $ecx
	#DEBUG_VALUE: bs_write:s <- undef
	#DEBUG_VALUE: bs_write:i_bits <- $r8d
	.loc	4 117 27 is_stmt 1              # x264_src/common/bs.h:117:27
	movq	(%r10), %rbx
	.loc	4 117 36 is_stmt 0              # x264_src/common/bs.h:117:36
	shlq	%cl, %rbx
	.loc	4 117 48                        # x264_src/common/bs.h:117:48
	orq	%rbx, %r8
.Ltmp390:
	.loc	4 117 21                        # x264_src/common/bs.h:117:21
	movq	%r8, (%r10)
	.loc	4 118 19 is_stmt 1              # x264_src/common/bs.h:118:19
	subl	%ecx, %eax
	movl	%eax, (%rdi)
.Ltmp391:
	.loc	4 119 23                        # x264_src/common/bs.h:119:23
	cmpl	$32, %eax
.Ltmp392:
	.loc	4 119 13 is_stmt 0              # x264_src/common/bs.h:119:13
	jg	.LBB1_62
.Ltmp393:
# %bb.61:                               # %if.then.i.i838
                                        #   in Loop: Header=BB1_60 Depth=1
	#DEBUG_VALUE: x264_sps_write:s <- [DW_OP_LLVM_entry_value 1] $rdi
	#DEBUG_VALUE: x264_sps_write:sps <- $rsi
	#DEBUG_VALUE: i <- $rdx
	#DEBUG_VALUE: bs_write_se:size <- $ecx
	#DEBUG_VALUE: bs_write:i_count <- $ecx
	.loc	4 124 51 is_stmt 1              # x264_src/common/bs.h:124:51
	movl	%eax, %ecx
.Ltmp394:
	shlq	%cl, %r8
.Ltmp395:
	#DEBUG_VALUE: endian_fix:x <- $r8
	#DEBUG_VALUE: endian_fix64:x <- $r8
	.loc	11 277 32                       # x264_src/common/osdep.h:277:32
	bswapq	%r8
.Ltmp396:
	.loc	4 124 25                        # x264_src/common/bs.h:124:25
	movl	%r8d, (%r11)
	.loc	4 126 23                        # x264_src/common/bs.h:126:23
	movl	(%rdi), %eax
	addl	$32, %eax
	movl	%eax, (%rdi)
	.loc	4 127 18                        # x264_src/common/bs.h:127:18
	movq	(%r9), %r11
	addq	$4, %r11
	movq	%r11, (%r9)
	jmp	.LBB1_62
.Ltmp397:
.LBB1_63:                               # %if.end12
	#DEBUG_VALUE: x264_sps_write:s <- [DW_OP_LLVM_entry_value 1] $rdi
	#DEBUG_VALUE: x264_sps_write:sps <- $rsi
	.loc	0 284 26                        # x264_src/encoder/set.c:284:26
	movl	1076(%rsi), %r8d
.Ltmp398:
	#DEBUG_VALUE: bs_write_ue_big:val <- $r8d
	#DEBUG_VALUE: bs_write_ue_big:s <- undef
	#DEBUG_VALUE: bs_write_ue_big:size <- 0
	.loc	4 211 15                        # x264_src/common/bs.h:211:15
	incl	%r8d
.Ltmp399:
	#DEBUG_VALUE: bs_write_ue_big:val <- $r8d
	#DEBUG_VALUE: bs_write_ue_big:tmp <- $r8d
	.loc	4 0 15 is_stmt 0                # x264_src/common/bs.h:0:15
	movl	%r8d, %ecx
	shrl	$16, %ecx
.Ltmp400:
	.loc	4 212 13 is_stmt 1              # x264_src/common/bs.h:212:13
	xorl	%edx, %edx
	cmpl	$65536, %r8d                    # imm = 0x10000
	setge	%dl
.Ltmp401:
	.loc	4 212 9 is_stmt 0               # x264_src/common/bs.h:212:9
	cmovll	%r8d, %ecx
.Ltmp402:
	#DEBUG_VALUE: bs_write_ue_big:tmp <- $ecx
	shll	$5, %edx
.Ltmp403:
	#DEBUG_VALUE: bs_write_ue_big:size <- $edx
	.loc	4 217 9 is_stmt 1               # x264_src/common/bs.h:217:9
	movl	%ecx, %ebx
	shrl	$8, %ebx
	leal	16(%rdx), %ebp
.Ltmp404:
	.loc	4 217 13 is_stmt 0              # x264_src/common/bs.h:217:13
	cmpl	$256, %ecx                      # imm = 0x100
.Ltmp405:
	.loc	4 217 9                         # x264_src/common/bs.h:217:9
	cmovll	%ecx, %ebx
.Ltmp406:
	#DEBUG_VALUE: bs_write_ue_big:tmp <- $ebx
	#DEBUG_VALUE: bs_write_ue_big:size <- undef
	.loc	4 222 13 is_stmt 1              # x264_src/common/bs.h:222:13
	movslq	%ebx, %rcx
	movzbl	x264_ue_size_tab(%rcx), %ecx
	.loc	4 223 22                        # x264_src/common/bs.h:223:22
	movzbl	%bpl, %ebx
.Ltmp407:
	cmovll	%edx, %ebx
	movzbl	%bl, %edx
	addl	%ecx, %edx
	shrl	%edx
.Ltmp408:
	#DEBUG_VALUE: bs_write:i_count <- $edx
	#DEBUG_VALUE: bs_write:s <- undef
	#DEBUG_VALUE: bs_write:i_bits <- 0
	.loc	4 117 27                        # x264_src/common/bs.h:117:27
	movq	(%r10), %rbx
	.loc	4 117 36 is_stmt 0              # x264_src/common/bs.h:117:36
	movl	%edx, %ecx
	shlq	%cl, %rbx
	.loc	4 117 21                        # x264_src/common/bs.h:117:21
	movq	%rbx, (%r10)
	.loc	4 118 19 is_stmt 1              # x264_src/common/bs.h:118:19
	subl	%edx, %eax
	movl	%eax, (%rdi)
.Ltmp409:
	.loc	4 119 23                        # x264_src/common/bs.h:119:23
	cmpl	$32, %eax
.Ltmp410:
	.loc	4 119 13 is_stmt 0              # x264_src/common/bs.h:119:13
	jg	.LBB1_65
.Ltmp411:
# %bb.64:                               # %if.then.i.i884
	#DEBUG_VALUE: x264_sps_write:s <- [DW_OP_LLVM_entry_value 1] $rdi
	#DEBUG_VALUE: x264_sps_write:sps <- $rsi
	#DEBUG_VALUE: bs_write_ue_big:val <- $r8d
	#DEBUG_VALUE: bs_write:i_count <- $ecx
	#DEBUG_VALUE: bs_write:i_bits <- 0
	.loc	4 124 51 is_stmt 1              # x264_src/common/bs.h:124:51
	movl	%eax, %ecx
.Ltmp412:
	#DEBUG_VALUE: bs_write:i_count <- $edx
	shlq	%cl, %rbx
.Ltmp413:
	#DEBUG_VALUE: endian_fix:x <- $rbx
	#DEBUG_VALUE: endian_fix64:x <- $rbx
	.loc	11 277 32                       # x264_src/common/osdep.h:277:32
	bswapq	%rbx
.Ltmp414:
	.loc	4 124 25                        # x264_src/common/bs.h:124:25
	movl	%ebx, (%r11)
	.loc	4 126 23                        # x264_src/common/bs.h:126:23
	movl	(%rdi), %eax
	addl	$32, %eax
	.loc	4 127 18                        # x264_src/common/bs.h:127:18
	movq	(%r9), %r11
	addq	$4, %r11
	movq	%r11, (%r9)
.Ltmp415:
	.loc	4 117 27                        # x264_src/common/bs.h:117:27
	movq	(%r10), %rbx
.Ltmp416:
.LBB1_65:                               # %bs_write.exit.i868
	#DEBUG_VALUE: x264_sps_write:s <- [DW_OP_LLVM_entry_value 1] $rdi
	#DEBUG_VALUE: x264_sps_write:sps <- $rsi
	#DEBUG_VALUE: bs_write_ue_big:val <- $r8d
	.loc	4 224 27                        # x264_src/common/bs.h:224:27
	incl	%edx
.Ltmp417:
	#DEBUG_VALUE: bs_write:i_count <- $edx
	#DEBUG_VALUE: bs_write:s <- undef
	#DEBUG_VALUE: bs_write:i_bits <- $r8d
	.loc	4 117 36                        # x264_src/common/bs.h:117:36
	movl	%edx, %ecx
	shlq	%cl, %rbx
	.loc	4 117 50 is_stmt 0              # x264_src/common/bs.h:117:50
	movl	%r8d, %r8d
.Ltmp418:
	.loc	4 117 48                        # x264_src/common/bs.h:117:48
	orq	%rbx, %r8
	.loc	4 117 21                        # x264_src/common/bs.h:117:21
	movq	%r8, (%r10)
	.loc	4 118 19 is_stmt 1              # x264_src/common/bs.h:118:19
	subl	%edx, %eax
	movl	%eax, (%rdi)
.Ltmp419:
	.loc	4 119 23                        # x264_src/common/bs.h:119:23
	cmpl	$32, %eax
.Ltmp420:
	.loc	4 119 13 is_stmt 0              # x264_src/common/bs.h:119:13
	jg	.LBB1_67
.Ltmp421:
# %bb.66:                               # %if.then.i25.i876
	#DEBUG_VALUE: x264_sps_write:s <- [DW_OP_LLVM_entry_value 1] $rdi
	#DEBUG_VALUE: x264_sps_write:sps <- $rsi
	#DEBUG_VALUE: bs_write:i_count <- $ecx
	.loc	4 124 51 is_stmt 1              # x264_src/common/bs.h:124:51
	movl	%eax, %ecx
.Ltmp422:
	#DEBUG_VALUE: bs_write:i_count <- $edx
	shlq	%cl, %r8
.Ltmp423:
	#DEBUG_VALUE: endian_fix:x <- $r8
	#DEBUG_VALUE: endian_fix64:x <- $r8
	.loc	11 277 32                       # x264_src/common/osdep.h:277:32
	bswapq	%r8
.Ltmp424:
	.loc	4 124 25                        # x264_src/common/bs.h:124:25
	movl	%r8d, (%r11)
	.loc	4 126 23                        # x264_src/common/bs.h:126:23
	movl	(%rdi), %eax
	addl	$32, %eax
	movl	%eax, (%rdi)
	.loc	4 127 18                        # x264_src/common/bs.h:127:18
	movq	(%r9), %r11
	addq	$4, %r11
	movq	%r11, (%r9)
.Ltmp425:
	.loc	4 117 27                        # x264_src/common/bs.h:117:27
	movq	(%r10), %r8
.Ltmp426:
.LBB1_67:                               # %bs_write_ue_big.exit893
	#DEBUG_VALUE: x264_sps_write:s <- [DW_OP_LLVM_entry_value 1] $rdi
	#DEBUG_VALUE: x264_sps_write:sps <- $rsi
	.loc	0 285 26                        # x264_src/encoder/set.c:285:26
	movl	1080(%rsi), %ecx
.Ltmp427:
	#DEBUG_VALUE: bs_write:s <- undef
	#DEBUG_VALUE: bs_write:i_count <- 1
	#DEBUG_VALUE: bs_write:i_bits <- undef
	.loc	4 117 36                        # x264_src/common/bs.h:117:36
	addq	%r8, %r8
	.loc	4 117 48 is_stmt 0              # x264_src/common/bs.h:117:48
	orq	%rcx, %r8
	.loc	4 117 21                        # x264_src/common/bs.h:117:21
	movq	%r8, (%r10)
	.loc	4 118 19 is_stmt 1              # x264_src/common/bs.h:118:19
	leal	-1(%rax), %edx
	movl	%edx, (%rdi)
.Ltmp428:
	.loc	4 119 23                        # x264_src/common/bs.h:119:23
	cmpl	$33, %eax
.Ltmp429:
	.loc	4 119 13 is_stmt 0              # x264_src/common/bs.h:119:13
	jg	.LBB1_69
.Ltmp430:
# %bb.68:                               # %if.then.i901
	#DEBUG_VALUE: x264_sps_write:s <- [DW_OP_LLVM_entry_value 1] $rdi
	#DEBUG_VALUE: x264_sps_write:sps <- $rsi
	#DEBUG_VALUE: bs_write:i_count <- 1
	.loc	4 124 51 is_stmt 1              # x264_src/common/bs.h:124:51
	movl	%edx, %ecx
	shlq	%cl, %r8
.Ltmp431:
	#DEBUG_VALUE: endian_fix:x <- $r8
	#DEBUG_VALUE: endian_fix64:x <- $r8
	.loc	11 277 32                       # x264_src/common/osdep.h:277:32
	bswapq	%r8
.Ltmp432:
	.loc	4 124 25                        # x264_src/common/bs.h:124:25
	movl	%r8d, (%r11)
	.loc	4 126 23                        # x264_src/common/bs.h:126:23
	movl	(%rdi), %edx
	addl	$32, %edx
	movl	%edx, (%rdi)
	.loc	4 127 18                        # x264_src/common/bs.h:127:18
	movq	(%r9), %r11
	addq	$4, %r11
	movq	%r11, (%r9)
.Ltmp433:
	.loc	4 117 27                        # x264_src/common/bs.h:117:27
	movq	(%r10), %r8
.Ltmp434:
.LBB1_69:                               # %bs_write.exit909
	#DEBUG_VALUE: x264_sps_write:s <- [DW_OP_LLVM_entry_value 1] $rdi
	#DEBUG_VALUE: x264_sps_write:sps <- $rsi
	.loc	0 286 26                        # x264_src/encoder/set.c:286:26
	movl	1084(%rsi), %ebx
.Ltmp435:
	#DEBUG_VALUE: bs_write_ue_big:val <- $ebx
	#DEBUG_VALUE: bs_write_ue_big:tmp <- $ebx
	.loc	0 0 26 is_stmt 0                # x264_src/encoder/set.c:0:26
	movl	%ebx, %eax
	shrl	$16, %eax
.Ltmp436:
	#DEBUG_VALUE: bs_write_ue_big:s <- undef
	#DEBUG_VALUE: bs_write_ue_big:size <- 0
	.loc	4 212 13 is_stmt 1              # x264_src/common/bs.h:212:13
	xorl	%ecx, %ecx
	cmpl	$65536, %ebx                    # imm = 0x10000
.Ltmp437:
	.loc	4 212 9 is_stmt 0               # x264_src/common/bs.h:212:9
	cmovll	%ebx, %eax
.Ltmp438:
	#DEBUG_VALUE: bs_write_ue_big:tmp <- $eax
	.loc	4 212 13                        # x264_src/common/bs.h:212:13
	setge	%cl
.Ltmp439:
	.loc	4 212 9                         # x264_src/common/bs.h:212:9
	shll	$5, %ecx
.Ltmp440:
	#DEBUG_VALUE: bs_write_ue_big:size <- $ecx
	.loc	4 217 9 is_stmt 1               # x264_src/common/bs.h:217:9
	movl	%eax, %ebp
	shrl	$8, %ebp
	leal	16(%rcx), %r14d
.Ltmp441:
	.loc	4 217 13 is_stmt 0              # x264_src/common/bs.h:217:13
	cmpl	$256, %eax                      # imm = 0x100
.Ltmp442:
	.loc	4 217 9                         # x264_src/common/bs.h:217:9
	cmovll	%eax, %ebp
.Ltmp443:
	#DEBUG_VALUE: bs_write_ue_big:tmp <- $ebp
	#DEBUG_VALUE: bs_write_ue_big:size <- undef
	.loc	4 222 13 is_stmt 1              # x264_src/common/bs.h:222:13
	movslq	%ebp, %rax
	.loc	4 223 22                        # x264_src/common/bs.h:223:22
	movzbl	%r14b, %ebp
.Ltmp444:
	cmovll	%ecx, %ebp
	.loc	4 222 13                        # x264_src/common/bs.h:222:13
	movzbl	x264_ue_size_tab(%rax), %ecx
	.loc	4 223 22                        # x264_src/common/bs.h:223:22
	movzbl	%bpl, %eax
	addl	%ecx, %eax
	shrl	%eax
.Ltmp445:
	#DEBUG_VALUE: bs_write:i_count <- $eax
	#DEBUG_VALUE: bs_write:s <- undef
	#DEBUG_VALUE: bs_write:i_bits <- 0
	.loc	4 117 36                        # x264_src/common/bs.h:117:36
	movl	%eax, %ecx
	shlq	%cl, %r8
	.loc	4 117 21 is_stmt 0              # x264_src/common/bs.h:117:21
	movq	%r8, (%r10)
	.loc	4 118 19 is_stmt 1              # x264_src/common/bs.h:118:19
	subl	%eax, %edx
	movl	%edx, (%rdi)
.Ltmp446:
	.loc	4 119 23                        # x264_src/common/bs.h:119:23
	cmpl	$32, %edx
.Ltmp447:
	.loc	4 119 13 is_stmt 0              # x264_src/common/bs.h:119:13
	jg	.LBB1_71
.Ltmp448:
# %bb.70:                               # %if.then.i.i947
	#DEBUG_VALUE: x264_sps_write:s <- [DW_OP_LLVM_entry_value 1] $rdi
	#DEBUG_VALUE: x264_sps_write:sps <- $rsi
	#DEBUG_VALUE: bs_write_ue_big:val <- $ebx
	#DEBUG_VALUE: bs_write:i_count <- $ecx
	#DEBUG_VALUE: bs_write:i_bits <- 0
	.loc	4 124 51 is_stmt 1              # x264_src/common/bs.h:124:51
	movl	%edx, %ecx
.Ltmp449:
	#DEBUG_VALUE: bs_write:i_count <- $eax
	shlq	%cl, %r8
.Ltmp450:
	#DEBUG_VALUE: endian_fix:x <- $r8
	#DEBUG_VALUE: endian_fix64:x <- $r8
	.loc	11 277 32                       # x264_src/common/osdep.h:277:32
	bswapq	%r8
.Ltmp451:
	.loc	4 124 25                        # x264_src/common/bs.h:124:25
	movl	%r8d, (%r11)
	.loc	4 126 23                        # x264_src/common/bs.h:126:23
	movl	(%rdi), %edx
	addl	$32, %edx
	.loc	4 127 18                        # x264_src/common/bs.h:127:18
	movq	(%r9), %r11
	addq	$4, %r11
	movq	%r11, (%r9)
.Ltmp452:
	.loc	4 117 27                        # x264_src/common/bs.h:117:27
	movq	(%r10), %r8
.Ltmp453:
.LBB1_71:                               # %bs_write.exit.i931
	#DEBUG_VALUE: x264_sps_write:s <- [DW_OP_LLVM_entry_value 1] $rdi
	#DEBUG_VALUE: x264_sps_write:sps <- $rsi
	#DEBUG_VALUE: bs_write_ue_big:val <- $ebx
	.loc	4 224 27                        # x264_src/common/bs.h:224:27
	incl	%eax
.Ltmp454:
	#DEBUG_VALUE: bs_write:i_count <- $eax
	#DEBUG_VALUE: bs_write:s <- undef
	.loc	4 117 36                        # x264_src/common/bs.h:117:36
	movl	%eax, %ecx
	shlq	%cl, %r8
	.loc	4 117 48 is_stmt 0              # x264_src/common/bs.h:117:48
	orq	%rbx, %r8
	.loc	4 117 21                        # x264_src/common/bs.h:117:21
	movq	%r8, (%r10)
	.loc	4 118 19 is_stmt 1              # x264_src/common/bs.h:118:19
	subl	%eax, %edx
	movl	%edx, (%rdi)
.Ltmp455:
	.loc	4 119 23                        # x264_src/common/bs.h:119:23
	cmpl	$32, %edx
.Ltmp456:
	#DEBUG_VALUE: bs_write:i_bits <- undef
	.loc	4 119 13 is_stmt 0              # x264_src/common/bs.h:119:13
	jg	.LBB1_73
.Ltmp457:
# %bb.72:                               # %if.then.i25.i939
	#DEBUG_VALUE: x264_sps_write:s <- [DW_OP_LLVM_entry_value 1] $rdi
	#DEBUG_VALUE: x264_sps_write:sps <- $rsi
	#DEBUG_VALUE: bs_write_ue_big:val <- $ebx
	#DEBUG_VALUE: bs_write:i_count <- $ecx
	.loc	4 124 51 is_stmt 1              # x264_src/common/bs.h:124:51
	movl	%edx, %ecx
.Ltmp458:
	#DEBUG_VALUE: bs_write:i_count <- $eax
	shlq	%cl, %r8
.Ltmp459:
	#DEBUG_VALUE: endian_fix:x <- $r8
	#DEBUG_VALUE: endian_fix64:x <- $r8
	.loc	11 277 32                       # x264_src/common/osdep.h:277:32
	bswapq	%r8
.Ltmp460:
	.loc	4 124 25                        # x264_src/common/bs.h:124:25
	movl	%r8d, (%r11)
	.loc	4 126 23                        # x264_src/common/bs.h:126:23
	movl	(%rdi), %edx
	addl	$32, %edx
	movl	%edx, (%rdi)
	.loc	4 127 18                        # x264_src/common/bs.h:127:18
	movq	(%r9), %r11
	addq	$4, %r11
	movq	%r11, (%r9)
.Ltmp461:
.LBB1_73:                               # %bs_write_ue_big.exit956
	#DEBUG_VALUE: x264_sps_write:s <- [DW_OP_LLVM_entry_value 1] $rdi
	#DEBUG_VALUE: x264_sps_write:sps <- $rsi
	.loc	0 287 9                         # x264_src/encoder/set.c:287:9
	cmpl	$0, 1092(%rsi)
	.loc	0 0 0 is_stmt 0                 # x264_src/encoder/set.c:0:0
	movl	1088(%rsi), %r8d
.Ltmp462:
	.loc	0 287 9                         # x264_src/encoder/set.c:287:9
	je	.LBB1_77
.Ltmp463:
# %bb.74:                               # %if.then14
	#DEBUG_VALUE: x264_sps_write:s <- [DW_OP_LLVM_entry_value 1] $rdi
	#DEBUG_VALUE: x264_sps_write:sps <- $rsi
	.loc	0 0 9                           # x264_src/encoder/set.c:0:9
	movl	%r8d, %eax
	shrl	$16, %eax
.Ltmp464:
	#DEBUG_VALUE: bs_write_ue_big:s <- undef
	#DEBUG_VALUE: bs_write_ue_big:size <- 0
	.loc	4 212 13 is_stmt 1              # x264_src/common/bs.h:212:13
	xorl	%ecx, %ecx
	cmpl	$65536, %r8d                    # imm = 0x10000
	setge	%cl
.Ltmp465:
	.loc	4 212 9 is_stmt 0               # x264_src/common/bs.h:212:9
	cmovll	%r8d, %eax
.Ltmp466:
	#DEBUG_VALUE: bs_write_ue_big:tmp <- $eax
	shll	$5, %ecx
.Ltmp467:
	#DEBUG_VALUE: bs_write_ue_big:size <- $ecx
	.loc	4 217 9 is_stmt 1               # x264_src/common/bs.h:217:9
	movl	%eax, %ebx
	shrl	$8, %ebx
	leal	16(%rcx), %ebp
.Ltmp468:
	#DEBUG_VALUE: bs_write_ue_big:tmp <- undef
	.loc	4 217 13 is_stmt 0              # x264_src/common/bs.h:217:13
	cmpl	$256, %eax                      # imm = 0x100
.Ltmp469:
	.loc	4 217 9                         # x264_src/common/bs.h:217:9
	cmovll	%eax, %ebx
.Ltmp470:
	#DEBUG_VALUE: bs_write_ue_big:tmp <- $ebx
	#DEBUG_VALUE: bs_write_ue_big:size <- undef
	.loc	4 222 13 is_stmt 1              # x264_src/common/bs.h:222:13
	movslq	%ebx, %rax
	movzbl	x264_ue_size_tab(%rax), %ebx
.Ltmp471:
	.loc	4 223 22                        # x264_src/common/bs.h:223:22
	movzbl	%bpl, %eax
	cmovll	%ecx, %eax
	movzbl	%al, %eax
	addl	%ebx, %eax
	shrl	%eax
.Ltmp472:
	#DEBUG_VALUE: bs_write:i_count <- $eax
	#DEBUG_VALUE: bs_write:s <- undef
	#DEBUG_VALUE: bs_write:i_bits <- 0
	.loc	4 117 27                        # x264_src/common/bs.h:117:27
	movq	(%r10), %rbx
	.loc	4 117 36 is_stmt 0              # x264_src/common/bs.h:117:36
	movl	%eax, %ecx
	shlq	%cl, %rbx
	.loc	4 117 21                        # x264_src/common/bs.h:117:21
	movq	%rbx, (%r10)
	.loc	4 118 19 is_stmt 1              # x264_src/common/bs.h:118:19
	subl	%eax, %edx
	movl	%edx, (%rdi)
.Ltmp473:
	.loc	4 119 23                        # x264_src/common/bs.h:119:23
	cmpl	$32, %edx
.Ltmp474:
	#DEBUG_VALUE: bs_write_ue_big:val <- undef
	.loc	4 119 13 is_stmt 0              # x264_src/common/bs.h:119:13
	jg	.LBB1_76
.Ltmp475:
# %bb.75:                               # %if.then.i.i994
	#DEBUG_VALUE: x264_sps_write:s <- [DW_OP_LLVM_entry_value 1] $rdi
	#DEBUG_VALUE: x264_sps_write:sps <- $rsi
	#DEBUG_VALUE: bs_write:i_count <- $ecx
	#DEBUG_VALUE: bs_write:i_bits <- 0
	.loc	4 124 51 is_stmt 1              # x264_src/common/bs.h:124:51
	movl	%edx, %ecx
.Ltmp476:
	#DEBUG_VALUE: bs_write:i_count <- $eax
	shlq	%cl, %rbx
.Ltmp477:
	#DEBUG_VALUE: endian_fix:x <- $rbx
	#DEBUG_VALUE: endian_fix64:x <- $rbx
	.loc	11 277 32                       # x264_src/common/osdep.h:277:32
	bswapq	%rbx
.Ltmp478:
	.loc	4 124 25                        # x264_src/common/bs.h:124:25
	movl	%ebx, (%r11)
	.loc	4 126 23                        # x264_src/common/bs.h:126:23
	movl	(%rdi), %edx
	addl	$32, %edx
	.loc	4 127 18                        # x264_src/common/bs.h:127:18
	movq	(%r9), %r11
	addq	$4, %r11
	movq	%r11, (%r9)
.Ltmp479:
	.loc	4 117 27                        # x264_src/common/bs.h:117:27
	movq	(%r10), %rbx
.Ltmp480:
.LBB1_76:                               # %bs_write.exit.i978
	#DEBUG_VALUE: x264_sps_write:s <- [DW_OP_LLVM_entry_value 1] $rdi
	#DEBUG_VALUE: x264_sps_write:sps <- $rsi
	.loc	4 224 27                        # x264_src/common/bs.h:224:27
	incl	%eax
.Ltmp481:
	#DEBUG_VALUE: bs_write:i_count <- $eax
	#DEBUG_VALUE: bs_write:s <- undef
	.loc	4 117 36                        # x264_src/common/bs.h:117:36
	movl	%eax, %ecx
	shlq	%cl, %rbx
	.loc	4 117 48 is_stmt 0              # x264_src/common/bs.h:117:48
	orq	%r8, %rbx
	.loc	4 117 21                        # x264_src/common/bs.h:117:21
	movq	%rbx, (%r10)
	.loc	4 118 19 is_stmt 1              # x264_src/common/bs.h:118:19
	subl	%eax, %edx
	movl	%edx, (%rdi)
.Ltmp482:
	.loc	4 119 23                        # x264_src/common/bs.h:119:23
	cmpl	$33, %edx
.Ltmp483:
	#DEBUG_VALUE: bs_write:i_bits <- undef
	.loc	4 119 13 is_stmt 0              # x264_src/common/bs.h:119:13
	jge	.LBB1_81
.Ltmp484:
.LBB1_80:                               # %if.end19.sink.split
	#DEBUG_VALUE: x264_sps_write:s <- [DW_OP_LLVM_entry_value 1] $rdi
	#DEBUG_VALUE: x264_sps_write:sps <- $rsi
	.loc	4 124 51 is_stmt 1              # x264_src/common/bs.h:124:51
	movl	%edx, %ecx
	shlq	%cl, %rbx
.Ltmp485:
	.loc	11 277 32                       # x264_src/common/osdep.h:277:32
	bswapq	%rbx
.Ltmp486:
	.loc	4 124 25                        # x264_src/common/bs.h:124:25
	movl	%ebx, (%r11)
	.loc	4 126 23                        # x264_src/common/bs.h:126:23
	movl	(%rdi), %edx
	addl	$32, %edx
	movl	%edx, (%rdi)
	.loc	4 127 18                        # x264_src/common/bs.h:127:18
	movq	(%r9), %r11
	addq	$4, %r11
	movq	%r11, (%r9)
.Ltmp487:
.LBB1_81:                               # %if.end19
	#DEBUG_VALUE: x264_sps_write:s <- [DW_OP_LLVM_entry_value 1] $rdi
	#DEBUG_VALUE: x264_sps_write:sps <- $rsi
	.loc	0 295 26                        # x264_src/encoder/set.c:295:26
	movl	1092(%rsi), %eax
.Ltmp488:
	#DEBUG_VALUE: bs_write:s <- undef
	#DEBUG_VALUE: bs_write:i_count <- 1
	#DEBUG_VALUE: bs_write:i_bits <- undef
	.loc	4 117 27                        # x264_src/common/bs.h:117:27
	movq	(%r10), %r8
	.loc	4 117 36 is_stmt 0              # x264_src/common/bs.h:117:36
	addq	%r8, %r8
	.loc	4 117 48                        # x264_src/common/bs.h:117:48
	orq	%rax, %r8
	.loc	4 117 21                        # x264_src/common/bs.h:117:21
	movq	%r8, (%r10)
	.loc	4 118 19 is_stmt 1              # x264_src/common/bs.h:118:19
	leal	-1(%rdx), %ecx
	movl	%ecx, (%rdi)
.Ltmp489:
	.loc	4 119 23                        # x264_src/common/bs.h:119:23
	cmpl	$33, %edx
.Ltmp490:
	.loc	4 119 13 is_stmt 0              # x264_src/common/bs.h:119:13
	jg	.LBB1_83
.Ltmp491:
# %bb.82:                               # %if.then.i1058
	#DEBUG_VALUE: x264_sps_write:s <- [DW_OP_LLVM_entry_value 1] $rdi
	#DEBUG_VALUE: x264_sps_write:sps <- $rsi
	#DEBUG_VALUE: bs_write:i_count <- 1
                                        # kill: def $cl killed $cl killed $rcx
	.loc	4 124 51 is_stmt 1              # x264_src/common/bs.h:124:51
	shlq	%cl, %r8
.Ltmp492:
	#DEBUG_VALUE: endian_fix:x <- $r8
	#DEBUG_VALUE: endian_fix64:x <- $r8
	.loc	11 277 32                       # x264_src/common/osdep.h:277:32
	bswapq	%r8
.Ltmp493:
	.loc	4 124 25                        # x264_src/common/bs.h:124:25
	movl	%r8d, (%r11)
	.loc	4 126 23                        # x264_src/common/bs.h:126:23
	movl	(%rdi), %ecx
	addl	$32, %ecx
	movl	%ecx, (%rdi)
	.loc	4 127 18                        # x264_src/common/bs.h:127:18
	movq	(%r9), %r11
	addq	$4, %r11
	movq	%r11, (%r9)
.Ltmp494:
	.loc	4 117 27                        # x264_src/common/bs.h:117:27
	movq	(%r10), %r8
.Ltmp495:
.LBB1_83:                               # %bs_write.exit1066
	#DEBUG_VALUE: x264_sps_write:s <- [DW_OP_LLVM_entry_value 1] $rdi
	#DEBUG_VALUE: x264_sps_write:sps <- $rsi
	.loc	0 296 10                        # x264_src/encoder/set.c:296:10
	cmpl	$0, 1092(%rsi)
.Ltmp496:
	.loc	0 296 9 is_stmt 0               # x264_src/encoder/set.c:296:9
	jne	.LBB1_87
.Ltmp497:
# %bb.84:                               # %if.then23
	#DEBUG_VALUE: x264_sps_write:s <- [DW_OP_LLVM_entry_value 1] $rdi
	#DEBUG_VALUE: x264_sps_write:sps <- $rsi
	.loc	0 298 30 is_stmt 1              # x264_src/encoder/set.c:298:30
	movl	1096(%rsi), %eax
.Ltmp498:
	#DEBUG_VALUE: bs_write:s <- undef
	#DEBUG_VALUE: bs_write:i_count <- 1
	#DEBUG_VALUE: bs_write:i_bits <- undef
	.loc	4 117 36                        # x264_src/common/bs.h:117:36
	addq	%r8, %r8
	.loc	4 117 48 is_stmt 0              # x264_src/common/bs.h:117:48
	orq	%rax, %r8
	.loc	4 117 21                        # x264_src/common/bs.h:117:21
	movq	%r8, (%r10)
	.loc	4 118 19 is_stmt 1              # x264_src/common/bs.h:118:19
	leal	-1(%rcx), %eax
	movl	%eax, (%rdi)
.Ltmp499:
	.loc	4 119 23                        # x264_src/common/bs.h:119:23
	cmpl	$33, %ecx
.Ltmp500:
	.loc	4 119 13 is_stmt 0              # x264_src/common/bs.h:119:13
	jg	.LBB1_85
.Ltmp501:
# %bb.86:                               # %if.then.i1074
	#DEBUG_VALUE: x264_sps_write:s <- [DW_OP_LLVM_entry_value 1] $rdi
	#DEBUG_VALUE: x264_sps_write:sps <- $rsi
	#DEBUG_VALUE: bs_write:i_count <- 1
	.loc	4 124 51 is_stmt 1              # x264_src/common/bs.h:124:51
	movl	%eax, %ecx
	shlq	%cl, %r8
.Ltmp502:
	#DEBUG_VALUE: endian_fix:x <- $r8
	#DEBUG_VALUE: endian_fix64:x <- $r8
	.loc	11 277 32                       # x264_src/common/osdep.h:277:32
	bswapq	%r8
.Ltmp503:
	.loc	4 124 25                        # x264_src/common/bs.h:124:25
	movl	%r8d, (%r11)
	.loc	4 126 23                        # x264_src/common/bs.h:126:23
	movl	(%rdi), %ecx
	addl	$32, %ecx
	movl	%ecx, (%rdi)
	.loc	4 127 18                        # x264_src/common/bs.h:127:18
	movq	(%r9), %r11
	addq	$4, %r11
	movq	%r11, (%r9)
.Ltmp504:
	.loc	4 117 27                        # x264_src/common/bs.h:117:27
	movq	(%r10), %r8
	jmp	.LBB1_87
.Ltmp505:
.LBB1_77:                               # %if.else16
	#DEBUG_VALUE: x264_sps_write:s <- [DW_OP_LLVM_entry_value 1] $rdi
	#DEBUG_VALUE: x264_sps_write:sps <- $rsi
	.loc	0 293 41                        # x264_src/encoder/set.c:293:41
	movl	%r8d, %ebx
	shrl	$31, %ebx
	addl	%r8d, %ebx
	sarl	%ebx
.Ltmp506:
	#DEBUG_VALUE: bs_write_ue_big:val <- $ebx
	#DEBUG_VALUE: bs_write_ue_big:tmp <- $ebx
	.loc	0 0 41 is_stmt 0                # x264_src/encoder/set.c:0:41
	movl	%ebx, %eax
	shrl	$16, %eax
.Ltmp507:
	#DEBUG_VALUE: bs_write_ue_big:s <- undef
	#DEBUG_VALUE: bs_write_ue_big:size <- 0
	.loc	4 212 13 is_stmt 1              # x264_src/common/bs.h:212:13
	xorl	%ecx, %ecx
	cmpl	$131072, %r8d                   # imm = 0x20000
	setge	%cl
.Ltmp508:
	.loc	4 212 9 is_stmt 0               # x264_src/common/bs.h:212:9
	cmovll	%ebx, %eax
.Ltmp509:
	#DEBUG_VALUE: bs_write_ue_big:tmp <- $eax
	shll	$5, %ecx
.Ltmp510:
	#DEBUG_VALUE: bs_write_ue_big:size <- $ecx
	.loc	4 217 9 is_stmt 1               # x264_src/common/bs.h:217:9
	movl	%eax, %r8d
	shrl	$8, %r8d
	leal	16(%rcx), %ebp
.Ltmp511:
	.loc	4 217 13 is_stmt 0              # x264_src/common/bs.h:217:13
	cmpl	$256, %eax                      # imm = 0x100
.Ltmp512:
	.loc	4 217 9                         # x264_src/common/bs.h:217:9
	cmovll	%eax, %r8d
.Ltmp513:
	#DEBUG_VALUE: bs_write_ue_big:tmp <- $r8d
	#DEBUG_VALUE: bs_write_ue_big:size <- undef
	.loc	4 222 13 is_stmt 1              # x264_src/common/bs.h:222:13
	movslq	%r8d, %rax
	movzbl	x264_ue_size_tab(%rax), %r8d
.Ltmp514:
	.loc	4 223 22                        # x264_src/common/bs.h:223:22
	movzbl	%bpl, %eax
	cmovll	%ecx, %eax
	movzbl	%al, %eax
	addl	%r8d, %eax
	shrl	%eax
.Ltmp515:
	#DEBUG_VALUE: bs_write:i_count <- $eax
	#DEBUG_VALUE: bs_write:s <- undef
	#DEBUG_VALUE: bs_write:i_bits <- 0
	.loc	4 117 27                        # x264_src/common/bs.h:117:27
	movq	(%r10), %r8
	.loc	4 117 36 is_stmt 0              # x264_src/common/bs.h:117:36
	movl	%eax, %ecx
	shlq	%cl, %r8
	.loc	4 117 21                        # x264_src/common/bs.h:117:21
	movq	%r8, (%r10)
	.loc	4 118 19 is_stmt 1              # x264_src/common/bs.h:118:19
	subl	%eax, %edx
	movl	%edx, (%rdi)
.Ltmp516:
	.loc	4 119 23                        # x264_src/common/bs.h:119:23
	cmpl	$32, %edx
.Ltmp517:
	.loc	4 119 13 is_stmt 0              # x264_src/common/bs.h:119:13
	jg	.LBB1_79
.Ltmp518:
# %bb.78:                               # %if.then.i.i1041
	#DEBUG_VALUE: x264_sps_write:s <- [DW_OP_LLVM_entry_value 1] $rdi
	#DEBUG_VALUE: x264_sps_write:sps <- $rsi
	#DEBUG_VALUE: bs_write_ue_big:val <- $ebx
	#DEBUG_VALUE: bs_write:i_count <- $ecx
	#DEBUG_VALUE: bs_write:i_bits <- 0
	.loc	4 124 51 is_stmt 1              # x264_src/common/bs.h:124:51
	movl	%edx, %ecx
.Ltmp519:
	#DEBUG_VALUE: bs_write:i_count <- $eax
	shlq	%cl, %r8
.Ltmp520:
	#DEBUG_VALUE: endian_fix:x <- $r8
	#DEBUG_VALUE: endian_fix64:x <- $r8
	.loc	11 277 32                       # x264_src/common/osdep.h:277:32
	bswapq	%r8
.Ltmp521:
	.loc	4 124 25                        # x264_src/common/bs.h:124:25
	movl	%r8d, (%r11)
	.loc	4 126 23                        # x264_src/common/bs.h:126:23
	movl	(%rdi), %edx
	addl	$32, %edx
	.loc	4 127 18                        # x264_src/common/bs.h:127:18
	movq	(%r9), %r11
	addq	$4, %r11
	movq	%r11, (%r9)
.Ltmp522:
	.loc	4 117 27                        # x264_src/common/bs.h:117:27
	movq	(%r10), %r8
.Ltmp523:
.LBB1_79:                               # %bs_write.exit.i1025
	#DEBUG_VALUE: x264_sps_write:s <- [DW_OP_LLVM_entry_value 1] $rdi
	#DEBUG_VALUE: x264_sps_write:sps <- $rsi
	#DEBUG_VALUE: bs_write_ue_big:val <- $ebx
	.loc	4 224 27                        # x264_src/common/bs.h:224:27
	incl	%eax
.Ltmp524:
	#DEBUG_VALUE: bs_write:i_count <- $eax
	#DEBUG_VALUE: bs_write:s <- undef
	#DEBUG_VALUE: bs_write:i_bits <- $ebx
	.loc	4 117 36                        # x264_src/common/bs.h:117:36
	movl	%eax, %ecx
	shlq	%cl, %r8
	.loc	4 117 50 is_stmt 0              # x264_src/common/bs.h:117:50
	movl	%ebx, %ebx
.Ltmp525:
	.loc	4 117 48                        # x264_src/common/bs.h:117:48
	orq	%r8, %rbx
	.loc	4 117 21                        # x264_src/common/bs.h:117:21
	movq	%rbx, (%r10)
	.loc	4 118 19 is_stmt 1              # x264_src/common/bs.h:118:19
	subl	%eax, %edx
	movl	%edx, (%rdi)
.Ltmp526:
	.loc	4 119 23                        # x264_src/common/bs.h:119:23
	cmpl	$32, %edx
.Ltmp527:
	.loc	4 119 13 is_stmt 0              # x264_src/common/bs.h:119:13
	jle	.LBB1_80
	jmp	.LBB1_81
.Ltmp528:
.LBB1_85:
	#DEBUG_VALUE: x264_sps_write:s <- [DW_OP_LLVM_entry_value 1] $rdi
	#DEBUG_VALUE: x264_sps_write:sps <- $rsi
	#DEBUG_VALUE: bs_write:i_count <- 1
	.loc	4 0 13                          # x264_src/common/bs.h:0:13
	movl	%eax, %ecx
.Ltmp529:
.LBB1_87:                               # %if.end24
	#DEBUG_VALUE: x264_sps_write:s <- [DW_OP_LLVM_entry_value 1] $rdi
	#DEBUG_VALUE: x264_sps_write:sps <- $rsi
	.loc	0 300 26 is_stmt 1              # x264_src/encoder/set.c:300:26
	movl	1100(%rsi), %eax
.Ltmp530:
	#DEBUG_VALUE: bs_write:s <- undef
	#DEBUG_VALUE: bs_write:i_count <- 1
	#DEBUG_VALUE: bs_write:i_bits <- undef
	.loc	4 117 36                        # x264_src/common/bs.h:117:36
	addq	%r8, %r8
	.loc	4 117 48 is_stmt 0              # x264_src/common/bs.h:117:48
	orq	%rax, %r8
	.loc	4 117 21                        # x264_src/common/bs.h:117:21
	movq	%r8, (%r10)
	.loc	4 118 19 is_stmt 1              # x264_src/common/bs.h:118:19
	leal	-1(%rcx), %eax
	movl	%eax, (%rdi)
.Ltmp531:
	.loc	4 119 23                        # x264_src/common/bs.h:119:23
	cmpl	$33, %ecx
.Ltmp532:
	.loc	4 119 13 is_stmt 0              # x264_src/common/bs.h:119:13
	jg	.LBB1_89
.Ltmp533:
# %bb.88:                               # %if.then.i1090
	#DEBUG_VALUE: x264_sps_write:s <- [DW_OP_LLVM_entry_value 1] $rdi
	#DEBUG_VALUE: x264_sps_write:sps <- $rsi
	#DEBUG_VALUE: bs_write:i_count <- 1
	.loc	4 124 51 is_stmt 1              # x264_src/common/bs.h:124:51
	movl	%eax, %ecx
	shlq	%cl, %r8
.Ltmp534:
	#DEBUG_VALUE: endian_fix:x <- $r8
	#DEBUG_VALUE: endian_fix64:x <- $r8
	.loc	11 277 32                       # x264_src/common/osdep.h:277:32
	bswapq	%r8
.Ltmp535:
	.loc	4 124 25                        # x264_src/common/bs.h:124:25
	movl	%r8d, (%r11)
	.loc	4 126 23                        # x264_src/common/bs.h:126:23
	movl	(%rdi), %eax
	addl	$32, %eax
	movl	%eax, (%rdi)
	.loc	4 127 18                        # x264_src/common/bs.h:127:18
	movq	(%r9), %r11
	addq	$4, %r11
	movq	%r11, (%r9)
.Ltmp536:
	.loc	4 117 27                        # x264_src/common/bs.h:117:27
	movq	(%r10), %r8
.Ltmp537:
.LBB1_89:                               # %bs_write.exit1098
	#DEBUG_VALUE: x264_sps_write:s <- [DW_OP_LLVM_entry_value 1] $rdi
	#DEBUG_VALUE: x264_sps_write:sps <- $rsi
	.loc	0 302 26                        # x264_src/encoder/set.c:302:26
	movl	1104(%rsi), %ecx
.Ltmp538:
	#DEBUG_VALUE: bs_write:s <- undef
	#DEBUG_VALUE: bs_write:i_count <- 1
	#DEBUG_VALUE: bs_write:i_bits <- undef
	.loc	4 117 36                        # x264_src/common/bs.h:117:36
	addq	%r8, %r8
	.loc	4 117 48 is_stmt 0              # x264_src/common/bs.h:117:48
	orq	%rcx, %r8
	.loc	4 117 21                        # x264_src/common/bs.h:117:21
	movq	%r8, (%r10)
	.loc	4 118 19 is_stmt 1              # x264_src/common/bs.h:118:19
	leal	-1(%rax), %edx
	movl	%edx, (%rdi)
.Ltmp539:
	.loc	4 119 23                        # x264_src/common/bs.h:119:23
	cmpl	$33, %eax
.Ltmp540:
	.loc	4 119 13 is_stmt 0              # x264_src/common/bs.h:119:13
	jg	.LBB1_91
.Ltmp541:
# %bb.90:                               # %if.then.i1106
	#DEBUG_VALUE: x264_sps_write:s <- [DW_OP_LLVM_entry_value 1] $rdi
	#DEBUG_VALUE: x264_sps_write:sps <- $rsi
	#DEBUG_VALUE: bs_write:i_count <- 1
	.loc	4 124 51 is_stmt 1              # x264_src/common/bs.h:124:51
	movl	%edx, %ecx
	shlq	%cl, %r8
.Ltmp542:
	#DEBUG_VALUE: endian_fix:x <- $r8
	#DEBUG_VALUE: endian_fix64:x <- $r8
	.loc	11 277 32                       # x264_src/common/osdep.h:277:32
	bswapq	%r8
.Ltmp543:
	.loc	4 124 25                        # x264_src/common/bs.h:124:25
	movl	%r8d, (%r11)
	.loc	4 126 23                        # x264_src/common/bs.h:126:23
	movl	(%rdi), %edx
	addl	$32, %edx
	movl	%edx, (%rdi)
	.loc	4 127 18                        # x264_src/common/bs.h:127:18
	movq	(%r9), %r11
	addq	$4, %r11
	movq	%r11, (%r9)
.Ltmp544:
	.loc	4 117 27                        # x264_src/common/bs.h:117:27
	movq	(%r10), %r8
.Ltmp545:
.LBB1_91:                               # %bs_write.exit1114
	#DEBUG_VALUE: x264_sps_write:s <- [DW_OP_LLVM_entry_value 1] $rdi
	#DEBUG_VALUE: x264_sps_write:sps <- $rsi
	.loc	0 303 9                         # x264_src/encoder/set.c:303:9
	cmpl	$0, 1104(%rsi)
.Ltmp546:
	.loc	0 303 9 is_stmt 0               # x264_src/encoder/set.c:303:9
	je	.LBB1_108
.Ltmp547:
# %bb.92:                               # %if.then27
	#DEBUG_VALUE: x264_sps_write:s <- [DW_OP_LLVM_entry_value 1] $rdi
	#DEBUG_VALUE: x264_sps_write:sps <- $rsi
	.loc	0 305 35 is_stmt 1              # x264_src/encoder/set.c:305:35
	movl	1108(%rsi), %eax
	.loc	0 305 44 is_stmt 0              # x264_src/encoder/set.c:305:44
	movl	%eax, %ebx
	shrl	$31, %ebx
	addl	%eax, %ebx
	sarl	%ebx
.Ltmp548:
	#DEBUG_VALUE: bs_write_ue_big:val <- $ebx
	#DEBUG_VALUE: bs_write_ue_big:s <- undef
	#DEBUG_VALUE: bs_write_ue_big:size <- 0
	.loc	4 211 15 is_stmt 1              # x264_src/common/bs.h:211:15
	incl	%ebx
.Ltmp549:
	#DEBUG_VALUE: bs_write_ue_big:val <- $ebx
	#DEBUG_VALUE: bs_write_ue_big:tmp <- $ebx
	.loc	4 0 15 is_stmt 0                # x264_src/common/bs.h:0:15
	movl	%ebx, %ecx
	shrl	$16, %ecx
.Ltmp550:
	.loc	4 212 13 is_stmt 1              # x264_src/common/bs.h:212:13
	xorl	%r14d, %r14d
	cmpl	$131070, %eax                   # imm = 0x1FFFE
.Ltmp551:
	.loc	4 212 9 is_stmt 0               # x264_src/common/bs.h:212:9
	cmovll	%ebx, %ecx
.Ltmp552:
	#DEBUG_VALUE: bs_write_ue_big:tmp <- $ecx
	.loc	4 212 13                        # x264_src/common/bs.h:212:13
	setge	%r14b
.Ltmp553:
	.loc	4 212 9                         # x264_src/common/bs.h:212:9
	shll	$5, %r14d
.Ltmp554:
	#DEBUG_VALUE: bs_write_ue_big:size <- $r14d
	.loc	4 217 9 is_stmt 1               # x264_src/common/bs.h:217:9
	movl	%ecx, %eax
	shrl	$8, %eax
	leal	16(%r14), %ebp
.Ltmp555:
	.loc	4 217 13 is_stmt 0              # x264_src/common/bs.h:217:13
	cmpl	$256, %ecx                      # imm = 0x100
.Ltmp556:
	.loc	4 217 9                         # x264_src/common/bs.h:217:9
	cmovll	%ecx, %eax
.Ltmp557:
	#DEBUG_VALUE: bs_write_ue_big:tmp <- $eax
	#DEBUG_VALUE: bs_write_ue_big:size <- undef
	.loc	4 222 13 is_stmt 1              # x264_src/common/bs.h:222:13
	cltq
.Ltmp558:
	.loc	4 223 22                        # x264_src/common/bs.h:223:22
	movzbl	%bpl, %ecx
	cmovll	%r14d, %ecx
	.loc	4 222 13                        # x264_src/common/bs.h:222:13
	movzbl	x264_ue_size_tab(%rax), %ebp
	.loc	4 223 22                        # x264_src/common/bs.h:223:22
	movzbl	%cl, %eax
	addl	%ebp, %eax
	shrl	%eax
.Ltmp559:
	#DEBUG_VALUE: bs_write:i_count <- $eax
	#DEBUG_VALUE: bs_write:s <- undef
	#DEBUG_VALUE: bs_write:i_bits <- 0
	.loc	4 117 36                        # x264_src/common/bs.h:117:36
	movl	%eax, %ecx
	shlq	%cl, %r8
	.loc	4 117 21 is_stmt 0              # x264_src/common/bs.h:117:21
	movq	%r8, (%r10)
	.loc	4 118 19 is_stmt 1              # x264_src/common/bs.h:118:19
	subl	%eax, %edx
	movl	%edx, (%rdi)
.Ltmp560:
	.loc	4 119 23                        # x264_src/common/bs.h:119:23
	cmpl	$32, %edx
.Ltmp561:
	.loc	4 119 13 is_stmt 0              # x264_src/common/bs.h:119:13
	jg	.LBB1_94
.Ltmp562:
# %bb.93:                               # %if.then.i.i1152
	#DEBUG_VALUE: x264_sps_write:s <- [DW_OP_LLVM_entry_value 1] $rdi
	#DEBUG_VALUE: x264_sps_write:sps <- $rsi
	#DEBUG_VALUE: bs_write_ue_big:val <- $ebx
	#DEBUG_VALUE: bs_write:i_count <- $ecx
	#DEBUG_VALUE: bs_write:i_bits <- 0
	.loc	4 124 51 is_stmt 1              # x264_src/common/bs.h:124:51
	movl	%edx, %ecx
.Ltmp563:
	#DEBUG_VALUE: bs_write:i_count <- $eax
	shlq	%cl, %r8
.Ltmp564:
	#DEBUG_VALUE: endian_fix:x <- $r8
	#DEBUG_VALUE: endian_fix64:x <- $r8
	.loc	11 277 32                       # x264_src/common/osdep.h:277:32
	bswapq	%r8
.Ltmp565:
	.loc	4 124 25                        # x264_src/common/bs.h:124:25
	movl	%r8d, (%r11)
	.loc	4 126 23                        # x264_src/common/bs.h:126:23
	movl	(%rdi), %edx
	addl	$32, %edx
	.loc	4 127 18                        # x264_src/common/bs.h:127:18
	movq	(%r9), %r11
	addq	$4, %r11
	movq	%r11, (%r9)
.Ltmp566:
	.loc	4 117 27                        # x264_src/common/bs.h:117:27
	movq	(%r10), %r8
.Ltmp567:
.LBB1_94:                               # %bs_write.exit.i1136
	#DEBUG_VALUE: x264_sps_write:s <- [DW_OP_LLVM_entry_value 1] $rdi
	#DEBUG_VALUE: x264_sps_write:sps <- $rsi
	#DEBUG_VALUE: bs_write_ue_big:val <- $ebx
	.loc	4 224 27                        # x264_src/common/bs.h:224:27
	incl	%eax
.Ltmp568:
	#DEBUG_VALUE: bs_write:i_count <- $eax
	#DEBUG_VALUE: bs_write:s <- undef
	#DEBUG_VALUE: bs_write:i_bits <- $ebx
	.loc	4 117 36                        # x264_src/common/bs.h:117:36
	movl	%eax, %ecx
	shlq	%cl, %r8
	.loc	4 117 50 is_stmt 0              # x264_src/common/bs.h:117:50
	movl	%ebx, %ebx
.Ltmp569:
	.loc	4 117 48                        # x264_src/common/bs.h:117:48
	orq	%r8, %rbx
	.loc	4 117 21                        # x264_src/common/bs.h:117:21
	movq	%rbx, (%r10)
	.loc	4 118 19 is_stmt 1              # x264_src/common/bs.h:118:19
	subl	%eax, %edx
	movl	%edx, (%rdi)
.Ltmp570:
	.loc	4 119 23                        # x264_src/common/bs.h:119:23
	cmpl	$32, %edx
.Ltmp571:
	.loc	4 119 13 is_stmt 0              # x264_src/common/bs.h:119:13
	jg	.LBB1_96
.Ltmp572:
# %bb.95:                               # %if.then.i25.i1144
	#DEBUG_VALUE: x264_sps_write:s <- [DW_OP_LLVM_entry_value 1] $rdi
	#DEBUG_VALUE: x264_sps_write:sps <- $rsi
	#DEBUG_VALUE: bs_write:i_count <- $ecx
	.loc	4 124 51 is_stmt 1              # x264_src/common/bs.h:124:51
	movl	%edx, %ecx
.Ltmp573:
	#DEBUG_VALUE: bs_write:i_count <- $eax
	shlq	%cl, %rbx
.Ltmp574:
	#DEBUG_VALUE: endian_fix:x <- $rbx
	#DEBUG_VALUE: endian_fix64:x <- $rbx
	.loc	11 277 32                       # x264_src/common/osdep.h:277:32
	bswapq	%rbx
.Ltmp575:
	.loc	4 124 25                        # x264_src/common/bs.h:124:25
	movl	%ebx, (%r11)
	.loc	4 126 23                        # x264_src/common/bs.h:126:23
	movl	(%rdi), %edx
	addl	$32, %edx
	movl	%edx, (%rdi)
	.loc	4 127 18                        # x264_src/common/bs.h:127:18
	movq	(%r9), %r11
	addq	$4, %r11
	movq	%r11, (%r9)
.Ltmp576:
	.loc	4 117 27                        # x264_src/common/bs.h:117:27
	movq	(%r10), %rbx
.Ltmp577:
.LBB1_96:                               # %bs_write_ue_big.exit1161
	#DEBUG_VALUE: x264_sps_write:s <- [DW_OP_LLVM_entry_value 1] $rdi
	#DEBUG_VALUE: x264_sps_write:sps <- $rsi
	.loc	0 306 35                        # x264_src/encoder/set.c:306:35
	movl	1112(%rsi), %eax
	.loc	0 306 44 is_stmt 0              # x264_src/encoder/set.c:306:44
	movl	%eax, %r8d
	shrl	$31, %r8d
	addl	%eax, %r8d
	sarl	%r8d
.Ltmp578:
	#DEBUG_VALUE: bs_write_ue_big:val <- $r8d
	#DEBUG_VALUE: bs_write_ue_big:s <- undef
	#DEBUG_VALUE: bs_write_ue_big:size <- 0
	.loc	4 211 15 is_stmt 1              # x264_src/common/bs.h:211:15
	incl	%r8d
.Ltmp579:
	#DEBUG_VALUE: bs_write_ue_big:val <- $r8d
	#DEBUG_VALUE: bs_write_ue_big:tmp <- $r8d
	.loc	4 0 15 is_stmt 0                # x264_src/common/bs.h:0:15
	movl	%r8d, %ecx
	shrl	$16, %ecx
.Ltmp580:
	.loc	4 212 13 is_stmt 1              # x264_src/common/bs.h:212:13
	xorl	%r14d, %r14d
	cmpl	$131070, %eax                   # imm = 0x1FFFE
.Ltmp581:
	.loc	4 212 9 is_stmt 0               # x264_src/common/bs.h:212:9
	cmovll	%r8d, %ecx
.Ltmp582:
	#DEBUG_VALUE: bs_write_ue_big:tmp <- $ecx
	.loc	4 212 13                        # x264_src/common/bs.h:212:13
	setge	%r14b
.Ltmp583:
	.loc	4 212 9                         # x264_src/common/bs.h:212:9
	shll	$5, %r14d
.Ltmp584:
	#DEBUG_VALUE: bs_write_ue_big:size <- $r14d
	.loc	4 217 9 is_stmt 1               # x264_src/common/bs.h:217:9
	movl	%ecx, %eax
	shrl	$8, %eax
	leal	16(%r14), %ebp
.Ltmp585:
	.loc	4 217 13 is_stmt 0              # x264_src/common/bs.h:217:13
	cmpl	$256, %ecx                      # imm = 0x100
.Ltmp586:
	.loc	4 217 9                         # x264_src/common/bs.h:217:9
	cmovll	%ecx, %eax
.Ltmp587:
	#DEBUG_VALUE: bs_write_ue_big:tmp <- $eax
	#DEBUG_VALUE: bs_write_ue_big:size <- undef
	.loc	4 222 13 is_stmt 1              # x264_src/common/bs.h:222:13
	cltq
.Ltmp588:
	.loc	4 223 22                        # x264_src/common/bs.h:223:22
	movzbl	%bpl, %ecx
	cmovll	%r14d, %ecx
	.loc	4 222 13                        # x264_src/common/bs.h:222:13
	movzbl	x264_ue_size_tab(%rax), %ebp
	.loc	4 223 22                        # x264_src/common/bs.h:223:22
	movzbl	%cl, %eax
	addl	%ebp, %eax
	shrl	%eax
.Ltmp589:
	#DEBUG_VALUE: bs_write:i_count <- $eax
	#DEBUG_VALUE: bs_write:s <- undef
	#DEBUG_VALUE: bs_write:i_bits <- 0
	.loc	4 117 36                        # x264_src/common/bs.h:117:36
	movl	%eax, %ecx
	shlq	%cl, %rbx
	.loc	4 117 21 is_stmt 0              # x264_src/common/bs.h:117:21
	movq	%rbx, (%r10)
	.loc	4 118 19 is_stmt 1              # x264_src/common/bs.h:118:19
	subl	%eax, %edx
	movl	%edx, (%rdi)
.Ltmp590:
	.loc	4 119 23                        # x264_src/common/bs.h:119:23
	cmpl	$32, %edx
.Ltmp591:
	.loc	4 119 13 is_stmt 0              # x264_src/common/bs.h:119:13
	jg	.LBB1_98
.Ltmp592:
# %bb.97:                               # %if.then.i.i1199
	#DEBUG_VALUE: x264_sps_write:s <- [DW_OP_LLVM_entry_value 1] $rdi
	#DEBUG_VALUE: x264_sps_write:sps <- $rsi
	#DEBUG_VALUE: bs_write_ue_big:val <- $r8d
	#DEBUG_VALUE: bs_write:i_count <- $ecx
	#DEBUG_VALUE: bs_write:i_bits <- 0
	.loc	4 124 51 is_stmt 1              # x264_src/common/bs.h:124:51
	movl	%edx, %ecx
.Ltmp593:
	#DEBUG_VALUE: bs_write:i_count <- $eax
	shlq	%cl, %rbx
.Ltmp594:
	#DEBUG_VALUE: endian_fix:x <- $rbx
	#DEBUG_VALUE: endian_fix64:x <- $rbx
	.loc	11 277 32                       # x264_src/common/osdep.h:277:32
	bswapq	%rbx
.Ltmp595:
	.loc	4 124 25                        # x264_src/common/bs.h:124:25
	movl	%ebx, (%r11)
	.loc	4 126 23                        # x264_src/common/bs.h:126:23
	movl	(%rdi), %edx
	addl	$32, %edx
	.loc	4 127 18                        # x264_src/common/bs.h:127:18
	movq	(%r9), %r11
	addq	$4, %r11
	movq	%r11, (%r9)
.Ltmp596:
	.loc	4 117 27                        # x264_src/common/bs.h:117:27
	movq	(%r10), %rbx
.Ltmp597:
.LBB1_98:                               # %bs_write.exit.i1183
	#DEBUG_VALUE: x264_sps_write:s <- [DW_OP_LLVM_entry_value 1] $rdi
	#DEBUG_VALUE: x264_sps_write:sps <- $rsi
	#DEBUG_VALUE: bs_write_ue_big:val <- $r8d
	.loc	4 224 27                        # x264_src/common/bs.h:224:27
	incl	%eax
.Ltmp598:
	#DEBUG_VALUE: bs_write:i_count <- $eax
	#DEBUG_VALUE: bs_write:s <- undef
	#DEBUG_VALUE: bs_write:i_bits <- $r8d
	.loc	4 117 36                        # x264_src/common/bs.h:117:36
	movl	%eax, %ecx
	shlq	%cl, %rbx
	.loc	4 117 50 is_stmt 0              # x264_src/common/bs.h:117:50
	movl	%r8d, %r8d
.Ltmp599:
	.loc	4 117 48                        # x264_src/common/bs.h:117:48
	orq	%rbx, %r8
	.loc	4 117 21                        # x264_src/common/bs.h:117:21
	movq	%r8, (%r10)
	.loc	4 118 19 is_stmt 1              # x264_src/common/bs.h:118:19
	subl	%eax, %edx
	movl	%edx, (%rdi)
.Ltmp600:
	.loc	4 119 23                        # x264_src/common/bs.h:119:23
	cmpl	$32, %edx
.Ltmp601:
	.loc	4 119 13 is_stmt 0              # x264_src/common/bs.h:119:13
	jg	.LBB1_100
.Ltmp602:
# %bb.99:                               # %if.then.i25.i1191
	#DEBUG_VALUE: x264_sps_write:s <- [DW_OP_LLVM_entry_value 1] $rdi
	#DEBUG_VALUE: x264_sps_write:sps <- $rsi
	#DEBUG_VALUE: bs_write:i_count <- $ecx
	.loc	4 124 51 is_stmt 1              # x264_src/common/bs.h:124:51
	movl	%edx, %ecx
.Ltmp603:
	#DEBUG_VALUE: bs_write:i_count <- $eax
	shlq	%cl, %r8
.Ltmp604:
	#DEBUG_VALUE: endian_fix:x <- $r8
	#DEBUG_VALUE: endian_fix64:x <- $r8
	.loc	11 277 32                       # x264_src/common/osdep.h:277:32
	bswapq	%r8
.Ltmp605:
	.loc	4 124 25                        # x264_src/common/bs.h:124:25
	movl	%r8d, (%r11)
	.loc	4 126 23                        # x264_src/common/bs.h:126:23
	movl	(%rdi), %edx
	addl	$32, %edx
	movl	%edx, (%rdi)
	.loc	4 127 18                        # x264_src/common/bs.h:127:18
	movq	(%r9), %r11
	addq	$4, %r11
	movq	%r11, (%r9)
.Ltmp606:
	.loc	4 117 27                        # x264_src/common/bs.h:117:27
	movq	(%r10), %r8
.Ltmp607:
.LBB1_100:                              # %bs_write_ue_big.exit1208
	#DEBUG_VALUE: x264_sps_write:s <- [DW_OP_LLVM_entry_value 1] $rdi
	#DEBUG_VALUE: x264_sps_write:sps <- $rsi
	.loc	0 307 35                        # x264_src/encoder/set.c:307:35
	movl	1116(%rsi), %eax
	.loc	0 307 44 is_stmt 0              # x264_src/encoder/set.c:307:44
	movl	%eax, %ebx
	shrl	$31, %ebx
	addl	%eax, %ebx
	sarl	%ebx
.Ltmp608:
	#DEBUG_VALUE: bs_write_ue_big:val <- $ebx
	#DEBUG_VALUE: bs_write_ue_big:s <- undef
	#DEBUG_VALUE: bs_write_ue_big:size <- 0
	.loc	4 211 15 is_stmt 1              # x264_src/common/bs.h:211:15
	incl	%ebx
.Ltmp609:
	#DEBUG_VALUE: bs_write_ue_big:val <- $ebx
	#DEBUG_VALUE: bs_write_ue_big:tmp <- $ebx
	.loc	4 0 15 is_stmt 0                # x264_src/common/bs.h:0:15
	movl	%ebx, %ecx
	shrl	$16, %ecx
.Ltmp610:
	.loc	4 212 13 is_stmt 1              # x264_src/common/bs.h:212:13
	xorl	%r14d, %r14d
	cmpl	$131070, %eax                   # imm = 0x1FFFE
.Ltmp611:
	.loc	4 212 9 is_stmt 0               # x264_src/common/bs.h:212:9
	cmovll	%ebx, %ecx
.Ltmp612:
	#DEBUG_VALUE: bs_write_ue_big:tmp <- $ecx
	.loc	4 212 13                        # x264_src/common/bs.h:212:13
	setge	%r14b
.Ltmp613:
	.loc	4 212 9                         # x264_src/common/bs.h:212:9
	shll	$5, %r14d
.Ltmp614:
	#DEBUG_VALUE: bs_write_ue_big:size <- $r14d
	.loc	4 217 9 is_stmt 1               # x264_src/common/bs.h:217:9
	movl	%ecx, %eax
	shrl	$8, %eax
	leal	16(%r14), %ebp
.Ltmp615:
	.loc	4 217 13 is_stmt 0              # x264_src/common/bs.h:217:13
	cmpl	$256, %ecx                      # imm = 0x100
.Ltmp616:
	.loc	4 217 9                         # x264_src/common/bs.h:217:9
	cmovll	%ecx, %eax
.Ltmp617:
	#DEBUG_VALUE: bs_write_ue_big:tmp <- $eax
	#DEBUG_VALUE: bs_write_ue_big:size <- undef
	.loc	4 222 13 is_stmt 1              # x264_src/common/bs.h:222:13
	cltq
.Ltmp618:
	.loc	4 223 22                        # x264_src/common/bs.h:223:22
	movzbl	%bpl, %ecx
	cmovll	%r14d, %ecx
	.loc	4 222 13                        # x264_src/common/bs.h:222:13
	movzbl	x264_ue_size_tab(%rax), %ebp
	.loc	4 223 22                        # x264_src/common/bs.h:223:22
	movzbl	%cl, %eax
	addl	%ebp, %eax
	shrl	%eax
.Ltmp619:
	#DEBUG_VALUE: bs_write:i_count <- $eax
	#DEBUG_VALUE: bs_write:s <- undef
	#DEBUG_VALUE: bs_write:i_bits <- 0
	.loc	4 117 36                        # x264_src/common/bs.h:117:36
	movl	%eax, %ecx
	shlq	%cl, %r8
	.loc	4 117 21 is_stmt 0              # x264_src/common/bs.h:117:21
	movq	%r8, (%r10)
	.loc	4 118 19 is_stmt 1              # x264_src/common/bs.h:118:19
	subl	%eax, %edx
	movl	%edx, (%rdi)
.Ltmp620:
	.loc	4 119 23                        # x264_src/common/bs.h:119:23
	cmpl	$32, %edx
.Ltmp621:
	.loc	4 119 13 is_stmt 0              # x264_src/common/bs.h:119:13
	jg	.LBB1_102
.Ltmp622:
# %bb.101:                              # %if.then.i.i1246
	#DEBUG_VALUE: x264_sps_write:s <- [DW_OP_LLVM_entry_value 1] $rdi
	#DEBUG_VALUE: x264_sps_write:sps <- $rsi
	#DEBUG_VALUE: bs_write_ue_big:val <- $ebx
	#DEBUG_VALUE: bs_write:i_count <- $ecx
	#DEBUG_VALUE: bs_write:i_bits <- 0
	.loc	4 124 51 is_stmt 1              # x264_src/common/bs.h:124:51
	movl	%edx, %ecx
.Ltmp623:
	#DEBUG_VALUE: bs_write:i_count <- $eax
	shlq	%cl, %r8
.Ltmp624:
	#DEBUG_VALUE: endian_fix:x <- $r8
	#DEBUG_VALUE: endian_fix64:x <- $r8
	.loc	11 277 32                       # x264_src/common/osdep.h:277:32
	bswapq	%r8
.Ltmp625:
	.loc	4 124 25                        # x264_src/common/bs.h:124:25
	movl	%r8d, (%r11)
	.loc	4 126 23                        # x264_src/common/bs.h:126:23
	movl	(%rdi), %edx
	addl	$32, %edx
	.loc	4 127 18                        # x264_src/common/bs.h:127:18
	movq	(%r9), %r11
	addq	$4, %r11
	movq	%r11, (%r9)
.Ltmp626:
	.loc	4 117 27                        # x264_src/common/bs.h:117:27
	movq	(%r10), %r8
.Ltmp627:
.LBB1_102:                              # %bs_write.exit.i1230
	#DEBUG_VALUE: x264_sps_write:s <- [DW_OP_LLVM_entry_value 1] $rdi
	#DEBUG_VALUE: x264_sps_write:sps <- $rsi
	#DEBUG_VALUE: bs_write_ue_big:val <- $ebx
	.loc	4 224 27                        # x264_src/common/bs.h:224:27
	incl	%eax
.Ltmp628:
	#DEBUG_VALUE: bs_write:i_count <- $eax
	#DEBUG_VALUE: bs_write:s <- undef
	#DEBUG_VALUE: bs_write:i_bits <- $ebx
	.loc	4 117 36                        # x264_src/common/bs.h:117:36
	movl	%eax, %ecx
	shlq	%cl, %r8
	.loc	4 117 50 is_stmt 0              # x264_src/common/bs.h:117:50
	movl	%ebx, %ebx
.Ltmp629:
	.loc	4 117 48                        # x264_src/common/bs.h:117:48
	orq	%r8, %rbx
	.loc	4 117 21                        # x264_src/common/bs.h:117:21
	movq	%rbx, (%r10)
	.loc	4 118 19 is_stmt 1              # x264_src/common/bs.h:118:19
	subl	%eax, %edx
	movl	%edx, (%rdi)
.Ltmp630:
	.loc	4 119 23                        # x264_src/common/bs.h:119:23
	cmpl	$32, %edx
.Ltmp631:
	.loc	4 119 13 is_stmt 0              # x264_src/common/bs.h:119:13
	jg	.LBB1_104
.Ltmp632:
# %bb.103:                              # %if.then.i25.i1238
	#DEBUG_VALUE: x264_sps_write:s <- [DW_OP_LLVM_entry_value 1] $rdi
	#DEBUG_VALUE: x264_sps_write:sps <- $rsi
	#DEBUG_VALUE: bs_write:i_count <- $ecx
	.loc	4 124 51 is_stmt 1              # x264_src/common/bs.h:124:51
	movl	%edx, %ecx
.Ltmp633:
	#DEBUG_VALUE: bs_write:i_count <- $eax
	shlq	%cl, %rbx
.Ltmp634:
	#DEBUG_VALUE: endian_fix:x <- $rbx
	#DEBUG_VALUE: endian_fix64:x <- $rbx
	.loc	11 277 32                       # x264_src/common/osdep.h:277:32
	bswapq	%rbx
.Ltmp635:
	.loc	4 124 25                        # x264_src/common/bs.h:124:25
	movl	%ebx, (%r11)
	.loc	4 126 23                        # x264_src/common/bs.h:126:23
	movl	(%rdi), %edx
	addl	$32, %edx
	movl	%edx, (%rdi)
	.loc	4 127 18                        # x264_src/common/bs.h:127:18
	movq	(%r9), %r11
	addq	$4, %r11
	movq	%r11, (%r9)
.Ltmp636:
	.loc	4 117 27                        # x264_src/common/bs.h:117:27
	movq	(%r10), %rbx
.Ltmp637:
.LBB1_104:                              # %bs_write_ue_big.exit1255
	#DEBUG_VALUE: x264_sps_write:s <- [DW_OP_LLVM_entry_value 1] $rdi
	#DEBUG_VALUE: x264_sps_write:sps <- $rsi
	.loc	0 308 35                        # x264_src/encoder/set.c:308:35
	movl	1120(%rsi), %eax
	.loc	0 308 44 is_stmt 0              # x264_src/encoder/set.c:308:44
	movl	%eax, %r8d
	shrl	$31, %r8d
	addl	%eax, %r8d
	sarl	%r8d
.Ltmp638:
	#DEBUG_VALUE: bs_write_ue_big:val <- $r8d
	#DEBUG_VALUE: bs_write_ue_big:s <- undef
	#DEBUG_VALUE: bs_write_ue_big:size <- 0
	.loc	4 211 15 is_stmt 1              # x264_src/common/bs.h:211:15
	incl	%r8d
.Ltmp639:
	#DEBUG_VALUE: bs_write_ue_big:val <- $r8d
	#DEBUG_VALUE: bs_write_ue_big:tmp <- $r8d
	.loc	4 0 15 is_stmt 0                # x264_src/common/bs.h:0:15
	movl	%r8d, %ecx
	shrl	$16, %ecx
.Ltmp640:
	.loc	4 212 13 is_stmt 1              # x264_src/common/bs.h:212:13
	xorl	%r14d, %r14d
	cmpl	$131070, %eax                   # imm = 0x1FFFE
.Ltmp641:
	.loc	4 212 9 is_stmt 0               # x264_src/common/bs.h:212:9
	cmovll	%r8d, %ecx
.Ltmp642:
	#DEBUG_VALUE: bs_write_ue_big:tmp <- $ecx
	.loc	4 212 13                        # x264_src/common/bs.h:212:13
	setge	%r14b
.Ltmp643:
	.loc	4 212 9                         # x264_src/common/bs.h:212:9
	shll	$5, %r14d
.Ltmp644:
	#DEBUG_VALUE: bs_write_ue_big:size <- $r14d
	.loc	4 217 9 is_stmt 1               # x264_src/common/bs.h:217:9
	movl	%ecx, %eax
	shrl	$8, %eax
	leal	16(%r14), %ebp
.Ltmp645:
	.loc	4 217 13 is_stmt 0              # x264_src/common/bs.h:217:13
	cmpl	$256, %ecx                      # imm = 0x100
.Ltmp646:
	.loc	4 217 9                         # x264_src/common/bs.h:217:9
	cmovll	%ecx, %eax
.Ltmp647:
	#DEBUG_VALUE: bs_write_ue_big:tmp <- $eax
	#DEBUG_VALUE: bs_write_ue_big:size <- undef
	.loc	4 222 13 is_stmt 1              # x264_src/common/bs.h:222:13
	cltq
.Ltmp648:
	.loc	4 223 22                        # x264_src/common/bs.h:223:22
	movzbl	%bpl, %ecx
	cmovll	%r14d, %ecx
	.loc	4 222 13                        # x264_src/common/bs.h:222:13
	movzbl	x264_ue_size_tab(%rax), %ebp
	.loc	4 223 22                        # x264_src/common/bs.h:223:22
	movzbl	%cl, %eax
	addl	%ebp, %eax
	shrl	%eax
.Ltmp649:
	#DEBUG_VALUE: bs_write:i_count <- $eax
	#DEBUG_VALUE: bs_write:s <- undef
	#DEBUG_VALUE: bs_write:i_bits <- 0
	.loc	4 117 36                        # x264_src/common/bs.h:117:36
	movl	%eax, %ecx
	shlq	%cl, %rbx
	.loc	4 117 21 is_stmt 0              # x264_src/common/bs.h:117:21
	movq	%rbx, (%r10)
	.loc	4 118 19 is_stmt 1              # x264_src/common/bs.h:118:19
	subl	%eax, %edx
	movl	%edx, (%rdi)
.Ltmp650:
	.loc	4 119 23                        # x264_src/common/bs.h:119:23
	cmpl	$32, %edx
.Ltmp651:
	.loc	4 119 13 is_stmt 0              # x264_src/common/bs.h:119:13
	jg	.LBB1_106
.Ltmp652:
# %bb.105:                              # %if.then.i.i1293
	#DEBUG_VALUE: x264_sps_write:s <- [DW_OP_LLVM_entry_value 1] $rdi
	#DEBUG_VALUE: x264_sps_write:sps <- $rsi
	#DEBUG_VALUE: bs_write_ue_big:val <- $r8d
	#DEBUG_VALUE: bs_write:i_count <- $ecx
	#DEBUG_VALUE: bs_write:i_bits <- 0
	.loc	4 124 51 is_stmt 1              # x264_src/common/bs.h:124:51
	movl	%edx, %ecx
.Ltmp653:
	#DEBUG_VALUE: bs_write:i_count <- $eax
	shlq	%cl, %rbx
.Ltmp654:
	#DEBUG_VALUE: endian_fix:x <- $rbx
	#DEBUG_VALUE: endian_fix64:x <- $rbx
	.loc	11 277 32                       # x264_src/common/osdep.h:277:32
	bswapq	%rbx
.Ltmp655:
	.loc	4 124 25                        # x264_src/common/bs.h:124:25
	movl	%ebx, (%r11)
	.loc	4 126 23                        # x264_src/common/bs.h:126:23
	movl	(%rdi), %edx
	addl	$32, %edx
	.loc	4 127 18                        # x264_src/common/bs.h:127:18
	movq	(%r9), %r11
	addq	$4, %r11
	movq	%r11, (%r9)
.Ltmp656:
	.loc	4 117 27                        # x264_src/common/bs.h:117:27
	movq	(%r10), %rbx
.Ltmp657:
.LBB1_106:                              # %bs_write.exit.i1277
	#DEBUG_VALUE: x264_sps_write:s <- [DW_OP_LLVM_entry_value 1] $rdi
	#DEBUG_VALUE: x264_sps_write:sps <- $rsi
	#DEBUG_VALUE: bs_write_ue_big:val <- $r8d
	.loc	4 224 27                        # x264_src/common/bs.h:224:27
	incl	%eax
.Ltmp658:
	#DEBUG_VALUE: bs_write:i_count <- $eax
	#DEBUG_VALUE: bs_write:s <- undef
	#DEBUG_VALUE: bs_write:i_bits <- $r8d
	.loc	4 117 36                        # x264_src/common/bs.h:117:36
	movl	%eax, %ecx
	shlq	%cl, %rbx
	.loc	4 117 50 is_stmt 0              # x264_src/common/bs.h:117:50
	movl	%r8d, %r8d
.Ltmp659:
	.loc	4 117 48                        # x264_src/common/bs.h:117:48
	orq	%rbx, %r8
	.loc	4 117 21                        # x264_src/common/bs.h:117:21
	movq	%r8, (%r10)
	.loc	4 118 19 is_stmt 1              # x264_src/common/bs.h:118:19
	subl	%eax, %edx
	movl	%edx, (%rdi)
.Ltmp660:
	.loc	4 119 23                        # x264_src/common/bs.h:119:23
	cmpl	$32, %edx
.Ltmp661:
	.loc	4 119 13 is_stmt 0              # x264_src/common/bs.h:119:13
	jg	.LBB1_108
.Ltmp662:
# %bb.107:                              # %if.then.i25.i1285
	#DEBUG_VALUE: x264_sps_write:s <- [DW_OP_LLVM_entry_value 1] $rdi
	#DEBUG_VALUE: x264_sps_write:sps <- $rsi
	#DEBUG_VALUE: bs_write:i_count <- $ecx
	.loc	4 124 51 is_stmt 1              # x264_src/common/bs.h:124:51
	movl	%edx, %ecx
.Ltmp663:
	#DEBUG_VALUE: bs_write:i_count <- $eax
	shlq	%cl, %r8
.Ltmp664:
	#DEBUG_VALUE: endian_fix:x <- $r8
	#DEBUG_VALUE: endian_fix64:x <- $r8
	.loc	11 277 32                       # x264_src/common/osdep.h:277:32
	bswapq	%r8
.Ltmp665:
	.loc	4 124 25                        # x264_src/common/bs.h:124:25
	movl	%r8d, (%r11)
	.loc	4 126 23                        # x264_src/common/bs.h:126:23
	movl	(%rdi), %edx
	addl	$32, %edx
	movl	%edx, (%rdi)
	.loc	4 127 18                        # x264_src/common/bs.h:127:18
	movq	(%r9), %r11
	addq	$4, %r11
	movq	%r11, (%r9)
.Ltmp666:
	.loc	4 117 27                        # x264_src/common/bs.h:117:27
	movq	(%r10), %r8
.Ltmp667:
.LBB1_108:                              # %if.end35
	#DEBUG_VALUE: x264_sps_write:s <- [DW_OP_LLVM_entry_value 1] $rdi
	#DEBUG_VALUE: x264_sps_write:sps <- $rsi
	.loc	0 311 26                        # x264_src/encoder/set.c:311:26
	movl	1124(%rsi), %eax
.Ltmp668:
	#DEBUG_VALUE: bs_write:s <- undef
	#DEBUG_VALUE: bs_write:i_count <- 1
	#DEBUG_VALUE: bs_write:i_bits <- undef
	.loc	4 117 36                        # x264_src/common/bs.h:117:36
	addq	%r8, %r8
	.loc	4 117 48 is_stmt 0              # x264_src/common/bs.h:117:48
	orq	%rax, %r8
	.loc	4 117 21                        # x264_src/common/bs.h:117:21
	movq	%r8, (%r10)
	.loc	4 118 19 is_stmt 1              # x264_src/common/bs.h:118:19
	leal	-1(%rdx), %eax
	movl	%eax, (%rdi)
.Ltmp669:
	.loc	4 119 23                        # x264_src/common/bs.h:119:23
	cmpl	$33, %edx
.Ltmp670:
	.loc	4 119 13 is_stmt 0              # x264_src/common/bs.h:119:13
	jg	.LBB1_110
.Ltmp671:
# %bb.109:                              # %if.then.i1310
	#DEBUG_VALUE: x264_sps_write:s <- [DW_OP_LLVM_entry_value 1] $rdi
	#DEBUG_VALUE: x264_sps_write:sps <- $rsi
	#DEBUG_VALUE: bs_write:i_count <- 1
	.loc	4 124 51 is_stmt 1              # x264_src/common/bs.h:124:51
	movl	%eax, %ecx
	shlq	%cl, %r8
.Ltmp672:
	#DEBUG_VALUE: endian_fix:x <- $r8
	#DEBUG_VALUE: endian_fix64:x <- $r8
	.loc	11 277 32                       # x264_src/common/osdep.h:277:32
	bswapq	%r8
.Ltmp673:
	.loc	4 124 25                        # x264_src/common/bs.h:124:25
	movl	%r8d, (%r11)
	.loc	4 126 23                        # x264_src/common/bs.h:126:23
	movl	(%rdi), %eax
	addl	$32, %eax
	movl	%eax, (%rdi)
	.loc	4 127 18                        # x264_src/common/bs.h:127:18
	movq	(%r9), %r11
	addq	$4, %r11
	movq	%r11, (%r9)
.Ltmp674:
	.loc	4 159 17                        # x264_src/common/bs.h:159:17
	movq	(%r10), %r8
.Ltmp675:
.LBB1_110:                              # %bs_write.exit1318
	#DEBUG_VALUE: x264_sps_write:s <- [DW_OP_LLVM_entry_value 1] $rdi
	#DEBUG_VALUE: x264_sps_write:sps <- $rsi
	.loc	0 312 9                         # x264_src/encoder/set.c:312:9
	cmpl	$0, 1124(%rsi)
.Ltmp676:
	.loc	0 312 9 is_stmt 0               # x264_src/encoder/set.c:312:9
	je	.LBB1_263
.Ltmp677:
# %bb.111:                              # %if.then38
	#DEBUG_VALUE: x264_sps_write:s <- [DW_OP_LLVM_entry_value 1] $rdi
	#DEBUG_VALUE: x264_sps_write:sps <- $rsi
	.loc	0 314 32 is_stmt 1              # x264_src/encoder/set.c:314:32
	movl	1128(%rsi), %ecx
.Ltmp678:
	#DEBUG_VALUE: bs_write1:s <- undef
	#DEBUG_VALUE: bs_write1:i_bit <- undef
	.loc	4 159 17                        # x264_src/common/bs.h:159:17
	addq	%r8, %r8
	.loc	4 160 17                        # x264_src/common/bs.h:160:17
	orq	%rcx, %r8
	movq	%r8, (%r10)
	.loc	4 161 14                        # x264_src/common/bs.h:161:14
	decl	%eax
	movl	%eax, (%rdi)
.Ltmp679:
	.loc	4 162 19                        # x264_src/common/bs.h:162:19
	cmpl	$32, %eax
.Ltmp680:
	.loc	4 162 9 is_stmt 0               # x264_src/common/bs.h:162:9
	jne	.LBB1_113
.Ltmp681:
# %bb.112:                              # %if.then.i1325
	#DEBUG_VALUE: x264_sps_write:s <- [DW_OP_LLVM_entry_value 1] $rdi
	#DEBUG_VALUE: x264_sps_write:sps <- $rsi
	#DEBUG_VALUE: endian_fix32:x <- $r8d
	.loc	11 264 58 is_stmt 1             # x264_src/common/osdep.h:264:58
	bswapl	%r8d
.Ltmp682:
	.loc	4 164 21                        # x264_src/common/bs.h:164:21
	movl	%r8d, (%r11)
	.loc	4 165 14                        # x264_src/common/bs.h:165:14
	movq	(%r9), %r11
	addq	$4, %r11
	movq	%r11, (%r9)
	.loc	4 166 19                        # x264_src/common/bs.h:166:19
	movl	$64, (%rdi)
	movl	$64, %eax
.Ltmp683:
.LBB1_113:                              # %bs_write1.exit
	#DEBUG_VALUE: x264_sps_write:s <- [DW_OP_LLVM_entry_value 1] $rdi
	#DEBUG_VALUE: x264_sps_write:sps <- $rsi
	.loc	0 315 13                        # x264_src/encoder/set.c:315:13
	cmpl	$0, 1128(%rsi)
.Ltmp684:
	.loc	0 315 13 is_stmt 0              # x264_src/encoder/set.c:315:13
	je	.LBB1_152
.Ltmp685:
# %bb.114:                              # %for.cond44.preheader
	#DEBUG_VALUE: x264_sps_write:s <- [DW_OP_LLVM_entry_value 1] $rdi
	#DEBUG_VALUE: x264_sps_write:sps <- $rsi
	#DEBUG_VALUE: i <- 0
	.loc	0 0 13                          # x264_src/encoder/set.c:0:13
	movl	1132(%rsi), %ecx
	#DEBUG_VALUE: i <- 0
.Ltmp686:
	.loc	0 327 54 is_stmt 1              # x264_src/encoder/set.c:327:54
	leal	-1(%rcx), %edx
	cmpl	$79, %edx
	ja	.LBB1_115
.Ltmp687:
# %bb.118:                              # %for.cond44.preheader
	#DEBUG_VALUE: x264_sps_write:s <- [DW_OP_LLVM_entry_value 1] $rdi
	#DEBUG_VALUE: x264_sps_write:sps <- $rsi
	#DEBUG_VALUE: i <- 0
	jmpq	*.LJTI1_0(,%rdx,8)
.Ltmp688:
.LBB1_119:                              # %land.lhs.true
	#DEBUG_VALUE: x264_sps_write:s <- [DW_OP_LLVM_entry_value 1] $rdi
	#DEBUG_VALUE: x264_sps_write:sps <- $rsi
	#DEBUG_VALUE: i <- 0
	.loc	0 328 30                        # x264_src/encoder/set.c:328:30
	cmpl	$1, 1136(%rsi)
.Ltmp689:
	.loc	0 327 21                        # x264_src/encoder/set.c:327:21
	jne	.LBB1_143
.Ltmp690:
# %bb.120:
	#DEBUG_VALUE: x264_sps_write:s <- [DW_OP_LLVM_entry_value 1] $rdi
	#DEBUG_VALUE: x264_sps_write:sps <- $rsi
	#DEBUG_VALUE: i <- 0
	.loc	0 0 21 is_stmt 0                # x264_src/encoder/set.c:0:21
	movl	$1, %ecx
	xorl	%edx, %edx
	.loc	0 327 21                        # x264_src/encoder/set.c:327:21
	jmp	.LBB1_144
.Ltmp691:
.LBB1_115:                              # %for.cond44.preheader
	#DEBUG_VALUE: x264_sps_write:s <- [DW_OP_LLVM_entry_value 1] $rdi
	#DEBUG_VALUE: x264_sps_write:sps <- $rsi
	#DEBUG_VALUE: i <- 0
	.loc	0 327 54                        # x264_src/encoder/set.c:327:54
	cmpl	$160, %ecx
	jne	.LBB1_143
.Ltmp692:
# %bb.116:                              # %land.lhs.true.12
	#DEBUG_VALUE: x264_sps_write:s <- [DW_OP_LLVM_entry_value 1] $rdi
	#DEBUG_VALUE: x264_sps_write:sps <- $rsi
	#DEBUG_VALUE: i <- 0
	.loc	0 328 30 is_stmt 1              # x264_src/encoder/set.c:328:30
	cmpl	$99, 1136(%rsi)
.Ltmp693:
	.loc	0 327 21                        # x264_src/encoder/set.c:327:21
	jne	.LBB1_143
.Ltmp694:
# %bb.117:
	#DEBUG_VALUE: x264_sps_write:s <- [DW_OP_LLVM_entry_value 1] $rdi
	#DEBUG_VALUE: x264_sps_write:sps <- $rsi
	#DEBUG_VALUE: i <- 0
	.loc	0 0 21 is_stmt 0                # x264_src/encoder/set.c:0:21
	movl	$13, %ecx
	xorl	%edx, %edx
	.loc	0 327 21                        # x264_src/encoder/set.c:327:21
	jmp	.LBB1_144
.Ltmp695:
.LBB1_135:                              # %land.lhs.true.8
	#DEBUG_VALUE: x264_sps_write:s <- [DW_OP_LLVM_entry_value 1] $rdi
	#DEBUG_VALUE: x264_sps_write:sps <- $rsi
	#DEBUG_VALUE: i <- 0
	.loc	0 328 30 is_stmt 1              # x264_src/encoder/set.c:328:30
	cmpl	$33, 1136(%rsi)
.Ltmp696:
	.loc	0 327 21                        # x264_src/encoder/set.c:327:21
	jne	.LBB1_143
.Ltmp697:
# %bb.136:
	#DEBUG_VALUE: x264_sps_write:s <- [DW_OP_LLVM_entry_value 1] $rdi
	#DEBUG_VALUE: x264_sps_write:sps <- $rsi
	#DEBUG_VALUE: i <- 0
	.loc	0 0 21 is_stmt 0                # x264_src/encoder/set.c:0:21
	movl	$9, %ecx
	xorl	%edx, %edx
	.loc	0 327 21                        # x264_src/encoder/set.c:327:21
	jmp	.LBB1_144
.Ltmp698:
.LBB1_133:                              # %land.lhs.true.7
	#DEBUG_VALUE: x264_sps_write:s <- [DW_OP_LLVM_entry_value 1] $rdi
	#DEBUG_VALUE: x264_sps_write:sps <- $rsi
	#DEBUG_VALUE: i <- 0
	.loc	0 328 30 is_stmt 1              # x264_src/encoder/set.c:328:30
	cmpl	$11, 1136(%rsi)
.Ltmp699:
	.loc	0 327 21                        # x264_src/encoder/set.c:327:21
	jne	.LBB1_143
.Ltmp700:
# %bb.134:
	#DEBUG_VALUE: x264_sps_write:s <- [DW_OP_LLVM_entry_value 1] $rdi
	#DEBUG_VALUE: x264_sps_write:sps <- $rsi
	#DEBUG_VALUE: i <- 0
	.loc	0 0 21 is_stmt 0                # x264_src/encoder/set.c:0:21
	movl	$8, %ecx
	xorl	%edx, %edx
	.loc	0 327 21                        # x264_src/encoder/set.c:327:21
	jmp	.LBB1_144
.Ltmp701:
.LBB1_131:                              # %land.lhs.true.6
	#DEBUG_VALUE: x264_sps_write:s <- [DW_OP_LLVM_entry_value 1] $rdi
	#DEBUG_VALUE: x264_sps_write:sps <- $rsi
	#DEBUG_VALUE: i <- 0
	.loc	0 328 30 is_stmt 1              # x264_src/encoder/set.c:328:30
	cmpl	$11, 1136(%rsi)
.Ltmp702:
	.loc	0 327 21                        # x264_src/encoder/set.c:327:21
	jne	.LBB1_143
.Ltmp703:
# %bb.132:
	#DEBUG_VALUE: x264_sps_write:s <- [DW_OP_LLVM_entry_value 1] $rdi
	#DEBUG_VALUE: x264_sps_write:sps <- $rsi
	#DEBUG_VALUE: i <- 0
	.loc	0 0 21 is_stmt 0                # x264_src/encoder/set.c:0:21
	movl	$7, %ecx
	xorl	%edx, %edx
	.loc	0 327 21                        # x264_src/encoder/set.c:327:21
	jmp	.LBB1_144
.Ltmp704:
.LBB1_125:                              # %land.lhs.true.3
	#DEBUG_VALUE: x264_sps_write:s <- [DW_OP_LLVM_entry_value 1] $rdi
	#DEBUG_VALUE: x264_sps_write:sps <- $rsi
	#DEBUG_VALUE: i <- 0
	.loc	0 328 30 is_stmt 1              # x264_src/encoder/set.c:328:30
	cmpl	$11, 1136(%rsi)
.Ltmp705:
	.loc	0 327 21                        # x264_src/encoder/set.c:327:21
	jne	.LBB1_143
.Ltmp706:
# %bb.126:
	#DEBUG_VALUE: x264_sps_write:s <- [DW_OP_LLVM_entry_value 1] $rdi
	#DEBUG_VALUE: x264_sps_write:sps <- $rsi
	#DEBUG_VALUE: i <- 0
	.loc	0 0 21 is_stmt 0                # x264_src/encoder/set.c:0:21
	movl	$4, %ecx
	xorl	%edx, %edx
	.loc	0 327 21                        # x264_src/encoder/set.c:327:21
	jmp	.LBB1_144
.Ltmp707:
.LBB1_139:                              # %land.lhs.true.10
	#DEBUG_VALUE: x264_sps_write:s <- [DW_OP_LLVM_entry_value 1] $rdi
	#DEBUG_VALUE: x264_sps_write:sps <- $rsi
	#DEBUG_VALUE: i <- 0
	.loc	0 328 30 is_stmt 1              # x264_src/encoder/set.c:328:30
	cmpl	$11, 1136(%rsi)
.Ltmp708:
	.loc	0 327 21                        # x264_src/encoder/set.c:327:21
	jne	.LBB1_143
.Ltmp709:
# %bb.140:
	#DEBUG_VALUE: x264_sps_write:s <- [DW_OP_LLVM_entry_value 1] $rdi
	#DEBUG_VALUE: x264_sps_write:sps <- $rsi
	#DEBUG_VALUE: i <- 0
	.loc	0 0 21 is_stmt 0                # x264_src/encoder/set.c:0:21
	movl	$11, %ecx
	xorl	%edx, %edx
	.loc	0 327 21                        # x264_src/encoder/set.c:327:21
	jmp	.LBB1_144
.Ltmp710:
.LBB1_121:                              # %land.lhs.true.1
	#DEBUG_VALUE: x264_sps_write:s <- [DW_OP_LLVM_entry_value 1] $rdi
	#DEBUG_VALUE: x264_sps_write:sps <- $rsi
	#DEBUG_VALUE: i <- 0
	.loc	0 328 30 is_stmt 1              # x264_src/encoder/set.c:328:30
	cmpl	$11, 1136(%rsi)
.Ltmp711:
	.loc	0 327 21                        # x264_src/encoder/set.c:327:21
	jne	.LBB1_143
.Ltmp712:
# %bb.122:
	#DEBUG_VALUE: x264_sps_write:s <- [DW_OP_LLVM_entry_value 1] $rdi
	#DEBUG_VALUE: x264_sps_write:sps <- $rsi
	#DEBUG_VALUE: i <- 0
	.loc	0 0 21 is_stmt 0                # x264_src/encoder/set.c:0:21
	movl	$2, %ecx
	xorl	%edx, %edx
	.loc	0 327 21                        # x264_src/encoder/set.c:327:21
	jmp	.LBB1_144
.Ltmp713:
.LBB1_141:                              # %land.lhs.true.11
	#DEBUG_VALUE: x264_sps_write:s <- [DW_OP_LLVM_entry_value 1] $rdi
	#DEBUG_VALUE: x264_sps_write:sps <- $rsi
	#DEBUG_VALUE: i <- 0
	.loc	0 328 30 is_stmt 1              # x264_src/encoder/set.c:328:30
	cmpl	$33, 1136(%rsi)
.Ltmp714:
	.loc	0 327 21                        # x264_src/encoder/set.c:327:21
	jne	.LBB1_143
.Ltmp715:
# %bb.142:
	#DEBUG_VALUE: x264_sps_write:s <- [DW_OP_LLVM_entry_value 1] $rdi
	#DEBUG_VALUE: x264_sps_write:sps <- $rsi
	#DEBUG_VALUE: i <- 0
	.loc	0 0 21 is_stmt 0                # x264_src/encoder/set.c:0:21
	movl	$12, %ecx
	xorl	%edx, %edx
	.loc	0 327 21                        # x264_src/encoder/set.c:327:21
	jmp	.LBB1_144
.Ltmp716:
.LBB1_123:                              # %land.lhs.true.2
	#DEBUG_VALUE: x264_sps_write:s <- [DW_OP_LLVM_entry_value 1] $rdi
	#DEBUG_VALUE: x264_sps_write:sps <- $rsi
	#DEBUG_VALUE: i <- 0
	.loc	0 328 30 is_stmt 1              # x264_src/encoder/set.c:328:30
	cmpl	$11, 1136(%rsi)
.Ltmp717:
	.loc	0 327 21                        # x264_src/encoder/set.c:327:21
	jne	.LBB1_143
.Ltmp718:
# %bb.124:
	#DEBUG_VALUE: x264_sps_write:s <- [DW_OP_LLVM_entry_value 1] $rdi
	#DEBUG_VALUE: x264_sps_write:sps <- $rsi
	#DEBUG_VALUE: i <- 0
	.loc	0 0 21 is_stmt 0                # x264_src/encoder/set.c:0:21
	movl	$3, %ecx
	xorl	%edx, %edx
	.loc	0 327 21                        # x264_src/encoder/set.c:327:21
	jmp	.LBB1_144
.Ltmp719:
.LBB1_137:                              # %land.lhs.true.9
	#DEBUG_VALUE: x264_sps_write:s <- [DW_OP_LLVM_entry_value 1] $rdi
	#DEBUG_VALUE: x264_sps_write:sps <- $rsi
	#DEBUG_VALUE: i <- 0
	.loc	0 328 30 is_stmt 1              # x264_src/encoder/set.c:328:30
	cmpl	$11, 1136(%rsi)
.Ltmp720:
	.loc	0 327 21                        # x264_src/encoder/set.c:327:21
	jne	.LBB1_143
.Ltmp721:
# %bb.138:
	#DEBUG_VALUE: x264_sps_write:s <- [DW_OP_LLVM_entry_value 1] $rdi
	#DEBUG_VALUE: x264_sps_write:sps <- $rsi
	#DEBUG_VALUE: i <- 0
	.loc	0 0 21 is_stmt 0                # x264_src/encoder/set.c:0:21
	movl	$10, %ecx
	xorl	%edx, %edx
	.loc	0 327 21                        # x264_src/encoder/set.c:327:21
	jmp	.LBB1_144
.Ltmp722:
.LBB1_129:                              # %land.lhs.true.5
	#DEBUG_VALUE: x264_sps_write:s <- [DW_OP_LLVM_entry_value 1] $rdi
	#DEBUG_VALUE: x264_sps_write:sps <- $rsi
	#DEBUG_VALUE: i <- 0
	.loc	0 328 30 is_stmt 1              # x264_src/encoder/set.c:328:30
	cmpl	$11, 1136(%rsi)
.Ltmp723:
	.loc	0 327 21                        # x264_src/encoder/set.c:327:21
	jne	.LBB1_143
.Ltmp724:
# %bb.130:
	#DEBUG_VALUE: x264_sps_write:s <- [DW_OP_LLVM_entry_value 1] $rdi
	#DEBUG_VALUE: x264_sps_write:sps <- $rsi
	#DEBUG_VALUE: i <- 0
	.loc	0 0 21 is_stmt 0                # x264_src/encoder/set.c:0:21
	movl	$6, %ecx
	xorl	%edx, %edx
	.loc	0 327 21                        # x264_src/encoder/set.c:327:21
	jmp	.LBB1_144
.Ltmp725:
.LBB1_127:                              # %land.lhs.true.4
	#DEBUG_VALUE: x264_sps_write:s <- [DW_OP_LLVM_entry_value 1] $rdi
	#DEBUG_VALUE: x264_sps_write:sps <- $rsi
	#DEBUG_VALUE: i <- 0
	.loc	0 328 30 is_stmt 1              # x264_src/encoder/set.c:328:30
	cmpl	$33, 1136(%rsi)
.Ltmp726:
	.loc	0 327 21                        # x264_src/encoder/set.c:327:21
	jne	.LBB1_143
.Ltmp727:
# %bb.128:
	#DEBUG_VALUE: x264_sps_write:s <- [DW_OP_LLVM_entry_value 1] $rdi
	#DEBUG_VALUE: x264_sps_write:sps <- $rsi
	#DEBUG_VALUE: i <- 0
	.loc	0 0 21 is_stmt 0                # x264_src/encoder/set.c:0:21
	movl	$5, %ecx
	xorl	%edx, %edx
	.loc	0 327 21                        # x264_src/encoder/set.c:327:21
	jmp	.LBB1_144
.Ltmp728:
.LBB1_143:                              # %for.inc64.12
	#DEBUG_VALUE: x264_sps_write:s <- [DW_OP_LLVM_entry_value 1] $rdi
	#DEBUG_VALUE: x264_sps_write:sps <- $rsi
	#DEBUG_VALUE: i <- 0
	.loc	0 0 21                          # x264_src/encoder/set.c:0:21
	movb	$1, %dl
	movl	$255, %ecx
.Ltmp729:
	#DEBUG_VALUE: i <- 13
.LBB1_144:                              # %for.end66
	#DEBUG_VALUE: x264_sps_write:s <- [DW_OP_LLVM_entry_value 1] $rdi
	#DEBUG_VALUE: x264_sps_write:sps <- $rsi
	#DEBUG_VALUE: bs_write:s <- undef
	#DEBUG_VALUE: bs_write:i_count <- 8
	#DEBUG_VALUE: bs_write:i_bits <- [DW_OP_LLVM_convert 8 7, DW_OP_LLVM_convert 32 7, DW_OP_stack_value] $rcx
	.loc	4 117 27 is_stmt 1              # x264_src/common/bs.h:117:27
	movq	(%r10), %r8
	.loc	4 117 36 is_stmt 0              # x264_src/common/bs.h:117:36
	shlq	$8, %r8
	.loc	4 117 48                        # x264_src/common/bs.h:117:48
	orq	%rcx, %r8
	.loc	4 117 21                        # x264_src/common/bs.h:117:21
	movq	%r8, (%r10)
	.loc	4 118 19 is_stmt 1              # x264_src/common/bs.h:118:19
	leal	-8(%rax), %ecx
.Ltmp730:
	movl	%ecx, (%rdi)
.Ltmp731:
	.loc	4 119 23                        # x264_src/common/bs.h:119:23
	cmpl	$40, %eax
.Ltmp732:
	.loc	4 119 13 is_stmt 0              # x264_src/common/bs.h:119:13
	jg	.LBB1_146
.Ltmp733:
# %bb.145:                              # %if.then.i1337
	#DEBUG_VALUE: x264_sps_write:s <- [DW_OP_LLVM_entry_value 1] $rdi
	#DEBUG_VALUE: x264_sps_write:sps <- $rsi
	#DEBUG_VALUE: bs_write:i_count <- 8
                                        # kill: def $cl killed $cl killed $rcx
	.loc	4 124 51 is_stmt 1              # x264_src/common/bs.h:124:51
	shlq	%cl, %r8
.Ltmp734:
	#DEBUG_VALUE: endian_fix:x <- $r8
	#DEBUG_VALUE: endian_fix64:x <- $r8
	.loc	11 277 32                       # x264_src/common/osdep.h:277:32
	bswapq	%r8
.Ltmp735:
	.loc	4 124 25                        # x264_src/common/bs.h:124:25
	movl	%r8d, (%r11)
	.loc	4 126 23                        # x264_src/common/bs.h:126:23
	movl	(%rdi), %ecx
	addl	$32, %ecx
	movl	%ecx, (%rdi)
	.loc	4 127 18                        # x264_src/common/bs.h:127:18
	movq	(%r9), %r11
	addq	$4, %r11
	movq	%r11, (%r9)
.Ltmp736:
.LBB1_146:                              # %bs_write.exit1345
	#DEBUG_VALUE: x264_sps_write:s <- [DW_OP_LLVM_entry_value 1] $rdi
	#DEBUG_VALUE: x264_sps_write:sps <- $rsi
	.loc	0 332 17                        # x264_src/encoder/set.c:332:17
	testb	%dl, %dl
	je	.LBB1_147
.Ltmp737:
# %bb.148:                              # %if.then77
	#DEBUG_VALUE: x264_sps_write:s <- [DW_OP_LLVM_entry_value 1] $rdi
	#DEBUG_VALUE: x264_sps_write:sps <- $rsi
	.loc	0 334 43                        # x264_src/encoder/set.c:334:43
	movl	1132(%rsi), %eax
.Ltmp738:
	#DEBUG_VALUE: bs_write:s <- undef
	#DEBUG_VALUE: bs_write:i_count <- 16
	#DEBUG_VALUE: bs_write:i_bits <- undef
	.loc	4 117 27                        # x264_src/common/bs.h:117:27
	movq	(%r10), %r8
	.loc	4 117 36 is_stmt 0              # x264_src/common/bs.h:117:36
	shlq	$16, %r8
	.loc	4 117 48                        # x264_src/common/bs.h:117:48
	orq	%rax, %r8
	.loc	4 117 21                        # x264_src/common/bs.h:117:21
	movq	%r8, (%r10)
	.loc	4 118 19 is_stmt 1              # x264_src/common/bs.h:118:19
	leal	-16(%rcx), %edx
	movl	%edx, (%rdi)
.Ltmp739:
	.loc	4 119 23                        # x264_src/common/bs.h:119:23
	cmpl	$48, %ecx
.Ltmp740:
	.loc	4 119 13 is_stmt 0              # x264_src/common/bs.h:119:13
	jg	.LBB1_150
.Ltmp741:
# %bb.149:                              # %if.then.i1353
	#DEBUG_VALUE: x264_sps_write:s <- [DW_OP_LLVM_entry_value 1] $rdi
	#DEBUG_VALUE: x264_sps_write:sps <- $rsi
	#DEBUG_VALUE: bs_write:i_count <- 16
	.loc	4 124 51 is_stmt 1              # x264_src/common/bs.h:124:51
	movl	%edx, %ecx
	shlq	%cl, %r8
.Ltmp742:
	#DEBUG_VALUE: endian_fix:x <- $r8
	#DEBUG_VALUE: endian_fix64:x <- $r8
	.loc	11 277 32                       # x264_src/common/osdep.h:277:32
	bswapq	%r8
.Ltmp743:
	.loc	4 124 25                        # x264_src/common/bs.h:124:25
	movl	%r8d, (%r11)
	.loc	4 126 23                        # x264_src/common/bs.h:126:23
	movl	(%rdi), %edx
	addl	$32, %edx
	movl	%edx, (%rdi)
	.loc	4 127 18                        # x264_src/common/bs.h:127:18
	movq	(%r9), %r11
	addq	$4, %r11
	movq	%r11, (%r9)
.Ltmp744:
	.loc	4 117 27                        # x264_src/common/bs.h:117:27
	movq	(%r10), %r8
.Ltmp745:
.LBB1_150:                              # %bs_write.exit1361
	#DEBUG_VALUE: x264_sps_write:s <- [DW_OP_LLVM_entry_value 1] $rdi
	#DEBUG_VALUE: x264_sps_write:sps <- $rsi
	.loc	0 335 43                        # x264_src/encoder/set.c:335:43
	movl	1136(%rsi), %eax
.Ltmp746:
	#DEBUG_VALUE: bs_write:s <- undef
	#DEBUG_VALUE: bs_write:i_count <- 16
	#DEBUG_VALUE: bs_write:i_bits <- undef
	.loc	4 117 36                        # x264_src/common/bs.h:117:36
	shlq	$16, %r8
	.loc	4 117 48 is_stmt 0              # x264_src/common/bs.h:117:48
	orq	%rax, %r8
	.loc	4 117 21                        # x264_src/common/bs.h:117:21
	movq	%r8, (%r10)
	.loc	4 118 19 is_stmt 1              # x264_src/common/bs.h:118:19
	leal	-16(%rdx), %eax
	movl	%eax, (%rdi)
.Ltmp747:
	.loc	4 119 23                        # x264_src/common/bs.h:119:23
	cmpl	$48, %edx
.Ltmp748:
	.loc	4 119 13 is_stmt 0              # x264_src/common/bs.h:119:13
	jg	.LBB1_152
.Ltmp749:
# %bb.151:                              # %if.then.i1369
	#DEBUG_VALUE: x264_sps_write:s <- [DW_OP_LLVM_entry_value 1] $rdi
	#DEBUG_VALUE: x264_sps_write:sps <- $rsi
	#DEBUG_VALUE: bs_write:i_count <- 16
	.loc	4 124 51 is_stmt 1              # x264_src/common/bs.h:124:51
	movl	%eax, %ecx
	shlq	%cl, %r8
.Ltmp750:
	#DEBUG_VALUE: endian_fix:x <- $r8
	#DEBUG_VALUE: endian_fix64:x <- $r8
	.loc	11 277 32                       # x264_src/common/osdep.h:277:32
	bswapq	%r8
.Ltmp751:
	.loc	4 124 25                        # x264_src/common/bs.h:124:25
	movl	%r8d, (%r11)
	.loc	4 126 23                        # x264_src/common/bs.h:126:23
	movl	(%rdi), %eax
	addl	$32, %eax
	movl	%eax, (%rdi)
	.loc	4 127 18                        # x264_src/common/bs.h:127:18
	movq	(%r9), %r11
	addq	$4, %r11
	movq	%r11, (%r9)
	jmp	.LBB1_152
.Ltmp752:
.LBB1_147:
	#DEBUG_VALUE: x264_sps_write:s <- [DW_OP_LLVM_entry_value 1] $rdi
	#DEBUG_VALUE: x264_sps_write:sps <- $rsi
	.loc	4 0 18 is_stmt 0                # x264_src/common/bs.h:0:18
	movl	%ecx, %eax
.Ltmp753:
.LBB1_152:                              # %if.end83
	#DEBUG_VALUE: x264_sps_write:s <- [DW_OP_LLVM_entry_value 1] $rdi
	#DEBUG_VALUE: x264_sps_write:sps <- $rsi
	.loc	0 339 32 is_stmt 1              # x264_src/encoder/set.c:339:32
	movl	1140(%rsi), %ecx
.Ltmp754:
	#DEBUG_VALUE: bs_write1:s <- undef
	#DEBUG_VALUE: bs_write1:i_bit <- undef
	.loc	4 159 17                        # x264_src/common/bs.h:159:17
	movq	(%r10), %r8
	addq	%r8, %r8
	.loc	4 160 17                        # x264_src/common/bs.h:160:17
	orq	%rcx, %r8
	movq	%r8, (%r10)
	.loc	4 161 14                        # x264_src/common/bs.h:161:14
	decl	%eax
	movl	%eax, (%rdi)
.Ltmp755:
	.loc	4 162 19                        # x264_src/common/bs.h:162:19
	cmpl	$32, %eax
.Ltmp756:
	.loc	4 162 9 is_stmt 0               # x264_src/common/bs.h:162:9
	jne	.LBB1_154
.Ltmp757:
# %bb.153:                              # %if.then.i1385
	#DEBUG_VALUE: x264_sps_write:s <- [DW_OP_LLVM_entry_value 1] $rdi
	#DEBUG_VALUE: x264_sps_write:sps <- $rsi
	#DEBUG_VALUE: endian_fix32:x <- $r8d
	.loc	11 264 58 is_stmt 1             # x264_src/common/osdep.h:264:58
	bswapl	%r8d
.Ltmp758:
	.loc	4 164 21                        # x264_src/common/bs.h:164:21
	movl	%r8d, (%r11)
	.loc	4 165 14                        # x264_src/common/bs.h:165:14
	movq	(%r9), %r11
	addq	$4, %r11
	movq	%r11, (%r9)
	.loc	4 166 19                        # x264_src/common/bs.h:166:19
	movl	$64, (%rdi)
.Ltmp759:
	.loc	4 159 17                        # x264_src/common/bs.h:159:17
	movq	(%r10), %r8
	movl	$64, %eax
.Ltmp760:
.LBB1_154:                              # %bs_write1.exit1390
	#DEBUG_VALUE: x264_sps_write:s <- [DW_OP_LLVM_entry_value 1] $rdi
	#DEBUG_VALUE: x264_sps_write:sps <- $rsi
	.loc	0 340 13                        # x264_src/encoder/set.c:340:13
	cmpl	$0, 1140(%rsi)
.Ltmp761:
	.loc	0 340 13 is_stmt 0              # x264_src/encoder/set.c:340:13
	je	.LBB1_157
.Ltmp762:
# %bb.155:                              # %if.then88
	#DEBUG_VALUE: x264_sps_write:s <- [DW_OP_LLVM_entry_value 1] $rdi
	#DEBUG_VALUE: x264_sps_write:sps <- $rsi
	.loc	0 341 36 is_stmt 1              # x264_src/encoder/set.c:341:36
	movl	1144(%rsi), %ecx
.Ltmp763:
	#DEBUG_VALUE: bs_write1:s <- undef
	#DEBUG_VALUE: bs_write1:i_bit <- undef
	.loc	4 159 17                        # x264_src/common/bs.h:159:17
	addq	%r8, %r8
	.loc	4 160 17                        # x264_src/common/bs.h:160:17
	orq	%rcx, %r8
	movq	%r8, (%r10)
	.loc	4 161 14                        # x264_src/common/bs.h:161:14
	decl	%eax
	movl	%eax, (%rdi)
.Ltmp764:
	.loc	4 162 19                        # x264_src/common/bs.h:162:19
	cmpl	$32, %eax
.Ltmp765:
	.loc	4 162 9 is_stmt 0               # x264_src/common/bs.h:162:9
	jne	.LBB1_157
.Ltmp766:
# %bb.156:                              # %if.then.i1398
	#DEBUG_VALUE: x264_sps_write:s <- [DW_OP_LLVM_entry_value 1] $rdi
	#DEBUG_VALUE: x264_sps_write:sps <- $rsi
	#DEBUG_VALUE: endian_fix32:x <- $r8d
	.loc	11 264 58 is_stmt 1             # x264_src/common/osdep.h:264:58
	bswapl	%r8d
.Ltmp767:
	.loc	4 164 21                        # x264_src/common/bs.h:164:21
	movl	%r8d, (%r11)
	.loc	4 165 14                        # x264_src/common/bs.h:165:14
	movq	(%r9), %r11
	addq	$4, %r11
	movq	%r11, (%r9)
	.loc	4 166 19                        # x264_src/common/bs.h:166:19
	movl	$64, (%rdi)
.Ltmp768:
	.loc	4 159 17                        # x264_src/common/bs.h:159:17
	movq	(%r10), %r8
	movl	$64, %eax
.Ltmp769:
.LBB1_157:                              # %if.end90
	#DEBUG_VALUE: x264_sps_write:s <- [DW_OP_LLVM_entry_value 1] $rdi
	#DEBUG_VALUE: x264_sps_write:sps <- $rsi
	.loc	0 343 32                        # x264_src/encoder/set.c:343:32
	movl	1148(%rsi), %ecx
.Ltmp770:
	#DEBUG_VALUE: bs_write1:s <- undef
	#DEBUG_VALUE: bs_write1:i_bit <- undef
	.loc	4 159 17                        # x264_src/common/bs.h:159:17
	addq	%r8, %r8
	.loc	4 160 17                        # x264_src/common/bs.h:160:17
	orq	%rcx, %r8
	movq	%r8, (%r10)
	.loc	4 161 14                        # x264_src/common/bs.h:161:14
	decl	%eax
	movl	%eax, (%rdi)
.Ltmp771:
	.loc	4 162 19                        # x264_src/common/bs.h:162:19
	cmpl	$32, %eax
.Ltmp772:
	.loc	4 162 9 is_stmt 0               # x264_src/common/bs.h:162:9
	jne	.LBB1_159
.Ltmp773:
# %bb.158:                              # %if.then.i1411
	#DEBUG_VALUE: x264_sps_write:s <- [DW_OP_LLVM_entry_value 1] $rdi
	#DEBUG_VALUE: x264_sps_write:sps <- $rsi
	#DEBUG_VALUE: endian_fix32:x <- $r8d
	.loc	11 264 58 is_stmt 1             # x264_src/common/osdep.h:264:58
	bswapl	%r8d
.Ltmp774:
	.loc	4 164 21                        # x264_src/common/bs.h:164:21
	movl	%r8d, (%r11)
	.loc	4 165 14                        # x264_src/common/bs.h:165:14
	movq	(%r9), %r11
	addq	$4, %r11
	movq	%r11, (%r9)
	.loc	4 166 19                        # x264_src/common/bs.h:166:19
	movl	$64, (%rdi)
.Ltmp775:
	.loc	4 159 17                        # x264_src/common/bs.h:159:17
	movq	(%r10), %r8
	movl	$64, %eax
.Ltmp776:
.LBB1_159:                              # %bs_write1.exit1416
	#DEBUG_VALUE: x264_sps_write:s <- [DW_OP_LLVM_entry_value 1] $rdi
	#DEBUG_VALUE: x264_sps_write:sps <- $rsi
	.loc	0 344 13                        # x264_src/encoder/set.c:344:13
	cmpl	$0, 1148(%rsi)
.Ltmp777:
	.loc	0 344 13 is_stmt 0              # x264_src/encoder/set.c:344:13
	je	.LBB1_173
.Ltmp778:
# %bb.160:                              # %if.then95
	#DEBUG_VALUE: x264_sps_write:s <- [DW_OP_LLVM_entry_value 1] $rdi
	#DEBUG_VALUE: x264_sps_write:sps <- $rsi
	.loc	0 346 38 is_stmt 1              # x264_src/encoder/set.c:346:38
	movl	1152(%rsi), %ecx
.Ltmp779:
	#DEBUG_VALUE: bs_write:s <- undef
	#DEBUG_VALUE: bs_write:i_count <- 3
	#DEBUG_VALUE: bs_write:i_bits <- undef
	.loc	4 117 36                        # x264_src/common/bs.h:117:36
	shlq	$3, %r8
	.loc	4 117 48 is_stmt 0              # x264_src/common/bs.h:117:48
	orq	%rcx, %r8
	.loc	4 117 21                        # x264_src/common/bs.h:117:21
	movq	%r8, (%r10)
	.loc	4 118 19 is_stmt 1              # x264_src/common/bs.h:118:19
	leal	-3(%rax), %ecx
	movl	%ecx, (%rdi)
.Ltmp780:
	.loc	4 119 23                        # x264_src/common/bs.h:119:23
	cmpl	$35, %eax
.Ltmp781:
	.loc	4 119 13 is_stmt 0              # x264_src/common/bs.h:119:13
	jg	.LBB1_162
.Ltmp782:
# %bb.161:                              # %if.then.i1424
	#DEBUG_VALUE: x264_sps_write:s <- [DW_OP_LLVM_entry_value 1] $rdi
	#DEBUG_VALUE: x264_sps_write:sps <- $rsi
	#DEBUG_VALUE: bs_write:i_count <- 3
                                        # kill: def $cl killed $cl killed $ecx
	.loc	4 124 51 is_stmt 1              # x264_src/common/bs.h:124:51
	shlq	%cl, %r8
.Ltmp783:
	#DEBUG_VALUE: endian_fix:x <- $r8
	#DEBUG_VALUE: endian_fix64:x <- $r8
	.loc	11 277 32                       # x264_src/common/osdep.h:277:32
	bswapq	%r8
.Ltmp784:
	.loc	4 124 25                        # x264_src/common/bs.h:124:25
	movl	%r8d, (%r11)
	.loc	4 126 23                        # x264_src/common/bs.h:126:23
	movl	(%rdi), %ecx
	addl	$32, %ecx
	movl	%ecx, (%rdi)
	.loc	4 127 18                        # x264_src/common/bs.h:127:18
	movq	(%r9), %r11
	addq	$4, %r11
	movq	%r11, (%r9)
.Ltmp785:
	.loc	4 159 17                        # x264_src/common/bs.h:159:17
	movq	(%r10), %r8
.Ltmp786:
.LBB1_162:                              # %bs_write.exit1432
	#DEBUG_VALUE: x264_sps_write:s <- [DW_OP_LLVM_entry_value 1] $rdi
	#DEBUG_VALUE: x264_sps_write:sps <- $rsi
	.loc	0 347 36                        # x264_src/encoder/set.c:347:36
	movl	1156(%rsi), %eax
.Ltmp787:
	#DEBUG_VALUE: bs_write1:s <- undef
	#DEBUG_VALUE: bs_write1:i_bit <- undef
	.loc	4 159 17                        # x264_src/common/bs.h:159:17
	addq	%r8, %r8
	.loc	4 160 17                        # x264_src/common/bs.h:160:17
	orq	%rax, %r8
	movq	%r8, (%r10)
	.loc	4 161 14                        # x264_src/common/bs.h:161:14
	decl	%ecx
	movl	%ecx, (%rdi)
.Ltmp788:
	.loc	4 162 19                        # x264_src/common/bs.h:162:19
	cmpl	$32, %ecx
.Ltmp789:
	.loc	4 162 9 is_stmt 0               # x264_src/common/bs.h:162:9
	jne	.LBB1_164
.Ltmp790:
# %bb.163:                              # %if.then.i1440
	#DEBUG_VALUE: x264_sps_write:s <- [DW_OP_LLVM_entry_value 1] $rdi
	#DEBUG_VALUE: x264_sps_write:sps <- $rsi
	#DEBUG_VALUE: endian_fix32:x <- $r8d
	.loc	11 264 58 is_stmt 1             # x264_src/common/osdep.h:264:58
	bswapl	%r8d
.Ltmp791:
	.loc	4 164 21                        # x264_src/common/bs.h:164:21
	movl	%r8d, (%r11)
	.loc	4 165 14                        # x264_src/common/bs.h:165:14
	movq	(%r9), %r11
	addq	$4, %r11
	movq	%r11, (%r9)
	.loc	4 166 19                        # x264_src/common/bs.h:166:19
	movl	$64, (%rdi)
.Ltmp792:
	.loc	4 159 17                        # x264_src/common/bs.h:159:17
	movq	(%r10), %r8
	movl	$64, %ecx
.Ltmp793:
.LBB1_164:                              # %bs_write1.exit1445
	#DEBUG_VALUE: x264_sps_write:s <- [DW_OP_LLVM_entry_value 1] $rdi
	#DEBUG_VALUE: x264_sps_write:sps <- $rsi
	.loc	0 348 36                        # x264_src/encoder/set.c:348:36
	movl	1160(%rsi), %eax
.Ltmp794:
	#DEBUG_VALUE: bs_write1:s <- undef
	#DEBUG_VALUE: bs_write1:i_bit <- undef
	.loc	4 159 17                        # x264_src/common/bs.h:159:17
	addq	%r8, %r8
	.loc	4 160 17                        # x264_src/common/bs.h:160:17
	orq	%rax, %r8
	movq	%r8, (%r10)
	.loc	4 161 14                        # x264_src/common/bs.h:161:14
	movl	%ecx, %eax
	decl	%eax
	movl	%eax, (%rdi)
.Ltmp795:
	.loc	4 162 19                        # x264_src/common/bs.h:162:19
	cmpl	$32, %eax
.Ltmp796:
	.loc	4 162 9 is_stmt 0               # x264_src/common/bs.h:162:9
	jne	.LBB1_166
.Ltmp797:
# %bb.165:                              # %if.then.i1453
	#DEBUG_VALUE: x264_sps_write:s <- [DW_OP_LLVM_entry_value 1] $rdi
	#DEBUG_VALUE: x264_sps_write:sps <- $rsi
	#DEBUG_VALUE: endian_fix32:x <- $r8d
	.loc	11 264 58 is_stmt 1             # x264_src/common/osdep.h:264:58
	bswapl	%r8d
.Ltmp798:
	.loc	4 164 21                        # x264_src/common/bs.h:164:21
	movl	%r8d, (%r11)
	.loc	4 165 14                        # x264_src/common/bs.h:165:14
	movq	(%r9), %r11
	addq	$4, %r11
	movq	%r11, (%r9)
	.loc	4 166 19                        # x264_src/common/bs.h:166:19
	movl	$64, (%rdi)
.Ltmp799:
	.loc	4 159 17                        # x264_src/common/bs.h:159:17
	movq	(%r10), %r8
	movl	$64, %eax
.Ltmp800:
.LBB1_166:                              # %bs_write1.exit1458
	#DEBUG_VALUE: x264_sps_write:s <- [DW_OP_LLVM_entry_value 1] $rdi
	#DEBUG_VALUE: x264_sps_write:sps <- $rsi
	.loc	0 349 17                        # x264_src/encoder/set.c:349:17
	cmpl	$0, 1160(%rsi)
.Ltmp801:
	.loc	0 349 17 is_stmt 0              # x264_src/encoder/set.c:349:17
	je	.LBB1_173
.Ltmp802:
# %bb.167:                              # %if.then102
	#DEBUG_VALUE: x264_sps_write:s <- [DW_OP_LLVM_entry_value 1] $rdi
	#DEBUG_VALUE: x264_sps_write:sps <- $rsi
	.loc	0 351 42 is_stmt 1              # x264_src/encoder/set.c:351:42
	movl	1164(%rsi), %ecx
.Ltmp803:
	#DEBUG_VALUE: bs_write:s <- undef
	#DEBUG_VALUE: bs_write:i_count <- 8
	#DEBUG_VALUE: bs_write:i_bits <- undef
	.loc	4 117 36                        # x264_src/common/bs.h:117:36
	shlq	$8, %r8
	.loc	4 117 48 is_stmt 0              # x264_src/common/bs.h:117:48
	orq	%rcx, %r8
	.loc	4 117 21                        # x264_src/common/bs.h:117:21
	movq	%r8, (%r10)
	.loc	4 118 19 is_stmt 1              # x264_src/common/bs.h:118:19
	leal	-8(%rax), %ecx
	movl	%ecx, (%rdi)
.Ltmp804:
	.loc	4 119 23                        # x264_src/common/bs.h:119:23
	cmpl	$40, %eax
.Ltmp805:
	.loc	4 119 13 is_stmt 0              # x264_src/common/bs.h:119:13
	jg	.LBB1_169
.Ltmp806:
# %bb.168:                              # %if.then.i1466
	#DEBUG_VALUE: x264_sps_write:s <- [DW_OP_LLVM_entry_value 1] $rdi
	#DEBUG_VALUE: x264_sps_write:sps <- $rsi
	#DEBUG_VALUE: bs_write:i_count <- 8
                                        # kill: def $cl killed $cl killed $rcx
	.loc	4 124 51 is_stmt 1              # x264_src/common/bs.h:124:51
	shlq	%cl, %r8
.Ltmp807:
	#DEBUG_VALUE: endian_fix:x <- $r8
	#DEBUG_VALUE: endian_fix64:x <- $r8
	.loc	11 277 32                       # x264_src/common/osdep.h:277:32
	bswapq	%r8
.Ltmp808:
	.loc	4 124 25                        # x264_src/common/bs.h:124:25
	movl	%r8d, (%r11)
	.loc	4 126 23                        # x264_src/common/bs.h:126:23
	movl	(%rdi), %ecx
	addl	$32, %ecx
	movl	%ecx, (%rdi)
	.loc	4 127 18                        # x264_src/common/bs.h:127:18
	movq	(%r9), %r11
	addq	$4, %r11
	movq	%r11, (%r9)
.Ltmp809:
	.loc	4 117 27                        # x264_src/common/bs.h:117:27
	movq	(%r10), %r8
.Ltmp810:
.LBB1_169:                              # %bs_write.exit1474
	#DEBUG_VALUE: x264_sps_write:s <- [DW_OP_LLVM_entry_value 1] $rdi
	#DEBUG_VALUE: x264_sps_write:sps <- $rsi
	.loc	0 352 42                        # x264_src/encoder/set.c:352:42
	movl	1168(%rsi), %eax
.Ltmp811:
	#DEBUG_VALUE: bs_write:s <- undef
	#DEBUG_VALUE: bs_write:i_count <- 8
	#DEBUG_VALUE: bs_write:i_bits <- undef
	.loc	4 117 36                        # x264_src/common/bs.h:117:36
	shlq	$8, %r8
	.loc	4 117 48 is_stmt 0              # x264_src/common/bs.h:117:48
	orq	%rax, %r8
	.loc	4 117 21                        # x264_src/common/bs.h:117:21
	movq	%r8, (%r10)
	.loc	4 118 19 is_stmt 1              # x264_src/common/bs.h:118:19
	leal	-8(%rcx), %edx
	movl	%edx, (%rdi)
.Ltmp812:
	.loc	4 119 23                        # x264_src/common/bs.h:119:23
	cmpl	$40, %ecx
.Ltmp813:
	.loc	4 119 13 is_stmt 0              # x264_src/common/bs.h:119:13
	jg	.LBB1_171
.Ltmp814:
# %bb.170:                              # %if.then.i1482
	#DEBUG_VALUE: x264_sps_write:s <- [DW_OP_LLVM_entry_value 1] $rdi
	#DEBUG_VALUE: x264_sps_write:sps <- $rsi
	#DEBUG_VALUE: bs_write:i_count <- 8
	.loc	4 124 51 is_stmt 1              # x264_src/common/bs.h:124:51
	movl	%edx, %ecx
	shlq	%cl, %r8
.Ltmp815:
	#DEBUG_VALUE: endian_fix:x <- $r8
	#DEBUG_VALUE: endian_fix64:x <- $r8
	.loc	11 277 32                       # x264_src/common/osdep.h:277:32
	bswapq	%r8
.Ltmp816:
	.loc	4 124 25                        # x264_src/common/bs.h:124:25
	movl	%r8d, (%r11)
	.loc	4 126 23                        # x264_src/common/bs.h:126:23
	movl	(%rdi), %edx
	addl	$32, %edx
	movl	%edx, (%rdi)
	.loc	4 127 18                        # x264_src/common/bs.h:127:18
	movq	(%r9), %r11
	addq	$4, %r11
	movq	%r11, (%r9)
.Ltmp817:
	.loc	4 117 27                        # x264_src/common/bs.h:117:27
	movq	(%r10), %r8
.Ltmp818:
.LBB1_171:                              # %bs_write.exit1490
	#DEBUG_VALUE: x264_sps_write:s <- [DW_OP_LLVM_entry_value 1] $rdi
	#DEBUG_VALUE: x264_sps_write:sps <- $rsi
	.loc	0 353 42                        # x264_src/encoder/set.c:353:42
	movl	1172(%rsi), %eax
.Ltmp819:
	#DEBUG_VALUE: bs_write:s <- undef
	#DEBUG_VALUE: bs_write:i_count <- 8
	#DEBUG_VALUE: bs_write:i_bits <- undef
	.loc	4 117 36                        # x264_src/common/bs.h:117:36
	shlq	$8, %r8
	.loc	4 117 48 is_stmt 0              # x264_src/common/bs.h:117:48
	orq	%rax, %r8
	.loc	4 117 21                        # x264_src/common/bs.h:117:21
	movq	%r8, (%r10)
	.loc	4 118 19 is_stmt 1              # x264_src/common/bs.h:118:19
	leal	-8(%rdx), %eax
	movl	%eax, (%rdi)
.Ltmp820:
	.loc	4 119 23                        # x264_src/common/bs.h:119:23
	cmpl	$40, %edx
.Ltmp821:
	.loc	4 119 13 is_stmt 0              # x264_src/common/bs.h:119:13
	jg	.LBB1_173
.Ltmp822:
# %bb.172:                              # %if.then.i1498
	#DEBUG_VALUE: x264_sps_write:s <- [DW_OP_LLVM_entry_value 1] $rdi
	#DEBUG_VALUE: x264_sps_write:sps <- $rsi
	#DEBUG_VALUE: bs_write:i_count <- 8
	.loc	4 124 51 is_stmt 1              # x264_src/common/bs.h:124:51
	movl	%eax, %ecx
	shlq	%cl, %r8
.Ltmp823:
	#DEBUG_VALUE: endian_fix:x <- $r8
	#DEBUG_VALUE: endian_fix64:x <- $r8
	.loc	11 277 32                       # x264_src/common/osdep.h:277:32
	bswapq	%r8
.Ltmp824:
	.loc	4 124 25                        # x264_src/common/bs.h:124:25
	movl	%r8d, (%r11)
	.loc	4 126 23                        # x264_src/common/bs.h:126:23
	movl	(%rdi), %eax
	addl	$32, %eax
	movl	%eax, (%rdi)
	.loc	4 127 18                        # x264_src/common/bs.h:127:18
	movq	(%r9), %r11
	addq	$4, %r11
	movq	%r11, (%r9)
.Ltmp825:
	.loc	4 159 17                        # x264_src/common/bs.h:159:17
	movq	(%r10), %r8
.Ltmp826:
.LBB1_173:                              # %if.end107
	#DEBUG_VALUE: x264_sps_write:s <- [DW_OP_LLVM_entry_value 1] $rdi
	#DEBUG_VALUE: x264_sps_write:sps <- $rsi
	.loc	0 357 32                        # x264_src/encoder/set.c:357:32
	movl	1176(%rsi), %ecx
.Ltmp827:
	#DEBUG_VALUE: bs_write1:s <- undef
	#DEBUG_VALUE: bs_write1:i_bit <- undef
	.loc	4 159 17                        # x264_src/common/bs.h:159:17
	addq	%r8, %r8
	.loc	4 160 17                        # x264_src/common/bs.h:160:17
	orq	%rcx, %r8
	movq	%r8, (%r10)
	.loc	4 161 14                        # x264_src/common/bs.h:161:14
	decl	%eax
	movl	%eax, (%rdi)
.Ltmp828:
	.loc	4 162 19                        # x264_src/common/bs.h:162:19
	cmpl	$32, %eax
.Ltmp829:
	.loc	4 162 9 is_stmt 0               # x264_src/common/bs.h:162:9
	jne	.LBB1_175
.Ltmp830:
# %bb.174:                              # %if.then.i1514
	#DEBUG_VALUE: x264_sps_write:s <- [DW_OP_LLVM_entry_value 1] $rdi
	#DEBUG_VALUE: x264_sps_write:sps <- $rsi
	#DEBUG_VALUE: endian_fix32:x <- $r8d
	.loc	11 264 58 is_stmt 1             # x264_src/common/osdep.h:264:58
	bswapl	%r8d
.Ltmp831:
	.loc	4 164 21                        # x264_src/common/bs.h:164:21
	movl	%r8d, (%r11)
	.loc	4 165 14                        # x264_src/common/bs.h:165:14
	movq	(%r9), %r11
	addq	$4, %r11
	movq	%r11, (%r9)
	.loc	4 166 19                        # x264_src/common/bs.h:166:19
	movl	$64, (%rdi)
.Ltmp832:
	.loc	4 159 17                        # x264_src/common/bs.h:159:17
	movq	(%r10), %r8
	movl	$64, %eax
.Ltmp833:
.LBB1_175:                              # %bs_write1.exit1519
	#DEBUG_VALUE: x264_sps_write:s <- [DW_OP_LLVM_entry_value 1] $rdi
	#DEBUG_VALUE: x264_sps_write:sps <- $rsi
	.loc	0 358 13                        # x264_src/encoder/set.c:358:13
	cmpl	$0, 1176(%rsi)
.Ltmp834:
	.loc	0 358 13 is_stmt 0              # x264_src/encoder/set.c:358:13
	je	.LBB1_184
.Ltmp835:
# %bb.176:                              # %if.then112
	#DEBUG_VALUE: x264_sps_write:s <- [DW_OP_LLVM_entry_value 1] $rdi
	#DEBUG_VALUE: x264_sps_write:sps <- $rsi
	.loc	0 360 38 is_stmt 1              # x264_src/encoder/set.c:360:38
	movl	1180(%rsi), %ebx
.Ltmp836:
	#DEBUG_VALUE: bs_write_ue_big:val <- $ebx
	#DEBUG_VALUE: bs_write_ue_big:s <- undef
	#DEBUG_VALUE: bs_write_ue_big:size <- 0
	.loc	4 211 15                        # x264_src/common/bs.h:211:15
	incl	%ebx
.Ltmp837:
	#DEBUG_VALUE: bs_write_ue_big:val <- $ebx
	#DEBUG_VALUE: bs_write_ue_big:tmp <- $ebx
	.loc	4 0 15 is_stmt 0                # x264_src/common/bs.h:0:15
	movl	%ebx, %ecx
	shrl	$16, %ecx
.Ltmp838:
	.loc	4 212 13 is_stmt 1              # x264_src/common/bs.h:212:13
	xorl	%edx, %edx
	cmpl	$65536, %ebx                    # imm = 0x10000
.Ltmp839:
	.loc	4 212 9 is_stmt 0               # x264_src/common/bs.h:212:9
	cmovll	%ebx, %ecx
.Ltmp840:
	#DEBUG_VALUE: bs_write_ue_big:tmp <- $ecx
	.loc	4 212 13                        # x264_src/common/bs.h:212:13
	setge	%dl
.Ltmp841:
	.loc	4 212 9                         # x264_src/common/bs.h:212:9
	shll	$5, %edx
.Ltmp842:
	#DEBUG_VALUE: bs_write_ue_big:size <- $edx
	.loc	4 217 9 is_stmt 1               # x264_src/common/bs.h:217:9
	movl	%ecx, %ebp
	shrl	$8, %ebp
	leal	16(%rdx), %r14d
.Ltmp843:
	.loc	4 217 13 is_stmt 0              # x264_src/common/bs.h:217:13
	cmpl	$256, %ecx                      # imm = 0x100
.Ltmp844:
	.loc	4 217 9                         # x264_src/common/bs.h:217:9
	cmovll	%ecx, %ebp
.Ltmp845:
	#DEBUG_VALUE: bs_write_ue_big:tmp <- $ebp
	#DEBUG_VALUE: bs_write_ue_big:size <- undef
	.loc	4 222 13 is_stmt 1              # x264_src/common/bs.h:222:13
	movslq	%ebp, %rcx
	.loc	4 223 22                        # x264_src/common/bs.h:223:22
	movzbl	%r14b, %ebp
.Ltmp846:
	cmovll	%edx, %ebp
	.loc	4 222 13                        # x264_src/common/bs.h:222:13
	movzbl	x264_ue_size_tab(%rcx), %ecx
	.loc	4 223 22                        # x264_src/common/bs.h:223:22
	movzbl	%bpl, %edx
	addl	%ecx, %edx
	shrl	%edx
.Ltmp847:
	#DEBUG_VALUE: bs_write:i_count <- $edx
	#DEBUG_VALUE: bs_write:s <- undef
	#DEBUG_VALUE: bs_write:i_bits <- 0
	.loc	4 117 36                        # x264_src/common/bs.h:117:36
	movl	%edx, %ecx
	shlq	%cl, %r8
	.loc	4 117 21 is_stmt 0              # x264_src/common/bs.h:117:21
	movq	%r8, (%r10)
	.loc	4 118 19 is_stmt 1              # x264_src/common/bs.h:118:19
	subl	%edx, %eax
	movl	%eax, (%rdi)
.Ltmp848:
	.loc	4 119 23                        # x264_src/common/bs.h:119:23
	cmpl	$32, %eax
.Ltmp849:
	.loc	4 119 13 is_stmt 0              # x264_src/common/bs.h:119:13
	jg	.LBB1_178
.Ltmp850:
# %bb.177:                              # %if.then.i.i1557
	#DEBUG_VALUE: x264_sps_write:s <- [DW_OP_LLVM_entry_value 1] $rdi
	#DEBUG_VALUE: x264_sps_write:sps <- $rsi
	#DEBUG_VALUE: bs_write_ue_big:val <- $ebx
	#DEBUG_VALUE: bs_write:i_count <- $ecx
	#DEBUG_VALUE: bs_write:i_bits <- 0
	.loc	4 124 51 is_stmt 1              # x264_src/common/bs.h:124:51
	movl	%eax, %ecx
.Ltmp851:
	#DEBUG_VALUE: bs_write:i_count <- $edx
	shlq	%cl, %r8
.Ltmp852:
	#DEBUG_VALUE: endian_fix:x <- $r8
	#DEBUG_VALUE: endian_fix64:x <- $r8
	.loc	11 277 32                       # x264_src/common/osdep.h:277:32
	bswapq	%r8
.Ltmp853:
	.loc	4 124 25                        # x264_src/common/bs.h:124:25
	movl	%r8d, (%r11)
	.loc	4 126 23                        # x264_src/common/bs.h:126:23
	movl	(%rdi), %eax
	addl	$32, %eax
	.loc	4 127 18                        # x264_src/common/bs.h:127:18
	movq	(%r9), %r11
	addq	$4, %r11
	movq	%r11, (%r9)
.Ltmp854:
	.loc	4 117 27                        # x264_src/common/bs.h:117:27
	movq	(%r10), %r8
.Ltmp855:
.LBB1_178:                              # %bs_write.exit.i1541
	#DEBUG_VALUE: x264_sps_write:s <- [DW_OP_LLVM_entry_value 1] $rdi
	#DEBUG_VALUE: x264_sps_write:sps <- $rsi
	#DEBUG_VALUE: bs_write_ue_big:val <- $ebx
	.loc	4 224 27                        # x264_src/common/bs.h:224:27
	incl	%edx
.Ltmp856:
	#DEBUG_VALUE: bs_write:i_count <- $edx
	#DEBUG_VALUE: bs_write:s <- undef
	#DEBUG_VALUE: bs_write:i_bits <- $ebx
	.loc	4 117 36                        # x264_src/common/bs.h:117:36
	movl	%edx, %ecx
	shlq	%cl, %r8
	.loc	4 117 50 is_stmt 0              # x264_src/common/bs.h:117:50
	movl	%ebx, %ebx
.Ltmp857:
	.loc	4 117 48                        # x264_src/common/bs.h:117:48
	orq	%r8, %rbx
	.loc	4 117 21                        # x264_src/common/bs.h:117:21
	movq	%rbx, (%r10)
	.loc	4 118 19 is_stmt 1              # x264_src/common/bs.h:118:19
	subl	%edx, %eax
	movl	%eax, (%rdi)
.Ltmp858:
	.loc	4 119 23                        # x264_src/common/bs.h:119:23
	cmpl	$32, %eax
.Ltmp859:
	.loc	4 119 13 is_stmt 0              # x264_src/common/bs.h:119:13
	jg	.LBB1_180
.Ltmp860:
# %bb.179:                              # %if.then.i25.i1549
	#DEBUG_VALUE: x264_sps_write:s <- [DW_OP_LLVM_entry_value 1] $rdi
	#DEBUG_VALUE: x264_sps_write:sps <- $rsi
	#DEBUG_VALUE: bs_write:i_count <- $ecx
	.loc	4 124 51 is_stmt 1              # x264_src/common/bs.h:124:51
	movl	%eax, %ecx
.Ltmp861:
	#DEBUG_VALUE: bs_write:i_count <- $edx
	shlq	%cl, %rbx
.Ltmp862:
	#DEBUG_VALUE: endian_fix:x <- $rbx
	#DEBUG_VALUE: endian_fix64:x <- $rbx
	.loc	11 277 32                       # x264_src/common/osdep.h:277:32
	bswapq	%rbx
.Ltmp863:
	.loc	4 124 25                        # x264_src/common/bs.h:124:25
	movl	%ebx, (%r11)
	.loc	4 126 23                        # x264_src/common/bs.h:126:23
	movl	(%rdi), %eax
	addl	$32, %eax
	movl	%eax, (%rdi)
	.loc	4 127 18                        # x264_src/common/bs.h:127:18
	movq	(%r9), %r11
	addq	$4, %r11
	movq	%r11, (%r9)
.Ltmp864:
	.loc	4 117 27                        # x264_src/common/bs.h:117:27
	movq	(%r10), %rbx
.Ltmp865:
.LBB1_180:                              # %bs_write_ue_big.exit1566
	#DEBUG_VALUE: x264_sps_write:s <- [DW_OP_LLVM_entry_value 1] $rdi
	#DEBUG_VALUE: x264_sps_write:sps <- $rsi
	.loc	0 361 38                        # x264_src/encoder/set.c:361:38
	movl	1184(%rsi), %r8d
.Ltmp866:
	#DEBUG_VALUE: bs_write_ue_big:val <- $r8d
	#DEBUG_VALUE: bs_write_ue_big:s <- undef
	#DEBUG_VALUE: bs_write_ue_big:size <- 0
	.loc	4 211 15                        # x264_src/common/bs.h:211:15
	incl	%r8d
.Ltmp867:
	#DEBUG_VALUE: bs_write_ue_big:val <- $r8d
	#DEBUG_VALUE: bs_write_ue_big:tmp <- $r8d
	.loc	4 0 15 is_stmt 0                # x264_src/common/bs.h:0:15
	movl	%r8d, %ecx
	shrl	$16, %ecx
.Ltmp868:
	.loc	4 212 13 is_stmt 1              # x264_src/common/bs.h:212:13
	xorl	%edx, %edx
	cmpl	$65536, %r8d                    # imm = 0x10000
.Ltmp869:
	.loc	4 212 9 is_stmt 0               # x264_src/common/bs.h:212:9
	cmovll	%r8d, %ecx
.Ltmp870:
	#DEBUG_VALUE: bs_write_ue_big:tmp <- $ecx
	.loc	4 212 13                        # x264_src/common/bs.h:212:13
	setge	%dl
.Ltmp871:
	.loc	4 212 9                         # x264_src/common/bs.h:212:9
	shll	$5, %edx
.Ltmp872:
	#DEBUG_VALUE: bs_write_ue_big:size <- $edx
	.loc	4 217 9 is_stmt 1               # x264_src/common/bs.h:217:9
	movl	%ecx, %ebp
	shrl	$8, %ebp
	leal	16(%rdx), %r14d
.Ltmp873:
	.loc	4 217 13 is_stmt 0              # x264_src/common/bs.h:217:13
	cmpl	$256, %ecx                      # imm = 0x100
.Ltmp874:
	.loc	4 217 9                         # x264_src/common/bs.h:217:9
	cmovll	%ecx, %ebp
.Ltmp875:
	#DEBUG_VALUE: bs_write_ue_big:tmp <- $ebp
	#DEBUG_VALUE: bs_write_ue_big:size <- undef
	.loc	4 222 13 is_stmt 1              # x264_src/common/bs.h:222:13
	movslq	%ebp, %rcx
	.loc	4 223 22                        # x264_src/common/bs.h:223:22
	movzbl	%r14b, %ebp
.Ltmp876:
	cmovll	%edx, %ebp
	.loc	4 222 13                        # x264_src/common/bs.h:222:13
	movzbl	x264_ue_size_tab(%rcx), %ecx
	.loc	4 223 22                        # x264_src/common/bs.h:223:22
	movzbl	%bpl, %edx
	addl	%ecx, %edx
	shrl	%edx
.Ltmp877:
	#DEBUG_VALUE: bs_write:i_count <- $edx
	#DEBUG_VALUE: bs_write:s <- undef
	#DEBUG_VALUE: bs_write:i_bits <- 0
	.loc	4 117 36                        # x264_src/common/bs.h:117:36
	movl	%edx, %ecx
	shlq	%cl, %rbx
	.loc	4 117 21 is_stmt 0              # x264_src/common/bs.h:117:21
	movq	%rbx, (%r10)
	.loc	4 118 19 is_stmt 1              # x264_src/common/bs.h:118:19
	subl	%edx, %eax
	movl	%eax, (%rdi)
.Ltmp878:
	.loc	4 119 23                        # x264_src/common/bs.h:119:23
	cmpl	$32, %eax
.Ltmp879:
	.loc	4 119 13 is_stmt 0              # x264_src/common/bs.h:119:13
	jg	.LBB1_182
.Ltmp880:
# %bb.181:                              # %if.then.i.i1604
	#DEBUG_VALUE: x264_sps_write:s <- [DW_OP_LLVM_entry_value 1] $rdi
	#DEBUG_VALUE: x264_sps_write:sps <- $rsi
	#DEBUG_VALUE: bs_write_ue_big:val <- $r8d
	#DEBUG_VALUE: bs_write:i_count <- $ecx
	#DEBUG_VALUE: bs_write:i_bits <- 0
	.loc	4 124 51 is_stmt 1              # x264_src/common/bs.h:124:51
	movl	%eax, %ecx
.Ltmp881:
	#DEBUG_VALUE: bs_write:i_count <- $edx
	shlq	%cl, %rbx
.Ltmp882:
	#DEBUG_VALUE: endian_fix:x <- $rbx
	#DEBUG_VALUE: endian_fix64:x <- $rbx
	.loc	11 277 32                       # x264_src/common/osdep.h:277:32
	bswapq	%rbx
.Ltmp883:
	.loc	4 124 25                        # x264_src/common/bs.h:124:25
	movl	%ebx, (%r11)
	.loc	4 126 23                        # x264_src/common/bs.h:126:23
	movl	(%rdi), %eax
	addl	$32, %eax
	.loc	4 127 18                        # x264_src/common/bs.h:127:18
	movq	(%r9), %r11
	addq	$4, %r11
	movq	%r11, (%r9)
.Ltmp884:
	.loc	4 117 27                        # x264_src/common/bs.h:117:27
	movq	(%r10), %rbx
.Ltmp885:
.LBB1_182:                              # %bs_write.exit.i1588
	#DEBUG_VALUE: x264_sps_write:s <- [DW_OP_LLVM_entry_value 1] $rdi
	#DEBUG_VALUE: x264_sps_write:sps <- $rsi
	#DEBUG_VALUE: bs_write_ue_big:val <- $r8d
	.loc	4 224 27                        # x264_src/common/bs.h:224:27
	incl	%edx
.Ltmp886:
	#DEBUG_VALUE: bs_write:i_count <- $edx
	#DEBUG_VALUE: bs_write:s <- undef
	#DEBUG_VALUE: bs_write:i_bits <- $r8d
	.loc	4 117 36                        # x264_src/common/bs.h:117:36
	movl	%edx, %ecx
	shlq	%cl, %rbx
	.loc	4 117 50 is_stmt 0              # x264_src/common/bs.h:117:50
	movl	%r8d, %r8d
.Ltmp887:
	.loc	4 117 48                        # x264_src/common/bs.h:117:48
	orq	%rbx, %r8
	.loc	4 117 21                        # x264_src/common/bs.h:117:21
	movq	%r8, (%r10)
	.loc	4 118 19 is_stmt 1              # x264_src/common/bs.h:118:19
	subl	%edx, %eax
	movl	%eax, (%rdi)
.Ltmp888:
	.loc	4 119 23                        # x264_src/common/bs.h:119:23
	cmpl	$32, %eax
.Ltmp889:
	.loc	4 119 13 is_stmt 0              # x264_src/common/bs.h:119:13
	jg	.LBB1_184
.Ltmp890:
# %bb.183:                              # %if.then.i25.i1596
	#DEBUG_VALUE: x264_sps_write:s <- [DW_OP_LLVM_entry_value 1] $rdi
	#DEBUG_VALUE: x264_sps_write:sps <- $rsi
	#DEBUG_VALUE: bs_write:i_count <- $ecx
	.loc	4 124 51 is_stmt 1              # x264_src/common/bs.h:124:51
	movl	%eax, %ecx
.Ltmp891:
	#DEBUG_VALUE: bs_write:i_count <- $edx
	shlq	%cl, %r8
.Ltmp892:
	#DEBUG_VALUE: endian_fix:x <- $r8
	#DEBUG_VALUE: endian_fix64:x <- $r8
	.loc	11 277 32                       # x264_src/common/osdep.h:277:32
	bswapq	%r8
.Ltmp893:
	.loc	4 124 25                        # x264_src/common/bs.h:124:25
	movl	%r8d, (%r11)
	.loc	4 126 23                        # x264_src/common/bs.h:126:23
	movl	(%rdi), %eax
	addl	$32, %eax
	movl	%eax, (%rdi)
	.loc	4 127 18                        # x264_src/common/bs.h:127:18
	movq	(%r9), %r11
	addq	$4, %r11
	movq	%r11, (%r9)
.Ltmp894:
	.loc	4 159 17                        # x264_src/common/bs.h:159:17
	movq	(%r10), %r8
.Ltmp895:
.LBB1_184:                              # %if.end115
	#DEBUG_VALUE: x264_sps_write:s <- [DW_OP_LLVM_entry_value 1] $rdi
	#DEBUG_VALUE: x264_sps_write:sps <- $rsi
	.loc	0 364 32                        # x264_src/encoder/set.c:364:32
	movl	1188(%rsi), %ecx
.Ltmp896:
	#DEBUG_VALUE: bs_write1:s <- undef
	#DEBUG_VALUE: bs_write1:i_bit <- undef
	.loc	4 159 17                        # x264_src/common/bs.h:159:17
	addq	%r8, %r8
	.loc	4 160 17                        # x264_src/common/bs.h:160:17
	orq	%rcx, %r8
	movq	%r8, (%r10)
	.loc	4 161 14                        # x264_src/common/bs.h:161:14
	decl	%eax
	movl	%eax, (%rdi)
.Ltmp897:
	.loc	4 162 19                        # x264_src/common/bs.h:162:19
	cmpl	$32, %eax
.Ltmp898:
	.loc	4 162 9 is_stmt 0               # x264_src/common/bs.h:162:9
	jne	.LBB1_186
.Ltmp899:
# %bb.185:                              # %if.then.i1621
	#DEBUG_VALUE: x264_sps_write:s <- [DW_OP_LLVM_entry_value 1] $rdi
	#DEBUG_VALUE: x264_sps_write:sps <- $rsi
	#DEBUG_VALUE: endian_fix32:x <- $r8d
	.loc	11 264 58 is_stmt 1             # x264_src/common/osdep.h:264:58
	bswapl	%r8d
.Ltmp900:
	.loc	4 164 21                        # x264_src/common/bs.h:164:21
	movl	%r8d, (%r11)
	.loc	4 165 14                        # x264_src/common/bs.h:165:14
	movq	(%r9), %r11
	addq	$4, %r11
	movq	%r11, (%r9)
	.loc	4 166 19                        # x264_src/common/bs.h:166:19
	movl	$64, (%rdi)
.Ltmp901:
	.loc	4 159 17                        # x264_src/common/bs.h:159:17
	movq	(%r10), %r8
	movl	$64, %eax
.Ltmp902:
.LBB1_186:                              # %bs_write1.exit1626
	#DEBUG_VALUE: x264_sps_write:s <- [DW_OP_LLVM_entry_value 1] $rdi
	#DEBUG_VALUE: x264_sps_write:sps <- $rsi
	.loc	0 365 13                        # x264_src/encoder/set.c:365:13
	cmpl	$0, 1188(%rsi)
.Ltmp903:
	.loc	0 365 13 is_stmt 0              # x264_src/encoder/set.c:365:13
	je	.LBB1_197
.Ltmp904:
# %bb.187:                              # %if.then120
	#DEBUG_VALUE: x264_sps_write:s <- [DW_OP_LLVM_entry_value 1] $rdi
	#DEBUG_VALUE: x264_sps_write:sps <- $rsi
	.loc	0 367 37 is_stmt 1              # x264_src/encoder/set.c:367:37
	movl	1192(%rsi), %ebx
.Ltmp905:
	#DEBUG_VALUE: bs_write32:i_bits <- $ebx
	#DEBUG_VALUE: bs_write32:s <- undef
	.loc	4 153 29                        # x264_src/common/bs.h:153:29
	movl	%ebx, %ecx
	shrl	$16, %ecx
.Ltmp906:
	#DEBUG_VALUE: bs_write:i_bits <- $ecx
	#DEBUG_VALUE: bs_write:s <- undef
	#DEBUG_VALUE: bs_write:i_count <- 16
	.loc	4 117 36                        # x264_src/common/bs.h:117:36
	shlq	$16, %r8
	.loc	4 117 48 is_stmt 0              # x264_src/common/bs.h:117:48
	orq	%rcx, %r8
	.loc	4 117 21                        # x264_src/common/bs.h:117:21
	movq	%r8, (%r10)
	.loc	4 118 19 is_stmt 1              # x264_src/common/bs.h:118:19
	leal	-16(%rax), %edx
	movl	%edx, (%rdi)
.Ltmp907:
	.loc	4 119 23                        # x264_src/common/bs.h:119:23
	cmpl	$48, %eax
.Ltmp908:
	.loc	4 119 13 is_stmt 0              # x264_src/common/bs.h:119:13
	jg	.LBB1_189
.Ltmp909:
# %bb.188:                              # %if.then.i.i1636
	#DEBUG_VALUE: x264_sps_write:s <- [DW_OP_LLVM_entry_value 1] $rdi
	#DEBUG_VALUE: x264_sps_write:sps <- $rsi
	#DEBUG_VALUE: bs_write32:i_bits <- $ebx
	#DEBUG_VALUE: bs_write:i_bits <- $ecx
	#DEBUG_VALUE: bs_write:i_count <- 16
	.loc	4 124 51 is_stmt 1              # x264_src/common/bs.h:124:51
	movl	%edx, %ecx
.Ltmp910:
	shlq	%cl, %r8
.Ltmp911:
	#DEBUG_VALUE: endian_fix:x <- $r8
	#DEBUG_VALUE: endian_fix64:x <- $r8
	.loc	11 277 32                       # x264_src/common/osdep.h:277:32
	bswapq	%r8
.Ltmp912:
	.loc	4 124 25                        # x264_src/common/bs.h:124:25
	movl	%r8d, (%r11)
	.loc	4 126 23                        # x264_src/common/bs.h:126:23
	movl	(%rdi), %edx
	addl	$32, %edx
	.loc	4 127 18                        # x264_src/common/bs.h:127:18
	movq	(%r9), %r11
	addq	$4, %r11
	movq	%r11, (%r9)
.Ltmp913:
	.loc	4 117 27                        # x264_src/common/bs.h:117:27
	movq	(%r10), %r8
.Ltmp914:
.LBB1_189:                              # %bs_write.exit.i1635
	#DEBUG_VALUE: x264_sps_write:s <- [DW_OP_LLVM_entry_value 1] $rdi
	#DEBUG_VALUE: x264_sps_write:sps <- $rsi
	#DEBUG_VALUE: bs_write32:i_bits <- $ebx
	#DEBUG_VALUE: bs_write:s <- undef
	#DEBUG_VALUE: bs_write:i_count <- 16
	.loc	4 117 36 is_stmt 0              # x264_src/common/bs.h:117:36
	shlq	$16, %r8
	.loc	4 117 48                        # x264_src/common/bs.h:117:48
	orq	%rbx, %r8
	.loc	4 117 21                        # x264_src/common/bs.h:117:21
	movq	%r8, (%r10)
	.loc	4 118 19 is_stmt 1              # x264_src/common/bs.h:118:19
	leal	-16(%rdx), %ecx
	movl	%ecx, (%rdi)
.Ltmp915:
	.loc	4 119 23                        # x264_src/common/bs.h:119:23
	cmpl	$48, %edx
.Ltmp916:
	#DEBUG_VALUE: bs_write:i_bits <- undef
	.loc	4 119 13 is_stmt 0              # x264_src/common/bs.h:119:13
	jg	.LBB1_191
.Ltmp917:
# %bb.190:                              # %if.then.i10.i
	#DEBUG_VALUE: x264_sps_write:s <- [DW_OP_LLVM_entry_value 1] $rdi
	#DEBUG_VALUE: x264_sps_write:sps <- $rsi
	#DEBUG_VALUE: bs_write32:i_bits <- $ebx
	#DEBUG_VALUE: bs_write:i_count <- 16
                                        # kill: def $cl killed $cl killed $rcx
	.loc	4 124 51 is_stmt 1              # x264_src/common/bs.h:124:51
	shlq	%cl, %r8
.Ltmp918:
	#DEBUG_VALUE: endian_fix:x <- $r8
	#DEBUG_VALUE: endian_fix64:x <- $r8
	.loc	11 277 32                       # x264_src/common/osdep.h:277:32
	bswapq	%r8
.Ltmp919:
	.loc	4 124 25                        # x264_src/common/bs.h:124:25
	movl	%r8d, (%r11)
	.loc	4 126 23                        # x264_src/common/bs.h:126:23
	movl	(%rdi), %ecx
	addl	$32, %ecx
	movl	%ecx, (%rdi)
	.loc	4 127 18                        # x264_src/common/bs.h:127:18
	movq	(%r9), %r11
	addq	$4, %r11
	movq	%r11, (%r9)
.Ltmp920:
	.loc	4 117 27                        # x264_src/common/bs.h:117:27
	movq	(%r10), %r8
.Ltmp921:
.LBB1_191:                              # %bs_write32.exit
	#DEBUG_VALUE: x264_sps_write:s <- [DW_OP_LLVM_entry_value 1] $rdi
	#DEBUG_VALUE: x264_sps_write:sps <- $rsi
	.loc	0 368 37                        # x264_src/encoder/set.c:368:37
	movl	1196(%rsi), %eax
.Ltmp922:
	#DEBUG_VALUE: bs_write32:i_bits <- $eax
	#DEBUG_VALUE: bs_write32:s <- undef
	.loc	4 153 29                        # x264_src/common/bs.h:153:29
	movl	%eax, %edx
	shrl	$16, %edx
.Ltmp923:
	#DEBUG_VALUE: bs_write:i_bits <- $edx
	#DEBUG_VALUE: bs_write:s <- undef
	#DEBUG_VALUE: bs_write:i_count <- 16
	.loc	4 117 36                        # x264_src/common/bs.h:117:36
	shlq	$16, %r8
	.loc	4 117 48 is_stmt 0              # x264_src/common/bs.h:117:48
	orq	%rdx, %r8
	.loc	4 117 21                        # x264_src/common/bs.h:117:21
	movq	%r8, (%r10)
	.loc	4 118 19 is_stmt 1              # x264_src/common/bs.h:118:19
	leal	-16(%rcx), %edx
.Ltmp924:
	movl	%edx, (%rdi)
.Ltmp925:
	.loc	4 119 23                        # x264_src/common/bs.h:119:23
	cmpl	$48, %ecx
.Ltmp926:
	.loc	4 119 13 is_stmt 0              # x264_src/common/bs.h:119:13
	jg	.LBB1_193
.Ltmp927:
# %bb.192:                              # %if.then.i.i1667
	#DEBUG_VALUE: x264_sps_write:s <- [DW_OP_LLVM_entry_value 1] $rdi
	#DEBUG_VALUE: x264_sps_write:sps <- $rsi
	#DEBUG_VALUE: bs_write32:i_bits <- $eax
	#DEBUG_VALUE: bs_write:i_count <- 16
	.loc	4 124 51 is_stmt 1              # x264_src/common/bs.h:124:51
	movl	%edx, %ecx
	shlq	%cl, %r8
.Ltmp928:
	#DEBUG_VALUE: endian_fix:x <- $r8
	#DEBUG_VALUE: endian_fix64:x <- $r8
	.loc	11 277 32                       # x264_src/common/osdep.h:277:32
	bswapq	%r8
.Ltmp929:
	.loc	4 124 25                        # x264_src/common/bs.h:124:25
	movl	%r8d, (%r11)
	.loc	4 126 23                        # x264_src/common/bs.h:126:23
	movl	(%rdi), %edx
	addl	$32, %edx
	.loc	4 127 18                        # x264_src/common/bs.h:127:18
	movq	(%r9), %r11
	addq	$4, %r11
	movq	%r11, (%r9)
.Ltmp930:
	.loc	4 117 27                        # x264_src/common/bs.h:117:27
	movq	(%r10), %r8
.Ltmp931:
.LBB1_193:                              # %bs_write.exit.i1653
	#DEBUG_VALUE: x264_sps_write:s <- [DW_OP_LLVM_entry_value 1] $rdi
	#DEBUG_VALUE: x264_sps_write:sps <- $rsi
	#DEBUG_VALUE: bs_write32:i_bits <- $eax
	#DEBUG_VALUE: bs_write:s <- undef
	#DEBUG_VALUE: bs_write:i_count <- 16
	.loc	4 117 36 is_stmt 0              # x264_src/common/bs.h:117:36
	shlq	$16, %r8
	.loc	4 117 48                        # x264_src/common/bs.h:117:48
	orq	%rax, %r8
	.loc	4 117 21                        # x264_src/common/bs.h:117:21
	movq	%r8, (%r10)
	.loc	4 118 19 is_stmt 1              # x264_src/common/bs.h:118:19
	leal	-16(%rdx), %eax
.Ltmp932:
	movl	%eax, (%rdi)
.Ltmp933:
	.loc	4 119 23                        # x264_src/common/bs.h:119:23
	cmpl	$48, %edx
.Ltmp934:
	#DEBUG_VALUE: bs_write:i_bits <- undef
	.loc	4 119 13 is_stmt 0              # x264_src/common/bs.h:119:13
	jg	.LBB1_195
.Ltmp935:
# %bb.194:                              # %if.then.i10.i1659
	#DEBUG_VALUE: x264_sps_write:s <- [DW_OP_LLVM_entry_value 1] $rdi
	#DEBUG_VALUE: x264_sps_write:sps <- $rsi
	#DEBUG_VALUE: bs_write:i_count <- 16
	.loc	4 124 51 is_stmt 1              # x264_src/common/bs.h:124:51
	movl	%eax, %ecx
	shlq	%cl, %r8
.Ltmp936:
	#DEBUG_VALUE: endian_fix:x <- $r8
	#DEBUG_VALUE: endian_fix64:x <- $r8
	.loc	11 277 32                       # x264_src/common/osdep.h:277:32
	bswapq	%r8
.Ltmp937:
	.loc	4 124 25                        # x264_src/common/bs.h:124:25
	movl	%r8d, (%r11)
	.loc	4 126 23                        # x264_src/common/bs.h:126:23
	movl	(%rdi), %eax
	addl	$32, %eax
	movl	%eax, (%rdi)
	.loc	4 127 18                        # x264_src/common/bs.h:127:18
	movq	(%r9), %r11
	addq	$4, %r11
	movq	%r11, (%r9)
.Ltmp938:
	.loc	4 159 17                        # x264_src/common/bs.h:159:17
	movq	(%r10), %r8
.Ltmp939:
.LBB1_195:                              # %bs_write32.exit1676
	#DEBUG_VALUE: x264_sps_write:s <- [DW_OP_LLVM_entry_value 1] $rdi
	#DEBUG_VALUE: x264_sps_write:sps <- $rsi
	.loc	0 369 36                        # x264_src/encoder/set.c:369:36
	movl	1200(%rsi), %ecx
.Ltmp940:
	#DEBUG_VALUE: bs_write1:s <- undef
	#DEBUG_VALUE: bs_write1:i_bit <- undef
	.loc	4 159 17                        # x264_src/common/bs.h:159:17
	addq	%r8, %r8
	.loc	4 160 17                        # x264_src/common/bs.h:160:17
	orq	%rcx, %r8
	movq	%r8, (%r10)
	.loc	4 161 14                        # x264_src/common/bs.h:161:14
	decl	%eax
	movl	%eax, (%rdi)
.Ltmp941:
	.loc	4 162 19                        # x264_src/common/bs.h:162:19
	cmpl	$32, %eax
.Ltmp942:
	.loc	4 162 9 is_stmt 0               # x264_src/common/bs.h:162:9
	jne	.LBB1_197
.Ltmp943:
# %bb.196:                              # %if.then.i1684
	#DEBUG_VALUE: x264_sps_write:s <- [DW_OP_LLVM_entry_value 1] $rdi
	#DEBUG_VALUE: x264_sps_write:sps <- $rsi
	#DEBUG_VALUE: endian_fix32:x <- $r8d
	.loc	11 264 58 is_stmt 1             # x264_src/common/osdep.h:264:58
	bswapl	%r8d
.Ltmp944:
	.loc	4 164 21                        # x264_src/common/bs.h:164:21
	movl	%r8d, (%r11)
	.loc	4 165 14                        # x264_src/common/bs.h:165:14
	movq	(%r9), %r11
	addq	$4, %r11
	movq	%r11, (%r9)
	.loc	4 166 19                        # x264_src/common/bs.h:166:19
	movl	$64, (%rdi)
.Ltmp945:
	.loc	4 159 17                        # x264_src/common/bs.h:159:17
	movq	(%r10), %r8
	movl	$64, %eax
.Ltmp946:
.LBB1_197:                              # %if.end124
	#DEBUG_VALUE: x264_sps_write:s <- [DW_OP_LLVM_entry_value 1] $rdi
	#DEBUG_VALUE: x264_sps_write:sps <- $rsi
	.loc	0 372 32                        # x264_src/encoder/set.c:372:32
	movl	1204(%rsi), %ecx
.Ltmp947:
	#DEBUG_VALUE: bs_write1:s <- undef
	#DEBUG_VALUE: bs_write1:i_bit <- undef
	.loc	4 159 17                        # x264_src/common/bs.h:159:17
	addq	%r8, %r8
	.loc	4 160 17                        # x264_src/common/bs.h:160:17
	orq	%rcx, %r8
	movq	%r8, (%r10)
	.loc	4 161 14                        # x264_src/common/bs.h:161:14
	decl	%eax
	movl	%eax, (%rdi)
.Ltmp948:
	.loc	4 162 19                        # x264_src/common/bs.h:162:19
	cmpl	$32, %eax
.Ltmp949:
	.loc	4 162 9 is_stmt 0               # x264_src/common/bs.h:162:9
	jne	.LBB1_199
.Ltmp950:
# %bb.198:                              # %if.then.i1697
	#DEBUG_VALUE: x264_sps_write:s <- [DW_OP_LLVM_entry_value 1] $rdi
	#DEBUG_VALUE: x264_sps_write:sps <- $rsi
	#DEBUG_VALUE: endian_fix32:x <- $r8d
	.loc	11 264 58 is_stmt 1             # x264_src/common/osdep.h:264:58
	bswapl	%r8d
.Ltmp951:
	.loc	4 164 21                        # x264_src/common/bs.h:164:21
	movl	%r8d, (%r11)
	.loc	4 165 14                        # x264_src/common/bs.h:165:14
	movq	(%r9), %r11
	addq	$4, %r11
	movq	%r11, (%r9)
	.loc	4 166 19                        # x264_src/common/bs.h:166:19
	movl	$64, (%rdi)
.Ltmp952:
	.loc	4 159 17                        # x264_src/common/bs.h:159:17
	movq	(%r10), %r8
	movl	$64, %eax
.Ltmp953:
.LBB1_199:                              # %bs_write1.exit1702
	#DEBUG_VALUE: x264_sps_write:s <- [DW_OP_LLVM_entry_value 1] $rdi
	#DEBUG_VALUE: x264_sps_write:sps <- $rsi
	.loc	0 373 13                        # x264_src/encoder/set.c:373:13
	cmpl	$0, 1204(%rsi)
.Ltmp954:
	.loc	0 373 13 is_stmt 0              # x264_src/encoder/set.c:373:13
	je	.LBB1_226
.Ltmp955:
# %bb.200:                              # %if.then129
	#DEBUG_VALUE: x264_sps_write:s <- [DW_OP_LLVM_entry_value 1] $rdi
	#DEBUG_VALUE: x264_sps_write:sps <- $rsi
	.loc	0 375 42 is_stmt 1              # x264_src/encoder/set.c:375:42
	movl	1212(%rsi), %ebx
.Ltmp956:
	#DEBUG_VALUE: bs_write_ue_big:val <- $ebx
	#DEBUG_VALUE: bs_write_ue_big:tmp <- $ebx
	.loc	0 0 42 is_stmt 0                # x264_src/encoder/set.c:0:42
	movl	%ebx, %ecx
	shrl	$16, %ecx
.Ltmp957:
	#DEBUG_VALUE: bs_write_ue_big:s <- undef
	#DEBUG_VALUE: bs_write_ue_big:size <- 0
	.loc	4 212 13 is_stmt 1              # x264_src/common/bs.h:212:13
	xorl	%edx, %edx
	cmpl	$65536, %ebx                    # imm = 0x10000
.Ltmp958:
	.loc	4 212 9 is_stmt 0               # x264_src/common/bs.h:212:9
	cmovll	%ebx, %ecx
.Ltmp959:
	#DEBUG_VALUE: bs_write_ue_big:tmp <- $ecx
	.loc	4 212 13                        # x264_src/common/bs.h:212:13
	setge	%dl
.Ltmp960:
	.loc	4 212 9                         # x264_src/common/bs.h:212:9
	shll	$5, %edx
.Ltmp961:
	#DEBUG_VALUE: bs_write_ue_big:size <- $edx
	.loc	4 217 9 is_stmt 1               # x264_src/common/bs.h:217:9
	movl	%ecx, %ebp
	shrl	$8, %ebp
	leal	16(%rdx), %r14d
.Ltmp962:
	.loc	4 217 13 is_stmt 0              # x264_src/common/bs.h:217:13
	cmpl	$256, %ecx                      # imm = 0x100
.Ltmp963:
	.loc	4 217 9                         # x264_src/common/bs.h:217:9
	cmovll	%ecx, %ebp
.Ltmp964:
	#DEBUG_VALUE: bs_write_ue_big:tmp <- $ebp
	#DEBUG_VALUE: bs_write_ue_big:size <- undef
	.loc	4 222 13 is_stmt 1              # x264_src/common/bs.h:222:13
	movslq	%ebp, %rcx
	.loc	4 223 22                        # x264_src/common/bs.h:223:22
	movzbl	%r14b, %ebp
.Ltmp965:
	cmovll	%edx, %ebp
	.loc	4 222 13                        # x264_src/common/bs.h:222:13
	movzbl	x264_ue_size_tab(%rcx), %ecx
	.loc	4 223 22                        # x264_src/common/bs.h:223:22
	movzbl	%bpl, %edx
	addl	%ecx, %edx
	shrl	%edx
.Ltmp966:
	#DEBUG_VALUE: bs_write:i_count <- $edx
	#DEBUG_VALUE: bs_write:s <- undef
	#DEBUG_VALUE: bs_write:i_bits <- 0
	.loc	4 117 36                        # x264_src/common/bs.h:117:36
	movl	%edx, %ecx
	shlq	%cl, %r8
	.loc	4 117 21 is_stmt 0              # x264_src/common/bs.h:117:21
	movq	%r8, (%r10)
	.loc	4 118 19 is_stmt 1              # x264_src/common/bs.h:118:19
	subl	%edx, %eax
	movl	%eax, (%rdi)
.Ltmp967:
	.loc	4 119 23                        # x264_src/common/bs.h:119:23
	cmpl	$32, %eax
.Ltmp968:
	.loc	4 119 13 is_stmt 0              # x264_src/common/bs.h:119:13
	jg	.LBB1_202
.Ltmp969:
# %bb.201:                              # %if.then.i.i1740
	#DEBUG_VALUE: x264_sps_write:s <- [DW_OP_LLVM_entry_value 1] $rdi
	#DEBUG_VALUE: x264_sps_write:sps <- $rsi
	#DEBUG_VALUE: bs_write_ue_big:val <- $ebx
	#DEBUG_VALUE: bs_write:i_count <- $ecx
	#DEBUG_VALUE: bs_write:i_bits <- 0
	.loc	4 124 51 is_stmt 1              # x264_src/common/bs.h:124:51
	movl	%eax, %ecx
.Ltmp970:
	#DEBUG_VALUE: bs_write:i_count <- $edx
	shlq	%cl, %r8
.Ltmp971:
	#DEBUG_VALUE: endian_fix:x <- $r8
	#DEBUG_VALUE: endian_fix64:x <- $r8
	.loc	11 277 32                       # x264_src/common/osdep.h:277:32
	bswapq	%r8
.Ltmp972:
	.loc	4 124 25                        # x264_src/common/bs.h:124:25
	movl	%r8d, (%r11)
	.loc	4 126 23                        # x264_src/common/bs.h:126:23
	movl	(%rdi), %eax
	addl	$32, %eax
	.loc	4 127 18                        # x264_src/common/bs.h:127:18
	addq	$4, (%r9)
.Ltmp973:
	.loc	4 117 27                        # x264_src/common/bs.h:117:27
	movq	(%r10), %r8
.Ltmp974:
.LBB1_202:                              # %bs_write.exit.i1724
	#DEBUG_VALUE: x264_sps_write:s <- [DW_OP_LLVM_entry_value 1] $rdi
	#DEBUG_VALUE: x264_sps_write:sps <- $rsi
	#DEBUG_VALUE: bs_write_ue_big:val <- $ebx
	.loc	4 224 27                        # x264_src/common/bs.h:224:27
	incl	%edx
.Ltmp975:
	#DEBUG_VALUE: bs_write:i_count <- $edx
	#DEBUG_VALUE: bs_write:s <- undef
	.loc	4 117 36                        # x264_src/common/bs.h:117:36
	movl	%edx, %ecx
	shlq	%cl, %r8
	.loc	4 117 48 is_stmt 0              # x264_src/common/bs.h:117:48
	orq	%rbx, %r8
	.loc	4 117 21                        # x264_src/common/bs.h:117:21
	movq	%r8, (%r10)
	.loc	4 118 19 is_stmt 1              # x264_src/common/bs.h:118:19
	subl	%edx, %eax
	movl	%eax, (%rdi)
.Ltmp976:
	.loc	4 119 23                        # x264_src/common/bs.h:119:23
	cmpl	$32, %eax
.Ltmp977:
	#DEBUG_VALUE: bs_write:i_bits <- undef
	.loc	4 119 13 is_stmt 0              # x264_src/common/bs.h:119:13
	jg	.LBB1_204
.Ltmp978:
# %bb.203:                              # %if.then.i25.i1732
	#DEBUG_VALUE: x264_sps_write:s <- [DW_OP_LLVM_entry_value 1] $rdi
	#DEBUG_VALUE: x264_sps_write:sps <- $rsi
	#DEBUG_VALUE: bs_write_ue_big:val <- $ebx
	#DEBUG_VALUE: bs_write:i_count <- $ecx
	.loc	4 124 51 is_stmt 1              # x264_src/common/bs.h:124:51
	movl	%eax, %ecx
.Ltmp979:
	#DEBUG_VALUE: bs_write:i_count <- $edx
	shlq	%cl, %r8
.Ltmp980:
	#DEBUG_VALUE: endian_fix:x <- $r8
	#DEBUG_VALUE: endian_fix64:x <- $r8
	.loc	11 277 32                       # x264_src/common/osdep.h:277:32
	bswapq	%r8
.Ltmp981:
	.loc	4 124 13                        # x264_src/common/bs.h:124:13
	movq	(%r9), %rax
	.loc	4 124 25 is_stmt 0              # x264_src/common/bs.h:124:25
	movl	%r8d, (%rax)
	.loc	4 126 23 is_stmt 1              # x264_src/common/bs.h:126:23
	movl	(%rdi), %eax
	addl	$32, %eax
	movl	%eax, (%rdi)
	.loc	4 127 18                        # x264_src/common/bs.h:127:18
	addq	$4, (%r9)
.Ltmp982:
	.loc	4 117 27                        # x264_src/common/bs.h:117:27
	movq	(%r10), %r8
.Ltmp983:
.LBB1_204:                              # %bs_write_ue_big.exit1749
	#DEBUG_VALUE: x264_sps_write:s <- [DW_OP_LLVM_entry_value 1] $rdi
	#DEBUG_VALUE: x264_sps_write:sps <- $rsi
	.loc	0 376 42                        # x264_src/encoder/set.c:376:42
	movl	1216(%rsi), %ecx
.Ltmp984:
	#DEBUG_VALUE: bs_write:s <- undef
	#DEBUG_VALUE: bs_write:i_count <- 4
	#DEBUG_VALUE: bs_write:i_bits <- undef
	.loc	4 117 36                        # x264_src/common/bs.h:117:36
	shlq	$4, %r8
	.loc	4 117 48 is_stmt 0              # x264_src/common/bs.h:117:48
	orq	%rcx, %r8
	.loc	4 117 21                        # x264_src/common/bs.h:117:21
	movq	%r8, (%r10)
	.loc	4 118 19 is_stmt 1              # x264_src/common/bs.h:118:19
	leal	-4(%rax), %ecx
	movl	%ecx, (%rdi)
.Ltmp985:
	.loc	4 119 23                        # x264_src/common/bs.h:119:23
	cmpl	$36, %eax
.Ltmp986:
	.loc	4 119 13 is_stmt 0              # x264_src/common/bs.h:119:13
	jg	.LBB1_206
.Ltmp987:
# %bb.205:                              # %if.then.i1757
	#DEBUG_VALUE: x264_sps_write:s <- [DW_OP_LLVM_entry_value 1] $rdi
	#DEBUG_VALUE: x264_sps_write:sps <- $rsi
	#DEBUG_VALUE: bs_write:i_count <- 4
                                        # kill: def $cl killed $cl killed $rcx
	.loc	4 124 51 is_stmt 1              # x264_src/common/bs.h:124:51
	shlq	%cl, %r8
.Ltmp988:
	#DEBUG_VALUE: endian_fix:x <- $r8
	#DEBUG_VALUE: endian_fix64:x <- $r8
	.loc	11 277 32                       # x264_src/common/osdep.h:277:32
	bswapq	%r8
.Ltmp989:
	.loc	4 124 13                        # x264_src/common/bs.h:124:13
	movq	(%r9), %rax
	.loc	4 124 25 is_stmt 0              # x264_src/common/bs.h:124:25
	movl	%r8d, (%rax)
	.loc	4 126 23 is_stmt 1              # x264_src/common/bs.h:126:23
	movl	(%rdi), %ecx
	addl	$32, %ecx
	movl	%ecx, (%rdi)
	.loc	4 127 18                        # x264_src/common/bs.h:127:18
	addq	$4, (%r9)
.Ltmp990:
	.loc	4 117 27                        # x264_src/common/bs.h:117:27
	movq	(%r10), %r8
.Ltmp991:
.LBB1_206:                              # %bs_write.exit1765
	#DEBUG_VALUE: x264_sps_write:s <- [DW_OP_LLVM_entry_value 1] $rdi
	#DEBUG_VALUE: x264_sps_write:sps <- $rsi
	.loc	0 377 42                        # x264_src/encoder/set.c:377:42
	movl	1220(%rsi), %eax
.Ltmp992:
	#DEBUG_VALUE: bs_write:s <- undef
	#DEBUG_VALUE: bs_write:i_count <- 4
	#DEBUG_VALUE: bs_write:i_bits <- undef
	.loc	4 117 36                        # x264_src/common/bs.h:117:36
	shlq	$4, %r8
	.loc	4 117 48 is_stmt 0              # x264_src/common/bs.h:117:48
	orq	%rax, %r8
	.loc	4 117 21                        # x264_src/common/bs.h:117:21
	movq	%r8, (%r10)
	.loc	4 118 19 is_stmt 1              # x264_src/common/bs.h:118:19
	leal	-4(%rcx), %eax
	movl	%eax, (%rdi)
.Ltmp993:
	.loc	4 119 23                        # x264_src/common/bs.h:119:23
	cmpl	$36, %ecx
.Ltmp994:
	.loc	4 119 13 is_stmt 0              # x264_src/common/bs.h:119:13
	jg	.LBB1_208
.Ltmp995:
# %bb.207:                              # %if.then.i1773
	#DEBUG_VALUE: x264_sps_write:s <- [DW_OP_LLVM_entry_value 1] $rdi
	#DEBUG_VALUE: x264_sps_write:sps <- $rsi
	#DEBUG_VALUE: bs_write:i_count <- 4
	.loc	4 124 51 is_stmt 1              # x264_src/common/bs.h:124:51
	movl	%eax, %ecx
	shlq	%cl, %r8
.Ltmp996:
	#DEBUG_VALUE: endian_fix:x <- $r8
	#DEBUG_VALUE: endian_fix64:x <- $r8
	.loc	11 277 32                       # x264_src/common/osdep.h:277:32
	bswapq	%r8
.Ltmp997:
	.loc	4 124 13                        # x264_src/common/bs.h:124:13
	movq	(%r9), %rax
	.loc	4 124 25 is_stmt 0              # x264_src/common/bs.h:124:25
	movl	%r8d, (%rax)
	.loc	4 126 23 is_stmt 1              # x264_src/common/bs.h:126:23
	movl	(%rdi), %eax
	addl	$32, %eax
	movl	%eax, (%rdi)
	.loc	4 127 18                        # x264_src/common/bs.h:127:18
	addq	$4, (%r9)
.Ltmp998:
	.loc	4 117 27                        # x264_src/common/bs.h:117:27
	movq	(%r10), %r8
.Ltmp999:
.LBB1_208:                              # %bs_write.exit1781
	#DEBUG_VALUE: x264_sps_write:s <- [DW_OP_LLVM_entry_value 1] $rdi
	#DEBUG_VALUE: x264_sps_write:sps <- $rsi
	.loc	0 379 42                        # x264_src/encoder/set.c:379:42
	movl	1224(%rsi), %r11d
.Ltmp1000:
	#DEBUG_VALUE: bs_write_ue_big:val <- $r11d
	#DEBUG_VALUE: bs_write_ue_big:tmp <- $r11d
	.loc	0 0 42 is_stmt 0                # x264_src/encoder/set.c:0:42
	movl	%r11d, %ecx
	shrl	$16, %ecx
.Ltmp1001:
	#DEBUG_VALUE: bs_write_ue_big:s <- undef
	#DEBUG_VALUE: bs_write_ue_big:size <- 0
	.loc	4 212 13 is_stmt 1              # x264_src/common/bs.h:212:13
	xorl	%edx, %edx
	cmpl	$65536, %r11d                   # imm = 0x10000
.Ltmp1002:
	.loc	4 212 9 is_stmt 0               # x264_src/common/bs.h:212:9
	cmovll	%r11d, %ecx
.Ltmp1003:
	#DEBUG_VALUE: bs_write_ue_big:tmp <- $ecx
	.loc	4 212 13                        # x264_src/common/bs.h:212:13
	setge	%dl
.Ltmp1004:
	.loc	4 212 9                         # x264_src/common/bs.h:212:9
	shll	$5, %edx
.Ltmp1005:
	#DEBUG_VALUE: bs_write_ue_big:size <- $edx
	.loc	4 217 9 is_stmt 1               # x264_src/common/bs.h:217:9
	movl	%ecx, %ebx
	shrl	$8, %ebx
	leal	16(%rdx), %ebp
.Ltmp1006:
	.loc	4 217 13 is_stmt 0              # x264_src/common/bs.h:217:13
	cmpl	$256, %ecx                      # imm = 0x100
.Ltmp1007:
	.loc	4 217 9                         # x264_src/common/bs.h:217:9
	cmovll	%ecx, %ebx
.Ltmp1008:
	#DEBUG_VALUE: bs_write_ue_big:tmp <- $ebx
	#DEBUG_VALUE: bs_write_ue_big:size <- undef
	.loc	4 222 13 is_stmt 1              # x264_src/common/bs.h:222:13
	movslq	%ebx, %rcx
	.loc	4 223 22                        # x264_src/common/bs.h:223:22
	movzbl	%bpl, %ebx
.Ltmp1009:
	cmovll	%edx, %ebx
	.loc	4 222 13                        # x264_src/common/bs.h:222:13
	movzbl	x264_ue_size_tab(%rcx), %ecx
	.loc	4 223 22                        # x264_src/common/bs.h:223:22
	movzbl	%bl, %edx
	addl	%ecx, %edx
	shrl	%edx
.Ltmp1010:
	#DEBUG_VALUE: bs_write:i_count <- $edx
	#DEBUG_VALUE: bs_write:s <- undef
	#DEBUG_VALUE: bs_write:i_bits <- 0
	.loc	4 117 36                        # x264_src/common/bs.h:117:36
	movl	%edx, %ecx
	shlq	%cl, %r8
	.loc	4 117 21 is_stmt 0              # x264_src/common/bs.h:117:21
	movq	%r8, (%r10)
	.loc	4 118 19 is_stmt 1              # x264_src/common/bs.h:118:19
	subl	%edx, %eax
	movl	%eax, (%rdi)
.Ltmp1011:
	.loc	4 119 23                        # x264_src/common/bs.h:119:23
	cmpl	$32, %eax
.Ltmp1012:
	.loc	4 119 13 is_stmt 0              # x264_src/common/bs.h:119:13
	jg	.LBB1_210
.Ltmp1013:
# %bb.209:                              # %if.then.i.i1819
	#DEBUG_VALUE: x264_sps_write:s <- [DW_OP_LLVM_entry_value 1] $rdi
	#DEBUG_VALUE: x264_sps_write:sps <- $rsi
	#DEBUG_VALUE: bs_write_ue_big:val <- $r11d
	#DEBUG_VALUE: bs_write:i_count <- $ecx
	#DEBUG_VALUE: bs_write:i_bits <- 0
	.loc	4 124 51 is_stmt 1              # x264_src/common/bs.h:124:51
	movl	%eax, %ecx
.Ltmp1014:
	#DEBUG_VALUE: bs_write:i_count <- $edx
	shlq	%cl, %r8
.Ltmp1015:
	#DEBUG_VALUE: endian_fix:x <- $r8
	#DEBUG_VALUE: endian_fix64:x <- $r8
	.loc	11 277 32                       # x264_src/common/osdep.h:277:32
	bswapq	%r8
.Ltmp1016:
	.loc	4 124 13                        # x264_src/common/bs.h:124:13
	movq	(%r9), %rax
	.loc	4 124 25 is_stmt 0              # x264_src/common/bs.h:124:25
	movl	%r8d, (%rax)
	.loc	4 126 23 is_stmt 1              # x264_src/common/bs.h:126:23
	movl	(%rdi), %eax
	addl	$32, %eax
	.loc	4 127 18                        # x264_src/common/bs.h:127:18
	addq	$4, (%r9)
.Ltmp1017:
	.loc	4 117 27                        # x264_src/common/bs.h:117:27
	movq	(%r10), %r8
.Ltmp1018:
.LBB1_210:                              # %bs_write.exit.i1803
	#DEBUG_VALUE: x264_sps_write:s <- [DW_OP_LLVM_entry_value 1] $rdi
	#DEBUG_VALUE: x264_sps_write:sps <- $rsi
	#DEBUG_VALUE: bs_write_ue_big:val <- $r11d
	.loc	4 224 27                        # x264_src/common/bs.h:224:27
	incl	%edx
.Ltmp1019:
	#DEBUG_VALUE: bs_write:i_count <- $edx
	#DEBUG_VALUE: bs_write:s <- undef
	.loc	4 117 36                        # x264_src/common/bs.h:117:36
	movl	%edx, %ecx
	shlq	%cl, %r8
	.loc	4 117 48 is_stmt 0              # x264_src/common/bs.h:117:48
	orq	%r11, %r8
	.loc	4 117 21                        # x264_src/common/bs.h:117:21
	movq	%r8, (%r10)
	.loc	4 118 19 is_stmt 1              # x264_src/common/bs.h:118:19
	subl	%edx, %eax
	movl	%eax, (%rdi)
.Ltmp1020:
	.loc	4 119 23                        # x264_src/common/bs.h:119:23
	cmpl	$32, %eax
.Ltmp1021:
	#DEBUG_VALUE: bs_write:i_bits <- undef
	.loc	4 119 13 is_stmt 0              # x264_src/common/bs.h:119:13
	jg	.LBB1_212
.Ltmp1022:
# %bb.211:                              # %if.then.i25.i1811
	#DEBUG_VALUE: x264_sps_write:s <- [DW_OP_LLVM_entry_value 1] $rdi
	#DEBUG_VALUE: x264_sps_write:sps <- $rsi
	#DEBUG_VALUE: bs_write_ue_big:val <- $r11d
	#DEBUG_VALUE: bs_write:i_count <- $ecx
	.loc	4 124 51 is_stmt 1              # x264_src/common/bs.h:124:51
	movl	%eax, %ecx
.Ltmp1023:
	#DEBUG_VALUE: bs_write:i_count <- $edx
	shlq	%cl, %r8
.Ltmp1024:
	#DEBUG_VALUE: endian_fix:x <- $r8
	#DEBUG_VALUE: endian_fix64:x <- $r8
	.loc	11 277 32                       # x264_src/common/osdep.h:277:32
	bswapq	%r8
.Ltmp1025:
	.loc	4 124 13                        # x264_src/common/bs.h:124:13
	movq	(%r9), %rax
	.loc	4 124 25 is_stmt 0              # x264_src/common/bs.h:124:25
	movl	%r8d, (%rax)
	.loc	4 126 23 is_stmt 1              # x264_src/common/bs.h:126:23
	movl	(%rdi), %eax
	addl	$32, %eax
	movl	%eax, (%rdi)
	.loc	4 127 18                        # x264_src/common/bs.h:127:18
	addq	$4, (%r9)
.Ltmp1026:
	.loc	4 117 27                        # x264_src/common/bs.h:117:27
	movq	(%r10), %r8
.Ltmp1027:
.LBB1_212:                              # %bs_write_ue_big.exit1828
	#DEBUG_VALUE: x264_sps_write:s <- [DW_OP_LLVM_entry_value 1] $rdi
	#DEBUG_VALUE: x264_sps_write:sps <- $rsi
	.loc	0 380 42                        # x264_src/encoder/set.c:380:42
	movl	1228(%rsi), %r11d
.Ltmp1028:
	#DEBUG_VALUE: bs_write_ue_big:val <- $r11d
	#DEBUG_VALUE: bs_write_ue_big:tmp <- $r11d
	.loc	0 0 42 is_stmt 0                # x264_src/encoder/set.c:0:42
	movl	%r11d, %ecx
	shrl	$16, %ecx
.Ltmp1029:
	#DEBUG_VALUE: bs_write_ue_big:s <- undef
	#DEBUG_VALUE: bs_write_ue_big:size <- 0
	.loc	4 212 13 is_stmt 1              # x264_src/common/bs.h:212:13
	xorl	%edx, %edx
	cmpl	$65536, %r11d                   # imm = 0x10000
.Ltmp1030:
	.loc	4 212 9 is_stmt 0               # x264_src/common/bs.h:212:9
	cmovll	%r11d, %ecx
.Ltmp1031:
	#DEBUG_VALUE: bs_write_ue_big:tmp <- $ecx
	.loc	4 212 13                        # x264_src/common/bs.h:212:13
	setge	%dl
.Ltmp1032:
	.loc	4 212 9                         # x264_src/common/bs.h:212:9
	shll	$5, %edx
.Ltmp1033:
	#DEBUG_VALUE: bs_write_ue_big:size <- $edx
	.loc	4 217 9 is_stmt 1               # x264_src/common/bs.h:217:9
	movl	%ecx, %ebx
	shrl	$8, %ebx
	leal	16(%rdx), %ebp
.Ltmp1034:
	.loc	4 217 13 is_stmt 0              # x264_src/common/bs.h:217:13
	cmpl	$256, %ecx                      # imm = 0x100
.Ltmp1035:
	.loc	4 217 9                         # x264_src/common/bs.h:217:9
	cmovll	%ecx, %ebx
.Ltmp1036:
	#DEBUG_VALUE: bs_write_ue_big:tmp <- $ebx
	#DEBUG_VALUE: bs_write_ue_big:size <- undef
	.loc	4 222 13 is_stmt 1              # x264_src/common/bs.h:222:13
	movslq	%ebx, %rcx
	.loc	4 223 22                        # x264_src/common/bs.h:223:22
	movzbl	%bpl, %ebx
.Ltmp1037:
	cmovll	%edx, %ebx
	.loc	4 222 13                        # x264_src/common/bs.h:222:13
	movzbl	x264_ue_size_tab(%rcx), %ecx
	.loc	4 223 22                        # x264_src/common/bs.h:223:22
	movzbl	%bl, %edx
	addl	%ecx, %edx
	shrl	%edx
.Ltmp1038:
	#DEBUG_VALUE: bs_write:i_count <- $edx
	#DEBUG_VALUE: bs_write:s <- undef
	#DEBUG_VALUE: bs_write:i_bits <- 0
	.loc	4 117 36                        # x264_src/common/bs.h:117:36
	movl	%edx, %ecx
	shlq	%cl, %r8
	.loc	4 117 21 is_stmt 0              # x264_src/common/bs.h:117:21
	movq	%r8, (%r10)
	.loc	4 118 19 is_stmt 1              # x264_src/common/bs.h:118:19
	subl	%edx, %eax
	movl	%eax, (%rdi)
.Ltmp1039:
	.loc	4 119 23                        # x264_src/common/bs.h:119:23
	cmpl	$32, %eax
.Ltmp1040:
	.loc	4 119 13 is_stmt 0              # x264_src/common/bs.h:119:13
	jg	.LBB1_214
.Ltmp1041:
# %bb.213:                              # %if.then.i.i1866
	#DEBUG_VALUE: x264_sps_write:s <- [DW_OP_LLVM_entry_value 1] $rdi
	#DEBUG_VALUE: x264_sps_write:sps <- $rsi
	#DEBUG_VALUE: bs_write_ue_big:val <- $r11d
	#DEBUG_VALUE: bs_write:i_count <- $ecx
	#DEBUG_VALUE: bs_write:i_bits <- 0
	.loc	4 124 51 is_stmt 1              # x264_src/common/bs.h:124:51
	movl	%eax, %ecx
.Ltmp1042:
	#DEBUG_VALUE: bs_write:i_count <- $edx
	shlq	%cl, %r8
.Ltmp1043:
	#DEBUG_VALUE: endian_fix:x <- $r8
	#DEBUG_VALUE: endian_fix64:x <- $r8
	.loc	11 277 32                       # x264_src/common/osdep.h:277:32
	bswapq	%r8
.Ltmp1044:
	.loc	4 124 13                        # x264_src/common/bs.h:124:13
	movq	(%r9), %rax
	.loc	4 124 25 is_stmt 0              # x264_src/common/bs.h:124:25
	movl	%r8d, (%rax)
	.loc	4 126 23 is_stmt 1              # x264_src/common/bs.h:126:23
	movl	(%rdi), %eax
	addl	$32, %eax
	.loc	4 127 18                        # x264_src/common/bs.h:127:18
	addq	$4, (%r9)
.Ltmp1045:
	.loc	4 117 27                        # x264_src/common/bs.h:117:27
	movq	(%r10), %r8
.Ltmp1046:
.LBB1_214:                              # %bs_write.exit.i1850
	#DEBUG_VALUE: x264_sps_write:s <- [DW_OP_LLVM_entry_value 1] $rdi
	#DEBUG_VALUE: x264_sps_write:sps <- $rsi
	#DEBUG_VALUE: bs_write_ue_big:val <- $r11d
	.loc	4 224 27                        # x264_src/common/bs.h:224:27
	incl	%edx
.Ltmp1047:
	#DEBUG_VALUE: bs_write:i_count <- $edx
	#DEBUG_VALUE: bs_write:s <- undef
	.loc	4 117 36                        # x264_src/common/bs.h:117:36
	movl	%edx, %ecx
	shlq	%cl, %r8
	.loc	4 117 48 is_stmt 0              # x264_src/common/bs.h:117:48
	orq	%r11, %r8
	.loc	4 117 21                        # x264_src/common/bs.h:117:21
	movq	%r8, (%r10)
	.loc	4 118 19 is_stmt 1              # x264_src/common/bs.h:118:19
	subl	%edx, %eax
	movl	%eax, (%rdi)
.Ltmp1048:
	.loc	4 119 23                        # x264_src/common/bs.h:119:23
	cmpl	$32, %eax
.Ltmp1049:
	#DEBUG_VALUE: bs_write:i_bits <- undef
	.loc	4 119 13 is_stmt 0              # x264_src/common/bs.h:119:13
	jg	.LBB1_216
.Ltmp1050:
# %bb.215:                              # %if.then.i25.i1858
	#DEBUG_VALUE: x264_sps_write:s <- [DW_OP_LLVM_entry_value 1] $rdi
	#DEBUG_VALUE: x264_sps_write:sps <- $rsi
	#DEBUG_VALUE: bs_write_ue_big:val <- $r11d
	#DEBUG_VALUE: bs_write:i_count <- $ecx
	.loc	4 124 51 is_stmt 1              # x264_src/common/bs.h:124:51
	movl	%eax, %ecx
.Ltmp1051:
	#DEBUG_VALUE: bs_write:i_count <- $edx
	shlq	%cl, %r8
.Ltmp1052:
	#DEBUG_VALUE: endian_fix:x <- $r8
	#DEBUG_VALUE: endian_fix64:x <- $r8
	.loc	11 277 32                       # x264_src/common/osdep.h:277:32
	bswapq	%r8
.Ltmp1053:
	.loc	4 124 13                        # x264_src/common/bs.h:124:13
	movq	(%r9), %rax
	.loc	4 124 25 is_stmt 0              # x264_src/common/bs.h:124:25
	movl	%r8d, (%rax)
	.loc	4 126 23 is_stmt 1              # x264_src/common/bs.h:126:23
	movl	(%rdi), %eax
	addl	$32, %eax
	movl	%eax, (%rdi)
	.loc	4 127 18                        # x264_src/common/bs.h:127:18
	addq	$4, (%r9)
.Ltmp1054:
	.loc	4 159 17                        # x264_src/common/bs.h:159:17
	movq	(%r10), %r8
.Ltmp1055:
.LBB1_216:                              # %bs_write_ue_big.exit1875
	#DEBUG_VALUE: x264_sps_write:s <- [DW_OP_LLVM_entry_value 1] $rdi
	#DEBUG_VALUE: x264_sps_write:sps <- $rsi
	.loc	0 382 40                        # x264_src/encoder/set.c:382:40
	movl	1240(%rsi), %ecx
.Ltmp1056:
	#DEBUG_VALUE: bs_write1:s <- undef
	#DEBUG_VALUE: bs_write1:i_bit <- undef
	.loc	4 159 17                        # x264_src/common/bs.h:159:17
	addq	%r8, %r8
	.loc	4 160 17                        # x264_src/common/bs.h:160:17
	orq	%rcx, %r8
	movq	%r8, (%r10)
	.loc	4 161 14                        # x264_src/common/bs.h:161:14
	decl	%eax
	movl	%eax, (%rdi)
.Ltmp1057:
	.loc	4 162 19                        # x264_src/common/bs.h:162:19
	cmpl	$32, %eax
.Ltmp1058:
	.loc	4 162 9 is_stmt 0               # x264_src/common/bs.h:162:9
	jne	.LBB1_218
.Ltmp1059:
# %bb.217:                              # %if.then.i1883
	#DEBUG_VALUE: x264_sps_write:s <- [DW_OP_LLVM_entry_value 1] $rdi
	#DEBUG_VALUE: x264_sps_write:sps <- $rsi
	#DEBUG_VALUE: endian_fix32:x <- $r8d
	.loc	11 264 58 is_stmt 1             # x264_src/common/osdep.h:264:58
	bswapl	%r8d
.Ltmp1060:
	.loc	4 164 9                         # x264_src/common/bs.h:164:9
	movq	(%r9), %rax
	.loc	4 164 21 is_stmt 0              # x264_src/common/bs.h:164:21
	movl	%r8d, (%rax)
	.loc	4 165 14 is_stmt 1              # x264_src/common/bs.h:165:14
	addq	$4, (%r9)
	.loc	4 166 19                        # x264_src/common/bs.h:166:19
	movl	$64, (%rdi)
.Ltmp1061:
	.loc	4 117 27                        # x264_src/common/bs.h:117:27
	movq	(%r10), %r8
	movl	$64, %eax
.Ltmp1062:
.LBB1_218:                              # %bs_write1.exit1888
	#DEBUG_VALUE: x264_sps_write:s <- [DW_OP_LLVM_entry_value 1] $rdi
	#DEBUG_VALUE: x264_sps_write:sps <- $rsi
	.loc	0 384 42                        # x264_src/encoder/set.c:384:42
	movl	1244(%rsi), %edx
	.loc	0 384 77 is_stmt 0              # x264_src/encoder/set.c:384:77
	decl	%edx
.Ltmp1063:
	#DEBUG_VALUE: bs_write:i_bits <- $edx
	#DEBUG_VALUE: bs_write:s <- undef
	#DEBUG_VALUE: bs_write:i_count <- 5
	.loc	4 117 36 is_stmt 1              # x264_src/common/bs.h:117:36
	shlq	$5, %r8
	.loc	4 117 48 is_stmt 0              # x264_src/common/bs.h:117:48
	orq	%r8, %rdx
.Ltmp1064:
	.loc	4 117 21                        # x264_src/common/bs.h:117:21
	movq	%rdx, (%r10)
	.loc	4 118 19 is_stmt 1              # x264_src/common/bs.h:118:19
	leal	-5(%rax), %ecx
	movl	%ecx, (%rdi)
.Ltmp1065:
	.loc	4 119 23                        # x264_src/common/bs.h:119:23
	cmpl	$37, %eax
.Ltmp1066:
	.loc	4 119 13 is_stmt 0              # x264_src/common/bs.h:119:13
	jg	.LBB1_220
.Ltmp1067:
# %bb.219:                              # %if.then.i1896
	#DEBUG_VALUE: x264_sps_write:s <- [DW_OP_LLVM_entry_value 1] $rdi
	#DEBUG_VALUE: x264_sps_write:sps <- $rsi
	#DEBUG_VALUE: bs_write:i_count <- 5
                                        # kill: def $cl killed $cl killed $rcx
	.loc	4 124 51 is_stmt 1              # x264_src/common/bs.h:124:51
	shlq	%cl, %rdx
.Ltmp1068:
	#DEBUG_VALUE: endian_fix:x <- $rdx
	#DEBUG_VALUE: endian_fix64:x <- $rdx
	.loc	11 277 32                       # x264_src/common/osdep.h:277:32
	bswapq	%rdx
.Ltmp1069:
	.loc	4 124 13                        # x264_src/common/bs.h:124:13
	movq	(%r9), %rax
	.loc	4 124 25 is_stmt 0              # x264_src/common/bs.h:124:25
	movl	%edx, (%rax)
	.loc	4 126 23 is_stmt 1              # x264_src/common/bs.h:126:23
	movl	(%rdi), %ecx
	addl	$32, %ecx
	movl	%ecx, (%rdi)
	.loc	4 127 18                        # x264_src/common/bs.h:127:18
	addq	$4, (%r9)
.Ltmp1070:
	.loc	4 117 27                        # x264_src/common/bs.h:117:27
	movq	(%r10), %rdx
.Ltmp1071:
.LBB1_220:                              # %bs_write.exit1904
	#DEBUG_VALUE: x264_sps_write:s <- [DW_OP_LLVM_entry_value 1] $rdi
	#DEBUG_VALUE: x264_sps_write:sps <- $rsi
	.loc	0 385 42                        # x264_src/encoder/set.c:385:42
	movl	1248(%rsi), %r11d
	.loc	0 385 69 is_stmt 0              # x264_src/encoder/set.c:385:69
	decl	%r11d
.Ltmp1072:
	#DEBUG_VALUE: bs_write:i_bits <- $r11d
	#DEBUG_VALUE: bs_write:s <- undef
	#DEBUG_VALUE: bs_write:i_count <- 5
	.loc	4 117 36 is_stmt 1              # x264_src/common/bs.h:117:36
	shlq	$5, %rdx
	.loc	4 117 48 is_stmt 0              # x264_src/common/bs.h:117:48
	orq	%rdx, %r11
.Ltmp1073:
	.loc	4 117 21                        # x264_src/common/bs.h:117:21
	movq	%r11, (%r10)
	.loc	4 118 19 is_stmt 1              # x264_src/common/bs.h:118:19
	leal	-5(%rcx), %eax
	movl	%eax, (%rdi)
.Ltmp1074:
	.loc	4 119 23                        # x264_src/common/bs.h:119:23
	cmpl	$37, %ecx
.Ltmp1075:
	.loc	4 119 13 is_stmt 0              # x264_src/common/bs.h:119:13
	jg	.LBB1_222
.Ltmp1076:
# %bb.221:                              # %if.then.i1912
	#DEBUG_VALUE: x264_sps_write:s <- [DW_OP_LLVM_entry_value 1] $rdi
	#DEBUG_VALUE: x264_sps_write:sps <- $rsi
	#DEBUG_VALUE: bs_write:i_count <- 5
	.loc	4 124 51 is_stmt 1              # x264_src/common/bs.h:124:51
	movl	%eax, %ecx
	shlq	%cl, %r11
.Ltmp1077:
	#DEBUG_VALUE: endian_fix:x <- $r11
	#DEBUG_VALUE: endian_fix64:x <- $r11
	.loc	11 277 32                       # x264_src/common/osdep.h:277:32
	bswapq	%r11
.Ltmp1078:
	.loc	4 124 13                        # x264_src/common/bs.h:124:13
	movq	(%r9), %rax
	.loc	4 124 25 is_stmt 0              # x264_src/common/bs.h:124:25
	movl	%r11d, (%rax)
	.loc	4 126 23 is_stmt 1              # x264_src/common/bs.h:126:23
	movl	(%rdi), %eax
	addl	$32, %eax
	movl	%eax, (%rdi)
	.loc	4 127 18                        # x264_src/common/bs.h:127:18
	addq	$4, (%r9)
.Ltmp1079:
	.loc	4 117 27                        # x264_src/common/bs.h:117:27
	movq	(%r10), %r11
.Ltmp1080:
.LBB1_222:                              # %bs_write.exit1920
	#DEBUG_VALUE: x264_sps_write:s <- [DW_OP_LLVM_entry_value 1] $rdi
	#DEBUG_VALUE: x264_sps_write:sps <- $rsi
	.loc	0 386 42                        # x264_src/encoder/set.c:386:42
	movl	1252(%rsi), %r8d
	.loc	0 386 68 is_stmt 0              # x264_src/encoder/set.c:386:68
	decl	%r8d
.Ltmp1081:
	#DEBUG_VALUE: bs_write:i_bits <- $r8d
	#DEBUG_VALUE: bs_write:s <- undef
	#DEBUG_VALUE: bs_write:i_count <- 5
	.loc	4 117 36 is_stmt 1              # x264_src/common/bs.h:117:36
	shlq	$5, %r11
	.loc	4 117 48 is_stmt 0              # x264_src/common/bs.h:117:48
	orq	%r11, %r8
.Ltmp1082:
	.loc	4 117 21                        # x264_src/common/bs.h:117:21
	movq	%r8, (%r10)
	.loc	4 118 19 is_stmt 1              # x264_src/common/bs.h:118:19
	leal	-5(%rax), %ecx
	movl	%ecx, (%rdi)
.Ltmp1083:
	.loc	4 119 23                        # x264_src/common/bs.h:119:23
	cmpl	$37, %eax
.Ltmp1084:
	.loc	4 119 13 is_stmt 0              # x264_src/common/bs.h:119:13
	jg	.LBB1_224
.Ltmp1085:
# %bb.223:                              # %if.then.i1928
	#DEBUG_VALUE: x264_sps_write:s <- [DW_OP_LLVM_entry_value 1] $rdi
	#DEBUG_VALUE: x264_sps_write:sps <- $rsi
	#DEBUG_VALUE: bs_write:i_count <- 5
                                        # kill: def $cl killed $cl killed $rcx
	.loc	4 124 51 is_stmt 1              # x264_src/common/bs.h:124:51
	shlq	%cl, %r8
.Ltmp1086:
	#DEBUG_VALUE: endian_fix:x <- $r8
	#DEBUG_VALUE: endian_fix64:x <- $r8
	.loc	11 277 32                       # x264_src/common/osdep.h:277:32
	bswapq	%r8
.Ltmp1087:
	.loc	4 124 13                        # x264_src/common/bs.h:124:13
	movq	(%r9), %rax
	.loc	4 124 25 is_stmt 0              # x264_src/common/bs.h:124:25
	movl	%r8d, (%rax)
	.loc	4 126 23 is_stmt 1              # x264_src/common/bs.h:126:23
	movl	(%rdi), %ecx
	addl	$32, %ecx
	movl	%ecx, (%rdi)
	.loc	4 127 18                        # x264_src/common/bs.h:127:18
	addq	$4, (%r9)
.Ltmp1088:
	.loc	4 117 27                        # x264_src/common/bs.h:117:27
	movq	(%r10), %r8
.Ltmp1089:
.LBB1_224:                              # %bs_write.exit1936
	#DEBUG_VALUE: x264_sps_write:s <- [DW_OP_LLVM_entry_value 1] $rdi
	#DEBUG_VALUE: x264_sps_write:sps <- $rsi
	.loc	0 387 42                        # x264_src/encoder/set.c:387:42
	movl	1256(%rsi), %eax
.Ltmp1090:
	#DEBUG_VALUE: bs_write:s <- undef
	#DEBUG_VALUE: bs_write:i_count <- 5
	#DEBUG_VALUE: bs_write:i_bits <- undef
	.loc	4 117 36                        # x264_src/common/bs.h:117:36
	shlq	$5, %r8
	.loc	4 117 48 is_stmt 0              # x264_src/common/bs.h:117:48
	orq	%rax, %r8
	.loc	4 117 21                        # x264_src/common/bs.h:117:21
	movq	%r8, (%r10)
	.loc	4 118 19 is_stmt 1              # x264_src/common/bs.h:118:19
	leal	-5(%rcx), %eax
	movl	%eax, (%rdi)
.Ltmp1091:
	.loc	4 119 23                        # x264_src/common/bs.h:119:23
	cmpl	$37, %ecx
.Ltmp1092:
	.loc	4 119 13 is_stmt 0              # x264_src/common/bs.h:119:13
	jg	.LBB1_226
.Ltmp1093:
# %bb.225:                              # %if.then.i1944
	#DEBUG_VALUE: x264_sps_write:s <- [DW_OP_LLVM_entry_value 1] $rdi
	#DEBUG_VALUE: x264_sps_write:sps <- $rsi
	#DEBUG_VALUE: bs_write:i_count <- 5
	.loc	4 124 51 is_stmt 1              # x264_src/common/bs.h:124:51
	movl	%eax, %ecx
	shlq	%cl, %r8
.Ltmp1094:
	#DEBUG_VALUE: endian_fix:x <- $r8
	#DEBUG_VALUE: endian_fix64:x <- $r8
	.loc	11 277 32                       # x264_src/common/osdep.h:277:32
	bswapq	%r8
.Ltmp1095:
	.loc	4 124 13                        # x264_src/common/bs.h:124:13
	movq	(%r9), %rax
	.loc	4 124 25 is_stmt 0              # x264_src/common/bs.h:124:25
	movl	%r8d, (%rax)
	.loc	4 126 23 is_stmt 1              # x264_src/common/bs.h:126:23
	movl	(%rdi), %eax
	addl	$32, %eax
	movl	%eax, (%rdi)
	.loc	4 127 18                        # x264_src/common/bs.h:127:18
	addq	$4, (%r9)
.Ltmp1096:
	.loc	4 159 17                        # x264_src/common/bs.h:159:17
	movq	(%r10), %r8
.Ltmp1097:
