	.text
	.file	"annexb.c"
	.file	0 "/home/yjs/workspace/x264-test/src" "ldecod_src/annexb.c" md5 0x834c1a68d2eeb9f9a2a6815fde4832d5
	.file	1 "ldecod_src/inc" "frame.h" md5 0xfd6ca9e1c707932f749220576db72b57
	.file	2 "ldecod_src/inc" "io_video.h" md5 0x1141c07f1801ad27d87214c419749431
	.file	3 "ldecod_src/inc" "types.h" md5 0x64f87bd13f2911471c7313b4ac17e90c
	.file	4 "ldecod_src/inc" "nalucommon.h" md5 0xf9e55677f5f79524218c8a7a94869788
	.file	5 "ldecod_src/inc" "annexb.h" md5 0xa6a52094af5c5816464e8295d9d6ede7
	.file	6 "ldecod_src/inc" "typedefs.h" md5 0xe1393d024b72e653f4e6dbeffdb0b154
	.globl	malloc_annex_b                  # -- Begin function malloc_annex_b
	.p2align	4, 0x90
	.type	malloc_annex_b,@function
malloc_annex_b:                         # @malloc_annex_b
.Lfunc_begin0:
	.loc	0 23 0                          # ldecod_src/annexb.c:23:0
	.cfi_startproc
# %bb.0:                                # %entry
	#DEBUG_VALUE: malloc_annex_b:p_Vid <- $rdi
	pushq	%r14
	.cfi_def_cfa_offset 16
	pushq	%rbx
	.cfi_def_cfa_offset 24
	pushq	%rax
	.cfi_def_cfa_offset 32
	.cfi_offset %rbx, -24
	.cfi_offset %r14, -16
	movq	%rdi, %rbx
.Ltmp0:
	.loc	0 24 39 prologue_end            # ldecod_src/annexb.c:24:39
	movl	$1, %edi
.Ltmp1:
	#DEBUG_VALUE: malloc_annex_b:p_Vid <- $rbx
	movl	$56, %esi
	callq	calloc@PLT
.Ltmp2:
	movq	%rax, %r14
	.loc	0 24 24 is_stmt 0               # ldecod_src/annexb.c:24:24
	movq	%rax, 856608(%rbx)
	.loc	0 24 68                         # ldecod_src/annexb.c:24:68
	testq	%rax, %rax
.Ltmp3:
	.loc	0 24 8                          # ldecod_src/annexb.c:24:8
	jne	.LBB0_2
.Ltmp4:
# %bb.1:                                # %if.then
	#DEBUG_VALUE: malloc_annex_b:p_Vid <- $rbx
	.loc	0 26 5 is_stmt 1                # ldecod_src/annexb.c:26:5
	movups	.L.str+26(%rip), %xmm0
	movq	errortext@GOTPCREL(%rip), %rdi
	movups	%xmm0, 26(%rdi)
	movups	.L.str+16(%rip), %xmm0
	movaps	%xmm0, 16(%rdi)
	movups	.L.str(%rip), %xmm0
	movaps	%xmm0, (%rdi)
	.loc	0 27 5                          # ldecod_src/annexb.c:27:5
	movl	$100, %esi
	callq	error@PLT
.Ltmp5:
	.loc	0 29 15                         # ldecod_src/annexb.c:29:15
	movq	856608(%rbx), %r14
.Ltmp6:
.LBB0_2:                                # %if.end
	#DEBUG_VALUE: malloc_annex_b:p_Vid <- $rbx
	.loc	0 29 52 is_stmt 0               # ldecod_src/annexb.c:29:52
	movq	856832(%rbx), %rax
	.loc	0 29 58                         # ldecod_src/annexb.c:29:58
	movl	8(%rax), %edi
	.loc	0 29 38                         # ldecod_src/annexb.c:29:38
	callq	malloc@PLT
.Ltmp7:
	.loc	0 29 28                         # ldecod_src/annexb.c:29:28
	movq	%rax, 48(%r14)
	.loc	0 29 69                         # ldecod_src/annexb.c:29:69
	testq	%rax, %rax
.Ltmp8:
	.loc	0 29 7                          # ldecod_src/annexb.c:29:7
	je	.LBB0_4
.Ltmp9:
# %bb.3:                                # %if.end7
	#DEBUG_VALUE: malloc_annex_b:p_Vid <- $rbx
	.loc	0 33 1 epilogue_begin is_stmt 1 # ldecod_src/annexb.c:33:1
	addq	$8, %rsp
	.cfi_def_cfa_offset 24
	popq	%rbx
.Ltmp10:
	#DEBUG_VALUE: malloc_annex_b:p_Vid <- [DW_OP_LLVM_entry_value 1] $rdi
	.cfi_def_cfa_offset 16
	popq	%r14
	.cfi_def_cfa_offset 8
	retq
.Ltmp11:
.LBB0_4:                                # %if.then6
	.cfi_def_cfa_offset 32
	#DEBUG_VALUE: malloc_annex_b:p_Vid <- $rbx
	.loc	0 31 5                          # ldecod_src/annexb.c:31:5
	movl	$.L.str.1, %edi
	movl	$101, %esi
	.loc	0 31 5 epilogue_begin is_stmt 0 # ldecod_src/annexb.c:31:5
	addq	$8, %rsp
	.cfi_def_cfa_offset 24
	popq	%rbx
.Ltmp12:
	#DEBUG_VALUE: malloc_annex_b:p_Vid <- [DW_OP_LLVM_entry_value 1] $rdi
	.cfi_def_cfa_offset 16
	popq	%r14
	.cfi_def_cfa_offset 8
.Ltmp13:
	jmp	error@PLT                       # TAILCALL
.Ltmp14:
.Lfunc_end0:
	.size	malloc_annex_b, .Lfunc_end0-malloc_annex_b
	.cfi_endproc
	.file	7 "/usr/include" "stdlib.h" md5 0x02258fad21adf111bb9df9825e61954a
	.file	8 "/home/yjs/workspace" "GPUISel-llvm/build/lib/clang/19/include/__stddef_size_t.h" md5 0x2c44e821a2b1951cde2eb0fb2e656867
	.file	9 "ldecod_src/inc" "global.h" md5 0xc4ca3c417c5616a2ff6b6266e7376fc1
                                        # -- End function
	.globl	init_annex_b                    # -- Begin function init_annex_b
	.p2align	4, 0x90
	.type	init_annex_b,@function
init_annex_b:                           # @init_annex_b
.Lfunc_begin1:
	.cfi_startproc
# %bb.0:                                # %entry
	#DEBUG_VALUE: init_annex_b:annex_b <- $rdi
	.loc	0 38 26 prologue_end is_stmt 1  # ldecod_src/annexb.c:38:26
	movl	$-1, (%rdi)
	.loc	0 40 25                         # ldecod_src/annexb.c:40:25
	xorps	%xmm0, %xmm0
	movups	%xmm0, 8(%rdi)
	movq	$0, 24(%rdi)
	.loc	0 43 34                         # ldecod_src/annexb.c:43:34
	movq	$1, 36(%rdi)
	.loc	0 45 1                          # ldecod_src/annexb.c:45:1
	retq
.Ltmp15:
.Lfunc_end1:
	.size	init_annex_b, .Lfunc_end1-init_annex_b
	.cfi_endproc
                                        # -- End function
	.globl	free_annex_b                    # -- Begin function free_annex_b
	.p2align	4, 0x90
	.type	free_annex_b,@function
free_annex_b:                           # @free_annex_b
.Lfunc_begin2:
	.loc	0 48 0                          # ldecod_src/annexb.c:48:0
	.cfi_startproc
# %bb.0:                                # %entry
	#DEBUG_VALUE: free_annex_b:p_Vid <- $rdi
	pushq	%rbx
	.cfi_def_cfa_offset 16
	.cfi_offset %rbx, -16
	movq	%rdi, %rbx
.Ltmp16:
	.loc	0 49 15 prologue_end            # ldecod_src/annexb.c:49:15
	movq	856608(%rdi), %rax
	.loc	0 49 24 is_stmt 0               # ldecod_src/annexb.c:49:24
	movq	48(%rax), %rdi
.Ltmp17:
	#DEBUG_VALUE: free_annex_b:p_Vid <- $rbx
	.loc	0 49 3                          # ldecod_src/annexb.c:49:3
	callq	free@PLT
.Ltmp18:
	.loc	0 50 10 is_stmt 1               # ldecod_src/annexb.c:50:10
	movq	856608(%rbx), %rax
	.loc	0 50 23 is_stmt 0               # ldecod_src/annexb.c:50:23
	movq	$0, 48(%rax)
	.loc	0 51 15 is_stmt 1               # ldecod_src/annexb.c:51:15
	movq	856608(%rbx), %rdi
	.loc	0 51 3 is_stmt 0                # ldecod_src/annexb.c:51:3
	callq	free@PLT
.Ltmp19:
	.loc	0 52 18 is_stmt 1               # ldecod_src/annexb.c:52:18
	movq	$0, 856608(%rbx)
	.loc	0 53 1 epilogue_begin           # ldecod_src/annexb.c:53:1
	popq	%rbx
.Ltmp20:
	#DEBUG_VALUE: free_annex_b:p_Vid <- [DW_OP_LLVM_entry_value 1] $rdi
	.cfi_def_cfa_offset 8
	retq
.Ltmp21:
.Lfunc_end2:
	.size	free_annex_b, .Lfunc_end2-free_annex_b
	.cfi_endproc
                                        # -- End function
	.globl	GetAnnexbNALU                   # -- Begin function GetAnnexbNALU
	.p2align	4, 0x90
	.type	GetAnnexbNALU,@function
GetAnnexbNALU:                          # @GetAnnexbNALU
.Lfunc_begin3:
	.loc	0 147 0                         # ldecod_src/annexb.c:147:0
	.cfi_startproc
# %bb.0:                                # %entry
	#DEBUG_VALUE: GetAnnexbNALU:p_Vid <- $rdi
	#DEBUG_VALUE: GetAnnexbNALU:nalu <- $rsi
	pushq	%rbp
	.cfi_def_cfa_offset 16
	pushq	%r15
	.cfi_def_cfa_offset 24
	pushq	%r14
	.cfi_def_cfa_offset 32
	pushq	%r13
	.cfi_def_cfa_offset 40
	pushq	%r12
	.cfi_def_cfa_offset 48
	pushq	%rbx
	.cfi_def_cfa_offset 56
	pushq	%rax
	.cfi_def_cfa_offset 64
	.cfi_offset %rbx, -56
	.cfi_offset %r12, -48
	.cfi_offset %r13, -40
	.cfi_offset %r14, -32
	.cfi_offset %r15, -24
	.cfi_offset %rbp, -16
	movq	%rsi, %rbp
.Ltmp22:
	.loc	0 148 30 prologue_end           # ldecod_src/annexb.c:148:30
	movq	856608(%rdi), %r15
.Ltmp23:
	#DEBUG_VALUE: GetAnnexbNALU:annex_b <- $r15
	#DEBUG_VALUE: GetAnnexbNALU:info2 <- 0
	#DEBUG_VALUE: GetAnnexbNALU:info3 <- 0
	#DEBUG_VALUE: GetAnnexbNALU:pos <- 0
	#DEBUG_VALUE: GetAnnexbNALU:StartCodeFound <- 0
	#DEBUG_VALUE: GetAnnexbNALU:LeadingZero8BitsCount <- 0
	.loc	0 153 25                        # ldecod_src/annexb.c:153:25
	movq	48(%r15), %r13
.Ltmp24:
	#DEBUG_VALUE: GetAnnexbNALU:pBuf <- $r13
	.loc	0 155 16                        # ldecod_src/annexb.c:155:16
	movl	40(%r15), %eax
	.loc	0 155 35 is_stmt 0              # ldecod_src/annexb.c:155:35
	testl	%eax, %eax
.Ltmp25:
	.loc	0 155 7                         # ldecod_src/annexb.c:155:7
	je	.LBB3_8
.Ltmp26:
# %bb.1:                                # %for.cond.preheader
	#DEBUG_VALUE: GetAnnexbNALU:p_Vid <- $rdi
	#DEBUG_VALUE: GetAnnexbNALU:nalu <- $rbp
	#DEBUG_VALUE: GetAnnexbNALU:annex_b <- $r15
	#DEBUG_VALUE: GetAnnexbNALU:info2 <- 0
	#DEBUG_VALUE: GetAnnexbNALU:info3 <- 0
	#DEBUG_VALUE: GetAnnexbNALU:pos <- 0
	#DEBUG_VALUE: GetAnnexbNALU:StartCodeFound <- 0
	#DEBUG_VALUE: GetAnnexbNALU:LeadingZero8BitsCount <- 0
	#DEBUG_VALUE: GetAnnexbNALU:pBuf <- $r13
	#DEBUG_VALUE: GetAnnexbNALU:pBuf <- $r13
	#DEBUG_VALUE: GetAnnexbNALU:pos <- 0
	#DEBUG_VALUE: GetAnnexbNALU:i <- 0
	.loc	0 0 7                           # ldecod_src/annexb.c:0:7
	movl	$1, %r12d
.Ltmp27:
	.loc	0 157 16 is_stmt 1              # ldecod_src/annexb.c:157:16
	cmpl	$2, %eax
.Ltmp28:
	.loc	0 157 5 is_stmt 0               # ldecod_src/annexb.c:157:5
	jl	.LBB3_5
.Ltmp29:
# %bb.2:                                # %for.body.preheader
	#DEBUG_VALUE: GetAnnexbNALU:p_Vid <- $rdi
	#DEBUG_VALUE: GetAnnexbNALU:nalu <- $rbp
	#DEBUG_VALUE: GetAnnexbNALU:annex_b <- $r15
	#DEBUG_VALUE: GetAnnexbNALU:info2 <- 0
	#DEBUG_VALUE: GetAnnexbNALU:info3 <- 0
	#DEBUG_VALUE: GetAnnexbNALU:pos <- 0
	#DEBUG_VALUE: GetAnnexbNALU:StartCodeFound <- 0
	#DEBUG_VALUE: GetAnnexbNALU:LeadingZero8BitsCount <- 0
	#DEBUG_VALUE: GetAnnexbNALU:pBuf <- $r13
	#DEBUG_VALUE: GetAnnexbNALU:i <- 0
	.loc	0 0 5                           # ldecod_src/annexb.c:0:5
	xorl	%eax, %eax
.Ltmp30:
	.p2align	4, 0x90
.LBB3_3:                                # %for.body
                                        # =>This Inner Loop Header: Depth=1
	#DEBUG_VALUE: GetAnnexbNALU:p_Vid <- $rdi
	#DEBUG_VALUE: GetAnnexbNALU:nalu <- $rbp
	#DEBUG_VALUE: GetAnnexbNALU:annex_b <- $r15
	#DEBUG_VALUE: GetAnnexbNALU:info2 <- 0
	#DEBUG_VALUE: GetAnnexbNALU:info3 <- 0
	#DEBUG_VALUE: GetAnnexbNALU:StartCodeFound <- 0
	#DEBUG_VALUE: GetAnnexbNALU:LeadingZero8BitsCount <- 0
	#DEBUG_VALUE: GetAnnexbNALU:pBuf <- [DW_OP_LLVM_arg 0, DW_OP_LLVM_arg 1, DW_OP_plus, DW_OP_stack_value] $rax, $r13
	#DEBUG_VALUE: GetAnnexbNALU:pos <- $rax
	#DEBUG_VALUE: GetAnnexbNALU:i <- $rax
	#DEBUG_VALUE: GetAnnexbNALU:pBuf <- [DW_OP_LLVM_arg 0, DW_OP_consts 1, DW_OP_LLVM_arg 1, DW_OP_plus, DW_OP_plus, DW_OP_stack_value] $rax, $r13
	.loc	0 159 17 is_stmt 1              # ldecod_src/annexb.c:159:17
	movb	$0, (%r13,%rax)
.Ltmp31:
	#DEBUG_VALUE: GetAnnexbNALU:pos <- [DW_OP_consts 1, DW_OP_plus, DW_OP_stack_value] $rax
	#DEBUG_VALUE: GetAnnexbNALU:i <- [DW_OP_consts 1, DW_OP_plus, DW_OP_stack_value] $rax
	.loc	0 157 26                        # ldecod_src/annexb.c:157:26
	movl	40(%r15), %ecx
	.loc	0 157 44 is_stmt 0              # ldecod_src/annexb.c:157:44
	decl	%ecx
	.loc	0 157 16                        # ldecod_src/annexb.c:157:16
	incq	%rax
.Ltmp32:
	cmpl	%ecx, %eax
.Ltmp33:
	.loc	0 157 5                         # ldecod_src/annexb.c:157:5
	jl	.LBB3_3
.Ltmp34:
# %bb.4:                                # %for.end.loopexit
	#DEBUG_VALUE: GetAnnexbNALU:p_Vid <- $rdi
	#DEBUG_VALUE: GetAnnexbNALU:nalu <- $rbp
	#DEBUG_VALUE: GetAnnexbNALU:annex_b <- $r15
	#DEBUG_VALUE: GetAnnexbNALU:info2 <- 0
	#DEBUG_VALUE: GetAnnexbNALU:info3 <- 0
	#DEBUG_VALUE: GetAnnexbNALU:StartCodeFound <- 0
	#DEBUG_VALUE: GetAnnexbNALU:LeadingZero8BitsCount <- 0
	.loc	0 162 11 is_stmt 1              # ldecod_src/annexb.c:162:11
	leal	1(%rax), %r12d
	addq	%rax, %r13
.Ltmp35:
.LBB3_5:                                # %for.end
	#DEBUG_VALUE: GetAnnexbNALU:p_Vid <- $rdi
	#DEBUG_VALUE: GetAnnexbNALU:nalu <- $rbp
	#DEBUG_VALUE: GetAnnexbNALU:annex_b <- $r15
	#DEBUG_VALUE: GetAnnexbNALU:info2 <- 0
	#DEBUG_VALUE: GetAnnexbNALU:info3 <- 0
	#DEBUG_VALUE: GetAnnexbNALU:StartCodeFound <- 0
	#DEBUG_VALUE: GetAnnexbNALU:LeadingZero8BitsCount <- 0
	.loc	0 162 15 is_stmt 0              # ldecod_src/annexb.c:162:15
	movb	$1, (%r13)
	.loc	0 162 11                        # ldecod_src/annexb.c:162:11
	incq	%r13
.Ltmp36:
	#DEBUG_VALUE: GetAnnexbNALU:pBuf <- $r13
	#DEBUG_VALUE: GetAnnexbNALU:pos <- $r12d
	#DEBUG_VALUE: GetAnnexbNALU:pBuf <- $r13
	#DEBUG_VALUE: GetAnnexbNALU:pos <- $r12d
	.loc	0 174 22 is_stmt 1              # ldecod_src/annexb.c:174:22
	cmpl	$1, 28(%r15)
.Ltmp37:
	.loc	0 174 6 is_stmt 0               # ldecod_src/annexb.c:174:6
	jne	.LBB3_15
.Ltmp38:
.LBB3_6:                                # %if.then16
	#DEBUG_VALUE: GetAnnexbNALU:p_Vid <- [DW_OP_LLVM_entry_value 1] $rdi
	#DEBUG_VALUE: GetAnnexbNALU:nalu <- $rbp
	#DEBUG_VALUE: GetAnnexbNALU:annex_b <- $r15
	#DEBUG_VALUE: GetAnnexbNALU:info2 <- 0
	#DEBUG_VALUE: GetAnnexbNALU:info3 <- 0
	#DEBUG_VALUE: GetAnnexbNALU:pos <- $r12d
	#DEBUG_VALUE: GetAnnexbNALU:StartCodeFound <- 0
	#DEBUG_VALUE: GetAnnexbNALU:LeadingZero8BitsCount <- 0
	#DEBUG_VALUE: GetAnnexbNALU:pBuf <- $r13
	.loc	0 176 11 is_stmt 1              # ldecod_src/annexb.c:176:11
	testl	%r12d, %r12d
.Ltmp39:
	.loc	0 176 8 is_stmt 0               # ldecod_src/annexb.c:176:8
	je	.LBB3_22
.Ltmp40:
# %bb.7:                                # %if.else20
	#DEBUG_VALUE: GetAnnexbNALU:p_Vid <- [DW_OP_LLVM_entry_value 1] $rdi
	#DEBUG_VALUE: GetAnnexbNALU:nalu <- $rbp
	#DEBUG_VALUE: GetAnnexbNALU:annex_b <- $r15
	#DEBUG_VALUE: GetAnnexbNALU:info2 <- 0
	#DEBUG_VALUE: GetAnnexbNALU:info3 <- 0
	#DEBUG_VALUE: GetAnnexbNALU:pos <- $r12d
	#DEBUG_VALUE: GetAnnexbNALU:StartCodeFound <- 0
	#DEBUG_VALUE: GetAnnexbNALU:LeadingZero8BitsCount <- 0
	#DEBUG_VALUE: GetAnnexbNALU:pBuf <- $r13
	.loc	0 182 7 is_stmt 1               # ldecod_src/annexb.c:182:7
	movl	$.Lstr.11, %edi
	jmp	.LBB3_21
.Ltmp41:
.LBB3_8:                                # %while.cond.preheader
	#DEBUG_VALUE: GetAnnexbNALU:p_Vid <- $rdi
	#DEBUG_VALUE: GetAnnexbNALU:nalu <- $rbp
	#DEBUG_VALUE: GetAnnexbNALU:annex_b <- $r15
	#DEBUG_VALUE: GetAnnexbNALU:info2 <- 0
	#DEBUG_VALUE: GetAnnexbNALU:info3 <- 0
	#DEBUG_VALUE: GetAnnexbNALU:pos <- 0
	#DEBUG_VALUE: GetAnnexbNALU:StartCodeFound <- 0
	#DEBUG_VALUE: GetAnnexbNALU:LeadingZero8BitsCount <- 0
	#DEBUG_VALUE: GetAnnexbNALU:pBuf <- $r13
	.loc	0 0 7 is_stmt 0                 # ldecod_src/annexb.c:0:7
	leaq	16(%r15), %rbx
	leaq	8(%r15), %r14
	xorl	%r12d, %r12d
	jmp	.LBB3_10
.Ltmp42:
	.p2align	4, 0x90
.LBB3_9:                                # %if.end3.i
                                        #   in Loop: Header=BB3_10 Depth=1
	#DEBUG_VALUE: GetAnnexbNALU:p_Vid <- [DW_OP_LLVM_entry_value 1] $rdi
	#DEBUG_VALUE: GetAnnexbNALU:nalu <- $rbp
	#DEBUG_VALUE: GetAnnexbNALU:annex_b <- $r15
	#DEBUG_VALUE: GetAnnexbNALU:info2 <- 0
	#DEBUG_VALUE: GetAnnexbNALU:info3 <- 0
	#DEBUG_VALUE: GetAnnexbNALU:pos <- [DW_OP_consts 1, DW_OP_plus, DW_OP_stack_value] $r12
	#DEBUG_VALUE: GetAnnexbNALU:StartCodeFound <- 0
	#DEBUG_VALUE: GetAnnexbNALU:LeadingZero8BitsCount <- 0
	#DEBUG_VALUE: GetAnnexbNALU:pBuf <- [DW_OP_LLVM_arg 0, DW_OP_LLVM_arg 1, DW_OP_plus, DW_OP_stack_value] $r12, $r13
	#DEBUG_VALUE: getfbyte:annex_b <- $r15
	movq	(%rcx), %rcx
	.loc	0 88 25 is_stmt 1               # ldecod_src/annexb.c:88:25
	decl	%eax
	movl	%eax, 24(%r15)
	.loc	0 89 33                         # ldecod_src/annexb.c:89:33
	leaq	1(%rcx), %rax
	movq	%rax, 16(%r15)
	.loc	0 89 11 is_stmt 0               # ldecod_src/annexb.c:89:11
	movzbl	(%rcx), %eax
.Ltmp43:
	#DEBUG_VALUE: GetAnnexbNALU:pBuf <- [DW_OP_LLVM_arg 0, DW_OP_consts 1, DW_OP_LLVM_arg 1, DW_OP_plus, DW_OP_plus, DW_OP_stack_value] $r12, $r13
	.loc	0 170 21 is_stmt 1              # ldecod_src/annexb.c:170:21
	movb	%al, (%r13,%r12)
.Ltmp44:
	.loc	0 170 11 is_stmt 0              # ldecod_src/annexb.c:170:11
	incq	%r12
.Ltmp45:
	.loc	0 170 41                        # ldecod_src/annexb.c:170:41
	testb	%al, %al
.Ltmp46:
	.loc	0 170 11                        # ldecod_src/annexb.c:170:11
	jne	.LBB3_14
.Ltmp47:
.LBB3_10:                               # %while.cond
                                        # =>This Inner Loop Header: Depth=1
	#DEBUG_VALUE: GetAnnexbNALU:p_Vid <- [DW_OP_LLVM_entry_value 1] $rdi
	#DEBUG_VALUE: GetAnnexbNALU:nalu <- $rbp
	#DEBUG_VALUE: GetAnnexbNALU:annex_b <- $r15
	#DEBUG_VALUE: GetAnnexbNALU:info2 <- 0
	#DEBUG_VALUE: GetAnnexbNALU:info3 <- 0
	#DEBUG_VALUE: GetAnnexbNALU:StartCodeFound <- 0
	#DEBUG_VALUE: GetAnnexbNALU:LeadingZero8BitsCount <- 0
	#DEBUG_VALUE: GetAnnexbNALU:pBuf <- [DW_OP_LLVM_arg 0, DW_OP_LLVM_arg 1, DW_OP_plus, DW_OP_stack_value] $r12, $r13
	#DEBUG_VALUE: GetAnnexbNALU:pos <- $r12
	.loc	0 167 11 is_stmt 1              # ldecod_src/annexb.c:167:11
	cmpl	$0, 28(%r15)
	.loc	0 167 5 is_stmt 0               # ldecod_src/annexb.c:167:5
	jne	.LBB3_14
.Ltmp48:
# %bb.11:                               # %while.body
                                        #   in Loop: Header=BB3_10 Depth=1
	#DEBUG_VALUE: GetAnnexbNALU:p_Vid <- [DW_OP_LLVM_entry_value 1] $rdi
	#DEBUG_VALUE: GetAnnexbNALU:nalu <- $rbp
	#DEBUG_VALUE: GetAnnexbNALU:annex_b <- $r15
	#DEBUG_VALUE: GetAnnexbNALU:info2 <- 0
	#DEBUG_VALUE: GetAnnexbNALU:info3 <- 0
	#DEBUG_VALUE: GetAnnexbNALU:pos <- $r12
	#DEBUG_VALUE: GetAnnexbNALU:StartCodeFound <- 0
	#DEBUG_VALUE: GetAnnexbNALU:LeadingZero8BitsCount <- 0
	#DEBUG_VALUE: GetAnnexbNALU:pBuf <- [DW_OP_LLVM_arg 0, DW_OP_LLVM_arg 1, DW_OP_plus, DW_OP_stack_value] $r12, $r13
	#DEBUG_VALUE: GetAnnexbNALU:pos <- [DW_OP_consts 1, DW_OP_plus, DW_OP_stack_value] $r12
	#DEBUG_VALUE: getfbyte:annex_b <- $r15
	.loc	0 83 21 is_stmt 1               # ldecod_src/annexb.c:83:21
	movl	24(%r15), %eax
	movq	%rbx, %rcx
	.loc	0 83 9 is_stmt 0                # ldecod_src/annexb.c:83:9
	testl	%eax, %eax
.Ltmp49:
	.loc	0 83 7                          # ldecod_src/annexb.c:83:7
	jne	.LBB3_9
.Ltmp50:
# %bb.12:                               # %if.then.i
                                        #   in Loop: Header=BB3_10 Depth=1
	#DEBUG_VALUE: GetAnnexbNALU:p_Vid <- [DW_OP_LLVM_entry_value 1] $rdi
	#DEBUG_VALUE: GetAnnexbNALU:nalu <- $rbp
	#DEBUG_VALUE: GetAnnexbNALU:annex_b <- $r15
	#DEBUG_VALUE: GetAnnexbNALU:info2 <- 0
	#DEBUG_VALUE: GetAnnexbNALU:info3 <- 0
	#DEBUG_VALUE: GetAnnexbNALU:pos <- [DW_OP_consts 1, DW_OP_plus, DW_OP_stack_value] $r12
	#DEBUG_VALUE: GetAnnexbNALU:StartCodeFound <- 0
	#DEBUG_VALUE: GetAnnexbNALU:LeadingZero8BitsCount <- 0
	#DEBUG_VALUE: GetAnnexbNALU:pBuf <- [DW_OP_LLVM_arg 0, DW_OP_LLVM_arg 1, DW_OP_plus, DW_OP_stack_value] $r12, $r13
	#DEBUG_VALUE: getfbyte:annex_b <- $r15
	#DEBUG_VALUE: getChunk:annex_b <- $r15
	.loc	0 63 43 is_stmt 1               # ldecod_src/annexb.c:63:43
	movl	(%r15), %edi
	.loc	0 63 67 is_stmt 0               # ldecod_src/annexb.c:63:67
	movq	8(%r15), %rsi
	.loc	0 63 86                         # ldecod_src/annexb.c:63:86
	movslq	32(%r15), %rdx
	.loc	0 63 28                         # ldecod_src/annexb.c:63:28
	callq	read@PLT
.Ltmp51:
	#DEBUG_VALUE: getChunk:readbytes <- $eax
	.loc	0 0 28                          # ldecod_src/annexb.c:0:28
	movq	%r14, %rcx
.Ltmp52:
	.loc	0 64 8 is_stmt 1                # ldecod_src/annexb.c:64:8
	testl	%eax, %eax
.Ltmp53:
	.loc	0 64 7 is_stmt 0                # ldecod_src/annexb.c:64:7
	jne	.LBB3_9
.Ltmp54:
# %bb.13:                               # %getChunk.exit.thread.i
                                        #   in Loop: Header=BB3_10 Depth=1
	#DEBUG_VALUE: GetAnnexbNALU:p_Vid <- [DW_OP_LLVM_entry_value 1] $rdi
	#DEBUG_VALUE: GetAnnexbNALU:nalu <- $rbp
	#DEBUG_VALUE: GetAnnexbNALU:annex_b <- $r15
	#DEBUG_VALUE: GetAnnexbNALU:info2 <- 0
	#DEBUG_VALUE: GetAnnexbNALU:info3 <- 0
	#DEBUG_VALUE: GetAnnexbNALU:pos <- [DW_OP_consts 1, DW_OP_plus, DW_OP_stack_value] $r12
	#DEBUG_VALUE: GetAnnexbNALU:StartCodeFound <- 0
	#DEBUG_VALUE: GetAnnexbNALU:LeadingZero8BitsCount <- 0
	#DEBUG_VALUE: GetAnnexbNALU:pBuf <- [DW_OP_LLVM_arg 0, DW_OP_LLVM_arg 1, DW_OP_plus, DW_OP_stack_value] $r12, $r13
	#DEBUG_VALUE: getfbyte:annex_b <- $r15
	#DEBUG_VALUE: getChunk:annex_b <- $r15
	#DEBUG_VALUE: getChunk:readbytes <- $eax
	.loc	0 66 21 is_stmt 1               # ldecod_src/annexb.c:66:21
	movl	$1, 28(%r15)
	xorl	%eax, %eax
.Ltmp55:
	#DEBUG_VALUE: GetAnnexbNALU:pBuf <- [DW_OP_LLVM_arg 0, DW_OP_consts 1, DW_OP_LLVM_arg 1, DW_OP_plus, DW_OP_plus, DW_OP_stack_value] $r12, $r13
	.loc	0 170 21                        # ldecod_src/annexb.c:170:21
	movb	%al, (%r13,%r12)
.Ltmp56:
	.loc	0 170 11 is_stmt 0              # ldecod_src/annexb.c:170:11
	incq	%r12
.Ltmp57:
	.loc	0 170 41                        # ldecod_src/annexb.c:170:41
	testb	%al, %al
.Ltmp58:
	.loc	0 170 11                        # ldecod_src/annexb.c:170:11
	je	.LBB3_10
.Ltmp59:
.LBB3_14:                               # %while.cond.if.end12.loopexit_crit_edge
	#DEBUG_VALUE: GetAnnexbNALU:p_Vid <- [DW_OP_LLVM_entry_value 1] $rdi
	#DEBUG_VALUE: GetAnnexbNALU:nalu <- $rbp
	#DEBUG_VALUE: GetAnnexbNALU:annex_b <- $r15
	#DEBUG_VALUE: GetAnnexbNALU:info2 <- 0
	#DEBUG_VALUE: GetAnnexbNALU:info3 <- 0
	#DEBUG_VALUE: GetAnnexbNALU:StartCodeFound <- 0
	#DEBUG_VALUE: GetAnnexbNALU:LeadingZero8BitsCount <- 0
	.loc	0 0 0                           # ldecod_src/annexb.c:0:0
	addq	%r12, %r13
.Ltmp60:
	#DEBUG_VALUE: GetAnnexbNALU:pBuf <- $r13
	#DEBUG_VALUE: GetAnnexbNALU:pos <- $r12d
	.loc	0 174 22 is_stmt 1              # ldecod_src/annexb.c:174:22
	cmpl	$1, 28(%r15)
.Ltmp61:
	.loc	0 174 6 is_stmt 0               # ldecod_src/annexb.c:174:6
	je	.LBB3_6
.Ltmp62:
.LBB3_15:                               # %if.end22
	#DEBUG_VALUE: GetAnnexbNALU:p_Vid <- [DW_OP_LLVM_entry_value 1] $rdi
	#DEBUG_VALUE: GetAnnexbNALU:nalu <- $rbp
	#DEBUG_VALUE: GetAnnexbNALU:annex_b <- $r15
	#DEBUG_VALUE: GetAnnexbNALU:info2 <- 0
	#DEBUG_VALUE: GetAnnexbNALU:info3 <- 0
	#DEBUG_VALUE: GetAnnexbNALU:pos <- $r12d
	#DEBUG_VALUE: GetAnnexbNALU:StartCodeFound <- 0
	#DEBUG_VALUE: GetAnnexbNALU:LeadingZero8BitsCount <- 0
	#DEBUG_VALUE: GetAnnexbNALU:pBuf <- $r13
	.loc	0 187 18 is_stmt 1              # ldecod_src/annexb.c:187:18
	cmpb	$1, -1(%r13)
	.loc	0 187 23 is_stmt 0              # ldecod_src/annexb.c:187:23
	jne	.LBB3_20
.Ltmp63:
# %bb.16:                               # %if.end22
	#DEBUG_VALUE: GetAnnexbNALU:p_Vid <- [DW_OP_LLVM_entry_value 1] $rdi
	#DEBUG_VALUE: GetAnnexbNALU:nalu <- $rbp
	#DEBUG_VALUE: GetAnnexbNALU:annex_b <- $r15
	#DEBUG_VALUE: GetAnnexbNALU:info2 <- 0
	#DEBUG_VALUE: GetAnnexbNALU:info3 <- 0
	#DEBUG_VALUE: GetAnnexbNALU:pos <- $r12d
	#DEBUG_VALUE: GetAnnexbNALU:StartCodeFound <- 0
	#DEBUG_VALUE: GetAnnexbNALU:LeadingZero8BitsCount <- 0
	#DEBUG_VALUE: GetAnnexbNALU:pBuf <- $r13
	cmpl	$2, %r12d
	jle	.LBB3_20
.Ltmp64:
# %bb.17:                               # %if.end30
	#DEBUG_VALUE: GetAnnexbNALU:p_Vid <- [DW_OP_LLVM_entry_value 1] $rdi
	#DEBUG_VALUE: GetAnnexbNALU:nalu <- $rbp
	#DEBUG_VALUE: GetAnnexbNALU:annex_b <- $r15
	#DEBUG_VALUE: GetAnnexbNALU:info2 <- 0
	#DEBUG_VALUE: GetAnnexbNALU:info3 <- 0
	#DEBUG_VALUE: GetAnnexbNALU:pos <- $r12d
	#DEBUG_VALUE: GetAnnexbNALU:StartCodeFound <- 0
	#DEBUG_VALUE: GetAnnexbNALU:LeadingZero8BitsCount <- 0
	#DEBUG_VALUE: GetAnnexbNALU:pBuf <- $r13
	.loc	0 193 7 is_stmt 1               # ldecod_src/annexb.c:193:7
	xorl	%eax, %eax
.Ltmp65:
	.loc	0 193 11 is_stmt 0              # ldecod_src/annexb.c:193:11
	cmpl	$3, %r12d
.Ltmp66:
	.loc	0 193 7                         # ldecod_src/annexb.c:193:7
	setne	%al
	addl	$3, %eax
.Ltmp67:
	.loc	0 0 0                           # ldecod_src/annexb.c:0:0
	movl	%eax, (%rbp)
.Ltmp68:
	#DEBUG_VALUE: GetAnnexbNALU:LeadingZero8BitsCount <- undef
	.loc	0 206 7 is_stmt 1               # ldecod_src/annexb.c:206:7
	cmpl	$0, 36(%r15)
	.loc	0 206 38 is_stmt 0              # ldecod_src/annexb.c:206:38
	jne	.LBB3_23
.Ltmp69:
# %bb.18:                               # %if.end30
	#DEBUG_VALUE: GetAnnexbNALU:p_Vid <- [DW_OP_LLVM_entry_value 1] $rdi
	#DEBUG_VALUE: GetAnnexbNALU:nalu <- $rbp
	#DEBUG_VALUE: GetAnnexbNALU:annex_b <- $r15
	#DEBUG_VALUE: GetAnnexbNALU:info2 <- 0
	#DEBUG_VALUE: GetAnnexbNALU:info3 <- 0
	#DEBUG_VALUE: GetAnnexbNALU:pos <- $r12d
	#DEBUG_VALUE: GetAnnexbNALU:StartCodeFound <- 0
	#DEBUG_VALUE: GetAnnexbNALU:pBuf <- $r13
	cmpl	$5, %r12d
	jb	.LBB3_23
.Ltmp70:
# %bb.19:                               # %if.then41
	#DEBUG_VALUE: GetAnnexbNALU:p_Vid <- [DW_OP_LLVM_entry_value 1] $rdi
	#DEBUG_VALUE: GetAnnexbNALU:nalu <- $rbp
	#DEBUG_VALUE: GetAnnexbNALU:annex_b <- $r15
	#DEBUG_VALUE: GetAnnexbNALU:info2 <- 0
	#DEBUG_VALUE: GetAnnexbNALU:info3 <- 0
	#DEBUG_VALUE: GetAnnexbNALU:pos <- $r12d
	#DEBUG_VALUE: GetAnnexbNALU:StartCodeFound <- 0
	#DEBUG_VALUE: GetAnnexbNALU:pBuf <- $r13
	.loc	0 208 5 is_stmt 1               # ldecod_src/annexb.c:208:5
	movl	$.Lstr.9, %edi
	jmp	.LBB3_21
.Ltmp71:
.LBB3_20:                               # %if.then28
	#DEBUG_VALUE: GetAnnexbNALU:p_Vid <- [DW_OP_LLVM_entry_value 1] $rdi
	#DEBUG_VALUE: GetAnnexbNALU:nalu <- $rbp
	#DEBUG_VALUE: GetAnnexbNALU:annex_b <- $r15
	#DEBUG_VALUE: GetAnnexbNALU:info2 <- 0
	#DEBUG_VALUE: GetAnnexbNALU:info3 <- 0
	#DEBUG_VALUE: GetAnnexbNALU:pos <- $r12d
	#DEBUG_VALUE: GetAnnexbNALU:StartCodeFound <- 0
	#DEBUG_VALUE: GetAnnexbNALU:LeadingZero8BitsCount <- 0
	#DEBUG_VALUE: GetAnnexbNALU:pBuf <- $r13
	.loc	0 189 5                         # ldecod_src/annexb.c:189:5
	movl	$.Lstr.10, %edi
.Ltmp72:
.LBB3_21:                               # %cleanup
	#DEBUG_VALUE: GetAnnexbNALU:p_Vid <- [DW_OP_LLVM_entry_value 1] $rdi
	#DEBUG_VALUE: GetAnnexbNALU:nalu <- $rbp
	#DEBUG_VALUE: GetAnnexbNALU:annex_b <- $r15
	#DEBUG_VALUE: GetAnnexbNALU:info2 <- 0
	#DEBUG_VALUE: GetAnnexbNALU:info3 <- 0
	#DEBUG_VALUE: GetAnnexbNALU:pos <- $r12d
	#DEBUG_VALUE: GetAnnexbNALU:StartCodeFound <- 0
	#DEBUG_VALUE: GetAnnexbNALU:pBuf <- $r13
	.loc	0 0 0 is_stmt 0                 # ldecod_src/annexb.c:0:0
	callq	puts@PLT
.Ltmp73:
	movl	$-1, %r14d
.Ltmp74:
	.loc	0 183 7 is_stmt 1               # ldecod_src/annexb.c:183:7
	jmp	.LBB3_47
.Ltmp75:
.LBB3_22:
	#DEBUG_VALUE: GetAnnexbNALU:p_Vid <- [DW_OP_LLVM_entry_value 1] $rdi
	#DEBUG_VALUE: GetAnnexbNALU:nalu <- $rbp
	#DEBUG_VALUE: GetAnnexbNALU:annex_b <- $r15
	#DEBUG_VALUE: GetAnnexbNALU:info2 <- 0
	#DEBUG_VALUE: GetAnnexbNALU:info3 <- 0
	#DEBUG_VALUE: GetAnnexbNALU:pos <- $r12d
	#DEBUG_VALUE: GetAnnexbNALU:StartCodeFound <- 0
	#DEBUG_VALUE: GetAnnexbNALU:LeadingZero8BitsCount <- 0
	#DEBUG_VALUE: GetAnnexbNALU:pBuf <- $r13
	.loc	0 0 7 is_stmt 0                 # ldecod_src/annexb.c:0:7
	xorl	%r14d, %r14d
	.loc	0 176 8 is_stmt 1               # ldecod_src/annexb.c:176:8
	jmp	.LBB3_47
.Ltmp76:
.LBB3_23:                               # %if.end43
	#DEBUG_VALUE: GetAnnexbNALU:p_Vid <- [DW_OP_LLVM_entry_value 1] $rdi
	#DEBUG_VALUE: GetAnnexbNALU:nalu <- $rbp
	#DEBUG_VALUE: GetAnnexbNALU:annex_b <- $r15
	#DEBUG_VALUE: GetAnnexbNALU:info2 <- 0
	#DEBUG_VALUE: GetAnnexbNALU:info3 <- 0
	#DEBUG_VALUE: GetAnnexbNALU:pos <- $r12d
	#DEBUG_VALUE: GetAnnexbNALU:StartCodeFound <- 0
	#DEBUG_VALUE: GetAnnexbNALU:pBuf <- $r13
	#DEBUG_VALUE: GetAnnexbNALU:LeadingZero8BitsCount <- $r12d
	.loc	0 0 8 is_stmt 0                 # ldecod_src/annexb.c:0:8
	movq	%rbp, (%rsp)                    # 8-byte Spill
.Ltmp77:
	#DEBUG_VALUE: GetAnnexbNALU:nalu <- [$rsp+0]
	.loc	0 213 34 is_stmt 1              # ldecod_src/annexb.c:213:34
	movl	$0, 36(%r15)
	#DEBUG_VALUE: GetAnnexbNALU:pBuf <- $r13
	#DEBUG_VALUE: GetAnnexbNALU:StartCodeFound <- 0
	#DEBUG_VALUE: GetAnnexbNALU:pos <- $r12d
	#DEBUG_VALUE: GetAnnexbNALU:info3 <- 0
	#DEBUG_VALUE: GetAnnexbNALU:info2 <- 0
	leaq	16(%r15), %rbp
	leaq	8(%r15), %rbx
	.loc	0 215 3                         # ldecod_src/annexb.c:215:3
	addq	$-5, %r13
.Ltmp78:
	.loc	0 0 3 is_stmt 0                 # ldecod_src/annexb.c:0:3
	movl	%r12d, %eax
	jmp	.LBB3_26
.Ltmp79:
	.p2align	4, 0x90
.LBB3_32:                               # %for.inc.i
                                        #   in Loop: Header=BB3_26 Depth=1
	#DEBUG_VALUE: GetAnnexbNALU:p_Vid <- [DW_OP_LLVM_entry_value 1] $rdi
	#DEBUG_VALUE: GetAnnexbNALU:nalu <- [$rsp+0]
	#DEBUG_VALUE: GetAnnexbNALU:annex_b <- $r15
	#DEBUG_VALUE: GetAnnexbNALU:pos <- $r14d
	#DEBUG_VALUE: GetAnnexbNALU:LeadingZero8BitsCount <- $r12d
	#DEBUG_VALUE: GetAnnexbNALU:pBuf <- [DW_OP_plus_uconst 6, DW_OP_stack_value] $r13
	#DEBUG_VALUE: FindStartCode:zeros_in_startcode <- 3
	#DEBUG_VALUE: FindStartCode:i <- 0
	#DEBUG_VALUE: FindStartCode:Buf <- [DW_OP_plus_uconst 1, DW_OP_stack_value] $r13
	.loc	0 114 17 is_stmt 1              # ldecod_src/annexb.c:114:17
	testb	%cl, %cl
.Ltmp80:
	#DEBUG_VALUE: FindStartCode:i <- 1
	#DEBUG_VALUE: FindStartCode:Buf <- [DW_OP_plus_uconst 1, DW_OP_stack_value] $r13
	.loc	0 114 8 is_stmt 0               # ldecod_src/annexb.c:114:8
	je	.LBB3_34
.Ltmp81:
.LBB3_24:                               #   in Loop: Header=BB3_26 Depth=1
	#DEBUG_VALUE: GetAnnexbNALU:p_Vid <- [DW_OP_LLVM_entry_value 1] $rdi
	#DEBUG_VALUE: GetAnnexbNALU:nalu <- [$rsp+0]
	#DEBUG_VALUE: GetAnnexbNALU:annex_b <- $r15
	#DEBUG_VALUE: GetAnnexbNALU:pos <- $r14d
	#DEBUG_VALUE: GetAnnexbNALU:LeadingZero8BitsCount <- $r12d
	#DEBUG_VALUE: GetAnnexbNALU:pBuf <- [DW_OP_plus_uconst 6, DW_OP_stack_value] $r13
	.loc	0 0 8                           # ldecod_src/annexb.c:0:8
	xorl	%ecx, %ecx
	#DEBUG_VALUE: GetAnnexbNALU:pBuf <- [DW_OP_plus_uconst 6, DW_OP_stack_value] $r13
.Ltmp82:
	#DEBUG_VALUE: GetAnnexbNALU:StartCodeFound <- $ecx
	#DEBUG_VALUE: GetAnnexbNALU:info3 <- undef
	#DEBUG_VALUE: GetAnnexbNALU:info2 <- $ecx
	.loc	0 215 3 is_stmt 1               # ldecod_src/annexb.c:215:3
	incq	%r13
.Ltmp83:
	.loc	0 241 8                         # ldecod_src/annexb.c:241:8
	leal	1(%r14), %eax
.Ltmp84:
	#DEBUG_VALUE: GetAnnexbNALU:pos <- $eax
	.loc	0 215 10                        # ldecod_src/annexb.c:215:10
	testl	%ecx, %ecx
	.loc	0 215 3 is_stmt 0               # ldecod_src/annexb.c:215:3
	jne	.LBB3_41
.Ltmp85:
.LBB3_26:                               # %while.body48
                                        # =>This Inner Loop Header: Depth=1
	#DEBUG_VALUE: GetAnnexbNALU:p_Vid <- [DW_OP_LLVM_entry_value 1] $rdi
	#DEBUG_VALUE: GetAnnexbNALU:nalu <- [$rsp+0]
	#DEBUG_VALUE: GetAnnexbNALU:annex_b <- $r15
	#DEBUG_VALUE: GetAnnexbNALU:LeadingZero8BitsCount <- $r12d
	.loc	0 0 3                           # ldecod_src/annexb.c:0:3
	movl	%eax, %r14d
.Ltmp86:
	#DEBUG_VALUE: GetAnnexbNALU:pBuf <- [DW_OP_plus_uconst 5, DW_OP_stack_value] $r13
	#DEBUG_VALUE: GetAnnexbNALU:pos <- $r14d
	#DEBUG_VALUE: GetAnnexbNALU:info2 <- undef
	.loc	0 217 25 is_stmt 1              # ldecod_src/annexb.c:217:25
	cmpl	$1, 28(%r15)
.Ltmp87:
	.loc	0 217 9 is_stmt 0               # ldecod_src/annexb.c:217:9
	je	.LBB3_39
.Ltmp88:
# %bb.27:                               # %if.end78
                                        #   in Loop: Header=BB3_26 Depth=1
	#DEBUG_VALUE: GetAnnexbNALU:p_Vid <- [DW_OP_LLVM_entry_value 1] $rdi
	#DEBUG_VALUE: GetAnnexbNALU:nalu <- [$rsp+0]
	#DEBUG_VALUE: GetAnnexbNALU:annex_b <- $r15
	#DEBUG_VALUE: GetAnnexbNALU:pos <- $r14d
	#DEBUG_VALUE: GetAnnexbNALU:LeadingZero8BitsCount <- $r12d
	#DEBUG_VALUE: GetAnnexbNALU:pBuf <- [DW_OP_plus_uconst 5, DW_OP_stack_value] $r13
	#DEBUG_VALUE: getfbyte:annex_b <- $r15
	.loc	0 83 21 is_stmt 1               # ldecod_src/annexb.c:83:21
	movl	24(%r15), %eax
	movq	%rbp, %rcx
	.loc	0 83 9 is_stmt 0                # ldecod_src/annexb.c:83:9
	testl	%eax, %eax
.Ltmp89:
	.loc	0 83 7                          # ldecod_src/annexb.c:83:7
	jne	.LBB3_29
.Ltmp90:
# %bb.28:                               # %if.then.i228
                                        #   in Loop: Header=BB3_26 Depth=1
	#DEBUG_VALUE: GetAnnexbNALU:p_Vid <- [DW_OP_LLVM_entry_value 1] $rdi
	#DEBUG_VALUE: GetAnnexbNALU:nalu <- [$rsp+0]
	#DEBUG_VALUE: GetAnnexbNALU:annex_b <- $r15
	#DEBUG_VALUE: GetAnnexbNALU:pos <- $r14d
	#DEBUG_VALUE: GetAnnexbNALU:LeadingZero8BitsCount <- $r12d
	#DEBUG_VALUE: GetAnnexbNALU:pBuf <- [DW_OP_plus_uconst 5, DW_OP_stack_value] $r13
	#DEBUG_VALUE: getfbyte:annex_b <- $r15
	#DEBUG_VALUE: getChunk:annex_b <- $r15
	.loc	0 63 43 is_stmt 1               # ldecod_src/annexb.c:63:43
	movl	(%r15), %edi
	.loc	0 63 67 is_stmt 0               # ldecod_src/annexb.c:63:67
	movq	8(%r15), %rsi
	.loc	0 63 86                         # ldecod_src/annexb.c:63:86
	movslq	32(%r15), %rdx
	.loc	0 63 28                         # ldecod_src/annexb.c:63:28
	callq	read@PLT
.Ltmp91:
	#DEBUG_VALUE: getChunk:readbytes <- $eax
	.loc	0 0 28                          # ldecod_src/annexb.c:0:28
	movq	%rbx, %rcx
.Ltmp92:
	.loc	0 64 8 is_stmt 1                # ldecod_src/annexb.c:64:8
	testl	%eax, %eax
.Ltmp93:
	.loc	0 64 7 is_stmt 0                # ldecod_src/annexb.c:64:7
	je	.LBB3_31
.Ltmp94:
.LBB3_29:                               # %if.end3.i221
                                        #   in Loop: Header=BB3_26 Depth=1
	#DEBUG_VALUE: GetAnnexbNALU:p_Vid <- [DW_OP_LLVM_entry_value 1] $rdi
	#DEBUG_VALUE: GetAnnexbNALU:nalu <- [$rsp+0]
	#DEBUG_VALUE: GetAnnexbNALU:annex_b <- $r15
	#DEBUG_VALUE: GetAnnexbNALU:pos <- $r14d
	#DEBUG_VALUE: GetAnnexbNALU:LeadingZero8BitsCount <- $r12d
	#DEBUG_VALUE: GetAnnexbNALU:pBuf <- [DW_OP_plus_uconst 5, DW_OP_stack_value] $r13
	#DEBUG_VALUE: getfbyte:annex_b <- $r15
	.loc	0 0 0                           # ldecod_src/annexb.c:0:0
	movq	(%rcx), %rcx
	.loc	0 88 25 is_stmt 1               # ldecod_src/annexb.c:88:25
	decl	%eax
	movl	%eax, 24(%r15)
	.loc	0 89 33                         # ldecod_src/annexb.c:89:33
	leaq	1(%rcx), %rax
	movq	%rax, 16(%r15)
	.loc	0 89 11 is_stmt 0               # ldecod_src/annexb.c:89:11
	movzbl	(%rcx), %eax
.Ltmp95:
	#DEBUG_VALUE: GetAnnexbNALU:pBuf <- [DW_OP_plus_uconst 6, DW_OP_stack_value] $r13
	.loc	0 242 17 is_stmt 1              # ldecod_src/annexb.c:242:17
	movb	%al, 5(%r13)
.Ltmp96:
	#DEBUG_VALUE: FindStartCode:zeros_in_startcode <- 3
	#DEBUG_VALUE: FindStartCode:i <- 0
	#DEBUG_VALUE: FindStartCode:Buf <- [DW_OP_plus_uconst 1, DW_OP_stack_value] $r13
	.loc	0 114 17                        # ldecod_src/annexb.c:114:17
	cmpb	$0, 2(%r13)
.Ltmp97:
	.loc	0 114 8 is_stmt 0               # ldecod_src/annexb.c:114:8
	movzbl	3(%r13), %ecx
.Ltmp98:
	.loc	0 114 8                         # ldecod_src/annexb.c:114:8
	je	.LBB3_32
.Ltmp99:
.LBB3_30:                               # %if.then86
                                        #   in Loop: Header=BB3_26 Depth=1
	#DEBUG_VALUE: GetAnnexbNALU:p_Vid <- [DW_OP_LLVM_entry_value 1] $rdi
	#DEBUG_VALUE: GetAnnexbNALU:nalu <- [$rsp+0]
	#DEBUG_VALUE: GetAnnexbNALU:annex_b <- $r15
	#DEBUG_VALUE: GetAnnexbNALU:pos <- $r14d
	#DEBUG_VALUE: GetAnnexbNALU:LeadingZero8BitsCount <- $r12d
	#DEBUG_VALUE: GetAnnexbNALU:pBuf <- [DW_OP_plus_uconst 6, DW_OP_stack_value] $r13
	.loc	0 114 17                        # ldecod_src/annexb.c:114:17
	testb	%cl, %cl
.Ltmp100:
	#DEBUG_VALUE: FindStartCode:zeros_in_startcode <- 2
	#DEBUG_VALUE: FindStartCode:i <- 0
	#DEBUG_VALUE: FindStartCode:Buf <- [DW_OP_constu 2, DW_OP_minus, DW_OP_plus_uconst 1, DW_OP_stack_value] $r13
	.loc	0 114 8                         # ldecod_src/annexb.c:114:8
	jne	.LBB3_24
	jmp	.LBB3_36
.Ltmp101:
.LBB3_34:                               # %for.inc.i.1
                                        #   in Loop: Header=BB3_26 Depth=1
	#DEBUG_VALUE: GetAnnexbNALU:p_Vid <- [DW_OP_LLVM_entry_value 1] $rdi
	#DEBUG_VALUE: GetAnnexbNALU:nalu <- [$rsp+0]
	#DEBUG_VALUE: GetAnnexbNALU:annex_b <- $r15
	#DEBUG_VALUE: GetAnnexbNALU:pos <- $r14d
	#DEBUG_VALUE: GetAnnexbNALU:LeadingZero8BitsCount <- $r12d
	#DEBUG_VALUE: GetAnnexbNALU:pBuf <- [DW_OP_plus_uconst 6, DW_OP_stack_value] $r13
	#DEBUG_VALUE: FindStartCode:zeros_in_startcode <- 3
	#DEBUG_VALUE: FindStartCode:i <- 1
	#DEBUG_VALUE: FindStartCode:Buf <- [DW_OP_plus_uconst 1, DW_OP_stack_value] $r13
	#DEBUG_VALUE: FindStartCode:i <- 2
	#DEBUG_VALUE: FindStartCode:Buf <- [DW_OP_plus_uconst 1, DW_OP_stack_value] $r13
	.loc	0 114 17                        # ldecod_src/annexb.c:114:17
	cmpb	$0, 4(%r13)
.Ltmp102:
	#DEBUG_VALUE: FindStartCode:i <- 3
	#DEBUG_VALUE: GetAnnexbNALU:info3 <- undef
	.loc	0 114 8                         # ldecod_src/annexb.c:114:8
	jne	.LBB3_36
.Ltmp103:
# %bb.35:                               # %for.inc.i.1
                                        #   in Loop: Header=BB3_26 Depth=1
	#DEBUG_VALUE: GetAnnexbNALU:p_Vid <- [DW_OP_LLVM_entry_value 1] $rdi
	#DEBUG_VALUE: GetAnnexbNALU:nalu <- [$rsp+0]
	#DEBUG_VALUE: GetAnnexbNALU:annex_b <- $r15
	#DEBUG_VALUE: GetAnnexbNALU:pos <- $r14d
	#DEBUG_VALUE: GetAnnexbNALU:LeadingZero8BitsCount <- $r12d
	#DEBUG_VALUE: GetAnnexbNALU:pBuf <- [DW_OP_plus_uconst 6, DW_OP_stack_value] $r13
	#DEBUG_VALUE: FindStartCode:zeros_in_startcode <- 3
	#DEBUG_VALUE: FindStartCode:i <- 3
	#DEBUG_VALUE: FindStartCode:Buf <- [DW_OP_plus_uconst 1, DW_OP_stack_value] $r13
	cmpb	$1, %al
	je	.LBB3_48
.Ltmp104:
	.p2align	4, 0x90
.LBB3_36:                               # %for.inc.i246
                                        #   in Loop: Header=BB3_26 Depth=1
	#DEBUG_VALUE: GetAnnexbNALU:p_Vid <- [DW_OP_LLVM_entry_value 1] $rdi
	#DEBUG_VALUE: GetAnnexbNALU:nalu <- [$rsp+0]
	#DEBUG_VALUE: GetAnnexbNALU:annex_b <- $r15
	#DEBUG_VALUE: GetAnnexbNALU:pos <- $r14d
	#DEBUG_VALUE: GetAnnexbNALU:LeadingZero8BitsCount <- $r12d
	#DEBUG_VALUE: GetAnnexbNALU:pBuf <- [DW_OP_plus_uconst 6, DW_OP_stack_value] $r13
	#DEBUG_VALUE: FindStartCode:i <- 1
	#DEBUG_VALUE: FindStartCode:Buf <- [DW_OP_plus_uconst 1, DW_OP_stack_value] $r13
	.loc	0 114 17                        # ldecod_src/annexb.c:114:17
	cmpb	$0, 4(%r13)
.Ltmp105:
	.loc	0 114 8                         # ldecod_src/annexb.c:114:8
	jne	.LBB3_24
.Ltmp106:
# %bb.38:                               # %for.inc.i246.1
                                        #   in Loop: Header=BB3_26 Depth=1
	#DEBUG_VALUE: GetAnnexbNALU:p_Vid <- [DW_OP_LLVM_entry_value 1] $rdi
	#DEBUG_VALUE: GetAnnexbNALU:nalu <- [$rsp+0]
	#DEBUG_VALUE: GetAnnexbNALU:annex_b <- $r15
	#DEBUG_VALUE: GetAnnexbNALU:pos <- $r14d
	#DEBUG_VALUE: GetAnnexbNALU:LeadingZero8BitsCount <- $r12d
	#DEBUG_VALUE: GetAnnexbNALU:pBuf <- [DW_OP_plus_uconst 6, DW_OP_stack_value] $r13
	#DEBUG_VALUE: FindStartCode:i <- 1
	#DEBUG_VALUE: FindStartCode:Buf <- [DW_OP_plus_uconst 1, DW_OP_stack_value] $r13
	#DEBUG_VALUE: FindStartCode:Buf <- [DW_OP_plus_uconst 1, DW_OP_stack_value] $r13
	#DEBUG_VALUE: FindStartCode:i <- 2
	.loc	0 120 11 is_stmt 1              # ldecod_src/annexb.c:120:11
	xorl	%ecx, %ecx
	cmpb	$1, %al
	sete	%cl
.Ltmp107:
	#DEBUG_VALUE: GetAnnexbNALU:pBuf <- [DW_OP_plus_uconst 6, DW_OP_stack_value] $r13
	#DEBUG_VALUE: GetAnnexbNALU:StartCodeFound <- $ecx
	#DEBUG_VALUE: GetAnnexbNALU:info3 <- undef
	#DEBUG_VALUE: GetAnnexbNALU:info2 <- $ecx
	.loc	0 215 3                         # ldecod_src/annexb.c:215:3
	incq	%r13
.Ltmp108:
	.loc	0 241 8                         # ldecod_src/annexb.c:241:8
	leal	1(%r14), %eax
.Ltmp109:
	#DEBUG_VALUE: GetAnnexbNALU:pos <- undef
	.loc	0 215 10                        # ldecod_src/annexb.c:215:10
	testl	%ecx, %ecx
	je	.LBB3_26
	jmp	.LBB3_41
.Ltmp110:
.LBB3_31:                               # %getChunk.exit.thread.i235
                                        #   in Loop: Header=BB3_26 Depth=1
	#DEBUG_VALUE: GetAnnexbNALU:p_Vid <- [DW_OP_LLVM_entry_value 1] $rdi
	#DEBUG_VALUE: GetAnnexbNALU:nalu <- [$rsp+0]
	#DEBUG_VALUE: GetAnnexbNALU:annex_b <- $r15
	#DEBUG_VALUE: GetAnnexbNALU:pos <- $r14d
	#DEBUG_VALUE: GetAnnexbNALU:LeadingZero8BitsCount <- $r12d
	#DEBUG_VALUE: GetAnnexbNALU:pBuf <- [DW_OP_plus_uconst 5, DW_OP_stack_value] $r13
	#DEBUG_VALUE: getfbyte:annex_b <- $r15
	#DEBUG_VALUE: getChunk:annex_b <- $r15
	#DEBUG_VALUE: getChunk:readbytes <- $eax
	.loc	0 66 21                         # ldecod_src/annexb.c:66:21
	movl	$1, 28(%r15)
	xorl	%eax, %eax
.Ltmp111:
	#DEBUG_VALUE: GetAnnexbNALU:pBuf <- [DW_OP_plus_uconst 6, DW_OP_stack_value] $r13
	.loc	0 242 17                        # ldecod_src/annexb.c:242:17
	movb	%al, 5(%r13)
.Ltmp112:
	#DEBUG_VALUE: FindStartCode:zeros_in_startcode <- 3
	#DEBUG_VALUE: FindStartCode:i <- 0
	#DEBUG_VALUE: FindStartCode:Buf <- [DW_OP_plus_uconst 1, DW_OP_stack_value] $r13
	.loc	0 114 17                        # ldecod_src/annexb.c:114:17
	cmpb	$0, 2(%r13)
.Ltmp113:
	.loc	0 114 8 is_stmt 0               # ldecod_src/annexb.c:114:8
	movzbl	3(%r13), %ecx
.Ltmp114:
	.loc	0 114 8                         # ldecod_src/annexb.c:114:8
	jne	.LBB3_30
	jmp	.LBB3_32
.Ltmp115:
.LBB3_39:                               # %if.then52
	#DEBUG_VALUE: GetAnnexbNALU:p_Vid <- [DW_OP_LLVM_entry_value 1] $rdi
	#DEBUG_VALUE: GetAnnexbNALU:nalu <- [$rsp+0]
	#DEBUG_VALUE: GetAnnexbNALU:annex_b <- $r15
	#DEBUG_VALUE: GetAnnexbNALU:pos <- $r14d
	#DEBUG_VALUE: GetAnnexbNALU:LeadingZero8BitsCount <- $r12d
	#DEBUG_VALUE: GetAnnexbNALU:pBuf <- [DW_OP_plus_uconst 5, DW_OP_stack_value] $r13
	#DEBUG_VALUE: GetAnnexbNALU:pos <- $r14d
	#DEBUG_VALUE: GetAnnexbNALU:pBuf <- undef
	.loc	0 220 22 is_stmt 1              # ldecod_src/annexb.c:220:22
	cmpb	$0, 3(%r13)
	.loc	0 220 7 is_stmt 0               # ldecod_src/annexb.c:220:7
	je	.LBB3_44
.Ltmp116:
# %bb.40:
	#DEBUG_VALUE: GetAnnexbNALU:p_Vid <- [DW_OP_LLVM_entry_value 1] $rdi
	#DEBUG_VALUE: GetAnnexbNALU:nalu <- [$rsp+0]
	#DEBUG_VALUE: GetAnnexbNALU:annex_b <- $r15
	#DEBUG_VALUE: GetAnnexbNALU:pos <- $r14d
	#DEBUG_VALUE: GetAnnexbNALU:LeadingZero8BitsCount <- $r12d
	.loc	0 0 7                           # ldecod_src/annexb.c:0:7
	movq	(%rsp), %rbx                    # 8-byte Reload
	.loc	0 220 7                         # ldecod_src/annexb.c:220:7
	jmp	.LBB3_46
.Ltmp117:
.LBB3_41:                               # %if.end114.loopexit1
	#DEBUG_VALUE: GetAnnexbNALU:p_Vid <- [DW_OP_LLVM_entry_value 1] $rdi
	#DEBUG_VALUE: GetAnnexbNALU:nalu <- [$rsp+0]
	#DEBUG_VALUE: GetAnnexbNALU:annex_b <- $r15
	#DEBUG_VALUE: GetAnnexbNALU:info2 <- $ecx
	#DEBUG_VALUE: GetAnnexbNALU:StartCodeFound <- $ecx
	#DEBUG_VALUE: GetAnnexbNALU:LeadingZero8BitsCount <- $r12d
	.loc	0 0 0                           # ldecod_src/annexb.c:0:0
	incl	%r14d
	movl	$3, %eax
.Ltmp118:
.LBB3_42:                               # %if.end114
	#DEBUG_VALUE: GetAnnexbNALU:p_Vid <- [DW_OP_LLVM_entry_value 1] $rdi
	#DEBUG_VALUE: GetAnnexbNALU:nalu <- [$rsp+0]
	#DEBUG_VALUE: GetAnnexbNALU:annex_b <- $r15
	#DEBUG_VALUE: GetAnnexbNALU:LeadingZero8BitsCount <- $r12d
	movq	(%rsp), %rbx                    # 8-byte Reload
.Ltmp119:
.LBB3_43:                               # %if.end114
	#DEBUG_VALUE: GetAnnexbNALU:p_Vid <- [DW_OP_LLVM_entry_value 1] $rdi
	#DEBUG_VALUE: GetAnnexbNALU:nalu <- [$rsp+0]
	#DEBUG_VALUE: GetAnnexbNALU:annex_b <- $r15
	#DEBUG_VALUE: GetAnnexbNALU:LeadingZero8BitsCount <- $r12d
	movl	%eax, 40(%r15)
.Ltmp120:
	#DEBUG_VALUE: GetAnnexbNALU:pos <- $r14d
	.loc	0 270 7 is_stmt 1               # ldecod_src/annexb.c:270:7
	subl	%eax, %r14d
.Ltmp121:
	#DEBUG_VALUE: GetAnnexbNALU:pos <- $r14d
	.loc	0 278 19                        # ldecod_src/annexb.c:278:19
	movl	%r14d, %eax
	subl	%r12d, %eax
	.loc	0 278 13 is_stmt 0              # ldecod_src/annexb.c:278:13
	movl	%eax, 4(%rbx)
	.loc	0 279 22 is_stmt 1              # ldecod_src/annexb.c:279:22
	movq	24(%rbx), %rdi
	.loc	0 279 40 is_stmt 0              # ldecod_src/annexb.c:279:40
	movl	%r12d, %esi
	addq	48(%r15), %rsi
.Ltmp122:
	#DEBUG_VALUE: fast_memcpy:src <- $rsi
	#DEBUG_VALUE: fast_memcpy:width <- $eax
	#DEBUG_VALUE: fast_memcpy:dst <- $rdi
	.file	10 "ldecod_src/inc" "fast_memory.h" md5 0x49b3114f30776e7555e4b756c6802326
	.loc	10 28 18 is_stmt 1              # ldecod_src/inc/fast_memory.h:28:18
	movslq	%eax, %rdx
	.loc	10 28 3 is_stmt 0               # ldecod_src/inc/fast_memory.h:28:3
	callq	memcpy@PLT
.Ltmp123:
	.loc	0 280 38 is_stmt 1              # ldecod_src/annexb.c:280:38
	movq	24(%rbx), %rax
	.loc	0 280 30 is_stmt 0              # ldecod_src/annexb.c:280:30
	movzbl	(%rax), %ecx
	.loc	0 280 43                        # ldecod_src/annexb.c:280:43
	shrl	$7, %ecx
	.loc	0 280 27                        # ldecod_src/annexb.c:280:27
	movl	%ecx, 12(%rbx)
	movzbl	(%rax), %ecx
	.loc	0 281 56 is_stmt 1              # ldecod_src/annexb.c:281:56
	shrl	$5, %ecx
	.loc	0 281 62 is_stmt 0              # ldecod_src/annexb.c:281:62
	andl	$3, %ecx
	.loc	0 281 27                        # ldecod_src/annexb.c:281:27
	movl	%ecx, 20(%rbx)
	movzbl	(%rax), %eax
	.loc	0 282 56 is_stmt 1              # ldecod_src/annexb.c:282:56
	andl	$31, %eax
	.loc	0 282 27 is_stmt 0              # ldecod_src/annexb.c:282:27
	movl	%eax, 16(%rbx)
	.loc	0 283 22 is_stmt 1              # ldecod_src/annexb.c:283:22
	movw	$0, 32(%rbx)
	jmp	.LBB3_47
.Ltmp124:
.LBB3_44:                               # %while.body59.preheader
	#DEBUG_VALUE: GetAnnexbNALU:p_Vid <- [DW_OP_LLVM_entry_value 1] $rdi
	#DEBUG_VALUE: GetAnnexbNALU:nalu <- [$rsp+0]
	#DEBUG_VALUE: GetAnnexbNALU:annex_b <- $r15
	#DEBUG_VALUE: GetAnnexbNALU:pos <- $r14d
	#DEBUG_VALUE: GetAnnexbNALU:LeadingZero8BitsCount <- $r12d
	.loc	0 0 22 is_stmt 0                # ldecod_src/annexb.c:0:22
	addq	$2, %r13
	movq	(%rsp), %rbx                    # 8-byte Reload
.Ltmp125:
	.p2align	4, 0x90
.LBB3_45:                               # %while.body59
                                        # =>This Inner Loop Header: Depth=1
	#DEBUG_VALUE: GetAnnexbNALU:p_Vid <- [DW_OP_LLVM_entry_value 1] $rdi
	#DEBUG_VALUE: GetAnnexbNALU:nalu <- [$rsp+0]
	#DEBUG_VALUE: GetAnnexbNALU:annex_b <- $r15
	#DEBUG_VALUE: GetAnnexbNALU:pos <- $r14d
	#DEBUG_VALUE: GetAnnexbNALU:LeadingZero8BitsCount <- $r12d
	#DEBUG_VALUE: GetAnnexbNALU:pos <- $r14d
	#DEBUG_VALUE: GetAnnexbNALU:pBuf <- undef
	.loc	0 221 12 is_stmt 1              # ldecod_src/annexb.c:221:12
	decl	%r14d
.Ltmp126:
	#DEBUG_VALUE: GetAnnexbNALU:pos <- $r14d
	.loc	0 220 22                        # ldecod_src/annexb.c:220:22
	cmpb	$0, (%r13)
	.loc	0 220 7 is_stmt 0               # ldecod_src/annexb.c:220:7
	leaq	-1(%r13), %r13
	je	.LBB3_45
.Ltmp127:
.LBB3_46:                               # %while.end60
	#DEBUG_VALUE: GetAnnexbNALU:p_Vid <- [DW_OP_LLVM_entry_value 1] $rdi
	#DEBUG_VALUE: GetAnnexbNALU:nalu <- [$rsp+0]
	#DEBUG_VALUE: GetAnnexbNALU:annex_b <- $r15
	#DEBUG_VALUE: GetAnnexbNALU:pos <- $r14d
	#DEBUG_VALUE: GetAnnexbNALU:LeadingZero8BitsCount <- $r12d
	.loc	0 223 24 is_stmt 1              # ldecod_src/annexb.c:223:24
	decl	%r14d
.Ltmp128:
	.loc	0 223 29 is_stmt 0              # ldecod_src/annexb.c:223:29
	movl	%r14d, %edx
	subl	%r12d, %edx
	.loc	0 223 17                        # ldecod_src/annexb.c:223:17
	movl	%edx, 4(%rbx)
	.loc	0 224 21 is_stmt 1              # ldecod_src/annexb.c:224:21
	movq	24(%rbx), %rdi
	.loc	0 224 39 is_stmt 0              # ldecod_src/annexb.c:224:39
	movl	%r12d, %esi
	addq	48(%r15), %rsi
	.loc	0 224 7                         # ldecod_src/annexb.c:224:7
	callq	memcpy@PLT
.Ltmp129:
	.loc	0 225 42 is_stmt 1              # ldecod_src/annexb.c:225:42
	movq	24(%rbx), %rax
	.loc	0 225 34 is_stmt 0              # ldecod_src/annexb.c:225:34
	movzbl	(%rax), %ecx
	.loc	0 225 47                        # ldecod_src/annexb.c:225:47
	shrl	$7, %ecx
	.loc	0 225 31                        # ldecod_src/annexb.c:225:31
	movl	%ecx, 12(%rbx)
	movzbl	(%rax), %ecx
	.loc	0 226 60 is_stmt 1              # ldecod_src/annexb.c:226:60
	shrl	$5, %ecx
	.loc	0 226 66 is_stmt 0              # ldecod_src/annexb.c:226:66
	andl	$3, %ecx
	.loc	0 226 31                        # ldecod_src/annexb.c:226:31
	movl	%ecx, 20(%rbx)
	movzbl	(%rax), %eax
	.loc	0 227 60 is_stmt 1              # ldecod_src/annexb.c:227:60
	andl	$31, %eax
	.loc	0 227 31 is_stmt 0              # ldecod_src/annexb.c:227:31
	movl	%eax, 16(%rbx)
	.loc	0 228 35 is_stmt 1              # ldecod_src/annexb.c:228:35
	movl	$0, 40(%r15)
.Ltmp130:
.LBB3_47:                               # %cleanup
	#DEBUG_VALUE: GetAnnexbNALU:p_Vid <- [DW_OP_LLVM_entry_value 1] $rdi
	#DEBUG_VALUE: GetAnnexbNALU:nalu <- [DW_OP_LLVM_entry_value 1] $rsi
	#DEBUG_VALUE: GetAnnexbNALU:annex_b <- $r15
	.loc	0 295 1                         # ldecod_src/annexb.c:295:1
	movl	%r14d, %eax
	.loc	0 295 1 epilogue_begin is_stmt 0 # ldecod_src/annexb.c:295:1
	addq	$8, %rsp
	.cfi_def_cfa_offset 56
	popq	%rbx
	.cfi_def_cfa_offset 48
	popq	%r12
	.cfi_def_cfa_offset 40
	popq	%r13
	.cfi_def_cfa_offset 32
	popq	%r14
	.cfi_def_cfa_offset 24
	popq	%r15
.Ltmp131:
	.cfi_def_cfa_offset 16
	popq	%rbp
	.cfi_def_cfa_offset 8
	retq
.Ltmp132:
.LBB3_48:                               # %if.then95
	.cfi_def_cfa_offset 64
	#DEBUG_VALUE: GetAnnexbNALU:p_Vid <- [DW_OP_LLVM_entry_value 1] $rdi
	#DEBUG_VALUE: GetAnnexbNALU:nalu <- [$rsp+0]
	#DEBUG_VALUE: GetAnnexbNALU:annex_b <- $r15
	#DEBUG_VALUE: GetAnnexbNALU:pos <- $r14d
	#DEBUG_VALUE: GetAnnexbNALU:LeadingZero8BitsCount <- $r12d
	#DEBUG_VALUE: GetAnnexbNALU:pBuf <- [DW_OP_plus_uconst 6, DW_OP_stack_value] $r13
	#DEBUG_VALUE: GetAnnexbNALU:StartCodeFound <- 1
	#DEBUG_VALUE: GetAnnexbNALU:info3 <- undef
	#DEBUG_VALUE: GetAnnexbNALU:info2 <- undef
	#DEBUG_VALUE: GetAnnexbNALU:pBuf <- undef
	.loc	0 258 5 is_stmt 1               # ldecod_src/annexb.c:258:5
	incl	%r14d
.Ltmp133:
	.loc	0 258 21 is_stmt 0              # ldecod_src/annexb.c:258:21
	cmpb	$0, 1(%r13)
	movl	$4, %eax
	.loc	0 258 5                         # ldecod_src/annexb.c:258:5
	jne	.LBB3_42
.Ltmp134:
# %bb.49:                               # %while.body102.preheader
	#DEBUG_VALUE: GetAnnexbNALU:p_Vid <- [DW_OP_LLVM_entry_value 1] $rdi
	#DEBUG_VALUE: GetAnnexbNALU:nalu <- [$rsp+0]
	#DEBUG_VALUE: GetAnnexbNALU:annex_b <- $r15
	#DEBUG_VALUE: GetAnnexbNALU:StartCodeFound <- 1
	#DEBUG_VALUE: GetAnnexbNALU:LeadingZero8BitsCount <- $r12d
	.loc	0 0 5                           # ldecod_src/annexb.c:0:5
	movq	(%rsp), %rbx                    # 8-byte Reload
.Ltmp135:
.LBB3_50:                               # %while.body102
                                        # =>This Inner Loop Header: Depth=1
	#DEBUG_VALUE: GetAnnexbNALU:p_Vid <- [DW_OP_LLVM_entry_value 1] $rdi
	#DEBUG_VALUE: GetAnnexbNALU:nalu <- [$rsp+0]
	#DEBUG_VALUE: GetAnnexbNALU:annex_b <- $r15
	#DEBUG_VALUE: GetAnnexbNALU:StartCodeFound <- 1
	#DEBUG_VALUE: GetAnnexbNALU:LeadingZero8BitsCount <- $r12d
	#DEBUG_VALUE: GetAnnexbNALU:pos <- $r14d
	#DEBUG_VALUE: GetAnnexbNALU:pBuf <- undef
	.loc	0 259 10 is_stmt 1              # ldecod_src/annexb.c:259:10
	decl	%r14d
.Ltmp136:
	#DEBUG_VALUE: GetAnnexbNALU:pos <- $r14d
	.loc	0 258 21                        # ldecod_src/annexb.c:258:21
	cmpb	$0, (%r13)
	.loc	0 258 5 is_stmt 0               # ldecod_src/annexb.c:258:5
	leaq	-1(%r13), %r13
	je	.LBB3_50
	jmp	.LBB3_43
.Ltmp137:
.Lfunc_end3:
	.size	GetAnnexbNALU, .Lfunc_end3-GetAnnexbNALU
	.cfi_endproc
	.file	11 "/usr/include" "unistd.h" md5 0xed37c2e6f30ba31a8b41e4d70547c39c
	.file	12 "/usr/include/x86_64-linux-gnu/bits" "types.h" md5 0xd108b5f93a74c50510d7d9bc0ab36df9
                                        # -- End function
	.globl	OpenAnnexBFile                  # -- Begin function OpenAnnexBFile
	.p2align	4, 0x90
	.type	OpenAnnexBFile,@function
OpenAnnexBFile:                         # @OpenAnnexBFile
.Lfunc_begin4:
	.loc	0 308 0 is_stmt 1               # ldecod_src/annexb.c:308:0
	.cfi_startproc
# %bb.0:                                # %entry
	#DEBUG_VALUE: OpenAnnexBFile:p_Vid <- $rdi
	#DEBUG_VALUE: OpenAnnexBFile:fn <- $rsi
	pushq	%r15
	.cfi_def_cfa_offset 16
	pushq	%r14
	.cfi_def_cfa_offset 24
	pushq	%rbx
	.cfi_def_cfa_offset 32
	.cfi_offset %rbx, -32
	.cfi_offset %r14, -24
	.cfi_offset %r15, -16
	movq	%rsi, %rbx
.Ltmp138:
	.loc	0 309 30 prologue_end           # ldecod_src/annexb.c:309:30
	movq	856608(%rdi), %r15
.Ltmp139:
	#DEBUG_VALUE: OpenAnnexBFile:annex_b <- $r15
	.loc	0 310 12                        # ldecod_src/annexb.c:310:12
	cmpq	$0, 8(%r15)
.Ltmp140:
	.loc	0 310 7 is_stmt 0               # ldecod_src/annexb.c:310:7
	je	.LBB4_2
.Ltmp141:
# %bb.1:                                # %if.then
	#DEBUG_VALUE: OpenAnnexBFile:p_Vid <- $rdi
	#DEBUG_VALUE: OpenAnnexBFile:fn <- $rbx
	#DEBUG_VALUE: OpenAnnexBFile:annex_b <- $r15
	.loc	0 312 5 is_stmt 1               # ldecod_src/annexb.c:312:5
	movl	$.L.str.6, %edi
.Ltmp142:
	#DEBUG_VALUE: OpenAnnexBFile:p_Vid <- [DW_OP_LLVM_entry_value 1] $rdi
	movl	$500, %esi                      # imm = 0x1F4
	callq	error@PLT
.Ltmp143:
.LBB4_2:                                # %if.end
	#DEBUG_VALUE: OpenAnnexBFile:p_Vid <- [DW_OP_LLVM_entry_value 1] $rdi
	#DEBUG_VALUE: OpenAnnexBFile:fn <- $rbx
	#DEBUG_VALUE: OpenAnnexBFile:annex_b <- $r15
	.loc	0 314 33                        # ldecod_src/annexb.c:314:33
	movq	%rbx, %rdi
	xorl	%esi, %esi
	xorl	%eax, %eax
	callq	open@PLT
.Ltmp144:
	.loc	0 314 31 is_stmt 0              # ldecod_src/annexb.c:314:31
	movl	%eax, (%r15)
	.loc	0 314 59                        # ldecod_src/annexb.c:314:59
	cmpl	$-1, %eax
.Ltmp145:
	.loc	0 314 7                         # ldecod_src/annexb.c:314:7
	jne	.LBB4_4
.Ltmp146:
# %bb.3:                                # %if.then3
	#DEBUG_VALUE: OpenAnnexBFile:p_Vid <- [DW_OP_LLVM_entry_value 1] $rdi
	#DEBUG_VALUE: OpenAnnexBFile:fn <- $rbx
	#DEBUG_VALUE: OpenAnnexBFile:annex_b <- $r15
	.loc	0 316 5 is_stmt 1               # ldecod_src/annexb.c:316:5
	movq	errortext@GOTPCREL(%rip), %r14
	movl	$300, %esi                      # imm = 0x12C
	movl	$.L.str.7, %edx
	movq	%r14, %rdi
	movq	%rbx, %rcx
	xorl	%eax, %eax
	callq	snprintf@PLT
.Ltmp147:
	.loc	0 317 5                         # ldecod_src/annexb.c:317:5
	movq	%r14, %rdi
	movl	$500, %esi                      # imm = 0x1F4
	callq	error@PLT
.Ltmp148:
.LBB4_4:                                # %if.end5
	#DEBUG_VALUE: OpenAnnexBFile:p_Vid <- [DW_OP_LLVM_entry_value 1] $rdi
	#DEBUG_VALUE: OpenAnnexBFile:fn <- $rbx
	#DEBUG_VALUE: OpenAnnexBFile:annex_b <- $r15
	.loc	0 320 26                        # ldecod_src/annexb.c:320:26
	movl	$524288, 32(%r15)               # imm = 0x80000
	movl	$524288, %ebx                   # imm = 0x80000
.Ltmp149:
	#DEBUG_VALUE: OpenAnnexBFile:fn <- [DW_OP_LLVM_entry_value 1] $rsi
	.loc	0 321 23                        # ldecod_src/annexb.c:321:23
	movl	$524288, %edi                   # imm = 0x80000
	callq	malloc@PLT
.Ltmp150:
	.loc	0 321 21 is_stmt 0              # ldecod_src/annexb.c:321:21
	movq	%rax, 8(%r15)
.Ltmp151:
	.loc	0 322 12 is_stmt 1              # ldecod_src/annexb.c:322:12
	testq	%rax, %rax
.Ltmp152:
	.loc	0 322 7 is_stmt 0               # ldecod_src/annexb.c:322:7
	jne	.LBB4_6
.Ltmp153:
# %bb.5:                                # %if.then12
	#DEBUG_VALUE: OpenAnnexBFile:p_Vid <- [DW_OP_LLVM_entry_value 1] $rdi
	#DEBUG_VALUE: OpenAnnexBFile:fn <- [DW_OP_LLVM_entry_value 1] $rsi
	#DEBUG_VALUE: OpenAnnexBFile:annex_b <- $r15
	.loc	0 324 5 is_stmt 1               # ldecod_src/annexb.c:324:5
	movl	$.L.str.8, %edi
	movl	$500, %esi                      # imm = 0x1F4
	callq	error@PLT
.Ltmp154:
	.loc	0 63 67                         # ldecod_src/annexb.c:63:67
	movq	8(%r15), %rax
	.loc	0 63 86 is_stmt 0               # ldecod_src/annexb.c:63:86
	movslq	32(%r15), %rbx
.Ltmp155:
.LBB4_6:                                # %if.end13
	#DEBUG_VALUE: OpenAnnexBFile:p_Vid <- [DW_OP_LLVM_entry_value 1] $rdi
	#DEBUG_VALUE: OpenAnnexBFile:fn <- [DW_OP_LLVM_entry_value 1] $rsi
	#DEBUG_VALUE: OpenAnnexBFile:annex_b <- $r15
	.loc	0 326 19 is_stmt 1              # ldecod_src/annexb.c:326:19
	movl	$0, 28(%r15)
.Ltmp156:
	#DEBUG_VALUE: getChunk:annex_b <- $r15
	.loc	0 63 43                         # ldecod_src/annexb.c:63:43
	movl	(%r15), %edi
	.loc	0 63 28 is_stmt 0               # ldecod_src/annexb.c:63:28
	movq	%rax, %rsi
	movq	%rbx, %rdx
	callq	read@PLT
.Ltmp157:
	#DEBUG_VALUE: getChunk:readbytes <- $eax
	.loc	0 64 8 is_stmt 1                # ldecod_src/annexb.c:64:8
	testl	%eax, %eax
.Ltmp158:
	.loc	0 64 7 is_stmt 0                # ldecod_src/annexb.c:64:7
	je	.LBB4_7
.Ltmp159:
# %bb.8:                                # %if.end.i
	#DEBUG_VALUE: OpenAnnexBFile:p_Vid <- [DW_OP_LLVM_entry_value 1] $rdi
	#DEBUG_VALUE: OpenAnnexBFile:fn <- [DW_OP_LLVM_entry_value 1] $rsi
	#DEBUG_VALUE: OpenAnnexBFile:annex_b <- $r15
	#DEBUG_VALUE: getChunk:annex_b <- $r15
	#DEBUG_VALUE: getChunk:readbytes <- $eax
	.loc	0 70 26 is_stmt 1               # ldecod_src/annexb.c:70:26
	movl	%eax, 24(%r15)
	.loc	0 71 36                         # ldecod_src/annexb.c:71:36
	movq	8(%r15), %rax
.Ltmp160:
	.loc	0 71 25 is_stmt 0               # ldecod_src/annexb.c:71:25
	movq	%rax, 16(%r15)
.Ltmp161:
	.loc	0 328 1 epilogue_begin is_stmt 1 # ldecod_src/annexb.c:328:1
	popq	%rbx
	.cfi_def_cfa_offset 24
	popq	%r14
	.cfi_def_cfa_offset 16
	popq	%r15
.Ltmp162:
	.cfi_def_cfa_offset 8
	retq
.Ltmp163:
.LBB4_7:                                # %if.then.i
	.cfi_def_cfa_offset 32
	#DEBUG_VALUE: OpenAnnexBFile:p_Vid <- [DW_OP_LLVM_entry_value 1] $rdi
	#DEBUG_VALUE: OpenAnnexBFile:fn <- [DW_OP_LLVM_entry_value 1] $rsi
	#DEBUG_VALUE: OpenAnnexBFile:annex_b <- $r15
	#DEBUG_VALUE: getChunk:annex_b <- $r15
	#DEBUG_VALUE: getChunk:readbytes <- $eax
	.loc	0 66 21                         # ldecod_src/annexb.c:66:21
	movl	$1, 28(%r15)
.Ltmp164:
	.loc	0 328 1 epilogue_begin          # ldecod_src/annexb.c:328:1
	popq	%rbx
	.cfi_def_cfa_offset 24
	popq	%r14
	.cfi_def_cfa_offset 16
	popq	%r15
.Ltmp165:
	.cfi_def_cfa_offset 8
	retq
.Ltmp166:
.Lfunc_end4:
	.size	OpenAnnexBFile, .Lfunc_end4-OpenAnnexBFile
	.cfi_endproc
	.file	13 "/usr/include" "fcntl.h" md5 0x1a9bb91818c37dc7bc291ca6e49fc221
	.file	14 "/usr/include" "stdio.h" md5 0xf31eefcc3f15835fc5a4023a625cf609
                                        # -- End function
	.globl	CloseAnnexBFile                 # -- Begin function CloseAnnexBFile
	.p2align	4, 0x90
	.type	CloseAnnexBFile,@function
CloseAnnexBFile:                        # @CloseAnnexBFile
.Lfunc_begin5:
	.loc	0 338 0                         # ldecod_src/annexb.c:338:0
	.cfi_startproc
# %bb.0:                                # %entry
	#DEBUG_VALUE: CloseAnnexBFile:p_Vid <- $rdi
	pushq	%rbx
	.cfi_def_cfa_offset 16
	.cfi_offset %rbx, -16
	.loc	0 339 30 prologue_end           # ldecod_src/annexb.c:339:30
	movq	856608(%rdi), %rbx
.Ltmp167:
	#DEBUG_VALUE: CloseAnnexBFile:annex_b <- $rbx
	.loc	0 340 16                        # ldecod_src/annexb.c:340:16
	movl	(%rbx), %edi
.Ltmp168:
	#DEBUG_VALUE: CloseAnnexBFile:p_Vid <- [DW_OP_LLVM_entry_value 1] $rdi
	.loc	0 340 30 is_stmt 0              # ldecod_src/annexb.c:340:30
	cmpl	$-1, %edi
.Ltmp169:
	.loc	0 340 7                         # ldecod_src/annexb.c:340:7
	je	.LBB5_2
.Ltmp170:
# %bb.1:                                # %if.then
	#DEBUG_VALUE: CloseAnnexBFile:p_Vid <- [DW_OP_LLVM_entry_value 1] $rdi
	#DEBUG_VALUE: CloseAnnexBFile:annex_b <- $rbx
	.loc	0 342 5 is_stmt 1               # ldecod_src/annexb.c:342:5
	callq	close@PLT
.Ltmp171:
	.loc	0 343 28                        # ldecod_src/annexb.c:343:28
	movl	$-1, (%rbx)
.Ltmp172:
.LBB5_2:                                # %if.end
	#DEBUG_VALUE: CloseAnnexBFile:p_Vid <- [DW_OP_LLVM_entry_value 1] $rdi
	#DEBUG_VALUE: CloseAnnexBFile:annex_b <- $rbx
	.loc	0 345 18                        # ldecod_src/annexb.c:345:18
	movq	8(%rbx), %rdi
	.loc	0 345 3 is_stmt 0               # ldecod_src/annexb.c:345:3
	callq	free@PLT
.Ltmp173:
	.loc	0 346 21 is_stmt 1              # ldecod_src/annexb.c:346:21
	movq	$0, 8(%rbx)
	.loc	0 347 1 epilogue_begin          # ldecod_src/annexb.c:347:1
	popq	%rbx
.Ltmp174:
	.cfi_def_cfa_offset 8
	retq
.Ltmp175:
.Lfunc_end5:
	.size	CloseAnnexBFile, .Lfunc_end5-CloseAnnexBFile
	.cfi_endproc
                                        # -- End function
	.globl	ResetAnnexB                     # -- Begin function ResetAnnexB
	.p2align	4, 0x90
	.type	ResetAnnexB,@function
ResetAnnexB:                            # @ResetAnnexB
.Lfunc_begin6:
	.cfi_startproc
# %bb.0:                                # %entry
	#DEBUG_VALUE: ResetAnnexB:annex_b <- $rdi
	.loc	0 353 26 prologue_end           # ldecod_src/annexb.c:353:26
	movq	$0, 24(%rdi)
	.loc	0 354 36                        # ldecod_src/annexb.c:354:36
	movq	8(%rdi), %rax
	.loc	0 354 25 is_stmt 0              # ldecod_src/annexb.c:354:25
	movq	%rax, 16(%rdi)
	.loc	0 355 1 is_stmt 1               # ldecod_src/annexb.c:355:1
	retq
.Ltmp176:
.Lfunc_end6:
	.size	ResetAnnexB, .Lfunc_end6-ResetAnnexB
	.cfi_endproc
                                        # -- End function
	.type	.L.str,@object                  # @.str
	.section	.rodata.str1.1,"aMS",@progbits,1
.L.str:
	.asciz	"Memory allocation for Annex_B file failed"
	.size	.L.str, 42

	.type	.L.str.1,@object                # @.str.1
.L.str.1:
	.asciz	"GetAnnexbNALU: Buf"
	.size	.L.str.1, 19

	.type	.L.str.6,@object                # @.str.6
.L.str.6:
	.asciz	"OpenAnnexBFile: tried to open Annex B file twice"
	.size	.L.str.6, 49

	.type	.L.str.7,@object                # @.str.7
.L.str.7:
	.asciz	"Cannot open Annex B ByteStream file '%s'"
	.size	.L.str.7, 41

	.type	.L.str.8,@object                # @.str.8
.L.str.8:
	.asciz	"OpenAnnexBFile: cannot allocate IO buffer"
	.size	.L.str.8, 42

	.type	.Lstr.9,@object                 # @str.9
.Lstr.9:
	.asciz	"GetAnnexbNALU: The leading_zero_8bits syntax can only be present in the first byte stream NAL unit, return -1"
	.size	.Lstr.9, 110

	.type	.Lstr.10,@object                # @str.10
.Lstr.10:
	.asciz	"GetAnnexbNALU: no Start Code at the beginning of the NALU, return -1"
	.size	.Lstr.10, 69

	.type	.Lstr.11,@object                # @str.11
.Lstr.11:
	.asciz	"GetAnnexbNALU can't read start code"
	.size	.Lstr.11, 36

	.file	15 "ldecod_src/inc" "parsetcommon.h" md5 0xd59d7e00f3aec3a23ed88314ae35b687
	.file	16 "ldecod_src/inc" "mbuffer.h" md5 0x1ba7faf5f978b0f36a8f480bbf7b3401
	.file	17 "/usr/include/x86_64-linux-gnu/bits" "stdint-intn.h" md5 0x55bcbdc3159515ebd91d351a70d505f4
	.file	18 "ldecod_src/inc" "win32.h" md5 0x100def0ffeee72ecdc377183538a04bb
	.file	19 "ldecod_src/inc" "io_image.h" md5 0x8caef624e6f5391b0c6ab2984e7f77c6
	.section	".note.GNU-stack","",@progbits