	.text
	.file	"cabac.c"
	.file	0 "/home/yjs/workspace/x264-test/src" "ldecod_src/cabac.c" md5 0xbcdb76144d38108015c4726e3be63d5f
	.file	1 "ldecod_src/inc" "ifunctions.h" md5 0x279401589ed56df99e287ad9e5fc564b
	.file	2 "/usr/include/x86_64-linux-gnu/bits" "types.h" md5 0xd108b5f93a74c50510d7d9bc0ab36df9
	.file	3 "/usr/include/x86_64-linux-gnu/bits" "stdint-uintn.h" md5 0x2bf2ae53c58c01b1a1b9383b5195125c
	.file	4 "ldecod_src/inc" "win32.h" md5 0x100def0ffeee72ecdc377183538a04bb
	.file	5 "ldecod_src/inc" "typedefs.h" md5 0xe1393d024b72e653f4e6dbeffdb0b154
	.file	6 "ldecod_src/inc" "elements.h" md5 0x655df3b60bdcd53a79db33d4ea16f27b
	.file	7 "ldecod_src/inc" "frame.h" md5 0xfd6ca9e1c707932f749220576db72b57
	.file	8 "ldecod_src/inc" "io_video.h" md5 0x1141c07f1801ad27d87214c419749431
	.file	9 "ldecod_src/inc" "types.h" md5 0x64f87bd13f2911471c7313b4ac17e90c
	.file	10 "ldecod_src/inc" "defines.h" md5 0xf06de374c735b286d10ba4ea0c8c0a5d
	.file	11 "ldecod_src/inc" "global.h" md5 0xc4ca3c417c5616a2ff6b6266e7376fc1
	.file	12 "/usr/include/x86_64-linux-gnu/bits" "stdint-intn.h" md5 0x55bcbdc3159515ebd91d351a70d505f4
	.globl	CheckAvailabilityOfNeighborsCABAC # -- Begin function CheckAvailabilityOfNeighborsCABAC
	.p2align	4, 0x90
	.type	CheckAvailabilityOfNeighborsCABAC,@function
CheckAvailabilityOfNeighborsCABAC:      # @CheckAvailabilityOfNeighborsCABAC
.Lfunc_begin0:
	.loc	0 46 0                          # ldecod_src/cabac.c:46:0
	.cfi_startproc
# %bb.0:                                # %entry
	#DEBUG_VALUE: CheckAvailabilityOfNeighborsCABAC:currMB <- $rdi
	pushq	%r15
	.cfi_def_cfa_offset 16
	pushq	%r14
	.cfi_def_cfa_offset 24
	pushq	%r12
	.cfi_def_cfa_offset 32
	pushq	%rbx
	.cfi_def_cfa_offset 40
	subq	$40, %rsp
	.cfi_def_cfa_offset 80
	.cfi_offset %rbx, -40
	.cfi_offset %r12, -32
	.cfi_offset %r14, -24
	.cfi_offset %r15, -16
	movq	%rdi, %rbx
.Ltmp0:
	.loc	0 47 36 prologue_end            # ldecod_src/cabac.c:47:36
	movq	8(%rdi), %r12
.Ltmp1:
	#DEBUG_VALUE: CheckAvailabilityOfNeighborsCABAC:p_Vid <- $r12
	.loc	0 49 25                         # ldecod_src/cabac.c:49:25
	leaq	849124(%r12), %r14
.Ltmp2:
	#DEBUG_VALUE: CheckAvailabilityOfNeighborsCABAC:mb_size <- $r14
	.loc	0 0 25 is_stmt 0                # ldecod_src/cabac.c:0:25
	xorl	%r15d, %r15d
	leaq	8(%rsp), %r8
	.loc	0 51 3 is_stmt 1                # ldecod_src/cabac.c:51:3
	movl	$-1, %esi
	xorl	%edx, %edx
	movq	%r14, %rcx
	callq	*856744(%r12)
.Ltmp3:
	#DEBUG_VALUE: CheckAvailabilityOfNeighborsCABAC:currMB <- $rbx
	.loc	0 0 3 is_stmt 0                 # ldecod_src/cabac.c:0:3
	leaq	24(%rsp), %r8
	.loc	0 52 3 is_stmt 1                # ldecod_src/cabac.c:52:3
	movq	%rbx, %rdi
	xorl	%esi, %esi
	movl	$-1, %edx
	movq	%r14, %rcx
	callq	*856744(%r12)
.Ltmp4:
	.loc	0 54 7                          # ldecod_src/cabac.c:54:7
	cmpl	$0, 24(%rsp)
.Ltmp5:
	.loc	0 54 7 is_stmt 0                # ldecod_src/cabac.c:54:7
	je	.LBB0_2
.Ltmp6:
# %bb.1:                                # %if.then
	#DEBUG_VALUE: CheckAvailabilityOfNeighborsCABAC:currMB <- $rbx
	#DEBUG_VALUE: CheckAvailabilityOfNeighborsCABAC:p_Vid <- $r12
	#DEBUG_VALUE: CheckAvailabilityOfNeighborsCABAC:mb_size <- $r14
	.loc	0 55 30 is_stmt 1               # ldecod_src/cabac.c:55:30
	movq	(%rbx), %rax
	.loc	0 55 50 is_stmt 0               # ldecod_src/cabac.c:55:50
	movslq	28(%rsp), %rcx
	.loc	0 55 22                         # ldecod_src/cabac.c:55:22
	imulq	$480, %rcx, %r15                # imm = 0x1E0
	addq	13512(%rax), %r15
.Ltmp7:
.LBB0_2:                                # %if.end
	#DEBUG_VALUE: CheckAvailabilityOfNeighborsCABAC:currMB <- $rbx
	#DEBUG_VALUE: CheckAvailabilityOfNeighborsCABAC:p_Vid <- $r12
	#DEBUG_VALUE: CheckAvailabilityOfNeighborsCABAC:mb_size <- $r14
	.loc	0 0 0                           # ldecod_src/cabac.c:0:0
	movq	%r15, 120(%rbx)
.Ltmp8:
	.loc	0 59 7 is_stmt 1                # ldecod_src/cabac.c:59:7
	cmpl	$0, 8(%rsp)
.Ltmp9:
	.loc	0 59 7 is_stmt 0                # ldecod_src/cabac.c:59:7
	je	.LBB0_3
.Ltmp10:
# %bb.4:                                # %if.then8
	#DEBUG_VALUE: CheckAvailabilityOfNeighborsCABAC:currMB <- $rbx
	#DEBUG_VALUE: CheckAvailabilityOfNeighborsCABAC:p_Vid <- $r12
	#DEBUG_VALUE: CheckAvailabilityOfNeighborsCABAC:mb_size <- $r14
	.loc	0 60 32 is_stmt 1               # ldecod_src/cabac.c:60:32
	movq	(%rbx), %rcx
	.loc	0 60 54 is_stmt 0               # ldecod_src/cabac.c:60:54
	movslq	12(%rsp), %rax
	.loc	0 60 24                         # ldecod_src/cabac.c:60:24
	imulq	$480, %rax, %rax                # imm = 0x1E0
	addq	13512(%rcx), %rax
	jmp	.LBB0_5
.Ltmp11:
.LBB0_3:
	#DEBUG_VALUE: CheckAvailabilityOfNeighborsCABAC:currMB <- $rbx
	#DEBUG_VALUE: CheckAvailabilityOfNeighborsCABAC:p_Vid <- $r12
	#DEBUG_VALUE: CheckAvailabilityOfNeighborsCABAC:mb_size <- $r14
	.loc	0 0 24                          # ldecod_src/cabac.c:0:24
	xorl	%eax, %eax
.Ltmp12:
.LBB0_5:                                # %if.end16
	#DEBUG_VALUE: CheckAvailabilityOfNeighborsCABAC:currMB <- $rbx
	#DEBUG_VALUE: CheckAvailabilityOfNeighborsCABAC:p_Vid <- $r12
	#DEBUG_VALUE: CheckAvailabilityOfNeighborsCABAC:mb_size <- $r14
	movq	%rax, 128(%rbx)
.Ltmp13:
	.loc	0 63 1 epilogue_begin is_stmt 1 # ldecod_src/cabac.c:63:1
	addq	$40, %rsp
	.cfi_def_cfa_offset 40
	popq	%rbx
.Ltmp14:
	#DEBUG_VALUE: CheckAvailabilityOfNeighborsCABAC:currMB <- [DW_OP_LLVM_entry_value 1] $rdi
	.cfi_def_cfa_offset 32
	popq	%r12
.Ltmp15:
	.cfi_def_cfa_offset 24
	popq	%r14
.Ltmp16:
	.cfi_def_cfa_offset 16
	popq	%r15
	.cfi_def_cfa_offset 8
	retq
.Ltmp17:
.Lfunc_end0:
	.size	CheckAvailabilityOfNeighborsCABAC, .Lfunc_end0-CheckAvailabilityOfNeighborsCABAC
	.cfi_endproc
                                        # -- End function
	.globl	cabac_new_slice                 # -- Begin function cabac_new_slice
	.p2align	4, 0x90
	.type	cabac_new_slice,@function
cabac_new_slice:                        # @cabac_new_slice
.Lfunc_begin1:
	.cfi_startproc
# %bb.0:                                # %entry
	#DEBUG_VALUE: cabac_new_slice:currSlice <- $rdi
	.loc	0 67 26 prologue_end            # ldecod_src/cabac.c:67:26
	movl	$0, 212(%rdi)
	.loc	0 68 1                          # ldecod_src/cabac.c:68:1
	retq
.Ltmp18:
.Lfunc_end1:
	.size	cabac_new_slice, .Lfunc_end1-cabac_new_slice
	.cfi_endproc
                                        # -- End function
	.globl	create_contexts_MotionInfo      # -- Begin function create_contexts_MotionInfo
	.p2align	4, 0x90
	.type	create_contexts_MotionInfo,@function
create_contexts_MotionInfo:             # @create_contexts_MotionInfo
.Lfunc_begin2:
	.loc	0 79 0                          # ldecod_src/cabac.c:79:0
	.cfi_startproc
# %bb.0:                                # %entry
	pushq	%rbx
	.cfi_def_cfa_offset 16
	.cfi_offset %rbx, -16
	.loc	0 82 36 prologue_end            # ldecod_src/cabac.c:82:36
	movl	$1, %edi
	movl	$364, %esi                      # imm = 0x16C
	callq	calloc@PLT
.Ltmp19:
	#DEBUG_VALUE: create_contexts_MotionInfo:deco_ctx <- $rax
	.loc	0 83 16                         # ldecod_src/cabac.c:83:16
	testq	%rax, %rax
.Ltmp20:
	.loc	0 83 7 is_stmt 0                # ldecod_src/cabac.c:83:7
	je	.LBB2_1
.Ltmp21:
# %bb.2:                                # %if.end
	#DEBUG_VALUE: create_contexts_MotionInfo:deco_ctx <- $rax
	.loc	0 86 3 epilogue_begin is_stmt 1 # ldecod_src/cabac.c:86:3
	popq	%rbx
	.cfi_def_cfa_offset 8
	retq
.Ltmp22:
.LBB2_1:                                # %if.then
	.cfi_def_cfa_offset 16
	#DEBUG_VALUE: create_contexts_MotionInfo:deco_ctx <- $rax
	.loc	0 84 5                          # ldecod_src/cabac.c:84:5
	movl	$.L.str, %edi
	movq	%rax, %rbx
.Ltmp23:
	#DEBUG_VALUE: create_contexts_MotionInfo:deco_ctx <- $rbx
	callq	no_mem_exit@PLT
.Ltmp24:
	.loc	0 0 5 is_stmt 0                 # ldecod_src/cabac.c:0:5
	movq	%rbx, %rax
.Ltmp25:
	.loc	0 86 3 epilogue_begin is_stmt 1 # ldecod_src/cabac.c:86:3
	popq	%rbx
.Ltmp26:
	#DEBUG_VALUE: create_contexts_MotionInfo:deco_ctx <- $rax
	.cfi_def_cfa_offset 8
	retq
.Ltmp27:
.Lfunc_end2:
	.size	create_contexts_MotionInfo, .Lfunc_end2-create_contexts_MotionInfo
	.cfi_endproc
	.file	13 "/usr/include" "stdlib.h" md5 0x02258fad21adf111bb9df9825e61954a
	.file	14 "/home/yjs/workspace" "GPUISel-llvm/build/lib/clang/19/include/__stddef_size_t.h" md5 0x2c44e821a2b1951cde2eb0fb2e656867
	.file	15 "ldecod_src/inc" "memalloc.h" md5 0x88776e97a131c37d03036121c7c9e0ac
                                        # -- End function
	.globl	create_contexts_TextureInfo     # -- Begin function create_contexts_TextureInfo
	.p2align	4, 0x90
	.type	create_contexts_TextureInfo,@function
create_contexts_TextureInfo:            # @create_contexts_TextureInfo
.Lfunc_begin3:
	.loc	0 98 0                          # ldecod_src/cabac.c:98:0
	.cfi_startproc
# %bb.0:                                # %entry
	pushq	%rbx
	.cfi_def_cfa_offset 16
	.cfi_offset %rbx, -16
	.loc	0 101 37 prologue_end           # ldecod_src/cabac.c:101:37
	movl	$1, %edi
	movl	$6596, %esi                     # imm = 0x19C4
	callq	calloc@PLT
.Ltmp28:
	#DEBUG_VALUE: create_contexts_TextureInfo:deco_ctx <- $rax
	.loc	0 102 16                        # ldecod_src/cabac.c:102:16
	testq	%rax, %rax
.Ltmp29:
	.loc	0 102 7 is_stmt 0               # ldecod_src/cabac.c:102:7
	je	.LBB3_1
.Ltmp30:
# %bb.2:                                # %if.end
	#DEBUG_VALUE: create_contexts_TextureInfo:deco_ctx <- $rax
	.loc	0 105 3 epilogue_begin is_stmt 1 # ldecod_src/cabac.c:105:3
	popq	%rbx
	.cfi_def_cfa_offset 8
	retq
.Ltmp31:
.LBB3_1:                                # %if.then
	.cfi_def_cfa_offset 16
	#DEBUG_VALUE: create_contexts_TextureInfo:deco_ctx <- $rax
	.loc	0 103 5                         # ldecod_src/cabac.c:103:5
	movl	$.L.str.1, %edi
	movq	%rax, %rbx
.Ltmp32:
	#DEBUG_VALUE: create_contexts_TextureInfo:deco_ctx <- $rbx
	callq	no_mem_exit@PLT
.Ltmp33:
	.loc	0 0 5 is_stmt 0                 # ldecod_src/cabac.c:0:5
	movq	%rbx, %rax
.Ltmp34:
	.loc	0 105 3 epilogue_begin is_stmt 1 # ldecod_src/cabac.c:105:3
	popq	%rbx
.Ltmp35:
	#DEBUG_VALUE: create_contexts_TextureInfo:deco_ctx <- $rax
	.cfi_def_cfa_offset 8
	retq
.Ltmp36:
.Lfunc_end3:
	.size	create_contexts_TextureInfo, .Lfunc_end3-create_contexts_TextureInfo
	.cfi_endproc
                                        # -- End function
	.globl	delete_contexts_MotionInfo      # -- Begin function delete_contexts_MotionInfo
	.p2align	4, 0x90
	.type	delete_contexts_MotionInfo,@function
delete_contexts_MotionInfo:             # @delete_contexts_MotionInfo
.Lfunc_begin4:
	.cfi_startproc
# %bb.0:                                # %entry
	#DEBUG_VALUE: delete_contexts_MotionInfo:deco_ctx <- $rdi
	.loc	0 118 16 prologue_end           # ldecod_src/cabac.c:118:16
	testq	%rdi, %rdi
.Ltmp37:
	.loc	0 118 7 is_stmt 0               # ldecod_src/cabac.c:118:7
	jne	free@PLT                        # TAILCALL
.Ltmp38:
# %bb.1:                                # %return
	#DEBUG_VALUE: delete_contexts_MotionInfo:deco_ctx <- [DW_OP_LLVM_entry_value 1] $rdi
	.loc	0 122 1 is_stmt 1               # ldecod_src/cabac.c:122:1
	retq
.Ltmp39:
.Lfunc_end4:
	.size	delete_contexts_MotionInfo, .Lfunc_end4-delete_contexts_MotionInfo
	.cfi_endproc
                                        # -- End function
	.globl	delete_contexts_TextureInfo     # -- Begin function delete_contexts_TextureInfo
	.p2align	4, 0x90
	.type	delete_contexts_TextureInfo,@function
delete_contexts_TextureInfo:            # @delete_contexts_TextureInfo
.Lfunc_begin5:
	.cfi_startproc
# %bb.0:                                # %entry
	#DEBUG_VALUE: delete_contexts_TextureInfo:deco_ctx <- $rdi
	.loc	0 134 16 prologue_end           # ldecod_src/cabac.c:134:16
	testq	%rdi, %rdi
.Ltmp40:
	.loc	0 134 7 is_stmt 0               # ldecod_src/cabac.c:134:7
	jne	free@PLT                        # TAILCALL
.Ltmp41:
# %bb.1:                                # %return
	#DEBUG_VALUE: delete_contexts_TextureInfo:deco_ctx <- [DW_OP_LLVM_entry_value 1] $rdi
	.loc	0 138 1 is_stmt 1               # ldecod_src/cabac.c:138:1
	retq
.Ltmp42:
.Lfunc_end5:
	.size	delete_contexts_TextureInfo, .Lfunc_end5-delete_contexts_TextureInfo
	.cfi_endproc
                                        # -- End function
	.globl	readFieldModeInfo_CABAC         # -- Begin function readFieldModeInfo_CABAC
	.p2align	4, 0x90
	.type	readFieldModeInfo_CABAC,@function
readFieldModeInfo_CABAC:                # @readFieldModeInfo_CABAC
.Lfunc_begin6:
	.loc	0 143 0                         # ldecod_src/cabac.c:143:0
	.cfi_startproc
# %bb.0:                                # %entry
	#DEBUG_VALUE: readFieldModeInfo_CABAC:currMB <- $rdi
	#DEBUG_VALUE: readFieldModeInfo_CABAC:se <- $rsi
	#DEBUG_VALUE: readFieldModeInfo_CABAC:dep_dp <- $rdx
	pushq	%rbx
	.cfi_def_cfa_offset 16
	.cfi_offset %rbx, -16
	movq	%rsi, %rbx
.Ltmp43:
	.loc	0 144 30 prologue_end           # ldecod_src/cabac.c:144:30
	movq	(%rdi), %rsi
.Ltmp44:
	#DEBUG_VALUE: readFieldModeInfo_CABAC:se <- $rbx
	#DEBUG_VALUE: readFieldModeInfo_CABAC:currSlice <- $rsi
	#DEBUG_VALUE: readFieldModeInfo_CABAC:ctx <- undef
	.loc	0 0 30 is_stmt 0                # ldecod_src/cabac.c:0:30
	xorl	%eax, %eax
	.loc	0 147 11 is_stmt 1              # ldecod_src/cabac.c:147:11
	cmpl	$0, 404(%rdi)
	movl	$0, %ecx
	je	.LBB6_2
.Ltmp45:
# %bb.1:                                # %cond.true
	#DEBUG_VALUE: readFieldModeInfo_CABAC:currMB <- $rdi
	#DEBUG_VALUE: readFieldModeInfo_CABAC:se <- $rbx
	#DEBUG_VALUE: readFieldModeInfo_CABAC:dep_dp <- $rdx
	#DEBUG_VALUE: readFieldModeInfo_CABAC:currSlice <- $rsi
	.loc	0 147 41 is_stmt 0              # ldecod_src/cabac.c:147:41
	movq	13512(%rsi), %rcx
	.loc	0 147 57                        # ldecod_src/cabac.c:147:57
	movslq	388(%rdi), %r8
	.loc	0 147 66                        # ldecod_src/cabac.c:147:66
	imulq	$480, %r8, %r8                  # imm = 0x1E0
	movl	384(%rcx,%r8), %ecx
.Ltmp46:
.LBB6_2:                                # %cond.end
	#DEBUG_VALUE: readFieldModeInfo_CABAC:currMB <- $rdi
	#DEBUG_VALUE: readFieldModeInfo_CABAC:se <- $rbx
	#DEBUG_VALUE: readFieldModeInfo_CABAC:dep_dp <- $rdx
	#DEBUG_VALUE: readFieldModeInfo_CABAC:currSlice <- $rsi
	.loc	0 0 0                           # ldecod_src/cabac.c:0:0
	movq	320(%rsi), %r8
.Ltmp47:
	#DEBUG_VALUE: readFieldModeInfo_CABAC:ctx <- $r8
	#DEBUG_VALUE: readFieldModeInfo_CABAC:a <- $ecx
	.loc	0 148 11 is_stmt 1              # ldecod_src/cabac.c:148:11
	cmpl	$0, 408(%rdi)
	je	.LBB6_4
.Ltmp48:
# %bb.3:                                # %cond.true2
	#DEBUG_VALUE: readFieldModeInfo_CABAC:currMB <- $rdi
	#DEBUG_VALUE: readFieldModeInfo_CABAC:se <- $rbx
	#DEBUG_VALUE: readFieldModeInfo_CABAC:dep_dp <- $rdx
	#DEBUG_VALUE: readFieldModeInfo_CABAC:currSlice <- $rsi
	#DEBUG_VALUE: readFieldModeInfo_CABAC:ctx <- $r8
	#DEBUG_VALUE: readFieldModeInfo_CABAC:a <- $ecx
	.loc	0 148 41 is_stmt 0              # ldecod_src/cabac.c:148:41
	movq	13512(%rsi), %rax
	.loc	0 148 57                        # ldecod_src/cabac.c:148:57
	movslq	392(%rdi), %rsi
.Ltmp49:
	.loc	0 148 66                        # ldecod_src/cabac.c:148:66
	imulq	$480, %rsi, %rsi                # imm = 0x1E0
	movl	384(%rax,%rsi), %eax
.Ltmp50:
.LBB6_4:                                # %cond.end8
	#DEBUG_VALUE: readFieldModeInfo_CABAC:currMB <- $rdi
	#DEBUG_VALUE: readFieldModeInfo_CABAC:se <- $rbx
	#DEBUG_VALUE: readFieldModeInfo_CABAC:dep_dp <- $rdx
	#DEBUG_VALUE: readFieldModeInfo_CABAC:ctx <- $r8
	#DEBUG_VALUE: readFieldModeInfo_CABAC:a <- $ecx
	#DEBUG_VALUE: readFieldModeInfo_CABAC:b <- $eax
	.loc	0 149 19 is_stmt 1              # ldecod_src/cabac.c:149:19
	addl	%ecx, %eax
.Ltmp51:
	#DEBUG_VALUE: readFieldModeInfo_CABAC:act_ctx <- $eax
	.loc	0 151 46                        # ldecod_src/cabac.c:151:46
	cltq
.Ltmp52:
	leaq	(%r8,%rax,4), %rsi
	addq	$348, %rsi                      # imm = 0x15C
	.loc	0 151 16 is_stmt 0              # ldecod_src/cabac.c:151:16
	movq	%rdx, %rdi
.Ltmp53:
	#DEBUG_VALUE: readFieldModeInfo_CABAC:currMB <- [DW_OP_LLVM_entry_value 1] $rdi
	callq	biari_decode_symbol@PLT
.Ltmp54:
	#DEBUG_VALUE: readFieldModeInfo_CABAC:dep_dp <- [DW_OP_LLVM_entry_value 1] $rdx
	.loc	0 151 14                        # ldecod_src/cabac.c:151:14
	movl	%eax, 4(%rbx)
	.loc	0 157 1 epilogue_begin is_stmt 1 # ldecod_src/cabac.c:157:1
	popq	%rbx
.Ltmp55:
	#DEBUG_VALUE: readFieldModeInfo_CABAC:se <- [DW_OP_LLVM_entry_value 1] $rsi
	.cfi_def_cfa_offset 8
	retq
.Ltmp56:
.Lfunc_end6:
	.size	readFieldModeInfo_CABAC, .Lfunc_end6-readFieldModeInfo_CABAC
	.cfi_endproc
	.file	16 "ldecod_src/inc" "biaridecod.h" md5 0x9395105ff7eca866196162279db3ac14
                                        # -- End function
	.globl	check_next_mb_and_get_field_mode_CABAC_p_slice # -- Begin function check_next_mb_and_get_field_mode_CABAC_p_slice
	.p2align	4, 0x90
	.type	check_next_mb_and_get_field_mode_CABAC_p_slice,@function
check_next_mb_and_get_field_mode_CABAC_p_slice: # @check_next_mb_and_get_field_mode_CABAC_p_slice
.Lfunc_begin7:
	.loc	0 163 0                         # ldecod_src/cabac.c:163:0
	.cfi_startproc
# %bb.0:                                # %entry
	#DEBUG_VALUE: check_next_mb_and_get_field_mode_CABAC_p_slice:currSlice <- $rdi
	#DEBUG_VALUE: check_next_mb_and_get_field_mode_CABAC_p_slice:se <- $rsi
	#DEBUG_VALUE: check_next_mb_and_get_field_mode_CABAC_p_slice:act_dp <- $rdx
	pushq	%rbp
	.cfi_def_cfa_offset 16
	pushq	%r15
	.cfi_def_cfa_offset 24
	pushq	%r14
	.cfi_def_cfa_offset 32
	pushq	%r13
	.cfi_def_cfa_offset 40
	pushq	%r12
	.cfi_def_cfa_offset 48
	pushq	%rbx
	.cfi_def_cfa_offset 56
	subq	$136, %rsp
	.cfi_def_cfa_offset 192
	.cfi_offset %rbx, -56
	.cfi_offset %r12, -48
	.cfi_offset %r13, -40
	.cfi_offset %r14, -32
	.cfi_offset %r15, -24
	.cfi_offset %rbp, -16
	movq	%rdx, 16(%rsp)                  # 8-byte Spill
.Ltmp57:
	#DEBUG_VALUE: check_next_mb_and_get_field_mode_CABAC_p_slice:act_dp <- [DW_OP_plus_uconst 16] [$rsp+0]
	movq	%rsi, 8(%rsp)                   # 8-byte Spill
.Ltmp58:
	#DEBUG_VALUE: check_next_mb_and_get_field_mode_CABAC_p_slice:se <- [DW_OP_plus_uconst 8] [$rsp+0]
	movq	%rdi, %r15
.Ltmp59:
	.loc	0 164 39 prologue_end           # ldecod_src/cabac.c:164:39
	movq	(%rdi), %rax
.Ltmp60:
	#DEBUG_VALUE: check_next_mb_and_get_field_mode_CABAC_p_slice:p_Vid <- $rax
	.loc	0 168 45                        # ldecod_src/cabac.c:168:45
	movq	320(%rdi), %rbp
.Ltmp61:
	#DEBUG_VALUE: check_next_mb_and_get_field_mode_CABAC_p_slice:mot_ctx <- $rbp
	#DEBUG_VALUE: check_next_mb_and_get_field_mode_CABAC_p_slice:dep_dp <- undef
	#DEBUG_VALUE: check_next_mb_and_get_field_mode_CABAC_p_slice:skip <- 0
	#DEBUG_VALUE: check_next_mb_and_get_field_mode_CABAC_p_slice:field <- 0
	.loc	0 180 3                         # ldecod_src/cabac.c:180:3
	movl	108(%rdi), %ecx
	incl	%ecx
	movl	%ecx, 108(%rdi)
	.loc	0 182 24                        # ldecod_src/cabac.c:182:24
	movq	13512(%rdi), %r14
	.loc	0 182 13 is_stmt 0              # ldecod_src/cabac.c:182:13
	imulq	$480, %rcx, %r12                # imm = 0x1E0
	leaq	(%r14,%r12), %rbx
.Ltmp62:
	#DEBUG_VALUE: check_next_mb_and_get_field_mode_CABAC_p_slice:currMB <- $rbx
	#DEBUG_VALUE: CheckAvailabilityOfNeighborsCABAC:currMB <- $rbx
	.loc	0 183 20 is_stmt 1              # ldecod_src/cabac.c:183:20
	movq	%rax, 8(%r14,%r12)
	.loc	0 184 20                        # ldecod_src/cabac.c:184:20
	movq	%rdi, (%r14,%r12)
	.loc	0 185 33                        # ldecod_src/cabac.c:185:33
	movzwl	116(%rdi), %eax
.Ltmp63:
	.loc	0 185 20 is_stmt 0              # ldecod_src/cabac.c:185:20
	movw	%ax, 108(%r14,%r12)
	.loc	0 186 33 is_stmt 1              # ldecod_src/cabac.c:186:33
	movq	13512(%rdi), %rax
	.loc	0 186 52 is_stmt 0              # ldecod_src/cabac.c:186:52
	movl	108(%rdi), %ecx
	.loc	0 186 65                        # ldecod_src/cabac.c:186:65
	decl	%ecx
	.loc	0 186 69                        # ldecod_src/cabac.c:186:69
	imulq	$480, %rcx, %rcx                # imm = 0x1E0
	movl	384(%rax,%rcx), %eax
	.loc	0 186 20                        # ldecod_src/cabac.c:186:20
	movl	%eax, 384(%r14,%r12)
	.loc	0 187 33 is_stmt 1              # ldecod_src/cabac.c:187:33
	movl	108(%rdi), %ecx
	.loc	0 187 20 is_stmt 0              # ldecod_src/cabac.c:187:20
	movl	%ecx, 24(%r14,%r12)
	.loc	0 188 38 is_stmt 1              # ldecod_src/cabac.c:188:38
	movl	128(%rdi), %edx
	.loc	0 188 56 is_stmt 0              # ldecod_src/cabac.c:188:56
	andl	$1, %ecx
	testl	%eax, %eax
	leal	2(%rcx,%rcx), %ecx
	cmovel	%eax, %ecx
	.loc	0 188 26                        # ldecod_src/cabac.c:188:26
	testl	%edx, %edx
	.loc	0 188 56                        # ldecod_src/cabac.c:188:56
	cmovel	%edx, %ecx
	.loc	0 188 23                        # ldecod_src/cabac.c:188:23
	movw	%cx, 114(%r14,%r12)
	.loc	0 190 3 is_stmt 1               # ldecod_src/cabac.c:190:3
	movq	%rbx, %rdi
.Ltmp64:
	#DEBUG_VALUE: check_next_mb_and_get_field_mode_CABAC_p_slice:currSlice <- $r15
	callq	CheckAvailabilityOfNeighbors@PLT
.Ltmp65:
	#DEBUG_VALUE: CheckAvailabilityOfNeighborsCABAC:left <- [DW_OP_plus_uconst 64, DW_OP_deref] $rsp
	.loc	0 47 36                         # ldecod_src/cabac.c:47:36
	movq	8(%r14,%r12), %r13
.Ltmp66:
	#DEBUG_VALUE: CheckAvailabilityOfNeighborsCABAC:p_Vid <- $r13
	.loc	0 49 25                         # ldecod_src/cabac.c:49:25
	leaq	849124(%r13), %r14
.Ltmp67:
	#DEBUG_VALUE: CheckAvailabilityOfNeighborsCABAC:mb_size <- $r14
	.loc	0 0 25 is_stmt 0                # ldecod_src/cabac.c:0:25
	xorl	%r12d, %r12d
	leaq	64(%rsp), %r8
	.loc	0 51 3 is_stmt 1                # ldecod_src/cabac.c:51:3
	movq	%rbx, %rdi
	movl	$-1, %esi
	xorl	%edx, %edx
	movq	%r14, %rcx
	callq	*856744(%r13)
.Ltmp68:
	.loc	0 0 3 is_stmt 0                 # ldecod_src/cabac.c:0:3
	leaq	80(%rsp), %r8
	.loc	0 52 3 is_stmt 1                # ldecod_src/cabac.c:52:3
	movq	%rbx, %rdi
	xorl	%esi, %esi
	movl	$-1, %edx
	movq	%r14, %rcx
	callq	*856744(%r13)
.Ltmp69:
	.loc	0 54 7                          # ldecod_src/cabac.c:54:7
	cmpl	$0, 80(%rsp)
.Ltmp70:
	.loc	0 54 7 is_stmt 0                # ldecod_src/cabac.c:54:7
	je	.LBB7_2
.Ltmp71:
# %bb.1:                                # %if.then.i
	#DEBUG_VALUE: check_next_mb_and_get_field_mode_CABAC_p_slice:currSlice <- $r15
	#DEBUG_VALUE: check_next_mb_and_get_field_mode_CABAC_p_slice:se <- [DW_OP_plus_uconst 8] [$rsp+0]
	#DEBUG_VALUE: check_next_mb_and_get_field_mode_CABAC_p_slice:act_dp <- [DW_OP_plus_uconst 16] [$rsp+0]
	#DEBUG_VALUE: check_next_mb_and_get_field_mode_CABAC_p_slice:mot_ctx <- $rbp
	#DEBUG_VALUE: check_next_mb_and_get_field_mode_CABAC_p_slice:skip <- 0
	#DEBUG_VALUE: check_next_mb_and_get_field_mode_CABAC_p_slice:field <- 0
	#DEBUG_VALUE: check_next_mb_and_get_field_mode_CABAC_p_slice:currMB <- $rbx
	#DEBUG_VALUE: CheckAvailabilityOfNeighborsCABAC:currMB <- $rbx
	#DEBUG_VALUE: CheckAvailabilityOfNeighborsCABAC:left <- [DW_OP_plus_uconst 64, DW_OP_deref] $rsp
	#DEBUG_VALUE: CheckAvailabilityOfNeighborsCABAC:p_Vid <- $r13
	#DEBUG_VALUE: CheckAvailabilityOfNeighborsCABAC:mb_size <- $r14
	.loc	0 55 30 is_stmt 1               # ldecod_src/cabac.c:55:30
	movq	(%rbx), %rax
	.loc	0 55 50 is_stmt 0               # ldecod_src/cabac.c:55:50
	movslq	84(%rsp), %rcx
	.loc	0 55 22                         # ldecod_src/cabac.c:55:22
	imulq	$480, %rcx, %r12                # imm = 0x1E0
	addq	13512(%rax), %r12
.Ltmp72:
.LBB7_2:                                # %if.end.i
	#DEBUG_VALUE: check_next_mb_and_get_field_mode_CABAC_p_slice:currSlice <- $r15
	#DEBUG_VALUE: check_next_mb_and_get_field_mode_CABAC_p_slice:se <- [DW_OP_plus_uconst 8] [$rsp+0]
	#DEBUG_VALUE: check_next_mb_and_get_field_mode_CABAC_p_slice:act_dp <- [DW_OP_plus_uconst 16] [$rsp+0]
	#DEBUG_VALUE: check_next_mb_and_get_field_mode_CABAC_p_slice:mot_ctx <- $rbp
	#DEBUG_VALUE: check_next_mb_and_get_field_mode_CABAC_p_slice:skip <- 0
	#DEBUG_VALUE: check_next_mb_and_get_field_mode_CABAC_p_slice:field <- 0
	#DEBUG_VALUE: check_next_mb_and_get_field_mode_CABAC_p_slice:currMB <- $rbx
	#DEBUG_VALUE: CheckAvailabilityOfNeighborsCABAC:currMB <- $rbx
	#DEBUG_VALUE: CheckAvailabilityOfNeighborsCABAC:left <- [DW_OP_plus_uconst 64, DW_OP_deref] $rsp
	#DEBUG_VALUE: CheckAvailabilityOfNeighborsCABAC:p_Vid <- $r13
	#DEBUG_VALUE: CheckAvailabilityOfNeighborsCABAC:mb_size <- $r14
	.loc	0 0 22                          # ldecod_src/cabac.c:0:22
	movq	16(%rsp), %rax                  # 8-byte Reload
	addq	$8, %rax
.Ltmp73:
	#DEBUG_VALUE: check_next_mb_and_get_field_mode_CABAC_p_slice:dep_dp <- $rax
	movq	%rax, 32(%rsp)                  # 8-byte Spill
.Ltmp74:
	movq	%r12, 120(%rbx)
.Ltmp75:
	.loc	0 59 7 is_stmt 1                # ldecod_src/cabac.c:59:7
	cmpl	$0, 64(%rsp)
	movq	%r15, 112(%rsp)                 # 8-byte Spill
.Ltmp76:
	#DEBUG_VALUE: check_next_mb_and_get_field_mode_CABAC_p_slice:currSlice <- [DW_OP_plus_uconst 112] [$rsp+0]
	.loc	0 59 7 is_stmt 0                # ldecod_src/cabac.c:59:7
	je	.LBB7_3
.Ltmp77:
# %bb.4:                                # %if.then8.i
	#DEBUG_VALUE: check_next_mb_and_get_field_mode_CABAC_p_slice:currSlice <- [DW_OP_plus_uconst 112] [$rsp+0]
	#DEBUG_VALUE: check_next_mb_and_get_field_mode_CABAC_p_slice:se <- [DW_OP_plus_uconst 8] [$rsp+0]
	#DEBUG_VALUE: check_next_mb_and_get_field_mode_CABAC_p_slice:act_dp <- [DW_OP_plus_uconst 16] [$rsp+0]
	#DEBUG_VALUE: check_next_mb_and_get_field_mode_CABAC_p_slice:mot_ctx <- $rbp
	#DEBUG_VALUE: check_next_mb_and_get_field_mode_CABAC_p_slice:dep_dp <- [DW_OP_plus_uconst 32, DW_OP_deref] $rsp
	#DEBUG_VALUE: check_next_mb_and_get_field_mode_CABAC_p_slice:skip <- 0
	#DEBUG_VALUE: check_next_mb_and_get_field_mode_CABAC_p_slice:field <- 0
	#DEBUG_VALUE: check_next_mb_and_get_field_mode_CABAC_p_slice:currMB <- $rbx
	#DEBUG_VALUE: CheckAvailabilityOfNeighborsCABAC:currMB <- $rbx
	#DEBUG_VALUE: CheckAvailabilityOfNeighborsCABAC:left <- [DW_OP_plus_uconst 64, DW_OP_deref] $rsp
	#DEBUG_VALUE: CheckAvailabilityOfNeighborsCABAC:p_Vid <- $r13
	#DEBUG_VALUE: CheckAvailabilityOfNeighborsCABAC:mb_size <- $r14
	.loc	0 60 32 is_stmt 1               # ldecod_src/cabac.c:60:32
	movq	(%rbx), %rcx
	.loc	0 60 54 is_stmt 0               # ldecod_src/cabac.c:60:54
	movslq	68(%rsp), %rax
	.loc	0 60 24                         # ldecod_src/cabac.c:60:24
	imulq	$480, %rax, %rax                # imm = 0x1E0
	addq	13512(%rcx), %rax
	jmp	.LBB7_5
.Ltmp78:
.LBB7_3:
	#DEBUG_VALUE: check_next_mb_and_get_field_mode_CABAC_p_slice:currSlice <- [DW_OP_plus_uconst 112] [$rsp+0]
	#DEBUG_VALUE: check_next_mb_and_get_field_mode_CABAC_p_slice:se <- [DW_OP_plus_uconst 8] [$rsp+0]
	#DEBUG_VALUE: check_next_mb_and_get_field_mode_CABAC_p_slice:act_dp <- [DW_OP_plus_uconst 16] [$rsp+0]
	#DEBUG_VALUE: check_next_mb_and_get_field_mode_CABAC_p_slice:mot_ctx <- $rbp
	#DEBUG_VALUE: check_next_mb_and_get_field_mode_CABAC_p_slice:dep_dp <- [DW_OP_plus_uconst 32, DW_OP_deref] $rsp
	#DEBUG_VALUE: check_next_mb_and_get_field_mode_CABAC_p_slice:skip <- 0
	#DEBUG_VALUE: check_next_mb_and_get_field_mode_CABAC_p_slice:field <- 0
	#DEBUG_VALUE: check_next_mb_and_get_field_mode_CABAC_p_slice:currMB <- $rbx
	#DEBUG_VALUE: CheckAvailabilityOfNeighborsCABAC:currMB <- $rbx
	#DEBUG_VALUE: CheckAvailabilityOfNeighborsCABAC:left <- [DW_OP_plus_uconst 64, DW_OP_deref] $rsp
	#DEBUG_VALUE: CheckAvailabilityOfNeighborsCABAC:p_Vid <- $r13
	#DEBUG_VALUE: CheckAvailabilityOfNeighborsCABAC:mb_size <- $r14
	.loc	0 0 24                          # ldecod_src/cabac.c:0:24
	xorl	%eax, %eax
.Ltmp79:
.LBB7_5:                                # %CheckAvailabilityOfNeighborsCABAC.exit
	#DEBUG_VALUE: check_next_mb_and_get_field_mode_CABAC_p_slice:currSlice <- [DW_OP_plus_uconst 112] [$rsp+0]
	#DEBUG_VALUE: check_next_mb_and_get_field_mode_CABAC_p_slice:se <- [DW_OP_plus_uconst 8] [$rsp+0]
	#DEBUG_VALUE: check_next_mb_and_get_field_mode_CABAC_p_slice:act_dp <- [DW_OP_plus_uconst 16] [$rsp+0]
	#DEBUG_VALUE: check_next_mb_and_get_field_mode_CABAC_p_slice:mot_ctx <- $rbp
	#DEBUG_VALUE: check_next_mb_and_get_field_mode_CABAC_p_slice:dep_dp <- [DW_OP_plus_uconst 32, DW_OP_deref] $rsp
	#DEBUG_VALUE: check_next_mb_and_get_field_mode_CABAC_p_slice:skip <- 0
	#DEBUG_VALUE: check_next_mb_and_get_field_mode_CABAC_p_slice:field <- 0
	#DEBUG_VALUE: check_next_mb_and_get_field_mode_CABAC_p_slice:currMB <- $rbx
	#DEBUG_VALUE: CheckAvailabilityOfNeighborsCABAC:currMB <- $rbx
	#DEBUG_VALUE: CheckAvailabilityOfNeighborsCABAC:left <- [DW_OP_plus_uconst 64, DW_OP_deref] $rsp
	#DEBUG_VALUE: CheckAvailabilityOfNeighborsCABAC:p_Vid <- $r13
	#DEBUG_VALUE: CheckAvailabilityOfNeighborsCABAC:mb_size <- $r14
	movq	%rax, 128(%rbx)
.Ltmp80:
	.loc	0 194 42 is_stmt 1              # ldecod_src/cabac.c:194:42
	movl	$1, %edi
	movl	$32, %esi
	callq	calloc@PLT
.Ltmp81:
	movq	%rax, %r14
.Ltmp82:
	#DEBUG_VALUE: check_next_mb_and_get_field_mode_CABAC_p_slice:dep_dp_copy <- $r14
	#DEBUG_VALUE: check_next_mb_and_get_field_mode_CABAC_p_slice:i <- 0
	.loc	0 196 46                        # ldecod_src/cabac.c:196:46
	movl	$11, %edi
	movl	$4, %esi
	callq	calloc@PLT
.Ltmp83:
	movq	%rax, %r12
.Ltmp84:
	#DEBUG_VALUE: check_next_mb_and_get_field_mode_CABAC_p_slice:mb_type_ctx_copy <- [DW_OP_LLVM_fragment 0 64] $r12
	#DEBUG_VALUE: check_next_mb_and_get_field_mode_CABAC_p_slice:i <- 1
	movl	$11, %edi
	movl	$4, %esi
	callq	calloc@PLT
.Ltmp85:
	movq	%rax, %r13
.Ltmp86:
	#DEBUG_VALUE: check_next_mb_and_get_field_mode_CABAC_p_slice:mb_type_ctx_copy <- [DW_OP_LLVM_fragment 64 64] $r13
	#DEBUG_VALUE: check_next_mb_and_get_field_mode_CABAC_p_slice:i <- 2
	movl	$11, %edi
	movl	$4, %esi
	callq	calloc@PLT
.Ltmp87:
	movq	%rax, %r15
.Ltmp88:
	#DEBUG_VALUE: check_next_mb_and_get_field_mode_CABAC_p_slice:mb_type_ctx_copy <- [DW_OP_LLVM_fragment 128 64] $r15
	#DEBUG_VALUE: check_next_mb_and_get_field_mode_CABAC_p_slice:i <- 3
	.loc	0 197 40                        # ldecod_src/cabac.c:197:40
	movl	$4, %edi
	movl	$4, %esi
	callq	calloc@PLT
.Ltmp89:
	movq	%rax, %rcx
.Ltmp90:
	#DEBUG_VALUE: check_next_mb_and_get_field_mode_CABAC_p_slice:mb_aff_ctx_copy <- $rax
	.loc	0 0 40 is_stmt 0                # ldecod_src/cabac.c:0:40
	movq	32(%rsp), %rax                  # 8-byte Reload
.Ltmp91:
	.loc	0 200 3 is_stmt 1               # ldecod_src/cabac.c:200:3
	movups	(%rax), %xmm0
	movups	16(%rax), %xmm1
	movups	%xmm0, (%r14)
	movups	%xmm1, 16(%r14)
	movq	16(%rsp), %rax                  # 8-byte Reload
	.loc	0 201 54                        # ldecod_src/cabac.c:201:54
	movq	32(%rax), %rax
.Ltmp92:
	#DEBUG_VALUE: check_next_mb_and_get_field_mode_CABAC_p_slice:mb_aff_ctx_copy <- $rcx
	.loc	0 201 44 is_stmt 0              # ldecod_src/cabac.c:201:44
	movl	(%rax), %edx
	movq	%r14, 56(%rsp)                  # 8-byte Spill
.Ltmp93:
	#DEBUG_VALUE: check_next_mb_and_get_field_mode_CABAC_p_slice:dep_dp_copy <- [DW_OP_plus_uconst 56, DW_OP_deref] $rsp
	.loc	0 201 27                        # ldecod_src/cabac.c:201:27
	movq	24(%r14), %rax
	movl	%edx, 28(%rsp)                  # 4-byte Spill
	.loc	0 201 42                        # ldecod_src/cabac.c:201:42
	movl	%edx, (%rax)
.Ltmp94:
	#DEBUG_VALUE: check_next_mb_and_get_field_mode_CABAC_p_slice:i <- 0
	#DEBUG_VALUE: check_next_mb_and_get_field_mode_CABAC_p_slice:length <- [DW_OP_plus_uconst 28, DW_OP_deref] $rsp
	.loc	0 203 5 is_stmt 1               # ldecod_src/cabac.c:203:5
	movups	(%rbp), %xmm0
	movups	16(%rbp), %xmm1
	movups	28(%rbp), %xmm2
	movups	%xmm2, 28(%r12)
	movups	%xmm1, 16(%r12)
	movq	%r12, 128(%rsp)                 # 8-byte Spill
.Ltmp95:
	#DEBUG_VALUE: check_next_mb_and_get_field_mode_CABAC_p_slice:mb_type_ctx_copy <- [DW_OP_plus_uconst 128, DW_OP_deref, DW_OP_LLVM_fragment 0 64] $rsp
	movups	%xmm0, (%r12)
.Ltmp96:
	#DEBUG_VALUE: check_next_mb_and_get_field_mode_CABAC_p_slice:i <- 1
	movups	44(%rbp), %xmm0
	movups	60(%rbp), %xmm1
	movups	72(%rbp), %xmm2
	movups	%xmm2, 28(%r13)
	movups	%xmm1, 16(%r13)
	movq	%r13, 120(%rsp)                 # 8-byte Spill
.Ltmp97:
	#DEBUG_VALUE: check_next_mb_and_get_field_mode_CABAC_p_slice:mb_type_ctx_copy <- [DW_OP_plus_uconst 120, DW_OP_deref, DW_OP_LLVM_fragment 64 64] $rsp
	movups	%xmm0, (%r13)
.Ltmp98:
	#DEBUG_VALUE: check_next_mb_and_get_field_mode_CABAC_p_slice:i <- 2
	movups	88(%rbp), %xmm0
	movups	104(%rbp), %xmm1
	movups	116(%rbp), %xmm2
	movups	%xmm2, 28(%r15)
	movups	%xmm0, (%r15)
	movq	%r15, 48(%rsp)                  # 8-byte Spill
.Ltmp99:
	#DEBUG_VALUE: check_next_mb_and_get_field_mode_CABAC_p_slice:mb_type_ctx_copy <- [DW_OP_plus_uconst 48, DW_OP_deref, DW_OP_LLVM_fragment 128 64] $rsp
	movups	%xmm1, 16(%r15)
.Ltmp100:
	#DEBUG_VALUE: check_next_mb_and_get_field_mode_CABAC_p_slice:i <- 3
	.loc	0 204 3                         # ldecod_src/cabac.c:204:3
	movups	348(%rbp), %xmm0
	movq	%rcx, 40(%rsp)                  # 8-byte Spill
.Ltmp101:
	#DEBUG_VALUE: check_next_mb_and_get_field_mode_CABAC_p_slice:mb_aff_ctx_copy <- [DW_OP_plus_uconst 40, DW_OP_deref] $rsp
	movups	%xmm0, (%rcx)
	movq	112(%rsp), %r15                 # 8-byte Reload
	.loc	0 210 26                        # ldecod_src/cabac.c:210:26
	movl	$0, 212(%r15)
.Ltmp102:
	#DEBUG_VALUE: read_skip_flag_CABAC_p_slice:currMB <- $rbx
	#DEBUG_VALUE: read_skip_flag_CABAC_p_slice:se <- [DW_OP_plus_uconst 8, DW_OP_deref] $rsp
	#DEBUG_VALUE: read_skip_flag_CABAC_p_slice:dep_dp <- [DW_OP_plus_uconst 32, DW_OP_deref] $rsp
	.loc	0 536 30                        # ldecod_src/cabac.c:536:30
	movq	(%rbx), %rdx
.Ltmp103:
	#DEBUG_VALUE: read_skip_flag_CABAC_p_slice:currSlice <- $rdx
	.loc	0 538 20                        # ldecod_src/cabac.c:538:20
	movq	128(%rbx), %rcx
.Ltmp104:
	#DEBUG_VALUE: read_skip_flag_CABAC_p_slice:ctx <- undef
	.loc	0 538 67 is_stmt 0              # ldecod_src/cabac.c:538:67
	xorl	%eax, %eax
	.loc	0 538 28                        # ldecod_src/cabac.c:538:28
	testq	%rcx, %rcx
	.loc	0 538 11                        # ldecod_src/cabac.c:538:11
	je	.LBB7_7
.Ltmp105:
# %bb.6:                                # %cond.true.i
	#DEBUG_VALUE: check_next_mb_and_get_field_mode_CABAC_p_slice:currSlice <- [DW_OP_plus_uconst 112] [$rsp+0]
	#DEBUG_VALUE: check_next_mb_and_get_field_mode_CABAC_p_slice:se <- [DW_OP_plus_uconst 8] [$rsp+0]
	#DEBUG_VALUE: check_next_mb_and_get_field_mode_CABAC_p_slice:act_dp <- [DW_OP_plus_uconst 16] [$rsp+0]
	#DEBUG_VALUE: check_next_mb_and_get_field_mode_CABAC_p_slice:mot_ctx <- $rbp
	#DEBUG_VALUE: check_next_mb_and_get_field_mode_CABAC_p_slice:dep_dp <- [DW_OP_plus_uconst 32, DW_OP_deref] $rsp
	#DEBUG_VALUE: check_next_mb_and_get_field_mode_CABAC_p_slice:skip <- 0
	#DEBUG_VALUE: check_next_mb_and_get_field_mode_CABAC_p_slice:field <- 0
	#DEBUG_VALUE: check_next_mb_and_get_field_mode_CABAC_p_slice:currMB <- $rbx
	#DEBUG_VALUE: check_next_mb_and_get_field_mode_CABAC_p_slice:dep_dp_copy <- [DW_OP_plus_uconst 56, DW_OP_deref] $rsp
	#DEBUG_VALUE: check_next_mb_and_get_field_mode_CABAC_p_slice:i <- 3
	#DEBUG_VALUE: check_next_mb_and_get_field_mode_CABAC_p_slice:mb_type_ctx_copy <- [DW_OP_plus_uconst 128, DW_OP_deref, DW_OP_LLVM_fragment 0 64] $rsp
	#DEBUG_VALUE: check_next_mb_and_get_field_mode_CABAC_p_slice:mb_type_ctx_copy <- [DW_OP_plus_uconst 120, DW_OP_deref, DW_OP_LLVM_fragment 64 64] $rsp
	#DEBUG_VALUE: check_next_mb_and_get_field_mode_CABAC_p_slice:mb_type_ctx_copy <- [DW_OP_plus_uconst 48, DW_OP_deref, DW_OP_LLVM_fragment 128 64] $rsp
	#DEBUG_VALUE: check_next_mb_and_get_field_mode_CABAC_p_slice:mb_aff_ctx_copy <- [DW_OP_plus_uconst 40, DW_OP_deref] $rsp
	#DEBUG_VALUE: check_next_mb_and_get_field_mode_CABAC_p_slice:length <- [DW_OP_plus_uconst 28, DW_OP_deref] $rsp
	#DEBUG_VALUE: read_skip_flag_CABAC_p_slice:currMB <- $rbx
	#DEBUG_VALUE: read_skip_flag_CABAC_p_slice:se <- [DW_OP_plus_uconst 8, DW_OP_deref] $rsp
	#DEBUG_VALUE: read_skip_flag_CABAC_p_slice:dep_dp <- [DW_OP_plus_uconst 32, DW_OP_deref] $rsp
	#DEBUG_VALUE: read_skip_flag_CABAC_p_slice:currSlice <- $rdx
	.loc	0 538 67                        # ldecod_src/cabac.c:538:67
	cmpb	$0, 374(%rcx)
	sete	%al
.Ltmp106:
.LBB7_7:                                # %cond.end.i
	#DEBUG_VALUE: check_next_mb_and_get_field_mode_CABAC_p_slice:currSlice <- [DW_OP_plus_uconst 112] [$rsp+0]
	#DEBUG_VALUE: check_next_mb_and_get_field_mode_CABAC_p_slice:se <- [DW_OP_plus_uconst 8] [$rsp+0]
	#DEBUG_VALUE: check_next_mb_and_get_field_mode_CABAC_p_slice:act_dp <- [DW_OP_plus_uconst 16] [$rsp+0]
	#DEBUG_VALUE: check_next_mb_and_get_field_mode_CABAC_p_slice:mot_ctx <- $rbp
	#DEBUG_VALUE: check_next_mb_and_get_field_mode_CABAC_p_slice:dep_dp <- [DW_OP_plus_uconst 32, DW_OP_deref] $rsp
	#DEBUG_VALUE: check_next_mb_and_get_field_mode_CABAC_p_slice:skip <- 0
	#DEBUG_VALUE: check_next_mb_and_get_field_mode_CABAC_p_slice:field <- 0
	#DEBUG_VALUE: check_next_mb_and_get_field_mode_CABAC_p_slice:currMB <- $rbx
	#DEBUG_VALUE: check_next_mb_and_get_field_mode_CABAC_p_slice:dep_dp_copy <- [DW_OP_plus_uconst 56, DW_OP_deref] $rsp
	#DEBUG_VALUE: check_next_mb_and_get_field_mode_CABAC_p_slice:i <- 3
	#DEBUG_VALUE: check_next_mb_and_get_field_mode_CABAC_p_slice:mb_type_ctx_copy <- [DW_OP_plus_uconst 128, DW_OP_deref, DW_OP_LLVM_fragment 0 64] $rsp
	#DEBUG_VALUE: check_next_mb_and_get_field_mode_CABAC_p_slice:mb_type_ctx_copy <- [DW_OP_plus_uconst 120, DW_OP_deref, DW_OP_LLVM_fragment 64 64] $rsp
	#DEBUG_VALUE: check_next_mb_and_get_field_mode_CABAC_p_slice:mb_type_ctx_copy <- [DW_OP_plus_uconst 48, DW_OP_deref, DW_OP_LLVM_fragment 128 64] $rsp
	#DEBUG_VALUE: check_next_mb_and_get_field_mode_CABAC_p_slice:mb_aff_ctx_copy <- [DW_OP_plus_uconst 40, DW_OP_deref] $rsp
	#DEBUG_VALUE: check_next_mb_and_get_field_mode_CABAC_p_slice:length <- [DW_OP_plus_uconst 28, DW_OP_deref] $rsp
	#DEBUG_VALUE: read_skip_flag_CABAC_p_slice:currMB <- $rbx
	#DEBUG_VALUE: read_skip_flag_CABAC_p_slice:se <- [DW_OP_plus_uconst 8, DW_OP_deref] $rsp
	#DEBUG_VALUE: read_skip_flag_CABAC_p_slice:dep_dp <- [DW_OP_plus_uconst 32, DW_OP_deref] $rsp
	#DEBUG_VALUE: read_skip_flag_CABAC_p_slice:currSlice <- $rdx
	.loc	0 0 67                          # ldecod_src/cabac.c:0:67
	movq	%rdx, 96(%rsp)                  # 8-byte Spill
.Ltmp107:
	#DEBUG_VALUE: read_skip_flag_CABAC_p_slice:currSlice <- [DW_OP_plus_uconst 96, DW_OP_deref] $rsp
	movq	320(%rdx), %rcx
.Ltmp108:
	#DEBUG_VALUE: read_skip_flag_CABAC_p_slice:ctx <- $rcx
	#DEBUG_VALUE: read_skip_flag_CABAC_p_slice:a <- undef
	.loc	0 539 20 is_stmt 1              # ldecod_src/cabac.c:539:20
	movq	120(%rbx), %rsi
	.loc	0 539 28 is_stmt 0              # ldecod_src/cabac.c:539:28
	testq	%rsi, %rsi
	movq	32(%rsp), %r13                  # 8-byte Reload
	.loc	0 539 11                        # ldecod_src/cabac.c:539:11
	je	.LBB7_8
.Ltmp109:
# %bb.9:                                # %cond.true6.i
	#DEBUG_VALUE: check_next_mb_and_get_field_mode_CABAC_p_slice:currSlice <- [DW_OP_plus_uconst 112] [$rsp+0]
	#DEBUG_VALUE: check_next_mb_and_get_field_mode_CABAC_p_slice:se <- [DW_OP_plus_uconst 8] [$rsp+0]
	#DEBUG_VALUE: check_next_mb_and_get_field_mode_CABAC_p_slice:act_dp <- [DW_OP_plus_uconst 16] [$rsp+0]
	#DEBUG_VALUE: check_next_mb_and_get_field_mode_CABAC_p_slice:mot_ctx <- $rbp
	#DEBUG_VALUE: check_next_mb_and_get_field_mode_CABAC_p_slice:dep_dp <- [DW_OP_plus_uconst 32, DW_OP_deref] $rsp
	#DEBUG_VALUE: check_next_mb_and_get_field_mode_CABAC_p_slice:skip <- 0
	#DEBUG_VALUE: check_next_mb_and_get_field_mode_CABAC_p_slice:field <- 0
	#DEBUG_VALUE: check_next_mb_and_get_field_mode_CABAC_p_slice:currMB <- $rbx
	#DEBUG_VALUE: check_next_mb_and_get_field_mode_CABAC_p_slice:dep_dp_copy <- [DW_OP_plus_uconst 56, DW_OP_deref] $rsp
	#DEBUG_VALUE: check_next_mb_and_get_field_mode_CABAC_p_slice:i <- 3
	#DEBUG_VALUE: check_next_mb_and_get_field_mode_CABAC_p_slice:mb_type_ctx_copy <- [DW_OP_plus_uconst 128, DW_OP_deref, DW_OP_LLVM_fragment 0 64] $rsp
	#DEBUG_VALUE: check_next_mb_and_get_field_mode_CABAC_p_slice:mb_type_ctx_copy <- [DW_OP_plus_uconst 120, DW_OP_deref, DW_OP_LLVM_fragment 64 64] $rsp
	#DEBUG_VALUE: check_next_mb_and_get_field_mode_CABAC_p_slice:mb_type_ctx_copy <- [DW_OP_plus_uconst 48, DW_OP_deref, DW_OP_LLVM_fragment 128 64] $rsp
	#DEBUG_VALUE: check_next_mb_and_get_field_mode_CABAC_p_slice:mb_aff_ctx_copy <- [DW_OP_plus_uconst 40, DW_OP_deref] $rsp
	#DEBUG_VALUE: check_next_mb_and_get_field_mode_CABAC_p_slice:length <- [DW_OP_plus_uconst 28, DW_OP_deref] $rsp
	#DEBUG_VALUE: read_skip_flag_CABAC_p_slice:currMB <- $rbx
	#DEBUG_VALUE: read_skip_flag_CABAC_p_slice:se <- [DW_OP_plus_uconst 8, DW_OP_deref] $rsp
	#DEBUG_VALUE: read_skip_flag_CABAC_p_slice:dep_dp <- [DW_OP_plus_uconst 32, DW_OP_deref] $rsp
	#DEBUG_VALUE: read_skip_flag_CABAC_p_slice:currSlice <- [DW_OP_plus_uconst 96, DW_OP_deref] $rsp
	#DEBUG_VALUE: read_skip_flag_CABAC_p_slice:ctx <- $rcx
	.loc	0 539 67                        # ldecod_src/cabac.c:539:67
	xorl	%edx, %edx
	cmpb	$0, 374(%rsi)
	sete	%dl
	jmp	.LBB7_10
.Ltmp110:
.LBB7_8:
	#DEBUG_VALUE: check_next_mb_and_get_field_mode_CABAC_p_slice:currSlice <- [DW_OP_plus_uconst 112] [$rsp+0]
	#DEBUG_VALUE: check_next_mb_and_get_field_mode_CABAC_p_slice:se <- [DW_OP_plus_uconst 8] [$rsp+0]
	#DEBUG_VALUE: check_next_mb_and_get_field_mode_CABAC_p_slice:act_dp <- [DW_OP_plus_uconst 16] [$rsp+0]
	#DEBUG_VALUE: check_next_mb_and_get_field_mode_CABAC_p_slice:mot_ctx <- $rbp
	#DEBUG_VALUE: check_next_mb_and_get_field_mode_CABAC_p_slice:dep_dp <- [DW_OP_plus_uconst 32, DW_OP_deref] $rsp
	#DEBUG_VALUE: check_next_mb_and_get_field_mode_CABAC_p_slice:skip <- 0
	#DEBUG_VALUE: check_next_mb_and_get_field_mode_CABAC_p_slice:field <- 0
	#DEBUG_VALUE: check_next_mb_and_get_field_mode_CABAC_p_slice:currMB <- $rbx
	#DEBUG_VALUE: check_next_mb_and_get_field_mode_CABAC_p_slice:dep_dp_copy <- [DW_OP_plus_uconst 56, DW_OP_deref] $rsp
	#DEBUG_VALUE: check_next_mb_and_get_field_mode_CABAC_p_slice:i <- 3
	#DEBUG_VALUE: check_next_mb_and_get_field_mode_CABAC_p_slice:mb_type_ctx_copy <- [DW_OP_plus_uconst 128, DW_OP_deref, DW_OP_LLVM_fragment 0 64] $rsp
	#DEBUG_VALUE: check_next_mb_and_get_field_mode_CABAC_p_slice:mb_type_ctx_copy <- [DW_OP_plus_uconst 120, DW_OP_deref, DW_OP_LLVM_fragment 64 64] $rsp
	#DEBUG_VALUE: check_next_mb_and_get_field_mode_CABAC_p_slice:mb_type_ctx_copy <- [DW_OP_plus_uconst 48, DW_OP_deref, DW_OP_LLVM_fragment 128 64] $rsp
	#DEBUG_VALUE: check_next_mb_and_get_field_mode_CABAC_p_slice:mb_aff_ctx_copy <- [DW_OP_plus_uconst 40, DW_OP_deref] $rsp
	#DEBUG_VALUE: check_next_mb_and_get_field_mode_CABAC_p_slice:length <- [DW_OP_plus_uconst 28, DW_OP_deref] $rsp
	#DEBUG_VALUE: read_skip_flag_CABAC_p_slice:currMB <- $rbx
	#DEBUG_VALUE: read_skip_flag_CABAC_p_slice:se <- [DW_OP_plus_uconst 8, DW_OP_deref] $rsp
	#DEBUG_VALUE: read_skip_flag_CABAC_p_slice:dep_dp <- [DW_OP_plus_uconst 32, DW_OP_deref] $rsp
	#DEBUG_VALUE: read_skip_flag_CABAC_p_slice:currSlice <- [DW_OP_plus_uconst 96, DW_OP_deref] $rsp
	#DEBUG_VALUE: read_skip_flag_CABAC_p_slice:ctx <- $rcx
	.loc	0 0 67                          # ldecod_src/cabac.c:0:67
	xorl	%edx, %edx
.Ltmp111:
.LBB7_10:                               # %cond.end13.i
	#DEBUG_VALUE: check_next_mb_and_get_field_mode_CABAC_p_slice:currSlice <- [DW_OP_plus_uconst 112] [$rsp+0]
	#DEBUG_VALUE: check_next_mb_and_get_field_mode_CABAC_p_slice:se <- [DW_OP_plus_uconst 8] [$rsp+0]
	#DEBUG_VALUE: check_next_mb_and_get_field_mode_CABAC_p_slice:act_dp <- [DW_OP_plus_uconst 16] [$rsp+0]
	#DEBUG_VALUE: check_next_mb_and_get_field_mode_CABAC_p_slice:mot_ctx <- $rbp
	#DEBUG_VALUE: check_next_mb_and_get_field_mode_CABAC_p_slice:dep_dp <- [DW_OP_plus_uconst 32, DW_OP_deref] $rsp
	#DEBUG_VALUE: check_next_mb_and_get_field_mode_CABAC_p_slice:skip <- 0
	#DEBUG_VALUE: check_next_mb_and_get_field_mode_CABAC_p_slice:field <- 0
	#DEBUG_VALUE: check_next_mb_and_get_field_mode_CABAC_p_slice:currMB <- $rbx
	#DEBUG_VALUE: check_next_mb_and_get_field_mode_CABAC_p_slice:dep_dp_copy <- [DW_OP_plus_uconst 56, DW_OP_deref] $rsp
	#DEBUG_VALUE: check_next_mb_and_get_field_mode_CABAC_p_slice:i <- 3
	#DEBUG_VALUE: check_next_mb_and_get_field_mode_CABAC_p_slice:mb_type_ctx_copy <- [DW_OP_plus_uconst 128, DW_OP_deref, DW_OP_LLVM_fragment 0 64] $rsp
	#DEBUG_VALUE: check_next_mb_and_get_field_mode_CABAC_p_slice:mb_type_ctx_copy <- [DW_OP_plus_uconst 120, DW_OP_deref, DW_OP_LLVM_fragment 64 64] $rsp
	#DEBUG_VALUE: check_next_mb_and_get_field_mode_CABAC_p_slice:mb_type_ctx_copy <- [DW_OP_plus_uconst 48, DW_OP_deref, DW_OP_LLVM_fragment 128 64] $rsp
	#DEBUG_VALUE: check_next_mb_and_get_field_mode_CABAC_p_slice:mb_aff_ctx_copy <- [DW_OP_plus_uconst 40, DW_OP_deref] $rsp
	#DEBUG_VALUE: check_next_mb_and_get_field_mode_CABAC_p_slice:length <- [DW_OP_plus_uconst 28, DW_OP_deref] $rsp
	#DEBUG_VALUE: read_skip_flag_CABAC_p_slice:currMB <- $rbx
	#DEBUG_VALUE: read_skip_flag_CABAC_p_slice:se <- [DW_OP_plus_uconst 8, DW_OP_deref] $rsp
	#DEBUG_VALUE: read_skip_flag_CABAC_p_slice:dep_dp <- [DW_OP_plus_uconst 32, DW_OP_deref] $rsp
	#DEBUG_VALUE: read_skip_flag_CABAC_p_slice:currSlice <- [DW_OP_plus_uconst 96, DW_OP_deref] $rsp
	#DEBUG_VALUE: read_skip_flag_CABAC_p_slice:ctx <- $rcx
	leaq	44(%rbp), %r14
	leaq	88(%rbp), %r12
	leaq	348(%rbp), %rsi
.Ltmp112:
	#DEBUG_VALUE: read_skip_flag_CABAC_p_slice:b <- undef
	movq	%rsi, 104(%rsp)                 # 8-byte Spill
.Ltmp113:
	.loc	0 540 19 is_stmt 1              # ldecod_src/cabac.c:540:19
	addl	%eax, %edx
.Ltmp114:
	#DEBUG_VALUE: read_skip_flag_CABAC_p_slice:act_ctx <- undef
	.loc	0 542 36                        # ldecod_src/cabac.c:542:36
	leaq	(%rcx,%rdx,4), %rsi
	addq	$44, %rsi
	.loc	0 542 7 is_stmt 0               # ldecod_src/cabac.c:542:7
	movq	%r13, %rdi
	callq	biari_decode_symbol@PLT
.Ltmp115:
	.loc	0 542 71                        # ldecod_src/cabac.c:542:71
	cmpl	$1, %eax
.Ltmp116:
	.loc	0 542 7                         # ldecod_src/cabac.c:542:7
	jne	.LBB7_11
.Ltmp117:
# %bb.17:                               # %read_skip_flag_CABAC_p_slice.exit
	#DEBUG_VALUE: check_next_mb_and_get_field_mode_CABAC_p_slice:currSlice <- [DW_OP_plus_uconst 112] [$rsp+0]
	#DEBUG_VALUE: check_next_mb_and_get_field_mode_CABAC_p_slice:se <- [DW_OP_plus_uconst 8] [$rsp+0]
	#DEBUG_VALUE: check_next_mb_and_get_field_mode_CABAC_p_slice:act_dp <- [DW_OP_plus_uconst 16] [$rsp+0]
	#DEBUG_VALUE: check_next_mb_and_get_field_mode_CABAC_p_slice:mot_ctx <- $rbp
	#DEBUG_VALUE: check_next_mb_and_get_field_mode_CABAC_p_slice:dep_dp <- [DW_OP_plus_uconst 32, DW_OP_deref] $rsp
	#DEBUG_VALUE: check_next_mb_and_get_field_mode_CABAC_p_slice:skip <- 0
	#DEBUG_VALUE: check_next_mb_and_get_field_mode_CABAC_p_slice:field <- 0
	#DEBUG_VALUE: check_next_mb_and_get_field_mode_CABAC_p_slice:currMB <- $rbx
	#DEBUG_VALUE: check_next_mb_and_get_field_mode_CABAC_p_slice:dep_dp_copy <- [DW_OP_plus_uconst 56, DW_OP_deref] $rsp
	#DEBUG_VALUE: check_next_mb_and_get_field_mode_CABAC_p_slice:i <- 3
	#DEBUG_VALUE: check_next_mb_and_get_field_mode_CABAC_p_slice:mb_type_ctx_copy <- [DW_OP_plus_uconst 128, DW_OP_deref, DW_OP_LLVM_fragment 0 64] $rsp
	#DEBUG_VALUE: check_next_mb_and_get_field_mode_CABAC_p_slice:mb_type_ctx_copy <- [DW_OP_plus_uconst 120, DW_OP_deref, DW_OP_LLVM_fragment 64 64] $rsp
	#DEBUG_VALUE: check_next_mb_and_get_field_mode_CABAC_p_slice:mb_type_ctx_copy <- [DW_OP_plus_uconst 48, DW_OP_deref, DW_OP_LLVM_fragment 128 64] $rsp
	#DEBUG_VALUE: check_next_mb_and_get_field_mode_CABAC_p_slice:mb_aff_ctx_copy <- [DW_OP_plus_uconst 40, DW_OP_deref] $rsp
	#DEBUG_VALUE: check_next_mb_and_get_field_mode_CABAC_p_slice:length <- [DW_OP_plus_uconst 28, DW_OP_deref] $rsp
	#DEBUG_VALUE: read_skip_flag_CABAC_p_slice:currMB <- $rbx
	#DEBUG_VALUE: read_skip_flag_CABAC_p_slice:se <- [DW_OP_plus_uconst 8, DW_OP_deref] $rsp
	#DEBUG_VALUE: read_skip_flag_CABAC_p_slice:dep_dp <- [DW_OP_plus_uconst 32, DW_OP_deref] $rsp
	#DEBUG_VALUE: read_skip_flag_CABAC_p_slice:currSlice <- [DW_OP_plus_uconst 96, DW_OP_deref] $rsp
	.loc	0 0 7                           # ldecod_src/cabac.c:0:7
	movq	8(%rsp), %rax                   # 8-byte Reload
.Ltmp118:
	movl	$0, 4(%rax)
	movq	96(%rsp), %rcx                  # 8-byte Reload
.Ltmp119:
	.loc	0 553 28 is_stmt 1              # ldecod_src/cabac.c:553:28
	movl	$0, 212(%rcx)
.Ltmp120:
	.loc	0 213 21                        # ldecod_src/cabac.c:213:21
	cmpl	$0, 4(%rax)
.Ltmp121:
	#DEBUG_VALUE: check_next_mb_and_get_field_mode_CABAC_p_slice:skip <- undef
	.loc	0 215 7                         # ldecod_src/cabac.c:215:7
	jne	.LBB7_12
.Ltmp122:
# %bb.18:
	#DEBUG_VALUE: check_next_mb_and_get_field_mode_CABAC_p_slice:currSlice <- [DW_OP_plus_uconst 112] [$rsp+0]
	#DEBUG_VALUE: check_next_mb_and_get_field_mode_CABAC_p_slice:se <- [DW_OP_plus_uconst 8] [$rsp+0]
	#DEBUG_VALUE: check_next_mb_and_get_field_mode_CABAC_p_slice:act_dp <- [DW_OP_plus_uconst 16] [$rsp+0]
	#DEBUG_VALUE: check_next_mb_and_get_field_mode_CABAC_p_slice:mot_ctx <- $rbp
	#DEBUG_VALUE: check_next_mb_and_get_field_mode_CABAC_p_slice:dep_dp <- [DW_OP_plus_uconst 32, DW_OP_deref] $rsp
	#DEBUG_VALUE: check_next_mb_and_get_field_mode_CABAC_p_slice:field <- 0
	#DEBUG_VALUE: check_next_mb_and_get_field_mode_CABAC_p_slice:currMB <- $rbx
	#DEBUG_VALUE: check_next_mb_and_get_field_mode_CABAC_p_slice:dep_dp_copy <- [DW_OP_plus_uconst 56, DW_OP_deref] $rsp
	#DEBUG_VALUE: check_next_mb_and_get_field_mode_CABAC_p_slice:i <- 3
	#DEBUG_VALUE: check_next_mb_and_get_field_mode_CABAC_p_slice:mb_type_ctx_copy <- [DW_OP_plus_uconst 128, DW_OP_deref, DW_OP_LLVM_fragment 0 64] $rsp
	#DEBUG_VALUE: check_next_mb_and_get_field_mode_CABAC_p_slice:mb_type_ctx_copy <- [DW_OP_plus_uconst 120, DW_OP_deref, DW_OP_LLVM_fragment 64 64] $rsp
	#DEBUG_VALUE: check_next_mb_and_get_field_mode_CABAC_p_slice:mb_type_ctx_copy <- [DW_OP_plus_uconst 48, DW_OP_deref, DW_OP_LLVM_fragment 128 64] $rsp
	#DEBUG_VALUE: check_next_mb_and_get_field_mode_CABAC_p_slice:mb_aff_ctx_copy <- [DW_OP_plus_uconst 40, DW_OP_deref] $rsp
	#DEBUG_VALUE: check_next_mb_and_get_field_mode_CABAC_p_slice:length <- [DW_OP_plus_uconst 28, DW_OP_deref] $rsp
	#DEBUG_VALUE: read_skip_flag_CABAC_p_slice:currMB <- $rbx
	#DEBUG_VALUE: read_skip_flag_CABAC_p_slice:se <- [DW_OP_plus_uconst 8, DW_OP_deref] $rsp
	#DEBUG_VALUE: read_skip_flag_CABAC_p_slice:dep_dp <- [DW_OP_plus_uconst 32, DW_OP_deref] $rsp
	#DEBUG_VALUE: read_skip_flag_CABAC_p_slice:currSlice <- [DW_OP_plus_uconst 96, DW_OP_deref] $rsp
	.loc	0 0 7 is_stmt 0                 # ldecod_src/cabac.c:0:7
	movl	$1, 8(%rsp)                     # 4-byte Folded Spill
	#DEBUG_VALUE: read_skip_flag_CABAC_p_slice:se <- $rax
.Ltmp123:
	#DEBUG_VALUE: check_next_mb_and_get_field_mode_CABAC_p_slice:se <- $rax
	jmp	.LBB7_19
.Ltmp124:
.LBB7_11:                               # %read_skip_flag_CABAC_p_slice.exit.thread
	#DEBUG_VALUE: check_next_mb_and_get_field_mode_CABAC_p_slice:currSlice <- [DW_OP_plus_uconst 112] [$rsp+0]
	#DEBUG_VALUE: check_next_mb_and_get_field_mode_CABAC_p_slice:se <- [DW_OP_plus_uconst 8] [$rsp+0]
	#DEBUG_VALUE: check_next_mb_and_get_field_mode_CABAC_p_slice:act_dp <- [DW_OP_plus_uconst 16] [$rsp+0]
	#DEBUG_VALUE: check_next_mb_and_get_field_mode_CABAC_p_slice:mot_ctx <- $rbp
	#DEBUG_VALUE: check_next_mb_and_get_field_mode_CABAC_p_slice:dep_dp <- [DW_OP_plus_uconst 32, DW_OP_deref] $rsp
	#DEBUG_VALUE: check_next_mb_and_get_field_mode_CABAC_p_slice:skip <- 0
	#DEBUG_VALUE: check_next_mb_and_get_field_mode_CABAC_p_slice:field <- 0
	#DEBUG_VALUE: check_next_mb_and_get_field_mode_CABAC_p_slice:currMB <- $rbx
	#DEBUG_VALUE: check_next_mb_and_get_field_mode_CABAC_p_slice:dep_dp_copy <- [DW_OP_plus_uconst 56, DW_OP_deref] $rsp
	#DEBUG_VALUE: check_next_mb_and_get_field_mode_CABAC_p_slice:i <- 3
	#DEBUG_VALUE: check_next_mb_and_get_field_mode_CABAC_p_slice:mb_type_ctx_copy <- [DW_OP_plus_uconst 128, DW_OP_deref, DW_OP_LLVM_fragment 0 64] $rsp
	#DEBUG_VALUE: check_next_mb_and_get_field_mode_CABAC_p_slice:mb_type_ctx_copy <- [DW_OP_plus_uconst 120, DW_OP_deref, DW_OP_LLVM_fragment 64 64] $rsp
	#DEBUG_VALUE: check_next_mb_and_get_field_mode_CABAC_p_slice:mb_type_ctx_copy <- [DW_OP_plus_uconst 48, DW_OP_deref, DW_OP_LLVM_fragment 128 64] $rsp
	#DEBUG_VALUE: check_next_mb_and_get_field_mode_CABAC_p_slice:mb_aff_ctx_copy <- [DW_OP_plus_uconst 40, DW_OP_deref] $rsp
	#DEBUG_VALUE: check_next_mb_and_get_field_mode_CABAC_p_slice:length <- [DW_OP_plus_uconst 28, DW_OP_deref] $rsp
	#DEBUG_VALUE: read_skip_flag_CABAC_p_slice:currMB <- $rbx
	#DEBUG_VALUE: read_skip_flag_CABAC_p_slice:se <- [DW_OP_plus_uconst 8, DW_OP_deref] $rsp
	#DEBUG_VALUE: read_skip_flag_CABAC_p_slice:dep_dp <- [DW_OP_plus_uconst 32, DW_OP_deref] $rsp
	#DEBUG_VALUE: read_skip_flag_CABAC_p_slice:currSlice <- [DW_OP_plus_uconst 96, DW_OP_deref] $rsp
	movq	8(%rsp), %rax                   # 8-byte Reload
.Ltmp125:
	movl	$1, 4(%rax)
.Ltmp126:
	#DEBUG_VALUE: check_next_mb_and_get_field_mode_CABAC_p_slice:skip <- [DW_OP_stack_value] 0
.LBB7_12:                               # %if.then
	#DEBUG_VALUE: check_next_mb_and_get_field_mode_CABAC_p_slice:currSlice <- [DW_OP_plus_uconst 112] [$rsp+0]
	#DEBUG_VALUE: check_next_mb_and_get_field_mode_CABAC_p_slice:se <- [DW_OP_plus_uconst 8] [$rsp+0]
	#DEBUG_VALUE: check_next_mb_and_get_field_mode_CABAC_p_slice:act_dp <- [DW_OP_plus_uconst 16] [$rsp+0]
	#DEBUG_VALUE: check_next_mb_and_get_field_mode_CABAC_p_slice:mot_ctx <- $rbp
	#DEBUG_VALUE: check_next_mb_and_get_field_mode_CABAC_p_slice:dep_dp <- [DW_OP_plus_uconst 32, DW_OP_deref] $rsp
	#DEBUG_VALUE: check_next_mb_and_get_field_mode_CABAC_p_slice:field <- 0
	#DEBUG_VALUE: check_next_mb_and_get_field_mode_CABAC_p_slice:currMB <- $rbx
	#DEBUG_VALUE: check_next_mb_and_get_field_mode_CABAC_p_slice:dep_dp_copy <- [DW_OP_plus_uconst 56, DW_OP_deref] $rsp
	#DEBUG_VALUE: check_next_mb_and_get_field_mode_CABAC_p_slice:i <- 3
	#DEBUG_VALUE: check_next_mb_and_get_field_mode_CABAC_p_slice:mb_type_ctx_copy <- [DW_OP_plus_uconst 128, DW_OP_deref, DW_OP_LLVM_fragment 0 64] $rsp
	#DEBUG_VALUE: check_next_mb_and_get_field_mode_CABAC_p_slice:mb_type_ctx_copy <- [DW_OP_plus_uconst 120, DW_OP_deref, DW_OP_LLVM_fragment 64 64] $rsp
	#DEBUG_VALUE: check_next_mb_and_get_field_mode_CABAC_p_slice:mb_type_ctx_copy <- [DW_OP_plus_uconst 48, DW_OP_deref, DW_OP_LLVM_fragment 128 64] $rsp
	#DEBUG_VALUE: check_next_mb_and_get_field_mode_CABAC_p_slice:mb_aff_ctx_copy <- [DW_OP_plus_uconst 40, DW_OP_deref] $rsp
	#DEBUG_VALUE: check_next_mb_and_get_field_mode_CABAC_p_slice:length <- [DW_OP_plus_uconst 28, DW_OP_deref] $rsp
	#DEBUG_VALUE: readFieldModeInfo_CABAC:currMB <- $rbx
	#DEBUG_VALUE: readFieldModeInfo_CABAC:se <- [DW_OP_plus_uconst 8, DW_OP_deref] $rsp
	#DEBUG_VALUE: readFieldModeInfo_CABAC:dep_dp <- [DW_OP_plus_uconst 32, DW_OP_deref] $rsp
	.loc	0 144 30 is_stmt 1              # ldecod_src/cabac.c:144:30
	movq	(%rbx), %rdx
.Ltmp127:
	#DEBUG_VALUE: readFieldModeInfo_CABAC:currSlice <- $rdx
	#DEBUG_VALUE: readFieldModeInfo_CABAC:ctx <- undef
	.loc	0 0 30 is_stmt 0                # ldecod_src/cabac.c:0:30
	xorl	%eax, %eax
	.loc	0 147 11 is_stmt 1              # ldecod_src/cabac.c:147:11
	cmpl	$0, 404(%rbx)
	movl	$0, %ecx
	je	.LBB7_14
.Ltmp128:
# %bb.13:                               # %cond.true.i130
	#DEBUG_VALUE: check_next_mb_and_get_field_mode_CABAC_p_slice:currSlice <- [DW_OP_plus_uconst 112] [$rsp+0]
	#DEBUG_VALUE: check_next_mb_and_get_field_mode_CABAC_p_slice:se <- [DW_OP_plus_uconst 8] [$rsp+0]
	#DEBUG_VALUE: check_next_mb_and_get_field_mode_CABAC_p_slice:act_dp <- [DW_OP_plus_uconst 16] [$rsp+0]
	#DEBUG_VALUE: check_next_mb_and_get_field_mode_CABAC_p_slice:mot_ctx <- $rbp
	#DEBUG_VALUE: check_next_mb_and_get_field_mode_CABAC_p_slice:dep_dp <- [DW_OP_plus_uconst 32, DW_OP_deref] $rsp
	#DEBUG_VALUE: check_next_mb_and_get_field_mode_CABAC_p_slice:field <- 0
	#DEBUG_VALUE: check_next_mb_and_get_field_mode_CABAC_p_slice:currMB <- $rbx
	#DEBUG_VALUE: check_next_mb_and_get_field_mode_CABAC_p_slice:dep_dp_copy <- [DW_OP_plus_uconst 56, DW_OP_deref] $rsp
	#DEBUG_VALUE: check_next_mb_and_get_field_mode_CABAC_p_slice:i <- 3
	#DEBUG_VALUE: check_next_mb_and_get_field_mode_CABAC_p_slice:mb_type_ctx_copy <- [DW_OP_plus_uconst 128, DW_OP_deref, DW_OP_LLVM_fragment 0 64] $rsp
	#DEBUG_VALUE: check_next_mb_and_get_field_mode_CABAC_p_slice:mb_type_ctx_copy <- [DW_OP_plus_uconst 120, DW_OP_deref, DW_OP_LLVM_fragment 64 64] $rsp
	#DEBUG_VALUE: check_next_mb_and_get_field_mode_CABAC_p_slice:mb_type_ctx_copy <- [DW_OP_plus_uconst 48, DW_OP_deref, DW_OP_LLVM_fragment 128 64] $rsp
	#DEBUG_VALUE: check_next_mb_and_get_field_mode_CABAC_p_slice:mb_aff_ctx_copy <- [DW_OP_plus_uconst 40, DW_OP_deref] $rsp
	#DEBUG_VALUE: check_next_mb_and_get_field_mode_CABAC_p_slice:length <- [DW_OP_plus_uconst 28, DW_OP_deref] $rsp
	#DEBUG_VALUE: readFieldModeInfo_CABAC:currMB <- $rbx
	#DEBUG_VALUE: readFieldModeInfo_CABAC:se <- [DW_OP_plus_uconst 8, DW_OP_deref] $rsp
	#DEBUG_VALUE: readFieldModeInfo_CABAC:dep_dp <- [DW_OP_plus_uconst 32, DW_OP_deref] $rsp
	#DEBUG_VALUE: readFieldModeInfo_CABAC:currSlice <- $rdx
	.loc	0 147 41 is_stmt 0              # ldecod_src/cabac.c:147:41
	movq	13512(%rdx), %rcx
	.loc	0 147 57                        # ldecod_src/cabac.c:147:57
	movslq	388(%rbx), %rsi
	.loc	0 147 66                        # ldecod_src/cabac.c:147:66
	imulq	$480, %rsi, %rsi                # imm = 0x1E0
	movl	384(%rcx,%rsi), %ecx
.Ltmp129:
.LBB7_14:                               # %cond.end.i133
	#DEBUG_VALUE: check_next_mb_and_get_field_mode_CABAC_p_slice:currSlice <- [DW_OP_plus_uconst 112] [$rsp+0]
	#DEBUG_VALUE: check_next_mb_and_get_field_mode_CABAC_p_slice:se <- [DW_OP_plus_uconst 8] [$rsp+0]
	#DEBUG_VALUE: check_next_mb_and_get_field_mode_CABAC_p_slice:act_dp <- [DW_OP_plus_uconst 16] [$rsp+0]
	#DEBUG_VALUE: check_next_mb_and_get_field_mode_CABAC_p_slice:mot_ctx <- $rbp
	#DEBUG_VALUE: check_next_mb_and_get_field_mode_CABAC_p_slice:dep_dp <- [DW_OP_plus_uconst 32, DW_OP_deref] $rsp
	#DEBUG_VALUE: check_next_mb_and_get_field_mode_CABAC_p_slice:field <- 0
	#DEBUG_VALUE: check_next_mb_and_get_field_mode_CABAC_p_slice:currMB <- $rbx
	#DEBUG_VALUE: check_next_mb_and_get_field_mode_CABAC_p_slice:dep_dp_copy <- [DW_OP_plus_uconst 56, DW_OP_deref] $rsp
	#DEBUG_VALUE: check_next_mb_and_get_field_mode_CABAC_p_slice:i <- 3
	#DEBUG_VALUE: check_next_mb_and_get_field_mode_CABAC_p_slice:mb_type_ctx_copy <- [DW_OP_plus_uconst 128, DW_OP_deref, DW_OP_LLVM_fragment 0 64] $rsp
	#DEBUG_VALUE: check_next_mb_and_get_field_mode_CABAC_p_slice:mb_type_ctx_copy <- [DW_OP_plus_uconst 120, DW_OP_deref, DW_OP_LLVM_fragment 64 64] $rsp
	#DEBUG_VALUE: check_next_mb_and_get_field_mode_CABAC_p_slice:mb_type_ctx_copy <- [DW_OP_plus_uconst 48, DW_OP_deref, DW_OP_LLVM_fragment 128 64] $rsp
	#DEBUG_VALUE: check_next_mb_and_get_field_mode_CABAC_p_slice:mb_aff_ctx_copy <- [DW_OP_plus_uconst 40, DW_OP_deref] $rsp
	#DEBUG_VALUE: check_next_mb_and_get_field_mode_CABAC_p_slice:length <- [DW_OP_plus_uconst 28, DW_OP_deref] $rsp
	#DEBUG_VALUE: readFieldModeInfo_CABAC:currMB <- $rbx
	#DEBUG_VALUE: readFieldModeInfo_CABAC:se <- [DW_OP_plus_uconst 8, DW_OP_deref] $rsp
	#DEBUG_VALUE: readFieldModeInfo_CABAC:dep_dp <- [DW_OP_plus_uconst 32, DW_OP_deref] $rsp
	#DEBUG_VALUE: readFieldModeInfo_CABAC:currSlice <- $rdx
	.loc	0 0 0                           # ldecod_src/cabac.c:0:0
	movq	320(%rdx), %rsi
.Ltmp130:
	#DEBUG_VALUE: readFieldModeInfo_CABAC:ctx <- $rsi
	#DEBUG_VALUE: readFieldModeInfo_CABAC:a <- $ecx
	.loc	0 148 11 is_stmt 1              # ldecod_src/cabac.c:148:11
	cmpl	$0, 408(%rbx)
	je	.LBB7_16
.Ltmp131:
# %bb.15:                               # %cond.true2.i
	#DEBUG_VALUE: check_next_mb_and_get_field_mode_CABAC_p_slice:currSlice <- [DW_OP_plus_uconst 112] [$rsp+0]
	#DEBUG_VALUE: check_next_mb_and_get_field_mode_CABAC_p_slice:se <- [DW_OP_plus_uconst 8] [$rsp+0]
	#DEBUG_VALUE: check_next_mb_and_get_field_mode_CABAC_p_slice:act_dp <- [DW_OP_plus_uconst 16] [$rsp+0]
	#DEBUG_VALUE: check_next_mb_and_get_field_mode_CABAC_p_slice:mot_ctx <- $rbp
	#DEBUG_VALUE: check_next_mb_and_get_field_mode_CABAC_p_slice:dep_dp <- [DW_OP_plus_uconst 32, DW_OP_deref] $rsp
	#DEBUG_VALUE: check_next_mb_and_get_field_mode_CABAC_p_slice:field <- 0
	#DEBUG_VALUE: check_next_mb_and_get_field_mode_CABAC_p_slice:currMB <- $rbx
	#DEBUG_VALUE: check_next_mb_and_get_field_mode_CABAC_p_slice:dep_dp_copy <- [DW_OP_plus_uconst 56, DW_OP_deref] $rsp
	#DEBUG_VALUE: check_next_mb_and_get_field_mode_CABAC_p_slice:i <- 3
	#DEBUG_VALUE: check_next_mb_and_get_field_mode_CABAC_p_slice:mb_type_ctx_copy <- [DW_OP_plus_uconst 128, DW_OP_deref, DW_OP_LLVM_fragment 0 64] $rsp
	#DEBUG_VALUE: check_next_mb_and_get_field_mode_CABAC_p_slice:mb_type_ctx_copy <- [DW_OP_plus_uconst 120, DW_OP_deref, DW_OP_LLVM_fragment 64 64] $rsp
	#DEBUG_VALUE: check_next_mb_and_get_field_mode_CABAC_p_slice:mb_type_ctx_copy <- [DW_OP_plus_uconst 48, DW_OP_deref, DW_OP_LLVM_fragment 128 64] $rsp
	#DEBUG_VALUE: check_next_mb_and_get_field_mode_CABAC_p_slice:mb_aff_ctx_copy <- [DW_OP_plus_uconst 40, DW_OP_deref] $rsp
	#DEBUG_VALUE: check_next_mb_and_get_field_mode_CABAC_p_slice:length <- [DW_OP_plus_uconst 28, DW_OP_deref] $rsp
	#DEBUG_VALUE: readFieldModeInfo_CABAC:currMB <- $rbx
	#DEBUG_VALUE: readFieldModeInfo_CABAC:se <- [DW_OP_plus_uconst 8, DW_OP_deref] $rsp
	#DEBUG_VALUE: readFieldModeInfo_CABAC:dep_dp <- [DW_OP_plus_uconst 32, DW_OP_deref] $rsp
	#DEBUG_VALUE: readFieldModeInfo_CABAC:currSlice <- $rdx
	#DEBUG_VALUE: readFieldModeInfo_CABAC:ctx <- $rsi
	#DEBUG_VALUE: readFieldModeInfo_CABAC:a <- $ecx
	.loc	0 148 41 is_stmt 0              # ldecod_src/cabac.c:148:41
	movq	13512(%rdx), %rax
	.loc	0 148 57                        # ldecod_src/cabac.c:148:57
	movslq	392(%rbx), %rdx
.Ltmp132:
	.loc	0 148 66                        # ldecod_src/cabac.c:148:66
	imulq	$480, %rdx, %rdx                # imm = 0x1E0
	movl	384(%rax,%rdx), %eax
.Ltmp133:
.LBB7_16:                               # %readFieldModeInfo_CABAC.exit
	#DEBUG_VALUE: check_next_mb_and_get_field_mode_CABAC_p_slice:currSlice <- [DW_OP_plus_uconst 112] [$rsp+0]
	#DEBUG_VALUE: check_next_mb_and_get_field_mode_CABAC_p_slice:se <- [DW_OP_plus_uconst 8] [$rsp+0]
	#DEBUG_VALUE: check_next_mb_and_get_field_mode_CABAC_p_slice:act_dp <- [DW_OP_plus_uconst 16] [$rsp+0]
	#DEBUG_VALUE: check_next_mb_and_get_field_mode_CABAC_p_slice:mot_ctx <- $rbp
	#DEBUG_VALUE: check_next_mb_and_get_field_mode_CABAC_p_slice:dep_dp <- [DW_OP_plus_uconst 32, DW_OP_deref] $rsp
	#DEBUG_VALUE: check_next_mb_and_get_field_mode_CABAC_p_slice:field <- 0
	#DEBUG_VALUE: check_next_mb_and_get_field_mode_CABAC_p_slice:currMB <- $rbx
	#DEBUG_VALUE: check_next_mb_and_get_field_mode_CABAC_p_slice:dep_dp_copy <- [DW_OP_plus_uconst 56, DW_OP_deref] $rsp
	#DEBUG_VALUE: check_next_mb_and_get_field_mode_CABAC_p_slice:i <- 3
	#DEBUG_VALUE: check_next_mb_and_get_field_mode_CABAC_p_slice:mb_type_ctx_copy <- [DW_OP_plus_uconst 128, DW_OP_deref, DW_OP_LLVM_fragment 0 64] $rsp
	#DEBUG_VALUE: check_next_mb_and_get_field_mode_CABAC_p_slice:mb_type_ctx_copy <- [DW_OP_plus_uconst 120, DW_OP_deref, DW_OP_LLVM_fragment 64 64] $rsp
	#DEBUG_VALUE: check_next_mb_and_get_field_mode_CABAC_p_slice:mb_type_ctx_copy <- [DW_OP_plus_uconst 48, DW_OP_deref, DW_OP_LLVM_fragment 128 64] $rsp
	#DEBUG_VALUE: check_next_mb_and_get_field_mode_CABAC_p_slice:mb_aff_ctx_copy <- [DW_OP_plus_uconst 40, DW_OP_deref] $rsp
	#DEBUG_VALUE: check_next_mb_and_get_field_mode_CABAC_p_slice:length <- [DW_OP_plus_uconst 28, DW_OP_deref] $rsp
	#DEBUG_VALUE: readFieldModeInfo_CABAC:currMB <- $rbx
	#DEBUG_VALUE: readFieldModeInfo_CABAC:se <- [DW_OP_plus_uconst 8, DW_OP_deref] $rsp
	#DEBUG_VALUE: readFieldModeInfo_CABAC:dep_dp <- [DW_OP_plus_uconst 32, DW_OP_deref] $rsp
	#DEBUG_VALUE: readFieldModeInfo_CABAC:ctx <- $rsi
	#DEBUG_VALUE: readFieldModeInfo_CABAC:a <- $ecx
	#DEBUG_VALUE: readFieldModeInfo_CABAC:b <- $eax
	.loc	0 149 19 is_stmt 1              # ldecod_src/cabac.c:149:19
	addl	%ecx, %eax
.Ltmp134:
	#DEBUG_VALUE: readFieldModeInfo_CABAC:act_ctx <- $eax
	.loc	0 151 46                        # ldecod_src/cabac.c:151:46
	cltq
.Ltmp135:
	leaq	(%rsi,%rax,4), %rsi
.Ltmp136:
	addq	$348, %rsi                      # imm = 0x15C
	.loc	0 151 16 is_stmt 0              # ldecod_src/cabac.c:151:16
	movq	%r13, %rdi
	callq	biari_decode_symbol@PLT
.Ltmp137:
	#DEBUG_VALUE: check_next_mb_and_get_field_mode_CABAC_p_slice:field <- $eax
	.loc	0 0 16                          # ldecod_src/cabac.c:0:16
	movq	8(%rsp), %rcx                   # 8-byte Reload
	.loc	0 151 14                        # ldecod_src/cabac.c:151:14
	movl	%eax, 4(%rcx)
.Ltmp138:
	.loc	0 222 16 is_stmt 1              # ldecod_src/cabac.c:222:16
	movq	13512(%r15), %rcx
	.loc	0 222 35 is_stmt 0              # ldecod_src/cabac.c:222:35
	movl	108(%r15), %edx
	.loc	0 222 48                        # ldecod_src/cabac.c:222:48
	decl	%edx
	.loc	0 222 52                        # ldecod_src/cabac.c:222:52
	imulq	$480, %rdx, %rdx                # imm = 0x1E0
	.loc	0 222 61                        # ldecod_src/cabac.c:222:61
	movl	%eax, 384(%rcx,%rdx)
	movl	$0, 8(%rsp)                     # 4-byte Folded Spill
.Ltmp139:
	#DEBUG_VALUE: readFieldModeInfo_CABAC:se <- undef
	#DEBUG_VALUE: check_next_mb_and_get_field_mode_CABAC_p_slice:se <- undef
.LBB7_19:                               # %if.end
	#DEBUG_VALUE: check_next_mb_and_get_field_mode_CABAC_p_slice:currSlice <- [DW_OP_plus_uconst 112] [$rsp+0]
	#DEBUG_VALUE: check_next_mb_and_get_field_mode_CABAC_p_slice:se <- [DW_OP_LLVM_entry_value 1] $rsi
	#DEBUG_VALUE: check_next_mb_and_get_field_mode_CABAC_p_slice:act_dp <- [DW_OP_plus_uconst 16] [$rsp+0]
	#DEBUG_VALUE: check_next_mb_and_get_field_mode_CABAC_p_slice:mot_ctx <- $rbp
	#DEBUG_VALUE: check_next_mb_and_get_field_mode_CABAC_p_slice:dep_dp <- [DW_OP_plus_uconst 32, DW_OP_deref] $rsp
	#DEBUG_VALUE: check_next_mb_and_get_field_mode_CABAC_p_slice:currMB <- $rbx
	#DEBUG_VALUE: check_next_mb_and_get_field_mode_CABAC_p_slice:dep_dp_copy <- [DW_OP_plus_uconst 56, DW_OP_deref] $rsp
	#DEBUG_VALUE: check_next_mb_and_get_field_mode_CABAC_p_slice:i <- 3
	#DEBUG_VALUE: check_next_mb_and_get_field_mode_CABAC_p_slice:mb_type_ctx_copy <- [DW_OP_plus_uconst 128, DW_OP_deref, DW_OP_LLVM_fragment 0 64] $rsp
	#DEBUG_VALUE: check_next_mb_and_get_field_mode_CABAC_p_slice:mb_type_ctx_copy <- [DW_OP_plus_uconst 120, DW_OP_deref, DW_OP_LLVM_fragment 64 64] $rsp
	#DEBUG_VALUE: check_next_mb_and_get_field_mode_CABAC_p_slice:mb_type_ctx_copy <- [DW_OP_plus_uconst 48, DW_OP_deref, DW_OP_LLVM_fragment 128 64] $rsp
	#DEBUG_VALUE: check_next_mb_and_get_field_mode_CABAC_p_slice:mb_aff_ctx_copy <- [DW_OP_plus_uconst 40, DW_OP_deref] $rsp
	#DEBUG_VALUE: check_next_mb_and_get_field_mode_CABAC_p_slice:length <- [DW_OP_plus_uconst 28, DW_OP_deref] $rsp
	.loc	0 226 27 is_stmt 1              # ldecod_src/cabac.c:226:27
	decl	108(%r15)
	movq	56(%rsp), %rax                  # 8-byte Reload
	.loc	0 228 3                         # ldecod_src/cabac.c:228:3
	movups	(%rax), %xmm0
	movups	16(%rax), %xmm1
	movups	%xmm1, 16(%r13)
	movups	%xmm0, (%r13)
	movq	16(%rsp), %rax                  # 8-byte Reload
	.loc	0 229 13                        # ldecod_src/cabac.c:229:13
	movq	32(%rax), %rax
	movl	28(%rsp), %ecx                  # 4-byte Reload
	.loc	0 229 28 is_stmt 0              # ldecod_src/cabac.c:229:28
	movl	%ecx, (%rax)
.Ltmp140:
	#DEBUG_VALUE: check_next_mb_and_get_field_mode_CABAC_p_slice:i <- 0
	.loc	0 0 28                          # ldecod_src/cabac.c:0:28
	movq	128(%rsp), %r13                 # 8-byte Reload
.Ltmp141:
	.loc	0 231 5 is_stmt 1               # ldecod_src/cabac.c:231:5
	movups	(%r13), %xmm0
	movups	16(%r13), %xmm1
	movups	28(%r13), %xmm2
	movups	%xmm2, 28(%rbp)
	movups	%xmm1, 16(%rbp)
	movups	%xmm0, (%rbp)
.Ltmp142:
	#DEBUG_VALUE: check_next_mb_and_get_field_mode_CABAC_p_slice:i <- 1
	.loc	0 0 5 is_stmt 0                 # ldecod_src/cabac.c:0:5
	movq	120(%rsp), %rbp                 # 8-byte Reload
.Ltmp143:
	.loc	0 231 5                         # ldecod_src/cabac.c:231:5
	movups	(%rbp), %xmm0
	movups	16(%rbp), %xmm1
	movups	28(%rbp), %xmm2
	movups	%xmm2, 28(%r14)
	movups	%xmm1, 16(%r14)
	movups	%xmm0, (%r14)
.Ltmp144:
	#DEBUG_VALUE: check_next_mb_and_get_field_mode_CABAC_p_slice:i <- 2
	.loc	0 0 5                           # ldecod_src/cabac.c:0:5
	movq	48(%rsp), %rax                  # 8-byte Reload
	.loc	0 231 5                         # ldecod_src/cabac.c:231:5
	movups	(%rax), %xmm0
	movups	16(%rax), %xmm1
	movups	28(%rax), %xmm2
	movups	%xmm2, 28(%r12)
	movups	%xmm1, 16(%r12)
	movups	%xmm0, (%r12)
.Ltmp145:
	#DEBUG_VALUE: check_next_mb_and_get_field_mode_CABAC_p_slice:i <- 3
	.loc	0 0 5                           # ldecod_src/cabac.c:0:5
	movq	40(%rsp), %rax                  # 8-byte Reload
.Ltmp146:
	.loc	0 232 3 is_stmt 1               # ldecod_src/cabac.c:232:3
	movups	(%rax), %xmm0
	movq	104(%rsp), %rax                 # 8-byte Reload
	movups	%xmm0, (%rax)
.Ltmp147:
	#DEBUG_VALUE: CheckAvailabilityOfNeighborsCABAC:left <- [DW_OP_plus_uconst 64, DW_OP_deref] $rsp
	#DEBUG_VALUE: CheckAvailabilityOfNeighborsCABAC:currMB <- $rbx
	.loc	0 47 36                         # ldecod_src/cabac.c:47:36
	movq	8(%rbx), %r12
.Ltmp148:
	#DEBUG_VALUE: CheckAvailabilityOfNeighborsCABAC:p_Vid <- $r12
	.loc	0 49 25                         # ldecod_src/cabac.c:49:25
	leaq	849124(%r12), %r15
.Ltmp149:
	#DEBUG_VALUE: CheckAvailabilityOfNeighborsCABAC:mb_size <- $r15
	.loc	0 0 25 is_stmt 0                # ldecod_src/cabac.c:0:25
	xorl	%r14d, %r14d
	leaq	64(%rsp), %r8
	.loc	0 51 3 is_stmt 1                # ldecod_src/cabac.c:51:3
	movq	%rbx, %rdi
	movl	$-1, %esi
	xorl	%edx, %edx
	movq	%r15, %rcx
	callq	*856744(%r12)
.Ltmp150:
	.loc	0 0 3 is_stmt 0                 # ldecod_src/cabac.c:0:3
	leaq	80(%rsp), %r8
	.loc	0 52 3 is_stmt 1                # ldecod_src/cabac.c:52:3
	movq	%rbx, %rdi
	xorl	%esi, %esi
	movl	$-1, %edx
	movq	%r15, %rcx
	callq	*856744(%r12)
.Ltmp151:
	.loc	0 54 7                          # ldecod_src/cabac.c:54:7
	cmpl	$0, 80(%rsp)
.Ltmp152:
	.loc	0 54 7 is_stmt 0                # ldecod_src/cabac.c:54:7
	je	.LBB7_21
.Ltmp153:
# %bb.20:                               # %if.then.i143
	#DEBUG_VALUE: check_next_mb_and_get_field_mode_CABAC_p_slice:currSlice <- [DW_OP_plus_uconst 112] [$rsp+0]
	#DEBUG_VALUE: check_next_mb_and_get_field_mode_CABAC_p_slice:se <- [DW_OP_LLVM_entry_value 1] $rsi
	#DEBUG_VALUE: check_next_mb_and_get_field_mode_CABAC_p_slice:act_dp <- [DW_OP_plus_uconst 16] [$rsp+0]
	#DEBUG_VALUE: check_next_mb_and_get_field_mode_CABAC_p_slice:dep_dp <- [DW_OP_plus_uconst 32, DW_OP_deref] $rsp
	#DEBUG_VALUE: check_next_mb_and_get_field_mode_CABAC_p_slice:currMB <- $rbx
	#DEBUG_VALUE: check_next_mb_and_get_field_mode_CABAC_p_slice:dep_dp_copy <- [DW_OP_plus_uconst 56, DW_OP_deref] $rsp
	#DEBUG_VALUE: check_next_mb_and_get_field_mode_CABAC_p_slice:i <- 3
	#DEBUG_VALUE: check_next_mb_and_get_field_mode_CABAC_p_slice:mb_type_ctx_copy <- [DW_OP_plus_uconst 128, DW_OP_deref, DW_OP_LLVM_fragment 0 64] $rsp
	#DEBUG_VALUE: check_next_mb_and_get_field_mode_CABAC_p_slice:mb_type_ctx_copy <- [DW_OP_plus_uconst 120, DW_OP_deref, DW_OP_LLVM_fragment 64 64] $rsp
	#DEBUG_VALUE: check_next_mb_and_get_field_mode_CABAC_p_slice:mb_type_ctx_copy <- [DW_OP_plus_uconst 48, DW_OP_deref, DW_OP_LLVM_fragment 128 64] $rsp
	#DEBUG_VALUE: check_next_mb_and_get_field_mode_CABAC_p_slice:mb_aff_ctx_copy <- [DW_OP_plus_uconst 40, DW_OP_deref] $rsp
	#DEBUG_VALUE: check_next_mb_and_get_field_mode_CABAC_p_slice:length <- [DW_OP_plus_uconst 28, DW_OP_deref] $rsp
	#DEBUG_VALUE: CheckAvailabilityOfNeighborsCABAC:left <- [DW_OP_plus_uconst 64, DW_OP_deref] $rsp
	#DEBUG_VALUE: CheckAvailabilityOfNeighborsCABAC:currMB <- $rbx
	#DEBUG_VALUE: CheckAvailabilityOfNeighborsCABAC:p_Vid <- $r12
	#DEBUG_VALUE: CheckAvailabilityOfNeighborsCABAC:mb_size <- $r15
	.loc	0 55 30 is_stmt 1               # ldecod_src/cabac.c:55:30
	movq	(%rbx), %rax
	.loc	0 55 50 is_stmt 0               # ldecod_src/cabac.c:55:50
	movslq	84(%rsp), %rcx
	.loc	0 55 22                         # ldecod_src/cabac.c:55:22
	imulq	$480, %rcx, %r14                # imm = 0x1E0
	addq	13512(%rax), %r14
.Ltmp154:
.LBB7_21:                               # %if.end.i148
	#DEBUG_VALUE: check_next_mb_and_get_field_mode_CABAC_p_slice:currSlice <- [DW_OP_plus_uconst 112] [$rsp+0]
	#DEBUG_VALUE: check_next_mb_and_get_field_mode_CABAC_p_slice:se <- [DW_OP_LLVM_entry_value 1] $rsi
	#DEBUG_VALUE: check_next_mb_and_get_field_mode_CABAC_p_slice:act_dp <- [DW_OP_plus_uconst 16] [$rsp+0]
	#DEBUG_VALUE: check_next_mb_and_get_field_mode_CABAC_p_slice:dep_dp <- [DW_OP_plus_uconst 32, DW_OP_deref] $rsp
	#DEBUG_VALUE: check_next_mb_and_get_field_mode_CABAC_p_slice:currMB <- $rbx
	#DEBUG_VALUE: check_next_mb_and_get_field_mode_CABAC_p_slice:dep_dp_copy <- [DW_OP_plus_uconst 56, DW_OP_deref] $rsp
	#DEBUG_VALUE: check_next_mb_and_get_field_mode_CABAC_p_slice:i <- 3
	#DEBUG_VALUE: check_next_mb_and_get_field_mode_CABAC_p_slice:mb_type_ctx_copy <- [DW_OP_plus_uconst 128, DW_OP_deref, DW_OP_LLVM_fragment 0 64] $rsp
	#DEBUG_VALUE: check_next_mb_and_get_field_mode_CABAC_p_slice:mb_type_ctx_copy <- [DW_OP_plus_uconst 120, DW_OP_deref, DW_OP_LLVM_fragment 64 64] $rsp
	#DEBUG_VALUE: check_next_mb_and_get_field_mode_CABAC_p_slice:mb_type_ctx_copy <- [DW_OP_plus_uconst 48, DW_OP_deref, DW_OP_LLVM_fragment 128 64] $rsp
	#DEBUG_VALUE: check_next_mb_and_get_field_mode_CABAC_p_slice:mb_aff_ctx_copy <- [DW_OP_plus_uconst 40, DW_OP_deref] $rsp
	#DEBUG_VALUE: check_next_mb_and_get_field_mode_CABAC_p_slice:length <- [DW_OP_plus_uconst 28, DW_OP_deref] $rsp
	#DEBUG_VALUE: CheckAvailabilityOfNeighborsCABAC:left <- [DW_OP_plus_uconst 64, DW_OP_deref] $rsp
	#DEBUG_VALUE: CheckAvailabilityOfNeighborsCABAC:currMB <- $rbx
	#DEBUG_VALUE: CheckAvailabilityOfNeighborsCABAC:p_Vid <- $r12
	#DEBUG_VALUE: CheckAvailabilityOfNeighborsCABAC:mb_size <- $r15
	.loc	0 0 0                           # ldecod_src/cabac.c:0:0
	movq	%r14, 120(%rbx)
.Ltmp155:
	.loc	0 59 7 is_stmt 1                # ldecod_src/cabac.c:59:7
	cmpl	$0, 64(%rsp)
.Ltmp156:
	.loc	0 59 7 is_stmt 0                # ldecod_src/cabac.c:59:7
	je	.LBB7_22
.Ltmp157:
# %bb.23:                               # %if.then8.i151
	#DEBUG_VALUE: check_next_mb_and_get_field_mode_CABAC_p_slice:currSlice <- [DW_OP_plus_uconst 112] [$rsp+0]
	#DEBUG_VALUE: check_next_mb_and_get_field_mode_CABAC_p_slice:se <- [DW_OP_LLVM_entry_value 1] $rsi
	#DEBUG_VALUE: check_next_mb_and_get_field_mode_CABAC_p_slice:act_dp <- [DW_OP_plus_uconst 16] [$rsp+0]
	#DEBUG_VALUE: check_next_mb_and_get_field_mode_CABAC_p_slice:dep_dp <- [DW_OP_plus_uconst 32, DW_OP_deref] $rsp
	#DEBUG_VALUE: check_next_mb_and_get_field_mode_CABAC_p_slice:currMB <- $rbx
	#DEBUG_VALUE: check_next_mb_and_get_field_mode_CABAC_p_slice:dep_dp_copy <- [DW_OP_plus_uconst 56, DW_OP_deref] $rsp
	#DEBUG_VALUE: check_next_mb_and_get_field_mode_CABAC_p_slice:i <- 3
	#DEBUG_VALUE: check_next_mb_and_get_field_mode_CABAC_p_slice:mb_type_ctx_copy <- [DW_OP_plus_uconst 128, DW_OP_deref, DW_OP_LLVM_fragment 0 64] $rsp
	#DEBUG_VALUE: check_next_mb_and_get_field_mode_CABAC_p_slice:mb_type_ctx_copy <- [DW_OP_plus_uconst 120, DW_OP_deref, DW_OP_LLVM_fragment 64 64] $rsp
	#DEBUG_VALUE: check_next_mb_and_get_field_mode_CABAC_p_slice:mb_type_ctx_copy <- [DW_OP_plus_uconst 48, DW_OP_deref, DW_OP_LLVM_fragment 128 64] $rsp
	#DEBUG_VALUE: check_next_mb_and_get_field_mode_CABAC_p_slice:mb_aff_ctx_copy <- [DW_OP_plus_uconst 40, DW_OP_deref] $rsp
	#DEBUG_VALUE: check_next_mb_and_get_field_mode_CABAC_p_slice:length <- [DW_OP_plus_uconst 28, DW_OP_deref] $rsp
	#DEBUG_VALUE: CheckAvailabilityOfNeighborsCABAC:left <- [DW_OP_plus_uconst 64, DW_OP_deref] $rsp
	#DEBUG_VALUE: CheckAvailabilityOfNeighborsCABAC:currMB <- $rbx
	#DEBUG_VALUE: CheckAvailabilityOfNeighborsCABAC:p_Vid <- $r12
	#DEBUG_VALUE: CheckAvailabilityOfNeighborsCABAC:mb_size <- $r15
	.loc	0 60 32 is_stmt 1               # ldecod_src/cabac.c:60:32
	movq	(%rbx), %rcx
	.loc	0 60 54 is_stmt 0               # ldecod_src/cabac.c:60:54
	movslq	68(%rsp), %rax
	.loc	0 60 24                         # ldecod_src/cabac.c:60:24
	imulq	$480, %rax, %rax                # imm = 0x1E0
	addq	13512(%rcx), %rax
	jmp	.LBB7_24
.Ltmp158:
.LBB7_22:
	#DEBUG_VALUE: check_next_mb_and_get_field_mode_CABAC_p_slice:currSlice <- [DW_OP_plus_uconst 112] [$rsp+0]
	#DEBUG_VALUE: check_next_mb_and_get_field_mode_CABAC_p_slice:se <- [DW_OP_LLVM_entry_value 1] $rsi
	#DEBUG_VALUE: check_next_mb_and_get_field_mode_CABAC_p_slice:act_dp <- [DW_OP_plus_uconst 16] [$rsp+0]
	#DEBUG_VALUE: check_next_mb_and_get_field_mode_CABAC_p_slice:dep_dp <- [DW_OP_plus_uconst 32, DW_OP_deref] $rsp
	#DEBUG_VALUE: check_next_mb_and_get_field_mode_CABAC_p_slice:currMB <- $rbx
	#DEBUG_VALUE: check_next_mb_and_get_field_mode_CABAC_p_slice:dep_dp_copy <- [DW_OP_plus_uconst 56, DW_OP_deref] $rsp
	#DEBUG_VALUE: check_next_mb_and_get_field_mode_CABAC_p_slice:i <- 3
	#DEBUG_VALUE: check_next_mb_and_get_field_mode_CABAC_p_slice:mb_type_ctx_copy <- [DW_OP_plus_uconst 128, DW_OP_deref, DW_OP_LLVM_fragment 0 64] $rsp
	#DEBUG_VALUE: check_next_mb_and_get_field_mode_CABAC_p_slice:mb_type_ctx_copy <- [DW_OP_plus_uconst 120, DW_OP_deref, DW_OP_LLVM_fragment 64 64] $rsp
	#DEBUG_VALUE: check_next_mb_and_get_field_mode_CABAC_p_slice:mb_type_ctx_copy <- [DW_OP_plus_uconst 48, DW_OP_deref, DW_OP_LLVM_fragment 128 64] $rsp
	#DEBUG_VALUE: check_next_mb_and_get_field_mode_CABAC_p_slice:mb_aff_ctx_copy <- [DW_OP_plus_uconst 40, DW_OP_deref] $rsp
	#DEBUG_VALUE: check_next_mb_and_get_field_mode_CABAC_p_slice:length <- [DW_OP_plus_uconst 28, DW_OP_deref] $rsp
	#DEBUG_VALUE: CheckAvailabilityOfNeighborsCABAC:left <- [DW_OP_plus_uconst 64, DW_OP_deref] $rsp
	#DEBUG_VALUE: CheckAvailabilityOfNeighborsCABAC:currMB <- $rbx
	#DEBUG_VALUE: CheckAvailabilityOfNeighborsCABAC:p_Vid <- $r12
	#DEBUG_VALUE: CheckAvailabilityOfNeighborsCABAC:mb_size <- $r15
	.loc	0 0 24                          # ldecod_src/cabac.c:0:24
	xorl	%eax, %eax
.Ltmp159:
.LBB7_24:                               # %CheckAvailabilityOfNeighborsCABAC.exit157
	#DEBUG_VALUE: check_next_mb_and_get_field_mode_CABAC_p_slice:currSlice <- [DW_OP_plus_uconst 112] [$rsp+0]
	#DEBUG_VALUE: check_next_mb_and_get_field_mode_CABAC_p_slice:se <- [DW_OP_LLVM_entry_value 1] $rsi
	#DEBUG_VALUE: check_next_mb_and_get_field_mode_CABAC_p_slice:act_dp <- [DW_OP_plus_uconst 16] [$rsp+0]
	#DEBUG_VALUE: check_next_mb_and_get_field_mode_CABAC_p_slice:dep_dp <- [DW_OP_plus_uconst 32, DW_OP_deref] $rsp
	#DEBUG_VALUE: check_next_mb_and_get_field_mode_CABAC_p_slice:currMB <- $rbx
	#DEBUG_VALUE: check_next_mb_and_get_field_mode_CABAC_p_slice:dep_dp_copy <- [DW_OP_plus_uconst 56, DW_OP_deref] $rsp
	#DEBUG_VALUE: check_next_mb_and_get_field_mode_CABAC_p_slice:i <- 3
	#DEBUG_VALUE: check_next_mb_and_get_field_mode_CABAC_p_slice:mb_type_ctx_copy <- [DW_OP_plus_uconst 128, DW_OP_deref, DW_OP_LLVM_fragment 0 64] $rsp
	#DEBUG_VALUE: check_next_mb_and_get_field_mode_CABAC_p_slice:mb_type_ctx_copy <- [DW_OP_plus_uconst 120, DW_OP_deref, DW_OP_LLVM_fragment 64 64] $rsp
	#DEBUG_VALUE: check_next_mb_and_get_field_mode_CABAC_p_slice:mb_type_ctx_copy <- [DW_OP_plus_uconst 48, DW_OP_deref, DW_OP_LLVM_fragment 128 64] $rsp
	#DEBUG_VALUE: check_next_mb_and_get_field_mode_CABAC_p_slice:mb_aff_ctx_copy <- [DW_OP_plus_uconst 40, DW_OP_deref] $rsp
	#DEBUG_VALUE: check_next_mb_and_get_field_mode_CABAC_p_slice:length <- [DW_OP_plus_uconst 28, DW_OP_deref] $rsp
	#DEBUG_VALUE: CheckAvailabilityOfNeighborsCABAC:left <- [DW_OP_plus_uconst 64, DW_OP_deref] $rsp
	#DEBUG_VALUE: CheckAvailabilityOfNeighborsCABAC:currMB <- $rbx
	#DEBUG_VALUE: CheckAvailabilityOfNeighborsCABAC:p_Vid <- $r12
	#DEBUG_VALUE: CheckAvailabilityOfNeighborsCABAC:mb_size <- $r15
	movq	%rax, 128(%rbx)
	movq	56(%rsp), %rdi                  # 8-byte Reload
.Ltmp160:
	.loc	0 237 3 is_stmt 1               # ldecod_src/cabac.c:237:3
	callq	free@PLT
.Ltmp161:
	#DEBUG_VALUE: check_next_mb_and_get_field_mode_CABAC_p_slice:i <- 0
	.loc	0 239 5                         # ldecod_src/cabac.c:239:5
	movq	%r13, %rdi
	callq	free@PLT
.Ltmp162:
	#DEBUG_VALUE: check_next_mb_and_get_field_mode_CABAC_p_slice:i <- 1
	movq	%rbp, %rdi
	callq	free@PLT
.Ltmp163:
	#DEBUG_VALUE: check_next_mb_and_get_field_mode_CABAC_p_slice:i <- 2
	.loc	0 0 5 is_stmt 0                 # ldecod_src/cabac.c:0:5
	movq	48(%rsp), %rdi                  # 8-byte Reload
	.loc	0 239 5                         # ldecod_src/cabac.c:239:5
	callq	free@PLT
.Ltmp164:
	#DEBUG_VALUE: check_next_mb_and_get_field_mode_CABAC_p_slice:i <- 3
	#DEBUG_VALUE: check_next_mb_and_get_field_mode_CABAC_p_slice:skip <- [DW_OP_plus_uconst 8, DW_OP_deref] $rsp
	.loc	0 0 5                           # ldecod_src/cabac.c:0:5
	movq	40(%rsp), %rdi                  # 8-byte Reload
.Ltmp165:
	.loc	0 240 3 is_stmt 1               # ldecod_src/cabac.c:240:3
	callq	free@PLT
.Ltmp166:
	.loc	0 0 3 is_stmt 0                 # ldecod_src/cabac.c:0:3
	movl	8(%rsp), %eax                   # 4-byte Reload
	.loc	0 242 3 epilogue_begin is_stmt 1 # ldecod_src/cabac.c:242:3
	addq	$136, %rsp
	.cfi_def_cfa_offset 56
	popq	%rbx
.Ltmp167:
	.cfi_def_cfa_offset 48
	popq	%r12
.Ltmp168:
	.cfi_def_cfa_offset 40
	popq	%r13
	.cfi_def_cfa_offset 32
	popq	%r14
	.cfi_def_cfa_offset 24
	popq	%r15
.Ltmp169:
	.cfi_def_cfa_offset 16
	popq	%rbp
	.cfi_def_cfa_offset 8
	retq
.Ltmp170:
.Lfunc_end7:
	.size	check_next_mb_and_get_field_mode_CABAC_p_slice, .Lfunc_end7-check_next_mb_and_get_field_mode_CABAC_p_slice
	.cfi_endproc
	.file	17 "ldecod_src/inc" "parsetcommon.h" md5 0xd59d7e00f3aec3a23ed88314ae35b687
	.file	18 "ldecod_src/inc" "io_image.h" md5 0x8caef624e6f5391b0c6ab2984e7f77c6
	.file	19 "ldecod_src/inc" "mbuffer.h" md5 0x1ba7faf5f978b0f36a8f480bbf7b3401
	.file	20 "ldecod_src/inc" "mb_access.h" md5 0xeb590c3fb983e8661ba693913fa8cfd2
                                        # -- End function
	.globl	read_skip_flag_CABAC_p_slice    # -- Begin function read_skip_flag_CABAC_p_slice
	.p2align	4, 0x90
	.type	read_skip_flag_CABAC_p_slice,@function
read_skip_flag_CABAC_p_slice:           # @read_skip_flag_CABAC_p_slice
.Lfunc_begin8:
	.loc	0 535 0                         # ldecod_src/cabac.c:535:0
	.cfi_startproc
# %bb.0:                                # %entry
	#DEBUG_VALUE: read_skip_flag_CABAC_p_slice:currMB <- $rdi
	#DEBUG_VALUE: read_skip_flag_CABAC_p_slice:se <- $rsi
	#DEBUG_VALUE: read_skip_flag_CABAC_p_slice:dep_dp <- $rdx
	pushq	%r14
	.cfi_def_cfa_offset 16
	pushq	%rbx
	.cfi_def_cfa_offset 24
	pushq	%rax
	.cfi_def_cfa_offset 32
	.cfi_offset %rbx, -24
	.cfi_offset %r14, -16
	movq	%rsi, %rbx
.Ltmp171:
	.loc	0 536 30 prologue_end           # ldecod_src/cabac.c:536:30
	movq	(%rdi), %r14
.Ltmp172:
	#DEBUG_VALUE: read_skip_flag_CABAC_p_slice:currSlice <- $r14
	.loc	0 538 20                        # ldecod_src/cabac.c:538:20
	movq	128(%rdi), %rcx
.Ltmp173:
	#DEBUG_VALUE: read_skip_flag_CABAC_p_slice:ctx <- undef
	.loc	0 538 67 is_stmt 0              # ldecod_src/cabac.c:538:67
	xorl	%eax, %eax
	.loc	0 538 28                        # ldecod_src/cabac.c:538:28
	testq	%rcx, %rcx
	.loc	0 538 11                        # ldecod_src/cabac.c:538:11
	je	.LBB8_2
.Ltmp174:
# %bb.1:                                # %cond.true
	#DEBUG_VALUE: read_skip_flag_CABAC_p_slice:currMB <- $rdi
	#DEBUG_VALUE: read_skip_flag_CABAC_p_slice:se <- $rbx
	#DEBUG_VALUE: read_skip_flag_CABAC_p_slice:dep_dp <- $rdx
	#DEBUG_VALUE: read_skip_flag_CABAC_p_slice:currSlice <- $r14
	.loc	0 538 67                        # ldecod_src/cabac.c:538:67
	cmpb	$0, 374(%rcx)
	sete	%al
.Ltmp175:
.LBB8_2:                                # %cond.end
	#DEBUG_VALUE: read_skip_flag_CABAC_p_slice:currMB <- $rdi
	#DEBUG_VALUE: read_skip_flag_CABAC_p_slice:se <- $rbx
	#DEBUG_VALUE: read_skip_flag_CABAC_p_slice:dep_dp <- $rdx
	#DEBUG_VALUE: read_skip_flag_CABAC_p_slice:currSlice <- $r14
	.loc	0 0 0                           # ldecod_src/cabac.c:0:0
	movq	320(%r14), %rcx
.Ltmp176:
	#DEBUG_VALUE: read_skip_flag_CABAC_p_slice:ctx <- $rcx
	#DEBUG_VALUE: read_skip_flag_CABAC_p_slice:a <- undef
	.loc	0 539 20 is_stmt 1              # ldecod_src/cabac.c:539:20
	movq	120(%rdi), %rdi
.Ltmp177:
	#DEBUG_VALUE: read_skip_flag_CABAC_p_slice:currMB <- [DW_OP_LLVM_entry_value 1] $rdi
	.loc	0 539 67 is_stmt 0              # ldecod_src/cabac.c:539:67
	xorl	%esi, %esi
	.loc	0 539 28                        # ldecod_src/cabac.c:539:28
	testq	%rdi, %rdi
	.loc	0 539 11                        # ldecod_src/cabac.c:539:11
	je	.LBB8_4
.Ltmp178:
# %bb.3:                                # %cond.true6
	#DEBUG_VALUE: read_skip_flag_CABAC_p_slice:currMB <- [DW_OP_LLVM_entry_value 1] $rdi
	#DEBUG_VALUE: read_skip_flag_CABAC_p_slice:se <- $rbx
	#DEBUG_VALUE: read_skip_flag_CABAC_p_slice:dep_dp <- $rdx
	#DEBUG_VALUE: read_skip_flag_CABAC_p_slice:currSlice <- $r14
	#DEBUG_VALUE: read_skip_flag_CABAC_p_slice:ctx <- $rcx
	.loc	0 539 67                        # ldecod_src/cabac.c:539:67
	cmpb	$0, 374(%rdi)
	sete	%sil
.Ltmp179:
.LBB8_4:                                # %cond.end13
	#DEBUG_VALUE: read_skip_flag_CABAC_p_slice:currMB <- [DW_OP_LLVM_entry_value 1] $rdi
	#DEBUG_VALUE: read_skip_flag_CABAC_p_slice:se <- $rbx
	#DEBUG_VALUE: read_skip_flag_CABAC_p_slice:dep_dp <- $rdx
	#DEBUG_VALUE: read_skip_flag_CABAC_p_slice:currSlice <- $r14
	#DEBUG_VALUE: read_skip_flag_CABAC_p_slice:ctx <- $rcx
	#DEBUG_VALUE: read_skip_flag_CABAC_p_slice:b <- undef
	.loc	0 540 19 is_stmt 1              # ldecod_src/cabac.c:540:19
	addl	%eax, %esi
.Ltmp180:
	#DEBUG_VALUE: read_skip_flag_CABAC_p_slice:act_ctx <- undef
	.loc	0 542 36                        # ldecod_src/cabac.c:542:36
	leaq	(%rcx,%rsi,4), %rsi
	addq	$44, %rsi
	.loc	0 542 7 is_stmt 0               # ldecod_src/cabac.c:542:7
	movq	%rdx, %rdi
	callq	biari_decode_symbol@PLT
.Ltmp181:
	#DEBUG_VALUE: read_skip_flag_CABAC_p_slice:dep_dp <- [DW_OP_LLVM_entry_value 1] $rdx
	.loc	0 542 71                        # ldecod_src/cabac.c:542:71
	cmpl	$1, %eax
.Ltmp182:
	.loc	0 542 7                         # ldecod_src/cabac.c:542:7
	jne	.LBB8_5
.Ltmp183:
# %bb.6:                                # %if.then20
	#DEBUG_VALUE: read_skip_flag_CABAC_p_slice:currMB <- [DW_OP_LLVM_entry_value 1] $rdi
	#DEBUG_VALUE: read_skip_flag_CABAC_p_slice:se <- $rbx
	#DEBUG_VALUE: read_skip_flag_CABAC_p_slice:dep_dp <- [DW_OP_LLVM_entry_value 1] $rdx
	#DEBUG_VALUE: read_skip_flag_CABAC_p_slice:currSlice <- $r14
	.loc	0 0 0                           # ldecod_src/cabac.c:0:0
	movl	$0, 4(%rbx)
.Ltmp184:
	.loc	0 553 28 is_stmt 1              # ldecod_src/cabac.c:553:28
	movl	$0, 212(%r14)
.Ltmp185:
	.loc	0 555 1 epilogue_begin          # ldecod_src/cabac.c:555:1
	addq	$8, %rsp
	.cfi_def_cfa_offset 24
	popq	%rbx
.Ltmp186:
	#DEBUG_VALUE: read_skip_flag_CABAC_p_slice:se <- [DW_OP_LLVM_entry_value 1] $rsi
	.cfi_def_cfa_offset 16
	popq	%r14
.Ltmp187:
	.cfi_def_cfa_offset 8
	retq
.Ltmp188:
.LBB8_5:                                # %if.end
	.cfi_def_cfa_offset 32
	#DEBUG_VALUE: read_skip_flag_CABAC_p_slice:currMB <- [DW_OP_LLVM_entry_value 1] $rdi
	#DEBUG_VALUE: read_skip_flag_CABAC_p_slice:se <- $rbx
	#DEBUG_VALUE: read_skip_flag_CABAC_p_slice:dep_dp <- [DW_OP_LLVM_entry_value 1] $rdx
	#DEBUG_VALUE: read_skip_flag_CABAC_p_slice:currSlice <- $r14
	.loc	0 0 0 is_stmt 0                 # ldecod_src/cabac.c:0:0
	movl	$1, 4(%rbx)
.Ltmp189:
	.loc	0 555 1 epilogue_begin          # ldecod_src/cabac.c:555:1
	addq	$8, %rsp
	.cfi_def_cfa_offset 24
	popq	%rbx
.Ltmp190:
	#DEBUG_VALUE: read_skip_flag_CABAC_p_slice:se <- [DW_OP_LLVM_entry_value 1] $rsi
	.cfi_def_cfa_offset 16
	popq	%r14
.Ltmp191:
	.cfi_def_cfa_offset 8
	retq
.Ltmp192:
.Lfunc_end8:
	.size	read_skip_flag_CABAC_p_slice, .Lfunc_end8-read_skip_flag_CABAC_p_slice
	.cfi_endproc
                                        # -- End function
	.globl	check_next_mb_and_get_field_mode_CABAC_b_slice # -- Begin function check_next_mb_and_get_field_mode_CABAC_b_slice
	.p2align	4, 0x90
	.type	check_next_mb_and_get_field_mode_CABAC_b_slice,@function
check_next_mb_and_get_field_mode_CABAC_b_slice: # @check_next_mb_and_get_field_mode_CABAC_b_slice
.Lfunc_begin9:
	.loc	0 248 0 is_stmt 1               # ldecod_src/cabac.c:248:0
	.cfi_startproc
# %bb.0:                                # %entry
	#DEBUG_VALUE: check_next_mb_and_get_field_mode_CABAC_b_slice:currSlice <- $rdi
	#DEBUG_VALUE: check_next_mb_and_get_field_mode_CABAC_b_slice:se <- $rsi
	#DEBUG_VALUE: check_next_mb_and_get_field_mode_CABAC_b_slice:act_dp <- $rdx
	pushq	%rbp
	.cfi_def_cfa_offset 16
	pushq	%r15
	.cfi_def_cfa_offset 24
	pushq	%r14
	.cfi_def_cfa_offset 32
	pushq	%r13
	.cfi_def_cfa_offset 40
	pushq	%r12
	.cfi_def_cfa_offset 48
	pushq	%rbx
	.cfi_def_cfa_offset 56
	subq	$136, %rsp
	.cfi_def_cfa_offset 192
	.cfi_offset %rbx, -56
	.cfi_offset %r12, -48
	.cfi_offset %r13, -40
	.cfi_offset %r14, -32
	.cfi_offset %r15, -24
	.cfi_offset %rbp, -16
	movq	%rdx, 16(%rsp)                  # 8-byte Spill
.Ltmp193:
	#DEBUG_VALUE: check_next_mb_and_get_field_mode_CABAC_b_slice:act_dp <- [DW_OP_plus_uconst 16] [$rsp+0]
	movq	%rsi, 8(%rsp)                   # 8-byte Spill
.Ltmp194:
	#DEBUG_VALUE: check_next_mb_and_get_field_mode_CABAC_b_slice:se <- [DW_OP_plus_uconst 8] [$rsp+0]
	movq	%rdi, %r15
.Ltmp195:
	.loc	0 249 39 prologue_end           # ldecod_src/cabac.c:249:39
	movq	(%rdi), %rax
.Ltmp196:
	#DEBUG_VALUE: check_next_mb_and_get_field_mode_CABAC_b_slice:p_Vid <- $rax
	#DEBUG_VALUE: check_next_mb_and_get_field_mode_CABAC_b_slice:dep_dp <- undef
	.loc	0 256 45                        # ldecod_src/cabac.c:256:45
	movq	320(%rdi), %rbp
.Ltmp197:
	#DEBUG_VALUE: check_next_mb_and_get_field_mode_CABAC_b_slice:mot_ctx <- $rbp
	#DEBUG_VALUE: check_next_mb_and_get_field_mode_CABAC_b_slice:skip <- 0
	#DEBUG_VALUE: check_next_mb_and_get_field_mode_CABAC_b_slice:field <- 0
	.loc	0 265 3                         # ldecod_src/cabac.c:265:3
	movl	108(%rdi), %ecx
	incl	%ecx
	movl	%ecx, 108(%rdi)
	.loc	0 267 24                        # ldecod_src/cabac.c:267:24
	movq	13512(%rdi), %r14
	.loc	0 267 13 is_stmt 0              # ldecod_src/cabac.c:267:13
	imulq	$480, %rcx, %r12                # imm = 0x1E0
	leaq	(%r14,%r12), %rbx
.Ltmp198:
	#DEBUG_VALUE: check_next_mb_and_get_field_mode_CABAC_b_slice:currMB <- $rbx
	#DEBUG_VALUE: CheckAvailabilityOfNeighborsCABAC:currMB <- $rbx
	.loc	0 268 20 is_stmt 1              # ldecod_src/cabac.c:268:20
	movq	%rax, 8(%r14,%r12)
	.loc	0 269 20                        # ldecod_src/cabac.c:269:20
	movq	%rdi, (%r14,%r12)
	.loc	0 270 33                        # ldecod_src/cabac.c:270:33
	movzwl	116(%rdi), %eax
.Ltmp199:
	.loc	0 270 20 is_stmt 0              # ldecod_src/cabac.c:270:20
	movw	%ax, 108(%r14,%r12)
	.loc	0 271 33 is_stmt 1              # ldecod_src/cabac.c:271:33
	movq	13512(%rdi), %rax
	.loc	0 271 52 is_stmt 0              # ldecod_src/cabac.c:271:52
	movl	108(%rdi), %ecx
	.loc	0 271 65                        # ldecod_src/cabac.c:271:65
	decl	%ecx
	.loc	0 271 69                        # ldecod_src/cabac.c:271:69
	imulq	$480, %rcx, %rcx                # imm = 0x1E0
	movl	384(%rax,%rcx), %eax
	.loc	0 271 20                        # ldecod_src/cabac.c:271:20
	movl	%eax, 384(%r14,%r12)
	.loc	0 272 33 is_stmt 1              # ldecod_src/cabac.c:272:33
	movl	108(%rdi), %ecx
	.loc	0 272 20 is_stmt 0              # ldecod_src/cabac.c:272:20
	movl	%ecx, 24(%r14,%r12)
	.loc	0 273 38 is_stmt 1              # ldecod_src/cabac.c:273:38
	movl	128(%rdi), %edx
	.loc	0 273 56 is_stmt 0              # ldecod_src/cabac.c:273:56
	andl	$1, %ecx
	testl	%eax, %eax
	leal	2(%rcx,%rcx), %ecx
	cmovel	%eax, %ecx
	.loc	0 273 26                        # ldecod_src/cabac.c:273:26
	testl	%edx, %edx
	.loc	0 273 56                        # ldecod_src/cabac.c:273:56
	cmovel	%edx, %ecx
	.loc	0 273 23                        # ldecod_src/cabac.c:273:23
	movw	%cx, 114(%r14,%r12)
	.loc	0 275 3 is_stmt 1               # ldecod_src/cabac.c:275:3
	movq	%rbx, %rdi
.Ltmp200:
	#DEBUG_VALUE: check_next_mb_and_get_field_mode_CABAC_b_slice:currSlice <- $r15
	callq	CheckAvailabilityOfNeighbors@PLT
.Ltmp201:
	#DEBUG_VALUE: CheckAvailabilityOfNeighborsCABAC:left <- [DW_OP_plus_uconst 64, DW_OP_deref] $rsp
	.loc	0 47 36                         # ldecod_src/cabac.c:47:36
	movq	8(%r14,%r12), %r13
.Ltmp202:
	#DEBUG_VALUE: CheckAvailabilityOfNeighborsCABAC:p_Vid <- $r13
	.loc	0 49 25                         # ldecod_src/cabac.c:49:25
	leaq	849124(%r13), %r14
.Ltmp203:
	#DEBUG_VALUE: CheckAvailabilityOfNeighborsCABAC:mb_size <- $r14
	.loc	0 0 25 is_stmt 0                # ldecod_src/cabac.c:0:25
	xorl	%r12d, %r12d
	leaq	64(%rsp), %r8
	.loc	0 51 3 is_stmt 1                # ldecod_src/cabac.c:51:3
	movq	%rbx, %rdi
	movl	$-1, %esi
	xorl	%edx, %edx
	movq	%r14, %rcx
	callq	*856744(%r13)
.Ltmp204:
	.loc	0 0 3 is_stmt 0                 # ldecod_src/cabac.c:0:3
	leaq	80(%rsp), %r8
	.loc	0 52 3 is_stmt 1                # ldecod_src/cabac.c:52:3
	movq	%rbx, %rdi
	xorl	%esi, %esi
	movl	$-1, %edx
	movq	%r14, %rcx
	callq	*856744(%r13)
.Ltmp205:
	.loc	0 54 7                          # ldecod_src/cabac.c:54:7
	cmpl	$0, 80(%rsp)
.Ltmp206:
	.loc	0 54 7 is_stmt 0                # ldecod_src/cabac.c:54:7
	je	.LBB9_2
.Ltmp207:
# %bb.1:                                # %if.then.i
	#DEBUG_VALUE: check_next_mb_and_get_field_mode_CABAC_b_slice:currSlice <- $r15
	#DEBUG_VALUE: check_next_mb_and_get_field_mode_CABAC_b_slice:se <- [DW_OP_plus_uconst 8] [$rsp+0]
	#DEBUG_VALUE: check_next_mb_and_get_field_mode_CABAC_b_slice:act_dp <- [DW_OP_plus_uconst 16] [$rsp+0]
	#DEBUG_VALUE: check_next_mb_and_get_field_mode_CABAC_b_slice:mot_ctx <- $rbp
	#DEBUG_VALUE: check_next_mb_and_get_field_mode_CABAC_b_slice:skip <- 0
	#DEBUG_VALUE: check_next_mb_and_get_field_mode_CABAC_b_slice:field <- 0
	#DEBUG_VALUE: check_next_mb_and_get_field_mode_CABAC_b_slice:currMB <- $rbx
	#DEBUG_VALUE: CheckAvailabilityOfNeighborsCABAC:currMB <- $rbx
	#DEBUG_VALUE: CheckAvailabilityOfNeighborsCABAC:left <- [DW_OP_plus_uconst 64, DW_OP_deref] $rsp
	#DEBUG_VALUE: CheckAvailabilityOfNeighborsCABAC:p_Vid <- $r13
	#DEBUG_VALUE: CheckAvailabilityOfNeighborsCABAC:mb_size <- $r14
	.loc	0 55 30 is_stmt 1               # ldecod_src/cabac.c:55:30
	movq	(%rbx), %rax
	.loc	0 55 50 is_stmt 0               # ldecod_src/cabac.c:55:50
	movslq	84(%rsp), %rcx
	.loc	0 55 22                         # ldecod_src/cabac.c:55:22
	imulq	$480, %rcx, %r12                # imm = 0x1E0
	addq	13512(%rax), %r12
.Ltmp208:
.LBB9_2:                                # %if.end.i
	#DEBUG_VALUE: check_next_mb_and_get_field_mode_CABAC_b_slice:currSlice <- $r15
	#DEBUG_VALUE: check_next_mb_and_get_field_mode_CABAC_b_slice:se <- [DW_OP_plus_uconst 8] [$rsp+0]
	#DEBUG_VALUE: check_next_mb_and_get_field_mode_CABAC_b_slice:act_dp <- [DW_OP_plus_uconst 16] [$rsp+0]
	#DEBUG_VALUE: check_next_mb_and_get_field_mode_CABAC_b_slice:mot_ctx <- $rbp
	#DEBUG_VALUE: check_next_mb_and_get_field_mode_CABAC_b_slice:skip <- 0
	#DEBUG_VALUE: check_next_mb_and_get_field_mode_CABAC_b_slice:field <- 0
	#DEBUG_VALUE: check_next_mb_and_get_field_mode_CABAC_b_slice:currMB <- $rbx
	#DEBUG_VALUE: CheckAvailabilityOfNeighborsCABAC:currMB <- $rbx
	#DEBUG_VALUE: CheckAvailabilityOfNeighborsCABAC:left <- [DW_OP_plus_uconst 64, DW_OP_deref] $rsp
	#DEBUG_VALUE: CheckAvailabilityOfNeighborsCABAC:p_Vid <- $r13
	#DEBUG_VALUE: CheckAvailabilityOfNeighborsCABAC:mb_size <- $r14
	.loc	0 0 22                          # ldecod_src/cabac.c:0:22
	movq	16(%rsp), %rax                  # 8-byte Reload
	addq	$8, %rax
.Ltmp209:
	#DEBUG_VALUE: check_next_mb_and_get_field_mode_CABAC_b_slice:dep_dp <- $rax
	movq	%rax, 32(%rsp)                  # 8-byte Spill
.Ltmp210:
	movq	%r12, 120(%rbx)
.Ltmp211:
	.loc	0 59 7 is_stmt 1                # ldecod_src/cabac.c:59:7
	cmpl	$0, 64(%rsp)
	movq	%r15, 112(%rsp)                 # 8-byte Spill
.Ltmp212:
	#DEBUG_VALUE: check_next_mb_and_get_field_mode_CABAC_b_slice:currSlice <- [DW_OP_plus_uconst 112] [$rsp+0]
	.loc	0 59 7 is_stmt 0                # ldecod_src/cabac.c:59:7
	je	.LBB9_3
.Ltmp213:
# %bb.4:                                # %if.then8.i
	#DEBUG_VALUE: check_next_mb_and_get_field_mode_CABAC_b_slice:currSlice <- [DW_OP_plus_uconst 112] [$rsp+0]
	#DEBUG_VALUE: check_next_mb_and_get_field_mode_CABAC_b_slice:se <- [DW_OP_plus_uconst 8] [$rsp+0]
	#DEBUG_VALUE: check_next_mb_and_get_field_mode_CABAC_b_slice:act_dp <- [DW_OP_plus_uconst 16] [$rsp+0]
	#DEBUG_VALUE: check_next_mb_and_get_field_mode_CABAC_b_slice:dep_dp <- [DW_OP_plus_uconst 32, DW_OP_deref] $rsp
	#DEBUG_VALUE: check_next_mb_and_get_field_mode_CABAC_b_slice:mot_ctx <- $rbp
	#DEBUG_VALUE: check_next_mb_and_get_field_mode_CABAC_b_slice:skip <- 0
	#DEBUG_VALUE: check_next_mb_and_get_field_mode_CABAC_b_slice:field <- 0
	#DEBUG_VALUE: check_next_mb_and_get_field_mode_CABAC_b_slice:currMB <- $rbx
	#DEBUG_VALUE: CheckAvailabilityOfNeighborsCABAC:currMB <- $rbx
	#DEBUG_VALUE: CheckAvailabilityOfNeighborsCABAC:left <- [DW_OP_plus_uconst 64, DW_OP_deref] $rsp
	#DEBUG_VALUE: CheckAvailabilityOfNeighborsCABAC:p_Vid <- $r13
	#DEBUG_VALUE: CheckAvailabilityOfNeighborsCABAC:mb_size <- $r14
	.loc	0 60 32 is_stmt 1               # ldecod_src/cabac.c:60:32
	movq	(%rbx), %rcx
	.loc	0 60 54 is_stmt 0               # ldecod_src/cabac.c:60:54
	movslq	68(%rsp), %rax
	.loc	0 60 24                         # ldecod_src/cabac.c:60:24
	imulq	$480, %rax, %rax                # imm = 0x1E0
	addq	13512(%rcx), %rax
	jmp	.LBB9_5
.Ltmp214:
.LBB9_3:
	#DEBUG_VALUE: check_next_mb_and_get_field_mode_CABAC_b_slice:currSlice <- [DW_OP_plus_uconst 112] [$rsp+0]
	#DEBUG_VALUE: check_next_mb_and_get_field_mode_CABAC_b_slice:se <- [DW_OP_plus_uconst 8] [$rsp+0]
	#DEBUG_VALUE: check_next_mb_and_get_field_mode_CABAC_b_slice:act_dp <- [DW_OP_plus_uconst 16] [$rsp+0]
	#DEBUG_VALUE: check_next_mb_and_get_field_mode_CABAC_b_slice:dep_dp <- [DW_OP_plus_uconst 32, DW_OP_deref] $rsp
	#DEBUG_VALUE: check_next_mb_and_get_field_mode_CABAC_b_slice:mot_ctx <- $rbp
	#DEBUG_VALUE: check_next_mb_and_get_field_mode_CABAC_b_slice:skip <- 0
	#DEBUG_VALUE: check_next_mb_and_get_field_mode_CABAC_b_slice:field <- 0
	#DEBUG_VALUE: check_next_mb_and_get_field_mode_CABAC_b_slice:currMB <- $rbx
	#DEBUG_VALUE: CheckAvailabilityOfNeighborsCABAC:currMB <- $rbx
	#DEBUG_VALUE: CheckAvailabilityOfNeighborsCABAC:left <- [DW_OP_plus_uconst 64, DW_OP_deref] $rsp
	#DEBUG_VALUE: CheckAvailabilityOfNeighborsCABAC:p_Vid <- $r13
	#DEBUG_VALUE: CheckAvailabilityOfNeighborsCABAC:mb_size <- $r14
	.loc	0 0 24                          # ldecod_src/cabac.c:0:24
	xorl	%eax, %eax
.Ltmp215:
.LBB9_5:                                # %CheckAvailabilityOfNeighborsCABAC.exit
	#DEBUG_VALUE: check_next_mb_and_get_field_mode_CABAC_b_slice:currSlice <- [DW_OP_plus_uconst 112] [$rsp+0]
	#DEBUG_VALUE: check_next_mb_and_get_field_mode_CABAC_b_slice:se <- [DW_OP_plus_uconst 8] [$rsp+0]
	#DEBUG_VALUE: check_next_mb_and_get_field_mode_CABAC_b_slice:act_dp <- [DW_OP_plus_uconst 16] [$rsp+0]
	#DEBUG_VALUE: check_next_mb_and_get_field_mode_CABAC_b_slice:dep_dp <- [DW_OP_plus_uconst 32, DW_OP_deref] $rsp
	#DEBUG_VALUE: check_next_mb_and_get_field_mode_CABAC_b_slice:mot_ctx <- $rbp
	#DEBUG_VALUE: check_next_mb_and_get_field_mode_CABAC_b_slice:skip <- 0
	#DEBUG_VALUE: check_next_mb_and_get_field_mode_CABAC_b_slice:field <- 0
	#DEBUG_VALUE: check_next_mb_and_get_field_mode_CABAC_b_slice:currMB <- $rbx
	#DEBUG_VALUE: CheckAvailabilityOfNeighborsCABAC:currMB <- $rbx
	#DEBUG_VALUE: CheckAvailabilityOfNeighborsCABAC:left <- [DW_OP_plus_uconst 64, DW_OP_deref] $rsp
	#DEBUG_VALUE: CheckAvailabilityOfNeighborsCABAC:p_Vid <- $r13
	#DEBUG_VALUE: CheckAvailabilityOfNeighborsCABAC:mb_size <- $r14
	movq	%rax, 128(%rbx)
.Ltmp216:
	.loc	0 279 42 is_stmt 1              # ldecod_src/cabac.c:279:42
	movl	$1, %edi
	movl	$32, %esi
	callq	calloc@PLT
.Ltmp217:
	movq	%rax, %r14
.Ltmp218:
	#DEBUG_VALUE: check_next_mb_and_get_field_mode_CABAC_b_slice:dep_dp_copy <- $r14
	#DEBUG_VALUE: check_next_mb_and_get_field_mode_CABAC_b_slice:i <- 0
	.loc	0 281 46                        # ldecod_src/cabac.c:281:46
	movl	$11, %edi
	movl	$4, %esi
	callq	calloc@PLT
.Ltmp219:
	movq	%rax, %r12
.Ltmp220:
	#DEBUG_VALUE: check_next_mb_and_get_field_mode_CABAC_b_slice:mb_type_ctx_copy <- [DW_OP_LLVM_fragment 0 64] $r12
	#DEBUG_VALUE: check_next_mb_and_get_field_mode_CABAC_b_slice:i <- 1
	movl	$11, %edi
	movl	$4, %esi
	callq	calloc@PLT
.Ltmp221:
	movq	%rax, %r13
.Ltmp222:
	#DEBUG_VALUE: check_next_mb_and_get_field_mode_CABAC_b_slice:mb_type_ctx_copy <- [DW_OP_LLVM_fragment 64 64] $r13
	#DEBUG_VALUE: check_next_mb_and_get_field_mode_CABAC_b_slice:i <- 2
	movl	$11, %edi
	movl	$4, %esi
	callq	calloc@PLT
.Ltmp223:
	movq	%rax, %r15
.Ltmp224:
	#DEBUG_VALUE: check_next_mb_and_get_field_mode_CABAC_b_slice:mb_type_ctx_copy <- [DW_OP_LLVM_fragment 128 64] $r15
	#DEBUG_VALUE: check_next_mb_and_get_field_mode_CABAC_b_slice:i <- 3
	.loc	0 282 40                        # ldecod_src/cabac.c:282:40
	movl	$4, %edi
	movl	$4, %esi
	callq	calloc@PLT
.Ltmp225:
	movq	%rax, %rcx
.Ltmp226:
	#DEBUG_VALUE: check_next_mb_and_get_field_mode_CABAC_b_slice:mb_aff_ctx_copy <- $rax
	.loc	0 0 40 is_stmt 0                # ldecod_src/cabac.c:0:40
	movq	32(%rsp), %rax                  # 8-byte Reload
.Ltmp227:
	.loc	0 285 3 is_stmt 1               # ldecod_src/cabac.c:285:3
	movups	(%rax), %xmm0
	movups	16(%rax), %xmm1
	movups	%xmm0, (%r14)
	movups	%xmm1, 16(%r14)
	movq	16(%rsp), %rax                  # 8-byte Reload
	.loc	0 286 54                        # ldecod_src/cabac.c:286:54
	movq	32(%rax), %rax
.Ltmp228:
	#DEBUG_VALUE: check_next_mb_and_get_field_mode_CABAC_b_slice:mb_aff_ctx_copy <- $rcx
	.loc	0 286 44 is_stmt 0              # ldecod_src/cabac.c:286:44
	movl	(%rax), %edx
	movq	%r14, 56(%rsp)                  # 8-byte Spill
.Ltmp229:
	#DEBUG_VALUE: check_next_mb_and_get_field_mode_CABAC_b_slice:dep_dp_copy <- [DW_OP_plus_uconst 56, DW_OP_deref] $rsp
	.loc	0 286 27                        # ldecod_src/cabac.c:286:27
	movq	24(%r14), %rax
	movl	%edx, 28(%rsp)                  # 4-byte Spill
	.loc	0 286 42                        # ldecod_src/cabac.c:286:42
	movl	%edx, (%rax)
.Ltmp230:
	#DEBUG_VALUE: check_next_mb_and_get_field_mode_CABAC_b_slice:i <- 0
	#DEBUG_VALUE: check_next_mb_and_get_field_mode_CABAC_b_slice:length <- [DW_OP_plus_uconst 28, DW_OP_deref] $rsp
	.loc	0 289 5 is_stmt 1               # ldecod_src/cabac.c:289:5
	movups	(%rbp), %xmm0
	movups	16(%rbp), %xmm1
	movups	28(%rbp), %xmm2
	movups	%xmm2, 28(%r12)
	movups	%xmm1, 16(%r12)
	movq	%r12, 128(%rsp)                 # 8-byte Spill
.Ltmp231:
	#DEBUG_VALUE: check_next_mb_and_get_field_mode_CABAC_b_slice:mb_type_ctx_copy <- [DW_OP_plus_uconst 128, DW_OP_deref, DW_OP_LLVM_fragment 0 64] $rsp
	movups	%xmm0, (%r12)
.Ltmp232:
	#DEBUG_VALUE: check_next_mb_and_get_field_mode_CABAC_b_slice:i <- 1
	movups	44(%rbp), %xmm0
	movups	60(%rbp), %xmm1
	movups	72(%rbp), %xmm2
	movups	%xmm2, 28(%r13)
	movups	%xmm1, 16(%r13)
	movq	%r13, 120(%rsp)                 # 8-byte Spill
.Ltmp233:
	#DEBUG_VALUE: check_next_mb_and_get_field_mode_CABAC_b_slice:mb_type_ctx_copy <- [DW_OP_plus_uconst 120, DW_OP_deref, DW_OP_LLVM_fragment 64 64] $rsp
	movups	%xmm0, (%r13)
.Ltmp234:
	#DEBUG_VALUE: check_next_mb_and_get_field_mode_CABAC_b_slice:i <- 2
	movups	88(%rbp), %xmm0
	movups	104(%rbp), %xmm1
	movups	116(%rbp), %xmm2
	movups	%xmm2, 28(%r15)
	movups	%xmm0, (%r15)
	movq	%r15, 48(%rsp)                  # 8-byte Spill
.Ltmp235:
	#DEBUG_VALUE: check_next_mb_and_get_field_mode_CABAC_b_slice:mb_type_ctx_copy <- [DW_OP_plus_uconst 48, DW_OP_deref, DW_OP_LLVM_fragment 128 64] $rsp
	movups	%xmm1, 16(%r15)
.Ltmp236:
	#DEBUG_VALUE: check_next_mb_and_get_field_mode_CABAC_b_slice:i <- 3
	.loc	0 291 3                         # ldecod_src/cabac.c:291:3
	movups	348(%rbp), %xmm0
	movq	%rcx, 40(%rsp)                  # 8-byte Spill
.Ltmp237:
	#DEBUG_VALUE: check_next_mb_and_get_field_mode_CABAC_b_slice:mb_aff_ctx_copy <- [DW_OP_plus_uconst 40, DW_OP_deref] $rsp
	movups	%xmm0, (%rcx)
	movq	112(%rsp), %r15                 # 8-byte Reload
	.loc	0 297 26                        # ldecod_src/cabac.c:297:26
	movl	$0, 212(%r15)
.Ltmp238:
	#DEBUG_VALUE: read_skip_flag_CABAC_b_slice:currMB <- $rbx
	#DEBUG_VALUE: read_skip_flag_CABAC_b_slice:se <- [DW_OP_plus_uconst 8, DW_OP_deref] $rsp
	#DEBUG_VALUE: read_skip_flag_CABAC_b_slice:dep_dp <- [DW_OP_plus_uconst 32, DW_OP_deref] $rsp
	.loc	0 568 30                        # ldecod_src/cabac.c:568:30
	movq	(%rbx), %rdx
.Ltmp239:
	#DEBUG_VALUE: read_skip_flag_CABAC_b_slice:currSlice <- $rdx
	.loc	0 570 20                        # ldecod_src/cabac.c:570:20
	movq	128(%rbx), %rcx
.Ltmp240:
	#DEBUG_VALUE: read_skip_flag_CABAC_b_slice:ctx <- undef
	.loc	0 570 28 is_stmt 0              # ldecod_src/cabac.c:570:28
	testq	%rcx, %rcx
	.loc	0 570 11                        # ldecod_src/cabac.c:570:11
	je	.LBB9_6
.Ltmp241:
# %bb.7:                                # %cond.true.i
	#DEBUG_VALUE: check_next_mb_and_get_field_mode_CABAC_b_slice:currSlice <- [DW_OP_plus_uconst 112] [$rsp+0]
	#DEBUG_VALUE: check_next_mb_and_get_field_mode_CABAC_b_slice:se <- [DW_OP_plus_uconst 8] [$rsp+0]
	#DEBUG_VALUE: check_next_mb_and_get_field_mode_CABAC_b_slice:act_dp <- [DW_OP_plus_uconst 16] [$rsp+0]
	#DEBUG_VALUE: check_next_mb_and_get_field_mode_CABAC_b_slice:dep_dp <- [DW_OP_plus_uconst 32, DW_OP_deref] $rsp
	#DEBUG_VALUE: check_next_mb_and_get_field_mode_CABAC_b_slice:mot_ctx <- $rbp
	#DEBUG_VALUE: check_next_mb_and_get_field_mode_CABAC_b_slice:skip <- 0
	#DEBUG_VALUE: check_next_mb_and_get_field_mode_CABAC_b_slice:field <- 0
	#DEBUG_VALUE: check_next_mb_and_get_field_mode_CABAC_b_slice:currMB <- $rbx
	#DEBUG_VALUE: check_next_mb_and_get_field_mode_CABAC_b_slice:dep_dp_copy <- [DW_OP_plus_uconst 56, DW_OP_deref] $rsp
	#DEBUG_VALUE: check_next_mb_and_get_field_mode_CABAC_b_slice:i <- 3
	#DEBUG_VALUE: check_next_mb_and_get_field_mode_CABAC_b_slice:mb_type_ctx_copy <- [DW_OP_plus_uconst 128, DW_OP_deref, DW_OP_LLVM_fragment 0 64] $rsp
	#DEBUG_VALUE: check_next_mb_and_get_field_mode_CABAC_b_slice:mb_type_ctx_copy <- [DW_OP_plus_uconst 120, DW_OP_deref, DW_OP_LLVM_fragment 64 64] $rsp
	#DEBUG_VALUE: check_next_mb_and_get_field_mode_CABAC_b_slice:mb_type_ctx_copy <- [DW_OP_plus_uconst 48, DW_OP_deref, DW_OP_LLVM_fragment 128 64] $rsp
	#DEBUG_VALUE: check_next_mb_and_get_field_mode_CABAC_b_slice:mb_aff_ctx_copy <- [DW_OP_plus_uconst 40, DW_OP_deref] $rsp
	#DEBUG_VALUE: check_next_mb_and_get_field_mode_CABAC_b_slice:length <- [DW_OP_plus_uconst 28, DW_OP_deref] $rsp
	#DEBUG_VALUE: read_skip_flag_CABAC_b_slice:currMB <- $rbx
	#DEBUG_VALUE: read_skip_flag_CABAC_b_slice:se <- [DW_OP_plus_uconst 8, DW_OP_deref] $rsp
	#DEBUG_VALUE: read_skip_flag_CABAC_b_slice:dep_dp <- [DW_OP_plus_uconst 32, DW_OP_deref] $rsp
	#DEBUG_VALUE: read_skip_flag_CABAC_b_slice:currSlice <- $rdx
	.loc	0 0 11                          # ldecod_src/cabac.c:0:11
	xorl	%eax, %eax
	.loc	0 572 19 is_stmt 1              # ldecod_src/cabac.c:572:19
	cmpb	$1, 374(%rcx)
	adcq	$7, %rax
	jmp	.LBB9_8
.Ltmp242:
.LBB9_6:
	#DEBUG_VALUE: check_next_mb_and_get_field_mode_CABAC_b_slice:currSlice <- [DW_OP_plus_uconst 112] [$rsp+0]
	#DEBUG_VALUE: check_next_mb_and_get_field_mode_CABAC_b_slice:se <- [DW_OP_plus_uconst 8] [$rsp+0]
	#DEBUG_VALUE: check_next_mb_and_get_field_mode_CABAC_b_slice:act_dp <- [DW_OP_plus_uconst 16] [$rsp+0]
	#DEBUG_VALUE: check_next_mb_and_get_field_mode_CABAC_b_slice:dep_dp <- [DW_OP_plus_uconst 32, DW_OP_deref] $rsp
	#DEBUG_VALUE: check_next_mb_and_get_field_mode_CABAC_b_slice:mot_ctx <- $rbp
	#DEBUG_VALUE: check_next_mb_and_get_field_mode_CABAC_b_slice:skip <- 0
	#DEBUG_VALUE: check_next_mb_and_get_field_mode_CABAC_b_slice:field <- 0
	#DEBUG_VALUE: check_next_mb_and_get_field_mode_CABAC_b_slice:currMB <- $rbx
	#DEBUG_VALUE: CheckAvailabilityOfNeighborsCABAC:currMB <- $rbx
	#DEBUG_VALUE: CheckAvailabilityOfNeighborsCABAC:left <- [DW_OP_plus_uconst 64, DW_OP_deref] $rsp
	#DEBUG_VALUE: check_next_mb_and_get_field_mode_CABAC_b_slice:dep_dp_copy <- [DW_OP_plus_uconst 56, DW_OP_deref] $rsp
	#DEBUG_VALUE: check_next_mb_and_get_field_mode_CABAC_b_slice:i <- 3
	#DEBUG_VALUE: check_next_mb_and_get_field_mode_CABAC_b_slice:mb_type_ctx_copy <- [DW_OP_plus_uconst 128, DW_OP_deref, DW_OP_LLVM_fragment 0 64] $rsp
	#DEBUG_VALUE: check_next_mb_and_get_field_mode_CABAC_b_slice:mb_type_ctx_copy <- [DW_OP_plus_uconst 120, DW_OP_deref, DW_OP_LLVM_fragment 64 64] $rsp
	#DEBUG_VALUE: check_next_mb_and_get_field_mode_CABAC_b_slice:mb_type_ctx_copy <- [DW_OP_plus_uconst 48, DW_OP_deref, DW_OP_LLVM_fragment 128 64] $rsp
	#DEBUG_VALUE: check_next_mb_and_get_field_mode_CABAC_b_slice:mb_aff_ctx_copy <- [DW_OP_plus_uconst 40, DW_OP_deref] $rsp
	#DEBUG_VALUE: check_next_mb_and_get_field_mode_CABAC_b_slice:length <- [DW_OP_plus_uconst 28, DW_OP_deref] $rsp
	#DEBUG_VALUE: read_skip_flag_CABAC_b_slice:currMB <- $rbx
	#DEBUG_VALUE: read_skip_flag_CABAC_b_slice:se <- [DW_OP_plus_uconst 8, DW_OP_deref] $rsp
	#DEBUG_VALUE: read_skip_flag_CABAC_b_slice:dep_dp <- [DW_OP_plus_uconst 32, DW_OP_deref] $rsp
	#DEBUG_VALUE: read_skip_flag_CABAC_b_slice:currSlice <- $rdx
	.loc	0 0 19 is_stmt 0                # ldecod_src/cabac.c:0:19
	movl	$7, %eax
.Ltmp243:
.LBB9_8:                                # %cond.end.i
	#DEBUG_VALUE: check_next_mb_and_get_field_mode_CABAC_b_slice:currSlice <- [DW_OP_plus_uconst 112] [$rsp+0]
	#DEBUG_VALUE: check_next_mb_and_get_field_mode_CABAC_b_slice:se <- [DW_OP_plus_uconst 8] [$rsp+0]
	#DEBUG_VALUE: check_next_mb_and_get_field_mode_CABAC_b_slice:act_dp <- [DW_OP_plus_uconst 16] [$rsp+0]
	#DEBUG_VALUE: check_next_mb_and_get_field_mode_CABAC_b_slice:dep_dp <- [DW_OP_plus_uconst 32, DW_OP_deref] $rsp
	#DEBUG_VALUE: check_next_mb_and_get_field_mode_CABAC_b_slice:mot_ctx <- $rbp
	#DEBUG_VALUE: check_next_mb_and_get_field_mode_CABAC_b_slice:skip <- 0
	#DEBUG_VALUE: check_next_mb_and_get_field_mode_CABAC_b_slice:field <- 0
	#DEBUG_VALUE: check_next_mb_and_get_field_mode_CABAC_b_slice:currMB <- $rbx
	#DEBUG_VALUE: check_next_mb_and_get_field_mode_CABAC_b_slice:dep_dp_copy <- [DW_OP_plus_uconst 56, DW_OP_deref] $rsp
	#DEBUG_VALUE: check_next_mb_and_get_field_mode_CABAC_b_slice:i <- 3
	#DEBUG_VALUE: check_next_mb_and_get_field_mode_CABAC_b_slice:mb_type_ctx_copy <- [DW_OP_plus_uconst 128, DW_OP_deref, DW_OP_LLVM_fragment 0 64] $rsp
	#DEBUG_VALUE: check_next_mb_and_get_field_mode_CABAC_b_slice:mb_type_ctx_copy <- [DW_OP_plus_uconst 120, DW_OP_deref, DW_OP_LLVM_fragment 64 64] $rsp
	#DEBUG_VALUE: check_next_mb_and_get_field_mode_CABAC_b_slice:mb_type_ctx_copy <- [DW_OP_plus_uconst 48, DW_OP_deref, DW_OP_LLVM_fragment 128 64] $rsp
	#DEBUG_VALUE: check_next_mb_and_get_field_mode_CABAC_b_slice:mb_aff_ctx_copy <- [DW_OP_plus_uconst 40, DW_OP_deref] $rsp
	#DEBUG_VALUE: check_next_mb_and_get_field_mode_CABAC_b_slice:length <- [DW_OP_plus_uconst 28, DW_OP_deref] $rsp
	#DEBUG_VALUE: read_skip_flag_CABAC_b_slice:currMB <- $rbx
	#DEBUG_VALUE: read_skip_flag_CABAC_b_slice:se <- [DW_OP_plus_uconst 8, DW_OP_deref] $rsp
	#DEBUG_VALUE: read_skip_flag_CABAC_b_slice:dep_dp <- [DW_OP_plus_uconst 32, DW_OP_deref] $rsp
	#DEBUG_VALUE: read_skip_flag_CABAC_b_slice:currSlice <- $rdx
	movq	%rdx, 96(%rsp)                  # 8-byte Spill
.Ltmp244:
	#DEBUG_VALUE: read_skip_flag_CABAC_b_slice:currSlice <- [DW_OP_plus_uconst 96, DW_OP_deref] $rsp
	movq	320(%rdx), %rcx
.Ltmp245:
	#DEBUG_VALUE: read_skip_flag_CABAC_b_slice:ctx <- $rcx
	#DEBUG_VALUE: read_skip_flag_CABAC_b_slice:a <- undef
	.loc	0 571 20 is_stmt 1              # ldecod_src/cabac.c:571:20
	movq	120(%rbx), %rsi
	.loc	0 571 28 is_stmt 0              # ldecod_src/cabac.c:571:28
	testq	%rsi, %rsi
	movq	32(%rsp), %r13                  # 8-byte Reload
	.loc	0 571 11                        # ldecod_src/cabac.c:571:11
	je	.LBB9_9
.Ltmp246:
# %bb.10:                               # %cond.true6.i
	#DEBUG_VALUE: check_next_mb_and_get_field_mode_CABAC_b_slice:currSlice <- [DW_OP_plus_uconst 112] [$rsp+0]
	#DEBUG_VALUE: check_next_mb_and_get_field_mode_CABAC_b_slice:se <- [DW_OP_plus_uconst 8] [$rsp+0]
	#DEBUG_VALUE: check_next_mb_and_get_field_mode_CABAC_b_slice:act_dp <- [DW_OP_plus_uconst 16] [$rsp+0]
	#DEBUG_VALUE: check_next_mb_and_get_field_mode_CABAC_b_slice:dep_dp <- [DW_OP_plus_uconst 32, DW_OP_deref] $rsp
	#DEBUG_VALUE: check_next_mb_and_get_field_mode_CABAC_b_slice:mot_ctx <- $rbp
	#DEBUG_VALUE: check_next_mb_and_get_field_mode_CABAC_b_slice:skip <- 0
	#DEBUG_VALUE: check_next_mb_and_get_field_mode_CABAC_b_slice:field <- 0
	#DEBUG_VALUE: check_next_mb_and_get_field_mode_CABAC_b_slice:currMB <- $rbx
	#DEBUG_VALUE: check_next_mb_and_get_field_mode_CABAC_b_slice:dep_dp_copy <- [DW_OP_plus_uconst 56, DW_OP_deref] $rsp
	#DEBUG_VALUE: check_next_mb_and_get_field_mode_CABAC_b_slice:i <- 3
	#DEBUG_VALUE: check_next_mb_and_get_field_mode_CABAC_b_slice:mb_type_ctx_copy <- [DW_OP_plus_uconst 128, DW_OP_deref, DW_OP_LLVM_fragment 0 64] $rsp
	#DEBUG_VALUE: check_next_mb_and_get_field_mode_CABAC_b_slice:mb_type_ctx_copy <- [DW_OP_plus_uconst 120, DW_OP_deref, DW_OP_LLVM_fragment 64 64] $rsp
	#DEBUG_VALUE: check_next_mb_and_get_field_mode_CABAC_b_slice:mb_type_ctx_copy <- [DW_OP_plus_uconst 48, DW_OP_deref, DW_OP_LLVM_fragment 128 64] $rsp
	#DEBUG_VALUE: check_next_mb_and_get_field_mode_CABAC_b_slice:mb_aff_ctx_copy <- [DW_OP_plus_uconst 40, DW_OP_deref] $rsp
	#DEBUG_VALUE: check_next_mb_and_get_field_mode_CABAC_b_slice:length <- [DW_OP_plus_uconst 28, DW_OP_deref] $rsp
	#DEBUG_VALUE: read_skip_flag_CABAC_b_slice:currMB <- $rbx
	#DEBUG_VALUE: read_skip_flag_CABAC_b_slice:se <- [DW_OP_plus_uconst 8, DW_OP_deref] $rsp
	#DEBUG_VALUE: read_skip_flag_CABAC_b_slice:dep_dp <- [DW_OP_plus_uconst 32, DW_OP_deref] $rsp
	#DEBUG_VALUE: read_skip_flag_CABAC_b_slice:currSlice <- [DW_OP_plus_uconst 96, DW_OP_deref] $rsp
	#DEBUG_VALUE: read_skip_flag_CABAC_b_slice:ctx <- $rcx
	.loc	0 571 67                        # ldecod_src/cabac.c:571:67
	xorl	%edx, %edx
	cmpb	$0, 374(%rsi)
	sete	%dl
	jmp	.LBB9_11
.Ltmp247:
.LBB9_9:
	#DEBUG_VALUE: check_next_mb_and_get_field_mode_CABAC_b_slice:currSlice <- [DW_OP_plus_uconst 112] [$rsp+0]
	#DEBUG_VALUE: check_next_mb_and_get_field_mode_CABAC_b_slice:se <- [DW_OP_plus_uconst 8] [$rsp+0]
	#DEBUG_VALUE: check_next_mb_and_get_field_mode_CABAC_b_slice:act_dp <- [DW_OP_plus_uconst 16] [$rsp+0]
	#DEBUG_VALUE: check_next_mb_and_get_field_mode_CABAC_b_slice:dep_dp <- [DW_OP_plus_uconst 32, DW_OP_deref] $rsp
	#DEBUG_VALUE: check_next_mb_and_get_field_mode_CABAC_b_slice:mot_ctx <- $rbp
	#DEBUG_VALUE: check_next_mb_and_get_field_mode_CABAC_b_slice:skip <- 0
	#DEBUG_VALUE: check_next_mb_and_get_field_mode_CABAC_b_slice:field <- 0
	#DEBUG_VALUE: check_next_mb_and_get_field_mode_CABAC_b_slice:currMB <- $rbx
	#DEBUG_VALUE: check_next_mb_and_get_field_mode_CABAC_b_slice:dep_dp_copy <- [DW_OP_plus_uconst 56, DW_OP_deref] $rsp
	#DEBUG_VALUE: check_next_mb_and_get_field_mode_CABAC_b_slice:i <- 3
	#DEBUG_VALUE: check_next_mb_and_get_field_mode_CABAC_b_slice:mb_type_ctx_copy <- [DW_OP_plus_uconst 128, DW_OP_deref, DW_OP_LLVM_fragment 0 64] $rsp
	#DEBUG_VALUE: check_next_mb_and_get_field_mode_CABAC_b_slice:mb_type_ctx_copy <- [DW_OP_plus_uconst 120, DW_OP_deref, DW_OP_LLVM_fragment 64 64] $rsp
	#DEBUG_VALUE: check_next_mb_and_get_field_mode_CABAC_b_slice:mb_type_ctx_copy <- [DW_OP_plus_uconst 48, DW_OP_deref, DW_OP_LLVM_fragment 128 64] $rsp
	#DEBUG_VALUE: check_next_mb_and_get_field_mode_CABAC_b_slice:mb_aff_ctx_copy <- [DW_OP_plus_uconst 40, DW_OP_deref] $rsp
	#DEBUG_VALUE: check_next_mb_and_get_field_mode_CABAC_b_slice:length <- [DW_OP_plus_uconst 28, DW_OP_deref] $rsp
	#DEBUG_VALUE: read_skip_flag_CABAC_b_slice:currMB <- $rbx
	#DEBUG_VALUE: read_skip_flag_CABAC_b_slice:se <- [DW_OP_plus_uconst 8, DW_OP_deref] $rsp
	#DEBUG_VALUE: read_skip_flag_CABAC_b_slice:dep_dp <- [DW_OP_plus_uconst 32, DW_OP_deref] $rsp
	#DEBUG_VALUE: read_skip_flag_CABAC_b_slice:currSlice <- [DW_OP_plus_uconst 96, DW_OP_deref] $rsp
	#DEBUG_VALUE: read_skip_flag_CABAC_b_slice:ctx <- $rcx
	.loc	0 0 67                          # ldecod_src/cabac.c:0:67
	xorl	%edx, %edx
.Ltmp248:
.LBB9_11:                               # %cond.end13.i
	#DEBUG_VALUE: check_next_mb_and_get_field_mode_CABAC_b_slice:currSlice <- [DW_OP_plus_uconst 112] [$rsp+0]
	#DEBUG_VALUE: check_next_mb_and_get_field_mode_CABAC_b_slice:se <- [DW_OP_plus_uconst 8] [$rsp+0]
	#DEBUG_VALUE: check_next_mb_and_get_field_mode_CABAC_b_slice:act_dp <- [DW_OP_plus_uconst 16] [$rsp+0]
	#DEBUG_VALUE: check_next_mb_and_get_field_mode_CABAC_b_slice:dep_dp <- [DW_OP_plus_uconst 32, DW_OP_deref] $rsp
	#DEBUG_VALUE: check_next_mb_and_get_field_mode_CABAC_b_slice:mot_ctx <- $rbp
	#DEBUG_VALUE: check_next_mb_and_get_field_mode_CABAC_b_slice:skip <- 0
	#DEBUG_VALUE: check_next_mb_and_get_field_mode_CABAC_b_slice:field <- 0
	#DEBUG_VALUE: check_next_mb_and_get_field_mode_CABAC_b_slice:currMB <- $rbx
	#DEBUG_VALUE: check_next_mb_and_get_field_mode_CABAC_b_slice:dep_dp_copy <- [DW_OP_plus_uconst 56, DW_OP_deref] $rsp
	#DEBUG_VALUE: check_next_mb_and_get_field_mode_CABAC_b_slice:i <- 3
	#DEBUG_VALUE: check_next_mb_and_get_field_mode_CABAC_b_slice:mb_type_ctx_copy <- [DW_OP_plus_uconst 128, DW_OP_deref, DW_OP_LLVM_fragment 0 64] $rsp
	#DEBUG_VALUE: check_next_mb_and_get_field_mode_CABAC_b_slice:mb_type_ctx_copy <- [DW_OP_plus_uconst 120, DW_OP_deref, DW_OP_LLVM_fragment 64 64] $rsp
	#DEBUG_VALUE: check_next_mb_and_get_field_mode_CABAC_b_slice:mb_type_ctx_copy <- [DW_OP_plus_uconst 48, DW_OP_deref, DW_OP_LLVM_fragment 128 64] $rsp
	#DEBUG_VALUE: check_next_mb_and_get_field_mode_CABAC_b_slice:mb_aff_ctx_copy <- [DW_OP_plus_uconst 40, DW_OP_deref] $rsp
	#DEBUG_VALUE: check_next_mb_and_get_field_mode_CABAC_b_slice:length <- [DW_OP_plus_uconst 28, DW_OP_deref] $rsp
	#DEBUG_VALUE: read_skip_flag_CABAC_b_slice:currMB <- $rbx
	#DEBUG_VALUE: read_skip_flag_CABAC_b_slice:se <- [DW_OP_plus_uconst 8, DW_OP_deref] $rsp
	#DEBUG_VALUE: read_skip_flag_CABAC_b_slice:dep_dp <- [DW_OP_plus_uconst 32, DW_OP_deref] $rsp
	#DEBUG_VALUE: read_skip_flag_CABAC_b_slice:currSlice <- [DW_OP_plus_uconst 96, DW_OP_deref] $rsp
	#DEBUG_VALUE: read_skip_flag_CABAC_b_slice:ctx <- $rcx
	leaq	44(%rbp), %r14
	leaq	88(%rbp), %r12
	leaq	348(%rbp), %rsi
.Ltmp249:
	#DEBUG_VALUE: read_skip_flag_CABAC_b_slice:b <- undef
	movq	%rsi, 104(%rsp)                 # 8-byte Spill
.Ltmp250:
	.loc	0 572 23 is_stmt 1              # ldecod_src/cabac.c:572:23
	addq	%rax, %rdx
.Ltmp251:
	#DEBUG_VALUE: read_skip_flag_CABAC_b_slice:act_ctx <- undef
	.loc	0 574 37                        # ldecod_src/cabac.c:574:37
	leaq	(%rcx,%rdx,4), %rsi
	addq	$88, %rsi
	.loc	0 574 7 is_stmt 0               # ldecod_src/cabac.c:574:7
	movq	%r13, %rdi
	callq	biari_decode_symbol@PLT
.Ltmp252:
	.loc	0 574 72                        # ldecod_src/cabac.c:574:72
	cmpl	$1, %eax
.Ltmp253:
	.loc	0 574 7                         # ldecod_src/cabac.c:574:7
	jne	.LBB9_12
.Ltmp254:
# %bb.18:                               # %read_skip_flag_CABAC_b_slice.exit
	#DEBUG_VALUE: check_next_mb_and_get_field_mode_CABAC_b_slice:currSlice <- [DW_OP_plus_uconst 112] [$rsp+0]
	#DEBUG_VALUE: check_next_mb_and_get_field_mode_CABAC_b_slice:se <- [DW_OP_plus_uconst 8] [$rsp+0]
	#DEBUG_VALUE: check_next_mb_and_get_field_mode_CABAC_b_slice:act_dp <- [DW_OP_plus_uconst 16] [$rsp+0]
	#DEBUG_VALUE: check_next_mb_and_get_field_mode_CABAC_b_slice:dep_dp <- [DW_OP_plus_uconst 32, DW_OP_deref] $rsp
	#DEBUG_VALUE: check_next_mb_and_get_field_mode_CABAC_b_slice:mot_ctx <- $rbp
	#DEBUG_VALUE: check_next_mb_and_get_field_mode_CABAC_b_slice:skip <- 0
	#DEBUG_VALUE: check_next_mb_and_get_field_mode_CABAC_b_slice:field <- 0
	#DEBUG_VALUE: check_next_mb_and_get_field_mode_CABAC_b_slice:currMB <- $rbx
	#DEBUG_VALUE: check_next_mb_and_get_field_mode_CABAC_b_slice:dep_dp_copy <- [DW_OP_plus_uconst 56, DW_OP_deref] $rsp
	#DEBUG_VALUE: check_next_mb_and_get_field_mode_CABAC_b_slice:i <- 3
	#DEBUG_VALUE: check_next_mb_and_get_field_mode_CABAC_b_slice:mb_type_ctx_copy <- [DW_OP_plus_uconst 128, DW_OP_deref, DW_OP_LLVM_fragment 0 64] $rsp
	#DEBUG_VALUE: check_next_mb_and_get_field_mode_CABAC_b_slice:mb_type_ctx_copy <- [DW_OP_plus_uconst 120, DW_OP_deref, DW_OP_LLVM_fragment 64 64] $rsp
	#DEBUG_VALUE: check_next_mb_and_get_field_mode_CABAC_b_slice:mb_type_ctx_copy <- [DW_OP_plus_uconst 48, DW_OP_deref, DW_OP_LLVM_fragment 128 64] $rsp
	#DEBUG_VALUE: check_next_mb_and_get_field_mode_CABAC_b_slice:mb_aff_ctx_copy <- [DW_OP_plus_uconst 40, DW_OP_deref] $rsp
	#DEBUG_VALUE: check_next_mb_and_get_field_mode_CABAC_b_slice:length <- [DW_OP_plus_uconst 28, DW_OP_deref] $rsp
	#DEBUG_VALUE: read_skip_flag_CABAC_b_slice:currMB <- $rbx
	#DEBUG_VALUE: read_skip_flag_CABAC_b_slice:se <- [DW_OP_plus_uconst 8, DW_OP_deref] $rsp
	#DEBUG_VALUE: read_skip_flag_CABAC_b_slice:dep_dp <- [DW_OP_plus_uconst 32, DW_OP_deref] $rsp
	#DEBUG_VALUE: read_skip_flag_CABAC_b_slice:currSlice <- [DW_OP_plus_uconst 96, DW_OP_deref] $rsp
	.loc	0 0 7                           # ldecod_src/cabac.c:0:7
	movq	8(%rsp), %rax                   # 8-byte Reload
.Ltmp255:
	movq	$0, 4(%rax)
	movq	96(%rsp), %rcx                  # 8-byte Reload
.Ltmp256:
	.loc	0 585 28 is_stmt 1              # ldecod_src/cabac.c:585:28
	movl	$0, 212(%rcx)
.Ltmp257:
	.loc	0 300 21                        # ldecod_src/cabac.c:300:21
	cmpl	$0, 4(%rax)
	.loc	0 300 25 is_stmt 0              # ldecod_src/cabac.c:300:25
	jne	.LBB9_13
.Ltmp258:
# %bb.19:                               # %land.end
	#DEBUG_VALUE: check_next_mb_and_get_field_mode_CABAC_b_slice:currSlice <- [DW_OP_plus_uconst 112] [$rsp+0]
	#DEBUG_VALUE: check_next_mb_and_get_field_mode_CABAC_b_slice:se <- [DW_OP_plus_uconst 8] [$rsp+0]
	#DEBUG_VALUE: check_next_mb_and_get_field_mode_CABAC_b_slice:act_dp <- [DW_OP_plus_uconst 16] [$rsp+0]
	#DEBUG_VALUE: check_next_mb_and_get_field_mode_CABAC_b_slice:dep_dp <- [DW_OP_plus_uconst 32, DW_OP_deref] $rsp
	#DEBUG_VALUE: check_next_mb_and_get_field_mode_CABAC_b_slice:mot_ctx <- $rbp
	#DEBUG_VALUE: check_next_mb_and_get_field_mode_CABAC_b_slice:skip <- 0
	#DEBUG_VALUE: check_next_mb_and_get_field_mode_CABAC_b_slice:field <- 0
	#DEBUG_VALUE: check_next_mb_and_get_field_mode_CABAC_b_slice:currMB <- $rbx
	#DEBUG_VALUE: check_next_mb_and_get_field_mode_CABAC_b_slice:dep_dp_copy <- [DW_OP_plus_uconst 56, DW_OP_deref] $rsp
	#DEBUG_VALUE: check_next_mb_and_get_field_mode_CABAC_b_slice:i <- 3
	#DEBUG_VALUE: check_next_mb_and_get_field_mode_CABAC_b_slice:mb_type_ctx_copy <- [DW_OP_plus_uconst 128, DW_OP_deref, DW_OP_LLVM_fragment 0 64] $rsp
	#DEBUG_VALUE: check_next_mb_and_get_field_mode_CABAC_b_slice:mb_type_ctx_copy <- [DW_OP_plus_uconst 120, DW_OP_deref, DW_OP_LLVM_fragment 64 64] $rsp
	#DEBUG_VALUE: check_next_mb_and_get_field_mode_CABAC_b_slice:mb_type_ctx_copy <- [DW_OP_plus_uconst 48, DW_OP_deref, DW_OP_LLVM_fragment 128 64] $rsp
	#DEBUG_VALUE: check_next_mb_and_get_field_mode_CABAC_b_slice:mb_aff_ctx_copy <- [DW_OP_plus_uconst 40, DW_OP_deref] $rsp
	#DEBUG_VALUE: check_next_mb_and_get_field_mode_CABAC_b_slice:length <- [DW_OP_plus_uconst 28, DW_OP_deref] $rsp
	.loc	0 0 25                          # ldecod_src/cabac.c:0:25
	movq	8(%rsp), %rax                   # 8-byte Reload
	.loc	0 300 38                        # ldecod_src/cabac.c:300:38
	cmpl	$0, 8(%rax)
.Ltmp259:
	#DEBUG_VALUE: check_next_mb_and_get_field_mode_CABAC_b_slice:skip <- undef
	.loc	0 301 7 is_stmt 1               # ldecod_src/cabac.c:301:7
	jne	.LBB9_13
.Ltmp260:
# %bb.20:
	#DEBUG_VALUE: check_next_mb_and_get_field_mode_CABAC_b_slice:currSlice <- [DW_OP_plus_uconst 112] [$rsp+0]
	#DEBUG_VALUE: check_next_mb_and_get_field_mode_CABAC_b_slice:se <- [DW_OP_plus_uconst 8] [$rsp+0]
	#DEBUG_VALUE: check_next_mb_and_get_field_mode_CABAC_b_slice:act_dp <- [DW_OP_plus_uconst 16] [$rsp+0]
	#DEBUG_VALUE: check_next_mb_and_get_field_mode_CABAC_b_slice:dep_dp <- [DW_OP_plus_uconst 32, DW_OP_deref] $rsp
	#DEBUG_VALUE: check_next_mb_and_get_field_mode_CABAC_b_slice:mot_ctx <- $rbp
	#DEBUG_VALUE: check_next_mb_and_get_field_mode_CABAC_b_slice:field <- 0
	#DEBUG_VALUE: check_next_mb_and_get_field_mode_CABAC_b_slice:currMB <- $rbx
	#DEBUG_VALUE: check_next_mb_and_get_field_mode_CABAC_b_slice:dep_dp_copy <- [DW_OP_plus_uconst 56, DW_OP_deref] $rsp
	#DEBUG_VALUE: check_next_mb_and_get_field_mode_CABAC_b_slice:i <- 3
	#DEBUG_VALUE: check_next_mb_and_get_field_mode_CABAC_b_slice:mb_type_ctx_copy <- [DW_OP_plus_uconst 128, DW_OP_deref, DW_OP_LLVM_fragment 0 64] $rsp
	#DEBUG_VALUE: check_next_mb_and_get_field_mode_CABAC_b_slice:mb_type_ctx_copy <- [DW_OP_plus_uconst 120, DW_OP_deref, DW_OP_LLVM_fragment 64 64] $rsp
	#DEBUG_VALUE: check_next_mb_and_get_field_mode_CABAC_b_slice:mb_type_ctx_copy <- [DW_OP_plus_uconst 48, DW_OP_deref, DW_OP_LLVM_fragment 128 64] $rsp
	#DEBUG_VALUE: check_next_mb_and_get_field_mode_CABAC_b_slice:mb_aff_ctx_copy <- [DW_OP_plus_uconst 40, DW_OP_deref] $rsp
	#DEBUG_VALUE: check_next_mb_and_get_field_mode_CABAC_b_slice:length <- [DW_OP_plus_uconst 28, DW_OP_deref] $rsp
	.loc	0 0 7 is_stmt 0                 # ldecod_src/cabac.c:0:7
	movl	$1, 8(%rsp)                     # 4-byte Folded Spill
.Ltmp261:
	#DEBUG_VALUE: check_next_mb_and_get_field_mode_CABAC_b_slice:se <- $rax
	jmp	.LBB9_21
.Ltmp262:
.LBB9_12:                               # %read_skip_flag_CABAC_b_slice.exit.thread
	#DEBUG_VALUE: check_next_mb_and_get_field_mode_CABAC_b_slice:currSlice <- [DW_OP_plus_uconst 112] [$rsp+0]
	#DEBUG_VALUE: check_next_mb_and_get_field_mode_CABAC_b_slice:se <- [DW_OP_plus_uconst 8] [$rsp+0]
	#DEBUG_VALUE: check_next_mb_and_get_field_mode_CABAC_b_slice:act_dp <- [DW_OP_plus_uconst 16] [$rsp+0]
	#DEBUG_VALUE: check_next_mb_and_get_field_mode_CABAC_b_slice:dep_dp <- [DW_OP_plus_uconst 32, DW_OP_deref] $rsp
	#DEBUG_VALUE: check_next_mb_and_get_field_mode_CABAC_b_slice:mot_ctx <- $rbp
	#DEBUG_VALUE: check_next_mb_and_get_field_mode_CABAC_b_slice:skip <- 0
	#DEBUG_VALUE: check_next_mb_and_get_field_mode_CABAC_b_slice:field <- 0
	#DEBUG_VALUE: check_next_mb_and_get_field_mode_CABAC_b_slice:currMB <- $rbx
	#DEBUG_VALUE: check_next_mb_and_get_field_mode_CABAC_b_slice:dep_dp_copy <- [DW_OP_plus_uconst 56, DW_OP_deref] $rsp
	#DEBUG_VALUE: check_next_mb_and_get_field_mode_CABAC_b_slice:i <- 3
	#DEBUG_VALUE: check_next_mb_and_get_field_mode_CABAC_b_slice:mb_type_ctx_copy <- [DW_OP_plus_uconst 128, DW_OP_deref, DW_OP_LLVM_fragment 0 64] $rsp
	#DEBUG_VALUE: check_next_mb_and_get_field_mode_CABAC_b_slice:mb_type_ctx_copy <- [DW_OP_plus_uconst 120, DW_OP_deref, DW_OP_LLVM_fragment 64 64] $rsp
	#DEBUG_VALUE: check_next_mb_and_get_field_mode_CABAC_b_slice:mb_type_ctx_copy <- [DW_OP_plus_uconst 48, DW_OP_deref, DW_OP_LLVM_fragment 128 64] $rsp
	#DEBUG_VALUE: check_next_mb_and_get_field_mode_CABAC_b_slice:mb_aff_ctx_copy <- [DW_OP_plus_uconst 40, DW_OP_deref] $rsp
	#DEBUG_VALUE: check_next_mb_and_get_field_mode_CABAC_b_slice:length <- [DW_OP_plus_uconst 28, DW_OP_deref] $rsp
	#DEBUG_VALUE: read_skip_flag_CABAC_b_slice:currMB <- $rbx
	#DEBUG_VALUE: read_skip_flag_CABAC_b_slice:se <- [DW_OP_plus_uconst 8, DW_OP_deref] $rsp
	#DEBUG_VALUE: read_skip_flag_CABAC_b_slice:dep_dp <- [DW_OP_plus_uconst 32, DW_OP_deref] $rsp
	#DEBUG_VALUE: read_skip_flag_CABAC_b_slice:currSlice <- [DW_OP_plus_uconst 96, DW_OP_deref] $rsp
	movabsq	$4294967297, %rax               # imm = 0x100000001
	movq	8(%rsp), %rcx                   # 8-byte Reload
.Ltmp263:
	movq	%rax, 4(%rcx)
.Ltmp264:
.LBB9_13:                               # %if.then
	#DEBUG_VALUE: check_next_mb_and_get_field_mode_CABAC_b_slice:currSlice <- [DW_OP_plus_uconst 112] [$rsp+0]
	#DEBUG_VALUE: check_next_mb_and_get_field_mode_CABAC_b_slice:se <- [DW_OP_plus_uconst 8] [$rsp+0]
	#DEBUG_VALUE: check_next_mb_and_get_field_mode_CABAC_b_slice:act_dp <- [DW_OP_plus_uconst 16] [$rsp+0]
	#DEBUG_VALUE: check_next_mb_and_get_field_mode_CABAC_b_slice:dep_dp <- [DW_OP_plus_uconst 32, DW_OP_deref] $rsp
	#DEBUG_VALUE: check_next_mb_and_get_field_mode_CABAC_b_slice:mot_ctx <- $rbp
	#DEBUG_VALUE: check_next_mb_and_get_field_mode_CABAC_b_slice:field <- 0
	#DEBUG_VALUE: check_next_mb_and_get_field_mode_CABAC_b_slice:currMB <- $rbx
	#DEBUG_VALUE: check_next_mb_and_get_field_mode_CABAC_b_slice:dep_dp_copy <- [DW_OP_plus_uconst 56, DW_OP_deref] $rsp
	#DEBUG_VALUE: check_next_mb_and_get_field_mode_CABAC_b_slice:i <- 3
	#DEBUG_VALUE: check_next_mb_and_get_field_mode_CABAC_b_slice:mb_type_ctx_copy <- [DW_OP_plus_uconst 128, DW_OP_deref, DW_OP_LLVM_fragment 0 64] $rsp
	#DEBUG_VALUE: check_next_mb_and_get_field_mode_CABAC_b_slice:mb_type_ctx_copy <- [DW_OP_plus_uconst 120, DW_OP_deref, DW_OP_LLVM_fragment 64 64] $rsp
	#DEBUG_VALUE: check_next_mb_and_get_field_mode_CABAC_b_slice:mb_type_ctx_copy <- [DW_OP_plus_uconst 48, DW_OP_deref, DW_OP_LLVM_fragment 128 64] $rsp
	#DEBUG_VALUE: check_next_mb_and_get_field_mode_CABAC_b_slice:mb_aff_ctx_copy <- [DW_OP_plus_uconst 40, DW_OP_deref] $rsp
	#DEBUG_VALUE: check_next_mb_and_get_field_mode_CABAC_b_slice:length <- [DW_OP_plus_uconst 28, DW_OP_deref] $rsp
	#DEBUG_VALUE: readFieldModeInfo_CABAC:currMB <- $rbx
	#DEBUG_VALUE: readFieldModeInfo_CABAC:se <- [DW_OP_plus_uconst 8, DW_OP_deref] $rsp
	#DEBUG_VALUE: readFieldModeInfo_CABAC:dep_dp <- [DW_OP_plus_uconst 32, DW_OP_deref] $rsp
	.loc	0 144 30 is_stmt 1              # ldecod_src/cabac.c:144:30
	movq	(%rbx), %rdx
.Ltmp265:
	#DEBUG_VALUE: readFieldModeInfo_CABAC:currSlice <- $rdx
	#DEBUG_VALUE: readFieldModeInfo_CABAC:ctx <- undef
	.loc	0 0 30 is_stmt 0                # ldecod_src/cabac.c:0:30
	xorl	%eax, %eax
	.loc	0 147 11 is_stmt 1              # ldecod_src/cabac.c:147:11
	cmpl	$0, 404(%rbx)
	movl	$0, %ecx
	je	.LBB9_15
.Ltmp266:
# %bb.14:                               # %cond.true.i133
	#DEBUG_VALUE: check_next_mb_and_get_field_mode_CABAC_b_slice:currSlice <- [DW_OP_plus_uconst 112] [$rsp+0]
	#DEBUG_VALUE: check_next_mb_and_get_field_mode_CABAC_b_slice:se <- [DW_OP_plus_uconst 8] [$rsp+0]
	#DEBUG_VALUE: check_next_mb_and_get_field_mode_CABAC_b_slice:act_dp <- [DW_OP_plus_uconst 16] [$rsp+0]
	#DEBUG_VALUE: check_next_mb_and_get_field_mode_CABAC_b_slice:dep_dp <- [DW_OP_plus_uconst 32, DW_OP_deref] $rsp
	#DEBUG_VALUE: check_next_mb_and_get_field_mode_CABAC_b_slice:mot_ctx <- $rbp
	#DEBUG_VALUE: check_next_mb_and_get_field_mode_CABAC_b_slice:field <- 0
	#DEBUG_VALUE: check_next_mb_and_get_field_mode_CABAC_b_slice:currMB <- $rbx
	#DEBUG_VALUE: check_next_mb_and_get_field_mode_CABAC_b_slice:dep_dp_copy <- [DW_OP_plus_uconst 56, DW_OP_deref] $rsp
	#DEBUG_VALUE: check_next_mb_and_get_field_mode_CABAC_b_slice:i <- 3
	#DEBUG_VALUE: check_next_mb_and_get_field_mode_CABAC_b_slice:mb_type_ctx_copy <- [DW_OP_plus_uconst 128, DW_OP_deref, DW_OP_LLVM_fragment 0 64] $rsp
	#DEBUG_VALUE: check_next_mb_and_get_field_mode_CABAC_b_slice:mb_type_ctx_copy <- [DW_OP_plus_uconst 120, DW_OP_deref, DW_OP_LLVM_fragment 64 64] $rsp
	#DEBUG_VALUE: check_next_mb_and_get_field_mode_CABAC_b_slice:mb_type_ctx_copy <- [DW_OP_plus_uconst 48, DW_OP_deref, DW_OP_LLVM_fragment 128 64] $rsp
	#DEBUG_VALUE: check_next_mb_and_get_field_mode_CABAC_b_slice:mb_aff_ctx_copy <- [DW_OP_plus_uconst 40, DW_OP_deref] $rsp
	#DEBUG_VALUE: check_next_mb_and_get_field_mode_CABAC_b_slice:length <- [DW_OP_plus_uconst 28, DW_OP_deref] $rsp
	#DEBUG_VALUE: readFieldModeInfo_CABAC:currMB <- $rbx
	#DEBUG_VALUE: readFieldModeInfo_CABAC:se <- [DW_OP_plus_uconst 8, DW_OP_deref] $rsp
	#DEBUG_VALUE: readFieldModeInfo_CABAC:dep_dp <- [DW_OP_plus_uconst 32, DW_OP_deref] $rsp
	#DEBUG_VALUE: readFieldModeInfo_CABAC:currSlice <- $rdx
	.loc	0 147 41 is_stmt 0              # ldecod_src/cabac.c:147:41
	movq	13512(%rdx), %rcx
	.loc	0 147 57                        # ldecod_src/cabac.c:147:57
	movslq	388(%rbx), %rsi
	.loc	0 147 66                        # ldecod_src/cabac.c:147:66
	imulq	$480, %rsi, %rsi                # imm = 0x1E0
	movl	384(%rcx,%rsi), %ecx
.Ltmp267:
.LBB9_15:                               # %cond.end.i136
	#DEBUG_VALUE: check_next_mb_and_get_field_mode_CABAC_b_slice:currSlice <- [DW_OP_plus_uconst 112] [$rsp+0]
	#DEBUG_VALUE: check_next_mb_and_get_field_mode_CABAC_b_slice:se <- [DW_OP_plus_uconst 8] [$rsp+0]
	#DEBUG_VALUE: check_next_mb_and_get_field_mode_CABAC_b_slice:act_dp <- [DW_OP_plus_uconst 16] [$rsp+0]
	#DEBUG_VALUE: check_next_mb_and_get_field_mode_CABAC_b_slice:dep_dp <- [DW_OP_plus_uconst 32, DW_OP_deref] $rsp
	#DEBUG_VALUE: check_next_mb_and_get_field_mode_CABAC_b_slice:mot_ctx <- $rbp
	#DEBUG_VALUE: check_next_mb_and_get_field_mode_CABAC_b_slice:field <- 0
	#DEBUG_VALUE: check_next_mb_and_get_field_mode_CABAC_b_slice:currMB <- $rbx
	#DEBUG_VALUE: check_next_mb_and_get_field_mode_CABAC_b_slice:dep_dp_copy <- [DW_OP_plus_uconst 56, DW_OP_deref] $rsp
	#DEBUG_VALUE: check_next_mb_and_get_field_mode_CABAC_b_slice:i <- 3
	#DEBUG_VALUE: check_next_mb_and_get_field_mode_CABAC_b_slice:mb_type_ctx_copy <- [DW_OP_plus_uconst 128, DW_OP_deref, DW_OP_LLVM_fragment 0 64] $rsp
	#DEBUG_VALUE: check_next_mb_and_get_field_mode_CABAC_b_slice:mb_type_ctx_copy <- [DW_OP_plus_uconst 120, DW_OP_deref, DW_OP_LLVM_fragment 64 64] $rsp
	#DEBUG_VALUE: check_next_mb_and_get_field_mode_CABAC_b_slice:mb_type_ctx_copy <- [DW_OP_plus_uconst 48, DW_OP_deref, DW_OP_LLVM_fragment 128 64] $rsp
	#DEBUG_VALUE: check_next_mb_and_get_field_mode_CABAC_b_slice:mb_aff_ctx_copy <- [DW_OP_plus_uconst 40, DW_OP_deref] $rsp
	#DEBUG_VALUE: check_next_mb_and_get_field_mode_CABAC_b_slice:length <- [DW_OP_plus_uconst 28, DW_OP_deref] $rsp
	#DEBUG_VALUE: readFieldModeInfo_CABAC:currMB <- $rbx
	#DEBUG_VALUE: readFieldModeInfo_CABAC:se <- [DW_OP_plus_uconst 8, DW_OP_deref] $rsp
	#DEBUG_VALUE: readFieldModeInfo_CABAC:dep_dp <- [DW_OP_plus_uconst 32, DW_OP_deref] $rsp
	#DEBUG_VALUE: readFieldModeInfo_CABAC:currSlice <- $rdx
	.loc	0 0 0                           # ldecod_src/cabac.c:0:0
	movq	320(%rdx), %rsi
.Ltmp268:
	#DEBUG_VALUE: readFieldModeInfo_CABAC:ctx <- $rsi
	#DEBUG_VALUE: readFieldModeInfo_CABAC:a <- $ecx
	.loc	0 148 11 is_stmt 1              # ldecod_src/cabac.c:148:11
	cmpl	$0, 408(%rbx)
	je	.LBB9_17
.Ltmp269:
# %bb.16:                               # %cond.true2.i
	#DEBUG_VALUE: check_next_mb_and_get_field_mode_CABAC_b_slice:currSlice <- [DW_OP_plus_uconst 112] [$rsp+0]
	#DEBUG_VALUE: check_next_mb_and_get_field_mode_CABAC_b_slice:se <- [DW_OP_plus_uconst 8] [$rsp+0]
	#DEBUG_VALUE: check_next_mb_and_get_field_mode_CABAC_b_slice:act_dp <- [DW_OP_plus_uconst 16] [$rsp+0]
	#DEBUG_VALUE: check_next_mb_and_get_field_mode_CABAC_b_slice:dep_dp <- [DW_OP_plus_uconst 32, DW_OP_deref] $rsp
	#DEBUG_VALUE: check_next_mb_and_get_field_mode_CABAC_b_slice:mot_ctx <- $rbp
	#DEBUG_VALUE: check_next_mb_and_get_field_mode_CABAC_b_slice:field <- 0
	#DEBUG_VALUE: check_next_mb_and_get_field_mode_CABAC_b_slice:currMB <- $rbx
	#DEBUG_VALUE: check_next_mb_and_get_field_mode_CABAC_b_slice:dep_dp_copy <- [DW_OP_plus_uconst 56, DW_OP_deref] $rsp
	#DEBUG_VALUE: check_next_mb_and_get_field_mode_CABAC_b_slice:i <- 3
	#DEBUG_VALUE: check_next_mb_and_get_field_mode_CABAC_b_slice:mb_type_ctx_copy <- [DW_OP_plus_uconst 128, DW_OP_deref, DW_OP_LLVM_fragment 0 64] $rsp
	#DEBUG_VALUE: check_next_mb_and_get_field_mode_CABAC_b_slice:mb_type_ctx_copy <- [DW_OP_plus_uconst 120, DW_OP_deref, DW_OP_LLVM_fragment 64 64] $rsp
	#DEBUG_VALUE: check_next_mb_and_get_field_mode_CABAC_b_slice:mb_type_ctx_copy <- [DW_OP_plus_uconst 48, DW_OP_deref, DW_OP_LLVM_fragment 128 64] $rsp
	#DEBUG_VALUE: check_next_mb_and_get_field_mode_CABAC_b_slice:mb_aff_ctx_copy <- [DW_OP_plus_uconst 40, DW_OP_deref] $rsp
	#DEBUG_VALUE: check_next_mb_and_get_field_mode_CABAC_b_slice:length <- [DW_OP_plus_uconst 28, DW_OP_deref] $rsp
	#DEBUG_VALUE: readFieldModeInfo_CABAC:currMB <- $rbx
	#DEBUG_VALUE: readFieldModeInfo_CABAC:se <- [DW_OP_plus_uconst 8, DW_OP_deref] $rsp
	#DEBUG_VALUE: readFieldModeInfo_CABAC:dep_dp <- [DW_OP_plus_uconst 32, DW_OP_deref] $rsp
	#DEBUG_VALUE: readFieldModeInfo_CABAC:currSlice <- $rdx
	#DEBUG_VALUE: readFieldModeInfo_CABAC:ctx <- $rsi
	#DEBUG_VALUE: readFieldModeInfo_CABAC:a <- $ecx
	.loc	0 148 41 is_stmt 0              # ldecod_src/cabac.c:148:41
	movq	13512(%rdx), %rax
	.loc	0 148 57                        # ldecod_src/cabac.c:148:57
	movslq	392(%rbx), %rdx
.Ltmp270:
	.loc	0 148 66                        # ldecod_src/cabac.c:148:66
	imulq	$480, %rdx, %rdx                # imm = 0x1E0
	movl	384(%rax,%rdx), %eax
.Ltmp271:
.LBB9_17:                               # %readFieldModeInfo_CABAC.exit
	#DEBUG_VALUE: check_next_mb_and_get_field_mode_CABAC_b_slice:currSlice <- [DW_OP_plus_uconst 112] [$rsp+0]
	#DEBUG_VALUE: check_next_mb_and_get_field_mode_CABAC_b_slice:se <- [DW_OP_plus_uconst 8] [$rsp+0]
	#DEBUG_VALUE: check_next_mb_and_get_field_mode_CABAC_b_slice:act_dp <- [DW_OP_plus_uconst 16] [$rsp+0]
	#DEBUG_VALUE: check_next_mb_and_get_field_mode_CABAC_b_slice:dep_dp <- [DW_OP_plus_uconst 32, DW_OP_deref] $rsp
	#DEBUG_VALUE: check_next_mb_and_get_field_mode_CABAC_b_slice:mot_ctx <- $rbp
	#DEBUG_VALUE: check_next_mb_and_get_field_mode_CABAC_b_slice:field <- 0
	#DEBUG_VALUE: check_next_mb_and_get_field_mode_CABAC_b_slice:currMB <- $rbx
	#DEBUG_VALUE: check_next_mb_and_get_field_mode_CABAC_b_slice:dep_dp_copy <- [DW_OP_plus_uconst 56, DW_OP_deref] $rsp
	#DEBUG_VALUE: check_next_mb_and_get_field_mode_CABAC_b_slice:i <- 3
	#DEBUG_VALUE: check_next_mb_and_get_field_mode_CABAC_b_slice:mb_type_ctx_copy <- [DW_OP_plus_uconst 128, DW_OP_deref, DW_OP_LLVM_fragment 0 64] $rsp
	#DEBUG_VALUE: check_next_mb_and_get_field_mode_CABAC_b_slice:mb_type_ctx_copy <- [DW_OP_plus_uconst 120, DW_OP_deref, DW_OP_LLVM_fragment 64 64] $rsp
	#DEBUG_VALUE: check_next_mb_and_get_field_mode_CABAC_b_slice:mb_type_ctx_copy <- [DW_OP_plus_uconst 48, DW_OP_deref, DW_OP_LLVM_fragment 128 64] $rsp
	#DEBUG_VALUE: check_next_mb_and_get_field_mode_CABAC_b_slice:mb_aff_ctx_copy <- [DW_OP_plus_uconst 40, DW_OP_deref] $rsp
	#DEBUG_VALUE: check_next_mb_and_get_field_mode_CABAC_b_slice:length <- [DW_OP_plus_uconst 28, DW_OP_deref] $rsp
	#DEBUG_VALUE: readFieldModeInfo_CABAC:currMB <- $rbx
	#DEBUG_VALUE: readFieldModeInfo_CABAC:se <- [DW_OP_plus_uconst 8, DW_OP_deref] $rsp
	#DEBUG_VALUE: readFieldModeInfo_CABAC:dep_dp <- [DW_OP_plus_uconst 32, DW_OP_deref] $rsp
	#DEBUG_VALUE: readFieldModeInfo_CABAC:ctx <- $rsi
	#DEBUG_VALUE: readFieldModeInfo_CABAC:a <- $ecx
	#DEBUG_VALUE: readFieldModeInfo_CABAC:b <- $eax
	.loc	0 149 19 is_stmt 1              # ldecod_src/cabac.c:149:19
	addl	%ecx, %eax
.Ltmp272:
	#DEBUG_VALUE: readFieldModeInfo_CABAC:act_ctx <- $eax
	.loc	0 151 46                        # ldecod_src/cabac.c:151:46
	cltq
.Ltmp273:
	leaq	(%rsi,%rax,4), %rsi
.Ltmp274:
	addq	$348, %rsi                      # imm = 0x15C
	.loc	0 151 16 is_stmt 0              # ldecod_src/cabac.c:151:16
	movq	%r13, %rdi
	callq	biari_decode_symbol@PLT
.Ltmp275:
	#DEBUG_VALUE: check_next_mb_and_get_field_mode_CABAC_b_slice:field <- $eax
	.loc	0 0 16                          # ldecod_src/cabac.c:0:16
	movq	8(%rsp), %rcx                   # 8-byte Reload
	.loc	0 151 14                        # ldecod_src/cabac.c:151:14
	movl	%eax, 4(%rcx)
.Ltmp276:
	.loc	0 308 16 is_stmt 1              # ldecod_src/cabac.c:308:16
	movq	13512(%r15), %rcx
	.loc	0 308 35 is_stmt 0              # ldecod_src/cabac.c:308:35
	movl	108(%r15), %edx
	.loc	0 308 48                        # ldecod_src/cabac.c:308:48
	decl	%edx
	.loc	0 308 52                        # ldecod_src/cabac.c:308:52
	imulq	$480, %rdx, %rdx                # imm = 0x1E0
	.loc	0 308 61                        # ldecod_src/cabac.c:308:61
	movl	%eax, 384(%rcx,%rdx)
	movl	$0, 8(%rsp)                     # 4-byte Folded Spill
.Ltmp277:
	#DEBUG_VALUE: readFieldModeInfo_CABAC:se <- undef
	#DEBUG_VALUE: check_next_mb_and_get_field_mode_CABAC_b_slice:se <- undef
.LBB9_21:                               # %if.end
	#DEBUG_VALUE: check_next_mb_and_get_field_mode_CABAC_b_slice:currSlice <- [DW_OP_plus_uconst 112] [$rsp+0]
	#DEBUG_VALUE: check_next_mb_and_get_field_mode_CABAC_b_slice:se <- [DW_OP_LLVM_entry_value 1] $rsi
	#DEBUG_VALUE: check_next_mb_and_get_field_mode_CABAC_b_slice:act_dp <- [DW_OP_plus_uconst 16] [$rsp+0]
	#DEBUG_VALUE: check_next_mb_and_get_field_mode_CABAC_b_slice:dep_dp <- [DW_OP_plus_uconst 32, DW_OP_deref] $rsp
	#DEBUG_VALUE: check_next_mb_and_get_field_mode_CABAC_b_slice:mot_ctx <- $rbp
	#DEBUG_VALUE: check_next_mb_and_get_field_mode_CABAC_b_slice:currMB <- $rbx
	#DEBUG_VALUE: check_next_mb_and_get_field_mode_CABAC_b_slice:dep_dp_copy <- [DW_OP_plus_uconst 56, DW_OP_deref] $rsp
	#DEBUG_VALUE: check_next_mb_and_get_field_mode_CABAC_b_slice:i <- 3
	#DEBUG_VALUE: check_next_mb_and_get_field_mode_CABAC_b_slice:mb_type_ctx_copy <- [DW_OP_plus_uconst 128, DW_OP_deref, DW_OP_LLVM_fragment 0 64] $rsp
	#DEBUG_VALUE: check_next_mb_and_get_field_mode_CABAC_b_slice:mb_type_ctx_copy <- [DW_OP_plus_uconst 120, DW_OP_deref, DW_OP_LLVM_fragment 64 64] $rsp
	#DEBUG_VALUE: check_next_mb_and_get_field_mode_CABAC_b_slice:mb_type_ctx_copy <- [DW_OP_plus_uconst 48, DW_OP_deref, DW_OP_LLVM_fragment 128 64] $rsp
	#DEBUG_VALUE: check_next_mb_and_get_field_mode_CABAC_b_slice:mb_aff_ctx_copy <- [DW_OP_plus_uconst 40, DW_OP_deref] $rsp
	#DEBUG_VALUE: check_next_mb_and_get_field_mode_CABAC_b_slice:length <- [DW_OP_plus_uconst 28, DW_OP_deref] $rsp
	.loc	0 312 27 is_stmt 1              # ldecod_src/cabac.c:312:27
	decl	108(%r15)
	movq	56(%rsp), %rax                  # 8-byte Reload
	.loc	0 314 3                         # ldecod_src/cabac.c:314:3
	movups	(%rax), %xmm0
	movups	16(%rax), %xmm1
	movups	%xmm1, 16(%r13)
	movups	%xmm0, (%r13)
	movq	16(%rsp), %rax                  # 8-byte Reload
	.loc	0 315 13                        # ldecod_src/cabac.c:315:13
	movq	32(%rax), %rax
	movl	28(%rsp), %ecx                  # 4-byte Reload
	.loc	0 315 28 is_stmt 0              # ldecod_src/cabac.c:315:28
	movl	%ecx, (%rax)
.Ltmp278:
	#DEBUG_VALUE: check_next_mb_and_get_field_mode_CABAC_b_slice:i <- 0
	.loc	0 0 28                          # ldecod_src/cabac.c:0:28
	movq	128(%rsp), %r13                 # 8-byte Reload
.Ltmp279:
	.loc	0 318 5 is_stmt 1               # ldecod_src/cabac.c:318:5
	movups	(%r13), %xmm0
	movups	16(%r13), %xmm1
	movups	28(%r13), %xmm2
	movups	%xmm2, 28(%rbp)
	movups	%xmm1, 16(%rbp)
	movups	%xmm0, (%rbp)
.Ltmp280:
	#DEBUG_VALUE: check_next_mb_and_get_field_mode_CABAC_b_slice:i <- 1
	.loc	0 0 5 is_stmt 0                 # ldecod_src/cabac.c:0:5
	movq	120(%rsp), %rbp                 # 8-byte Reload
.Ltmp281:
	.loc	0 318 5                         # ldecod_src/cabac.c:318:5
	movups	(%rbp), %xmm0
	movups	16(%rbp), %xmm1
	movups	28(%rbp), %xmm2
	movups	%xmm2, 28(%r14)
	movups	%xmm1, 16(%r14)
	movups	%xmm0, (%r14)
.Ltmp282:
	#DEBUG_VALUE: check_next_mb_and_get_field_mode_CABAC_b_slice:i <- 2
	.loc	0 0 5                           # ldecod_src/cabac.c:0:5
	movq	48(%rsp), %rax                  # 8-byte Reload
	.loc	0 318 5                         # ldecod_src/cabac.c:318:5
	movups	(%rax), %xmm0
	movups	16(%rax), %xmm1
	movups	28(%rax), %xmm2
	movups	%xmm2, 28(%r12)
	movups	%xmm1, 16(%r12)
	movups	%xmm0, (%r12)
.Ltmp283:
	#DEBUG_VALUE: check_next_mb_and_get_field_mode_CABAC_b_slice:i <- 3
	.loc	0 0 5                           # ldecod_src/cabac.c:0:5
	movq	40(%rsp), %rax                  # 8-byte Reload
.Ltmp284:
	.loc	0 320 3 is_stmt 1               # ldecod_src/cabac.c:320:3
	movups	(%rax), %xmm0
	movq	104(%rsp), %rax                 # 8-byte Reload
	movups	%xmm0, (%rax)
.Ltmp285:
	#DEBUG_VALUE: CheckAvailabilityOfNeighborsCABAC:left <- [DW_OP_plus_uconst 64, DW_OP_deref] $rsp
	#DEBUG_VALUE: CheckAvailabilityOfNeighborsCABAC:currMB <- $rbx
	.loc	0 47 36                         # ldecod_src/cabac.c:47:36
	movq	8(%rbx), %r12
.Ltmp286:
	#DEBUG_VALUE: CheckAvailabilityOfNeighborsCABAC:p_Vid <- $r12
	.loc	0 49 25                         # ldecod_src/cabac.c:49:25
	leaq	849124(%r12), %r15
.Ltmp287:
	#DEBUG_VALUE: CheckAvailabilityOfNeighborsCABAC:mb_size <- $r15
	.loc	0 0 25 is_stmt 0                # ldecod_src/cabac.c:0:25
	xorl	%r14d, %r14d
	leaq	64(%rsp), %r8
	.loc	0 51 3 is_stmt 1                # ldecod_src/cabac.c:51:3
	movq	%rbx, %rdi
	movl	$-1, %esi
	xorl	%edx, %edx
	movq	%r15, %rcx
	callq	*856744(%r12)
.Ltmp288:
	.loc	0 0 3 is_stmt 0                 # ldecod_src/cabac.c:0:3
	leaq	80(%rsp), %r8
	.loc	0 52 3 is_stmt 1                # ldecod_src/cabac.c:52:3
	movq	%rbx, %rdi
	xorl	%esi, %esi
	movl	$-1, %edx
	movq	%r15, %rcx
	callq	*856744(%r12)
.Ltmp289:
	.loc	0 54 7                          # ldecod_src/cabac.c:54:7
	cmpl	$0, 80(%rsp)
.Ltmp290:
	.loc	0 54 7 is_stmt 0                # ldecod_src/cabac.c:54:7
	je	.LBB9_23
.Ltmp291:
# %bb.22:                               # %if.then.i145
	#DEBUG_VALUE: check_next_mb_and_get_field_mode_CABAC_b_slice:currSlice <- [DW_OP_plus_uconst 112] [$rsp+0]
	#DEBUG_VALUE: check_next_mb_and_get_field_mode_CABAC_b_slice:se <- [DW_OP_LLVM_entry_value 1] $rsi
	#DEBUG_VALUE: check_next_mb_and_get_field_mode_CABAC_b_slice:act_dp <- [DW_OP_plus_uconst 16] [$rsp+0]
	#DEBUG_VALUE: check_next_mb_and_get_field_mode_CABAC_b_slice:dep_dp <- [DW_OP_plus_uconst 32, DW_OP_deref] $rsp
	#DEBUG_VALUE: check_next_mb_and_get_field_mode_CABAC_b_slice:currMB <- $rbx
	#DEBUG_VALUE: check_next_mb_and_get_field_mode_CABAC_b_slice:dep_dp_copy <- [DW_OP_plus_uconst 56, DW_OP_deref] $rsp
	#DEBUG_VALUE: check_next_mb_and_get_field_mode_CABAC_b_slice:i <- 3
	#DEBUG_VALUE: check_next_mb_and_get_field_mode_CABAC_b_slice:mb_type_ctx_copy <- [DW_OP_plus_uconst 128, DW_OP_deref, DW_OP_LLVM_fragment 0 64] $rsp
	#DEBUG_VALUE: check_next_mb_and_get_field_mode_CABAC_b_slice:mb_type_ctx_copy <- [DW_OP_plus_uconst 120, DW_OP_deref, DW_OP_LLVM_fragment 64 64] $rsp
	#DEBUG_VALUE: check_next_mb_and_get_field_mode_CABAC_b_slice:mb_type_ctx_copy <- [DW_OP_plus_uconst 48, DW_OP_deref, DW_OP_LLVM_fragment 128 64] $rsp
	#DEBUG_VALUE: check_next_mb_and_get_field_mode_CABAC_b_slice:mb_aff_ctx_copy <- [DW_OP_plus_uconst 40, DW_OP_deref] $rsp
	#DEBUG_VALUE: check_next_mb_and_get_field_mode_CABAC_b_slice:length <- [DW_OP_plus_uconst 28, DW_OP_deref] $rsp
	#DEBUG_VALUE: CheckAvailabilityOfNeighborsCABAC:left <- [DW_OP_plus_uconst 64, DW_OP_deref] $rsp
	#DEBUG_VALUE: CheckAvailabilityOfNeighborsCABAC:currMB <- $rbx
	#DEBUG_VALUE: CheckAvailabilityOfNeighborsCABAC:p_Vid <- $r12
	#DEBUG_VALUE: CheckAvailabilityOfNeighborsCABAC:mb_size <- $r15
	.loc	0 55 30 is_stmt 1               # ldecod_src/cabac.c:55:30
	movq	(%rbx), %rax
	.loc	0 55 50 is_stmt 0               # ldecod_src/cabac.c:55:50
	movslq	84(%rsp), %rcx
	.loc	0 55 22                         # ldecod_src/cabac.c:55:22
	imulq	$480, %rcx, %r14                # imm = 0x1E0
	addq	13512(%rax), %r14
.Ltmp292:
.LBB9_23:                               # %if.end.i150
	#DEBUG_VALUE: check_next_mb_and_get_field_mode_CABAC_b_slice:currSlice <- [DW_OP_plus_uconst 112] [$rsp+0]
	#DEBUG_VALUE: check_next_mb_and_get_field_mode_CABAC_b_slice:se <- [DW_OP_LLVM_entry_value 1] $rsi
	#DEBUG_VALUE: check_next_mb_and_get_field_mode_CABAC_b_slice:act_dp <- [DW_OP_plus_uconst 16] [$rsp+0]
	#DEBUG_VALUE: check_next_mb_and_get_field_mode_CABAC_b_slice:dep_dp <- [DW_OP_plus_uconst 32, DW_OP_deref] $rsp
	#DEBUG_VALUE: check_next_mb_and_get_field_mode_CABAC_b_slice:currMB <- $rbx
	#DEBUG_VALUE: check_next_mb_and_get_field_mode_CABAC_b_slice:dep_dp_copy <- [DW_OP_plus_uconst 56, DW_OP_deref] $rsp
	#DEBUG_VALUE: check_next_mb_and_get_field_mode_CABAC_b_slice:i <- 3
	#DEBUG_VALUE: check_next_mb_and_get_field_mode_CABAC_b_slice:mb_type_ctx_copy <- [DW_OP_plus_uconst 128, DW_OP_deref, DW_OP_LLVM_fragment 0 64] $rsp
	#DEBUG_VALUE: check_next_mb_and_get_field_mode_CABAC_b_slice:mb_type_ctx_copy <- [DW_OP_plus_uconst 120, DW_OP_deref, DW_OP_LLVM_fragment 64 64] $rsp
	#DEBUG_VALUE: check_next_mb_and_get_field_mode_CABAC_b_slice:mb_type_ctx_copy <- [DW_OP_plus_uconst 48, DW_OP_deref, DW_OP_LLVM_fragment 128 64] $rsp
	#DEBUG_VALUE: check_next_mb_and_get_field_mode_CABAC_b_slice:mb_aff_ctx_copy <- [DW_OP_plus_uconst 40, DW_OP_deref] $rsp
	#DEBUG_VALUE: check_next_mb_and_get_field_mode_CABAC_b_slice:length <- [DW_OP_plus_uconst 28, DW_OP_deref] $rsp
	#DEBUG_VALUE: CheckAvailabilityOfNeighborsCABAC:left <- [DW_OP_plus_uconst 64, DW_OP_deref] $rsp
	#DEBUG_VALUE: CheckAvailabilityOfNeighborsCABAC:currMB <- $rbx
	#DEBUG_VALUE: CheckAvailabilityOfNeighborsCABAC:p_Vid <- $r12
	#DEBUG_VALUE: CheckAvailabilityOfNeighborsCABAC:mb_size <- $r15
	.loc	0 0 0                           # ldecod_src/cabac.c:0:0
	movq	%r14, 120(%rbx)
.Ltmp293:
	.loc	0 59 7 is_stmt 1                # ldecod_src/cabac.c:59:7
	cmpl	$0, 64(%rsp)
.Ltmp294:
	.loc	0 59 7 is_stmt 0                # ldecod_src/cabac.c:59:7
	je	.LBB9_24
.Ltmp295:
# %bb.25:                               # %if.then8.i153
	#DEBUG_VALUE: check_next_mb_and_get_field_mode_CABAC_b_slice:currSlice <- [DW_OP_plus_uconst 112] [$rsp+0]
	#DEBUG_VALUE: check_next_mb_and_get_field_mode_CABAC_b_slice:se <- [DW_OP_LLVM_entry_value 1] $rsi
	#DEBUG_VALUE: check_next_mb_and_get_field_mode_CABAC_b_slice:act_dp <- [DW_OP_plus_uconst 16] [$rsp+0]
	#DEBUG_VALUE: check_next_mb_and_get_field_mode_CABAC_b_slice:dep_dp <- [DW_OP_plus_uconst 32, DW_OP_deref] $rsp
	#DEBUG_VALUE: check_next_mb_and_get_field_mode_CABAC_b_slice:currMB <- $rbx
	#DEBUG_VALUE: check_next_mb_and_get_field_mode_CABAC_b_slice:dep_dp_copy <- [DW_OP_plus_uconst 56, DW_OP_deref] $rsp
	#DEBUG_VALUE: check_next_mb_and_get_field_mode_CABAC_b_slice:i <- 3
	#DEBUG_VALUE: check_next_mb_and_get_field_mode_CABAC_b_slice:mb_type_ctx_copy <- [DW_OP_plus_uconst 128, DW_OP_deref, DW_OP_LLVM_fragment 0 64] $rsp
	#DEBUG_VALUE: check_next_mb_and_get_field_mode_CABAC_b_slice:mb_type_ctx_copy <- [DW_OP_plus_uconst 120, DW_OP_deref, DW_OP_LLVM_fragment 64 64] $rsp
	#DEBUG_VALUE: check_next_mb_and_get_field_mode_CABAC_b_slice:mb_type_ctx_copy <- [DW_OP_plus_uconst 48, DW_OP_deref, DW_OP_LLVM_fragment 128 64] $rsp
	#DEBUG_VALUE: check_next_mb_and_get_field_mode_CABAC_b_slice:mb_aff_ctx_copy <- [DW_OP_plus_uconst 40, DW_OP_deref] $rsp
	#DEBUG_VALUE: check_next_mb_and_get_field_mode_CABAC_b_slice:length <- [DW_OP_plus_uconst 28, DW_OP_deref] $rsp
	#DEBUG_VALUE: CheckAvailabilityOfNeighborsCABAC:left <- [DW_OP_plus_uconst 64, DW_OP_deref] $rsp
	#DEBUG_VALUE: CheckAvailabilityOfNeighborsCABAC:currMB <- $rbx
	#DEBUG_VALUE: CheckAvailabilityOfNeighborsCABAC:p_Vid <- $r12
	#DEBUG_VALUE: CheckAvailabilityOfNeighborsCABAC:mb_size <- $r15
	.loc	0 60 32 is_stmt 1               # ldecod_src/cabac.c:60:32
	movq	(%rbx), %rcx
	.loc	0 60 54 is_stmt 0               # ldecod_src/cabac.c:60:54
	movslq	68(%rsp), %rax
	.loc	0 60 24                         # ldecod_src/cabac.c:60:24
	imulq	$480, %rax, %rax                # imm = 0x1E0
	addq	13512(%rcx), %rax
	jmp	.LBB9_26
.Ltmp296:
.LBB9_24:
	#DEBUG_VALUE: check_next_mb_and_get_field_mode_CABAC_b_slice:currSlice <- [DW_OP_plus_uconst 112] [$rsp+0]
	#DEBUG_VALUE: check_next_mb_and_get_field_mode_CABAC_b_slice:se <- [DW_OP_LLVM_entry_value 1] $rsi
	#DEBUG_VALUE: check_next_mb_and_get_field_mode_CABAC_b_slice:act_dp <- [DW_OP_plus_uconst 16] [$rsp+0]
	#DEBUG_VALUE: check_next_mb_and_get_field_mode_CABAC_b_slice:dep_dp <- [DW_OP_plus_uconst 32, DW_OP_deref] $rsp
	#DEBUG_VALUE: check_next_mb_and_get_field_mode_CABAC_b_slice:currMB <- $rbx
	#DEBUG_VALUE: check_next_mb_and_get_field_mode_CABAC_b_slice:dep_dp_copy <- [DW_OP_plus_uconst 56, DW_OP_deref] $rsp
	#DEBUG_VALUE: check_next_mb_and_get_field_mode_CABAC_b_slice:i <- 3
	#DEBUG_VALUE: check_next_mb_and_get_field_mode_CABAC_b_slice:mb_type_ctx_copy <- [DW_OP_plus_uconst 128, DW_OP_deref, DW_OP_LLVM_fragment 0 64] $rsp
	#DEBUG_VALUE: check_next_mb_and_get_field_mode_CABAC_b_slice:mb_type_ctx_copy <- [DW_OP_plus_uconst 120, DW_OP_deref, DW_OP_LLVM_fragment 64 64] $rsp
	#DEBUG_VALUE: check_next_mb_and_get_field_mode_CABAC_b_slice:mb_type_ctx_copy <- [DW_OP_plus_uconst 48, DW_OP_deref, DW_OP_LLVM_fragment 128 64] $rsp
	#DEBUG_VALUE: check_next_mb_and_get_field_mode_CABAC_b_slice:mb_aff_ctx_copy <- [DW_OP_plus_uconst 40, DW_OP_deref] $rsp
	#DEBUG_VALUE: check_next_mb_and_get_field_mode_CABAC_b_slice:length <- [DW_OP_plus_uconst 28, DW_OP_deref] $rsp
	#DEBUG_VALUE: CheckAvailabilityOfNeighborsCABAC:left <- [DW_OP_plus_uconst 64, DW_OP_deref] $rsp
	#DEBUG_VALUE: CheckAvailabilityOfNeighborsCABAC:currMB <- $rbx
	#DEBUG_VALUE: CheckAvailabilityOfNeighborsCABAC:p_Vid <- $r12
	#DEBUG_VALUE: CheckAvailabilityOfNeighborsCABAC:mb_size <- $r15
	.loc	0 0 24                          # ldecod_src/cabac.c:0:24
	xorl	%eax, %eax
.Ltmp297:
.LBB9_26:                               # %CheckAvailabilityOfNeighborsCABAC.exit159
	#DEBUG_VALUE: check_next_mb_and_get_field_mode_CABAC_b_slice:currSlice <- [DW_OP_plus_uconst 112] [$rsp+0]
	#DEBUG_VALUE: check_next_mb_and_get_field_mode_CABAC_b_slice:se <- [DW_OP_LLVM_entry_value 1] $rsi
	#DEBUG_VALUE: check_next_mb_and_get_field_mode_CABAC_b_slice:act_dp <- [DW_OP_plus_uconst 16] [$rsp+0]
	#DEBUG_VALUE: check_next_mb_and_get_field_mode_CABAC_b_slice:dep_dp <- [DW_OP_plus_uconst 32, DW_OP_deref] $rsp
	#DEBUG_VALUE: check_next_mb_and_get_field_mode_CABAC_b_slice:currMB <- $rbx
	#DEBUG_VALUE: check_next_mb_and_get_field_mode_CABAC_b_slice:dep_dp_copy <- [DW_OP_plus_uconst 56, DW_OP_deref] $rsp
	#DEBUG_VALUE: check_next_mb_and_get_field_mode_CABAC_b_slice:i <- 3
	#DEBUG_VALUE: check_next_mb_and_get_field_mode_CABAC_b_slice:mb_type_ctx_copy <- [DW_OP_plus_uconst 128, DW_OP_deref, DW_OP_LLVM_fragment 0 64] $rsp
	#DEBUG_VALUE: check_next_mb_and_get_field_mode_CABAC_b_slice:mb_type_ctx_copy <- [DW_OP_plus_uconst 120, DW_OP_deref, DW_OP_LLVM_fragment 64 64] $rsp
	#DEBUG_VALUE: check_next_mb_and_get_field_mode_CABAC_b_slice:mb_type_ctx_copy <- [DW_OP_plus_uconst 48, DW_OP_deref, DW_OP_LLVM_fragment 128 64] $rsp
	#DEBUG_VALUE: check_next_mb_and_get_field_mode_CABAC_b_slice:mb_aff_ctx_copy <- [DW_OP_plus_uconst 40, DW_OP_deref] $rsp
	#DEBUG_VALUE: check_next_mb_and_get_field_mode_CABAC_b_slice:length <- [DW_OP_plus_uconst 28, DW_OP_deref] $rsp
	#DEBUG_VALUE: CheckAvailabilityOfNeighborsCABAC:left <- [DW_OP_plus_uconst 64, DW_OP_deref] $rsp
	#DEBUG_VALUE: CheckAvailabilityOfNeighborsCABAC:currMB <- $rbx
	#DEBUG_VALUE: CheckAvailabilityOfNeighborsCABAC:p_Vid <- $r12
	#DEBUG_VALUE: CheckAvailabilityOfNeighborsCABAC:mb_size <- $r15
	movq	%rax, 128(%rbx)
	movq	56(%rsp), %rdi                  # 8-byte Reload
.Ltmp298:
	.loc	0 325 3 is_stmt 1               # ldecod_src/cabac.c:325:3
	callq	free@PLT
.Ltmp299:
	#DEBUG_VALUE: check_next_mb_and_get_field_mode_CABAC_b_slice:i <- 0
	.loc	0 327 5                         # ldecod_src/cabac.c:327:5
	movq	%r13, %rdi
	callq	free@PLT
.Ltmp300:
	#DEBUG_VALUE: check_next_mb_and_get_field_mode_CABAC_b_slice:i <- 1
	movq	%rbp, %rdi
	callq	free@PLT
.Ltmp301:
	#DEBUG_VALUE: check_next_mb_and_get_field_mode_CABAC_b_slice:i <- 2
	.loc	0 0 5 is_stmt 0                 # ldecod_src/cabac.c:0:5
	movq	48(%rsp), %rdi                  # 8-byte Reload
	.loc	0 327 5                         # ldecod_src/cabac.c:327:5
	callq	free@PLT
.Ltmp302:
	#DEBUG_VALUE: check_next_mb_and_get_field_mode_CABAC_b_slice:i <- 3
	#DEBUG_VALUE: check_next_mb_and_get_field_mode_CABAC_b_slice:skip <- [DW_OP_plus_uconst 8, DW_OP_deref] $rsp
	.loc	0 0 5                           # ldecod_src/cabac.c:0:5
	movq	40(%rsp), %rdi                  # 8-byte Reload
.Ltmp303:
	.loc	0 328 3 is_stmt 1               # ldecod_src/cabac.c:328:3
	callq	free@PLT
.Ltmp304:
	.loc	0 0 3 is_stmt 0                 # ldecod_src/cabac.c:0:3
	movl	8(%rsp), %eax                   # 4-byte Reload
	.loc	0 330 3 epilogue_begin is_stmt 1 # ldecod_src/cabac.c:330:3
	addq	$136, %rsp
	.cfi_def_cfa_offset 56
	popq	%rbx
.Ltmp305:
	.cfi_def_cfa_offset 48
	popq	%r12
.Ltmp306:
	.cfi_def_cfa_offset 40
	popq	%r13
	.cfi_def_cfa_offset 32
	popq	%r14
	.cfi_def_cfa_offset 24
	popq	%r15
.Ltmp307:
	.cfi_def_cfa_offset 16
	popq	%rbp
	.cfi_def_cfa_offset 8
	retq
.Ltmp308:
.Lfunc_end9:
	.size	check_next_mb_and_get_field_mode_CABAC_b_slice, .Lfunc_end9-check_next_mb_and_get_field_mode_CABAC_b_slice
	.cfi_endproc
                                        # -- End function
	.globl	read_skip_flag_CABAC_b_slice    # -- Begin function read_skip_flag_CABAC_b_slice
	.p2align	4, 0x90
	.type	read_skip_flag_CABAC_b_slice,@function
read_skip_flag_CABAC_b_slice:           # @read_skip_flag_CABAC_b_slice
.Lfunc_begin10:
	.loc	0 567 0                         # ldecod_src/cabac.c:567:0
	.cfi_startproc
# %bb.0:                                # %entry
	#DEBUG_VALUE: read_skip_flag_CABAC_b_slice:currMB <- $rdi
	#DEBUG_VALUE: read_skip_flag_CABAC_b_slice:se <- $rsi
	#DEBUG_VALUE: read_skip_flag_CABAC_b_slice:dep_dp <- $rdx
	pushq	%r14
	.cfi_def_cfa_offset 16
	pushq	%rbx
	.cfi_def_cfa_offset 24
	pushq	%rax
	.cfi_def_cfa_offset 32
	.cfi_offset %rbx, -24
	.cfi_offset %r14, -16
	movq	%rsi, %rbx
.Ltmp309:
	.loc	0 568 30 prologue_end           # ldecod_src/cabac.c:568:30
	movq	(%rdi), %r14
.Ltmp310:
	#DEBUG_VALUE: read_skip_flag_CABAC_b_slice:currSlice <- $r14
	.loc	0 570 20                        # ldecod_src/cabac.c:570:20
	movq	128(%rdi), %rcx
.Ltmp311:
	#DEBUG_VALUE: read_skip_flag_CABAC_b_slice:ctx <- undef
	.loc	0 570 28 is_stmt 0              # ldecod_src/cabac.c:570:28
	testq	%rcx, %rcx
	.loc	0 570 11                        # ldecod_src/cabac.c:570:11
	je	.LBB10_1
.Ltmp312:
# %bb.2:                                # %cond.true
	#DEBUG_VALUE: read_skip_flag_CABAC_b_slice:currMB <- $rdi
	#DEBUG_VALUE: read_skip_flag_CABAC_b_slice:se <- $rbx
	#DEBUG_VALUE: read_skip_flag_CABAC_b_slice:dep_dp <- $rdx
	#DEBUG_VALUE: read_skip_flag_CABAC_b_slice:currSlice <- $r14
	.loc	0 0 11                          # ldecod_src/cabac.c:0:11
	xorl	%eax, %eax
	.loc	0 572 19 is_stmt 1              # ldecod_src/cabac.c:572:19
	cmpb	$1, 374(%rcx)
	adcq	$7, %rax
	jmp	.LBB10_3
.Ltmp313:
.LBB10_1:
	#DEBUG_VALUE: read_skip_flag_CABAC_b_slice:currMB <- $rdi
	#DEBUG_VALUE: read_skip_flag_CABAC_b_slice:se <- $rbx
	#DEBUG_VALUE: read_skip_flag_CABAC_b_slice:dep_dp <- $rdx
	#DEBUG_VALUE: read_skip_flag_CABAC_b_slice:currSlice <- $r14
	.loc	0 0 19 is_stmt 0                # ldecod_src/cabac.c:0:19
	movl	$7, %eax
.Ltmp314:
.LBB10_3:                               # %cond.end
	#DEBUG_VALUE: read_skip_flag_CABAC_b_slice:currMB <- $rdi
	#DEBUG_VALUE: read_skip_flag_CABAC_b_slice:se <- $rbx
	#DEBUG_VALUE: read_skip_flag_CABAC_b_slice:dep_dp <- $rdx
	#DEBUG_VALUE: read_skip_flag_CABAC_b_slice:currSlice <- $r14
	movq	320(%r14), %rcx
.Ltmp315:
	#DEBUG_VALUE: read_skip_flag_CABAC_b_slice:ctx <- $rcx
	#DEBUG_VALUE: read_skip_flag_CABAC_b_slice:a <- undef
	.loc	0 571 20 is_stmt 1              # ldecod_src/cabac.c:571:20
	movq	120(%rdi), %rdi
.Ltmp316:
	#DEBUG_VALUE: read_skip_flag_CABAC_b_slice:currMB <- [DW_OP_LLVM_entry_value 1] $rdi
	.loc	0 571 67 is_stmt 0              # ldecod_src/cabac.c:571:67
	xorl	%esi, %esi
	.loc	0 571 28                        # ldecod_src/cabac.c:571:28
	testq	%rdi, %rdi
	.loc	0 571 11                        # ldecod_src/cabac.c:571:11
	je	.LBB10_5
.Ltmp317:
# %bb.4:                                # %cond.true6
	#DEBUG_VALUE: read_skip_flag_CABAC_b_slice:currMB <- [DW_OP_LLVM_entry_value 1] $rdi
	#DEBUG_VALUE: read_skip_flag_CABAC_b_slice:se <- $rbx
	#DEBUG_VALUE: read_skip_flag_CABAC_b_slice:dep_dp <- $rdx
	#DEBUG_VALUE: read_skip_flag_CABAC_b_slice:currSlice <- $r14
	#DEBUG_VALUE: read_skip_flag_CABAC_b_slice:ctx <- $rcx
	.loc	0 571 67                        # ldecod_src/cabac.c:571:67
	cmpb	$0, 374(%rdi)
	sete	%sil
.Ltmp318:
.LBB10_5:                               # %cond.end13
	#DEBUG_VALUE: read_skip_flag_CABAC_b_slice:currMB <- [DW_OP_LLVM_entry_value 1] $rdi
	#DEBUG_VALUE: read_skip_flag_CABAC_b_slice:se <- $rbx
	#DEBUG_VALUE: read_skip_flag_CABAC_b_slice:dep_dp <- $rdx
	#DEBUG_VALUE: read_skip_flag_CABAC_b_slice:currSlice <- $r14
	#DEBUG_VALUE: read_skip_flag_CABAC_b_slice:ctx <- $rcx
	#DEBUG_VALUE: read_skip_flag_CABAC_b_slice:b <- undef
	.loc	0 572 23 is_stmt 1              # ldecod_src/cabac.c:572:23
	addq	%rax, %rsi
.Ltmp319:
	#DEBUG_VALUE: read_skip_flag_CABAC_b_slice:act_ctx <- undef
	.loc	0 574 37                        # ldecod_src/cabac.c:574:37
	leaq	(%rcx,%rsi,4), %rsi
	addq	$88, %rsi
	.loc	0 574 7 is_stmt 0               # ldecod_src/cabac.c:574:7
	movq	%rdx, %rdi
	callq	biari_decode_symbol@PLT
.Ltmp320:
	#DEBUG_VALUE: read_skip_flag_CABAC_b_slice:dep_dp <- [DW_OP_LLVM_entry_value 1] $rdx
	.loc	0 574 72                        # ldecod_src/cabac.c:574:72
	cmpl	$1, %eax
.Ltmp321:
	.loc	0 574 7                         # ldecod_src/cabac.c:574:7
	jne	.LBB10_6
.Ltmp322:
# %bb.7:                                # %if.then22
	#DEBUG_VALUE: read_skip_flag_CABAC_b_slice:currMB <- [DW_OP_LLVM_entry_value 1] $rdi
	#DEBUG_VALUE: read_skip_flag_CABAC_b_slice:se <- $rbx
	#DEBUG_VALUE: read_skip_flag_CABAC_b_slice:dep_dp <- [DW_OP_LLVM_entry_value 1] $rdx
	#DEBUG_VALUE: read_skip_flag_CABAC_b_slice:currSlice <- $r14
	.loc	0 0 0                           # ldecod_src/cabac.c:0:0
	movq	$0, 4(%rbx)
.Ltmp323:
	.loc	0 585 28 is_stmt 1              # ldecod_src/cabac.c:585:28
	movl	$0, 212(%r14)
.Ltmp324:
	.loc	0 587 1 epilogue_begin          # ldecod_src/cabac.c:587:1
	addq	$8, %rsp
	.cfi_def_cfa_offset 24
	popq	%rbx
.Ltmp325:
	#DEBUG_VALUE: read_skip_flag_CABAC_b_slice:se <- [DW_OP_LLVM_entry_value 1] $rsi
	.cfi_def_cfa_offset 16
	popq	%r14
.Ltmp326:
	.cfi_def_cfa_offset 8
	retq
.Ltmp327:
.LBB10_6:                               # %if.end
	.cfi_def_cfa_offset 32
	#DEBUG_VALUE: read_skip_flag_CABAC_b_slice:currMB <- [DW_OP_LLVM_entry_value 1] $rdi
	#DEBUG_VALUE: read_skip_flag_CABAC_b_slice:se <- $rbx
	#DEBUG_VALUE: read_skip_flag_CABAC_b_slice:dep_dp <- [DW_OP_LLVM_entry_value 1] $rdx
	#DEBUG_VALUE: read_skip_flag_CABAC_b_slice:currSlice <- $r14
	.loc	0 0 1 is_stmt 0                 # ldecod_src/cabac.c:0:1
	movabsq	$4294967297, %rax               # imm = 0x100000001
.Ltmp328:
	movq	%rax, 4(%rbx)
.Ltmp329:
	.loc	0 587 1 epilogue_begin          # ldecod_src/cabac.c:587:1
	addq	$8, %rsp
	.cfi_def_cfa_offset 24
	popq	%rbx
.Ltmp330:
	#DEBUG_VALUE: read_skip_flag_CABAC_b_slice:se <- [DW_OP_LLVM_entry_value 1] $rsi
	.cfi_def_cfa_offset 16
	popq	%r14
.Ltmp331:
	.cfi_def_cfa_offset 8
	retq
.Ltmp332:
.Lfunc_end10:
	.size	read_skip_flag_CABAC_b_slice, .Lfunc_end10-read_skip_flag_CABAC_b_slice
	.cfi_endproc
                                        # -- End function
	.globl	read_MVD_CABAC                  # -- Begin function read_MVD_CABAC
	.p2align	4, 0x90
	.type	read_MVD_CABAC,@function
read_MVD_CABAC:                         # @read_MVD_CABAC
.Lfunc_begin11:
	.loc	0 346 0 is_stmt 1               # ldecod_src/cabac.c:346:0
	.cfi_startproc
# %bb.0:                                # %entry
	#DEBUG_VALUE: read_MVD_CABAC:currMB <- $rdi
	#DEBUG_VALUE: read_MVD_CABAC:se <- $rsi
	#DEBUG_VALUE: read_MVD_CABAC:dep_dp <- $rdx
	pushq	%rbp
	.cfi_def_cfa_offset 16
	pushq	%r15
	.cfi_def_cfa_offset 24
	pushq	%r14
	.cfi_def_cfa_offset 32
	pushq	%r13
	.cfi_def_cfa_offset 40
	pushq	%r12
	.cfi_def_cfa_offset 48
	pushq	%rbx
	.cfi_def_cfa_offset 56
	subq	$88, %rsp
	.cfi_def_cfa_offset 144
	.cfi_offset %rbx, -56
	.cfi_offset %r12, -48
	.cfi_offset %r13, -40
	.cfi_offset %r14, -32
	.cfi_offset %r15, -24
	.cfi_offset %rbp, -16
	movq	%rdx, %r14
	movq	%rdi, %r15
.Ltmp333:
	#DEBUG_VALUE: read_MVD_CABAC:p_Vid <- undef
	.loc	0 348 30 prologue_end           # ldecod_src/cabac.c:348:30
	movq	(%rdi), %rax
.Ltmp334:
	#DEBUG_VALUE: read_MVD_CABAC:currSlice <- $rax
	.loc	0 0 30 is_stmt 0                # ldecod_src/cabac.c:0:30
	movq	%rax, 40(%rsp)                  # 8-byte Spill
.Ltmp335:
	#DEBUG_VALUE: read_MVD_CABAC:currSlice <- [DW_OP_plus_uconst 40, DW_OP_deref] $rsp
	.loc	0 349 40 is_stmt 1              # ldecod_src/cabac.c:349:40
	movq	320(%rax), %rax
.Ltmp336:
	#DEBUG_VALUE: read_MVD_CABAC:ctx <- $rax
	.loc	0 0 40 is_stmt 0                # ldecod_src/cabac.c:0:40
	movq	%rax, 8(%rsp)                   # 8-byte Spill
.Ltmp337:
	#DEBUG_VALUE: read_MVD_CABAC:ctx <- [DW_OP_plus_uconst 8, DW_OP_deref] $rsp
	.loc	0 350 19 is_stmt 1              # ldecod_src/cabac.c:350:19
	movl	60(%rdi), %eax
.Ltmp338:
	#DEBUG_VALUE: read_MVD_CABAC:i <- $eax
	.loc	0 351 19                        # ldecod_src/cabac.c:351:19
	movl	64(%rdi), %ebp
.Ltmp339:
	#DEBUG_VALUE: read_MVD_CABAC:j <- $ebp
	.loc	0 0 19 is_stmt 0                # ldecod_src/cabac.c:0:19
	movq	%rsi, 16(%rsp)                  # 8-byte Spill
.Ltmp340:
	#DEBUG_VALUE: read_MVD_CABAC:se <- [DW_OP_plus_uconst 16] [$rsp+0]
	movl	8(%rsi), %ebx
.Ltmp341:
	#DEBUG_VALUE: read_MVD_CABAC:a <- 0
	#DEBUG_VALUE: read_MVD_CABAC:b <- 0
	.loc	0 355 29 is_stmt 1              # ldecod_src/cabac.c:355:29
	movl	%ebx, %r12d
	andl	$1, %r12d
.Ltmp342:
	#DEBUG_VALUE: read_MVD_CABAC:list_idx <- $r12d
	.loc	0 356 23                        # ldecod_src/cabac.c:356:23
	sarl	%ebx
.Ltmp343:
	#DEBUG_VALUE: read_MVD_CABAC:k <- $ebx
	.loc	0 0 23 is_stmt 0                # ldecod_src/cabac.c:0:23
	movl	$849124, %r13d                  # imm = 0xCF4E4
	.loc	0 360 52 is_stmt 1              # ldecod_src/cabac.c:360:52
	addq	8(%rdi), %r13
	movq	%rax, 80(%rsp)                  # 8-byte Spill
.Ltmp344:
	#DEBUG_VALUE: read_MVD_CABAC:i <- [DW_OP_plus_uconst 80, DW_OP_deref] $rsp
	.loc	0 360 33 is_stmt 0              # ldecod_src/cabac.c:360:33
	leal	-1(%rax), %esi
	leaq	64(%rsp), %r8
	.loc	0 360 3                         # ldecod_src/cabac.c:360:3
	movl	%ebp, %edx
.Ltmp345:
	#DEBUG_VALUE: read_MVD_CABAC:dep_dp <- $r14
	movq	%r13, %rcx
	callq	get4x4NeighbourBase@PLT
.Ltmp346:
	#DEBUG_VALUE: read_MVD_CABAC:currMB <- $r15
	.loc	0 361 7 is_stmt 1               # ldecod_src/cabac.c:361:7
	cmpl	$0, 64(%rsp)
	movq	%rbx, 32(%rsp)                  # 8-byte Spill
.Ltmp347:
	#DEBUG_VALUE: read_MVD_CABAC:k <- [DW_OP_plus_uconst 32, DW_OP_deref] $rsp
	.loc	0 0 7 is_stmt 0                 # ldecod_src/cabac.c:0:7
	movslq	%ebx, %rbx
	movl	$0, %edi
.Ltmp348:
	.loc	0 361 7                         # ldecod_src/cabac.c:361:7
	je	.LBB11_7
.Ltmp349:
# %bb.1:                                # %if.then
	#DEBUG_VALUE: read_MVD_CABAC:currMB <- $r15
	#DEBUG_VALUE: read_MVD_CABAC:se <- [DW_OP_plus_uconst 16] [$rsp+0]
	#DEBUG_VALUE: read_MVD_CABAC:dep_dp <- $r14
	#DEBUG_VALUE: read_MVD_CABAC:currSlice <- [DW_OP_plus_uconst 40, DW_OP_deref] $rsp
	#DEBUG_VALUE: read_MVD_CABAC:ctx <- [DW_OP_plus_uconst 8, DW_OP_deref] $rsp
	#DEBUG_VALUE: read_MVD_CABAC:i <- [DW_OP_plus_uconst 80, DW_OP_deref] $rsp
	#DEBUG_VALUE: read_MVD_CABAC:j <- $ebp
	#DEBUG_VALUE: read_MVD_CABAC:a <- 0
	#DEBUG_VALUE: read_MVD_CABAC:b <- 0
	#DEBUG_VALUE: read_MVD_CABAC:list_idx <- $r12d
	#DEBUG_VALUE: read_MVD_CABAC:k <- [DW_OP_plus_uconst 32, DW_OP_deref] $rsp
	.loc	0 0 7                           # ldecod_src/cabac.c:0:7
	movq	40(%rsp), %r8                   # 8-byte Reload
.Ltmp350:
	.loc	0 363 25 is_stmt 1              # ldecod_src/cabac.c:363:25
	movq	13512(%r8), %rax
	.loc	0 363 41 is_stmt 0              # ldecod_src/cabac.c:363:41
	movslq	68(%rsp), %rcx
	.loc	0 363 72                        # ldecod_src/cabac.c:363:72
	movswq	74(%rsp), %rdx
	.loc	0 363 83                        # ldecod_src/cabac.c:363:83
	movswq	72(%rsp), %rsi
	.loc	0 363 14                        # ldecod_src/cabac.c:363:14
	imulq	$480, %rcx, %rcx                # imm = 0x1E0
	movl	%r12d, %edi
	shll	$6, %edi
	addq	%rcx, %rdi
	shlq	$4, %rdx
	addq	%rdi, %rdx
	addq	%rax, %rdx
	leaq	(%rdx,%rsi,4), %rdx
	movzwl	154(%rdx,%rbx,2), %edx
.Ltmp351:
	#DEBUG_VALUE: iabs:x <- [DW_OP_LLVM_convert 16 5, DW_OP_LLVM_convert 32 5, DW_OP_stack_value] $dx
	#DEBUG_VALUE: iabs:y <- [DW_OP_LLVM_convert 16 5, DW_OP_LLVM_convert 32 5, DW_OP_constu 31, DW_OP_shra, DW_OP_stack_value] $dx
	.loc	1 120 18 is_stmt 1              # ldecod_src/inc/ifunctions.h:120:18
	movl	%edx, %esi
	negw	%si
	cmovsw	%dx, %si
	movzwl	%si, %edi
.Ltmp352:
	#DEBUG_VALUE: read_MVD_CABAC:a <- $edi
	.loc	0 364 9                         # ldecod_src/cabac.c:364:9
	cmpl	$0, 128(%r8)
	setne	%dl
.Ltmp353:
	.loc	0 0 9 is_stmt 0                 # ldecod_src/cabac.c:0:9
	cmpl	$1, %ebx
	sete	%sil
	.loc	0 364 38                        # ldecod_src/cabac.c:364:38
	andb	%dl, %sil
	cmpb	$1, %sil
	jne	.LBB11_7
.Ltmp354:
# %bb.2:                                # %if.then14
	#DEBUG_VALUE: read_MVD_CABAC:currMB <- $r15
	#DEBUG_VALUE: read_MVD_CABAC:se <- [DW_OP_plus_uconst 16] [$rsp+0]
	#DEBUG_VALUE: read_MVD_CABAC:dep_dp <- $r14
	#DEBUG_VALUE: read_MVD_CABAC:currSlice <- [DW_OP_plus_uconst 40, DW_OP_deref] $rsp
	#DEBUG_VALUE: read_MVD_CABAC:ctx <- [DW_OP_plus_uconst 8, DW_OP_deref] $rsp
	#DEBUG_VALUE: read_MVD_CABAC:i <- [DW_OP_plus_uconst 80, DW_OP_deref] $rsp
	#DEBUG_VALUE: read_MVD_CABAC:j <- $ebp
	#DEBUG_VALUE: read_MVD_CABAC:a <- $edi
	#DEBUG_VALUE: read_MVD_CABAC:b <- 0
	#DEBUG_VALUE: read_MVD_CABAC:list_idx <- $r12d
	#DEBUG_VALUE: read_MVD_CABAC:k <- [DW_OP_plus_uconst 32, DW_OP_deref] $rsp
	.loc	0 366 20 is_stmt 1              # ldecod_src/cabac.c:366:20
	movl	384(%r15), %edx
	.loc	0 366 33 is_stmt 0              # ldecod_src/cabac.c:366:33
	cmpl	$1, %edx
	je	.LBB11_5
.Ltmp355:
# %bb.3:                                # %if.then14
	#DEBUG_VALUE: read_MVD_CABAC:currMB <- $r15
	#DEBUG_VALUE: read_MVD_CABAC:se <- [DW_OP_plus_uconst 16] [$rsp+0]
	#DEBUG_VALUE: read_MVD_CABAC:dep_dp <- $r14
	#DEBUG_VALUE: read_MVD_CABAC:currSlice <- [DW_OP_plus_uconst 40, DW_OP_deref] $rsp
	#DEBUG_VALUE: read_MVD_CABAC:ctx <- [DW_OP_plus_uconst 8, DW_OP_deref] $rsp
	#DEBUG_VALUE: read_MVD_CABAC:i <- [DW_OP_plus_uconst 80, DW_OP_deref] $rsp
	#DEBUG_VALUE: read_MVD_CABAC:j <- $ebp
	#DEBUG_VALUE: read_MVD_CABAC:a <- $edi
	#DEBUG_VALUE: read_MVD_CABAC:b <- 0
	#DEBUG_VALUE: read_MVD_CABAC:list_idx <- $r12d
	#DEBUG_VALUE: read_MVD_CABAC:k <- [DW_OP_plus_uconst 32, DW_OP_deref] $rsp
	testl	%edx, %edx
	jne	.LBB11_7
.Ltmp356:
# %bb.4:                                # %land.lhs.true17
	#DEBUG_VALUE: read_MVD_CABAC:currMB <- $r15
	#DEBUG_VALUE: read_MVD_CABAC:se <- [DW_OP_plus_uconst 16] [$rsp+0]
	#DEBUG_VALUE: read_MVD_CABAC:dep_dp <- $r14
	#DEBUG_VALUE: read_MVD_CABAC:currSlice <- [DW_OP_plus_uconst 40, DW_OP_deref] $rsp
	#DEBUG_VALUE: read_MVD_CABAC:ctx <- [DW_OP_plus_uconst 8, DW_OP_deref] $rsp
	#DEBUG_VALUE: read_MVD_CABAC:i <- [DW_OP_plus_uconst 80, DW_OP_deref] $rsp
	#DEBUG_VALUE: read_MVD_CABAC:j <- $ebp
	#DEBUG_VALUE: read_MVD_CABAC:a <- $edi
	#DEBUG_VALUE: read_MVD_CABAC:b <- 0
	#DEBUG_VALUE: read_MVD_CABAC:list_idx <- $r12d
	#DEBUG_VALUE: read_MVD_CABAC:k <- [DW_OP_plus_uconst 32, DW_OP_deref] $rsp
	.loc	0 366 81                        # ldecod_src/cabac.c:366:81
	cmpl	$1, 384(%rax,%rcx)
	sete	%cl
.Ltmp357:
	.loc	0 366 11                        # ldecod_src/cabac.c:366:11
	shll	%cl, %edi
.Ltmp358:
	jmp	.LBB11_7
.Ltmp359:
.LBB11_5:                               # %land.lhs.true29
	#DEBUG_VALUE: read_MVD_CABAC:currMB <- $r15
	#DEBUG_VALUE: read_MVD_CABAC:se <- [DW_OP_plus_uconst 16] [$rsp+0]
	#DEBUG_VALUE: read_MVD_CABAC:dep_dp <- $r14
	#DEBUG_VALUE: read_MVD_CABAC:currSlice <- [DW_OP_plus_uconst 40, DW_OP_deref] $rsp
	#DEBUG_VALUE: read_MVD_CABAC:ctx <- [DW_OP_plus_uconst 8, DW_OP_deref] $rsp
	#DEBUG_VALUE: read_MVD_CABAC:i <- [DW_OP_plus_uconst 80, DW_OP_deref] $rsp
	#DEBUG_VALUE: read_MVD_CABAC:j <- $ebp
	#DEBUG_VALUE: read_MVD_CABAC:a <- $edi
	#DEBUG_VALUE: read_MVD_CABAC:b <- 0
	#DEBUG_VALUE: read_MVD_CABAC:list_idx <- $r12d
	#DEBUG_VALUE: read_MVD_CABAC:k <- [DW_OP_plus_uconst 32, DW_OP_deref] $rsp
	.loc	0 368 86 is_stmt 1              # ldecod_src/cabac.c:368:86
	cmpl	$0, 384(%rax,%rcx)
.Ltmp360:
	.loc	0 368 16 is_stmt 0              # ldecod_src/cabac.c:368:16
	jne	.LBB11_7
.Ltmp361:
# %bb.6:                                # %if.then37
	#DEBUG_VALUE: read_MVD_CABAC:currMB <- $r15
	#DEBUG_VALUE: read_MVD_CABAC:se <- [DW_OP_plus_uconst 16] [$rsp+0]
	#DEBUG_VALUE: read_MVD_CABAC:dep_dp <- $r14
	#DEBUG_VALUE: read_MVD_CABAC:currSlice <- [DW_OP_plus_uconst 40, DW_OP_deref] $rsp
	#DEBUG_VALUE: read_MVD_CABAC:ctx <- [DW_OP_plus_uconst 8, DW_OP_deref] $rsp
	#DEBUG_VALUE: read_MVD_CABAC:i <- [DW_OP_plus_uconst 80, DW_OP_deref] $rsp
	#DEBUG_VALUE: read_MVD_CABAC:j <- $ebp
	#DEBUG_VALUE: read_MVD_CABAC:a <- $edi
	#DEBUG_VALUE: read_MVD_CABAC:b <- 0
	#DEBUG_VALUE: read_MVD_CABAC:list_idx <- $r12d
	#DEBUG_VALUE: read_MVD_CABAC:k <- [DW_OP_plus_uconst 32, DW_OP_deref] $rsp
	.loc	0 369 11 is_stmt 1              # ldecod_src/cabac.c:369:11
	shrl	%edi
.Ltmp362:
	#DEBUG_VALUE: read_MVD_CABAC:a <- $edi
.LBB11_7:                               # %if.end40
	#DEBUG_VALUE: read_MVD_CABAC:currMB <- $r15
	#DEBUG_VALUE: read_MVD_CABAC:se <- [DW_OP_plus_uconst 16] [$rsp+0]
	#DEBUG_VALUE: read_MVD_CABAC:dep_dp <- $r14
	#DEBUG_VALUE: read_MVD_CABAC:currSlice <- [DW_OP_plus_uconst 40, DW_OP_deref] $rsp
	#DEBUG_VALUE: read_MVD_CABAC:ctx <- [DW_OP_plus_uconst 8, DW_OP_deref] $rsp
	#DEBUG_VALUE: read_MVD_CABAC:i <- [DW_OP_plus_uconst 80, DW_OP_deref] $rsp
	#DEBUG_VALUE: read_MVD_CABAC:j <- $ebp
	#DEBUG_VALUE: read_MVD_CABAC:b <- 0
	#DEBUG_VALUE: read_MVD_CABAC:list_idx <- $r12d
	#DEBUG_VALUE: read_MVD_CABAC:k <- [DW_OP_plus_uconst 32, DW_OP_deref] $rsp
	#DEBUG_VALUE: read_MVD_CABAC:a <- $edi
	.loc	0 0 11 is_stmt 0                # ldecod_src/cabac.c:0:11
	movl	%edi, 28(%rsp)                  # 4-byte Spill
.Ltmp363:
	#DEBUG_VALUE: read_MVD_CABAC:a <- [DW_OP_plus_uconst 28, DW_OP_deref] $rsp
	.loc	0 373 40 is_stmt 1              # ldecod_src/cabac.c:373:40
	decl	%ebp
.Ltmp364:
	.loc	0 0 40 is_stmt 0                # ldecod_src/cabac.c:0:40
	leaq	48(%rsp), %r8
	.loc	0 373 3                         # ldecod_src/cabac.c:373:3
	movq	%r15, %rdi
	movq	80(%rsp), %rsi                  # 8-byte Reload
                                        # kill: def $esi killed $esi killed $rsi
	movl	%ebp, %edx
	movq	%r13, %rcx
	callq	get4x4NeighbourBase@PLT
.Ltmp365:
	.loc	0 374 7 is_stmt 1               # ldecod_src/cabac.c:374:7
	cmpl	$0, 48(%rsp)
	movq	16(%rsp), %r13                  # 8-byte Reload
	movl	$0, %edi
.Ltmp366:
	.loc	0 374 7 is_stmt 0               # ldecod_src/cabac.c:374:7
	je	.LBB11_14
.Ltmp367:
# %bb.8:                                # %if.then47
	#DEBUG_VALUE: read_MVD_CABAC:currMB <- $r15
	#DEBUG_VALUE: read_MVD_CABAC:se <- [DW_OP_plus_uconst 16] [$rsp+0]
	#DEBUG_VALUE: read_MVD_CABAC:dep_dp <- $r14
	#DEBUG_VALUE: read_MVD_CABAC:currSlice <- [DW_OP_plus_uconst 40, DW_OP_deref] $rsp
	#DEBUG_VALUE: read_MVD_CABAC:ctx <- [DW_OP_plus_uconst 8, DW_OP_deref] $rsp
	#DEBUG_VALUE: read_MVD_CABAC:i <- [DW_OP_plus_uconst 80, DW_OP_deref] $rsp
	#DEBUG_VALUE: read_MVD_CABAC:a <- [DW_OP_plus_uconst 28, DW_OP_deref] $rsp
	#DEBUG_VALUE: read_MVD_CABAC:b <- 0
	#DEBUG_VALUE: read_MVD_CABAC:list_idx <- $r12d
	#DEBUG_VALUE: read_MVD_CABAC:k <- [DW_OP_plus_uconst 32, DW_OP_deref] $rsp
	.loc	0 0 7                           # ldecod_src/cabac.c:0:7
	movq	40(%rsp), %r8                   # 8-byte Reload
.Ltmp368:
	.loc	0 376 25 is_stmt 1              # ldecod_src/cabac.c:376:25
	movq	13512(%r8), %rax
	.loc	0 376 41 is_stmt 0              # ldecod_src/cabac.c:376:41
	movslq	52(%rsp), %rcx
	.loc	0 376 72                        # ldecod_src/cabac.c:376:72
	movswq	58(%rsp), %rdx
	.loc	0 376 83                        # ldecod_src/cabac.c:376:83
	movswq	56(%rsp), %rsi
	.loc	0 376 14                        # ldecod_src/cabac.c:376:14
	imulq	$480, %rcx, %rcx                # imm = 0x1E0
	shll	$6, %r12d
.Ltmp369:
	addq	%rcx, %r12
	shlq	$4, %rdx
	addq	%r12, %rdx
	addq	%rax, %rdx
	leaq	(%rdx,%rsi,4), %rdx
	movzwl	154(%rdx,%rbx,2), %edx
.Ltmp370:
	#DEBUG_VALUE: iabs:x <- [DW_OP_LLVM_convert 16 5, DW_OP_LLVM_convert 32 5, DW_OP_stack_value] $dx
	#DEBUG_VALUE: iabs:y <- [DW_OP_LLVM_convert 16 5, DW_OP_LLVM_convert 32 5, DW_OP_constu 31, DW_OP_shra, DW_OP_stack_value] $dx
	.loc	1 120 18 is_stmt 1              # ldecod_src/inc/ifunctions.h:120:18
	movl	%edx, %esi
	negw	%si
	cmovsw	%dx, %si
	movzwl	%si, %edi
.Ltmp371:
	#DEBUG_VALUE: read_MVD_CABAC:b <- $edi
	.loc	0 377 9                         # ldecod_src/cabac.c:377:9
	cmpl	$0, 128(%r8)
	setne	%dl
.Ltmp372:
	.loc	0 0 9 is_stmt 0                 # ldecod_src/cabac.c:0:9
	cmpl	$1, %ebx
	sete	%sil
	.loc	0 377 38                        # ldecod_src/cabac.c:377:38
	andb	%dl, %sil
	cmpb	$1, %sil
	jne	.LBB11_14
.Ltmp373:
# %bb.9:                                # %if.then70
	#DEBUG_VALUE: read_MVD_CABAC:currMB <- $r15
	#DEBUG_VALUE: read_MVD_CABAC:se <- [DW_OP_plus_uconst 16] [$rsp+0]
	#DEBUG_VALUE: read_MVD_CABAC:dep_dp <- $r14
	#DEBUG_VALUE: read_MVD_CABAC:currSlice <- [DW_OP_plus_uconst 40, DW_OP_deref] $rsp
	#DEBUG_VALUE: read_MVD_CABAC:ctx <- [DW_OP_plus_uconst 8, DW_OP_deref] $rsp
	#DEBUG_VALUE: read_MVD_CABAC:i <- [DW_OP_plus_uconst 80, DW_OP_deref] $rsp
	#DEBUG_VALUE: read_MVD_CABAC:a <- [DW_OP_plus_uconst 28, DW_OP_deref] $rsp
	#DEBUG_VALUE: read_MVD_CABAC:b <- $edi
	#DEBUG_VALUE: read_MVD_CABAC:k <- [DW_OP_plus_uconst 32, DW_OP_deref] $rsp
	.loc	0 379 20 is_stmt 1              # ldecod_src/cabac.c:379:20
	movl	384(%r15), %edx
	.loc	0 379 33 is_stmt 0              # ldecod_src/cabac.c:379:33
	cmpl	$1, %edx
	je	.LBB11_12
.Ltmp374:
# %bb.10:                               # %if.then70
	#DEBUG_VALUE: read_MVD_CABAC:currMB <- $r15
	#DEBUG_VALUE: read_MVD_CABAC:se <- [DW_OP_plus_uconst 16] [$rsp+0]
	#DEBUG_VALUE: read_MVD_CABAC:dep_dp <- $r14
	#DEBUG_VALUE: read_MVD_CABAC:currSlice <- [DW_OP_plus_uconst 40, DW_OP_deref] $rsp
	#DEBUG_VALUE: read_MVD_CABAC:ctx <- [DW_OP_plus_uconst 8, DW_OP_deref] $rsp
	#DEBUG_VALUE: read_MVD_CABAC:i <- [DW_OP_plus_uconst 80, DW_OP_deref] $rsp
	#DEBUG_VALUE: read_MVD_CABAC:a <- [DW_OP_plus_uconst 28, DW_OP_deref] $rsp
	#DEBUG_VALUE: read_MVD_CABAC:b <- $edi
	#DEBUG_VALUE: read_MVD_CABAC:k <- [DW_OP_plus_uconst 32, DW_OP_deref] $rsp
	testl	%edx, %edx
	jne	.LBB11_14
.Ltmp375:
# %bb.11:                               # %land.lhs.true74
	#DEBUG_VALUE: read_MVD_CABAC:currMB <- $r15
	#DEBUG_VALUE: read_MVD_CABAC:se <- [DW_OP_plus_uconst 16] [$rsp+0]
	#DEBUG_VALUE: read_MVD_CABAC:dep_dp <- $r14
	#DEBUG_VALUE: read_MVD_CABAC:currSlice <- [DW_OP_plus_uconst 40, DW_OP_deref] $rsp
	#DEBUG_VALUE: read_MVD_CABAC:ctx <- [DW_OP_plus_uconst 8, DW_OP_deref] $rsp
	#DEBUG_VALUE: read_MVD_CABAC:i <- [DW_OP_plus_uconst 80, DW_OP_deref] $rsp
	#DEBUG_VALUE: read_MVD_CABAC:a <- [DW_OP_plus_uconst 28, DW_OP_deref] $rsp
	#DEBUG_VALUE: read_MVD_CABAC:b <- $edi
	#DEBUG_VALUE: read_MVD_CABAC:k <- [DW_OP_plus_uconst 32, DW_OP_deref] $rsp
	.loc	0 379 81                        # ldecod_src/cabac.c:379:81
	cmpl	$1, 384(%rax,%rcx)
	sete	%cl
.Ltmp376:
	.loc	0 379 11                        # ldecod_src/cabac.c:379:11
	shll	%cl, %edi
.Ltmp377:
	#DEBUG_VALUE: read_MVD_CABAC:b <- $edi
	.loc	0 385 5 is_stmt 1               # ldecod_src/cabac.c:385:5
	addl	28(%rsp), %edi                  # 4-byte Folded Reload
.Ltmp378:
	#DEBUG_VALUE: read_MVD_CABAC:a <- undef
	.loc	0 387 9                         # ldecod_src/cabac.c:387:9
	cmpl	$2, %edi
.Ltmp379:
	.loc	0 387 7 is_stmt 0               # ldecod_src/cabac.c:387:7
	jbe	.LBB11_15
	jmp	.LBB11_16
.Ltmp380:
.LBB11_12:                              # %land.lhs.true88
	#DEBUG_VALUE: read_MVD_CABAC:currMB <- $r15
	#DEBUG_VALUE: read_MVD_CABAC:se <- [DW_OP_plus_uconst 16] [$rsp+0]
	#DEBUG_VALUE: read_MVD_CABAC:dep_dp <- $r14
	#DEBUG_VALUE: read_MVD_CABAC:currSlice <- [DW_OP_plus_uconst 40, DW_OP_deref] $rsp
	#DEBUG_VALUE: read_MVD_CABAC:ctx <- [DW_OP_plus_uconst 8, DW_OP_deref] $rsp
	#DEBUG_VALUE: read_MVD_CABAC:i <- [DW_OP_plus_uconst 80, DW_OP_deref] $rsp
	#DEBUG_VALUE: read_MVD_CABAC:a <- [DW_OP_plus_uconst 28, DW_OP_deref] $rsp
	#DEBUG_VALUE: read_MVD_CABAC:b <- $edi
	#DEBUG_VALUE: read_MVD_CABAC:k <- [DW_OP_plus_uconst 32, DW_OP_deref] $rsp
	.loc	0 381 86 is_stmt 1              # ldecod_src/cabac.c:381:86
	cmpl	$0, 384(%rax,%rcx)
.Ltmp381:
	.loc	0 381 16 is_stmt 0              # ldecod_src/cabac.c:381:16
	je	.LBB11_13
.Ltmp382:
.LBB11_14:                              # %if.end101
	#DEBUG_VALUE: read_MVD_CABAC:currMB <- $r15
	#DEBUG_VALUE: read_MVD_CABAC:se <- [DW_OP_plus_uconst 16] [$rsp+0]
	#DEBUG_VALUE: read_MVD_CABAC:dep_dp <- $r14
	#DEBUG_VALUE: read_MVD_CABAC:currSlice <- [DW_OP_plus_uconst 40, DW_OP_deref] $rsp
	#DEBUG_VALUE: read_MVD_CABAC:ctx <- [DW_OP_plus_uconst 8, DW_OP_deref] $rsp
	#DEBUG_VALUE: read_MVD_CABAC:i <- [DW_OP_plus_uconst 80, DW_OP_deref] $rsp
	#DEBUG_VALUE: read_MVD_CABAC:a <- [DW_OP_plus_uconst 28, DW_OP_deref] $rsp
	#DEBUG_VALUE: read_MVD_CABAC:k <- [DW_OP_plus_uconst 32, DW_OP_deref] $rsp
	#DEBUG_VALUE: read_MVD_CABAC:b <- $edi
	.loc	0 385 5 is_stmt 1               # ldecod_src/cabac.c:385:5
	addl	28(%rsp), %edi                  # 4-byte Folded Reload
.Ltmp383:
	#DEBUG_VALUE: read_MVD_CABAC:a <- $edi
	.loc	0 387 9                         # ldecod_src/cabac.c:387:9
	cmpl	$2, %edi
.Ltmp384:
	.loc	0 387 7 is_stmt 0               # ldecod_src/cabac.c:387:7
	ja	.LBB11_16
.Ltmp385:
.LBB11_15:                              # %if.then104
	#DEBUG_VALUE: read_MVD_CABAC:currMB <- $r15
	#DEBUG_VALUE: read_MVD_CABAC:se <- [DW_OP_plus_uconst 16] [$rsp+0]
	#DEBUG_VALUE: read_MVD_CABAC:dep_dp <- $r14
	#DEBUG_VALUE: read_MVD_CABAC:currSlice <- [DW_OP_plus_uconst 40, DW_OP_deref] $rsp
	#DEBUG_VALUE: read_MVD_CABAC:ctx <- [DW_OP_plus_uconst 8, DW_OP_deref] $rsp
	#DEBUG_VALUE: read_MVD_CABAC:i <- [DW_OP_plus_uconst 80, DW_OP_deref] $rsp
	#DEBUG_VALUE: read_MVD_CABAC:k <- [DW_OP_plus_uconst 32, DW_OP_deref] $rsp
	.loc	0 0 7                           # ldecod_src/cabac.c:0:7
	movq	32(%rsp), %r15                  # 8-byte Reload
.Ltmp386:
	.loc	0 388 17 is_stmt 1              # ldecod_src/cabac.c:388:17
	leal	(%r15,%r15,4), %eax
.Ltmp387:
	#DEBUG_VALUE: read_MVD_CABAC:act_ctx <- $eax
	.loc	0 0 17 is_stmt 0                # ldecod_src/cabac.c:0:17
	jmp	.LBB11_19
.Ltmp388:
.LBB11_13:                              # %if.then96
	#DEBUG_VALUE: read_MVD_CABAC:currMB <- $r15
	#DEBUG_VALUE: read_MVD_CABAC:se <- [DW_OP_plus_uconst 16] [$rsp+0]
	#DEBUG_VALUE: read_MVD_CABAC:dep_dp <- $r14
	#DEBUG_VALUE: read_MVD_CABAC:currSlice <- [DW_OP_plus_uconst 40, DW_OP_deref] $rsp
	#DEBUG_VALUE: read_MVD_CABAC:ctx <- [DW_OP_plus_uconst 8, DW_OP_deref] $rsp
	#DEBUG_VALUE: read_MVD_CABAC:i <- [DW_OP_plus_uconst 80, DW_OP_deref] $rsp
	#DEBUG_VALUE: read_MVD_CABAC:a <- [DW_OP_plus_uconst 28, DW_OP_deref] $rsp
	#DEBUG_VALUE: read_MVD_CABAC:b <- $edi
	#DEBUG_VALUE: read_MVD_CABAC:k <- [DW_OP_plus_uconst 32, DW_OP_deref] $rsp
	.loc	0 382 11 is_stmt 1              # ldecod_src/cabac.c:382:11
	shrl	%edi
.Ltmp389:
	#DEBUG_VALUE: read_MVD_CABAC:b <- $edi
	#DEBUG_VALUE: read_MVD_CABAC:b <- $edi
	.loc	0 385 5                         # ldecod_src/cabac.c:385:5
	addl	28(%rsp), %edi                  # 4-byte Folded Reload
.Ltmp390:
	#DEBUG_VALUE: read_MVD_CABAC:a <- undef
	.loc	0 387 9                         # ldecod_src/cabac.c:387:9
	cmpl	$2, %edi
.Ltmp391:
	.loc	0 387 7 is_stmt 0               # ldecod_src/cabac.c:387:7
	jbe	.LBB11_15
.Ltmp392:
.LBB11_16:                              # %if.else106
	#DEBUG_VALUE: read_MVD_CABAC:currMB <- $r15
	#DEBUG_VALUE: read_MVD_CABAC:se <- [DW_OP_plus_uconst 16] [$rsp+0]
	#DEBUG_VALUE: read_MVD_CABAC:dep_dp <- $r14
	#DEBUG_VALUE: read_MVD_CABAC:currSlice <- [DW_OP_plus_uconst 40, DW_OP_deref] $rsp
	#DEBUG_VALUE: read_MVD_CABAC:ctx <- [DW_OP_plus_uconst 8, DW_OP_deref] $rsp
	#DEBUG_VALUE: read_MVD_CABAC:i <- [DW_OP_plus_uconst 80, DW_OP_deref] $rsp
	#DEBUG_VALUE: read_MVD_CABAC:k <- [DW_OP_plus_uconst 32, DW_OP_deref] $rsp
	.loc	0 0 7                           # ldecod_src/cabac.c:0:7
	movq	32(%rsp), %r15                  # 8-byte Reload
.Ltmp393:
	leal	(%r15,%r15,4), %eax
	.loc	0 389 14 is_stmt 1              # ldecod_src/cabac.c:389:14
	cmpl	$33, %edi
.Ltmp394:
	.loc	0 389 12 is_stmt 0              # ldecod_src/cabac.c:389:12
	jb	.LBB11_18
.Ltmp395:
# %bb.17:                               # %if.then109
	#DEBUG_VALUE: read_MVD_CABAC:currMB <- [DW_OP_LLVM_entry_value 1] $rdi
	#DEBUG_VALUE: read_MVD_CABAC:se <- [DW_OP_plus_uconst 16] [$rsp+0]
	#DEBUG_VALUE: read_MVD_CABAC:dep_dp <- $r14
	#DEBUG_VALUE: read_MVD_CABAC:currSlice <- [DW_OP_plus_uconst 40, DW_OP_deref] $rsp
	#DEBUG_VALUE: read_MVD_CABAC:ctx <- [DW_OP_plus_uconst 8, DW_OP_deref] $rsp
	#DEBUG_VALUE: read_MVD_CABAC:i <- [DW_OP_plus_uconst 80, DW_OP_deref] $rsp
	#DEBUG_VALUE: read_MVD_CABAC:k <- [DW_OP_plus_uconst 32, DW_OP_deref] $rsp
	.loc	0 390 21 is_stmt 1              # ldecod_src/cabac.c:390:21
	addl	$3, %eax
.Ltmp396:
	#DEBUG_VALUE: read_MVD_CABAC:act_ctx <- $eax
	.loc	0 0 21 is_stmt 0                # ldecod_src/cabac.c:0:21
	jmp	.LBB11_19
.Ltmp397:
.LBB11_18:                              # %if.else112
	#DEBUG_VALUE: read_MVD_CABAC:currMB <- [DW_OP_LLVM_entry_value 1] $rdi
	#DEBUG_VALUE: read_MVD_CABAC:se <- [DW_OP_plus_uconst 16] [$rsp+0]
	#DEBUG_VALUE: read_MVD_CABAC:dep_dp <- $r14
	#DEBUG_VALUE: read_MVD_CABAC:currSlice <- [DW_OP_plus_uconst 40, DW_OP_deref] $rsp
	#DEBUG_VALUE: read_MVD_CABAC:ctx <- [DW_OP_plus_uconst 8, DW_OP_deref] $rsp
	#DEBUG_VALUE: read_MVD_CABAC:i <- [DW_OP_plus_uconst 80, DW_OP_deref] $rsp
	#DEBUG_VALUE: read_MVD_CABAC:k <- [DW_OP_plus_uconst 32, DW_OP_deref] $rsp
	.loc	0 392 21 is_stmt 1              # ldecod_src/cabac.c:392:21
	addl	$2, %eax
.Ltmp398:
	#DEBUG_VALUE: read_MVD_CABAC:act_ctx <- $eax
.LBB11_19:                              # %if.end116
	#DEBUG_VALUE: read_MVD_CABAC:currMB <- [DW_OP_LLVM_entry_value 1] $rdi
	#DEBUG_VALUE: read_MVD_CABAC:se <- [DW_OP_plus_uconst 16] [$rsp+0]
	#DEBUG_VALUE: read_MVD_CABAC:dep_dp <- $r14
	#DEBUG_VALUE: read_MVD_CABAC:currSlice <- [DW_OP_plus_uconst 40, DW_OP_deref] $rsp
	#DEBUG_VALUE: read_MVD_CABAC:ctx <- [DW_OP_plus_uconst 8, DW_OP_deref] $rsp
	#DEBUG_VALUE: read_MVD_CABAC:i <- [DW_OP_plus_uconst 80, DW_OP_deref] $rsp
	#DEBUG_VALUE: read_MVD_CABAC:k <- [DW_OP_plus_uconst 32, DW_OP_deref] $rsp
	#DEBUG_VALUE: read_MVD_CABAC:act_ctx <- $eax
	.loc	0 0 21 is_stmt 0                # ldecod_src/cabac.c:0:21
	movq	8(%rsp), %rbx                   # 8-byte Reload
	#DEBUG_VALUE: read_MVD_CABAC:act_ctx <- $eax
	.loc	0 394 15 is_stmt 1              # ldecod_src/cabac.c:394:15
	movl	%eax, 24(%r13)
	.loc	0 396 41                        # ldecod_src/cabac.c:396:41
	cltq
.Ltmp399:
	leaq	(%rbx,%rax,4), %rsi
	addq	$204, %rsi
	.loc	0 396 13 is_stmt 0              # ldecod_src/cabac.c:396:13
	movq	%r14, %rdi
	callq	biari_decode_symbol@PLT
.Ltmp400:
	#DEBUG_VALUE: read_MVD_CABAC:act_sym <- $eax
	.loc	0 398 15 is_stmt 1              # ldecod_src/cabac.c:398:15
	testl	%eax, %eax
.Ltmp401:
	.loc	0 398 7 is_stmt 0               # ldecod_src/cabac.c:398:7
	je	.LBB11_20
.Ltmp402:
# %bb.21:                               # %if.then123
	#DEBUG_VALUE: read_MVD_CABAC:currMB <- [DW_OP_LLVM_entry_value 1] $rdi
	#DEBUG_VALUE: read_MVD_CABAC:se <- [DW_OP_plus_uconst 16] [$rsp+0]
	#DEBUG_VALUE: read_MVD_CABAC:dep_dp <- $r14
	#DEBUG_VALUE: read_MVD_CABAC:currSlice <- [DW_OP_plus_uconst 40, DW_OP_deref] $rsp
	#DEBUG_VALUE: read_MVD_CABAC:ctx <- [DW_OP_plus_uconst 8, DW_OP_deref] $rsp
	#DEBUG_VALUE: read_MVD_CABAC:i <- [DW_OP_plus_uconst 80, DW_OP_deref] $rsp
	#DEBUG_VALUE: read_MVD_CABAC:k <- [DW_OP_plus_uconst 32, DW_OP_deref] $rsp
	#DEBUG_VALUE: read_MVD_CABAC:act_sym <- $eax
	.loc	0 400 17 is_stmt 1              # ldecod_src/cabac.c:400:17
	leal	(%r15,%r15,4), %eax
.Ltmp403:
	#DEBUG_VALUE: read_MVD_CABAC:act_ctx <- $eax
	.loc	0 401 74                        # ldecod_src/cabac.c:401:74
	cltq
.Ltmp404:
	leaq	(%rbx,%rax,4), %r15
	addq	$244, %r15
.Ltmp405:
	#DEBUG_VALUE: unary_exp_golomb_mv_decode:ctx <- $r15
	#DEBUG_VALUE: unary_exp_golomb_mv_decode:dep_dp <- $r14
	#DEBUG_VALUE: unary_exp_golomb_mv_decode:max_bin <- 3
	.loc	0 2289 25                       # ldecod_src/cabac.c:2289:25
	movq	%r14, %rdi
	movq	%r15, %rsi
	callq	biari_decode_symbol@PLT
.Ltmp406:
	#DEBUG_VALUE: unary_exp_golomb_mv_decode:symbol <- $eax
	.loc	0 2291 14                       # ldecod_src/cabac.c:2291:14
	testl	%eax, %eax
.Ltmp407:
	.loc	0 2291 7 is_stmt 0              # ldecod_src/cabac.c:2291:7
	je	.LBB11_22
.Ltmp408:
# %bb.23:                               # %if.else.i
	#DEBUG_VALUE: read_MVD_CABAC:currMB <- [DW_OP_LLVM_entry_value 1] $rdi
	#DEBUG_VALUE: read_MVD_CABAC:se <- [DW_OP_plus_uconst 16] [$rsp+0]
	#DEBUG_VALUE: read_MVD_CABAC:dep_dp <- $r14
	#DEBUG_VALUE: read_MVD_CABAC:currSlice <- [DW_OP_plus_uconst 40, DW_OP_deref] $rsp
	#DEBUG_VALUE: read_MVD_CABAC:ctx <- [DW_OP_plus_uconst 8, DW_OP_deref] $rsp
	#DEBUG_VALUE: read_MVD_CABAC:i <- [DW_OP_plus_uconst 80, DW_OP_deref] $rsp
	#DEBUG_VALUE: read_MVD_CABAC:k <- [DW_OP_plus_uconst 32, DW_OP_deref] $rsp
	#DEBUG_VALUE: unary_exp_golomb_mv_decode:ctx <- $r15
	#DEBUG_VALUE: unary_exp_golomb_mv_decode:dep_dp <- $r14
	#DEBUG_VALUE: unary_exp_golomb_mv_decode:max_bin <- 3
	#DEBUG_VALUE: unary_exp_golomb_mv_decode:symbol <- $eax
	#DEBUG_VALUE: exp_start <- 8
	#DEBUG_VALUE: k <- 1
	#DEBUG_VALUE: bin <- 1
	#DEBUG_VALUE: unary_exp_golomb_mv_decode:symbol <- 0
	.loc	0 2301 5 is_stmt 1              # ldecod_src/cabac.c:2301:5
	leaq	4(%r15), %rsi
.Ltmp409:
	#DEBUG_VALUE: unary_exp_golomb_mv_decode:ctx <- $rsi
	.loc	0 2304 9                        # ldecod_src/cabac.c:2304:9
	movq	%r14, %rdi
	callq	biari_decode_symbol@PLT
.Ltmp410:
	#DEBUG_VALUE: l <- $eax
	#DEBUG_VALUE: bin <- 2
	#DEBUG_VALUE: unary_exp_golomb_mv_decode:ctx <- [DW_OP_plus_uconst 4, DW_OP_stack_value] undef
	#DEBUG_VALUE: unary_exp_golomb_mv_decode:symbol <- 1
	#DEBUG_VALUE: k <- 2
	.loc	0 2311 13                       # ldecod_src/cabac.c:2311:13
	testl	%eax, %eax
.Ltmp411:
	.loc	0 2310 5                        # ldecod_src/cabac.c:2310:5
	je	.LBB11_24
.Ltmp412:
# %bb.25:                               # %do.body.peel.next.i
	#DEBUG_VALUE: read_MVD_CABAC:currMB <- [DW_OP_LLVM_entry_value 1] $rdi
	#DEBUG_VALUE: read_MVD_CABAC:se <- [DW_OP_plus_uconst 16] [$rsp+0]
	#DEBUG_VALUE: read_MVD_CABAC:dep_dp <- $r14
	#DEBUG_VALUE: read_MVD_CABAC:currSlice <- [DW_OP_plus_uconst 40, DW_OP_deref] $rsp
	#DEBUG_VALUE: read_MVD_CABAC:ctx <- [DW_OP_plus_uconst 8, DW_OP_deref] $rsp
	#DEBUG_VALUE: read_MVD_CABAC:i <- [DW_OP_plus_uconst 80, DW_OP_deref] $rsp
	#DEBUG_VALUE: read_MVD_CABAC:k <- [DW_OP_plus_uconst 32, DW_OP_deref] $rsp
	#DEBUG_VALUE: unary_exp_golomb_mv_decode:dep_dp <- $r14
	#DEBUG_VALUE: unary_exp_golomb_mv_decode:max_bin <- 3
	#DEBUG_VALUE: unary_exp_golomb_mv_decode:symbol <- 1
	#DEBUG_VALUE: exp_start <- 8
	#DEBUG_VALUE: k <- 2
	#DEBUG_VALUE: bin <- 2
	#DEBUG_VALUE: l <- $eax
	.loc	0 2305 11                       # ldecod_src/cabac.c:2305:11
	leaq	8(%r15), %rsi
.Ltmp413:
	#DEBUG_VALUE: unary_exp_golomb_mv_decode:ctx <- $rsi
	#DEBUG_VALUE: bin <- 2
	#DEBUG_VALUE: k <- 2
	#DEBUG_VALUE: unary_exp_golomb_mv_decode:symbol <- 1
	.loc	0 2304 9                        # ldecod_src/cabac.c:2304:9
	movq	%r14, %rdi
	callq	biari_decode_symbol@PLT
.Ltmp414:
	#DEBUG_VALUE: l <- $eax
	#DEBUG_VALUE: bin <- 3
	#DEBUG_VALUE: unary_exp_golomb_mv_decode:ctx <- undef
	#DEBUG_VALUE: unary_exp_golomb_mv_decode:symbol <- 2
	#DEBUG_VALUE: k <- 3
	.loc	0 2311 13                       # ldecod_src/cabac.c:2311:13
	testl	%eax, %eax
.Ltmp415:
	.loc	0 2310 5                        # ldecod_src/cabac.c:2310:5
	je	.LBB11_26
.Ltmp416:
# %bb.27:                               # %do.body.i.preheader
	#DEBUG_VALUE: read_MVD_CABAC:currMB <- [DW_OP_LLVM_entry_value 1] $rdi
	#DEBUG_VALUE: read_MVD_CABAC:se <- [DW_OP_plus_uconst 16] [$rsp+0]
	#DEBUG_VALUE: read_MVD_CABAC:dep_dp <- $r14
	#DEBUG_VALUE: read_MVD_CABAC:currSlice <- [DW_OP_plus_uconst 40, DW_OP_deref] $rsp
	#DEBUG_VALUE: read_MVD_CABAC:ctx <- [DW_OP_plus_uconst 8, DW_OP_deref] $rsp
	#DEBUG_VALUE: read_MVD_CABAC:i <- [DW_OP_plus_uconst 80, DW_OP_deref] $rsp
	#DEBUG_VALUE: read_MVD_CABAC:k <- [DW_OP_plus_uconst 32, DW_OP_deref] $rsp
	#DEBUG_VALUE: unary_exp_golomb_mv_decode:dep_dp <- $r14
	#DEBUG_VALUE: unary_exp_golomb_mv_decode:max_bin <- 3
	#DEBUG_VALUE: unary_exp_golomb_mv_decode:symbol <- 2
	#DEBUG_VALUE: exp_start <- 8
	#DEBUG_VALUE: k <- 3
	#DEBUG_VALUE: bin <- 3
	#DEBUG_VALUE: l <- $eax
	.loc	0 0 5 is_stmt 0                 # ldecod_src/cabac.c:0:5
	addq	$12, %r15
.Ltmp417:
	#DEBUG_VALUE: unary_exp_golomb_mv_decode:ctx <- $r15
	movl	$2, %ebx
	movl	$-3, %r13d
.Ltmp418:
	.p2align	4, 0x90
.LBB11_28:                              # %do.body.i
                                        # =>This Inner Loop Header: Depth=1
	#DEBUG_VALUE: read_MVD_CABAC:currMB <- [DW_OP_LLVM_entry_value 1] $rdi
	#DEBUG_VALUE: read_MVD_CABAC:se <- [DW_OP_plus_uconst 16] [$rsp+0]
	#DEBUG_VALUE: read_MVD_CABAC:dep_dp <- $r14
	#DEBUG_VALUE: read_MVD_CABAC:currSlice <- [DW_OP_plus_uconst 40, DW_OP_deref] $rsp
	#DEBUG_VALUE: read_MVD_CABAC:ctx <- [DW_OP_plus_uconst 8, DW_OP_deref] $rsp
	#DEBUG_VALUE: read_MVD_CABAC:i <- [DW_OP_plus_uconst 80, DW_OP_deref] $rsp
	#DEBUG_VALUE: read_MVD_CABAC:k <- [DW_OP_plus_uconst 32, DW_OP_deref] $rsp
	#DEBUG_VALUE: unary_exp_golomb_mv_decode:ctx <- $r15
	#DEBUG_VALUE: unary_exp_golomb_mv_decode:dep_dp <- $r14
	#DEBUG_VALUE: unary_exp_golomb_mv_decode:max_bin <- 3
	#DEBUG_VALUE: exp_start <- 8
	#DEBUG_VALUE: l <- $eax
	#DEBUG_VALUE: bin <- [DW_OP_consts 18446744073709551613, DW_OP_minus, DW_OP_consts 18446744073709551615, DW_OP_div, DW_OP_consts 3, DW_OP_plus, DW_OP_stack_value] $r13d
	#DEBUG_VALUE: k <- [DW_OP_consts 18446744073709551613, DW_OP_minus, DW_OP_consts 18446744073709551615, DW_OP_div, DW_OP_consts 3, DW_OP_plus, DW_OP_stack_value] $r13d
	#DEBUG_VALUE: unary_exp_golomb_mv_decode:ctx <- $r15
	#DEBUG_VALUE: unary_exp_golomb_mv_decode:symbol <- $ebx
	.loc	0 2304 9 is_stmt 1              # ldecod_src/cabac.c:2304:9
	movq	%r14, %rdi
	movq	%r15, %rsi
	callq	biari_decode_symbol@PLT
.Ltmp419:
	#DEBUG_VALUE: l <- $eax
	#DEBUG_VALUE: bin <- [DW_OP_consts 18446744073709551613, DW_OP_minus, DW_OP_consts 18446744073709551615, DW_OP_div, DW_OP_consts 4, DW_OP_plus, DW_OP_stack_value] $r13d
	.loc	0 2308 7                        # ldecod_src/cabac.c:2308:7
	incl	%ebx
.Ltmp420:
	#DEBUG_VALUE: unary_exp_golomb_mv_decode:symbol <- $ebx
	.loc	0 2310 5                        # ldecod_src/cabac.c:2310:5
	leal	-1(%r13), %r12d
.Ltmp421:
	#DEBUG_VALUE: k <- [DW_OP_consts 18446744073709551613, DW_OP_minus, DW_OP_consts 18446744073709551615, DW_OP_div, DW_OP_consts 4, DW_OP_plus, DW_OP_stack_value] $r13d
	.loc	0 2311 13                       # ldecod_src/cabac.c:2311:13
	testl	%eax, %eax
.Ltmp422:
	.loc	0 2310 5                        # ldecod_src/cabac.c:2310:5
	je	.LBB11_30
.Ltmp423:
# %bb.29:                               # %do.body.i
                                        #   in Loop: Header=BB11_28 Depth=1
	#DEBUG_VALUE: read_MVD_CABAC:currMB <- [DW_OP_LLVM_entry_value 1] $rdi
	#DEBUG_VALUE: read_MVD_CABAC:se <- [DW_OP_plus_uconst 16] [$rsp+0]
	#DEBUG_VALUE: read_MVD_CABAC:dep_dp <- $r14
	#DEBUG_VALUE: read_MVD_CABAC:currSlice <- [DW_OP_plus_uconst 40, DW_OP_deref] $rsp
	#DEBUG_VALUE: read_MVD_CABAC:ctx <- [DW_OP_plus_uconst 8, DW_OP_deref] $rsp
	#DEBUG_VALUE: read_MVD_CABAC:i <- [DW_OP_plus_uconst 80, DW_OP_deref] $rsp
	#DEBUG_VALUE: read_MVD_CABAC:k <- [DW_OP_plus_uconst 32, DW_OP_deref] $rsp
	#DEBUG_VALUE: unary_exp_golomb_mv_decode:ctx <- $r15
	#DEBUG_VALUE: unary_exp_golomb_mv_decode:dep_dp <- $r14
	#DEBUG_VALUE: unary_exp_golomb_mv_decode:max_bin <- 3
	#DEBUG_VALUE: unary_exp_golomb_mv_decode:symbol <- $ebx
	#DEBUG_VALUE: exp_start <- 8
	#DEBUG_VALUE: k <- [DW_OP_consts 18446744073709551613, DW_OP_minus, DW_OP_consts 18446744073709551615, DW_OP_div, DW_OP_consts 4, DW_OP_plus, DW_OP_stack_value] $r13d
	#DEBUG_VALUE: bin <- [DW_OP_consts 18446744073709551613, DW_OP_minus, DW_OP_consts 18446744073709551615, DW_OP_div, DW_OP_consts 4, DW_OP_plus, DW_OP_stack_value] $r13d
	#DEBUG_VALUE: l <- $eax
	cmpl	$-7, %r13d
	movl	%r12d, %r13d
.Ltmp424:
	jne	.LBB11_28
.Ltmp425:
.LBB11_30:                              # %do.end.i
	#DEBUG_VALUE: read_MVD_CABAC:currMB <- [DW_OP_LLVM_entry_value 1] $rdi
	#DEBUG_VALUE: read_MVD_CABAC:se <- [DW_OP_plus_uconst 16] [$rsp+0]
	#DEBUG_VALUE: read_MVD_CABAC:dep_dp <- $r14
	#DEBUG_VALUE: read_MVD_CABAC:currSlice <- [DW_OP_plus_uconst 40, DW_OP_deref] $rsp
	#DEBUG_VALUE: read_MVD_CABAC:ctx <- [DW_OP_plus_uconst 8, DW_OP_deref] $rsp
	#DEBUG_VALUE: read_MVD_CABAC:i <- [DW_OP_plus_uconst 80, DW_OP_deref] $rsp
	#DEBUG_VALUE: read_MVD_CABAC:k <- [DW_OP_plus_uconst 32, DW_OP_deref] $rsp
	#DEBUG_VALUE: unary_exp_golomb_mv_decode:ctx <- $r15
	#DEBUG_VALUE: unary_exp_golomb_mv_decode:dep_dp <- $r14
	#DEBUG_VALUE: unary_exp_golomb_mv_decode:max_bin <- 3
	#DEBUG_VALUE: unary_exp_golomb_mv_decode:symbol <- $ebx
	#DEBUG_VALUE: exp_start <- 8
	#DEBUG_VALUE: l <- $eax
	.loc	0 2311 13                       # ldecod_src/cabac.c:2311:13
	testl	%eax, %eax
	movq	16(%rsp), %r13                  # 8-byte Reload
	.loc	0 2312 9                        # ldecod_src/cabac.c:2312:9
	je	.LBB11_36
.Ltmp426:
# %bb.31:                               # %do.body.i.i.preheader
	#DEBUG_VALUE: read_MVD_CABAC:currMB <- [DW_OP_LLVM_entry_value 1] $rdi
	#DEBUG_VALUE: read_MVD_CABAC:se <- [DW_OP_plus_uconst 16] [$rsp+0]
	#DEBUG_VALUE: read_MVD_CABAC:dep_dp <- $r14
	#DEBUG_VALUE: read_MVD_CABAC:currSlice <- [DW_OP_plus_uconst 40, DW_OP_deref] $rsp
	#DEBUG_VALUE: read_MVD_CABAC:ctx <- [DW_OP_plus_uconst 8, DW_OP_deref] $rsp
	#DEBUG_VALUE: read_MVD_CABAC:i <- [DW_OP_plus_uconst 80, DW_OP_deref] $rsp
	#DEBUG_VALUE: read_MVD_CABAC:k <- [DW_OP_plus_uconst 32, DW_OP_deref] $rsp
	#DEBUG_VALUE: unary_exp_golomb_mv_decode:ctx <- $r15
	#DEBUG_VALUE: unary_exp_golomb_mv_decode:dep_dp <- $r14
	#DEBUG_VALUE: unary_exp_golomb_mv_decode:max_bin <- 3
	#DEBUG_VALUE: unary_exp_golomb_mv_decode:symbol <- $ebx
	#DEBUG_VALUE: exp_start <- 8
	#DEBUG_VALUE: l <- $eax
	.loc	0 0 9 is_stmt 0                 # ldecod_src/cabac.c:0:9
	xorl	%ebp, %ebp
	movl	$3, %ecx
	xorl	%edx, %edx
.Ltmp427:
	.p2align	4, 0x90
.LBB11_32:                              # %do.body.i.i
                                        # =>This Inner Loop Header: Depth=1
	#DEBUG_VALUE: read_MVD_CABAC:currMB <- [DW_OP_LLVM_entry_value 1] $rdi
	#DEBUG_VALUE: read_MVD_CABAC:se <- [DW_OP_plus_uconst 16] [$rsp+0]
	#DEBUG_VALUE: read_MVD_CABAC:dep_dp <- $r14
	#DEBUG_VALUE: read_MVD_CABAC:currSlice <- [DW_OP_plus_uconst 40, DW_OP_deref] $rsp
	#DEBUG_VALUE: read_MVD_CABAC:ctx <- [DW_OP_plus_uconst 8, DW_OP_deref] $rsp
	#DEBUG_VALUE: read_MVD_CABAC:i <- [DW_OP_plus_uconst 80, DW_OP_deref] $rsp
	#DEBUG_VALUE: read_MVD_CABAC:k <- [DW_OP_plus_uconst 32, DW_OP_deref] $rsp
	#DEBUG_VALUE: unary_exp_golomb_mv_decode:dep_dp <- $r14
	#DEBUG_VALUE: unary_exp_golomb_mv_decode:max_bin <- 3
	#DEBUG_VALUE: exp_start <- 8
	movl	%edx, %r13d
	movl	%ecx, %r15d
.Ltmp428:
	#DEBUG_VALUE: exp_golomb_decode_eq_prob:symbol <- $r13d
	#DEBUG_VALUE: exp_golomb_decode_eq_prob:k <- $r15d
	.loc	0 2226 9 is_stmt 1              # ldecod_src/cabac.c:2226:9
	movq	%r14, %rdi
	callq	biari_decode_symbol_eq_prob@PLT
.Ltmp429:
	#DEBUG_VALUE: exp_golomb_decode_eq_prob:l <- $eax
	.loc	0 2227 9                        # ldecod_src/cabac.c:2227:9
	movl	$1, %ebx
	movl	%r15d, %ecx
	shll	%cl, %ebx
.Ltmp430:
	.loc	0 2227 11 is_stmt 0             # ldecod_src/cabac.c:2227:11
	xorl	%ecx, %ecx
	cmpl	$1, %eax
.Ltmp431:
	.loc	0 2227 9                        # ldecod_src/cabac.c:2227:9
	cmovnel	%ebp, %ebx
.Ltmp432:
	.loc	0 2227 11                       # ldecod_src/cabac.c:2227:11
	sete	%cl
.Ltmp433:
	.loc	0 2227 9                        # ldecod_src/cabac.c:2227:9
	addl	%r15d, %ecx
	leal	(%rbx,%r13), %edx
.Ltmp434:
	#DEBUG_VALUE: exp_golomb_decode_eq_prob:symbol <- $edx
	#DEBUG_VALUE: exp_golomb_decode_eq_prob:k <- $ecx
	.loc	0 2233 11 is_stmt 1             # ldecod_src/cabac.c:2233:11
	testl	%eax, %eax
.Ltmp435:
	.loc	0 2232 3                        # ldecod_src/cabac.c:2232:3
	jne	.LBB11_32
.Ltmp436:
# %bb.33:                               # %while.body.i.i.preheader
	#DEBUG_VALUE: read_MVD_CABAC:currMB <- [DW_OP_LLVM_entry_value 1] $rdi
	#DEBUG_VALUE: read_MVD_CABAC:se <- [DW_OP_plus_uconst 16] [$rsp+0]
	#DEBUG_VALUE: read_MVD_CABAC:dep_dp <- $r14
	#DEBUG_VALUE: read_MVD_CABAC:currSlice <- [DW_OP_plus_uconst 40, DW_OP_deref] $rsp
	#DEBUG_VALUE: read_MVD_CABAC:ctx <- [DW_OP_plus_uconst 8, DW_OP_deref] $rsp
	#DEBUG_VALUE: read_MVD_CABAC:i <- [DW_OP_plus_uconst 80, DW_OP_deref] $rsp
	#DEBUG_VALUE: read_MVD_CABAC:k <- [DW_OP_plus_uconst 32, DW_OP_deref] $rsp
	#DEBUG_VALUE: unary_exp_golomb_mv_decode:dep_dp <- $r14
	#DEBUG_VALUE: unary_exp_golomb_mv_decode:max_bin <- 3
	#DEBUG_VALUE: exp_start <- 8
	#DEBUG_VALUE: exp_golomb_decode_eq_prob:symbol <- $edx
	#DEBUG_VALUE: exp_golomb_decode_eq_prob:k <- $ecx
	#DEBUG_VALUE: exp_golomb_decode_eq_prob:l <- $eax
	.loc	0 2227 11                       # ldecod_src/cabac.c:2227:11
	xorl	%ecx, %ecx
.Ltmp437:
	cmpl	$1, %eax
	sete	%cl
.Ltmp438:
	.loc	0 2235 3                        # ldecod_src/cabac.c:2235:3
	leal	(%r15,%rcx), %ebp
	decl	%ebp
	xorl	%r15d, %r15d
.Ltmp439:
	.p2align	4, 0x90
.LBB11_34:                              # %while.body.i.i
                                        # =>This Inner Loop Header: Depth=1
	#DEBUG_VALUE: read_MVD_CABAC:currMB <- [DW_OP_LLVM_entry_value 1] $rdi
	#DEBUG_VALUE: read_MVD_CABAC:se <- [DW_OP_plus_uconst 16] [$rsp+0]
	#DEBUG_VALUE: read_MVD_CABAC:dep_dp <- $r14
	#DEBUG_VALUE: read_MVD_CABAC:currSlice <- [DW_OP_plus_uconst 40, DW_OP_deref] $rsp
	#DEBUG_VALUE: read_MVD_CABAC:ctx <- [DW_OP_plus_uconst 8, DW_OP_deref] $rsp
	#DEBUG_VALUE: read_MVD_CABAC:i <- [DW_OP_plus_uconst 80, DW_OP_deref] $rsp
	#DEBUG_VALUE: read_MVD_CABAC:k <- [DW_OP_plus_uconst 32, DW_OP_deref] $rsp
	#DEBUG_VALUE: unary_exp_golomb_mv_decode:dep_dp <- $r14
	#DEBUG_VALUE: unary_exp_golomb_mv_decode:max_bin <- 3
	#DEBUG_VALUE: exp_start <- 8
	#DEBUG_VALUE: exp_golomb_decode_eq_prob:binary_symbol <- $r15d
	#DEBUG_VALUE: exp_golomb_decode_eq_prob:k <- $ebp
	.loc	0 2236 9                        # ldecod_src/cabac.c:2236:9
	movq	%r14, %rdi
	callq	biari_decode_symbol_eq_prob@PLT
.Ltmp440:
	.loc	0 2236 9 is_stmt 0              # ldecod_src/cabac.c:2236:9
	movl	$1, %edx
	movl	%ebp, %ecx
	shll	%cl, %edx
.Ltmp441:
	.loc	0 2236 44                       # ldecod_src/cabac.c:2236:44
	cmpl	$1, %eax
.Ltmp442:
	.loc	0 2236 9                        # ldecod_src/cabac.c:2236:9
	movl	$0, %eax
	cmovnel	%eax, %edx
	orl	%edx, %r15d
.Ltmp443:
	#DEBUG_VALUE: exp_golomb_decode_eq_prob:binary_symbol <- $r15d
	#DEBUG_VALUE: exp_golomb_decode_eq_prob:k <- [DW_OP_constu 1, DW_OP_minus, DW_OP_stack_value] $ebp
	.loc	0 2235 3 is_stmt 1              # ldecod_src/cabac.c:2235:3
	addl	$-1, %ebp
.Ltmp444:
	#DEBUG_VALUE: exp_golomb_decode_eq_prob:k <- [DW_OP_constu 1, DW_OP_minus, DW_OP_stack_value] $ecx
	jb	.LBB11_34
.Ltmp445:
# %bb.35:                               # %exp_golomb_decode_eq_prob.exit.i
	#DEBUG_VALUE: read_MVD_CABAC:currMB <- [DW_OP_LLVM_entry_value 1] $rdi
	#DEBUG_VALUE: read_MVD_CABAC:se <- [DW_OP_plus_uconst 16] [$rsp+0]
	#DEBUG_VALUE: read_MVD_CABAC:dep_dp <- $r14
	#DEBUG_VALUE: read_MVD_CABAC:currSlice <- [DW_OP_plus_uconst 40, DW_OP_deref] $rsp
	#DEBUG_VALUE: read_MVD_CABAC:ctx <- [DW_OP_plus_uconst 8, DW_OP_deref] $rsp
	#DEBUG_VALUE: read_MVD_CABAC:i <- [DW_OP_plus_uconst 80, DW_OP_deref] $rsp
	#DEBUG_VALUE: read_MVD_CABAC:k <- [DW_OP_plus_uconst 32, DW_OP_deref] $rsp
	#DEBUG_VALUE: unary_exp_golomb_mv_decode:dep_dp <- $r14
	#DEBUG_VALUE: unary_exp_golomb_mv_decode:max_bin <- 3
	#DEBUG_VALUE: exp_start <- 8
	#DEBUG_VALUE: unary_exp_golomb_mv_decode:symbol <- [DW_OP_LLVM_arg 0, DW_OP_plus_uconst 2, DW_OP_LLVM_arg 2, DW_OP_plus, DW_OP_LLVM_arg 1, DW_OP_plus, DW_OP_stack_value] undef, undef, undef
	.loc	0 2313 7                        # ldecod_src/cabac.c:2313:7
	addl	%r13d, %ebx
	addl	%r15d, %ebx
	subl	%r12d, %ebx
	movq	16(%rsp), %r13                  # 8-byte Reload
	jmp	.LBB11_36
.Ltmp446:
.LBB11_20:
	#DEBUG_VALUE: read_MVD_CABAC:currMB <- [DW_OP_LLVM_entry_value 1] $rdi
	#DEBUG_VALUE: read_MVD_CABAC:se <- [DW_OP_plus_uconst 16] [$rsp+0]
	#DEBUG_VALUE: read_MVD_CABAC:dep_dp <- $r14
	#DEBUG_VALUE: read_MVD_CABAC:currSlice <- [DW_OP_plus_uconst 40, DW_OP_deref] $rsp
	#DEBUG_VALUE: read_MVD_CABAC:ctx <- [DW_OP_plus_uconst 8, DW_OP_deref] $rsp
	#DEBUG_VALUE: read_MVD_CABAC:i <- [DW_OP_plus_uconst 80, DW_OP_deref] $rsp
	#DEBUG_VALUE: read_MVD_CABAC:k <- [DW_OP_plus_uconst 32, DW_OP_deref] $rsp
	#DEBUG_VALUE: read_MVD_CABAC:act_sym <- $eax
	.loc	0 0 7 is_stmt 0                 # ldecod_src/cabac.c:0:7
	xorl	%ebx, %ebx
	.loc	0 398 7 is_stmt 1               # ldecod_src/cabac.c:398:7
	jmp	.LBB11_37
.Ltmp447:
.LBB11_22:
	#DEBUG_VALUE: read_MVD_CABAC:currMB <- [DW_OP_LLVM_entry_value 1] $rdi
	#DEBUG_VALUE: read_MVD_CABAC:se <- [DW_OP_plus_uconst 16] [$rsp+0]
	#DEBUG_VALUE: read_MVD_CABAC:dep_dp <- $r14
	#DEBUG_VALUE: read_MVD_CABAC:currSlice <- [DW_OP_plus_uconst 40, DW_OP_deref] $rsp
	#DEBUG_VALUE: read_MVD_CABAC:ctx <- [DW_OP_plus_uconst 8, DW_OP_deref] $rsp
	#DEBUG_VALUE: read_MVD_CABAC:i <- [DW_OP_plus_uconst 80, DW_OP_deref] $rsp
	#DEBUG_VALUE: read_MVD_CABAC:k <- [DW_OP_plus_uconst 32, DW_OP_deref] $rsp
	#DEBUG_VALUE: unary_exp_golomb_mv_decode:ctx <- $r15
	#DEBUG_VALUE: unary_exp_golomb_mv_decode:dep_dp <- $r14
	#DEBUG_VALUE: unary_exp_golomb_mv_decode:max_bin <- 3
	#DEBUG_VALUE: unary_exp_golomb_mv_decode:symbol <- $eax
	.loc	0 0 7 is_stmt 0                 # ldecod_src/cabac.c:0:7
	xorl	%ebx, %ebx
.Ltmp448:
	.loc	0 2291 7 is_stmt 1              # ldecod_src/cabac.c:2291:7
	jmp	.LBB11_36
.Ltmp449:
.LBB11_24:
	#DEBUG_VALUE: read_MVD_CABAC:currMB <- [DW_OP_LLVM_entry_value 1] $rdi
	#DEBUG_VALUE: read_MVD_CABAC:se <- [DW_OP_plus_uconst 16] [$rsp+0]
	#DEBUG_VALUE: read_MVD_CABAC:dep_dp <- $r14
	#DEBUG_VALUE: read_MVD_CABAC:currSlice <- [DW_OP_plus_uconst 40, DW_OP_deref] $rsp
	#DEBUG_VALUE: read_MVD_CABAC:ctx <- [DW_OP_plus_uconst 8, DW_OP_deref] $rsp
	#DEBUG_VALUE: read_MVD_CABAC:i <- [DW_OP_plus_uconst 80, DW_OP_deref] $rsp
	#DEBUG_VALUE: read_MVD_CABAC:k <- [DW_OP_plus_uconst 32, DW_OP_deref] $rsp
	#DEBUG_VALUE: unary_exp_golomb_mv_decode:dep_dp <- $r14
	#DEBUG_VALUE: unary_exp_golomb_mv_decode:max_bin <- 3
	#DEBUG_VALUE: unary_exp_golomb_mv_decode:symbol <- 1
	#DEBUG_VALUE: exp_start <- 8
	#DEBUG_VALUE: k <- 2
	#DEBUG_VALUE: bin <- 2
	#DEBUG_VALUE: l <- $eax
	.loc	0 0 7 is_stmt 0                 # ldecod_src/cabac.c:0:7
	movl	$1, %ebx
.Ltmp450:
	.loc	0 2310 5 is_stmt 1              # ldecod_src/cabac.c:2310:5
	jmp	.LBB11_36
.Ltmp451:
.LBB11_26:
	#DEBUG_VALUE: read_MVD_CABAC:currMB <- [DW_OP_LLVM_entry_value 1] $rdi
	#DEBUG_VALUE: read_MVD_CABAC:se <- [DW_OP_plus_uconst 16] [$rsp+0]
	#DEBUG_VALUE: read_MVD_CABAC:dep_dp <- $r14
	#DEBUG_VALUE: read_MVD_CABAC:currSlice <- [DW_OP_plus_uconst 40, DW_OP_deref] $rsp
	#DEBUG_VALUE: read_MVD_CABAC:ctx <- [DW_OP_plus_uconst 8, DW_OP_deref] $rsp
	#DEBUG_VALUE: read_MVD_CABAC:i <- [DW_OP_plus_uconst 80, DW_OP_deref] $rsp
	#DEBUG_VALUE: read_MVD_CABAC:k <- [DW_OP_plus_uconst 32, DW_OP_deref] $rsp
	#DEBUG_VALUE: unary_exp_golomb_mv_decode:dep_dp <- $r14
	#DEBUG_VALUE: unary_exp_golomb_mv_decode:max_bin <- 3
	#DEBUG_VALUE: unary_exp_golomb_mv_decode:symbol <- 2
	#DEBUG_VALUE: exp_start <- 8
	#DEBUG_VALUE: k <- 3
	#DEBUG_VALUE: bin <- 3
	#DEBUG_VALUE: l <- $eax
	.loc	0 0 5 is_stmt 0                 # ldecod_src/cabac.c:0:5
	movl	$2, %ebx
.Ltmp452:
.LBB11_36:                              # %unary_exp_golomb_mv_decode.exit
	#DEBUG_VALUE: read_MVD_CABAC:currMB <- [DW_OP_LLVM_entry_value 1] $rdi
	#DEBUG_VALUE: read_MVD_CABAC:se <- [DW_OP_plus_uconst 16] [$rsp+0]
	#DEBUG_VALUE: read_MVD_CABAC:dep_dp <- $r14
	#DEBUG_VALUE: read_MVD_CABAC:currSlice <- [DW_OP_plus_uconst 40, DW_OP_deref] $rsp
	#DEBUG_VALUE: read_MVD_CABAC:ctx <- [DW_OP_plus_uconst 8, DW_OP_deref] $rsp
	#DEBUG_VALUE: read_MVD_CABAC:i <- [DW_OP_plus_uconst 80, DW_OP_deref] $rsp
	#DEBUG_VALUE: read_MVD_CABAC:k <- [DW_OP_plus_uconst 32, DW_OP_deref] $rsp
	.loc	0 401 88 is_stmt 1              # ldecod_src/cabac.c:401:88
	leal	1(%rbx), %ebp
.Ltmp453:
	#DEBUG_VALUE: read_MVD_CABAC:act_sym <- $ebp
	.loc	0 403 8                         # ldecod_src/cabac.c:403:8
	movq	%r14, %rdi
	callq	biari_decode_symbol_eq_prob@PLT
.Ltmp454:
	testl	%eax, %eax
	notl	%ebx
.Ltmp455:
	.loc	0 403 8 is_stmt 0               # ldecod_src/cabac.c:403:8
	cmovel	%ebp, %ebx
.Ltmp456:
.LBB11_37:                              # %if.end135
	#DEBUG_VALUE: read_MVD_CABAC:currMB <- [DW_OP_LLVM_entry_value 1] $rdi
	#DEBUG_VALUE: read_MVD_CABAC:se <- [DW_OP_plus_uconst 16] [$rsp+0]
	#DEBUG_VALUE: read_MVD_CABAC:dep_dp <- $r14
	#DEBUG_VALUE: read_MVD_CABAC:currSlice <- [DW_OP_plus_uconst 40, DW_OP_deref] $rsp
	#DEBUG_VALUE: read_MVD_CABAC:ctx <- [DW_OP_plus_uconst 8, DW_OP_deref] $rsp
	#DEBUG_VALUE: read_MVD_CABAC:i <- [DW_OP_plus_uconst 80, DW_OP_deref] $rsp
	#DEBUG_VALUE: read_MVD_CABAC:k <- [DW_OP_plus_uconst 32, DW_OP_deref] $rsp
	#DEBUG_VALUE: read_MVD_CABAC:act_sym <- $ebx
	.loc	0 406 14 is_stmt 1              # ldecod_src/cabac.c:406:14
	movl	%ebx, 4(%r13)
	.loc	0 412 1 epilogue_begin          # ldecod_src/cabac.c:412:1
	addq	$88, %rsp
	.cfi_def_cfa_offset 56
	popq	%rbx
.Ltmp457:
	.cfi_def_cfa_offset 48
	popq	%r12
	.cfi_def_cfa_offset 40
	popq	%r13
	.cfi_def_cfa_offset 32
	popq	%r14
.Ltmp458:
	#DEBUG_VALUE: read_MVD_CABAC:dep_dp <- [DW_OP_LLVM_entry_value 1] $rdx
	.cfi_def_cfa_offset 24
	popq	%r15
	.cfi_def_cfa_offset 16
	popq	%rbp
	.cfi_def_cfa_offset 8
	retq
.Ltmp459:
.Lfunc_end11:
	.size	read_MVD_CABAC, .Lfunc_end11-read_MVD_CABAC
	.cfi_endproc
                                        # -- End function
	.globl	readB8_typeInfo_CABAC_p_slice   # -- Begin function readB8_typeInfo_CABAC_p_slice
	.p2align	4, 0x90
	.type	readB8_typeInfo_CABAC_p_slice,@function
readB8_typeInfo_CABAC_p_slice:          # @readB8_typeInfo_CABAC_p_slice
.Lfunc_begin12:
	.loc	0 424 0                         # ldecod_src/cabac.c:424:0
	.cfi_startproc
# %bb.0:                                # %entry
	#DEBUG_VALUE: readB8_typeInfo_CABAC_p_slice:currMB <- $rdi
	#DEBUG_VALUE: readB8_typeInfo_CABAC_p_slice:se <- $rsi
	#DEBUG_VALUE: readB8_typeInfo_CABAC_p_slice:dep_dp <- $rdx
	pushq	%r15
	.cfi_def_cfa_offset 16
	pushq	%r14
	.cfi_def_cfa_offset 24
	pushq	%rbx
	.cfi_def_cfa_offset 32
	.cfi_offset %rbx, -32
	.cfi_offset %r14, -24
	.cfi_offset %r15, -16
	movq	%rdx, %r14
	movq	%rsi, %rbx
.Ltmp460:
	.loc	0 425 30 prologue_end           # ldecod_src/cabac.c:425:30
	movq	(%rdi), %rax
.Ltmp461:
	#DEBUG_VALUE: readB8_typeInfo_CABAC_p_slice:currSlice <- $rax
	#DEBUG_VALUE: readB8_typeInfo_CABAC_p_slice:act_sym <- 0
	.loc	0 428 40                        # ldecod_src/cabac.c:428:40
	movq	320(%rax), %r15
.Ltmp462:
	#DEBUG_VALUE: readB8_typeInfo_CABAC_p_slice:ctx <- $r15
	.loc	0 429 38                        # ldecod_src/cabac.c:429:38
	leaq	136(%r15), %rsi
.Ltmp463:
	#DEBUG_VALUE: readB8_typeInfo_CABAC_p_slice:se <- $rbx
	#DEBUG_VALUE: readB8_typeInfo_CABAC_p_slice:b8_type_contexts <- [DW_OP_plus_uconst 4, DW_OP_stack_value] $rsi
	.loc	0 431 7                         # ldecod_src/cabac.c:431:7
	movq	%rdx, %rdi
.Ltmp464:
	#DEBUG_VALUE: readB8_typeInfo_CABAC_p_slice:currMB <- [DW_OP_LLVM_entry_value 1] $rdi
	callq	biari_decode_symbol@PLT
.Ltmp465:
	#DEBUG_VALUE: readB8_typeInfo_CABAC_p_slice:dep_dp <- $r14
	.loc	0 0 7 is_stmt 0                 # ldecod_src/cabac.c:0:7
	xorl	%ecx, %ecx
	.loc	0 431 7                         # ldecod_src/cabac.c:431:7
	testl	%eax, %eax
.Ltmp466:
	.loc	0 431 7                         # ldecod_src/cabac.c:431:7
	jne	.LBB12_4
.Ltmp467:
# %bb.1:                                # %if.else
	#DEBUG_VALUE: readB8_typeInfo_CABAC_p_slice:currMB <- [DW_OP_LLVM_entry_value 1] $rdi
	#DEBUG_VALUE: readB8_typeInfo_CABAC_p_slice:se <- $rbx
	#DEBUG_VALUE: readB8_typeInfo_CABAC_p_slice:dep_dp <- $r14
	#DEBUG_VALUE: readB8_typeInfo_CABAC_p_slice:act_sym <- 0
	#DEBUG_VALUE: readB8_typeInfo_CABAC_p_slice:ctx <- $r15
	#DEBUG_VALUE: readB8_typeInfo_CABAC_p_slice:b8_type_contexts <- [DW_OP_plus_uconst 140, DW_OP_stack_value] $r15
	.loc	0 435 38 is_stmt 1              # ldecod_src/cabac.c:435:38
	leaq	144(%r15), %rsi
.Ltmp468:
	#DEBUG_VALUE: readB8_typeInfo_CABAC_p_slice:b8_type_contexts <- $rsi
	.loc	0 435 9 is_stmt 0               # ldecod_src/cabac.c:435:9
	movq	%r14, %rdi
	callq	biari_decode_symbol@PLT
.Ltmp469:
	testl	%eax, %eax
.Ltmp470:
	.loc	0 435 9                         # ldecod_src/cabac.c:435:9
	je	.LBB12_2
.Ltmp471:
# %bb.3:                                # %if.then6
	#DEBUG_VALUE: readB8_typeInfo_CABAC_p_slice:currMB <- [DW_OP_LLVM_entry_value 1] $rdi
	#DEBUG_VALUE: readB8_typeInfo_CABAC_p_slice:se <- $rbx
	#DEBUG_VALUE: readB8_typeInfo_CABAC_p_slice:dep_dp <- $r14
	#DEBUG_VALUE: readB8_typeInfo_CABAC_p_slice:act_sym <- 0
	#DEBUG_VALUE: readB8_typeInfo_CABAC_p_slice:ctx <- $r15
	.loc	0 437 40 is_stmt 1              # ldecod_src/cabac.c:437:40
	addq	$148, %r15
.Ltmp472:
	#DEBUG_VALUE: readB8_typeInfo_CABAC_p_slice:b8_type_contexts <- $r15
	.loc	0 437 11 is_stmt 0              # ldecod_src/cabac.c:437:11
	movq	%r14, %rdi
	movq	%r15, %rsi
	callq	biari_decode_symbol@PLT
.Ltmp473:
	.loc	0 0 11                          # ldecod_src/cabac.c:0:11
	xorl	%ecx, %ecx
	cmpl	$1, %eax
	adcl	$2, %ecx
	jmp	.LBB12_4
.Ltmp474:
.LBB12_2:
	#DEBUG_VALUE: readB8_typeInfo_CABAC_p_slice:currMB <- [DW_OP_LLVM_entry_value 1] $rdi
	#DEBUG_VALUE: readB8_typeInfo_CABAC_p_slice:se <- $rbx
	#DEBUG_VALUE: readB8_typeInfo_CABAC_p_slice:dep_dp <- $r14
	#DEBUG_VALUE: readB8_typeInfo_CABAC_p_slice:act_sym <- 0
	#DEBUG_VALUE: readB8_typeInfo_CABAC_p_slice:ctx <- $r15
	movl	$1, %ecx
.Ltmp475:
.LBB12_4:                               # %if.end14
	#DEBUG_VALUE: readB8_typeInfo_CABAC_p_slice:currMB <- [DW_OP_LLVM_entry_value 1] $rdi
	#DEBUG_VALUE: readB8_typeInfo_CABAC_p_slice:se <- $rbx
	#DEBUG_VALUE: readB8_typeInfo_CABAC_p_slice:dep_dp <- $r14
	#DEBUG_VALUE: readB8_typeInfo_CABAC_p_slice:act_sym <- 0
	#DEBUG_VALUE: readB8_typeInfo_CABAC_p_slice:act_sym <- $ecx
	.loc	0 448 14 is_stmt 1              # ldecod_src/cabac.c:448:14
	movl	%ecx, 4(%rbx)
	.loc	0 454 1 epilogue_begin          # ldecod_src/cabac.c:454:1
	popq	%rbx
.Ltmp476:
	#DEBUG_VALUE: readB8_typeInfo_CABAC_p_slice:se <- [DW_OP_LLVM_entry_value 1] $rsi
	.cfi_def_cfa_offset 24
	popq	%r14
.Ltmp477:
	#DEBUG_VALUE: readB8_typeInfo_CABAC_p_slice:dep_dp <- [DW_OP_LLVM_entry_value 1] $rdx
	.cfi_def_cfa_offset 16
	popq	%r15
	.cfi_def_cfa_offset 8
	retq
.Ltmp478:
.Lfunc_end12:
	.size	readB8_typeInfo_CABAC_p_slice, .Lfunc_end12-readB8_typeInfo_CABAC_p_slice
	.cfi_endproc
                                        # -- End function
	.globl	readB8_typeInfo_CABAC_b_slice   # -- Begin function readB8_typeInfo_CABAC_b_slice
	.p2align	4, 0x90
	.type	readB8_typeInfo_CABAC_b_slice,@function
readB8_typeInfo_CABAC_b_slice:          # @readB8_typeInfo_CABAC_b_slice
.Lfunc_begin13:
	.loc	0 466 0                         # ldecod_src/cabac.c:466:0
	.cfi_startproc
# %bb.0:                                # %entry
	#DEBUG_VALUE: readB8_typeInfo_CABAC_b_slice:currMB <- $rdi
	#DEBUG_VALUE: readB8_typeInfo_CABAC_b_slice:se <- $rsi
	#DEBUG_VALUE: readB8_typeInfo_CABAC_b_slice:dep_dp <- $rdx
	pushq	%rbp
	.cfi_def_cfa_offset 16
	pushq	%r15
	.cfi_def_cfa_offset 24
	pushq	%r14
	.cfi_def_cfa_offset 32
	pushq	%r12
	.cfi_def_cfa_offset 40
	pushq	%rbx
	.cfi_def_cfa_offset 48
	.cfi_offset %rbx, -48
	.cfi_offset %r12, -40
	.cfi_offset %r14, -32
	.cfi_offset %r15, -24
	.cfi_offset %rbp, -16
	movq	%rdx, %r14
	movq	%rsi, %rbx
.Ltmp479:
	.loc	0 467 30 prologue_end           # ldecod_src/cabac.c:467:30
	movq	(%rdi), %rax
.Ltmp480:
	#DEBUG_VALUE: readB8_typeInfo_CABAC_b_slice:currSlice <- $rax
	#DEBUG_VALUE: readB8_typeInfo_CABAC_b_slice:act_sym <- 0
	.loc	0 470 40                        # ldecod_src/cabac.c:470:40
	movq	320(%rax), %r15
.Ltmp481:
	#DEBUG_VALUE: readB8_typeInfo_CABAC_b_slice:ctx <- $r15
	.loc	0 471 37                        # ldecod_src/cabac.c:471:37
	leaq	168(%r15), %rsi
.Ltmp482:
	#DEBUG_VALUE: readB8_typeInfo_CABAC_b_slice:se <- $rbx
	#DEBUG_VALUE: readB8_typeInfo_CABAC_b_slice:b8_type_contexts <- [DW_OP_plus_uconst 4, DW_OP_stack_value] $rsi
	.loc	0 473 7                         # ldecod_src/cabac.c:473:7
	movq	%rdx, %rdi
.Ltmp483:
	#DEBUG_VALUE: readB8_typeInfo_CABAC_b_slice:currMB <- [DW_OP_LLVM_entry_value 1] $rdi
	callq	biari_decode_symbol@PLT
.Ltmp484:
	#DEBUG_VALUE: readB8_typeInfo_CABAC_b_slice:dep_dp <- $r14
	testl	%eax, %eax
.Ltmp485:
	.loc	0 473 7 is_stmt 0               # ldecod_src/cabac.c:473:7
	je	.LBB13_1
.Ltmp486:
# %bb.2:                                # %if.then
	#DEBUG_VALUE: readB8_typeInfo_CABAC_b_slice:currMB <- [DW_OP_LLVM_entry_value 1] $rdi
	#DEBUG_VALUE: readB8_typeInfo_CABAC_b_slice:se <- $rbx
	#DEBUG_VALUE: readB8_typeInfo_CABAC_b_slice:dep_dp <- $r14
	#DEBUG_VALUE: readB8_typeInfo_CABAC_b_slice:act_sym <- 0
	#DEBUG_VALUE: readB8_typeInfo_CABAC_b_slice:ctx <- $r15
	.loc	0 473 52                        # ldecod_src/cabac.c:473:52
	leaq	172(%r15), %rsi
.Ltmp487:
	#DEBUG_VALUE: readB8_typeInfo_CABAC_b_slice:b8_type_contexts <- [DW_OP_plus_uconst 176, DW_OP_stack_value] $r15
	.loc	0 475 9 is_stmt 1               # ldecod_src/cabac.c:475:9
	movq	%r14, %rdi
	callq	biari_decode_symbol@PLT
.Ltmp488:
	testl	%eax, %eax
.Ltmp489:
	.loc	0 475 9 is_stmt 0               # ldecod_src/cabac.c:475:9
	je	.LBB13_8
.Ltmp490:
# %bb.3:                                # %if.then5
	#DEBUG_VALUE: readB8_typeInfo_CABAC_b_slice:currMB <- [DW_OP_LLVM_entry_value 1] $rdi
	#DEBUG_VALUE: readB8_typeInfo_CABAC_b_slice:se <- $rbx
	#DEBUG_VALUE: readB8_typeInfo_CABAC_b_slice:dep_dp <- $r14
	#DEBUG_VALUE: readB8_typeInfo_CABAC_b_slice:act_sym <- 0
	#DEBUG_VALUE: readB8_typeInfo_CABAC_b_slice:ctx <- $r15
	#DEBUG_VALUE: readB8_typeInfo_CABAC_b_slice:b8_type_contexts <- [DW_OP_plus_uconst 176, DW_OP_stack_value] $r15
	.loc	0 475 54                        # ldecod_src/cabac.c:475:54
	leaq	176(%r15), %rsi
.Ltmp491:
	#DEBUG_VALUE: readB8_typeInfo_CABAC_b_slice:b8_type_contexts <- $rsi
	.loc	0 477 56 is_stmt 1              # ldecod_src/cabac.c:477:56
	addq	$180, %r15
.Ltmp492:
	#DEBUG_VALUE: readB8_typeInfo_CABAC_b_slice:b8_type_contexts <- $r15
	.loc	0 477 11 is_stmt 0              # ldecod_src/cabac.c:477:11
	movq	%r14, %rdi
	callq	biari_decode_symbol@PLT
.Ltmp493:
	movl	%eax, %r12d
	.loc	0 0 0                           # ldecod_src/cabac.c:0:0
	movq	%r14, %rdi
	movq	%r15, %rsi
	callq	biari_decode_symbol@PLT
.Ltmp494:
	movl	%eax, %ebp
	.loc	0 477 11                        # ldecod_src/cabac.c:477:11
	testl	%r12d, %r12d
.Ltmp495:
	.loc	0 477 11                        # ldecod_src/cabac.c:477:11
	je	.LBB13_7
.Ltmp496:
# %bb.4:                                # %if.then9
	#DEBUG_VALUE: readB8_typeInfo_CABAC_b_slice:currMB <- [DW_OP_LLVM_entry_value 1] $rdi
	#DEBUG_VALUE: readB8_typeInfo_CABAC_b_slice:se <- $rbx
	#DEBUG_VALUE: readB8_typeInfo_CABAC_b_slice:dep_dp <- $r14
	#DEBUG_VALUE: readB8_typeInfo_CABAC_b_slice:act_sym <- 0
	#DEBUG_VALUE: readB8_typeInfo_CABAC_b_slice:b8_type_contexts <- $r15
	.loc	0 0 0                           # ldecod_src/cabac.c:0:0
	movq	%r14, %rdi
	movq	%r15, %rsi
	callq	biari_decode_symbol@PLT
.Ltmp497:
	testl	%ebp, %ebp
.Ltmp498:
	.loc	0 479 13 is_stmt 1              # ldecod_src/cabac.c:479:13
	je	.LBB13_6
.Ltmp499:
# %bb.5:                                # %if.then12
	#DEBUG_VALUE: readB8_typeInfo_CABAC_b_slice:currMB <- [DW_OP_LLVM_entry_value 1] $rdi
	#DEBUG_VALUE: readB8_typeInfo_CABAC_b_slice:se <- $rbx
	#DEBUG_VALUE: readB8_typeInfo_CABAC_b_slice:dep_dp <- $r14
	#DEBUG_VALUE: readB8_typeInfo_CABAC_b_slice:act_sym <- 0
	#DEBUG_VALUE: readB8_typeInfo_CABAC_b_slice:b8_type_contexts <- $r15
	#DEBUG_VALUE: readB8_typeInfo_CABAC_b_slice:act_sym <- 10
	.loc	0 482 15                        # ldecod_src/cabac.c:482:15
	cmpl	$1, %eax
	movl	$11, %ecx
	sbbl	$0, %ecx
	jmp	.LBB13_9
.Ltmp500:
.LBB13_1:
	#DEBUG_VALUE: readB8_typeInfo_CABAC_b_slice:currMB <- [DW_OP_LLVM_entry_value 1] $rdi
	#DEBUG_VALUE: readB8_typeInfo_CABAC_b_slice:se <- $rbx
	#DEBUG_VALUE: readB8_typeInfo_CABAC_b_slice:dep_dp <- $r14
	#DEBUG_VALUE: readB8_typeInfo_CABAC_b_slice:act_sym <- 0
	#DEBUG_VALUE: readB8_typeInfo_CABAC_b_slice:ctx <- $r15
	.loc	0 0 15 is_stmt 0                # ldecod_src/cabac.c:0:15
	xorl	%ecx, %ecx
	.loc	0 473 7 is_stmt 1               # ldecod_src/cabac.c:473:7
	jmp	.LBB13_10
.Ltmp501:
.LBB13_8:                               # %if.else38
	#DEBUG_VALUE: readB8_typeInfo_CABAC_b_slice:currMB <- [DW_OP_LLVM_entry_value 1] $rdi
	#DEBUG_VALUE: readB8_typeInfo_CABAC_b_slice:se <- $rbx
	#DEBUG_VALUE: readB8_typeInfo_CABAC_b_slice:dep_dp <- $r14
	#DEBUG_VALUE: readB8_typeInfo_CABAC_b_slice:act_sym <- 0
	#DEBUG_VALUE: readB8_typeInfo_CABAC_b_slice:ctx <- $r15
	#DEBUG_VALUE: readB8_typeInfo_CABAC_b_slice:b8_type_contexts <- [DW_OP_plus_uconst 176, DW_OP_stack_value] $r15
	.loc	0 505 40                        # ldecod_src/cabac.c:505:40
	addq	$180, %r15
.Ltmp502:
	#DEBUG_VALUE: readB8_typeInfo_CABAC_b_slice:b8_type_contexts <- $r15
	.loc	0 505 11 is_stmt 0              # ldecod_src/cabac.c:505:11
	movq	%r14, %rdi
	movq	%r15, %rsi
	callq	biari_decode_symbol@PLT
.Ltmp503:
	xorl	%ecx, %ecx
	testl	%eax, %eax
	setne	%cl
	jmp	.LBB13_9
.Ltmp504:
.LBB13_7:                               # %if.else26
	#DEBUG_VALUE: readB8_typeInfo_CABAC_b_slice:currMB <- [DW_OP_LLVM_entry_value 1] $rdi
	#DEBUG_VALUE: readB8_typeInfo_CABAC_b_slice:se <- $rbx
	#DEBUG_VALUE: readB8_typeInfo_CABAC_b_slice:dep_dp <- $r14
	#DEBUG_VALUE: readB8_typeInfo_CABAC_b_slice:act_sym <- 0
	#DEBUG_VALUE: readB8_typeInfo_CABAC_b_slice:b8_type_contexts <- $r15
	.loc	0 0 0                           # ldecod_src/cabac.c:0:0
	xorl	%r12d, %r12d
	testl	%ebp, %ebp
	setne	%r12b
.Ltmp505:
	#DEBUG_VALUE: readB8_typeInfo_CABAC_b_slice:act_sym <- 2
	#DEBUG_VALUE: readB8_typeInfo_CABAC_b_slice:act_sym <- undef
	.loc	0 499 13 is_stmt 1              # ldecod_src/cabac.c:499:13
	movq	%r14, %rdi
	movq	%r15, %rsi
	callq	biari_decode_symbol@PLT
.Ltmp506:
	xorl	%ecx, %ecx
	testl	%eax, %eax
	setne	%cl
.Ltmp507:
	.loc	0 499 13 is_stmt 0              # ldecod_src/cabac.c:499:13
	leal	(%rcx,%r12,2), %ecx
	addl	$2, %ecx
	jmp	.LBB13_9
.Ltmp508:
.LBB13_6:                               # %if.else
	#DEBUG_VALUE: readB8_typeInfo_CABAC_b_slice:currMB <- [DW_OP_LLVM_entry_value 1] $rdi
	#DEBUG_VALUE: readB8_typeInfo_CABAC_b_slice:se <- $rbx
	#DEBUG_VALUE: readB8_typeInfo_CABAC_b_slice:dep_dp <- $r14
	#DEBUG_VALUE: readB8_typeInfo_CABAC_b_slice:act_sym <- 0
	#DEBUG_VALUE: readB8_typeInfo_CABAC_b_slice:b8_type_contexts <- $r15
	.loc	0 0 0                           # ldecod_src/cabac.c:0:0
	xorl	%r12d, %r12d
	testl	%eax, %eax
	setne	%r12b
.Ltmp509:
	#DEBUG_VALUE: readB8_typeInfo_CABAC_b_slice:act_sym <- 6
	#DEBUG_VALUE: readB8_typeInfo_CABAC_b_slice:act_sym <- undef
	.loc	0 490 15 is_stmt 1              # ldecod_src/cabac.c:490:15
	movq	%r14, %rdi
	movq	%r15, %rsi
	callq	biari_decode_symbol@PLT
.Ltmp510:
	xorl	%ecx, %ecx
	testl	%eax, %eax
	setne	%cl
.Ltmp511:
	.loc	0 490 15 is_stmt 0              # ldecod_src/cabac.c:490:15
	leal	(%rcx,%r12,2), %ecx
	addl	$6, %ecx
.Ltmp512:
.LBB13_9:                               # %if.end45
	#DEBUG_VALUE: readB8_typeInfo_CABAC_b_slice:currMB <- [DW_OP_LLVM_entry_value 1] $rdi
	#DEBUG_VALUE: readB8_typeInfo_CABAC_b_slice:se <- $rbx
	#DEBUG_VALUE: readB8_typeInfo_CABAC_b_slice:dep_dp <- $r14
	#DEBUG_VALUE: readB8_typeInfo_CABAC_b_slice:b8_type_contexts <- $r15
	#DEBUG_VALUE: readB8_typeInfo_CABAC_b_slice:act_sym <- $ecx
	.loc	0 510 5 is_stmt 1               # ldecod_src/cabac.c:510:5
	incl	%ecx
.Ltmp513:
	#DEBUG_VALUE: readB8_typeInfo_CABAC_b_slice:act_sym <- $ecx
.LBB13_10:                              # %if.end48
	#DEBUG_VALUE: readB8_typeInfo_CABAC_b_slice:currMB <- [DW_OP_LLVM_entry_value 1] $rdi
	#DEBUG_VALUE: readB8_typeInfo_CABAC_b_slice:se <- $rbx
	#DEBUG_VALUE: readB8_typeInfo_CABAC_b_slice:dep_dp <- $r14
	#DEBUG_VALUE: readB8_typeInfo_CABAC_b_slice:act_sym <- $ecx
	.loc	0 517 14                        # ldecod_src/cabac.c:517:14
	movl	%ecx, 4(%rbx)
	.loc	0 523 1 epilogue_begin          # ldecod_src/cabac.c:523:1
	popq	%rbx
.Ltmp514:
	#DEBUG_VALUE: readB8_typeInfo_CABAC_b_slice:se <- [DW_OP_LLVM_entry_value 1] $rsi
	.cfi_def_cfa_offset 40
	popq	%r12
	.cfi_def_cfa_offset 32
	popq	%r14
.Ltmp515:
	#DEBUG_VALUE: readB8_typeInfo_CABAC_b_slice:dep_dp <- [DW_OP_LLVM_entry_value 1] $rdx
	.cfi_def_cfa_offset 24
	popq	%r15
	.cfi_def_cfa_offset 16
	popq	%rbp
	.cfi_def_cfa_offset 8
	retq
.Ltmp516:
.Lfunc_end13:
	.size	readB8_typeInfo_CABAC_b_slice, .Lfunc_end13-readB8_typeInfo_CABAC_b_slice
	.cfi_endproc
                                        # -- End function
	.globl	readMB_transform_size_flag_CABAC # -- Begin function readMB_transform_size_flag_CABAC
	.p2align	4, 0x90
	.type	readMB_transform_size_flag_CABAC,@function
readMB_transform_size_flag_CABAC:       # @readMB_transform_size_flag_CABAC
.Lfunc_begin14:
	.loc	0 600 0                         # ldecod_src/cabac.c:600:0
	.cfi_startproc
# %bb.0:                                # %entry
	#DEBUG_VALUE: readMB_transform_size_flag_CABAC:currMB <- $rdi
	#DEBUG_VALUE: readMB_transform_size_flag_CABAC:se <- $rsi
	#DEBUG_VALUE: readMB_transform_size_flag_CABAC:dep_dp <- $rdx
	pushq	%rbx
	.cfi_def_cfa_offset 16
	.cfi_offset %rbx, -16
	movq	%rsi, %rbx
.Ltmp517:
	.loc	0 601 30 prologue_end           # ldecod_src/cabac.c:601:30
	movq	(%rdi), %rsi
.Ltmp518:
	#DEBUG_VALUE: readMB_transform_size_flag_CABAC:se <- $rbx
	#DEBUG_VALUE: readMB_transform_size_flag_CABAC:currSlice <- $rsi
	.loc	0 604 20                        # ldecod_src/cabac.c:604:20
	movq	120(%rdi), %r8
.Ltmp519:
	#DEBUG_VALUE: readMB_transform_size_flag_CABAC:ctx <- undef
	.loc	0 0 20 is_stmt 0                # ldecod_src/cabac.c:0:20
	xorl	%eax, %eax
	movl	$0, %ecx
	.loc	0 604 28                        # ldecod_src/cabac.c:604:28
	testq	%r8, %r8
	.loc	0 604 11                        # ldecod_src/cabac.c:604:11
	je	.LBB14_2
.Ltmp520:
# %bb.1:                                # %cond.false
	#DEBUG_VALUE: readMB_transform_size_flag_CABAC:currMB <- $rdi
	#DEBUG_VALUE: readMB_transform_size_flag_CABAC:se <- $rbx
	#DEBUG_VALUE: readMB_transform_size_flag_CABAC:dep_dp <- $rdx
	#DEBUG_VALUE: readMB_transform_size_flag_CABAC:currSlice <- $rsi
	.loc	0 604 58                        # ldecod_src/cabac.c:604:58
	movl	420(%r8), %ecx
.Ltmp521:
.LBB14_2:                               # %cond.end
	#DEBUG_VALUE: readMB_transform_size_flag_CABAC:currMB <- $rdi
	#DEBUG_VALUE: readMB_transform_size_flag_CABAC:se <- $rbx
	#DEBUG_VALUE: readMB_transform_size_flag_CABAC:dep_dp <- $rdx
	#DEBUG_VALUE: readMB_transform_size_flag_CABAC:currSlice <- $rsi
	.loc	0 0 0                           # ldecod_src/cabac.c:0:0
	movq	328(%rsi), %rsi
.Ltmp522:
	#DEBUG_VALUE: readMB_transform_size_flag_CABAC:ctx <- $rsi
	#DEBUG_VALUE: readMB_transform_size_flag_CABAC:b <- $ecx
	.loc	0 605 20 is_stmt 1              # ldecod_src/cabac.c:605:20
	movq	128(%rdi), %rdi
.Ltmp523:
	#DEBUG_VALUE: readMB_transform_size_flag_CABAC:currMB <- [DW_OP_LLVM_entry_value 1] $rdi
	.loc	0 605 28 is_stmt 0              # ldecod_src/cabac.c:605:28
	testq	%rdi, %rdi
	.loc	0 605 11                        # ldecod_src/cabac.c:605:11
	je	.LBB14_4
.Ltmp524:
# %bb.3:                                # %cond.false4
	#DEBUG_VALUE: readMB_transform_size_flag_CABAC:currMB <- [DW_OP_LLVM_entry_value 1] $rdi
	#DEBUG_VALUE: readMB_transform_size_flag_CABAC:se <- $rbx
	#DEBUG_VALUE: readMB_transform_size_flag_CABAC:dep_dp <- $rdx
	#DEBUG_VALUE: readMB_transform_size_flag_CABAC:ctx <- $rsi
	#DEBUG_VALUE: readMB_transform_size_flag_CABAC:b <- $ecx
	.loc	0 605 60                        # ldecod_src/cabac.c:605:60
	movl	420(%rdi), %eax
.Ltmp525:
.LBB14_4:                               # %cond.end7
	#DEBUG_VALUE: readMB_transform_size_flag_CABAC:currMB <- [DW_OP_LLVM_entry_value 1] $rdi
	#DEBUG_VALUE: readMB_transform_size_flag_CABAC:se <- $rbx
	#DEBUG_VALUE: readMB_transform_size_flag_CABAC:dep_dp <- $rdx
	#DEBUG_VALUE: readMB_transform_size_flag_CABAC:ctx <- $rsi
	#DEBUG_VALUE: readMB_transform_size_flag_CABAC:b <- $ecx
	#DEBUG_VALUE: readMB_transform_size_flag_CABAC:a <- $eax
	.loc	0 607 19 is_stmt 1              # ldecod_src/cabac.c:607:19
	addl	%ecx, %eax
.Ltmp526:
	#DEBUG_VALUE: readMB_transform_size_flag_CABAC:act_ctx <- $eax
	.loc	0 608 74                        # ldecod_src/cabac.c:608:74
	cltq
.Ltmp527:
	leaq	(%rsi,%rax,4), %rsi
.Ltmp528:
	.loc	0 608 17 is_stmt 0              # ldecod_src/cabac.c:608:17
	movq	%rdx, %rdi
	callq	biari_decode_symbol@PLT
.Ltmp529:
	#DEBUG_VALUE: readMB_transform_size_flag_CABAC:dep_dp <- [DW_OP_LLVM_entry_value 1] $rdx
	#DEBUG_VALUE: readMB_transform_size_flag_CABAC:act_sym <- $eax
	.loc	0 610 14 is_stmt 1              # ldecod_src/cabac.c:610:14
	movl	%eax, 4(%rbx)
	.loc	0 617 1 epilogue_begin          # ldecod_src/cabac.c:617:1
	popq	%rbx
.Ltmp530:
	#DEBUG_VALUE: readMB_transform_size_flag_CABAC:se <- [DW_OP_LLVM_entry_value 1] $rsi
	.cfi_def_cfa_offset 8
	retq
.Ltmp531:
.Lfunc_end14:
	.size	readMB_transform_size_flag_CABAC, .Lfunc_end14-readMB_transform_size_flag_CABAC
	.cfi_endproc
                                        # -- End function
	.globl	readMB_typeInfo_CABAC_i_slice   # -- Begin function readMB_typeInfo_CABAC_i_slice
	.p2align	4, 0x90
	.type	readMB_typeInfo_CABAC_i_slice,@function
readMB_typeInfo_CABAC_i_slice:          # @readMB_typeInfo_CABAC_i_slice
.Lfunc_begin15:
	.loc	0 629 0                         # ldecod_src/cabac.c:629:0
	.cfi_startproc
# %bb.0:                                # %entry
	#DEBUG_VALUE: readMB_typeInfo_CABAC_i_slice:currMB <- $rdi
	#DEBUG_VALUE: readMB_typeInfo_CABAC_i_slice:se <- $rsi
	#DEBUG_VALUE: readMB_typeInfo_CABAC_i_slice:dep_dp <- $rdx
	pushq	%rbp
	.cfi_def_cfa_offset 16
	pushq	%r15
	.cfi_def_cfa_offset 24
	pushq	%r14
	.cfi_def_cfa_offset 32
	pushq	%r13
	.cfi_def_cfa_offset 40
	pushq	%r12
	.cfi_def_cfa_offset 48
	pushq	%rbx
	.cfi_def_cfa_offset 56
	pushq	%rax
	.cfi_def_cfa_offset 64
	.cfi_offset %rbx, -56
	.cfi_offset %r12, -48
	.cfi_offset %r13, -40
	.cfi_offset %r14, -32
	.cfi_offset %r15, -24
	.cfi_offset %rbp, -16
	movq	%rdx, %r14
	movq	%rsi, %rbx
.Ltmp532:
	.loc	0 630 30 prologue_end           # ldecod_src/cabac.c:630:30
	movq	(%rdi), %rax
.Ltmp533:
	#DEBUG_VALUE: readMB_typeInfo_CABAC_i_slice:currSlice <- $rax
	.loc	0 631 40                        # ldecod_src/cabac.c:631:40
	movq	320(%rax), %r15
.Ltmp534:
	#DEBUG_VALUE: readMB_typeInfo_CABAC_i_slice:ctx <- $r15
	#DEBUG_VALUE: readMB_typeInfo_CABAC_i_slice:a <- 0
	#DEBUG_VALUE: readMB_typeInfo_CABAC_i_slice:b <- 0
	#DEBUG_VALUE: readMB_typeInfo_CABAC_i_slice:curr_mb_type <- 0
	.loc	0 639 17                        # ldecod_src/cabac.c:639:17
	movl	164(%rax), %eax
.Ltmp535:
	.loc	0 639 6 is_stmt 0               # ldecod_src/cabac.c:639:6
	cmpl	$4, %eax
	je	.LBB15_10
.Ltmp536:
# %bb.1:                                # %entry
	#DEBUG_VALUE: readMB_typeInfo_CABAC_i_slice:currMB <- $rdi
	#DEBUG_VALUE: readMB_typeInfo_CABAC_i_slice:se <- $rbx
	#DEBUG_VALUE: readMB_typeInfo_CABAC_i_slice:dep_dp <- $r14
	#DEBUG_VALUE: readMB_typeInfo_CABAC_i_slice:ctx <- $r15
	#DEBUG_VALUE: readMB_typeInfo_CABAC_i_slice:a <- 0
	#DEBUG_VALUE: readMB_typeInfo_CABAC_i_slice:b <- 0
	#DEBUG_VALUE: readMB_typeInfo_CABAC_i_slice:curr_mb_type <- 0
	cmpl	$2, %eax
	jne	.LBB15_23
.Ltmp537:
# %bb.2:                                # %if.then
	#DEBUG_VALUE: readMB_typeInfo_CABAC_i_slice:currMB <- $rdi
	#DEBUG_VALUE: readMB_typeInfo_CABAC_i_slice:se <- $rbx
	#DEBUG_VALUE: readMB_typeInfo_CABAC_i_slice:dep_dp <- $r14
	#DEBUG_VALUE: readMB_typeInfo_CABAC_i_slice:ctx <- $r15
	#DEBUG_VALUE: readMB_typeInfo_CABAC_i_slice:a <- 0
	#DEBUG_VALUE: readMB_typeInfo_CABAC_i_slice:b <- 0
	#DEBUG_VALUE: readMB_typeInfo_CABAC_i_slice:curr_mb_type <- 0
	.loc	0 641 17 is_stmt 1              # ldecod_src/cabac.c:641:17
	movq	120(%rdi), %rcx
	xorl	%r12d, %r12d
	movl	$0, %eax
	.loc	0 641 23 is_stmt 0              # ldecod_src/cabac.c:641:23
	testq	%rcx, %rcx
.Ltmp538:
	.loc	0 641 9                         # ldecod_src/cabac.c:641:9
	je	.LBB15_4
.Ltmp539:
# %bb.3:                                # %if.then2
	#DEBUG_VALUE: readMB_typeInfo_CABAC_i_slice:currMB <- $rdi
	#DEBUG_VALUE: readMB_typeInfo_CABAC_i_slice:se <- $rbx
	#DEBUG_VALUE: readMB_typeInfo_CABAC_i_slice:dep_dp <- $r14
	#DEBUG_VALUE: readMB_typeInfo_CABAC_i_slice:ctx <- $r15
	#DEBUG_VALUE: readMB_typeInfo_CABAC_i_slice:a <- 0
	#DEBUG_VALUE: readMB_typeInfo_CABAC_i_slice:b <- 0
	#DEBUG_VALUE: readMB_typeInfo_CABAC_i_slice:curr_mb_type <- 0
	.loc	0 642 30 is_stmt 1              # ldecod_src/cabac.c:642:30
	movzwl	152(%rcx), %ecx
	.loc	0 642 46 is_stmt 0              # ldecod_src/cabac.c:642:46
	andl	$-5, %ecx
	xorl	%eax, %eax
	cmpw	$9, %cx
	setne	%al
.Ltmp540:
	#DEBUG_VALUE: readMB_typeInfo_CABAC_i_slice:b <- undef
.LBB15_4:                               # %if.end
	#DEBUG_VALUE: readMB_typeInfo_CABAC_i_slice:currMB <- $rdi
	#DEBUG_VALUE: readMB_typeInfo_CABAC_i_slice:se <- $rbx
	#DEBUG_VALUE: readMB_typeInfo_CABAC_i_slice:dep_dp <- $r14
	#DEBUG_VALUE: readMB_typeInfo_CABAC_i_slice:ctx <- $r15
	#DEBUG_VALUE: readMB_typeInfo_CABAC_i_slice:a <- 0
	#DEBUG_VALUE: readMB_typeInfo_CABAC_i_slice:curr_mb_type <- 0
	#DEBUG_VALUE: readMB_typeInfo_CABAC_i_slice:b <- $eax
	.loc	0 644 17 is_stmt 1              # ldecod_src/cabac.c:644:17
	movq	128(%rdi), %rcx
	.loc	0 644 25 is_stmt 0              # ldecod_src/cabac.c:644:25
	testq	%rcx, %rcx
.Ltmp541:
	.loc	0 644 9                         # ldecod_src/cabac.c:644:9
	je	.LBB15_6
.Ltmp542:
# %bb.5:                                # %if.then13
	#DEBUG_VALUE: readMB_typeInfo_CABAC_i_slice:currMB <- $rdi
	#DEBUG_VALUE: readMB_typeInfo_CABAC_i_slice:se <- $rbx
	#DEBUG_VALUE: readMB_typeInfo_CABAC_i_slice:dep_dp <- $r14
	#DEBUG_VALUE: readMB_typeInfo_CABAC_i_slice:ctx <- $r15
	#DEBUG_VALUE: readMB_typeInfo_CABAC_i_slice:a <- 0
	#DEBUG_VALUE: readMB_typeInfo_CABAC_i_slice:b <- $eax
	#DEBUG_VALUE: readMB_typeInfo_CABAC_i_slice:curr_mb_type <- 0
	.loc	0 645 32 is_stmt 1              # ldecod_src/cabac.c:645:32
	movzwl	152(%rcx), %ecx
	.loc	0 645 48 is_stmt 0              # ldecod_src/cabac.c:645:48
	andl	$-5, %ecx
	xorl	%r12d, %r12d
	cmpw	$9, %cx
	setne	%r12b
.Ltmp543:
	#DEBUG_VALUE: readMB_typeInfo_CABAC_i_slice:a <- undef
.LBB15_6:                               # %if.end27
	#DEBUG_VALUE: readMB_typeInfo_CABAC_i_slice:currMB <- $rdi
	#DEBUG_VALUE: readMB_typeInfo_CABAC_i_slice:se <- $rbx
	#DEBUG_VALUE: readMB_typeInfo_CABAC_i_slice:dep_dp <- $r14
	#DEBUG_VALUE: readMB_typeInfo_CABAC_i_slice:ctx <- $r15
	#DEBUG_VALUE: readMB_typeInfo_CABAC_i_slice:b <- $eax
	#DEBUG_VALUE: readMB_typeInfo_CABAC_i_slice:curr_mb_type <- 0
	#DEBUG_VALUE: readMB_typeInfo_CABAC_i_slice:a <- $r12d
	.loc	0 647 17 is_stmt 1              # ldecod_src/cabac.c:647:17
	addl	%eax, %r12d
.Ltmp544:
	#DEBUG_VALUE: readMB_typeInfo_CABAC_i_slice:act_ctx <- $r12d
	.loc	0 648 68                        # ldecod_src/cabac.c:648:68
	leaq	(%r15,%r12,4), %rsi
	.loc	0 648 15 is_stmt 0              # ldecod_src/cabac.c:648:15
	movq	%r14, %rdi
.Ltmp545:
	#DEBUG_VALUE: readMB_typeInfo_CABAC_i_slice:currMB <- [DW_OP_LLVM_entry_value 1] $rdi
	callq	biari_decode_symbol@PLT
.Ltmp546:
	#DEBUG_VALUE: readMB_typeInfo_CABAC_i_slice:act_sym <- $eax
	.loc	0 649 17 is_stmt 1              # ldecod_src/cabac.c:649:17
	movl	%r12d, 24(%rbx)
.Ltmp547:
	.loc	0 651 16                        # ldecod_src/cabac.c:651:16
	testl	%eax, %eax
.Ltmp548:
	.loc	0 651 9 is_stmt 0               # ldecod_src/cabac.c:651:9
	je	.LBB15_23
.Ltmp549:
# %bb.7:                                # %if.else
	#DEBUG_VALUE: readMB_typeInfo_CABAC_i_slice:currMB <- [DW_OP_LLVM_entry_value 1] $rdi
	#DEBUG_VALUE: readMB_typeInfo_CABAC_i_slice:se <- $rbx
	#DEBUG_VALUE: readMB_typeInfo_CABAC_i_slice:dep_dp <- $r14
	#DEBUG_VALUE: readMB_typeInfo_CABAC_i_slice:ctx <- $r15
	#DEBUG_VALUE: readMB_typeInfo_CABAC_i_slice:curr_mb_type <- 0
	#DEBUG_VALUE: readMB_typeInfo_CABAC_i_slice:act_ctx <- $r12d
	#DEBUG_VALUE: readMB_typeInfo_CABAC_i_slice:act_sym <- $eax
	.loc	0 657 18 is_stmt 1              # ldecod_src/cabac.c:657:18
	movq	%r14, %rdi
	callq	biari_decode_final@PLT
.Ltmp550:
	movl	%eax, %ecx
.Ltmp551:
	#DEBUG_VALUE: readMB_typeInfo_CABAC_i_slice:mode_sym <- $eax
	.loc	0 0 18 is_stmt 0                # ldecod_src/cabac.c:0:18
	movl	$25, %eax
.Ltmp552:
	#DEBUG_VALUE: readMB_typeInfo_CABAC_i_slice:mode_sym <- $ecx
	.loc	0 658 19 is_stmt 1              # ldecod_src/cabac.c:658:19
	cmpl	$1, %ecx
.Ltmp553:
	.loc	0 658 10 is_stmt 0              # ldecod_src/cabac.c:658:10
	je	.LBB15_30
.Ltmp554:
# %bb.8:                                # %if.else35
	#DEBUG_VALUE: readMB_typeInfo_CABAC_i_slice:currMB <- [DW_OP_LLVM_entry_value 1] $rdi
	#DEBUG_VALUE: readMB_typeInfo_CABAC_i_slice:se <- $rbx
	#DEBUG_VALUE: readMB_typeInfo_CABAC_i_slice:dep_dp <- $r14
	#DEBUG_VALUE: readMB_typeInfo_CABAC_i_slice:ctx <- $r15
	#DEBUG_VALUE: readMB_typeInfo_CABAC_i_slice:curr_mb_type <- 0
	#DEBUG_VALUE: readMB_typeInfo_CABAC_i_slice:act_ctx <- $r12d
	#DEBUG_VALUE: readMB_typeInfo_CABAC_i_slice:mode_sym <- $ecx
	#DEBUG_VALUE: readMB_typeInfo_CABAC_i_slice:act_sym <- 1
	#DEBUG_VALUE: readMB_typeInfo_CABAC_i_slice:act_ctx <- 4
	.loc	0 0 10                          # ldecod_src/cabac.c:0:10
	movq	%rbx, (%rsp)                    # 8-byte Spill
.Ltmp555:
	#DEBUG_VALUE: readMB_typeInfo_CABAC_i_slice:se <- [$rsp+0]
	.loc	0 666 74 is_stmt 1              # ldecod_src/cabac.c:666:74
	leaq	16(%r15), %rsi
	.loc	0 666 21 is_stmt 0              # ldecod_src/cabac.c:666:21
	movq	%r14, %rdi
	callq	biari_decode_symbol@PLT
.Ltmp556:
	movl	%eax, %r12d
.Ltmp557:
	#DEBUG_VALUE: readMB_typeInfo_CABAC_i_slice:mode_sym <- $r12d
	.loc	0 667 28 is_stmt 1              # ldecod_src/cabac.c:667:28
	shll	$2, %r12d
.Ltmp558:
	#DEBUG_VALUE: readMB_typeInfo_CABAC_i_slice:mode_sym <- $eax
	#DEBUG_VALUE: readMB_typeInfo_CABAC_i_slice:act_sym <- undef
	#DEBUG_VALUE: readMB_typeInfo_CABAC_i_slice:act_ctx <- 5
	.loc	0 670 74                        # ldecod_src/cabac.c:670:74
	leaq	20(%r15), %rsi
	.loc	0 670 21 is_stmt 0              # ldecod_src/cabac.c:670:21
	movq	%r14, %rdi
	callq	biari_decode_symbol@PLT
.Ltmp559:
	#DEBUG_VALUE: readMB_typeInfo_CABAC_i_slice:mode_sym <- $eax
	.loc	0 671 21 is_stmt 1              # ldecod_src/cabac.c:671:21
	testl	%eax, %eax
.Ltmp560:
	.loc	0 671 13 is_stmt 0              # ldecod_src/cabac.c:671:13
	je	.LBB15_27
.Ltmp561:
# %bb.9:                                # %if.then51
	#DEBUG_VALUE: readMB_typeInfo_CABAC_i_slice:currMB <- [DW_OP_LLVM_entry_value 1] $rdi
	#DEBUG_VALUE: readMB_typeInfo_CABAC_i_slice:se <- [$rsp+0]
	#DEBUG_VALUE: readMB_typeInfo_CABAC_i_slice:dep_dp <- $r14
	#DEBUG_VALUE: readMB_typeInfo_CABAC_i_slice:ctx <- $r15
	#DEBUG_VALUE: readMB_typeInfo_CABAC_i_slice:curr_mb_type <- 0
	#DEBUG_VALUE: readMB_typeInfo_CABAC_i_slice:act_ctx <- 5
	#DEBUG_VALUE: readMB_typeInfo_CABAC_i_slice:mode_sym <- $eax
	.loc	0 0 0                           # ldecod_src/cabac.c:0:0
	leal	(%r12,%r12,2), %r12d
.Ltmp562:
	#DEBUG_VALUE: readMB_typeInfo_CABAC_i_slice:act_ctx <- 6
	.loc	0 674 75 is_stmt 1              # ldecod_src/cabac.c:674:75
	leaq	24(%r15), %rsi
	.loc	0 674 22 is_stmt 0              # ldecod_src/cabac.c:674:22
	movq	%r14, %rdi
	callq	biari_decode_symbol@PLT
.Ltmp563:
	#DEBUG_VALUE: readMB_typeInfo_CABAC_i_slice:mode_sym <- $eax
	#DEBUG_VALUE: readMB_typeInfo_CABAC_i_slice:act_sym <- [DW_OP_plus_uconst 5, DW_OP_stack_value] $r12d
	.loc	0 676 23 is_stmt 1              # ldecod_src/cabac.c:676:23
	xorl	%ecx, %ecx
	testl	%eax, %eax
	setne	%cl
.Ltmp564:
	.loc	0 676 15 is_stmt 0              # ldecod_src/cabac.c:676:15
	leal	(%r12,%rcx,4), %r12d
.Ltmp565:
	addl	$5, %r12d
	jmp	.LBB15_29
.Ltmp566:
.LBB15_10:                              # %if.then86
	#DEBUG_VALUE: readMB_typeInfo_CABAC_i_slice:currMB <- $rdi
	#DEBUG_VALUE: readMB_typeInfo_CABAC_i_slice:se <- $rbx
	#DEBUG_VALUE: readMB_typeInfo_CABAC_i_slice:dep_dp <- $r14
	#DEBUG_VALUE: readMB_typeInfo_CABAC_i_slice:ctx <- $r15
	#DEBUG_VALUE: readMB_typeInfo_CABAC_i_slice:a <- 0
	#DEBUG_VALUE: readMB_typeInfo_CABAC_i_slice:b <- 0
	#DEBUG_VALUE: readMB_typeInfo_CABAC_i_slice:curr_mb_type <- 0
	.loc	0 693 17 is_stmt 1              # ldecod_src/cabac.c:693:17
	movq	120(%rdi), %rax
	xorl	%r12d, %r12d
	movl	$0, %r13d
	.loc	0 693 23 is_stmt 0              # ldecod_src/cabac.c:693:23
	testq	%rax, %rax
.Ltmp567:
	.loc	0 693 9                         # ldecod_src/cabac.c:693:9
	je	.LBB15_12
.Ltmp568:
# %bb.11:                               # %if.then90
	#DEBUG_VALUE: readMB_typeInfo_CABAC_i_slice:currMB <- $rdi
	#DEBUG_VALUE: readMB_typeInfo_CABAC_i_slice:se <- $rbx
	#DEBUG_VALUE: readMB_typeInfo_CABAC_i_slice:dep_dp <- $r14
	#DEBUG_VALUE: readMB_typeInfo_CABAC_i_slice:ctx <- $r15
	#DEBUG_VALUE: readMB_typeInfo_CABAC_i_slice:a <- 0
	#DEBUG_VALUE: readMB_typeInfo_CABAC_i_slice:b <- 0
	#DEBUG_VALUE: readMB_typeInfo_CABAC_i_slice:curr_mb_type <- 0
	.loc	0 694 39 is_stmt 1              # ldecod_src/cabac.c:694:39
	xorl	%r13d, %r13d
	cmpw	$12, 152(%rax)
	setne	%r13b
.Ltmp569:
	#DEBUG_VALUE: readMB_typeInfo_CABAC_i_slice:b <- undef
.LBB15_12:                              # %if.end97
	#DEBUG_VALUE: readMB_typeInfo_CABAC_i_slice:currMB <- $rdi
	#DEBUG_VALUE: readMB_typeInfo_CABAC_i_slice:se <- $rbx
	#DEBUG_VALUE: readMB_typeInfo_CABAC_i_slice:dep_dp <- $r14
	#DEBUG_VALUE: readMB_typeInfo_CABAC_i_slice:ctx <- $r15
	#DEBUG_VALUE: readMB_typeInfo_CABAC_i_slice:a <- 0
	#DEBUG_VALUE: readMB_typeInfo_CABAC_i_slice:curr_mb_type <- 0
	#DEBUG_VALUE: readMB_typeInfo_CABAC_i_slice:b <- $r13d
	.loc	0 0 39 is_stmt 0                # ldecod_src/cabac.c:0:39
	movq	%rbx, (%rsp)                    # 8-byte Spill
.Ltmp570:
	#DEBUG_VALUE: readMB_typeInfo_CABAC_i_slice:se <- [$rsp+0]
	movq	%rdi, %rbp
.Ltmp571:
	.loc	0 696 17 is_stmt 1              # ldecod_src/cabac.c:696:17
	movq	128(%rdi), %rax
	.loc	0 696 25 is_stmt 0              # ldecod_src/cabac.c:696:25
	testq	%rax, %rax
.Ltmp572:
	.loc	0 696 9                         # ldecod_src/cabac.c:696:9
	je	.LBB15_14
.Ltmp573:
# %bb.13:                               # %if.then101
	#DEBUG_VALUE: readMB_typeInfo_CABAC_i_slice:currMB <- $rbp
	#DEBUG_VALUE: readMB_typeInfo_CABAC_i_slice:se <- [$rsp+0]
	#DEBUG_VALUE: readMB_typeInfo_CABAC_i_slice:dep_dp <- $r14
	#DEBUG_VALUE: readMB_typeInfo_CABAC_i_slice:ctx <- $r15
	#DEBUG_VALUE: readMB_typeInfo_CABAC_i_slice:a <- 0
	#DEBUG_VALUE: readMB_typeInfo_CABAC_i_slice:b <- $r13d
	#DEBUG_VALUE: readMB_typeInfo_CABAC_i_slice:curr_mb_type <- 0
	.loc	0 697 41 is_stmt 1              # ldecod_src/cabac.c:697:41
	xorl	%r12d, %r12d
	cmpw	$12, 152(%rax)
	setne	%r12b
.Ltmp574:
	#DEBUG_VALUE: readMB_typeInfo_CABAC_i_slice:a <- undef
.LBB15_14:                              # %if.end108
	#DEBUG_VALUE: readMB_typeInfo_CABAC_i_slice:currMB <- $rbp
	#DEBUG_VALUE: readMB_typeInfo_CABAC_i_slice:se <- [$rsp+0]
	#DEBUG_VALUE: readMB_typeInfo_CABAC_i_slice:dep_dp <- $r14
	#DEBUG_VALUE: readMB_typeInfo_CABAC_i_slice:ctx <- $r15
	#DEBUG_VALUE: readMB_typeInfo_CABAC_i_slice:b <- $r13d
	#DEBUG_VALUE: readMB_typeInfo_CABAC_i_slice:curr_mb_type <- 0
	#DEBUG_VALUE: readMB_typeInfo_CABAC_i_slice:a <- $r12d
	.loc	0 699 17                        # ldecod_src/cabac.c:699:17
	leal	(%r12,%r13), %ebx
.Ltmp575:
	#DEBUG_VALUE: readMB_typeInfo_CABAC_i_slice:act_ctx <- $ebx
	.loc	0 700 68                        # ldecod_src/cabac.c:700:68
	leaq	(%r15,%rbx,4), %rsi
	addq	$44, %rsi
	.loc	0 700 15 is_stmt 0              # ldecod_src/cabac.c:700:15
	movq	%r14, %rdi
	callq	biari_decode_symbol@PLT
.Ltmp576:
	#DEBUG_VALUE: readMB_typeInfo_CABAC_i_slice:act_sym <- $eax
	.loc	0 0 15                          # ldecod_src/cabac.c:0:15
	movq	(%rsp), %rcx                    # 8-byte Reload
	.loc	0 701 17 is_stmt 1              # ldecod_src/cabac.c:701:17
	movl	%ebx, 24(%rcx)
	movq	%rcx, %rbx
.Ltmp577:
	.loc	0 703 16                        # ldecod_src/cabac.c:703:16
	testl	%eax, %eax
.Ltmp578:
	.loc	0 703 9 is_stmt 0               # ldecod_src/cabac.c:703:9
	je	.LBB15_23
.Ltmp579:
# %bb.15:                               # %if.else120
	#DEBUG_VALUE: readMB_typeInfo_CABAC_i_slice:currMB <- $rbp
	#DEBUG_VALUE: readMB_typeInfo_CABAC_i_slice:se <- [$rsp+0]
	#DEBUG_VALUE: readMB_typeInfo_CABAC_i_slice:dep_dp <- $r14
	#DEBUG_VALUE: readMB_typeInfo_CABAC_i_slice:ctx <- $r15
	#DEBUG_VALUE: readMB_typeInfo_CABAC_i_slice:a <- $r12d
	#DEBUG_VALUE: readMB_typeInfo_CABAC_i_slice:b <- $r13d
	#DEBUG_VALUE: readMB_typeInfo_CABAC_i_slice:curr_mb_type <- 0
	#DEBUG_VALUE: readMB_typeInfo_CABAC_i_slice:act_sym <- $eax
	.loc	0 709 19 is_stmt 1              # ldecod_src/cabac.c:709:19
	movq	120(%rbp), %rax
.Ltmp580:
	.loc	0 709 25 is_stmt 0              # ldecod_src/cabac.c:709:25
	testq	%rax, %rax
.Ltmp581:
	.loc	0 709 11                        # ldecod_src/cabac.c:709:11
	je	.LBB15_17
.Ltmp582:
# %bb.16:                               # %if.then124
	#DEBUG_VALUE: readMB_typeInfo_CABAC_i_slice:currMB <- $rbp
	#DEBUG_VALUE: readMB_typeInfo_CABAC_i_slice:se <- [$rsp+0]
	#DEBUG_VALUE: readMB_typeInfo_CABAC_i_slice:dep_dp <- $r14
	#DEBUG_VALUE: readMB_typeInfo_CABAC_i_slice:ctx <- $r15
	#DEBUG_VALUE: readMB_typeInfo_CABAC_i_slice:a <- $r12d
	#DEBUG_VALUE: readMB_typeInfo_CABAC_i_slice:b <- $r13d
	#DEBUG_VALUE: readMB_typeInfo_CABAC_i_slice:curr_mb_type <- 0
	.loc	0 710 41 is_stmt 1              # ldecod_src/cabac.c:710:41
	xorl	%r13d, %r13d
.Ltmp583:
	cmpw	$9, 152(%rax)
	setne	%r13b
.Ltmp584:
	#DEBUG_VALUE: readMB_typeInfo_CABAC_i_slice:b <- undef
.LBB15_17:                              # %if.end131
	#DEBUG_VALUE: readMB_typeInfo_CABAC_i_slice:currMB <- $rbp
	#DEBUG_VALUE: readMB_typeInfo_CABAC_i_slice:se <- [$rsp+0]
	#DEBUG_VALUE: readMB_typeInfo_CABAC_i_slice:dep_dp <- $r14
	#DEBUG_VALUE: readMB_typeInfo_CABAC_i_slice:ctx <- $r15
	#DEBUG_VALUE: readMB_typeInfo_CABAC_i_slice:a <- $r12d
	#DEBUG_VALUE: readMB_typeInfo_CABAC_i_slice:curr_mb_type <- 0
	#DEBUG_VALUE: readMB_typeInfo_CABAC_i_slice:b <- $r13d
	.loc	0 712 19                        # ldecod_src/cabac.c:712:19
	movq	128(%rbp), %rax
	.loc	0 712 27 is_stmt 0              # ldecod_src/cabac.c:712:27
	testq	%rax, %rax
.Ltmp585:
	.loc	0 712 11                        # ldecod_src/cabac.c:712:11
	je	.LBB15_19
.Ltmp586:
# %bb.18:                               # %if.then135
	#DEBUG_VALUE: readMB_typeInfo_CABAC_i_slice:currMB <- $rbp
	#DEBUG_VALUE: readMB_typeInfo_CABAC_i_slice:se <- [$rsp+0]
	#DEBUG_VALUE: readMB_typeInfo_CABAC_i_slice:dep_dp <- $r14
	#DEBUG_VALUE: readMB_typeInfo_CABAC_i_slice:ctx <- $r15
	#DEBUG_VALUE: readMB_typeInfo_CABAC_i_slice:a <- $r12d
	#DEBUG_VALUE: readMB_typeInfo_CABAC_i_slice:b <- $r13d
	#DEBUG_VALUE: readMB_typeInfo_CABAC_i_slice:curr_mb_type <- 0
	.loc	0 713 43 is_stmt 1              # ldecod_src/cabac.c:713:43
	xorl	%r12d, %r12d
.Ltmp587:
	cmpw	$9, 152(%rax)
	setne	%r12b
.Ltmp588:
	#DEBUG_VALUE: readMB_typeInfo_CABAC_i_slice:a <- undef
.LBB15_19:                              # %if.end142
	#DEBUG_VALUE: readMB_typeInfo_CABAC_i_slice:currMB <- $rbp
	#DEBUG_VALUE: readMB_typeInfo_CABAC_i_slice:se <- [$rsp+0]
	#DEBUG_VALUE: readMB_typeInfo_CABAC_i_slice:dep_dp <- $r14
	#DEBUG_VALUE: readMB_typeInfo_CABAC_i_slice:ctx <- $r15
	#DEBUG_VALUE: readMB_typeInfo_CABAC_i_slice:b <- $r13d
	#DEBUG_VALUE: readMB_typeInfo_CABAC_i_slice:curr_mb_type <- 0
	#DEBUG_VALUE: readMB_typeInfo_CABAC_i_slice:a <- $r12d
	.loc	0 715 19                        # ldecod_src/cabac.c:715:19
	addl	%r13d, %r12d
.Ltmp589:
	#DEBUG_VALUE: readMB_typeInfo_CABAC_i_slice:act_ctx <- $r12d
	.loc	0 716 70                        # ldecod_src/cabac.c:716:70
	leaq	(%r15,%r12,4), %rsi
	.loc	0 716 17 is_stmt 0              # ldecod_src/cabac.c:716:17
	movq	%r14, %rdi
	callq	biari_decode_symbol@PLT
.Ltmp590:
	#DEBUG_VALUE: readMB_typeInfo_CABAC_i_slice:act_sym <- $eax
	.loc	0 717 19 is_stmt 1              # ldecod_src/cabac.c:717:19
	movl	%r12d, 24(%rbx)
.Ltmp591:
	.loc	0 719 18                        # ldecod_src/cabac.c:719:18
	testl	%eax, %eax
.Ltmp592:
	.loc	0 719 11 is_stmt 0              # ldecod_src/cabac.c:719:11
	je	.LBB15_26
.Ltmp593:
# %bb.20:                               # %if.else154
	#DEBUG_VALUE: readMB_typeInfo_CABAC_i_slice:currMB <- $rbp
	#DEBUG_VALUE: readMB_typeInfo_CABAC_i_slice:se <- [$rsp+0]
	#DEBUG_VALUE: readMB_typeInfo_CABAC_i_slice:dep_dp <- $r14
	#DEBUG_VALUE: readMB_typeInfo_CABAC_i_slice:ctx <- $r15
	#DEBUG_VALUE: readMB_typeInfo_CABAC_i_slice:b <- $r13d
	#DEBUG_VALUE: readMB_typeInfo_CABAC_i_slice:curr_mb_type <- 0
	#DEBUG_VALUE: readMB_typeInfo_CABAC_i_slice:act_ctx <- $r12d
	#DEBUG_VALUE: readMB_typeInfo_CABAC_i_slice:act_sym <- $eax
	.loc	0 725 20 is_stmt 1              # ldecod_src/cabac.c:725:20
	movq	%r14, %rdi
	callq	biari_decode_final@PLT
.Ltmp594:
	movl	%eax, %ecx
.Ltmp595:
	#DEBUG_VALUE: readMB_typeInfo_CABAC_i_slice:mode_sym <- $eax
	.loc	0 0 20 is_stmt 0                # ldecod_src/cabac.c:0:20
	movl	$26, %eax
.Ltmp596:
	#DEBUG_VALUE: readMB_typeInfo_CABAC_i_slice:mode_sym <- $ecx
	.loc	0 726 21 is_stmt 1              # ldecod_src/cabac.c:726:21
	cmpl	$1, %ecx
.Ltmp597:
	.loc	0 726 13 is_stmt 0              # ldecod_src/cabac.c:726:13
	je	.LBB15_30
.Ltmp598:
# %bb.21:                               # %if.else159
	#DEBUG_VALUE: readMB_typeInfo_CABAC_i_slice:currMB <- $rbp
	#DEBUG_VALUE: readMB_typeInfo_CABAC_i_slice:se <- [$rsp+0]
	#DEBUG_VALUE: readMB_typeInfo_CABAC_i_slice:dep_dp <- $r14
	#DEBUG_VALUE: readMB_typeInfo_CABAC_i_slice:ctx <- $r15
	#DEBUG_VALUE: readMB_typeInfo_CABAC_i_slice:b <- $r13d
	#DEBUG_VALUE: readMB_typeInfo_CABAC_i_slice:curr_mb_type <- 0
	#DEBUG_VALUE: readMB_typeInfo_CABAC_i_slice:act_ctx <- $r12d
	#DEBUG_VALUE: readMB_typeInfo_CABAC_i_slice:mode_sym <- $ecx
	#DEBUG_VALUE: readMB_typeInfo_CABAC_i_slice:act_sym <- 2
	#DEBUG_VALUE: readMB_typeInfo_CABAC_i_slice:act_ctx <- 4
	.loc	0 734 76 is_stmt 1              # ldecod_src/cabac.c:734:76
	leaq	16(%r15), %rsi
	.loc	0 734 23 is_stmt 0              # ldecod_src/cabac.c:734:23
	movq	%r14, %rdi
	callq	biari_decode_symbol@PLT
.Ltmp599:
	movl	%eax, %r12d
.Ltmp600:
	#DEBUG_VALUE: readMB_typeInfo_CABAC_i_slice:mode_sym <- $r12d
	.loc	0 735 30 is_stmt 1              # ldecod_src/cabac.c:735:30
	shll	$2, %r12d
.Ltmp601:
	#DEBUG_VALUE: readMB_typeInfo_CABAC_i_slice:mode_sym <- $eax
	#DEBUG_VALUE: readMB_typeInfo_CABAC_i_slice:act_sym <- undef
	#DEBUG_VALUE: readMB_typeInfo_CABAC_i_slice:act_ctx <- 5
	.loc	0 738 76                        # ldecod_src/cabac.c:738:76
	leaq	20(%r15), %rsi
	.loc	0 738 23 is_stmt 0              # ldecod_src/cabac.c:738:23
	movq	%r14, %rdi
	callq	biari_decode_symbol@PLT
.Ltmp602:
	#DEBUG_VALUE: readMB_typeInfo_CABAC_i_slice:mode_sym <- $eax
	.loc	0 739 23 is_stmt 1              # ldecod_src/cabac.c:739:23
	testl	%eax, %eax
.Ltmp603:
	.loc	0 739 15 is_stmt 0              # ldecod_src/cabac.c:739:15
	je	.LBB15_28
.Ltmp604:
# %bb.22:                               # %if.then176
	#DEBUG_VALUE: readMB_typeInfo_CABAC_i_slice:currMB <- $rbp
	#DEBUG_VALUE: readMB_typeInfo_CABAC_i_slice:se <- [$rsp+0]
	#DEBUG_VALUE: readMB_typeInfo_CABAC_i_slice:dep_dp <- $r14
	#DEBUG_VALUE: readMB_typeInfo_CABAC_i_slice:ctx <- $r15
	#DEBUG_VALUE: readMB_typeInfo_CABAC_i_slice:b <- $r13d
