	.text
	.file	"config_common.c"
	.file	0 "/home/yjs/workspace/x264-test/src" "ldecod_src/config_common.c" md5 0x338676ece4d2ca36c4d88687e6111c09
	.file	1 "ldecod_src/inc" "global.h" md5 0xc4ca3c417c5616a2ff6b6266e7376fc1
	.file	2 "ldecod_src/inc" "frame.h" md5 0xfd6ca9e1c707932f749220576db72b57
	.file	3 "ldecod_src/inc" "io_video.h" md5 0x1141c07f1801ad27d87214c419749431
	.file	4 "ldecod_src/inc" "configfile.h" md5 0x23faa11f5f7f05b8e96bfb34b9b764b7
	.globl	GetConfigFileContent            # -- Begin function GetConfigFileContent
	.p2align	4, 0x90
	.type	GetConfigFileContent,@function
GetConfigFileContent:                   # @GetConfigFileContent
.Lfunc_begin0:
	.loc	0 92 0                          # ldecod_src/config_common.c:92:0
	.cfi_startproc
# %bb.0:                                # %entry
	#DEBUG_VALUE: GetConfigFileContent:Filename <- $rdi
	pushq	%r15
	.cfi_def_cfa_offset 16
	pushq	%r14
	.cfi_def_cfa_offset 24
	pushq	%r12
	.cfi_def_cfa_offset 32
	pushq	%rbx
	.cfi_def_cfa_offset 40
	pushq	%rax
	.cfi_def_cfa_offset 48
	.cfi_offset %rbx, -40
	.cfi_offset %r12, -32
	.cfi_offset %r14, -24
	.cfi_offset %r15, -16
	movq	%rdi, %rbx
.Ltmp0:
	.loc	0 97 20 prologue_end            # ldecod_src/config_common.c:97:20
	movl	$.L.str, %esi
	callq	fopen@PLT
.Ltmp1:
	#DEBUG_VALUE: GetConfigFileContent:Filename <- $rbx
	#DEBUG_VALUE: GetConfigFileContent:f <- $rax
	.loc	0 97 12 is_stmt 0               # ldecod_src/config_common.c:97:12
	testq	%rax, %rax
.Ltmp2:
	.loc	0 97 7                          # ldecod_src/config_common.c:97:7
	je	.LBB0_1
.Ltmp3:
# %bb.3:                                # %if.end
	#DEBUG_VALUE: GetConfigFileContent:Filename <- $rbx
	#DEBUG_VALUE: GetConfigFileContent:f <- $rax
	.loc	0 0 0                           # ldecod_src/config_common.c:0:0
	movq	%rax, %r15
.Ltmp4:
	.loc	0 103 12 is_stmt 1              # ldecod_src/config_common.c:103:12
	movq	%rax, %rdi
	xorl	%esi, %esi
	movl	$2, %edx
	callq	fseek@PLT
.Ltmp5:
	#DEBUG_VALUE: GetConfigFileContent:f <- $r15
	.loc	0 103 9 is_stmt 0               # ldecod_src/config_common.c:103:9
	testl	%eax, %eax
.Ltmp6:
	.loc	0 103 7                         # ldecod_src/config_common.c:103:7
	je	.LBB0_5
.Ltmp7:
.LBB0_4:                                # %if.then4
	#DEBUG_VALUE: GetConfigFileContent:Filename <- $rbx
	#DEBUG_VALUE: GetConfigFileContent:f <- $r15
	.loc	0 0 0                           # ldecod_src/config_common.c:0:0
	movq	errortext@GOTPCREL(%rip), %rdi
	xorl	%r14d, %r14d
	movl	$300, %esi                      # imm = 0x12C
	movl	$.L.str.2, %edx
	jmp	.LBB0_2
.Ltmp8:
.LBB0_1:                                # %if.then
	#DEBUG_VALUE: GetConfigFileContent:Filename <- $rbx
	#DEBUG_VALUE: GetConfigFileContent:f <- $rax
	.loc	0 99 7 is_stmt 1                # ldecod_src/config_common.c:99:7
	movq	errortext@GOTPCREL(%rip), %rdi
	xorl	%r14d, %r14d
	movl	$300, %esi                      # imm = 0x12C
	movl	$.L.str.1, %edx
.Ltmp9:
.LBB0_2:                                # %cleanup
	#DEBUG_VALUE: GetConfigFileContent:Filename <- $rbx
	.loc	0 0 0 is_stmt 0                 # ldecod_src/config_common.c:0:0
	movq	%rbx, %rcx
	xorl	%eax, %eax
	callq	snprintf@PLT
.Ltmp10:
.LBB0_11:                               # %cleanup
	#DEBUG_VALUE: GetConfigFileContent:Filename <- $rbx
	.loc	0 133 1 is_stmt 1               # ldecod_src/config_common.c:133:1
	movq	%r14, %rax
	.loc	0 133 1 epilogue_begin is_stmt 0 # ldecod_src/config_common.c:133:1
	addq	$8, %rsp
	.cfi_def_cfa_offset 40
	popq	%rbx
.Ltmp11:
	#DEBUG_VALUE: GetConfigFileContent:Filename <- [DW_OP_LLVM_entry_value 1] $rdi
	.cfi_def_cfa_offset 32
	popq	%r12
	.cfi_def_cfa_offset 24
	popq	%r14
	.cfi_def_cfa_offset 16
	popq	%r15
	.cfi_def_cfa_offset 8
	retq
.Ltmp12:
.LBB0_5:                                # %if.end6
	.cfi_def_cfa_offset 48
	#DEBUG_VALUE: GetConfigFileContent:Filename <- $rbx
	#DEBUG_VALUE: GetConfigFileContent:f <- $r15
	.loc	0 109 14 is_stmt 1              # ldecod_src/config_common.c:109:14
	movq	%r15, %rdi
	callq	ftell@PLT
.Ltmp13:
	movq	%rax, %r12
.Ltmp14:
	#DEBUG_VALUE: GetConfigFileContent:FileSize <- $r12
	.loc	0 110 20                        # ldecod_src/config_common.c:110:20
	cmpq	$100001, %rax                   # imm = 0x186A1
	jb	.LBB0_7
.Ltmp15:
# %bb.6:                                # %if.then10
	#DEBUG_VALUE: GetConfigFileContent:Filename <- $rbx
	#DEBUG_VALUE: GetConfigFileContent:f <- $r15
	#DEBUG_VALUE: GetConfigFileContent:FileSize <- $r12
	.loc	0 112 5                         # ldecod_src/config_common.c:112:5
	movq	errortext@GOTPCREL(%rip), %rdi
	xorl	%r14d, %r14d
	movl	$300, %esi                      # imm = 0x12C
	movl	$.L.str.3, %edx
	movq	%r12, %rcx
	movq	%rbx, %r8
	xorl	%eax, %eax
	callq	snprintf@PLT
.Ltmp16:
	.loc	0 113 5                         # ldecod_src/config_common.c:113:5
	jmp	.LBB0_11
.Ltmp17:
.LBB0_7:                                # %if.end12
	#DEBUG_VALUE: GetConfigFileContent:Filename <- $rbx
	#DEBUG_VALUE: GetConfigFileContent:f <- $r15
	#DEBUG_VALUE: GetConfigFileContent:FileSize <- $r12
	.loc	0 115 12                        # ldecod_src/config_common.c:115:12
	movq	%r15, %rdi
	xorl	%esi, %esi
	xorl	%edx, %edx
	callq	fseek@PLT
.Ltmp18:
	.loc	0 115 9 is_stmt 0               # ldecod_src/config_common.c:115:9
	testl	%eax, %eax
.Ltmp19:
	.loc	0 115 7                         # ldecod_src/config_common.c:115:7
	jne	.LBB0_4
.Ltmp20:
# %bb.8:                                # %if.end17
	#DEBUG_VALUE: GetConfigFileContent:Filename <- $rbx
	#DEBUG_VALUE: GetConfigFileContent:f <- $r15
	#DEBUG_VALUE: GetConfigFileContent:FileSize <- $r12
	.loc	0 121 31 is_stmt 1              # ldecod_src/config_common.c:121:31
	movq	%r12, %rdi
	incq	%rdi
	.loc	0 121 14 is_stmt 0              # ldecod_src/config_common.c:121:14
	callq	malloc@PLT
.Ltmp21:
	movq	%rax, %r14
.Ltmp22:
	#DEBUG_VALUE: GetConfigFileContent:buf <- $r14
	.loc	0 121 36                        # ldecod_src/config_common.c:121:36
	testq	%rax, %rax
.Ltmp23:
	.loc	0 121 7                         # ldecod_src/config_common.c:121:7
	jne	.LBB0_10
.Ltmp24:
# %bb.9:                                # %if.then20
	#DEBUG_VALUE: GetConfigFileContent:Filename <- $rbx
	#DEBUG_VALUE: GetConfigFileContent:f <- $r15
	#DEBUG_VALUE: GetConfigFileContent:FileSize <- $r12
	#DEBUG_VALUE: GetConfigFileContent:buf <- $r14
	.loc	0 121 44                        # ldecod_src/config_common.c:121:44
	movl	$.L.str.4, %edi
	callq	no_mem_exit@PLT
.Ltmp25:
.LBB0_10:                               # %if.end21
	#DEBUG_VALUE: GetConfigFileContent:Filename <- $rbx
	#DEBUG_VALUE: GetConfigFileContent:f <- $r15
	#DEBUG_VALUE: GetConfigFileContent:FileSize <- $r12
	#DEBUG_VALUE: GetConfigFileContent:buf <- $r14
	.loc	0 127 21 is_stmt 1              # ldecod_src/config_common.c:127:21
	movl	$1, %esi
	movq	%r14, %rdi
	movq	%r12, %rdx
	movq	%r15, %rcx
	callq	fread@PLT
.Ltmp26:
	#DEBUG_VALUE: GetConfigFileContent:FileSize <- $rax
	.loc	0 128 17                        # ldecod_src/config_common.c:128:17
	movb	$0, (%r14,%rax)
	.loc	0 131 3                         # ldecod_src/config_common.c:131:3
	movq	%r15, %rdi
	callq	fclose@PLT
.Ltmp27:
	.loc	0 0 3 is_stmt 0                 # ldecod_src/config_common.c:0:3
	jmp	.LBB0_11
.Ltmp28:
.Lfunc_end0:
	.size	GetConfigFileContent, .Lfunc_end0-GetConfigFileContent
	.cfi_endproc
	.file	5 "/usr/include" "stdio.h" md5 0xf31eefcc3f15835fc5a4023a625cf609
	.file	6 "/usr/include/x86_64-linux-gnu/bits/types" "struct_FILE.h" md5 0x1bad07471b7974df4ecc1d1c2ca207e6
	.file	7 "/usr/include/x86_64-linux-gnu/bits" "types.h" md5 0xd108b5f93a74c50510d7d9bc0ab36df9
	.file	8 "/home/yjs/workspace" "GPUISel-llvm/build/lib/clang/19/include/__stddef_size_t.h" md5 0x2c44e821a2b1951cde2eb0fb2e656867
	.file	9 "/usr/include/x86_64-linux-gnu/bits/types" "FILE.h" md5 0x571f9fb6223c42439075fdde11a0de5d
	.file	10 "/usr/include" "stdlib.h" md5 0x02258fad21adf111bb9df9825e61954a
	.file	11 "ldecod_src/inc" "memalloc.h" md5 0x88776e97a131c37d03036121c7c9e0ac
                                        # -- End function
	.globl	ParseContent                    # -- Begin function ParseContent
	.p2align	4, 0x90
	.type	ParseContent,@function
ParseContent:                           # @ParseContent
.Lfunc_begin1:
	.loc	0 153 0 is_stmt 1               # ldecod_src/config_common.c:153:0
	.cfi_startproc
# %bb.0:                                # %entry
	#DEBUG_VALUE: ParseContent:p_Inp <- $rdi
	#DEBUG_VALUE: ParseContent:Map <- $rsi
	#DEBUG_VALUE: ParseContent:buf <- $rdx
	#DEBUG_VALUE: ParseContent:bufsize <- $ecx
	pushq	%rbp
	.cfi_def_cfa_offset 16
	pushq	%r15
	.cfi_def_cfa_offset 24
	pushq	%r14
	.cfi_def_cfa_offset 32
	pushq	%r13
	.cfi_def_cfa_offset 40
	pushq	%r12
	.cfi_def_cfa_offset 48
	pushq	%rbx
	.cfi_def_cfa_offset 56
	subq	$80056, %rsp                    # imm = 0x138B8
	.cfi_def_cfa_offset 80112
	.cfi_offset %rbx, -56
	.cfi_offset %r12, -48
	.cfi_offset %r13, -40
	.cfi_offset %r14, -32
	.cfi_offset %r15, -24
	.cfi_offset %rbp, -16
	movl	%ecx, %ebp
	movq	%rdx, %r15
	movq	%rsi, 8(%rsp)                   # 8-byte Spill
.Ltmp29:
	#DEBUG_VALUE: ParseContent:Map <- [DW_OP_plus_uconst 8] [$rsp+0]
	movq	%rdi, 24(%rsp)                  # 8-byte Spill
.Ltmp30:
	#DEBUG_VALUE: ParseContent:p_Inp <- [DW_OP_plus_uconst 24] [$rsp+0]
	leaq	48(%rsp), %rdi
	xorl	%r13d, %r13d
.Ltmp31:
	.loc	0 154 9 prologue_end            # ldecod_src/config_common.c:154:9
	movl	$80000, %edx                    # imm = 0x13880
.Ltmp32:
	#DEBUG_VALUE: ParseContent:buf <- $r15
	xorl	%esi, %esi
	callq	memset@PLT
.Ltmp33:
	#DEBUG_VALUE: ParseContent:bufsize <- $ebp
	#DEBUG_VALUE: ParseContent:item <- 0
	#DEBUG_VALUE: ParseContent:InString <- 0
	#DEBUG_VALUE: ParseContent:InItem <- 0
	#DEBUG_VALUE: ParseContent:p <- $r15
	#DEBUG_VALUE: ParseContent:bufend <- undef
	.loc	0 167 12                        # ldecod_src/config_common.c:167:12
	testl	%ebp, %ebp
	.loc	0 167 3 is_stmt 0               # ldecod_src/config_common.c:167:3
	jle	.LBB1_48
.Ltmp34:
# %bb.1:                                # %while.body.preheader
	#DEBUG_VALUE: ParseContent:p_Inp <- [DW_OP_plus_uconst 24] [$rsp+0]
	#DEBUG_VALUE: ParseContent:Map <- [DW_OP_plus_uconst 8] [$rsp+0]
	#DEBUG_VALUE: ParseContent:buf <- $r15
	#DEBUG_VALUE: ParseContent:bufsize <- $ebp
	#DEBUG_VALUE: ParseContent:item <- 0
	#DEBUG_VALUE: ParseContent:InString <- 0
	#DEBUG_VALUE: ParseContent:InItem <- 0
	#DEBUG_VALUE: ParseContent:p <- $r15
	.loc	0 0 3                           # ldecod_src/config_common.c:0:3
	movslq	%ebp, %rax
	addq	%r15, %rax
.Ltmp35:
	#DEBUG_VALUE: ParseContent:bufend <- $rax
	xorl	%edx, %edx
	xorl	%ecx, %ecx
	jmp	.LBB1_2
.Ltmp36:
.LBB1_8:                                # %sw.epilog.loopexit
                                        #   in Loop: Header=BB1_2 Depth=1
	#DEBUG_VALUE: ParseContent:p_Inp <- [DW_OP_plus_uconst 24] [$rsp+0]
	#DEBUG_VALUE: ParseContent:Map <- [DW_OP_plus_uconst 8] [$rsp+0]
	#DEBUG_VALUE: ParseContent:buf <- [DW_OP_LLVM_entry_value 1] $rdx
	#DEBUG_VALUE: ParseContent:bufsize <- $ebp
	#DEBUG_VALUE: ParseContent:item <- $r13d
	#DEBUG_VALUE: ParseContent:InString <- $ecx
	#DEBUG_VALUE: ParseContent:InItem <- $edx
	#DEBUG_VALUE: ParseContent:p <- $rsi
	#DEBUG_VALUE: ParseContent:bufend <- $rax
	.loc	0 167 12                        # ldecod_src/config_common.c:167:12
	decq	%rsi
.Ltmp37:
.LBB1_9:                                # %sw.epilog
                                        #   in Loop: Header=BB1_2 Depth=1
	#DEBUG_VALUE: ParseContent:p_Inp <- [DW_OP_plus_uconst 24] [$rsp+0]
	#DEBUG_VALUE: ParseContent:Map <- [DW_OP_plus_uconst 8] [$rsp+0]
	#DEBUG_VALUE: ParseContent:buf <- [DW_OP_LLVM_entry_value 1] $rdx
	#DEBUG_VALUE: ParseContent:bufsize <- $ebp
	#DEBUG_VALUE: ParseContent:item <- $r13d
	#DEBUG_VALUE: ParseContent:InItem <- $edx
	#DEBUG_VALUE: ParseContent:bufend <- $rax
	.loc	0 0 12                          # ldecod_src/config_common.c:0:12
	xorl	%ecx, %ecx
	xorl	%edx, %edx
.Ltmp38:
.LBB1_10:                               # %sw.epilog
                                        #   in Loop: Header=BB1_2 Depth=1
	#DEBUG_VALUE: ParseContent:p_Inp <- [DW_OP_plus_uconst 24] [$rsp+0]
	#DEBUG_VALUE: ParseContent:Map <- [DW_OP_plus_uconst 8] [$rsp+0]
	#DEBUG_VALUE: ParseContent:buf <- [DW_OP_LLVM_entry_value 1] $rdx
	#DEBUG_VALUE: ParseContent:bufsize <- $ebp
	#DEBUG_VALUE: ParseContent:item <- $r13d
	#DEBUG_VALUE: ParseContent:bufend <- $rax
	movq	%rsi, %r15
.Ltmp39:
.LBB1_21:                               # %sw.epilog
                                        #   in Loop: Header=BB1_2 Depth=1
	#DEBUG_VALUE: ParseContent:p_Inp <- [DW_OP_plus_uconst 24] [$rsp+0]
	#DEBUG_VALUE: ParseContent:Map <- [DW_OP_plus_uconst 8] [$rsp+0]
	#DEBUG_VALUE: ParseContent:buf <- [DW_OP_LLVM_entry_value 1] $rdx
	#DEBUG_VALUE: ParseContent:bufsize <- $ebp
	#DEBUG_VALUE: ParseContent:item <- $r13d
	#DEBUG_VALUE: ParseContent:bufend <- $rax
	#DEBUG_VALUE: ParseContent:item <- $r13d
	#DEBUG_VALUE: ParseContent:p <- $r15
	#DEBUG_VALUE: ParseContent:InItem <- $edx
	#DEBUG_VALUE: ParseContent:InString <- $ecx
	.loc	0 167 12                        # ldecod_src/config_common.c:167:12
	cmpq	%rax, %r15
	.loc	0 167 3                         # ldecod_src/config_common.c:167:3
	jae	.LBB1_22
.Ltmp40:
.LBB1_2:                                # %while.body
                                        # =>This Loop Header: Depth=1
                                        #     Child Loop BB1_6 Depth 2
	#DEBUG_VALUE: ParseContent:p_Inp <- [DW_OP_plus_uconst 24] [$rsp+0]
	#DEBUG_VALUE: ParseContent:Map <- [DW_OP_plus_uconst 8] [$rsp+0]
	#DEBUG_VALUE: ParseContent:buf <- [DW_OP_LLVM_entry_value 1] $rdx
	#DEBUG_VALUE: ParseContent:bufsize <- $ebp
	#DEBUG_VALUE: ParseContent:p <- $r15
	#DEBUG_VALUE: ParseContent:bufend <- $rax
	#DEBUG_VALUE: ParseContent:item <- $r13d
	#DEBUG_VALUE: ParseContent:p <- $r15
	#DEBUG_VALUE: ParseContent:InItem <- $edx
	#DEBUG_VALUE: ParseContent:InString <- $ecx
	.loc	0 169 13 is_stmt 1              # ldecod_src/config_common.c:169:13
	movzbl	(%r15), %esi
	.loc	0 169 5 is_stmt 0               # ldecod_src/config_common.c:169:5
	addl	$-9, %esi
	cmpl	$26, %esi
	ja	.LBB1_18
.Ltmp41:
# %bb.3:                                # %while.body
                                        #   in Loop: Header=BB1_2 Depth=1
	#DEBUG_VALUE: ParseContent:p_Inp <- [DW_OP_plus_uconst 24] [$rsp+0]
	#DEBUG_VALUE: ParseContent:Map <- [DW_OP_plus_uconst 8] [$rsp+0]
	#DEBUG_VALUE: ParseContent:buf <- [DW_OP_LLVM_entry_value 1] $rdx
	#DEBUG_VALUE: ParseContent:bufsize <- $ebp
	#DEBUG_VALUE: ParseContent:item <- $r13d
	#DEBUG_VALUE: ParseContent:InString <- $ecx
	#DEBUG_VALUE: ParseContent:InItem <- $edx
	#DEBUG_VALUE: ParseContent:p <- $r15
	#DEBUG_VALUE: ParseContent:bufend <- $rax
	jmpq	*.LJTI1_0(,%rsi,8)
.Ltmp42:
.LBB1_12:                               # %sw.bb12
                                        #   in Loop: Header=BB1_2 Depth=1
	#DEBUG_VALUE: ParseContent:p_Inp <- [DW_OP_plus_uconst 24] [$rsp+0]
	#DEBUG_VALUE: ParseContent:Map <- [DW_OP_plus_uconst 8] [$rsp+0]
	#DEBUG_VALUE: ParseContent:buf <- [DW_OP_LLVM_entry_value 1] $rdx
	#DEBUG_VALUE: ParseContent:bufsize <- $ebp
	#DEBUG_VALUE: ParseContent:item <- $r13d
	#DEBUG_VALUE: ParseContent:InString <- $ecx
	#DEBUG_VALUE: ParseContent:InItem <- $edx
	#DEBUG_VALUE: ParseContent:p <- $r15
	#DEBUG_VALUE: ParseContent:bufend <- $rax
	.loc	0 0 0                           # ldecod_src/config_common.c:0:0
	leaq	1(%r15), %rsi
.Ltmp43:
	#DEBUG_VALUE: ParseContent:p <- $rsi
	.loc	0 188 11 is_stmt 1              # ldecod_src/config_common.c:188:11
	testl	%ecx, %ecx
	movl	$-1, %ecx
.Ltmp44:
	.loc	0 188 11 is_stmt 0              # ldecod_src/config_common.c:188:11
	jne	.LBB1_10
.Ltmp45:
# %bb.13:                               # %if.else
                                        #   in Loop: Header=BB1_2 Depth=1
	#DEBUG_VALUE: ParseContent:p_Inp <- [DW_OP_plus_uconst 24] [$rsp+0]
	#DEBUG_VALUE: ParseContent:Map <- [DW_OP_plus_uconst 8] [$rsp+0]
	#DEBUG_VALUE: ParseContent:buf <- [DW_OP_LLVM_entry_value 1] $rdx
	#DEBUG_VALUE: ParseContent:bufsize <- $ebp
	#DEBUG_VALUE: ParseContent:item <- $r13d
	#DEBUG_VALUE: ParseContent:InItem <- $edx
	#DEBUG_VALUE: ParseContent:p <- $rsi
	#DEBUG_VALUE: ParseContent:bufend <- $rax
	.loc	0 192 14 is_stmt 1              # ldecod_src/config_common.c:192:14
	movb	$0, (%r15)
	jmp	.LBB1_9
.Ltmp46:
.LBB1_11:                               # %sw.bb10
                                        #   in Loop: Header=BB1_2 Depth=1
	#DEBUG_VALUE: ParseContent:p_Inp <- [DW_OP_plus_uconst 24] [$rsp+0]
	#DEBUG_VALUE: ParseContent:Map <- [DW_OP_plus_uconst 8] [$rsp+0]
	#DEBUG_VALUE: ParseContent:buf <- [DW_OP_LLVM_entry_value 1] $rdx
	#DEBUG_VALUE: ParseContent:bufsize <- $ebp
	#DEBUG_VALUE: ParseContent:item <- $r13d
	#DEBUG_VALUE: ParseContent:InString <- $ecx
	#DEBUG_VALUE: ParseContent:InItem <- $edx
	#DEBUG_VALUE: ParseContent:p <- $r15
	#DEBUG_VALUE: ParseContent:bufend <- $rax
	.loc	0 184 11                        # ldecod_src/config_common.c:184:11
	movb	$0, (%r15)
.Ltmp47:
	#DEBUG_VALUE: ParseContent:InItem <- 0
	#DEBUG_VALUE: ParseContent:InString <- 0
	.loc	0 184 9 is_stmt 0               # ldecod_src/config_common.c:184:9
	incq	%r15
.Ltmp48:
	#DEBUG_VALUE: ParseContent:p <- $r15
	.loc	0 0 9                           # ldecod_src/config_common.c:0:9
	xorl	%ecx, %ecx
	xorl	%edx, %edx
	.loc	0 185 7 is_stmt 1               # ldecod_src/config_common.c:185:7
	jmp	.LBB1_21
.Ltmp49:
.LBB1_5:                                # %sw.bb1
                                        #   in Loop: Header=BB1_2 Depth=1
	#DEBUG_VALUE: ParseContent:p_Inp <- [DW_OP_plus_uconst 24] [$rsp+0]
	#DEBUG_VALUE: ParseContent:Map <- [DW_OP_plus_uconst 8] [$rsp+0]
	#DEBUG_VALUE: ParseContent:buf <- [DW_OP_LLVM_entry_value 1] $rdx
	#DEBUG_VALUE: ParseContent:bufsize <- $ebp
	#DEBUG_VALUE: ParseContent:item <- $r13d
	#DEBUG_VALUE: ParseContent:InString <- $ecx
	#DEBUG_VALUE: ParseContent:InItem <- $edx
	#DEBUG_VALUE: ParseContent:p <- $r15
	#DEBUG_VALUE: ParseContent:bufend <- $rax
	.loc	0 175 10                        # ldecod_src/config_common.c:175:10
	movb	$0, (%r15)
.Ltmp50:
	.p2align	4, 0x90
.LBB1_6:                                # %while.cond2
                                        #   Parent Loop BB1_2 Depth=1
                                        # =>  This Inner Loop Header: Depth=2
	#DEBUG_VALUE: ParseContent:p_Inp <- [DW_OP_plus_uconst 24] [$rsp+0]
	#DEBUG_VALUE: ParseContent:Map <- [DW_OP_plus_uconst 8] [$rsp+0]
	#DEBUG_VALUE: ParseContent:buf <- [DW_OP_LLVM_entry_value 1] $rdx
	#DEBUG_VALUE: ParseContent:bufsize <- $ebp
	#DEBUG_VALUE: ParseContent:item <- $r13d
	#DEBUG_VALUE: ParseContent:InString <- $ecx
	#DEBUG_VALUE: ParseContent:InItem <- $edx
	#DEBUG_VALUE: ParseContent:p <- $r15
	#DEBUG_VALUE: ParseContent:bufend <- $rax
	#DEBUG_VALUE: ParseContent:p <- $r15
	.loc	0 177 9                         # ldecod_src/config_common.c:177:9
	leaq	1(%r15), %rsi
.Ltmp51:
	#DEBUG_VALUE: ParseContent:p <- $rsi
	.loc	0 176 25                        # ldecod_src/config_common.c:176:25
	cmpq	%rax, %r15
	.loc	0 176 7 is_stmt 0               # ldecod_src/config_common.c:176:7
	jae	.LBB1_8
.Ltmp52:
# %bb.7:                                # %while.cond2
                                        #   in Loop: Header=BB1_6 Depth=2
	#DEBUG_VALUE: ParseContent:p_Inp <- [DW_OP_plus_uconst 24] [$rsp+0]
	#DEBUG_VALUE: ParseContent:Map <- [DW_OP_plus_uconst 8] [$rsp+0]
	#DEBUG_VALUE: ParseContent:buf <- [DW_OP_LLVM_entry_value 1] $rdx
	#DEBUG_VALUE: ParseContent:bufsize <- $ebp
	#DEBUG_VALUE: ParseContent:item <- $r13d
	#DEBUG_VALUE: ParseContent:InString <- $ecx
	#DEBUG_VALUE: ParseContent:InItem <- $edx
	#DEBUG_VALUE: ParseContent:p <- $rsi
	#DEBUG_VALUE: ParseContent:bufend <- $rax
	cmpb	$10, (%r15)
	movq	%rsi, %r15
	jne	.LBB1_6
	jmp	.LBB1_8
.Ltmp53:
.LBB1_18:                               # %sw.default
                                        #   in Loop: Header=BB1_2 Depth=1
	#DEBUG_VALUE: ParseContent:p_Inp <- [DW_OP_plus_uconst 24] [$rsp+0]
	#DEBUG_VALUE: ParseContent:Map <- [DW_OP_plus_uconst 8] [$rsp+0]
	#DEBUG_VALUE: ParseContent:buf <- [DW_OP_LLVM_entry_value 1] $rdx
	#DEBUG_VALUE: ParseContent:bufsize <- $ebp
	#DEBUG_VALUE: ParseContent:item <- $r13d
	#DEBUG_VALUE: ParseContent:InString <- $ecx
	#DEBUG_VALUE: ParseContent:InItem <- $edx
	#DEBUG_VALUE: ParseContent:p <- $r15
	#DEBUG_VALUE: ParseContent:bufend <- $rax
	.loc	0 210 12 is_stmt 1              # ldecod_src/config_common.c:210:12
	testl	%edx, %edx
.Ltmp54:
	.loc	0 210 11 is_stmt 0              # ldecod_src/config_common.c:210:11
	jne	.LBB1_20
.Ltmp55:
# %bb.19:                               # %if.then25
                                        #   in Loop: Header=BB1_2 Depth=1
	#DEBUG_VALUE: ParseContent:p_Inp <- [DW_OP_plus_uconst 24] [$rsp+0]
	#DEBUG_VALUE: ParseContent:Map <- [DW_OP_plus_uconst 8] [$rsp+0]
	#DEBUG_VALUE: ParseContent:buf <- [DW_OP_LLVM_entry_value 1] $rdx
	#DEBUG_VALUE: ParseContent:bufsize <- $ebp
	#DEBUG_VALUE: ParseContent:item <- $r13d
	#DEBUG_VALUE: ParseContent:InString <- $ecx
	#DEBUG_VALUE: ParseContent:InItem <- $edx
	#DEBUG_VALUE: ParseContent:p <- $r15
	#DEBUG_VALUE: ParseContent:bufend <- $rax
	.loc	0 212 9 is_stmt 1               # ldecod_src/config_common.c:212:9
	movslq	%r13d, %rdx
.Ltmp56:
	.loc	0 212 19 is_stmt 0              # ldecod_src/config_common.c:212:19
	incl	%r13d
.Ltmp57:
	#DEBUG_VALUE: ParseContent:item <- $r13d
	.loc	0 212 23                        # ldecod_src/config_common.c:212:23
	movq	%r15, 48(%rsp,%rdx,8)
.Ltmp58:
	#DEBUG_VALUE: ParseContent:InItem <- -1
.LBB1_20:                               # %if.end30
                                        #   in Loop: Header=BB1_2 Depth=1
	#DEBUG_VALUE: ParseContent:p_Inp <- [DW_OP_plus_uconst 24] [$rsp+0]
	#DEBUG_VALUE: ParseContent:Map <- [DW_OP_plus_uconst 8] [$rsp+0]
	#DEBUG_VALUE: ParseContent:buf <- [DW_OP_LLVM_entry_value 1] $rdx
	#DEBUG_VALUE: ParseContent:bufsize <- $ebp
	#DEBUG_VALUE: ParseContent:item <- $r13d
	#DEBUG_VALUE: ParseContent:InString <- $ecx
	#DEBUG_VALUE: ParseContent:p <- $r15
	#DEBUG_VALUE: ParseContent:bufend <- $rax
	#DEBUG_VALUE: ParseContent:item <- $r13d
	#DEBUG_VALUE: ParseContent:InItem <- -1
	.loc	0 215 8 is_stmt 1               # ldecod_src/config_common.c:215:8
	incq	%r15
.Ltmp59:
	#DEBUG_VALUE: ParseContent:p <- $r15
	.loc	0 0 8 is_stmt 0                 # ldecod_src/config_common.c:0:8
	movl	$-1, %edx
	jmp	.LBB1_21
.Ltmp60:
.LBB1_4:                                # %sw.bb
                                        #   in Loop: Header=BB1_2 Depth=1
	#DEBUG_VALUE: ParseContent:p_Inp <- [DW_OP_plus_uconst 24] [$rsp+0]
	#DEBUG_VALUE: ParseContent:Map <- [DW_OP_plus_uconst 8] [$rsp+0]
	#DEBUG_VALUE: ParseContent:buf <- [DW_OP_LLVM_entry_value 1] $rdx
	#DEBUG_VALUE: ParseContent:bufsize <- $ebp
	#DEBUG_VALUE: ParseContent:item <- $r13d
	#DEBUG_VALUE: ParseContent:InString <- $ecx
	#DEBUG_VALUE: ParseContent:InItem <- $edx
	#DEBUG_VALUE: ParseContent:p <- $r15
	#DEBUG_VALUE: ParseContent:bufend <- $rax
	.loc	0 172 7 is_stmt 1               # ldecod_src/config_common.c:172:7
	incq	%r15
.Ltmp61:
	#DEBUG_VALUE: ParseContent:p <- $r15
	.loc	0 173 7                         # ldecod_src/config_common.c:173:7
	jmp	.LBB1_21
.Ltmp62:
.LBB1_14:                               # %sw.bb15
                                        #   in Loop: Header=BB1_2 Depth=1
	#DEBUG_VALUE: ParseContent:p_Inp <- [DW_OP_plus_uconst 24] [$rsp+0]
	#DEBUG_VALUE: ParseContent:Map <- [DW_OP_plus_uconst 8] [$rsp+0]
	#DEBUG_VALUE: ParseContent:buf <- [DW_OP_LLVM_entry_value 1] $rdx
	#DEBUG_VALUE: ParseContent:bufsize <- $ebp
	#DEBUG_VALUE: ParseContent:item <- $r13d
	#DEBUG_VALUE: ParseContent:InString <- $ecx
	#DEBUG_VALUE: ParseContent:InItem <- $edx
	#DEBUG_VALUE: ParseContent:p <- $r15
	#DEBUG_VALUE: ParseContent:bufend <- $rax
	.loc	0 198 12                        # ldecod_src/config_common.c:198:12
	movb	$0, (%r15)
	.loc	0 198 9 is_stmt 0               # ldecod_src/config_common.c:198:9
	incq	%r15
.Ltmp63:
	#DEBUG_VALUE: ParseContent:p <- $r15
	.loc	0 0 9                           # ldecod_src/config_common.c:0:9
	xorl	%esi, %esi
.Ltmp64:
	.loc	0 199 12 is_stmt 1              # ldecod_src/config_common.c:199:12
	testl	%ecx, %ecx
.Ltmp65:
	.loc	0 199 11 is_stmt 0              # ldecod_src/config_common.c:199:11
	je	.LBB1_16
.Ltmp66:
# %bb.15:                               #   in Loop: Header=BB1_2 Depth=1
	#DEBUG_VALUE: ParseContent:p_Inp <- [DW_OP_plus_uconst 24] [$rsp+0]
	#DEBUG_VALUE: ParseContent:Map <- [DW_OP_plus_uconst 8] [$rsp+0]
	#DEBUG_VALUE: ParseContent:buf <- [DW_OP_LLVM_entry_value 1] $rdx
	#DEBUG_VALUE: ParseContent:bufsize <- $ebp
	#DEBUG_VALUE: ParseContent:item <- $r13d
	#DEBUG_VALUE: ParseContent:InString <- $ecx
	#DEBUG_VALUE: ParseContent:InItem <- $edx
	#DEBUG_VALUE: ParseContent:p <- $r15
	#DEBUG_VALUE: ParseContent:bufend <- $rax
	.loc	0 0 11                          # ldecod_src/config_common.c:0:11
	movl	%esi, %edx
.Ltmp67:
	#DEBUG_VALUE: ParseContent:item <- $r13d
	#DEBUG_VALUE: ParseContent:InItem <- $esi
	.loc	0 206 18 is_stmt 1              # ldecod_src/config_common.c:206:18
	notl	%ecx
.Ltmp68:
	#DEBUG_VALUE: ParseContent:InString <- undef
	.loc	0 207 7                         # ldecod_src/config_common.c:207:7
	jmp	.LBB1_21
.Ltmp69:
.LBB1_16:                               # %if.then18
                                        #   in Loop: Header=BB1_2 Depth=1
	#DEBUG_VALUE: ParseContent:p_Inp <- [DW_OP_plus_uconst 24] [$rsp+0]
	#DEBUG_VALUE: ParseContent:Map <- [DW_OP_plus_uconst 8] [$rsp+0]
	#DEBUG_VALUE: ParseContent:buf <- [DW_OP_LLVM_entry_value 1] $rdx
	#DEBUG_VALUE: ParseContent:bufsize <- $ebp
	#DEBUG_VALUE: ParseContent:item <- $r13d
	#DEBUG_VALUE: ParseContent:InString <- $ecx
	#DEBUG_VALUE: ParseContent:InItem <- $edx
	#DEBUG_VALUE: ParseContent:p <- $r15
	#DEBUG_VALUE: ParseContent:bufend <- $rax
	.loc	0 201 9                         # ldecod_src/config_common.c:201:9
	movslq	%r13d, %rsi
	.loc	0 201 19 is_stmt 0              # ldecod_src/config_common.c:201:19
	incl	%r13d
.Ltmp70:
	#DEBUG_VALUE: ParseContent:item <- $r13d
	.loc	0 201 23                        # ldecod_src/config_common.c:201:23
	movq	%r15, 48(%rsp,%rsi,8)
	.loc	0 202 18 is_stmt 1              # ldecod_src/config_common.c:202:18
	notl	%edx
.Ltmp71:
	#DEBUG_VALUE: ParseContent:InItem <- $edx
	#DEBUG_VALUE: ParseContent:item <- $r13d
	#DEBUG_VALUE: ParseContent:InItem <- $esi
	.loc	0 206 18                        # ldecod_src/config_common.c:206:18
	notl	%ecx
.Ltmp72:
	#DEBUG_VALUE: ParseContent:InString <- $ecx
	.loc	0 207 7                         # ldecod_src/config_common.c:207:7
	jmp	.LBB1_21
.Ltmp73:
.LBB1_22:                               # %while.end32
	#DEBUG_VALUE: ParseContent:p_Inp <- [DW_OP_plus_uconst 24] [$rsp+0]
	#DEBUG_VALUE: ParseContent:Map <- [DW_OP_plus_uconst 8] [$rsp+0]
	#DEBUG_VALUE: ParseContent:buf <- [DW_OP_LLVM_entry_value 1] $rdx
	#DEBUG_VALUE: ParseContent:bufsize <- $ebp
	#DEBUG_VALUE: ParseContent:item <- $r13d
	#DEBUG_VALUE: ParseContent:InString <- $ecx
	#DEBUG_VALUE: ParseContent:InItem <- $edx
	#DEBUG_VALUE: ParseContent:p <- $r15
	#DEBUG_VALUE: ParseContent:bufend <- $rax
	#DEBUG_VALUE: ParseContent:item <- undef
	#DEBUG_VALUE: ParseContent:i <- 0
	.loc	0 221 14                        # ldecod_src/config_common.c:221:14
	cmpl	$2, %r13d
.Ltmp74:
	.loc	0 221 3 is_stmt 0               # ldecod_src/config_common.c:221:3
	jl	.LBB1_48
.Ltmp75:
# %bb.23:                               # %for.body.preheader
	#DEBUG_VALUE: ParseContent:p_Inp <- [DW_OP_plus_uconst 24] [$rsp+0]
	#DEBUG_VALUE: ParseContent:Map <- [DW_OP_plus_uconst 8] [$rsp+0]
	#DEBUG_VALUE: ParseContent:buf <- [DW_OP_LLVM_entry_value 1] $rdx
	#DEBUG_VALUE: ParseContent:bufsize <- $ebp
	#DEBUG_VALUE: ParseContent:InString <- $ecx
	#DEBUG_VALUE: ParseContent:InItem <- $edx
	#DEBUG_VALUE: ParseContent:p <- $r15
	#DEBUG_VALUE: ParseContent:bufend <- $rax
	#DEBUG_VALUE: ParseContent:i <- 0
	.loc	0 0 0                           # ldecod_src/config_common.c:0:0
	decl	%r13d
.Ltmp76:
	#DEBUG_VALUE: ParseContent:item <- $r13d
	movq	8(%rsp), %rax                   # 8-byte Reload
.Ltmp77:
	.loc	0 221 3                         # ldecod_src/config_common.c:221:3
	addq	$64, %rax
	movq	%rax, 32(%rsp)                  # 8-byte Spill
	xorl	%ebx, %ebx
	jmp	.LBB1_24
.Ltmp78:
	.p2align	4, 0x90
.LBB1_28:                               # %if.then39
                                        #   in Loop: Header=BB1_24 Depth=1
	#DEBUG_VALUE: ParseContent:p_Inp <- [DW_OP_plus_uconst 24] [$rsp+0]
	#DEBUG_VALUE: ParseContent:Map <- [DW_OP_plus_uconst 8] [$rsp+0]
	#DEBUG_VALUE: ParseContent:buf <- [DW_OP_LLVM_entry_value 1] $rdx
	#DEBUG_VALUE: ParseContent:bufsize <- [DW_OP_LLVM_entry_value 1] $ecx
	#DEBUG_VALUE: ParseContent:item <- $r13d
	#DEBUG_VALUE: ParseContent:i <- $ebx
	.loc	0 227 7 is_stmt 1               # ldecod_src/config_common.c:227:7
	movl	$.L.str.5, %edi
	movq	%rbp, %rsi
	xorl	%eax, %eax
	callq	printf@PLT
.Ltmp79:
	.loc	0 228 9                         # ldecod_src/config_common.c:228:9
	addl	$-2, %ebx
.Ltmp80:
	#DEBUG_VALUE: ParseContent:i <- $ebx
.LBB1_47:                               # %for.inc
                                        #   in Loop: Header=BB1_24 Depth=1
	#DEBUG_VALUE: ParseContent:p_Inp <- [DW_OP_plus_uconst 24] [$rsp+0]
	#DEBUG_VALUE: ParseContent:Map <- [DW_OP_plus_uconst 8] [$rsp+0]
	#DEBUG_VALUE: ParseContent:buf <- [DW_OP_LLVM_entry_value 1] $rdx
	#DEBUG_VALUE: ParseContent:bufsize <- [DW_OP_LLVM_entry_value 1] $ecx
	#DEBUG_VALUE: ParseContent:item <- $r13d
	#DEBUG_VALUE: ParseContent:i <- $ebx
	#DEBUG_VALUE: ParseContent:i <- $ebx
	.loc	0 221 22                        # ldecod_src/config_common.c:221:22
	addl	$3, %ebx
.Ltmp81:
	#DEBUG_VALUE: ParseContent:i <- $ebx
	.loc	0 221 14 is_stmt 0              # ldecod_src/config_common.c:221:14
	cmpl	%r13d, %ebx
.Ltmp82:
	.loc	0 221 3                         # ldecod_src/config_common.c:221:3
	jge	.LBB1_48
.Ltmp83:
.LBB1_24:                               # %for.body
                                        # =>This Loop Header: Depth=1
                                        #     Child Loop BB1_26 Depth 2
	#DEBUG_VALUE: ParseContent:p_Inp <- [DW_OP_plus_uconst 24] [$rsp+0]
	#DEBUG_VALUE: ParseContent:Map <- [DW_OP_plus_uconst 8] [$rsp+0]
	#DEBUG_VALUE: ParseContent:buf <- [DW_OP_LLVM_entry_value 1] $rdx
	#DEBUG_VALUE: ParseContent:bufsize <- [DW_OP_LLVM_entry_value 1] $ecx
	#DEBUG_VALUE: ParseContent:item <- $r13d
	#DEBUG_VALUE: ParseContent:i <- $ebx
	.loc	0 223 53 is_stmt 1              # ldecod_src/config_common.c:223:53
	movslq	%ebx, %r15
	movq	48(%rsp,%r15,8), %rbp
.Ltmp84:
	#DEBUG_VALUE: ParameterNameToMapIndex:s <- $rbp
	#DEBUG_VALUE: ParameterNameToMapIndex:Map <- [DW_OP_plus_uconst 8, DW_OP_deref] $rsp
	#DEBUG_VALUE: ParameterNameToMapIndex:i <- 0
	.loc	0 0 53 is_stmt 0                # ldecod_src/config_common.c:0:53
	movq	8(%rsp), %rax                   # 8-byte Reload
.Ltmp85:
	.loc	0 290 17 is_stmt 1              # ldecod_src/config_common.c:290:17
	movq	(%rax), %rdi
	.loc	0 290 27 is_stmt 0              # ldecod_src/config_common.c:290:27
	testq	%rdi, %rdi
	.loc	0 290 3                         # ldecod_src/config_common.c:290:3
	je	.LBB1_28
.Ltmp86:
# %bb.25:                               # %while.body.i.preheader
                                        #   in Loop: Header=BB1_24 Depth=1
	#DEBUG_VALUE: ParseContent:p_Inp <- [DW_OP_plus_uconst 24] [$rsp+0]
	#DEBUG_VALUE: ParseContent:Map <- [DW_OP_plus_uconst 8] [$rsp+0]
	#DEBUG_VALUE: ParseContent:buf <- [DW_OP_LLVM_entry_value 1] $rdx
	#DEBUG_VALUE: ParseContent:bufsize <- [DW_OP_LLVM_entry_value 1] $ecx
	#DEBUG_VALUE: ParseContent:item <- $r13d
	#DEBUG_VALUE: ParseContent:i <- $ebx
	#DEBUG_VALUE: ParameterNameToMapIndex:s <- $rbp
	#DEBUG_VALUE: ParameterNameToMapIndex:Map <- [DW_OP_plus_uconst 8, DW_OP_deref] $rsp
	#DEBUG_VALUE: ParameterNameToMapIndex:i <- 0
	.loc	0 0 3                           # ldecod_src/config_common.c:0:3
	movq	32(%rsp), %r14                  # 8-byte Reload
	xorl	%r12d, %r12d
.Ltmp87:
	.p2align	4, 0x90
.LBB1_26:                               # %while.body.i
                                        #   Parent Loop BB1_24 Depth=1
                                        # =>  This Inner Loop Header: Depth=2
	#DEBUG_VALUE: ParseContent:p_Inp <- [DW_OP_plus_uconst 24] [$rsp+0]
	#DEBUG_VALUE: ParseContent:Map <- [DW_OP_plus_uconst 8] [$rsp+0]
	#DEBUG_VALUE: ParseContent:buf <- [DW_OP_LLVM_entry_value 1] $rdx
	#DEBUG_VALUE: ParseContent:bufsize <- [DW_OP_LLVM_entry_value 1] $ecx
	#DEBUG_VALUE: ParseContent:item <- $r13d
	#DEBUG_VALUE: ParseContent:i <- $ebx
	#DEBUG_VALUE: ParameterNameToMapIndex:s <- $rbp
	#DEBUG_VALUE: ParameterNameToMapIndex:Map <- [DW_OP_plus_uconst 8, DW_OP_deref] $rsp
	#DEBUG_VALUE: ParameterNameToMapIndex:i <- $r12
	.loc	0 291 12 is_stmt 1              # ldecod_src/config_common.c:291:12
	movq	%rbp, %rsi
	callq	strcmp@PLT
.Ltmp88:
	.loc	0 291 10 is_stmt 0              # ldecod_src/config_common.c:291:10
	testl	%eax, %eax
.Ltmp89:
	.loc	0 291 9                         # ldecod_src/config_common.c:291:9
	je	.LBB1_29
.Ltmp90:
# %bb.27:                               # %if.else.i
                                        #   in Loop: Header=BB1_26 Depth=2
	#DEBUG_VALUE: ParseContent:p_Inp <- [DW_OP_plus_uconst 24] [$rsp+0]
	#DEBUG_VALUE: ParseContent:Map <- [DW_OP_plus_uconst 8] [$rsp+0]
	#DEBUG_VALUE: ParseContent:buf <- [DW_OP_LLVM_entry_value 1] $rdx
	#DEBUG_VALUE: ParseContent:bufsize <- [DW_OP_LLVM_entry_value 1] $ecx
	#DEBUG_VALUE: ParseContent:item <- $r13d
	#DEBUG_VALUE: ParseContent:i <- $ebx
	#DEBUG_VALUE: ParameterNameToMapIndex:s <- $rbp
	#DEBUG_VALUE: ParameterNameToMapIndex:Map <- [DW_OP_plus_uconst 8, DW_OP_deref] $rsp
	#DEBUG_VALUE: ParameterNameToMapIndex:i <- $r12
	.loc	0 294 8 is_stmt 1               # ldecod_src/config_common.c:294:8
	incq	%r12
.Ltmp91:
	#DEBUG_VALUE: ParameterNameToMapIndex:i <- $r12
	.loc	0 290 17                        # ldecod_src/config_common.c:290:17
	movq	(%r14), %rdi
	.loc	0 290 3 is_stmt 0               # ldecod_src/config_common.c:290:3
	addq	$64, %r14
	.loc	0 290 27                        # ldecod_src/config_common.c:290:27
	testq	%rdi, %rdi
	.loc	0 290 3                         # ldecod_src/config_common.c:290:3
	jne	.LBB1_26
	jmp	.LBB1_28
.Ltmp92:
	.p2align	4, 0x90
.LBB1_29:                               # %if.end43
                                        #   in Loop: Header=BB1_24 Depth=1
	#DEBUG_VALUE: ParseContent:p_Inp <- [DW_OP_plus_uconst 24] [$rsp+0]
	#DEBUG_VALUE: ParseContent:Map <- [DW_OP_plus_uconst 8] [$rsp+0]
	#DEBUG_VALUE: ParseContent:buf <- [DW_OP_LLVM_entry_value 1] $rdx
	#DEBUG_VALUE: ParseContent:bufsize <- [DW_OP_LLVM_entry_value 1] $ecx
	#DEBUG_VALUE: ParseContent:item <- $r13d
	#DEBUG_VALUE: ParseContent:i <- $ebx
	#DEBUG_VALUE: ParseContent:MapIdx <- [DW_OP_LLVM_convert 64 7, DW_OP_LLVM_convert 32 7, DW_OP_stack_value] $r12
	.loc	0 231 22 is_stmt 1              # ldecod_src/config_common.c:231:22
	movq	56(%rsp,%r15,8), %rcx
	movzbl	(%rcx), %eax
	subl	$61, %eax
	jne	.LBB1_31
.Ltmp93:
# %bb.30:                               # %sub_1
                                        #   in Loop: Header=BB1_24 Depth=1
	#DEBUG_VALUE: ParseContent:p_Inp <- [DW_OP_plus_uconst 24] [$rsp+0]
	#DEBUG_VALUE: ParseContent:Map <- [DW_OP_plus_uconst 8] [$rsp+0]
	#DEBUG_VALUE: ParseContent:buf <- [DW_OP_LLVM_entry_value 1] $rdx
	#DEBUG_VALUE: ParseContent:bufsize <- [DW_OP_LLVM_entry_value 1] $ecx
	#DEBUG_VALUE: ParseContent:item <- $r13d
	#DEBUG_VALUE: ParseContent:i <- $ebx
	#DEBUG_VALUE: ParseContent:MapIdx <- [DW_OP_LLVM_convert 64 7, DW_OP_LLVM_convert 32 7, DW_OP_stack_value] $r12
	.loc	0 0 22 is_stmt 0                # ldecod_src/config_common.c:0:22
	movzbl	1(%rcx), %eax
.Ltmp94:
.LBB1_31:                               # %if.end43.tail
                                        #   in Loop: Header=BB1_24 Depth=1
	#DEBUG_VALUE: ParseContent:p_Inp <- [DW_OP_plus_uconst 24] [$rsp+0]
	#DEBUG_VALUE: ParseContent:Map <- [DW_OP_plus_uconst 8] [$rsp+0]
	#DEBUG_VALUE: ParseContent:buf <- [DW_OP_LLVM_entry_value 1] $rdx
	#DEBUG_VALUE: ParseContent:bufsize <- [DW_OP_LLVM_entry_value 1] $ecx
	#DEBUG_VALUE: ParseContent:item <- $r13d
	#DEBUG_VALUE: ParseContent:i <- $ebx
	#DEBUG_VALUE: ParseContent:MapIdx <- [DW_OP_LLVM_convert 64 7, DW_OP_LLVM_convert 32 7, DW_OP_stack_value] $r12
	negl	%eax
	.loc	0 231 9                         # ldecod_src/config_common.c:231:9
	testl	%eax, %eax
.Ltmp95:
	.loc	0 231 9                         # ldecod_src/config_common.c:231:9
	je	.LBB1_33
.Ltmp96:
# %bb.32:                               # %if.then48
                                        #   in Loop: Header=BB1_24 Depth=1
	#DEBUG_VALUE: ParseContent:p_Inp <- [DW_OP_plus_uconst 24] [$rsp+0]
	#DEBUG_VALUE: ParseContent:Map <- [DW_OP_plus_uconst 8] [$rsp+0]
	#DEBUG_VALUE: ParseContent:buf <- [DW_OP_LLVM_entry_value 1] $rdx
	#DEBUG_VALUE: ParseContent:bufsize <- [DW_OP_LLVM_entry_value 1] $ecx
	#DEBUG_VALUE: ParseContent:item <- $r13d
	#DEBUG_VALUE: ParseContent:i <- $ebx
	#DEBUG_VALUE: ParseContent:MapIdx <- [DW_OP_LLVM_convert 64 7, DW_OP_LLVM_convert 32 7, DW_OP_stack_value] $r12
	.loc	0 233 7 is_stmt 1               # ldecod_src/config_common.c:233:7
	movups	.L.str.7+62(%rip), %xmm0
	movq	errortext@GOTPCREL(%rip), %rdi
	movups	%xmm0, 62(%rdi)
	movups	.L.str.7+48(%rip), %xmm0
	movaps	%xmm0, 48(%rdi)
	movups	.L.str.7+32(%rip), %xmm0
	movaps	%xmm0, 32(%rdi)
	movups	.L.str.7+16(%rip), %xmm0
	movaps	%xmm0, 16(%rdi)
	movups	.L.str.7(%rip), %xmm0
	movaps	%xmm0, (%rdi)
	.loc	0 234 7                         # ldecod_src/config_common.c:234:7
	movl	$300, %esi                      # imm = 0x12C
	callq	error@PLT
.Ltmp97:
.LBB1_33:                               # %if.end50
                                        #   in Loop: Header=BB1_24 Depth=1
	#DEBUG_VALUE: ParseContent:p_Inp <- [DW_OP_plus_uconst 24] [$rsp+0]
	#DEBUG_VALUE: ParseContent:Map <- [DW_OP_plus_uconst 8] [$rsp+0]
	#DEBUG_VALUE: ParseContent:buf <- [DW_OP_LLVM_entry_value 1] $rdx
	#DEBUG_VALUE: ParseContent:bufsize <- [DW_OP_LLVM_entry_value 1] $ecx
	#DEBUG_VALUE: ParseContent:item <- $r13d
	#DEBUG_VALUE: ParseContent:i <- $ebx
	#DEBUG_VALUE: ParseContent:MapIdx <- [DW_OP_LLVM_convert 64 7, DW_OP_LLVM_convert 32 7, DW_OP_stack_value] $r12
	.loc	0 239 13                        # ldecod_src/config_common.c:239:13
	movl	%r12d, %eax
	shlq	$6, %rax
	movq	8(%rsp), %rcx                   # 8-byte Reload
	leaq	(%rcx,%rax), %r12
.Ltmp98:
	.loc	0 239 25 is_stmt 0              # ldecod_src/config_common.c:239:25
	movl	16(%rcx,%rax), %eax
	.loc	0 239 5                         # ldecod_src/config_common.c:239:5
	cmpl	$2, %eax
	je	.LBB1_43
.Ltmp99:
# %bb.34:                               # %if.end50
                                        #   in Loop: Header=BB1_24 Depth=1
	#DEBUG_VALUE: ParseContent:p_Inp <- [DW_OP_plus_uconst 24] [$rsp+0]
	#DEBUG_VALUE: ParseContent:Map <- [DW_OP_plus_uconst 8] [$rsp+0]
	#DEBUG_VALUE: ParseContent:buf <- [DW_OP_LLVM_entry_value 1] $rdx
	#DEBUG_VALUE: ParseContent:bufsize <- [DW_OP_LLVM_entry_value 1] $ecx
	#DEBUG_VALUE: ParseContent:item <- $r13d
	#DEBUG_VALUE: ParseContent:i <- $ebx
	cmpl	$1, %eax
	je	.LBB1_39
.Ltmp100:
# %bb.35:                               # %if.end50
                                        #   in Loop: Header=BB1_24 Depth=1
	#DEBUG_VALUE: ParseContent:p_Inp <- [DW_OP_plus_uconst 24] [$rsp+0]
	#DEBUG_VALUE: ParseContent:Map <- [DW_OP_plus_uconst 8] [$rsp+0]
	#DEBUG_VALUE: ParseContent:buf <- [DW_OP_LLVM_entry_value 1] $rdx
	#DEBUG_VALUE: ParseContent:bufsize <- [DW_OP_LLVM_entry_value 1] $ecx
	#DEBUG_VALUE: ParseContent:item <- $r13d
	#DEBUG_VALUE: ParseContent:i <- $ebx
	testl	%eax, %eax
	jne	.LBB1_46
.Ltmp101:
# %bb.36:                               # %sw.bb53
                                        #   in Loop: Header=BB1_24 Depth=1
	#DEBUG_VALUE: ParseContent:p_Inp <- [DW_OP_plus_uconst 24] [$rsp+0]
	#DEBUG_VALUE: ParseContent:Map <- [DW_OP_plus_uconst 8] [$rsp+0]
	#DEBUG_VALUE: ParseContent:buf <- [DW_OP_LLVM_entry_value 1] $rdx
	#DEBUG_VALUE: ParseContent:bufsize <- [DW_OP_LLVM_entry_value 1] $ecx
	#DEBUG_VALUE: ParseContent:item <- $r13d
	#DEBUG_VALUE: ParseContent:i <- $ebx
	.loc	0 242 24 is_stmt 1              # ldecod_src/config_common.c:242:24
	movq	64(%rsp,%r15,8), %r15
	.loc	0 242 16 is_stmt 0              # ldecod_src/config_common.c:242:16
	movl	$.L.str.8, %esi
	movq	%r15, %rdi
	leaq	20(%rsp), %rdx
	xorl	%eax, %eax
	callq	__isoc99_sscanf@PLT
.Ltmp102:
	.loc	0 242 13                        # ldecod_src/config_common.c:242:13
	cmpl	$1, %eax
.Ltmp103:
	.loc	0 242 11                        # ldecod_src/config_common.c:242:11
	je	.LBB1_38
.Ltmp104:
# %bb.37:                               # %if.then60
                                        #   in Loop: Header=BB1_24 Depth=1
	#DEBUG_VALUE: ParseContent:p_Inp <- [DW_OP_plus_uconst 24] [$rsp+0]
	#DEBUG_VALUE: ParseContent:Map <- [DW_OP_plus_uconst 8] [$rsp+0]
	#DEBUG_VALUE: ParseContent:buf <- [DW_OP_LLVM_entry_value 1] $rdx
	#DEBUG_VALUE: ParseContent:bufsize <- [DW_OP_LLVM_entry_value 1] $ecx
	#DEBUG_VALUE: ParseContent:item <- $r13d
	#DEBUG_VALUE: ParseContent:i <- $ebx
	.loc	0 244 9 is_stmt 1               # ldecod_src/config_common.c:244:9
	movl	$300, %esi                      # imm = 0x12C
	movl	$.L.str.9, %edx
	movq	errortext@GOTPCREL(%rip), %r14
	movq	%r14, %rdi
	movq	%rbp, %rcx
	movq	%r15, %r8
	xorl	%eax, %eax
	callq	snprintf@PLT
.Ltmp105:
	.loc	0 245 9                         # ldecod_src/config_common.c:245:9
	movq	%r14, %rdi
	movl	$300, %esi                      # imm = 0x12C
	callq	error@PLT
.Ltmp106:
.LBB1_38:                               # %if.end67
                                        #   in Loop: Header=BB1_24 Depth=1
	#DEBUG_VALUE: ParseContent:p_Inp <- [DW_OP_plus_uconst 24] [$rsp+0]
	#DEBUG_VALUE: ParseContent:Map <- [DW_OP_plus_uconst 8] [$rsp+0]
	#DEBUG_VALUE: ParseContent:buf <- [DW_OP_LLVM_entry_value 1] $rdx
	#DEBUG_VALUE: ParseContent:bufsize <- [DW_OP_LLVM_entry_value 1] $ecx
	#DEBUG_VALUE: ParseContent:item <- $r13d
	#DEBUG_VALUE: ParseContent:i <- $ebx
	.loc	0 247 39                        # ldecod_src/config_common.c:247:39
	movl	20(%rsp), %eax
	.loc	0 247 30 is_stmt 0              # ldecod_src/config_common.c:247:30
	movq	8(%r12), %rcx
	.loc	0 247 37                        # ldecod_src/config_common.c:247:37
	movl	%eax, (%rcx)
	.loc	0 248 7 is_stmt 1               # ldecod_src/config_common.c:248:7
	jmp	.LBB1_42
.Ltmp107:
.LBB1_39:                               # %sw.bb71
                                        #   in Loop: Header=BB1_24 Depth=1
	#DEBUG_VALUE: ParseContent:p_Inp <- [DW_OP_plus_uconst 24] [$rsp+0]
	#DEBUG_VALUE: ParseContent:Map <- [DW_OP_plus_uconst 8] [$rsp+0]
	#DEBUG_VALUE: ParseContent:buf <- [DW_OP_LLVM_entry_value 1] $rdx
	#DEBUG_VALUE: ParseContent:bufsize <- [DW_OP_LLVM_entry_value 1] $ecx
	#DEBUG_VALUE: ParseContent:item <- $r13d
	#DEBUG_VALUE: ParseContent:i <- $ebx
	.loc	0 251 11                        # ldecod_src/config_common.c:251:11
	movq	64(%rsp,%r15,8), %rsi
	.loc	0 0 0 is_stmt 0                 # ldecod_src/config_common.c:0:0
	movq	8(%r12), %rdi
	movslq	56(%r12), %rdx
	.loc	0 251 24                        # ldecod_src/config_common.c:251:24
	testq	%rsi, %rsi
.Ltmp108:
	.loc	0 251 11                        # ldecod_src/config_common.c:251:11
	je	.LBB1_40
.Ltmp109:
# %bb.41:                               # %if.else84
                                        #   in Loop: Header=BB1_24 Depth=1
	#DEBUG_VALUE: ParseContent:p_Inp <- [DW_OP_plus_uconst 24] [$rsp+0]
	#DEBUG_VALUE: ParseContent:Map <- [DW_OP_plus_uconst 8] [$rsp+0]
	#DEBUG_VALUE: ParseContent:buf <- [DW_OP_LLVM_entry_value 1] $rdx
	#DEBUG_VALUE: ParseContent:bufsize <- [DW_OP_LLVM_entry_value 1] $ecx
	#DEBUG_VALUE: ParseContent:item <- $r13d
	#DEBUG_VALUE: ParseContent:i <- $ebx
	.loc	0 254 9 is_stmt 1               # ldecod_src/config_common.c:254:9
	callq	strncpy@PLT
.Ltmp110:
	.loc	0 0 9 is_stmt 0                 # ldecod_src/config_common.c:0:9
	jmp	.LBB1_42
.Ltmp111:
.LBB1_43:                               # %sw.bb98
                                        #   in Loop: Header=BB1_24 Depth=1
	#DEBUG_VALUE: ParseContent:p_Inp <- [DW_OP_plus_uconst 24] [$rsp+0]
	#DEBUG_VALUE: ParseContent:Map <- [DW_OP_plus_uconst 8] [$rsp+0]
	#DEBUG_VALUE: ParseContent:buf <- [DW_OP_LLVM_entry_value 1] $rdx
	#DEBUG_VALUE: ParseContent:bufsize <- [DW_OP_LLVM_entry_value 1] $ecx
	#DEBUG_VALUE: ParseContent:item <- $r13d
	#DEBUG_VALUE: ParseContent:i <- $ebx
	.loc	0 258 24 is_stmt 1              # ldecod_src/config_common.c:258:24
	movq	64(%rsp,%r15,8), %r15
	.loc	0 258 16 is_stmt 0              # ldecod_src/config_common.c:258:16
	movl	$.L.str.11, %esi
	movq	%r15, %rdi
	leaq	40(%rsp), %rdx
	xorl	%eax, %eax
	callq	__isoc99_sscanf@PLT
.Ltmp112:
	.loc	0 258 13                        # ldecod_src/config_common.c:258:13
	cmpl	$1, %eax
.Ltmp113:
	.loc	0 258 11                        # ldecod_src/config_common.c:258:11
	je	.LBB1_45
.Ltmp114:
# %bb.44:                               # %if.then105
                                        #   in Loop: Header=BB1_24 Depth=1
	#DEBUG_VALUE: ParseContent:p_Inp <- [DW_OP_plus_uconst 24] [$rsp+0]
	#DEBUG_VALUE: ParseContent:Map <- [DW_OP_plus_uconst 8] [$rsp+0]
	#DEBUG_VALUE: ParseContent:buf <- [DW_OP_LLVM_entry_value 1] $rdx
	#DEBUG_VALUE: ParseContent:bufsize <- [DW_OP_LLVM_entry_value 1] $ecx
	#DEBUG_VALUE: ParseContent:item <- $r13d
	#DEBUG_VALUE: ParseContent:i <- $ebx
	.loc	0 260 9 is_stmt 1               # ldecod_src/config_common.c:260:9
	movl	$300, %esi                      # imm = 0x12C
	movl	$.L.str.9, %edx
	movq	errortext@GOTPCREL(%rip), %r14
	movq	%r14, %rdi
	movq	%rbp, %rcx
	movq	%r15, %r8
	xorl	%eax, %eax
	callq	snprintf@PLT
.Ltmp115:
	.loc	0 261 9                         # ldecod_src/config_common.c:261:9
	movq	%r14, %rdi
	movl	$300, %esi                      # imm = 0x12C
	callq	error@PLT
.Ltmp116:
.LBB1_45:                               # %if.end112
                                        #   in Loop: Header=BB1_24 Depth=1
	#DEBUG_VALUE: ParseContent:p_Inp <- [DW_OP_plus_uconst 24] [$rsp+0]
	#DEBUG_VALUE: ParseContent:Map <- [DW_OP_plus_uconst 8] [$rsp+0]
	#DEBUG_VALUE: ParseContent:buf <- [DW_OP_LLVM_entry_value 1] $rdx
	#DEBUG_VALUE: ParseContent:bufsize <- [DW_OP_LLVM_entry_value 1] $ecx
	#DEBUG_VALUE: ParseContent:item <- $r13d
	#DEBUG_VALUE: ParseContent:i <- $ebx
	.loc	0 263 42                        # ldecod_src/config_common.c:263:42
	movsd	40(%rsp), %xmm0                 # xmm0 = mem[0],zero
	.loc	0 263 33 is_stmt 0              # ldecod_src/config_common.c:263:33
	movq	8(%r12), %rax
	.loc	0 263 40                        # ldecod_src/config_common.c:263:40
	movsd	%xmm0, (%rax)
	.loc	0 264 7 is_stmt 1               # ldecod_src/config_common.c:264:7
	jmp	.LBB1_42
.Ltmp117:
.LBB1_46:                               # %sw.default117
                                        #   in Loop: Header=BB1_24 Depth=1
	#DEBUG_VALUE: ParseContent:p_Inp <- [DW_OP_plus_uconst 24] [$rsp+0]
	#DEBUG_VALUE: ParseContent:Map <- [DW_OP_plus_uconst 8] [$rsp+0]
	#DEBUG_VALUE: ParseContent:buf <- [DW_OP_LLVM_entry_value 1] $rdx
	#DEBUG_VALUE: ParseContent:bufsize <- [DW_OP_LLVM_entry_value 1] $ecx
	#DEBUG_VALUE: ParseContent:item <- $r13d
	#DEBUG_VALUE: ParseContent:i <- $ebx
	.loc	0 267 7                         # ldecod_src/config_common.c:267:7
	movl	$.L.str.12, %edi
	movl	$-1, %esi
	callq	error@PLT
.Ltmp118:
	.loc	0 0 7 is_stmt 0                 # ldecod_src/config_common.c:0:7
	jmp	.LBB1_47
.Ltmp119:
.LBB1_40:                               # %if.then77
                                        #   in Loop: Header=BB1_24 Depth=1
	#DEBUG_VALUE: ParseContent:p_Inp <- [DW_OP_plus_uconst 24] [$rsp+0]
	#DEBUG_VALUE: ParseContent:Map <- [DW_OP_plus_uconst 8] [$rsp+0]
	#DEBUG_VALUE: ParseContent:buf <- [DW_OP_LLVM_entry_value 1] $rdx
	#DEBUG_VALUE: ParseContent:bufsize <- [DW_OP_LLVM_entry_value 1] $ecx
	#DEBUG_VALUE: ParseContent:item <- $r13d
	#DEBUG_VALUE: ParseContent:i <- $ebx
	.loc	0 252 9 is_stmt 1               # ldecod_src/config_common.c:252:9
	xorl	%esi, %esi
	callq	memset@PLT
.Ltmp120:
	.p2align	4, 0x90
.LBB1_42:                               # %if.end96
                                        #   in Loop: Header=BB1_24 Depth=1
	#DEBUG_VALUE: ParseContent:p_Inp <- [DW_OP_plus_uconst 24] [$rsp+0]
	#DEBUG_VALUE: ParseContent:Map <- [DW_OP_plus_uconst 8] [$rsp+0]
	#DEBUG_VALUE: ParseContent:buf <- [DW_OP_LLVM_entry_value 1] $rdx
	#DEBUG_VALUE: ParseContent:bufsize <- [DW_OP_LLVM_entry_value 1] $ecx
	#DEBUG_VALUE: ParseContent:item <- $r13d
	#DEBUG_VALUE: ParseContent:i <- $ebx
	.loc	0 0 0 is_stmt 0                 # ldecod_src/config_common.c:0:0
	movl	$46, %edi
	callq	putchar@PLT
.Ltmp121:
	.loc	0 256 7 is_stmt 1               # ldecod_src/config_common.c:256:7
	jmp	.LBB1_47
.Ltmp122:
.LBB1_48:                               # %for.end
	#DEBUG_VALUE: ParseContent:p_Inp <- [DW_OP_plus_uconst 24] [$rsp+0]
	#DEBUG_VALUE: ParseContent:Map <- [DW_OP_plus_uconst 8] [$rsp+0]
	#DEBUG_VALUE: ParseContent:buf <- [DW_OP_LLVM_entry_value 1] $rdx
	#DEBUG_VALUE: ParseContent:bufsize <- [DW_OP_LLVM_entry_value 1] $ecx
	.loc	0 270 12                        # ldecod_src/config_common.c:270:12
	movl	$cfgparams, %esi
	movl	$4016, %edx                     # imm = 0xFB0
	movq	24(%rsp), %rdi                  # 8-byte Reload
	callq	memcpy@PLT
.Ltmp123:
	.loc	0 271 1 epilogue_begin          # ldecod_src/config_common.c:271:1
	addq	$80056, %rsp                    # imm = 0x138B8
	.cfi_def_cfa_offset 56
	popq	%rbx
	.cfi_def_cfa_offset 48
	popq	%r12
	.cfi_def_cfa_offset 40
	popq	%r13
	.cfi_def_cfa_offset 32
	popq	%r14
	.cfi_def_cfa_offset 24
	popq	%r15
	.cfi_def_cfa_offset 16
	popq	%rbp
	.cfi_def_cfa_offset 8
	retq
.Ltmp124:
.Lfunc_end1:
	.size	ParseContent, .Lfunc_end1-ParseContent
	.cfi_endproc
	.section	.rodata,"a",@progbits
	.p2align	3, 0x0
.LJTI1_0:
	.quad	.LBB1_12
	.quad	.LBB1_11
	.quad	.LBB1_18
	.quad	.LBB1_18
	.quad	.LBB1_4
	.quad	.LBB1_18
	.quad	.LBB1_18
	.quad	.LBB1_18
	.quad	.LBB1_18
	.quad	.LBB1_18
	.quad	.LBB1_18
	.quad	.LBB1_18
	.quad	.LBB1_18
	.quad	.LBB1_18
	.quad	.LBB1_18
	.quad	.LBB1_18
	.quad	.LBB1_18
	.quad	.LBB1_18
	.quad	.LBB1_18
	.quad	.LBB1_18
	.quad	.LBB1_18
	.quad	.LBB1_18
	.quad	.LBB1_18
	.quad	.LBB1_12
	.quad	.LBB1_18
	.quad	.LBB1_14
	.quad	.LBB1_5
	.file	12 "ldecod_src/inc" "config_common.h" md5 0xfd4f7fd23ee5c729db940751b9f760f9
	.file	13 "/usr/include" "string.h" md5 0xf443da8025a0b7c1498fb6c554ec788d
                                        # -- End function
	.text
	.globl	InitParams                      # -- Begin function InitParams
	.p2align	4, 0x90
	.type	InitParams,@function
InitParams:                             # @InitParams
.Lfunc_begin2:
	.cfi_startproc
# %bb.0:                                # %entry
	#DEBUG_VALUE: InitParams:Map <- $rdi
	#DEBUG_VALUE: InitParams:i <- 0
	.loc	0 310 27 prologue_end           # ldecod_src/config_common.c:310:27
	cmpq	$0, (%rdi)
	.loc	0 310 3 is_stmt 0               # ldecod_src/config_common.c:310:3
	je	.LBB2_7
.Ltmp125:
# %bb.1:                                # %while.body.preheader
	#DEBUG_VALUE: InitParams:Map <- $rdi
	#DEBUG_VALUE: InitParams:i <- 0
	addq	$8, %rdi
.Ltmp126:
	#DEBUG_VALUE: InitParams:Map <- [DW_OP_LLVM_entry_value 1] $rdi
	.loc	0 0 3                           # ldecod_src/config_common.c:0:3
	jmp	.LBB2_2
.Ltmp127:
	.p2align	4, 0x90
.LBB2_5:                                # %if.then13
                                        #   in Loop: Header=BB2_2 Depth=1
	#DEBUG_VALUE: InitParams:Map <- [DW_OP_LLVM_entry_value 1] $rdi
	.loc	0 315 42 is_stmt 1              # ldecod_src/config_common.c:315:42
	movsd	16(%rdi), %xmm0                 # xmm0 = mem[0],zero
	.loc	0 315 26 is_stmt 0              # ldecod_src/config_common.c:315:26
	movq	(%rdi), %rax
	.loc	0 315 33                        # ldecod_src/config_common.c:315:33
	movsd	%xmm0, (%rax)
.Ltmp128:
.LBB2_6:                                # %if.end20
                                        #   in Loop: Header=BB2_2 Depth=1
	#DEBUG_VALUE: InitParams:Map <- [DW_OP_LLVM_entry_value 1] $rdi
	#DEBUG_VALUE: InitParams:i <- [DW_OP_LLVM_arg 0, DW_OP_consts 8, DW_OP_LLVM_arg 1, DW_OP_plus, DW_OP_minus, DW_OP_consts 64, DW_OP_div, DW_OP_consts 1, DW_OP_plus, DW_OP_stack_value] undef, undef
	.loc	0 310 27 is_stmt 1              # ldecod_src/config_common.c:310:27
	cmpq	$0, 56(%rdi)
	.loc	0 310 3 is_stmt 0               # ldecod_src/config_common.c:310:3
	leaq	64(%rdi), %rdi
	je	.LBB2_7
.Ltmp129:
.LBB2_2:                                # %while.body
                                        # =>This Inner Loop Header: Depth=1
	#DEBUG_VALUE: InitParams:Map <- [DW_OP_LLVM_entry_value 1] $rdi
	#DEBUG_VALUE: InitParams:i <- [DW_OP_LLVM_arg 0, DW_OP_consts 8, DW_OP_LLVM_arg 1, DW_OP_plus, DW_OP_minus, DW_OP_consts 64, DW_OP_div, DW_OP_stack_value] undef, undef
	.loc	0 312 16 is_stmt 1              # ldecod_src/config_common.c:312:16
	movl	8(%rdi), %eax
.Ltmp130:
	.loc	0 312 9 is_stmt 0               # ldecod_src/config_common.c:312:9
	cmpl	$2, %eax
	je	.LBB2_5
.Ltmp131:
# %bb.3:                                # %while.body
                                        #   in Loop: Header=BB2_2 Depth=1
	#DEBUG_VALUE: InitParams:Map <- [DW_OP_LLVM_entry_value 1] $rdi
	testl	%eax, %eax
	jne	.LBB2_6
.Ltmp132:
# %bb.4:                                # %if.then
                                        #   in Loop: Header=BB2_2 Depth=1
	#DEBUG_VALUE: InitParams:Map <- [DW_OP_LLVM_entry_value 1] $rdi
	.loc	0 313 36 is_stmt 1              # ldecod_src/config_common.c:313:36
	cvttsd2si	16(%rdi), %eax
	.loc	0 313 27 is_stmt 0              # ldecod_src/config_common.c:313:27
	movq	(%rdi), %rcx
	.loc	0 313 34                        # ldecod_src/config_common.c:313:34
	movl	%eax, (%rcx)
	.loc	0 313 9                         # ldecod_src/config_common.c:313:9
	jmp	.LBB2_6
.Ltmp133:
.LBB2_7:                                # %while.end
	#DEBUG_VALUE: InitParams:Map <- [DW_OP_LLVM_entry_value 1] $rdi
	.loc	0 318 3 is_stmt 1               # ldecod_src/config_common.c:318:3
	movl	$-1, %eax
	retq
.Ltmp134:
.Lfunc_end2:
	.size	InitParams, .Lfunc_end2-InitParams
	.cfi_endproc
                                        # -- End function
	.globl	TestParams                      # -- Begin function TestParams
	.p2align	4, 0x90
	.type	TestParams,@function
TestParams:                             # @TestParams
.Lfunc_begin3:
	.cfi_startproc
# %bb.0:                                # %entry
	#DEBUG_VALUE: TestParams:Map <- $rdi
	#DEBUG_VALUE: TestParams:bitdepth_qp_scale <- $rsi
	#DEBUG_VALUE: TestParams:i <- 0
	.loc	0 333 17 prologue_end           # ldecod_src/config_common.c:333:17
	movq	(%rdi), %rcx
	.loc	0 333 27 is_stmt 0              # ldecod_src/config_common.c:333:27
	testq	%rcx, %rcx
	.loc	0 333 3                         # ldecod_src/config_common.c:333:3
	je	.LBB3_26
.Ltmp135:
# %bb.1:                                # %while.body.lr.ph
	#DEBUG_VALUE: TestParams:Map <- $rdi
	#DEBUG_VALUE: TestParams:bitdepth_qp_scale <- $rsi
	#DEBUG_VALUE: TestParams:i <- 0
	pushq	%r15
	.cfi_def_cfa_offset 16
	pushq	%r14
	.cfi_def_cfa_offset 24
	pushq	%rbx
	.cfi_def_cfa_offset 32
	.cfi_offset %rbx, -32
	.cfi_offset %r14, -24
	.cfi_offset %r15, -16
	movq	%rsi, %rbx
	movq	%rdi, %r14
	addq	$8, %r14
	movq	errortext@GOTPCREL(%rip), %r15
	jmp	.LBB3_2
.Ltmp136:
.LBB3_22:                               # %if.then160
                                        #   in Loop: Header=BB3_2 Depth=1
	#DEBUG_VALUE: TestParams:Map <- [DW_OP_LLVM_entry_value 1] $rdi
	#DEBUG_VALUE: TestParams:bitdepth_qp_scale <- $rbx
	.loc	0 0 0                           # ldecod_src/config_common.c:0:0
	movl	$300, %esi                      # imm = 0x12C
	movl	$.L.str.13, %edx
	movq	%r15, %rdi
	xorl	%eax, %eax
	callq	snprintf@PLT
.Ltmp137:
.LBB3_23:                               # %if.end169.sink.split
                                        #   in Loop: Header=BB3_2 Depth=1
	#DEBUG_VALUE: TestParams:Map <- [DW_OP_LLVM_entry_value 1] $rdi
	#DEBUG_VALUE: TestParams:bitdepth_qp_scale <- $rbx
	movq	%r15, %rdi
	movl	$400, %esi                      # imm = 0x190
	callq	error@PLT
.Ltmp138:
.LBB3_24:                               # %if.end169
                                        #   in Loop: Header=BB3_2 Depth=1
	#DEBUG_VALUE: TestParams:Map <- [DW_OP_LLVM_entry_value 1] $rdi
	#DEBUG_VALUE: TestParams:bitdepth_qp_scale <- $rbx
	#DEBUG_VALUE: TestParams:i <- [DW_OP_LLVM_arg 0, DW_OP_consts 8, DW_OP_LLVM_arg 1, DW_OP_plus, DW_OP_minus, DW_OP_consts 64, DW_OP_div, DW_OP_consts 1, DW_OP_plus, DW_OP_stack_value] undef, undef
	.loc	0 333 17                        # ldecod_src/config_common.c:333:17
	movq	56(%r14), %rcx
	.loc	0 333 3                         # ldecod_src/config_common.c:333:3
	addq	$64, %r14
	.loc	0 333 27                        # ldecod_src/config_common.c:333:27
	testq	%rcx, %rcx
	.loc	0 333 3                         # ldecod_src/config_common.c:333:3
	je	.LBB3_25
.Ltmp139:
.LBB3_2:                                # %while.body
                                        # =>This Inner Loop Header: Depth=1
	#DEBUG_VALUE: TestParams:Map <- [DW_OP_LLVM_entry_value 1] $rdi
	#DEBUG_VALUE: TestParams:bitdepth_qp_scale <- $rbx
	#DEBUG_VALUE: TestParams:i <- [DW_OP_LLVM_arg 0, DW_OP_consts 8, DW_OP_LLVM_arg 1, DW_OP_plus, DW_OP_minus, DW_OP_consts 64, DW_OP_div, DW_OP_stack_value] undef, undef
	.loc	0 335 16 is_stmt 1              # ldecod_src/config_common.c:335:16
	movl	24(%r14), %eax
.Ltmp140:
	.loc	0 335 9 is_stmt 0               # ldecod_src/config_common.c:335:9
	cmpl	$3, %eax
	je	.LBB3_17
.Ltmp141:
# %bb.3:                                # %while.body
                                        #   in Loop: Header=BB3_2 Depth=1
	#DEBUG_VALUE: TestParams:Map <- [DW_OP_LLVM_entry_value 1] $rdi
	#DEBUG_VALUE: TestParams:bitdepth_qp_scale <- $rbx
	cmpl	$2, %eax
	je	.LBB3_11
.Ltmp142:
# %bb.4:                                # %while.body
                                        #   in Loop: Header=BB3_2 Depth=1
	#DEBUG_VALUE: TestParams:Map <- [DW_OP_LLVM_entry_value 1] $rdi
	#DEBUG_VALUE: TestParams:bitdepth_qp_scale <- $rbx
	cmpl	$1, %eax
	jne	.LBB3_24
.Ltmp143:
# %bb.5:                                # %if.then
                                        #   in Loop: Header=BB3_2 Depth=1
	#DEBUG_VALUE: TestParams:Map <- [DW_OP_LLVM_entry_value 1] $rdi
	#DEBUG_VALUE: TestParams:bitdepth_qp_scale <- $rbx
	.loc	0 337 18 is_stmt 1              # ldecod_src/config_common.c:337:18
	movl	8(%r14), %eax
.Ltmp144:
	.loc	0 337 11 is_stmt 0              # ldecod_src/config_common.c:337:11
	cmpl	$2, %eax
	je	.LBB3_8
.Ltmp145:
# %bb.6:                                # %if.then
                                        #   in Loop: Header=BB3_2 Depth=1
	#DEBUG_VALUE: TestParams:Map <- [DW_OP_LLVM_entry_value 1] $rdi
	#DEBUG_VALUE: TestParams:bitdepth_qp_scale <- $rbx
	testl	%eax, %eax
	jne	.LBB3_24
.Ltmp146:
# %bb.7:                                # %if.then7
                                        #   in Loop: Header=BB3_2 Depth=1
	#DEBUG_VALUE: TestParams:Map <- [DW_OP_LLVM_entry_value 1] $rdi
	#DEBUG_VALUE: TestParams:bitdepth_qp_scale <- $rbx
	.loc	0 339 32 is_stmt 1              # ldecod_src/config_common.c:339:32
	movq	(%r14), %rax
	.loc	0 339 14 is_stmt 0              # ldecod_src/config_common.c:339:14
	movl	(%rax), %eax
	.loc	0 339 41                        # ldecod_src/config_common.c:339:41
	cvttsd2si	32(%r14), %r8d
	.loc	0 339 39                        # ldecod_src/config_common.c:339:39
	cmpl	%r8d, %eax
	setl	%dl
	.loc	0 0 0                           # ldecod_src/config_common.c:0:0
	cvttsd2si	40(%r14), %r9d
	cmpl	%r9d, %eax
	setg	%al
	.loc	0 339 64                        # ldecod_src/config_common.c:339:64
	orb	%dl, %al
	cmpb	$1, %al
	je	.LBB3_22
	jmp	.LBB3_24
.Ltmp147:
	.p2align	4, 0x90
.LBB3_11:                               # %if.then77
                                        #   in Loop: Header=BB3_2 Depth=1
	#DEBUG_VALUE: TestParams:Map <- [DW_OP_LLVM_entry_value 1] $rdi
	#DEBUG_VALUE: TestParams:bitdepth_qp_scale <- $rbx
	.loc	0 357 18 is_stmt 1              # ldecod_src/config_common.c:357:18
	movl	8(%r14), %eax
.Ltmp148:
	.loc	0 357 11 is_stmt 0              # ldecod_src/config_common.c:357:11
	cmpl	$2, %eax
	je	.LBB3_15
.Ltmp149:
# %bb.12:                               # %if.then77
                                        #   in Loop: Header=BB3_2 Depth=1
	#DEBUG_VALUE: TestParams:Map <- [DW_OP_LLVM_entry_value 1] $rdi
	#DEBUG_VALUE: TestParams:bitdepth_qp_scale <- $rbx
	testl	%eax, %eax
	jne	.LBB3_24
.Ltmp150:
# %bb.13:                               # %if.then83
                                        #   in Loop: Header=BB3_2 Depth=1
	#DEBUG_VALUE: TestParams:Map <- [DW_OP_LLVM_entry_value 1] $rdi
	#DEBUG_VALUE: TestParams:bitdepth_qp_scale <- $rbx
	.loc	0 359 41 is_stmt 1              # ldecod_src/config_common.c:359:41
	cvttsd2si	32(%r14), %r8d
	.loc	0 359 32 is_stmt 0              # ldecod_src/config_common.c:359:32
	movq	(%r14), %rax
	.loc	0 359 39                        # ldecod_src/config_common.c:359:39
	cmpl	%r8d, (%rax)
.Ltmp151:
	.loc	0 359 14                        # ldecod_src/config_common.c:359:14
	jge	.LBB3_24
.Ltmp152:
# %bb.14:                               # %if.then93
                                        #   in Loop: Header=BB3_2 Depth=1
	#DEBUG_VALUE: TestParams:Map <- [DW_OP_LLVM_entry_value 1] $rdi
	#DEBUG_VALUE: TestParams:bitdepth_qp_scale <- $rbx
	.loc	0 361 11 is_stmt 1              # ldecod_src/config_common.c:361:11
	movl	$300, %esi                      # imm = 0x12C
	movl	$.L.str.15, %edx
	movq	%r15, %rdi
	xorl	%eax, %eax
	callq	snprintf@PLT
.Ltmp153:
	.loc	0 363 9                         # ldecod_src/config_common.c:363:9
	jmp	.LBB3_23
.Ltmp154:
	.p2align	4, 0x90
.LBB3_17:                               # %if.then135
                                        #   in Loop: Header=BB3_2 Depth=1
	#DEBUG_VALUE: TestParams:Map <- [DW_OP_LLVM_entry_value 1] $rdi
	#DEBUG_VALUE: TestParams:bitdepth_qp_scale <- $rbx
	.loc	0 377 23                        # ldecod_src/config_common.c:377:23
	cmpl	$0, 8(%r14)
.Ltmp155:
	.loc	0 377 11 is_stmt 0              # ldecod_src/config_common.c:377:11
	jne	.LBB3_24
.Ltmp156:
# %bb.18:                               # %if.then141
                                        #   in Loop: Header=BB3_2 Depth=1
	#DEBUG_VALUE: TestParams:Map <- [DW_OP_LLVM_entry_value 1] $rdi
	#DEBUG_VALUE: TestParams:bitdepth_qp_scale <- $rbx
	.loc	0 0 11                          # ldecod_src/config_common.c:0:11
	testq	%rbx, %rbx
.Ltmp157:
	#DEBUG_VALUE: cur_qp <- undef
	.loc	0 380 49 is_stmt 1              # ldecod_src/config_common.c:380:49
	je	.LBB3_19
.Ltmp158:
# %bb.20:                               # %cond.true
                                        #   in Loop: Header=BB3_2 Depth=1
	#DEBUG_VALUE: TestParams:Map <- [DW_OP_LLVM_entry_value 1] $rdi
	#DEBUG_VALUE: TestParams:bitdepth_qp_scale <- $rbx
	.loc	0 380 68 is_stmt 0              # ldecod_src/config_common.c:380:68
	movl	(%rbx), %eax
	jmp	.LBB3_21
.Ltmp159:
.LBB3_15:                               # %if.then109
                                        #   in Loop: Header=BB3_2 Depth=1
	#DEBUG_VALUE: TestParams:Map <- [DW_OP_LLVM_entry_value 1] $rdi
	#DEBUG_VALUE: TestParams:bitdepth_qp_scale <- $rbx
	.loc	0 367 35 is_stmt 1              # ldecod_src/config_common.c:367:35
	movq	(%r14), %rax
	.loc	0 367 51 is_stmt 0              # ldecod_src/config_common.c:367:51
	movsd	32(%r14), %xmm0                 # xmm0 = mem[0],zero
	.loc	0 367 42                        # ldecod_src/config_common.c:367:42
	ucomisd	(%rax), %xmm0
.Ltmp160:
	.loc	0 367 14                        # ldecod_src/config_common.c:367:14
	jbe	.LBB3_24
.Ltmp161:
# %bb.16:                               # %if.then118
                                        #   in Loop: Header=BB3_2 Depth=1
	#DEBUG_VALUE: TestParams:Map <- [DW_OP_LLVM_entry_value 1] $rdi
	#DEBUG_VALUE: TestParams:bitdepth_qp_scale <- $rbx
	.loc	0 369 11 is_stmt 1              # ldecod_src/config_common.c:369:11
	movl	$300, %esi                      # imm = 0x12C
	movl	$.L.str.16, %edx
	movq	%r15, %rdi
	movb	$1, %al
	callq	snprintf@PLT
.Ltmp162:
	.loc	0 371 9                         # ldecod_src/config_common.c:371:9
	jmp	.LBB3_23
.Ltmp163:
.LBB3_8:                                # %if.then39
                                        #   in Loop: Header=BB3_2 Depth=1
	#DEBUG_VALUE: TestParams:Map <- [DW_OP_LLVM_entry_value 1] $rdi
	#DEBUG_VALUE: TestParams:bitdepth_qp_scale <- $rbx
	.loc	0 348 35                        # ldecod_src/config_common.c:348:35
	movq	(%r14), %rax
	.loc	0 348 14 is_stmt 0              # ldecod_src/config_common.c:348:14
	movsd	(%rax), %xmm2                   # xmm2 = mem[0],zero
	.loc	0 348 51                        # ldecod_src/config_common.c:348:51
	movsd	32(%r14), %xmm0                 # xmm0 = mem[0],zero
	.loc	0 348 42                        # ldecod_src/config_common.c:348:42
	ucomisd	%xmm2, %xmm0
	.loc	0 0 0                           # ldecod_src/config_common.c:0:0
	movsd	40(%r14), %xmm1                 # xmm1 = mem[0],zero
	.loc	0 348 61                        # ldecod_src/config_common.c:348:61
	ja	.LBB3_10
.Ltmp164:
# %bb.9:                                # %if.then39
                                        #   in Loop: Header=BB3_2 Depth=1
	#DEBUG_VALUE: TestParams:Map <- [DW_OP_LLVM_entry_value 1] $rdi
	#DEBUG_VALUE: TestParams:bitdepth_qp_scale <- $rbx
	ucomisd	%xmm1, %xmm2
	jbe	.LBB3_24
.Ltmp165:
.LBB3_10:                               # %if.then57
                                        #   in Loop: Header=BB3_2 Depth=1
	#DEBUG_VALUE: TestParams:Map <- [DW_OP_LLVM_entry_value 1] $rdi
	#DEBUG_VALUE: TestParams:bitdepth_qp_scale <- $rbx
	.loc	0 350 11 is_stmt 1              # ldecod_src/config_common.c:350:11
	movl	$300, %esi                      # imm = 0x12C
	movl	$.L.str.14, %edx
	movq	%r15, %rdi
	movb	$2, %al
	callq	snprintf@PLT
.Ltmp166:
	.loc	0 352 9                         # ldecod_src/config_common.c:352:9
	jmp	.LBB3_23
.Ltmp167:
.LBB3_19:                               #   in Loop: Header=BB3_2 Depth=1
	#DEBUG_VALUE: TestParams:Map <- [DW_OP_LLVM_entry_value 1] $rdi
	#DEBUG_VALUE: TestParams:bitdepth_qp_scale <- $rbx
	.loc	0 0 9 is_stmt 0                 # ldecod_src/config_common.c:0:9
	xorl	%eax, %eax
.Ltmp168:
.LBB3_21:                               # %cond.end
                                        #   in Loop: Header=BB3_2 Depth=1
	#DEBUG_VALUE: TestParams:Map <- [DW_OP_LLVM_entry_value 1] $rdi
	#DEBUG_VALUE: TestParams:bitdepth_qp_scale <- $rbx
	movq	(%r14), %rdx
	movl	(%rdx), %edx
.Ltmp169:
	#DEBUG_VALUE: cur_qp <- $edx
	.loc	0 380 0 is_stmt 1               # ldecod_src/config_common.c:380:0
	movsd	32(%r14), %xmm0                 # xmm0 = mem[0],zero
	.loc	0 380 48 is_stmt 0              # ldecod_src/config_common.c:380:48
	xorps	%xmm1, %xmm1
	cvtsi2sd	%eax, %xmm1
	.loc	0 380 46                        # ldecod_src/config_common.c:380:46
	subsd	%xmm1, %xmm0
.Ltmp170:
	#DEBUG_VALUE: min_qp <- undef
	.loc	0 381 22 is_stmt 1              # ldecod_src/config_common.c:381:22
	cvttsd2si	40(%r14), %r9d
.Ltmp171:
	#DEBUG_VALUE: max_qp <- $r9d
	.loc	0 380 22                        # ldecod_src/config_common.c:380:22
	cvttsd2si	%xmm0, %r8d
.Ltmp172:
	#DEBUG_VALUE: min_qp <- $r8d
	.loc	0 383 22                        # ldecod_src/config_common.c:383:22
	cmpl	%r8d, %edx
	setl	%al
	cmpl	%r9d, %edx
	setg	%dl
.Ltmp173:
	.loc	0 383 33 is_stmt 0              # ldecod_src/config_common.c:383:33
	orb	%al, %dl
	cmpb	$1, %dl
	je	.LBB3_22
	jmp	.LBB3_24
.Ltmp174:
.LBB3_25:
	#DEBUG_VALUE: TestParams:Map <- [DW_OP_LLVM_entry_value 1] $rdi
	#DEBUG_VALUE: TestParams:bitdepth_qp_scale <- $rbx
	.loc	0 0 33                          # ldecod_src/config_common.c:0:33
	popq	%rbx
.Ltmp175:
	#DEBUG_VALUE: TestParams:bitdepth_qp_scale <- [DW_OP_LLVM_entry_value 1] $rsi
	.cfi_def_cfa_offset 24
	popq	%r14
	.cfi_def_cfa_offset 16
	popq	%r15
	.cfi_def_cfa_offset 8
	.cfi_restore %rbx
	.cfi_restore %r14
	.cfi_restore %r15
.Ltmp176:
.LBB3_26:                               # %while.end
	#DEBUG_VALUE: TestParams:Map <- [DW_OP_LLVM_entry_value 1] $rdi
	#DEBUG_VALUE: TestParams:bitdepth_qp_scale <- [DW_OP_LLVM_entry_value 1] $rsi
	.loc	0 393 3 is_stmt 1               # ldecod_src/config_common.c:393:3
	movl	$-1, %eax
	retq
.Ltmp177:
.Lfunc_end3:
	.size	TestParams, .Lfunc_end3-TestParams
	.cfi_endproc
                                        # -- End function
	.globl	DisplayParams                   # -- Begin function DisplayParams
	.p2align	4, 0x90
	.type	DisplayParams,@function
DisplayParams:                          # @DisplayParams
.Lfunc_begin4:
	.loc	0 407 0                         # ldecod_src/config_common.c:407:0
	.cfi_startproc
# %bb.0:                                # %entry
	#DEBUG_VALUE: DisplayParams:Map <- $rdi
	#DEBUG_VALUE: DisplayParams:message <- $rsi
	pushq	%rbp
	.cfi_def_cfa_offset 16
	pushq	%r14
	.cfi_def_cfa_offset 24
	pushq	%rbx
	.cfi_def_cfa_offset 32
	.cfi_offset %rbx, -32
	.cfi_offset %r14, -24
	.cfi_offset %rbp, -16
	movq	%rsi, %r14
	movq	%rdi, %rbx
.Ltmp178:
	#DEBUG_VALUE: DisplayParams:i <- 0
	.loc	0 410 3 prologue_end            # ldecod_src/config_common.c:410:3
	movl	$.Lstr.23, %edi
.Ltmp179:
	#DEBUG_VALUE: DisplayParams:Map <- $rbx
	callq	puts@PLT
.Ltmp180:
	#DEBUG_VALUE: DisplayParams:message <- $r14
	.loc	0 0 3 is_stmt 0                 # ldecod_src/config_common.c:0:3
	xorl	%ebp, %ebp
	.loc	0 411 3 is_stmt 1               # ldecod_src/config_common.c:411:3
	movl	$.L.str.18, %edi
	movq	%r14, %rsi
	xorl	%eax, %eax
	callq	printf@PLT
.Ltmp181:
	.loc	0 412 3                         # ldecod_src/config_common.c:412:3
	movl	$.Lstr.23, %edi
	callq	puts@PLT
.Ltmp182:
	.loc	0 413 17                        # ldecod_src/config_common.c:413:17
	movq	(%rbx), %rsi
	.loc	0 413 27 is_stmt 0              # ldecod_src/config_common.c:413:27
	testq	%rsi, %rsi
	.loc	0 413 3                         # ldecod_src/config_common.c:413:3
	je	.LBB4_9
.Ltmp183:
# %bb.1:                                # %while.body.preheader
	#DEBUG_VALUE: DisplayParams:Map <- $rbx
	#DEBUG_VALUE: DisplayParams:message <- $r14
	#DEBUG_VALUE: DisplayParams:i <- 0
	addq	$8, %rbx
.Ltmp184:
	#DEBUG_VALUE: DisplayParams:Map <- [DW_OP_LLVM_entry_value 1] $rdi
	.loc	0 0 3                           # ldecod_src/config_common.c:0:3
	xorl	%ebp, %ebp
	jmp	.LBB4_2
.Ltmp185:
	.p2align	4, 0x90
.LBB4_6:                                # %if.then16
                                        #   in Loop: Header=BB4_2 Depth=1
	#DEBUG_VALUE: DisplayParams:Map <- [DW_OP_LLVM_entry_value 1] $rdi
	#DEBUG_VALUE: DisplayParams:message <- $r14
	#DEBUG_VALUE: DisplayParams:i <- $ebp
	.loc	0 418 75 is_stmt 1              # ldecod_src/config_common.c:418:75
	movq	(%rbx), %rdx
	.loc	0 418 7 is_stmt 0               # ldecod_src/config_common.c:418:7
	movl	$.L.str.20, %edi
	xorl	%eax, %eax
	callq	printf@PLT
.Ltmp186:
.LBB4_8:                                # %if.end38
                                        #   in Loop: Header=BB4_2 Depth=1
	#DEBUG_VALUE: DisplayParams:Map <- [DW_OP_LLVM_entry_value 1] $rdi
	#DEBUG_VALUE: DisplayParams:message <- $r14
	#DEBUG_VALUE: DisplayParams:i <- $ebp
	#DEBUG_VALUE: DisplayParams:i <- [DW_OP_consts 1, DW_OP_plus, DW_OP_stack_value] $ebp
	.loc	0 413 17 is_stmt 1              # ldecod_src/config_common.c:413:17
	movq	56(%rbx), %rsi
	.loc	0 413 3 is_stmt 0               # ldecod_src/config_common.c:413:3
	incl	%ebp
.Ltmp187:
	addq	$64, %rbx
	.loc	0 413 27                        # ldecod_src/config_common.c:413:27
	testq	%rsi, %rsi
	.loc	0 413 3                         # ldecod_src/config_common.c:413:3
	je	.LBB4_9
.Ltmp188:
.LBB4_2:                                # %while.body
                                        # =>This Inner Loop Header: Depth=1
	#DEBUG_VALUE: DisplayParams:Map <- [DW_OP_LLVM_entry_value 1] $rdi
	#DEBUG_VALUE: DisplayParams:message <- $r14
	#DEBUG_VALUE: DisplayParams:i <- $ebp
	.loc	0 415 16 is_stmt 1              # ldecod_src/config_common.c:415:16
	movl	8(%rbx), %eax
.Ltmp189:
	.loc	0 415 9 is_stmt 0               # ldecod_src/config_common.c:415:9
	cmpl	$2, %eax
	je	.LBB4_7
.Ltmp190:
# %bb.3:                                # %while.body
                                        #   in Loop: Header=BB4_2 Depth=1
	#DEBUG_VALUE: DisplayParams:Map <- [DW_OP_LLVM_entry_value 1] $rdi
	#DEBUG_VALUE: DisplayParams:message <- $r14
	#DEBUG_VALUE: DisplayParams:i <- $ebp
	cmpl	$1, %eax
	je	.LBB4_6
.Ltmp191:
# %bb.4:                                # %while.body
                                        #   in Loop: Header=BB4_2 Depth=1
	#DEBUG_VALUE: DisplayParams:Map <- [DW_OP_LLVM_entry_value 1] $rdi
	#DEBUG_VALUE: DisplayParams:message <- $r14
	#DEBUG_VALUE: DisplayParams:i <- $ebp
	testl	%eax, %eax
	jne	.LBB4_8
.Ltmp192:
# %bb.5:                                # %if.then
                                        #   in Loop: Header=BB4_2 Depth=1
	#DEBUG_VALUE: DisplayParams:Map <- [DW_OP_LLVM_entry_value 1] $rdi
	#DEBUG_VALUE: DisplayParams:message <- $r14
	#DEBUG_VALUE: DisplayParams:i <- $ebp
	.loc	0 416 71 is_stmt 1              # ldecod_src/config_common.c:416:71
	movq	(%rbx), %rax
	.loc	0 416 53 is_stmt 0              # ldecod_src/config_common.c:416:53
	movl	(%rax), %edx
	.loc	0 416 7                         # ldecod_src/config_common.c:416:7
	movl	$.L.str.19, %edi
	xorl	%eax, %eax
	callq	printf@PLT
.Ltmp193:
	jmp	.LBB4_8
.Ltmp194:
	.p2align	4, 0x90
.LBB4_7:                                # %if.then29
                                        #   in Loop: Header=BB4_2 Depth=1
	#DEBUG_VALUE: DisplayParams:Map <- [DW_OP_LLVM_entry_value 1] $rdi
	#DEBUG_VALUE: DisplayParams:message <- $r14
	#DEBUG_VALUE: DisplayParams:i <- $ebp
	.loc	0 420 76 is_stmt 1              # ldecod_src/config_common.c:420:76
	movq	(%rbx), %rax
	.loc	0 420 55 is_stmt 0              # ldecod_src/config_common.c:420:55
	movsd	(%rax), %xmm0                   # xmm0 = mem[0],zero
	.loc	0 420 7                         # ldecod_src/config_common.c:420:7
	movl	$.L.str.21, %edi
	movb	$1, %al
	callq	printf@PLT
.Ltmp195:
	.loc	0 0 7                           # ldecod_src/config_common.c:0:7
	jmp	.LBB4_8
.Ltmp196:
.LBB4_9:                                # %while.end
	#DEBUG_VALUE: DisplayParams:Map <- [DW_OP_LLVM_entry_value 1] $rdi
	#DEBUG_VALUE: DisplayParams:message <- $r14
	.loc	0 423 3 is_stmt 1               # ldecod_src/config_common.c:423:3
	movl	$.Lstr.23, %edi
	callq	puts@PLT
.Ltmp197:
	.loc	0 424 3                         # ldecod_src/config_common.c:424:3
	movl	%ebp, %eax
	.loc	0 424 3 epilogue_begin is_stmt 0 # ldecod_src/config_common.c:424:3
	popq	%rbx
	.cfi_def_cfa_offset 24
	popq	%r14
.Ltmp198:
	#DEBUG_VALUE: DisplayParams:message <- [DW_OP_LLVM_entry_value 1] $rsi
	.cfi_def_cfa_offset 16
	popq	%rbp
	.cfi_def_cfa_offset 8
	retq
.Ltmp199:
.Lfunc_end4:
	.size	DisplayParams, .Lfunc_end4-DisplayParams
	.cfi_endproc
                                        # -- End function
	.type	.L.str,@object                  # @.str
	.section	.rodata.str1.1,"aMS",@progbits,1
.L.str:
	.asciz	"r"
	.size	.L.str, 2

	.type	.L.str.1,@object                # @.str.1
.L.str.1:
	.asciz	"Cannot open configuration file %s."
	.size	.L.str.1, 35

	.type	.L.str.2,@object                # @.str.2
.L.str.2:
	.asciz	"Cannot fseek in configuration file %s."
	.size	.L.str.2, 39

	.type	.L.str.3,@object                # @.str.3
.L.str.3:
	.asciz	"Unreasonable Filesize %ld reported by ftell for configuration file %s."
	.size	.L.str.3, 71

	.type	.L.str.4,@object                # @.str.4
.L.str.4:
	.asciz	"GetConfigFileContent: buf"
	.size	.L.str.4, 26

	.type	.L.str.5,@object                # @.str.5
.L.str.5:
	.asciz	"\n\tParsing error in config file: Parameter Name '%s' not recognized."
	.size	.L.str.5, 68

	.type	.L.str.7,@object                # @.str.7
.L.str.7:
	.asciz	" Parsing error in config file: '=' expected as the second token in each line."
	.size	.L.str.7, 78

	.type	.L.str.8,@object                # @.str.8
.L.str.8:
	.asciz	"%d"
	.size	.L.str.8, 3

	.type	.L.str.9,@object                # @.str.9
.L.str.9:
	.asciz	" Parsing error: Expected numerical value for Parameter of %s, found '%s'."
	.size	.L.str.9, 74

	.type	.L.str.11,@object               # @.str.11
.L.str.11:
	.asciz	"%lf"
	.size	.L.str.11, 4

	.type	.L.str.12,@object               # @.str.12
.L.str.12:
	.asciz	"Unknown value type in the map definition of configfile.h"
	.size	.L.str.12, 57

	.type	cfgparams,@object               # @cfgparams
	.bss
	.globl	cfgparams
	.p2align	3, 0x0
cfgparams:
	.zero	4016
	.size	cfgparams, 4016

	.type	.L.str.13,@object               # @.str.13
	.section	.rodata.str1.1,"aMS",@progbits,1
.L.str.13:
	.asciz	"Error in input parameter %s. Check configuration file. Value should be in [%d, %d] range."
	.size	.L.str.13, 90

	.type	.L.str.14,@object               # @.str.14
.L.str.14:
	.asciz	"Error in input parameter %s. Check configuration file. Value should be in [%.2f, %.2f] range."
	.size	.L.str.14, 94

	.type	.L.str.15,@object               # @.str.15
.L.str.15:
	.asciz	"Error in input parameter %s. Check configuration file. Value should not be smaller than %d."
	.size	.L.str.15, 92

	.type	.L.str.16,@object               # @.str.16
.L.str.16:
	.asciz	"Error in input parameter %s. Check configuration file. Value should not be smaller than %2.f."
	.size	.L.str.16, 94

	.type	.L.str.18,@object               # @.str.18
.L.str.18:
	.asciz	"*               %s                   *\n"
	.size	.L.str.18, 40

	.type	.L.str.19,@object               # @.str.19
.L.str.19:
	.asciz	"Parameter %s = %d\n"
	.size	.L.str.19, 19

	.type	.L.str.20,@object               # @.str.20
.L.str.20:
	.asciz	"Parameter %s = %s\n"
	.size	.L.str.20, 19

	.type	.L.str.21,@object               # @.str.21
.L.str.21:
	.asciz	"Parameter %s = %.2f\n"
	.size	.L.str.21, 21

	.type	.Lstr.23,@object                # @str.23
.Lstr.23:
	.asciz	"******************************************************"
	.size	.Lstr.23, 55

	.section	".note.GNU-stack","",@progbits