	.text
	.file	"erc_do_p.c"
	.file	0 "/home/yjs/workspace/x264-test/src" "ldecod_src/erc_do_p.c" md5 0x77c8a761cc65c5e921be34454b48f400
	.file	1 "ldecod_src/inc" "block.h" md5 0xe90b7727b4f0f4492b5dc2d8d9d6a429
	.file	2 "ldecod_src/inc" "ifunctions.h" md5 0x279401589ed56df99e287ad9e5fc564b
	.file	3 "ldecod_src/inc" "frame.h" md5 0xfd6ca9e1c707932f749220576db72b57
	.file	4 "ldecod_src/inc" "io_video.h" md5 0x1141c07f1801ad27d87214c419749431
	.file	5 "ldecod_src/inc" "types.h" md5 0x64f87bd13f2911471c7313b4ac17e90c
	.file	6 "ldecod_src/inc" "global.h" md5 0xc4ca3c417c5616a2ff6b6266e7376fc1
	.file	7 "ldecod_src/inc" "typedefs.h" md5 0xe1393d024b72e653f4e6dbeffdb0b154
	.file	8 "ldecod_src/inc" "mbuffer.h" md5 0x1ba7faf5f978b0f36a8f480bbf7b3401
	.file	9 "ldecod_src/inc" "erc_api.h" md5 0x9f38a583d5066807e951e2b61474101e
	.globl	ercConcealInterFrame            # -- Begin function ercConcealInterFrame
	.p2align	4, 0x90
	.type	ercConcealInterFrame,@function
ercConcealInterFrame:                   # @ercConcealInterFrame
.Lfunc_begin0:
	.loc	0 76 0                          # ldecod_src/erc_do_p.c:76:0
	.cfi_startproc
# %bb.0:                                # %entry
	#DEBUG_VALUE: ercConcealInterFrame:recfr <- $rdi
	#DEBUG_VALUE: ercConcealInterFrame:object_list <- $rsi
	#DEBUG_VALUE: ercConcealInterFrame:picSizeX <- $edx
	#DEBUG_VALUE: ercConcealInterFrame:picSizeY <- $ecx
	#DEBUG_VALUE: ercConcealInterFrame:errorVar <- $r8
	#DEBUG_VALUE: ercConcealInterFrame:chroma_format_idc <- $r9d
	pushq	%rbp
	.cfi_def_cfa_offset 16
	pushq	%r15
	.cfi_def_cfa_offset 24
	pushq	%r14
	.cfi_def_cfa_offset 32
	pushq	%r13
	.cfi_def_cfa_offset 40
	pushq	%r12
	.cfi_def_cfa_offset 48
	pushq	%rbx
	.cfi_def_cfa_offset 56
	subq	$168, %rsp
	.cfi_def_cfa_offset 224
	.cfi_offset %rbx, -56
	.cfi_offset %r12, -48
	.cfi_offset %r13, -40
	.cfi_offset %r14, -32
	.cfi_offset %r15, -24
	.cfi_offset %rbp, -16
	movq	%rsi, 40(%rsp)                  # 8-byte Spill
.Ltmp0:
	#DEBUG_VALUE: ercConcealInterFrame:object_list <- [DW_OP_plus_uconst 40] [$rsp+0]
	movq	%rdi, 16(%rsp)                  # 8-byte Spill
.Ltmp1:
	#DEBUG_VALUE: ercConcealInterFrame:recfr <- [DW_OP_plus_uconst 16] [$rsp+0]
	#DEBUG_VALUE: ercConcealInterFrame:p_Vid <- undef
	#DEBUG_VALUE: ercConcealInterFrame:lastColumn <- 0
	#DEBUG_VALUE: ercConcealInterFrame:lastRow <- 0
	xorl	%eax, %eax
.Ltmp2:
	#DEBUG_VALUE: ercConcealInterFrame:lastCorruptedRow <- -1
	#DEBUG_VALUE: ercConcealInterFrame:firstCorruptedRow <- -1
	#DEBUG_VALUE: ercConcealInterFrame:currRow <- 0
	#DEBUG_VALUE: ercConcealInterFrame:areaHeight <- 0
	#DEBUG_VALUE: ercConcealInterFrame:i <- 0
	.loc	0 84 8 prologue_end             # ldecod_src/erc_do_p.c:84:8
	testq	%r8, %r8
	.loc	0 84 17 is_stmt 0               # ldecod_src/erc_do_p.c:84:17
	je	.LBB0_35
.Ltmp3:
# %bb.1:                                # %land.lhs.true
	#DEBUG_VALUE: ercConcealInterFrame:recfr <- [DW_OP_plus_uconst 16] [$rsp+0]
	#DEBUG_VALUE: ercConcealInterFrame:object_list <- [DW_OP_plus_uconst 40] [$rsp+0]
	#DEBUG_VALUE: ercConcealInterFrame:picSizeX <- $edx
	#DEBUG_VALUE: ercConcealInterFrame:picSizeY <- $ecx
	#DEBUG_VALUE: ercConcealInterFrame:errorVar <- $r8
	#DEBUG_VALUE: ercConcealInterFrame:chroma_format_idc <- $r9d
	#DEBUG_VALUE: ercConcealInterFrame:lastColumn <- 0
	#DEBUG_VALUE: ercConcealInterFrame:lastRow <- 0
	#DEBUG_VALUE: ercConcealInterFrame:lastCorruptedRow <- -1
	#DEBUG_VALUE: ercConcealInterFrame:firstCorruptedRow <- -1
	#DEBUG_VALUE: ercConcealInterFrame:currRow <- 0
	#DEBUG_VALUE: ercConcealInterFrame:areaHeight <- 0
	#DEBUG_VALUE: ercConcealInterFrame:i <- 0
	.loc	0 0 17                          # ldecod_src/erc_do_p.c:0:17
	movq	%r8, %r13
	.loc	0 84 20                         # ldecod_src/erc_do_p.c:84:20
	cmpl	$0, 64(%r8)
.Ltmp4:
	.loc	0 84 8                          # ldecod_src/erc_do_p.c:84:8
	je	.LBB0_35
.Ltmp5:
# %bb.2:                                # %if.then
	#DEBUG_VALUE: ercConcealInterFrame:recfr <- [DW_OP_plus_uconst 16] [$rsp+0]
	#DEBUG_VALUE: ercConcealInterFrame:object_list <- [DW_OP_plus_uconst 40] [$rsp+0]
	#DEBUG_VALUE: ercConcealInterFrame:picSizeX <- $edx
	#DEBUG_VALUE: ercConcealInterFrame:picSizeY <- $ecx
	#DEBUG_VALUE: ercConcealInterFrame:errorVar <- $r13
	#DEBUG_VALUE: ercConcealInterFrame:chroma_format_idc <- $r9d
	#DEBUG_VALUE: ercConcealInterFrame:lastColumn <- 0
	#DEBUG_VALUE: ercConcealInterFrame:lastRow <- 0
	#DEBUG_VALUE: ercConcealInterFrame:lastCorruptedRow <- -1
	#DEBUG_VALUE: ercConcealInterFrame:firstCorruptedRow <- -1
	#DEBUG_VALUE: ercConcealInterFrame:currRow <- 0
	#DEBUG_VALUE: ercConcealInterFrame:areaHeight <- 0
	#DEBUG_VALUE: ercConcealInterFrame:i <- 0
	.loc	0 0 8                           # ldecod_src/erc_do_p.c:0:8
	movl	$1, %eax
.Ltmp6:
	.loc	0 87 10 is_stmt 1               # ldecod_src/erc_do_p.c:87:10
	cmpl	$0, 60(%r13)
.Ltmp7:
	.loc	0 87 10 is_stmt 0               # ldecod_src/erc_do_p.c:87:10
	je	.LBB0_35
.Ltmp8:
# %bb.3:                                # %if.then4
	#DEBUG_VALUE: ercConcealInterFrame:recfr <- [DW_OP_plus_uconst 16] [$rsp+0]
	#DEBUG_VALUE: ercConcealInterFrame:object_list <- [DW_OP_plus_uconst 40] [$rsp+0]
	#DEBUG_VALUE: ercConcealInterFrame:picSizeX <- $edx
	#DEBUG_VALUE: ercConcealInterFrame:picSizeY <- $ecx
	#DEBUG_VALUE: ercConcealInterFrame:errorVar <- $r13
	#DEBUG_VALUE: ercConcealInterFrame:chroma_format_idc <- $r9d
	#DEBUG_VALUE: ercConcealInterFrame:lastColumn <- 0
	#DEBUG_VALUE: ercConcealInterFrame:lastRow <- 0
	#DEBUG_VALUE: ercConcealInterFrame:lastCorruptedRow <- -1
	#DEBUG_VALUE: ercConcealInterFrame:firstCorruptedRow <- -1
	#DEBUG_VALUE: ercConcealInterFrame:currRow <- 0
	#DEBUG_VALUE: ercConcealInterFrame:areaHeight <- 0
	#DEBUG_VALUE: ercConcealInterFrame:i <- 0
	.loc	0 0 10                          # ldecod_src/erc_do_p.c:0:10
	movl	%ecx, %ebx
	movl	%edx, %ebp
	movq	16(%rsp), %rax                  # 8-byte Reload
	movq	(%rax), %r15
.Ltmp9:
	#DEBUG_VALUE: ercConcealInterFrame:p_Vid <- $r15
	.loc	0 89 29 is_stmt 1               # ldecod_src/erc_do_p.c:89:29
	testl	%r9d, %r9d
.Ltmp10:
	.loc	0 89 11 is_stmt 0               # ldecod_src/erc_do_p.c:89:11
	je	.LBB0_5
.Ltmp11:
# %bb.4:                                # %if.then5
	#DEBUG_VALUE: ercConcealInterFrame:recfr <- [DW_OP_plus_uconst 16] [$rsp+0]
	#DEBUG_VALUE: ercConcealInterFrame:object_list <- [DW_OP_plus_uconst 40] [$rsp+0]
	#DEBUG_VALUE: ercConcealInterFrame:picSizeX <- $ebp
	#DEBUG_VALUE: ercConcealInterFrame:picSizeY <- $ebx
	#DEBUG_VALUE: ercConcealInterFrame:errorVar <- $r13
	#DEBUG_VALUE: ercConcealInterFrame:chroma_format_idc <- $r9d
	#DEBUG_VALUE: ercConcealInterFrame:p_Vid <- $r15
	#DEBUG_VALUE: ercConcealInterFrame:lastColumn <- 0
	#DEBUG_VALUE: ercConcealInterFrame:lastRow <- 0
	#DEBUG_VALUE: ercConcealInterFrame:lastCorruptedRow <- -1
	#DEBUG_VALUE: ercConcealInterFrame:firstCorruptedRow <- -1
	#DEBUG_VALUE: ercConcealInterFrame:currRow <- 0
	#DEBUG_VALUE: ercConcealInterFrame:areaHeight <- 0
	#DEBUG_VALUE: ercConcealInterFrame:i <- 0
	.loc	0 90 53 is_stmt 1               # ldecod_src/erc_do_p.c:90:53
	movl	849108(%r15), %eax
	.loc	0 90 88 is_stmt 0               # ldecod_src/erc_do_p.c:90:88
	imull	849112(%r15), %eax
	addl	%eax, %eax
	.loc	0 90 38                         # ldecod_src/erc_do_p.c:90:38
	cltq
	leaq	512(,%rax,2), %rdi
	.loc	0 90 29                         # ldecod_src/erc_do_p.c:90:29
	jmp	.LBB0_6
.Ltmp12:
.LBB0_5:                                # %if.else
	#DEBUG_VALUE: ercConcealInterFrame:recfr <- [DW_OP_plus_uconst 16] [$rsp+0]
	#DEBUG_VALUE: ercConcealInterFrame:object_list <- [DW_OP_plus_uconst 40] [$rsp+0]
	#DEBUG_VALUE: ercConcealInterFrame:picSizeX <- $ebp
	#DEBUG_VALUE: ercConcealInterFrame:picSizeY <- $ebx
	#DEBUG_VALUE: ercConcealInterFrame:errorVar <- $r13
	#DEBUG_VALUE: ercConcealInterFrame:chroma_format_idc <- $r9d
	#DEBUG_VALUE: ercConcealInterFrame:p_Vid <- $r15
	#DEBUG_VALUE: ercConcealInterFrame:lastColumn <- 0
	#DEBUG_VALUE: ercConcealInterFrame:lastRow <- 0
	#DEBUG_VALUE: ercConcealInterFrame:lastCorruptedRow <- -1
	#DEBUG_VALUE: ercConcealInterFrame:firstCorruptedRow <- -1
	#DEBUG_VALUE: ercConcealInterFrame:currRow <- 0
	#DEBUG_VALUE: ercConcealInterFrame:areaHeight <- 0
	#DEBUG_VALUE: ercConcealInterFrame:i <- 0
	.loc	0 92 29 is_stmt 1               # ldecod_src/erc_do_p.c:92:29
	movl	$512, %edi                      # imm = 0x200
.Ltmp13:
.LBB0_6:                                # %if.end
	#DEBUG_VALUE: ercConcealInterFrame:recfr <- [DW_OP_plus_uconst 16] [$rsp+0]
	#DEBUG_VALUE: ercConcealInterFrame:object_list <- [DW_OP_plus_uconst 40] [$rsp+0]
	#DEBUG_VALUE: ercConcealInterFrame:picSizeX <- $ebp
	#DEBUG_VALUE: ercConcealInterFrame:picSizeY <- $ebx
	#DEBUG_VALUE: ercConcealInterFrame:errorVar <- $r13
	#DEBUG_VALUE: ercConcealInterFrame:chroma_format_idc <- $r9d
	#DEBUG_VALUE: ercConcealInterFrame:p_Vid <- $r15
	#DEBUG_VALUE: ercConcealInterFrame:lastColumn <- 0
	#DEBUG_VALUE: ercConcealInterFrame:lastRow <- 0
	#DEBUG_VALUE: ercConcealInterFrame:lastCorruptedRow <- -1
	#DEBUG_VALUE: ercConcealInterFrame:firstCorruptedRow <- -1
	#DEBUG_VALUE: ercConcealInterFrame:currRow <- 0
	#DEBUG_VALUE: ercConcealInterFrame:areaHeight <- 0
	#DEBUG_VALUE: ercConcealInterFrame:i <- 0
	.loc	0 0 0 is_stmt 0                 # ldecod_src/erc_do_p.c:0:0
	callq	malloc@PLT
.Ltmp14:
	#DEBUG_VALUE: ercConcealInterFrame:chroma_format_idc <- [DW_OP_LLVM_entry_value 1] $r9d
	#DEBUG_VALUE: ercConcealInterFrame:predMB <- $rax
	#DEBUG_VALUE: ercConcealInterFrame:predMB <- $rax
	movq	%r15, 88(%rsp)                  # 8-byte Spill
.Ltmp15:
	#DEBUG_VALUE: ercConcealInterFrame:p_Vid <- [DW_OP_plus_uconst 88, DW_OP_deref] $rsp
	movq	%rax, 72(%rsp)                  # 8-byte Spill
.Ltmp16:
	#DEBUG_VALUE: ercConcealInterFrame:predMB <- [DW_OP_plus_uconst 72, DW_OP_deref] $rsp
	.loc	0 94 19 is_stmt 1               # ldecod_src/erc_do_p.c:94:19
	testq	%rax, %rax
.Ltmp17:
	.loc	0 94 12 is_stmt 0               # ldecod_src/erc_do_p.c:94:12
	jne	.LBB0_8
.Ltmp18:
# %bb.7:                                # %if.then11
	#DEBUG_VALUE: ercConcealInterFrame:recfr <- [DW_OP_plus_uconst 16] [$rsp+0]
	#DEBUG_VALUE: ercConcealInterFrame:object_list <- [DW_OP_plus_uconst 40] [$rsp+0]
	#DEBUG_VALUE: ercConcealInterFrame:picSizeX <- $ebp
	#DEBUG_VALUE: ercConcealInterFrame:picSizeY <- $ebx
	#DEBUG_VALUE: ercConcealInterFrame:errorVar <- $r13
	#DEBUG_VALUE: ercConcealInterFrame:chroma_format_idc <- [DW_OP_LLVM_entry_value 1] $r9d
	#DEBUG_VALUE: ercConcealInterFrame:p_Vid <- [DW_OP_plus_uconst 88, DW_OP_deref] $rsp
	#DEBUG_VALUE: ercConcealInterFrame:lastColumn <- 0
	#DEBUG_VALUE: ercConcealInterFrame:lastRow <- 0
	#DEBUG_VALUE: ercConcealInterFrame:lastCorruptedRow <- -1
	#DEBUG_VALUE: ercConcealInterFrame:firstCorruptedRow <- -1
	#DEBUG_VALUE: ercConcealInterFrame:currRow <- 0
	#DEBUG_VALUE: ercConcealInterFrame:areaHeight <- 0
	#DEBUG_VALUE: ercConcealInterFrame:i <- 0
	#DEBUG_VALUE: ercConcealInterFrame:predMB <- [DW_OP_plus_uconst 72, DW_OP_deref] $rsp
	.loc	0 94 29                         # ldecod_src/erc_do_p.c:94:29
	movl	$.L.str, %edi
	callq	no_mem_exit@PLT
.Ltmp19:
.LBB0_8:                                # %if.end12
	#DEBUG_VALUE: ercConcealInterFrame:recfr <- [DW_OP_plus_uconst 16] [$rsp+0]
	#DEBUG_VALUE: ercConcealInterFrame:object_list <- [DW_OP_plus_uconst 40] [$rsp+0]
	#DEBUG_VALUE: ercConcealInterFrame:picSizeX <- $ebp
	#DEBUG_VALUE: ercConcealInterFrame:picSizeY <- $ebx
	#DEBUG_VALUE: ercConcealInterFrame:errorVar <- $r13
	#DEBUG_VALUE: ercConcealInterFrame:chroma_format_idc <- [DW_OP_LLVM_entry_value 1] $r9d
	#DEBUG_VALUE: ercConcealInterFrame:p_Vid <- [DW_OP_plus_uconst 88, DW_OP_deref] $rsp
	#DEBUG_VALUE: ercConcealInterFrame:lastColumn <- 0
	#DEBUG_VALUE: ercConcealInterFrame:lastRow <- 0
	#DEBUG_VALUE: ercConcealInterFrame:lastCorruptedRow <- -1
	#DEBUG_VALUE: ercConcealInterFrame:firstCorruptedRow <- -1
	#DEBUG_VALUE: ercConcealInterFrame:currRow <- 0
	#DEBUG_VALUE: ercConcealInterFrame:areaHeight <- 0
	#DEBUG_VALUE: ercConcealInterFrame:i <- 0
	#DEBUG_VALUE: ercConcealInterFrame:predMB <- [DW_OP_plus_uconst 72, DW_OP_deref] $rsp
	#DEBUG_VALUE: ercConcealInterFrame:lastRow <- undef
	.loc	0 97 35 is_stmt 1               # ldecod_src/erc_do_p.c:97:35
	movl	%ebp, %edi
	sarl	$4, %edi
.Ltmp20:
	#DEBUG_VALUE: ercConcealInterFrame:lastColumn <- $edi
	#DEBUG_VALUE: ercConcealInterFrame:columnInd <- 0
	.loc	0 99 38                         # ldecod_src/erc_do_p.c:99:38
	testl	%edi, %edi
.Ltmp21:
	.loc	0 99 7 is_stmt 0                # ldecod_src/erc_do_p.c:99:7
	jle	.LBB0_34
.Ltmp22:
# %bb.9:                                # %for.body.lr.ph
	#DEBUG_VALUE: ercConcealInterFrame:recfr <- [DW_OP_plus_uconst 16] [$rsp+0]
	#DEBUG_VALUE: ercConcealInterFrame:object_list <- [DW_OP_plus_uconst 40] [$rsp+0]
	#DEBUG_VALUE: ercConcealInterFrame:picSizeX <- $ebp
	#DEBUG_VALUE: ercConcealInterFrame:picSizeY <- $ebx
	#DEBUG_VALUE: ercConcealInterFrame:errorVar <- $r13
	#DEBUG_VALUE: ercConcealInterFrame:chroma_format_idc <- [DW_OP_LLVM_entry_value 1] $r9d
	#DEBUG_VALUE: ercConcealInterFrame:p_Vid <- [DW_OP_plus_uconst 88, DW_OP_deref] $rsp
	#DEBUG_VALUE: ercConcealInterFrame:lastColumn <- $edi
	#DEBUG_VALUE: ercConcealInterFrame:lastCorruptedRow <- -1
	#DEBUG_VALUE: ercConcealInterFrame:firstCorruptedRow <- -1
	#DEBUG_VALUE: ercConcealInterFrame:currRow <- 0
	#DEBUG_VALUE: ercConcealInterFrame:areaHeight <- 0
	#DEBUG_VALUE: ercConcealInterFrame:i <- 0
	#DEBUG_VALUE: ercConcealInterFrame:predMB <- [DW_OP_plus_uconst 72, DW_OP_deref] $rsp
	#DEBUG_VALUE: ercConcealInterFrame:columnInd <- 0
	.loc	0 0 7                           # ldecod_src/erc_do_p.c:0:7
	sarl	$4, %ebx
.Ltmp23:
	#DEBUG_VALUE: ercConcealInterFrame:lastRow <- $ebx
	#DEBUG_VALUE: ercConcealInterFrame:picSizeY <- [DW_OP_LLVM_entry_value 1] $ecx
	testl	%ebx, %ebx
	jle	.LBB0_34
.Ltmp24:
# %bb.10:                               # %for.body.us.preheader
	#DEBUG_VALUE: ercConcealInterFrame:recfr <- [DW_OP_plus_uconst 16] [$rsp+0]
	#DEBUG_VALUE: ercConcealInterFrame:object_list <- [DW_OP_plus_uconst 40] [$rsp+0]
	#DEBUG_VALUE: ercConcealInterFrame:picSizeX <- $ebp
	#DEBUG_VALUE: ercConcealInterFrame:picSizeY <- [DW_OP_LLVM_entry_value 1] $ecx
	#DEBUG_VALUE: ercConcealInterFrame:errorVar <- $r13
	#DEBUG_VALUE: ercConcealInterFrame:chroma_format_idc <- [DW_OP_LLVM_entry_value 1] $r9d
	#DEBUG_VALUE: ercConcealInterFrame:p_Vid <- [DW_OP_plus_uconst 88, DW_OP_deref] $rsp
	#DEBUG_VALUE: ercConcealInterFrame:lastColumn <- $edi
	#DEBUG_VALUE: ercConcealInterFrame:lastRow <- $ebx
	#DEBUG_VALUE: ercConcealInterFrame:lastCorruptedRow <- -1
	#DEBUG_VALUE: ercConcealInterFrame:firstCorruptedRow <- -1
	#DEBUG_VALUE: ercConcealInterFrame:currRow <- 0
	#DEBUG_VALUE: ercConcealInterFrame:areaHeight <- 0
	#DEBUG_VALUE: ercConcealInterFrame:i <- 0
	#DEBUG_VALUE: ercConcealInterFrame:predMB <- [DW_OP_plus_uconst 72, DW_OP_deref] $rsp
	#DEBUG_VALUE: ercConcealInterFrame:columnInd <- 0
	movl	%ebp, %edx
	shrl	$2, %edx
	andl	$-2, %edx
	leal	(%rbx,%rbx), %eax
	movl	%eax, 36(%rsp)                  # 4-byte Spill
	leal	(%rdi,%rdi), %eax
	movl	%eax, 32(%rsp)                  # 4-byte Spill
	.loc	0 99 7                          # ldecod_src/erc_do_p.c:99:7
	movl	%ebx, %eax
	movq	%rax, 120(%rsp)                 # 8-byte Spill
	xorl	%ecx, %ecx
	movq	%rbx, 56(%rsp)                  # 8-byte Spill
.Ltmp25:
	#DEBUG_VALUE: ercConcealInterFrame:lastRow <- [DW_OP_plus_uconst 56, DW_OP_deref] $rsp
	.loc	0 0 7                           # ldecod_src/erc_do_p.c:0:7
	movl	%ebp, 4(%rsp)                   # 4-byte Spill
.Ltmp26:
	#DEBUG_VALUE: ercConcealInterFrame:picSizeX <- [DW_OP_plus_uconst 4] [$rsp+0]
	movq	%rdi, 8(%rsp)                   # 8-byte Spill
.Ltmp27:
	#DEBUG_VALUE: ercConcealInterFrame:lastColumn <- [DW_OP_plus_uconst 8, DW_OP_deref] $rsp
	movq	%rdx, 48(%rsp)                  # 8-byte Spill
	movq	%r13, 64(%rsp)                  # 8-byte Spill
.Ltmp28:
	#DEBUG_VALUE: ercConcealInterFrame:errorVar <- [DW_OP_plus_uconst 64] [$rsp+0]
	jmp	.LBB0_11
.Ltmp29:
	.p2align	4, 0x90
.LBB0_33:                               # %for.cond19.for.inc167_crit_edge.us
                                        #   in Loop: Header=BB0_11 Depth=1
	#DEBUG_VALUE: ercConcealInterFrame:recfr <- [DW_OP_plus_uconst 16] [$rsp+0]
	#DEBUG_VALUE: ercConcealInterFrame:object_list <- [DW_OP_plus_uconst 40] [$rsp+0]
	#DEBUG_VALUE: ercConcealInterFrame:picSizeX <- [DW_OP_plus_uconst 4] [$rsp+0]
	#DEBUG_VALUE: ercConcealInterFrame:picSizeY <- [DW_OP_LLVM_entry_value 1] $ecx
	#DEBUG_VALUE: ercConcealInterFrame:errorVar <- [DW_OP_plus_uconst 64] [$rsp+0]
	#DEBUG_VALUE: ercConcealInterFrame:chroma_format_idc <- [DW_OP_LLVM_entry_value 1] $r9d
	#DEBUG_VALUE: ercConcealInterFrame:p_Vid <- [DW_OP_plus_uconst 88, DW_OP_deref] $rsp
	#DEBUG_VALUE: ercConcealInterFrame:lastColumn <- [DW_OP_plus_uconst 8, DW_OP_deref] $rsp
	#DEBUG_VALUE: ercConcealInterFrame:lastRow <- [DW_OP_plus_uconst 120, DW_OP_deref] $rsp
	#DEBUG_VALUE: ercConcealInterFrame:predMB <- [DW_OP_plus_uconst 72, DW_OP_deref] $rsp
	#DEBUG_VALUE: ercConcealInterFrame:columnInd <- [DW_OP_plus_uconst 96, DW_OP_deref] $rsp
	#DEBUG_VALUE: ercConcealInterFrame:column <- [DW_OP_plus_uconst 80, DW_OP_deref] $rsp
	#DEBUG_VALUE: ercConcealInterFrame:row <- $r10d
	movq	96(%rsp), %rcx                  # 8-byte Reload
.Ltmp30:
	.loc	0 99 62                         # ldecod_src/erc_do_p.c:99:62
	incl	%ecx
.Ltmp31:
	#DEBUG_VALUE: ercConcealInterFrame:columnInd <- $ecx
	.loc	0 99 38                         # ldecod_src/erc_do_p.c:99:38
	cmpl	%edi, %ecx
.Ltmp32:
	.loc	0 99 7                          # ldecod_src/erc_do_p.c:99:7
	je	.LBB0_34
.Ltmp33:
.LBB0_11:                               # %for.body.us
                                        # =>This Loop Header: Depth=1
                                        #     Child Loop BB0_12 Depth 2
                                        #       Child Loop BB0_15 Depth 3
                                        #       Child Loop BB0_21 Depth 3
                                        #       Child Loop BB0_27 Depth 3
                                        #       Child Loop BB0_36 Depth 3
	#DEBUG_VALUE: ercConcealInterFrame:recfr <- [DW_OP_plus_uconst 16] [$rsp+0]
	#DEBUG_VALUE: ercConcealInterFrame:object_list <- [DW_OP_plus_uconst 40] [$rsp+0]
	#DEBUG_VALUE: ercConcealInterFrame:picSizeX <- [DW_OP_plus_uconst 4] [$rsp+0]
	#DEBUG_VALUE: ercConcealInterFrame:picSizeY <- [DW_OP_LLVM_entry_value 1] $ecx
	#DEBUG_VALUE: ercConcealInterFrame:errorVar <- [DW_OP_plus_uconst 64] [$rsp+0]
	#DEBUG_VALUE: ercConcealInterFrame:chroma_format_idc <- [DW_OP_LLVM_entry_value 1] $r9d
	#DEBUG_VALUE: ercConcealInterFrame:p_Vid <- [DW_OP_plus_uconst 88, DW_OP_deref] $rsp
	#DEBUG_VALUE: ercConcealInterFrame:lastColumn <- [DW_OP_plus_uconst 8, DW_OP_deref] $rsp
	#DEBUG_VALUE: ercConcealInterFrame:lastRow <- [DW_OP_plus_uconst 120, DW_OP_deref] $rsp
	#DEBUG_VALUE: ercConcealInterFrame:predMB <- [DW_OP_plus_uconst 72, DW_OP_deref] $rsp
	#DEBUG_VALUE: ercConcealInterFrame:columnInd <- $ecx
	.loc	0 102 19 is_stmt 1              # ldecod_src/erc_do_p.c:102:19
	movl	%ecx, %eax
	shrl	%eax
	movl	%eax, %esi
	notl	%esi
	addl	%edi, %esi
	movq	%rcx, 96(%rsp)                  # 8-byte Spill
.Ltmp34:
	#DEBUG_VALUE: ercConcealInterFrame:columnInd <- [DW_OP_plus_uconst 96, DW_OP_deref] $rsp
	.loc	0 102 29 is_stmt 0              # ldecod_src/erc_do_p.c:102:29
	testb	$1, %cl
	.loc	0 102 19                        # ldecod_src/erc_do_p.c:102:19
	cmovel	%eax, %esi
.Ltmp35:
	#DEBUG_VALUE: ercConcealInterFrame:column <- $esi
	#DEBUG_VALUE: ercConcealInterFrame:row <- 0
	.loc	0 0 19                          # ldecod_src/erc_do_p.c:0:19
	movq	%rsi, 80(%rsp)                  # 8-byte Spill
.Ltmp36:
	#DEBUG_VALUE: ercConcealInterFrame:column <- [DW_OP_plus_uconst 80, DW_OP_deref] $rsp
	leal	(%rsi,%rsi), %r9d
	xorl	%r10d, %r10d
	movl	%r9d, (%rsp)                    # 4-byte Spill
	jmp	.LBB0_12
.Ltmp37:
	.p2align	4, 0x90
.LBB0_13:                               #   in Loop: Header=BB0_12 Depth=2
	#DEBUG_VALUE: ercConcealInterFrame:recfr <- [DW_OP_plus_uconst 16] [$rsp+0]
	#DEBUG_VALUE: ercConcealInterFrame:object_list <- [DW_OP_plus_uconst 40] [$rsp+0]
	#DEBUG_VALUE: ercConcealInterFrame:picSizeX <- [DW_OP_plus_uconst 4] [$rsp+0]
	#DEBUG_VALUE: ercConcealInterFrame:picSizeY <- [DW_OP_LLVM_entry_value 1] $ecx
	#DEBUG_VALUE: ercConcealInterFrame:errorVar <- [DW_OP_plus_uconst 64] [$rsp+0]
	#DEBUG_VALUE: ercConcealInterFrame:chroma_format_idc <- [DW_OP_LLVM_entry_value 1] $r9d
	#DEBUG_VALUE: ercConcealInterFrame:p_Vid <- [DW_OP_plus_uconst 88, DW_OP_deref] $rsp
	#DEBUG_VALUE: ercConcealInterFrame:lastColumn <- [DW_OP_plus_uconst 8, DW_OP_deref] $rsp
	#DEBUG_VALUE: ercConcealInterFrame:lastRow <- [DW_OP_plus_uconst 120, DW_OP_deref] $rsp
	#DEBUG_VALUE: ercConcealInterFrame:predMB <- [DW_OP_plus_uconst 72, DW_OP_deref] $rsp
	#DEBUG_VALUE: ercConcealInterFrame:columnInd <- [DW_OP_plus_uconst 96, DW_OP_deref] $rsp
	#DEBUG_VALUE: ercConcealInterFrame:column <- [DW_OP_plus_uconst 80, DW_OP_deref] $rsp
	#DEBUG_VALUE: ercConcealInterFrame:row <- $r10d
	movl	%r10d, %r11d
.Ltmp38:
.LBB0_32:                               # %for.inc164.us
                                        #   in Loop: Header=BB0_12 Depth=2
	#DEBUG_VALUE: ercConcealInterFrame:recfr <- [DW_OP_plus_uconst 16] [$rsp+0]
	#DEBUG_VALUE: ercConcealInterFrame:object_list <- [DW_OP_plus_uconst 40] [$rsp+0]
	#DEBUG_VALUE: ercConcealInterFrame:picSizeX <- [DW_OP_plus_uconst 4] [$rsp+0]
	#DEBUG_VALUE: ercConcealInterFrame:picSizeY <- [DW_OP_LLVM_entry_value 1] $ecx
	#DEBUG_VALUE: ercConcealInterFrame:errorVar <- [DW_OP_plus_uconst 64] [$rsp+0]
	#DEBUG_VALUE: ercConcealInterFrame:chroma_format_idc <- [DW_OP_LLVM_entry_value 1] $r9d
	#DEBUG_VALUE: ercConcealInterFrame:p_Vid <- [DW_OP_plus_uconst 88, DW_OP_deref] $rsp
	#DEBUG_VALUE: ercConcealInterFrame:lastColumn <- [DW_OP_plus_uconst 8, DW_OP_deref] $rsp
	#DEBUG_VALUE: ercConcealInterFrame:lastRow <- [DW_OP_plus_uconst 120, DW_OP_deref] $rsp
	#DEBUG_VALUE: ercConcealInterFrame:predMB <- [DW_OP_plus_uconst 72, DW_OP_deref] $rsp
	#DEBUG_VALUE: ercConcealInterFrame:columnInd <- [DW_OP_plus_uconst 96, DW_OP_deref] $rsp
	#DEBUG_VALUE: ercConcealInterFrame:column <- [DW_OP_plus_uconst 80, DW_OP_deref] $rsp
	#DEBUG_VALUE: ercConcealInterFrame:row <- $r11d
	.loc	0 104 42 is_stmt 1              # ldecod_src/erc_do_p.c:104:42
	incl	%r11d
.Ltmp39:
	#DEBUG_VALUE: ercConcealInterFrame:row <- $r11d
	.loc	0 0 42 is_stmt 0                # ldecod_src/erc_do_p.c:0:42
	movl	%r11d, %r10d
	.loc	0 104 28                        # ldecod_src/erc_do_p.c:104:28
	cmpl	%ebx, %r11d
.Ltmp40:
	.loc	0 104 9                         # ldecod_src/erc_do_p.c:104:9
	jge	.LBB0_33
.Ltmp41:
.LBB0_12:                               # %for.body22.us
                                        #   Parent Loop BB0_11 Depth=1
                                        # =>  This Loop Header: Depth=2
                                        #       Child Loop BB0_15 Depth 3
                                        #       Child Loop BB0_21 Depth 3
                                        #       Child Loop BB0_27 Depth 3
                                        #       Child Loop BB0_36 Depth 3
	#DEBUG_VALUE: ercConcealInterFrame:recfr <- [DW_OP_plus_uconst 16] [$rsp+0]
	#DEBUG_VALUE: ercConcealInterFrame:object_list <- [DW_OP_plus_uconst 40] [$rsp+0]
	#DEBUG_VALUE: ercConcealInterFrame:picSizeX <- [DW_OP_plus_uconst 4] [$rsp+0]
	#DEBUG_VALUE: ercConcealInterFrame:picSizeY <- [DW_OP_LLVM_entry_value 1] $ecx
	#DEBUG_VALUE: ercConcealInterFrame:errorVar <- [DW_OP_plus_uconst 64] [$rsp+0]
	#DEBUG_VALUE: ercConcealInterFrame:chroma_format_idc <- [DW_OP_LLVM_entry_value 1] $r9d
	#DEBUG_VALUE: ercConcealInterFrame:p_Vid <- [DW_OP_plus_uconst 88, DW_OP_deref] $rsp
	#DEBUG_VALUE: ercConcealInterFrame:lastColumn <- [DW_OP_plus_uconst 8, DW_OP_deref] $rsp
	#DEBUG_VALUE: ercConcealInterFrame:lastRow <- [DW_OP_plus_uconst 120, DW_OP_deref] $rsp
	#DEBUG_VALUE: ercConcealInterFrame:predMB <- [DW_OP_plus_uconst 72, DW_OP_deref] $rsp
	#DEBUG_VALUE: ercConcealInterFrame:columnInd <- [DW_OP_plus_uconst 96, DW_OP_deref] $rsp
	#DEBUG_VALUE: ercConcealInterFrame:column <- [DW_OP_plus_uconst 80, DW_OP_deref] $rsp
	#DEBUG_VALUE: ercConcealInterFrame:row <- $r10d
	.loc	0 107 26 is_stmt 1              # ldecod_src/erc_do_p.c:107:26
	movq	8(%r13), %rax
	.loc	0 107 37 is_stmt 0              # ldecod_src/erc_do_p.c:107:37
	movl	%edx, %ecx
	imull	%r10d, %ecx
	addl	%r9d, %ecx
	.loc	0 107 16                        # ldecod_src/erc_do_p.c:107:16
	movslq	%ecx, %rcx
	.loc	0 107 76                        # ldecod_src/erc_do_p.c:107:76
	cmpb	$1, (%rax,%rcx)
.Ltmp42:
	.loc	0 107 16                        # ldecod_src/erc_do_p.c:107:16
	jg	.LBB0_13
.Ltmp43:
# %bb.14:                               # %for.cond34.us.preheader
                                        #   in Loop: Header=BB0_12 Depth=2
	#DEBUG_VALUE: ercConcealInterFrame:recfr <- [DW_OP_plus_uconst 16] [$rsp+0]
	#DEBUG_VALUE: ercConcealInterFrame:object_list <- [DW_OP_plus_uconst 40] [$rsp+0]
	#DEBUG_VALUE: ercConcealInterFrame:picSizeX <- [DW_OP_plus_uconst 4] [$rsp+0]
	#DEBUG_VALUE: ercConcealInterFrame:picSizeY <- [DW_OP_LLVM_entry_value 1] $ecx
	#DEBUG_VALUE: ercConcealInterFrame:errorVar <- [DW_OP_plus_uconst 64] [$rsp+0]
	#DEBUG_VALUE: ercConcealInterFrame:chroma_format_idc <- [DW_OP_LLVM_entry_value 1] $r9d
	#DEBUG_VALUE: ercConcealInterFrame:p_Vid <- [DW_OP_plus_uconst 88, DW_OP_deref] $rsp
	#DEBUG_VALUE: ercConcealInterFrame:lastColumn <- [DW_OP_plus_uconst 8, DW_OP_deref] $rsp
	#DEBUG_VALUE: ercConcealInterFrame:lastRow <- [DW_OP_plus_uconst 120, DW_OP_deref] $rsp
	#DEBUG_VALUE: ercConcealInterFrame:predMB <- [DW_OP_plus_uconst 72, DW_OP_deref] $rsp
	#DEBUG_VALUE: ercConcealInterFrame:columnInd <- [DW_OP_plus_uconst 96, DW_OP_deref] $rsp
	#DEBUG_VALUE: ercConcealInterFrame:column <- [DW_OP_plus_uconst 80, DW_OP_deref] $rsp
	#DEBUG_VALUE: ercConcealInterFrame:row <- $r10d
	.loc	0 0 0                           # ldecod_src/erc_do_p.c:0:0
	movl	%r10d, %r11d
.Ltmp44:
	.loc	0 111 13 is_stmt 1              # ldecod_src/erc_do_p.c:111:13
	movslq	%r10d, %rcx
	leal	1(%rcx), %esi
                                        # kill: def $edx killed $edx killed $rdx
	imull	%esi, %edx
	addl	%r9d, %edx
	movl	%edi, %r12d
	movq	%r10, 24(%rsp)                  # 8-byte Spill
.Ltmp45:
	#DEBUG_VALUE: ercConcealInterFrame:row <- [DW_OP_plus_uconst 24, DW_OP_deref] $rsp
	imull	%r10d, %r12d
	movq	80(%rsp), %rdi                  # 8-byte Reload
	addl	%r12d, %edi
	leal	(%rcx,%rcx), %r9d
	movl	$1, %r8d
	xorl	%ebx, %ebx
.Ltmp46:
	.p2align	4, 0x90
.LBB0_15:                               # %for.cond34.us
                                        #   Parent Loop BB0_11 Depth=1
                                        #     Parent Loop BB0_12 Depth=2
                                        # =>    This Inner Loop Header: Depth=3
	#DEBUG_VALUE: ercConcealInterFrame:recfr <- [DW_OP_plus_uconst 16] [$rsp+0]
	#DEBUG_VALUE: ercConcealInterFrame:object_list <- [DW_OP_plus_uconst 40] [$rsp+0]
	#DEBUG_VALUE: ercConcealInterFrame:picSizeX <- [DW_OP_plus_uconst 4] [$rsp+0]
	#DEBUG_VALUE: ercConcealInterFrame:picSizeY <- [DW_OP_LLVM_entry_value 1] $ecx
	#DEBUG_VALUE: ercConcealInterFrame:errorVar <- [DW_OP_plus_uconst 64] [$rsp+0]
	#DEBUG_VALUE: ercConcealInterFrame:chroma_format_idc <- [DW_OP_LLVM_entry_value 1] $r9d
	#DEBUG_VALUE: ercConcealInterFrame:p_Vid <- [DW_OP_plus_uconst 88, DW_OP_deref] $rsp
	#DEBUG_VALUE: ercConcealInterFrame:lastColumn <- [DW_OP_plus_uconst 8, DW_OP_deref] $rsp
	#DEBUG_VALUE: ercConcealInterFrame:lastRow <- [DW_OP_plus_uconst 120, DW_OP_deref] $rsp
	#DEBUG_VALUE: ercConcealInterFrame:predMB <- [DW_OP_plus_uconst 72, DW_OP_deref] $rsp
	#DEBUG_VALUE: ercConcealInterFrame:columnInd <- [DW_OP_plus_uconst 96, DW_OP_deref] $rsp
	#DEBUG_VALUE: ercConcealInterFrame:column <- [DW_OP_plus_uconst 80, DW_OP_deref] $rsp
	#DEBUG_VALUE: ercConcealInterFrame:row <- [DW_OP_plus_uconst 24, DW_OP_deref] $rsp
	.loc	0 0 13 is_stmt 0                # ldecod_src/erc_do_p.c:0:13
	movl	%esi, %ebp
.Ltmp47:
	#DEBUG_VALUE: ercConcealInterFrame:lastCorruptedRow <- [DW_OP_LLVM_arg 0, DW_OP_consts 1, DW_OP_LLVM_arg 1, DW_OP_plus_uconst 24, DW_OP_deref, DW_OP_LLVM_convert 64 5, DW_OP_plus, DW_OP_plus, DW_OP_stack_value] $rbx, $rsp
	.loc	0 111 62                        # ldecod_src/erc_do_p.c:111:62
	leaq	(%rcx,%rbx), %rsi
	incq	%rsi
	cmpq	120(%rsp), %rsi                 # 8-byte Folded Reload
.Ltmp48:
	.loc	0 111 13                        # ldecod_src/erc_do_p.c:111:13
	jge	.LBB0_42
.Ltmp49:
# %bb.16:                               # %for.body37.us
                                        #   in Loop: Header=BB0_15 Depth=3
	#DEBUG_VALUE: ercConcealInterFrame:recfr <- [DW_OP_plus_uconst 16] [$rsp+0]
	#DEBUG_VALUE: ercConcealInterFrame:object_list <- [DW_OP_plus_uconst 40] [$rsp+0]
	#DEBUG_VALUE: ercConcealInterFrame:picSizeX <- [DW_OP_plus_uconst 4] [$rsp+0]
	#DEBUG_VALUE: ercConcealInterFrame:picSizeY <- [DW_OP_LLVM_entry_value 1] $ecx
	#DEBUG_VALUE: ercConcealInterFrame:errorVar <- [DW_OP_plus_uconst 64] [$rsp+0]
	#DEBUG_VALUE: ercConcealInterFrame:chroma_format_idc <- [DW_OP_LLVM_entry_value 1] $r9d
	#DEBUG_VALUE: ercConcealInterFrame:p_Vid <- [DW_OP_plus_uconst 88, DW_OP_deref] $rsp
	#DEBUG_VALUE: ercConcealInterFrame:lastColumn <- [DW_OP_plus_uconst 8, DW_OP_deref] $rsp
	#DEBUG_VALUE: ercConcealInterFrame:lastRow <- [DW_OP_plus_uconst 120, DW_OP_deref] $rsp
	#DEBUG_VALUE: ercConcealInterFrame:lastCorruptedRow <- [DW_OP_LLVM_arg 0, DW_OP_consts 1, DW_OP_LLVM_arg 1, DW_OP_plus_uconst 24, DW_OP_deref, DW_OP_LLVM_convert 64 5, DW_OP_plus, DW_OP_plus, DW_OP_stack_value] $rbx, $rsp
	#DEBUG_VALUE: ercConcealInterFrame:predMB <- [DW_OP_plus_uconst 72, DW_OP_deref] $rsp
	#DEBUG_VALUE: ercConcealInterFrame:columnInd <- [DW_OP_plus_uconst 96, DW_OP_deref] $rsp
	#DEBUG_VALUE: ercConcealInterFrame:column <- [DW_OP_plus_uconst 80, DW_OP_deref] $rsp
	#DEBUG_VALUE: ercConcealInterFrame:row <- [DW_OP_plus_uconst 24, DW_OP_deref] $rsp
	.loc	0 0 13                          # ldecod_src/erc_do_p.c:0:13
	movl	%r8d, %r14d
	movl	%edi, %r13d
	movl	%r9d, %r15d
.Ltmp50:
	.loc	0 114 19 is_stmt 1              # ldecod_src/erc_do_p.c:114:19
	movslq	%edx, %r10
.Ltmp51:
	.loc	0 114 19 is_stmt 0              # ldecod_src/erc_do_p.c:114:19
	incq	%rbx
.Ltmp52:
	.loc	0 0 19                          # ldecod_src/erc_do_p.c:0:19
	movq	48(%rsp), %rdx                  # 8-byte Reload
	.loc	0 114 19                        # ldecod_src/erc_do_p.c:114:19
	addl	%r10d, %edx
	leal	1(%r14), %r8d
	leal	1(%rbp), %esi
	movq	8(%rsp), %rdi                   # 8-byte Reload
	addl	%r13d, %edi
	leal	2(%r15), %r9d
.Ltmp53:
	.loc	0 114 92                        # ldecod_src/erc_do_p.c:114:92
	cmpb	$2, (%rax,%r10)
.Ltmp54:
	.loc	0 114 19                        # ldecod_src/erc_do_p.c:114:19
	jl	.LBB0_15
.Ltmp55:
# %bb.17:                               # %for.end.us
                                        #   in Loop: Header=BB0_12 Depth=2
	#DEBUG_VALUE: ercConcealInterFrame:recfr <- [DW_OP_plus_uconst 16] [$rsp+0]
	#DEBUG_VALUE: ercConcealInterFrame:object_list <- [DW_OP_plus_uconst 40] [$rsp+0]
	#DEBUG_VALUE: ercConcealInterFrame:picSizeX <- [DW_OP_plus_uconst 4] [$rsp+0]
	#DEBUG_VALUE: ercConcealInterFrame:picSizeY <- [DW_OP_LLVM_entry_value 1] $ecx
	#DEBUG_VALUE: ercConcealInterFrame:errorVar <- [DW_OP_plus_uconst 64] [$rsp+0]
	#DEBUG_VALUE: ercConcealInterFrame:chroma_format_idc <- [DW_OP_LLVM_entry_value 1] $r9d
	#DEBUG_VALUE: ercConcealInterFrame:p_Vid <- [DW_OP_plus_uconst 88, DW_OP_deref] $rsp
	#DEBUG_VALUE: ercConcealInterFrame:lastColumn <- [DW_OP_plus_uconst 8, DW_OP_deref] $rsp
	#DEBUG_VALUE: ercConcealInterFrame:lastRow <- [DW_OP_plus_uconst 120, DW_OP_deref] $rsp
	#DEBUG_VALUE: ercConcealInterFrame:predMB <- [DW_OP_plus_uconst 72, DW_OP_deref] $rsp
	#DEBUG_VALUE: ercConcealInterFrame:columnInd <- [DW_OP_plus_uconst 96, DW_OP_deref] $rsp
	#DEBUG_VALUE: ercConcealInterFrame:column <- [DW_OP_plus_uconst 80, DW_OP_deref] $rsp
	#DEBUG_VALUE: ercConcealInterFrame:row <- [DW_OP_plus_uconst 24, DW_OP_deref] $rsp
	#DEBUG_VALUE: ercConcealInterFrame:lastCorruptedRow <- undef
	.loc	0 121 35 is_stmt 1              # ldecod_src/erc_do_p.c:121:35
	addq	%rbx, %rcx
	decq	%rcx
	cmpl	%ecx, 56(%rsp)                  # 4-byte Folded Reload
.Ltmp56:
	.loc	0 121 18 is_stmt 0              # ldecod_src/erc_do_p.c:121:18
	jle	.LBB0_42
.Ltmp57:
# %bb.18:                               # %if.else85.us
                                        #   in Loop: Header=BB0_12 Depth=2
	#DEBUG_VALUE: ercConcealInterFrame:recfr <- [DW_OP_plus_uconst 16] [$rsp+0]
	#DEBUG_VALUE: ercConcealInterFrame:object_list <- [DW_OP_plus_uconst 40] [$rsp+0]
	#DEBUG_VALUE: ercConcealInterFrame:picSizeX <- [DW_OP_plus_uconst 4] [$rsp+0]
	#DEBUG_VALUE: ercConcealInterFrame:picSizeY <- [DW_OP_LLVM_entry_value 1] $ecx
	#DEBUG_VALUE: ercConcealInterFrame:errorVar <- [DW_OP_plus_uconst 64] [$rsp+0]
	#DEBUG_VALUE: ercConcealInterFrame:chroma_format_idc <- [DW_OP_LLVM_entry_value 1] $r9d
	#DEBUG_VALUE: ercConcealInterFrame:p_Vid <- [DW_OP_plus_uconst 88, DW_OP_deref] $rsp
	#DEBUG_VALUE: ercConcealInterFrame:lastColumn <- [DW_OP_plus_uconst 8, DW_OP_deref] $rsp
	#DEBUG_VALUE: ercConcealInterFrame:lastRow <- [DW_OP_plus_uconst 120, DW_OP_deref] $rsp
	#DEBUG_VALUE: ercConcealInterFrame:predMB <- [DW_OP_plus_uconst 72, DW_OP_deref] $rsp
	#DEBUG_VALUE: ercConcealInterFrame:columnInd <- [DW_OP_plus_uconst 96, DW_OP_deref] $rsp
	#DEBUG_VALUE: ercConcealInterFrame:column <- [DW_OP_plus_uconst 80, DW_OP_deref] $rsp
	#DEBUG_VALUE: ercConcealInterFrame:row <- [DW_OP_plus_uconst 24, DW_OP_deref] $rsp
	.loc	0 0 18                          # ldecod_src/erc_do_p.c:0:18
	movq	24(%rsp), %r12                  # 8-byte Reload
.Ltmp58:
	.loc	0 144 41 is_stmt 1              # ldecod_src/erc_do_p.c:144:41
	testl	%r12d, %r12d
.Ltmp59:
	.loc	0 144 23 is_stmt 0              # ldecod_src/erc_do_p.c:144:23
	je	.LBB0_40
.Ltmp60:
# %bb.19:                               # %if.else120.us
                                        #   in Loop: Header=BB0_12 Depth=2
	#DEBUG_VALUE: ercConcealInterFrame:recfr <- [DW_OP_plus_uconst 16] [$rsp+0]
	#DEBUG_VALUE: ercConcealInterFrame:object_list <- [DW_OP_plus_uconst 40] [$rsp+0]
	#DEBUG_VALUE: ercConcealInterFrame:picSizeX <- [DW_OP_plus_uconst 4] [$rsp+0]
	#DEBUG_VALUE: ercConcealInterFrame:picSizeY <- [DW_OP_LLVM_entry_value 1] $ecx
	#DEBUG_VALUE: ercConcealInterFrame:errorVar <- [DW_OP_plus_uconst 64] [$rsp+0]
	#DEBUG_VALUE: ercConcealInterFrame:chroma_format_idc <- [DW_OP_LLVM_entry_value 1] $r9d
	#DEBUG_VALUE: ercConcealInterFrame:p_Vid <- [DW_OP_plus_uconst 88, DW_OP_deref] $rsp
	#DEBUG_VALUE: ercConcealInterFrame:lastColumn <- [DW_OP_plus_uconst 8, DW_OP_deref] $rsp
	#DEBUG_VALUE: ercConcealInterFrame:lastRow <- [DW_OP_plus_uconst 120, DW_OP_deref] $rsp
	#DEBUG_VALUE: ercConcealInterFrame:predMB <- [DW_OP_plus_uconst 72, DW_OP_deref] $rsp
	#DEBUG_VALUE: ercConcealInterFrame:columnInd <- [DW_OP_plus_uconst 96, DW_OP_deref] $rsp
	#DEBUG_VALUE: ercConcealInterFrame:column <- [DW_OP_plus_uconst 80, DW_OP_deref] $rsp
	#DEBUG_VALUE: ercConcealInterFrame:row <- [DW_OP_plus_uconst 24, DW_OP_deref] $rsp
	#DEBUG_VALUE: ercConcealInterFrame:row <- undef
	#DEBUG_VALUE: ercConcealInterFrame:areaHeight <- undef
	#DEBUG_VALUE: ercConcealInterFrame:i <- 0
	#DEBUG_VALUE: ercConcealInterFrame:firstCorruptedRow <- [DW_OP_plus_uconst 24, DW_OP_deref] $rsp
	#DEBUG_VALUE: ercConcealInterFrame:lastCorruptedRow <- undef
	.loc	0 0 23                          # ldecod_src/erc_do_p.c:0:23
	addq	%rbx, %r11
.Ltmp61:
	.loc	0 178 30 is_stmt 1              # ldecod_src/erc_do_p.c:178:30
	cmpl	%ecx, %r12d
	movl	(%rsp), %edx                    # 4-byte Reload
.Ltmp62:
	.loc	0 178 15 is_stmt 0              # ldecod_src/erc_do_p.c:178:15
	jle	.LBB0_26
.Ltmp63:
# %bb.20:                               # %if.else120.us.for.inc164.us_crit_edge
                                        #   in Loop: Header=BB0_12 Depth=2
	#DEBUG_VALUE: ercConcealInterFrame:recfr <- [DW_OP_plus_uconst 16] [$rsp+0]
	#DEBUG_VALUE: ercConcealInterFrame:object_list <- [DW_OP_plus_uconst 40] [$rsp+0]
	#DEBUG_VALUE: ercConcealInterFrame:picSizeX <- [DW_OP_plus_uconst 4] [$rsp+0]
	#DEBUG_VALUE: ercConcealInterFrame:picSizeY <- [DW_OP_LLVM_entry_value 1] $ecx
	#DEBUG_VALUE: ercConcealInterFrame:errorVar <- [DW_OP_plus_uconst 64] [$rsp+0]
	#DEBUG_VALUE: ercConcealInterFrame:chroma_format_idc <- [DW_OP_LLVM_entry_value 1] $r9d
	#DEBUG_VALUE: ercConcealInterFrame:p_Vid <- [DW_OP_plus_uconst 88, DW_OP_deref] $rsp
	#DEBUG_VALUE: ercConcealInterFrame:lastColumn <- [DW_OP_plus_uconst 8, DW_OP_deref] $rsp
	#DEBUG_VALUE: ercConcealInterFrame:lastRow <- [DW_OP_plus_uconst 120, DW_OP_deref] $rsp
	#DEBUG_VALUE: ercConcealInterFrame:firstCorruptedRow <- [DW_OP_plus_uconst 24, DW_OP_deref] $rsp
	#DEBUG_VALUE: ercConcealInterFrame:i <- 0
	#DEBUG_VALUE: ercConcealInterFrame:predMB <- [DW_OP_plus_uconst 72, DW_OP_deref] $rsp
	#DEBUG_VALUE: ercConcealInterFrame:columnInd <- [DW_OP_plus_uconst 96, DW_OP_deref] $rsp
	#DEBUG_VALUE: ercConcealInterFrame:column <- [DW_OP_plus_uconst 80, DW_OP_deref] $rsp
	.loc	0 0 15                          # ldecod_src/erc_do_p.c:0:15
	movl	%edx, %r9d
	movq	64(%rsp), %r13                  # 8-byte Reload
	movq	56(%rsp), %rbx                  # 8-byte Reload
	movq	8(%rsp), %rdi                   # 8-byte Reload
	movq	48(%rsp), %rdx                  # 8-byte Reload
.Ltmp64:
	.loc	0 125 15 is_stmt 1              # ldecod_src/erc_do_p.c:125:15
	jmp	.LBB0_32
.Ltmp65:
	.p2align	4, 0x90
.LBB0_42:                               # %for.cond57.preheader.us
                                        #   in Loop: Header=BB0_12 Depth=2
	#DEBUG_VALUE: ercConcealInterFrame:recfr <- [DW_OP_plus_uconst 16] [$rsp+0]
	#DEBUG_VALUE: ercConcealInterFrame:object_list <- [DW_OP_plus_uconst 40] [$rsp+0]
	#DEBUG_VALUE: ercConcealInterFrame:picSizeX <- [DW_OP_plus_uconst 4] [$rsp+0]
	#DEBUG_VALUE: ercConcealInterFrame:picSizeY <- [DW_OP_LLVM_entry_value 1] $ecx
	#DEBUG_VALUE: ercConcealInterFrame:errorVar <- [DW_OP_plus_uconst 64] [$rsp+0]
	#DEBUG_VALUE: ercConcealInterFrame:chroma_format_idc <- [DW_OP_LLVM_entry_value 1] $r9d
	#DEBUG_VALUE: ercConcealInterFrame:p_Vid <- [DW_OP_plus_uconst 88, DW_OP_deref] $rsp
	#DEBUG_VALUE: ercConcealInterFrame:lastColumn <- [DW_OP_plus_uconst 8, DW_OP_deref] $rsp
	#DEBUG_VALUE: ercConcealInterFrame:lastRow <- [DW_OP_plus_uconst 120, DW_OP_deref] $rsp
	#DEBUG_VALUE: ercConcealInterFrame:predMB <- [DW_OP_plus_uconst 72, DW_OP_deref] $rsp
	#DEBUG_VALUE: ercConcealInterFrame:columnInd <- [DW_OP_plus_uconst 96, DW_OP_deref] $rsp
	#DEBUG_VALUE: ercConcealInterFrame:column <- [DW_OP_plus_uconst 80, DW_OP_deref] $rsp
	#DEBUG_VALUE: ercConcealInterFrame:row <- [DW_OP_plus_uconst 24, DW_OP_deref] $rsp
	#DEBUG_VALUE: ercConcealInterFrame:currRow <- [DW_OP_plus_uconst 24, DW_OP_deref] $rsp
	.loc	0 0 15 is_stmt 0                # ldecod_src/erc_do_p.c:0:15
	movq	56(%rsp), %rbx                  # 8-byte Reload
.Ltmp66:
	.loc	0 125 58                        # ldecod_src/erc_do_p.c:125:58
	cmpl	%ebx, %r11d
	movl	%ebx, %r11d
	movq	64(%rsp), %r13                  # 8-byte Reload
	movl	4(%rsp), %ebp                   # 4-byte Reload
	movq	8(%rsp), %rdi                   # 8-byte Reload
	movq	48(%rsp), %rdx                  # 8-byte Reload
	movl	(%rsp), %r9d                    # 4-byte Reload
.Ltmp67:
	.loc	0 125 15                        # ldecod_src/erc_do_p.c:125:15
	jge	.LBB0_32
.Ltmp68:
# %bb.43:                               # %for.body60.us.preheader
                                        #   in Loop: Header=BB0_12 Depth=2
	#DEBUG_VALUE: ercConcealInterFrame:recfr <- [DW_OP_plus_uconst 16] [$rsp+0]
	#DEBUG_VALUE: ercConcealInterFrame:object_list <- [DW_OP_plus_uconst 40] [$rsp+0]
	#DEBUG_VALUE: ercConcealInterFrame:picSizeX <- [DW_OP_plus_uconst 4] [$rsp+0]
	#DEBUG_VALUE: ercConcealInterFrame:picSizeY <- [DW_OP_LLVM_entry_value 1] $ecx
	#DEBUG_VALUE: ercConcealInterFrame:errorVar <- [DW_OP_plus_uconst 64] [$rsp+0]
	#DEBUG_VALUE: ercConcealInterFrame:chroma_format_idc <- [DW_OP_LLVM_entry_value 1] $r9d
	#DEBUG_VALUE: ercConcealInterFrame:p_Vid <- [DW_OP_plus_uconst 88, DW_OP_deref] $rsp
	#DEBUG_VALUE: ercConcealInterFrame:lastColumn <- [DW_OP_plus_uconst 8, DW_OP_deref] $rsp
	#DEBUG_VALUE: ercConcealInterFrame:lastRow <- [DW_OP_plus_uconst 120, DW_OP_deref] $rsp
	#DEBUG_VALUE: ercConcealInterFrame:currRow <- [DW_OP_plus_uconst 24, DW_OP_deref] $rsp
	#DEBUG_VALUE: ercConcealInterFrame:predMB <- [DW_OP_plus_uconst 72, DW_OP_deref] $rsp
	#DEBUG_VALUE: ercConcealInterFrame:columnInd <- [DW_OP_plus_uconst 96, DW_OP_deref] $rsp
	#DEBUG_VALUE: ercConcealInterFrame:column <- [DW_OP_plus_uconst 80, DW_OP_deref] $rsp
	#DEBUG_VALUE: ercConcealInterFrame:row <- [DW_OP_plus_uconst 24, DW_OP_deref] $rsp
	addl	80(%rsp), %r12d                 # 4-byte Folded Reload
	movq	24(%rsp), %rax                  # 8-byte Reload
	leal	(%rax,%rax), %r15d
	movl	%r9d, %edx
	jmp	.LBB0_21
.Ltmp69:
	.p2align	4, 0x90
.LBB0_23:                               # %if.then69.us
                                        #   in Loop: Header=BB0_21 Depth=3
	#DEBUG_VALUE: ercConcealInterFrame:recfr <- [DW_OP_plus_uconst 16] [$rsp+0]
	#DEBUG_VALUE: ercConcealInterFrame:object_list <- [DW_OP_plus_uconst 40] [$rsp+0]
	#DEBUG_VALUE: ercConcealInterFrame:picSizeX <- [DW_OP_plus_uconst 4] [$rsp+0]
	#DEBUG_VALUE: ercConcealInterFrame:picSizeY <- [DW_OP_LLVM_entry_value 1] $ecx
	#DEBUG_VALUE: ercConcealInterFrame:errorVar <- [DW_OP_plus_uconst 64] [$rsp+0]
	#DEBUG_VALUE: ercConcealInterFrame:chroma_format_idc <- [DW_OP_LLVM_entry_value 1] $r9d
	#DEBUG_VALUE: ercConcealInterFrame:p_Vid <- [DW_OP_plus_uconst 88, DW_OP_deref] $rsp
	#DEBUG_VALUE: ercConcealInterFrame:lastColumn <- [DW_OP_plus_uconst 8, DW_OP_deref] $rsp
	#DEBUG_VALUE: ercConcealInterFrame:lastRow <- [DW_OP_plus_uconst 120, DW_OP_deref] $rsp
	#DEBUG_VALUE: ercConcealInterFrame:currRow <- [DW_OP_plus_uconst 24, DW_OP_deref] $rsp
	#DEBUG_VALUE: ercConcealInterFrame:predMB <- [DW_OP_plus_uconst 72, DW_OP_deref] $rsp
	#DEBUG_VALUE: ercConcealInterFrame:columnInd <- [DW_OP_plus_uconst 96, DW_OP_deref] $rsp
	#DEBUG_VALUE: ercConcealInterFrame:column <- [DW_OP_plus_uconst 80, DW_OP_deref] $rsp
	.loc	0 132 19 is_stmt 1              # ldecod_src/erc_do_p.c:132:19
	subq	$8, %rsp
.Ltmp70:
	.cfi_adjust_cfa_offset 8
	.loc	0 0 19 is_stmt 0                # ldecod_src/erc_do_p.c:0:19
	movq	24(%rsp), %rdi                  # 8-byte Reload
	movq	80(%rsp), %rsi                  # 8-byte Reload
	.loc	0 132 19                        # ldecod_src/erc_do_p.c:132:19
	movl	%r12d, %edx
	movq	48(%rsp), %rcx                  # 8-byte Reload
	movq	%r14, %r8
	movl	%ebp, %r9d
	pushq	8(%r13)
	.cfi_adjust_cfa_offset 8
	callq	concealByTrial
.Ltmp71:
	addq	$16, %rsp
.Ltmp72:
	.cfi_adjust_cfa_offset -16
.LBB0_24:                               # %if.end79.us
                                        #   in Loop: Header=BB0_21 Depth=3
	#DEBUG_VALUE: ercConcealInterFrame:recfr <- [DW_OP_plus_uconst 16] [$rsp+0]
	#DEBUG_VALUE: ercConcealInterFrame:object_list <- [DW_OP_plus_uconst 40] [$rsp+0]
	#DEBUG_VALUE: ercConcealInterFrame:picSizeX <- [DW_OP_plus_uconst 4] [$rsp+0]
	#DEBUG_VALUE: ercConcealInterFrame:picSizeY <- [DW_OP_LLVM_entry_value 1] $ecx
	#DEBUG_VALUE: ercConcealInterFrame:errorVar <- [DW_OP_plus_uconst 64] [$rsp+0]
	#DEBUG_VALUE: ercConcealInterFrame:chroma_format_idc <- [DW_OP_LLVM_entry_value 1] $r9d
	#DEBUG_VALUE: ercConcealInterFrame:p_Vid <- [DW_OP_plus_uconst 88, DW_OP_deref] $rsp
	#DEBUG_VALUE: ercConcealInterFrame:lastColumn <- [DW_OP_plus_uconst 8, DW_OP_deref] $rsp
	#DEBUG_VALUE: ercConcealInterFrame:lastRow <- [DW_OP_plus_uconst 120, DW_OP_deref] $rsp
	#DEBUG_VALUE: ercConcealInterFrame:currRow <- [DW_OP_plus_uconst 24, DW_OP_deref] $rsp
	#DEBUG_VALUE: ercConcealInterFrame:predMB <- [DW_OP_plus_uconst 72, DW_OP_deref] $rsp
	#DEBUG_VALUE: ercConcealInterFrame:columnInd <- [DW_OP_plus_uconst 96, DW_OP_deref] $rsp
	#DEBUG_VALUE: ercConcealInterFrame:column <- [DW_OP_plus_uconst 80, DW_OP_deref] $rsp
	.loc	0 140 17 is_stmt 1              # ldecod_src/erc_do_p.c:140:17
	movl	%r12d, %edi
	movl	$-1, %esi
	movl	%ebp, %edx
	movq	%r13, %rcx
	callq	ercMarkCurrMBConcealed@PLT
.Ltmp73:
	.loc	0 0 17 is_stmt 0                # ldecod_src/erc_do_p.c:0:17
	movq	24(%rsp), %rcx                  # 8-byte Reload
.Ltmp74:
	.loc	0 125 76 is_stmt 1              # ldecod_src/erc_do_p.c:125:76
	incl	%ecx
.Ltmp75:
	#DEBUG_VALUE: ercConcealInterFrame:currRow <- $ecx
	.loc	0 0 76 is_stmt 0                # ldecod_src/erc_do_p.c:0:76
	movq	8(%rsp), %rdi                   # 8-byte Reload
	.loc	0 125 58                        # ldecod_src/erc_do_p.c:125:58
	addl	%edi, %r12d
	addl	$2, %r15d
	movq	%rcx, 24(%rsp)                  # 8-byte Spill
.Ltmp76:
	#DEBUG_VALUE: ercConcealInterFrame:currRow <- [DW_OP_plus_uconst 24, DW_OP_deref] $rsp
	cmpl	%ecx, %ebx
	movl	(%rsp), %edx                    # 4-byte Reload
.Ltmp77:
	.loc	0 125 15                        # ldecod_src/erc_do_p.c:125:15
	je	.LBB0_25
.Ltmp78:
.LBB0_21:                               # %for.body60.us
                                        #   Parent Loop BB0_11 Depth=1
                                        #     Parent Loop BB0_12 Depth=2
                                        # =>    This Inner Loop Header: Depth=3
	#DEBUG_VALUE: ercConcealInterFrame:recfr <- [DW_OP_plus_uconst 16] [$rsp+0]
	#DEBUG_VALUE: ercConcealInterFrame:object_list <- [DW_OP_plus_uconst 40] [$rsp+0]
	#DEBUG_VALUE: ercConcealInterFrame:picSizeX <- [DW_OP_plus_uconst 4] [$rsp+0]
	#DEBUG_VALUE: ercConcealInterFrame:picSizeY <- [DW_OP_LLVM_entry_value 1] $ecx
	#DEBUG_VALUE: ercConcealInterFrame:errorVar <- [DW_OP_plus_uconst 64] [$rsp+0]
	#DEBUG_VALUE: ercConcealInterFrame:chroma_format_idc <- [DW_OP_LLVM_entry_value 1] $r9d
	#DEBUG_VALUE: ercConcealInterFrame:p_Vid <- [DW_OP_plus_uconst 88, DW_OP_deref] $rsp
	#DEBUG_VALUE: ercConcealInterFrame:lastColumn <- [DW_OP_plus_uconst 8, DW_OP_deref] $rsp
	#DEBUG_VALUE: ercConcealInterFrame:lastRow <- [DW_OP_plus_uconst 120, DW_OP_deref] $rsp
	#DEBUG_VALUE: ercConcealInterFrame:currRow <- [DW_OP_plus_uconst 24, DW_OP_deref] $rsp
	#DEBUG_VALUE: ercConcealInterFrame:predMB <- [DW_OP_plus_uconst 72, DW_OP_deref] $rsp
	#DEBUG_VALUE: ercConcealInterFrame:columnInd <- [DW_OP_plus_uconst 96, DW_OP_deref] $rsp
	#DEBUG_VALUE: ercConcealInterFrame:column <- [DW_OP_plus_uconst 80, DW_OP_deref] $rsp
	#DEBUG_VALUE: ercConcealInterFrame:currRow <- [DW_OP_plus_uconst 24, DW_OP_deref] $rsp
	.loc	0 129 29 is_stmt 1              # ldecod_src/erc_do_p.c:129:29
	movq	8(%r13), %rcx
	leaq	128(%rsp), %r14
	.loc	0 128 17                        # ldecod_src/erc_do_p.c:128:17
	movq	%r14, %rdi
	movl	%r15d, %esi
	movl	36(%rsp), %r8d                  # 4-byte Reload
	movl	32(%rsp), %r9d                  # 4-byte Reload
	pushq	$0
.Ltmp79:
	.cfi_adjust_cfa_offset 8
	pushq	$2
	.cfi_adjust_cfa_offset 8
	callq	ercCollect8PredBlocks@PLT
.Ltmp80:
	addq	$16, %rsp
	.cfi_adjust_cfa_offset -16
	movq	88(%rsp), %rax                  # 8-byte Reload
.Ltmp81:
	.loc	0 131 39                        # ldecod_src/erc_do_p.c:131:39
	cmpl	$7, 856512(%rax)
.Ltmp82:
	.loc	0 131 20 is_stmt 0              # ldecod_src/erc_do_p.c:131:20
	jg	.LBB0_23
.Ltmp83:
# %bb.22:                               # %if.else75.us
                                        #   in Loop: Header=BB0_21 Depth=3
	#DEBUG_VALUE: ercConcealInterFrame:recfr <- [DW_OP_plus_uconst 16] [$rsp+0]
	#DEBUG_VALUE: ercConcealInterFrame:object_list <- [DW_OP_plus_uconst 40] [$rsp+0]
	#DEBUG_VALUE: ercConcealInterFrame:picSizeX <- [DW_OP_plus_uconst 4] [$rsp+0]
	#DEBUG_VALUE: ercConcealInterFrame:picSizeY <- [DW_OP_LLVM_entry_value 1] $ecx
	#DEBUG_VALUE: ercConcealInterFrame:errorVar <- [DW_OP_plus_uconst 64] [$rsp+0]
	#DEBUG_VALUE: ercConcealInterFrame:chroma_format_idc <- [DW_OP_LLVM_entry_value 1] $r9d
	#DEBUG_VALUE: ercConcealInterFrame:p_Vid <- [DW_OP_plus_uconst 88, DW_OP_deref] $rsp
	#DEBUG_VALUE: ercConcealInterFrame:lastColumn <- [DW_OP_plus_uconst 8, DW_OP_deref] $rsp
	#DEBUG_VALUE: ercConcealInterFrame:lastRow <- [DW_OP_plus_uconst 120, DW_OP_deref] $rsp
	#DEBUG_VALUE: ercConcealInterFrame:currRow <- [DW_OP_plus_uconst 24, DW_OP_deref] $rsp
	#DEBUG_VALUE: ercConcealInterFrame:predMB <- [DW_OP_plus_uconst 72, DW_OP_deref] $rsp
	#DEBUG_VALUE: ercConcealInterFrame:columnInd <- [DW_OP_plus_uconst 96, DW_OP_deref] $rsp
	#DEBUG_VALUE: ercConcealInterFrame:column <- [DW_OP_plus_uconst 80, DW_OP_deref] $rsp
	.loc	0 0 20                          # ldecod_src/erc_do_p.c:0:20
	movq	16(%rsp), %rdi                  # 8-byte Reload
.Ltmp84:
	.loc	0 137 19 is_stmt 1              # ldecod_src/erc_do_p.c:137:19
	movl	%r12d, %esi
	movq	40(%rsp), %rdx                  # 8-byte Reload
	movl	%ebp, %ecx
	callq	concealByCopy
.Ltmp85:
	.loc	0 0 19 is_stmt 0                # ldecod_src/erc_do_p.c:0:19
	jmp	.LBB0_24
.Ltmp86:
.LBB0_25:                               #   in Loop: Header=BB0_12 Depth=2
	#DEBUG_VALUE: ercConcealInterFrame:recfr <- [DW_OP_plus_uconst 16] [$rsp+0]
	#DEBUG_VALUE: ercConcealInterFrame:object_list <- [DW_OP_plus_uconst 40] [$rsp+0]
	#DEBUG_VALUE: ercConcealInterFrame:picSizeX <- [DW_OP_plus_uconst 4] [$rsp+0]
	#DEBUG_VALUE: ercConcealInterFrame:picSizeY <- [DW_OP_LLVM_entry_value 1] $ecx
	#DEBUG_VALUE: ercConcealInterFrame:errorVar <- [DW_OP_plus_uconst 64] [$rsp+0]
	#DEBUG_VALUE: ercConcealInterFrame:chroma_format_idc <- [DW_OP_LLVM_entry_value 1] $r9d
	#DEBUG_VALUE: ercConcealInterFrame:p_Vid <- [DW_OP_plus_uconst 88, DW_OP_deref] $rsp
	#DEBUG_VALUE: ercConcealInterFrame:lastColumn <- [DW_OP_plus_uconst 8, DW_OP_deref] $rsp
	#DEBUG_VALUE: ercConcealInterFrame:lastRow <- [DW_OP_plus_uconst 120, DW_OP_deref] $rsp
	#DEBUG_VALUE: ercConcealInterFrame:currRow <- [DW_OP_plus_uconst 24, DW_OP_deref] $rsp
	#DEBUG_VALUE: ercConcealInterFrame:predMB <- [DW_OP_plus_uconst 72, DW_OP_deref] $rsp
	#DEBUG_VALUE: ercConcealInterFrame:columnInd <- [DW_OP_plus_uconst 96, DW_OP_deref] $rsp
	#DEBUG_VALUE: ercConcealInterFrame:column <- [DW_OP_plus_uconst 80, DW_OP_deref] $rsp
	movl	%edx, %r9d
	movl	%ebx, %r11d
	movq	48(%rsp), %rdx                  # 8-byte Reload
	.loc	0 125 15 is_stmt 1              # ldecod_src/erc_do_p.c:125:15
	jmp	.LBB0_32
.Ltmp87:
.LBB0_40:                               # %for.cond89.preheader.us
                                        #   in Loop: Header=BB0_12 Depth=2
	#DEBUG_VALUE: ercConcealInterFrame:recfr <- [DW_OP_plus_uconst 16] [$rsp+0]
	#DEBUG_VALUE: ercConcealInterFrame:object_list <- [DW_OP_plus_uconst 40] [$rsp+0]
	#DEBUG_VALUE: ercConcealInterFrame:picSizeX <- [DW_OP_plus_uconst 4] [$rsp+0]
	#DEBUG_VALUE: ercConcealInterFrame:picSizeY <- [DW_OP_LLVM_entry_value 1] $ecx
	#DEBUG_VALUE: ercConcealInterFrame:errorVar <- [DW_OP_plus_uconst 64] [$rsp+0]
	#DEBUG_VALUE: ercConcealInterFrame:chroma_format_idc <- [DW_OP_LLVM_entry_value 1] $r9d
	#DEBUG_VALUE: ercConcealInterFrame:p_Vid <- [DW_OP_plus_uconst 88, DW_OP_deref] $rsp
	#DEBUG_VALUE: ercConcealInterFrame:lastColumn <- [DW_OP_plus_uconst 8, DW_OP_deref] $rsp
	#DEBUG_VALUE: ercConcealInterFrame:lastRow <- [DW_OP_plus_uconst 120, DW_OP_deref] $rsp
	#DEBUG_VALUE: ercConcealInterFrame:predMB <- [DW_OP_plus_uconst 72, DW_OP_deref] $rsp
	#DEBUG_VALUE: ercConcealInterFrame:columnInd <- [DW_OP_plus_uconst 96, DW_OP_deref] $rsp
	#DEBUG_VALUE: ercConcealInterFrame:column <- [DW_OP_plus_uconst 80, DW_OP_deref] $rsp
	#DEBUG_VALUE: ercConcealInterFrame:row <- [DW_OP_plus_uconst 24, DW_OP_deref] $rsp
	#DEBUG_VALUE: ercConcealInterFrame:currRow <- undef
	.loc	0 147 57                        # ldecod_src/erc_do_p.c:147:57
	testq	%rcx, %rcx
	movq	64(%rsp), %r14                  # 8-byte Reload
	movq	8(%rsp), %rdi                   # 8-byte Reload
	movl	(%rsp), %edx                    # 4-byte Reload
.Ltmp88:
	.loc	0 147 15 is_stmt 0              # ldecod_src/erc_do_p.c:147:15
	jns	.LBB0_36
.Ltmp89:
.LBB0_41:                               # %for.end118.us
                                        #   in Loop: Header=BB0_12 Depth=2
	#DEBUG_VALUE: ercConcealInterFrame:recfr <- [DW_OP_plus_uconst 16] [$rsp+0]
	#DEBUG_VALUE: ercConcealInterFrame:object_list <- [DW_OP_plus_uconst 40] [$rsp+0]
	#DEBUG_VALUE: ercConcealInterFrame:picSizeX <- [DW_OP_plus_uconst 4] [$rsp+0]
	#DEBUG_VALUE: ercConcealInterFrame:picSizeY <- [DW_OP_LLVM_entry_value 1] $ecx
	#DEBUG_VALUE: ercConcealInterFrame:errorVar <- [DW_OP_plus_uconst 64] [$rsp+0]
	#DEBUG_VALUE: ercConcealInterFrame:chroma_format_idc <- [DW_OP_LLVM_entry_value 1] $r9d
	#DEBUG_VALUE: ercConcealInterFrame:p_Vid <- [DW_OP_plus_uconst 88, DW_OP_deref] $rsp
	#DEBUG_VALUE: ercConcealInterFrame:lastColumn <- [DW_OP_plus_uconst 8, DW_OP_deref] $rsp
	#DEBUG_VALUE: ercConcealInterFrame:lastRow <- [DW_OP_plus_uconst 120, DW_OP_deref] $rsp
	#DEBUG_VALUE: ercConcealInterFrame:predMB <- [DW_OP_plus_uconst 72, DW_OP_deref] $rsp
	#DEBUG_VALUE: ercConcealInterFrame:columnInd <- [DW_OP_plus_uconst 96, DW_OP_deref] $rsp
	#DEBUG_VALUE: ercConcealInterFrame:column <- [DW_OP_plus_uconst 80, DW_OP_deref] $rsp
	#DEBUG_VALUE: ercConcealInterFrame:row <- [DW_OP_plus_uconst 24, DW_OP_deref] $rsp
	#DEBUG_VALUE: ercConcealInterFrame:row <- undef
	.loc	0 0 15                          # ldecod_src/erc_do_p.c:0:15
	movl	%edx, %r9d
	movq	24(%rsp), %rax                  # 8-byte Reload
	.loc	0 166 13 is_stmt 1              # ldecod_src/erc_do_p.c:166:13
	addl	%ebx, %eax
	movl	%eax, %r11d
	movq	%r14, %r13
	movq	56(%rsp), %rbx                  # 8-byte Reload
	movq	48(%rsp), %rdx                  # 8-byte Reload
.Ltmp90:
	.loc	0 125 15                        # ldecod_src/erc_do_p.c:125:15
	jmp	.LBB0_32
.Ltmp91:
	.p2align	4, 0x90
.LBB0_38:                               # %if.then103.us
                                        #   in Loop: Header=BB0_36 Depth=3
	#DEBUG_VALUE: ercConcealInterFrame:recfr <- [DW_OP_plus_uconst 16] [$rsp+0]
	#DEBUG_VALUE: ercConcealInterFrame:object_list <- [DW_OP_plus_uconst 40] [$rsp+0]
	#DEBUG_VALUE: ercConcealInterFrame:picSizeX <- [DW_OP_plus_uconst 4] [$rsp+0]
	#DEBUG_VALUE: ercConcealInterFrame:picSizeY <- [DW_OP_LLVM_entry_value 1] $ecx
	#DEBUG_VALUE: ercConcealInterFrame:errorVar <- [DW_OP_plus_uconst 64] [$rsp+0]
	#DEBUG_VALUE: ercConcealInterFrame:chroma_format_idc <- [DW_OP_LLVM_entry_value 1] $r9d
	#DEBUG_VALUE: ercConcealInterFrame:p_Vid <- [DW_OP_plus_uconst 88, DW_OP_deref] $rsp
	#DEBUG_VALUE: ercConcealInterFrame:lastColumn <- [DW_OP_plus_uconst 8, DW_OP_deref] $rsp
	#DEBUG_VALUE: ercConcealInterFrame:lastRow <- [DW_OP_plus_uconst 120, DW_OP_deref] $rsp
	#DEBUG_VALUE: ercConcealInterFrame:predMB <- [DW_OP_plus_uconst 72, DW_OP_deref] $rsp
	#DEBUG_VALUE: ercConcealInterFrame:columnInd <- [DW_OP_plus_uconst 96, DW_OP_deref] $rsp
	#DEBUG_VALUE: ercConcealInterFrame:column <- [DW_OP_plus_uconst 80, DW_OP_deref] $rsp
	#DEBUG_VALUE: ercConcealInterFrame:row <- [DW_OP_plus_uconst 24, DW_OP_deref] $rsp
	.loc	0 154 19                        # ldecod_src/erc_do_p.c:154:19
	subq	$8, %rsp
.Ltmp92:
	.cfi_adjust_cfa_offset 8
	.loc	0 0 19 is_stmt 0                # ldecod_src/erc_do_p.c:0:19
	movq	24(%rsp), %rdi                  # 8-byte Reload
	movq	80(%rsp), %rsi                  # 8-byte Reload
	.loc	0 154 19                        # ldecod_src/erc_do_p.c:154:19
	movl	%r13d, %edx
	movq	48(%rsp), %rcx                  # 8-byte Reload
	movq	%r12, %r8
	movl	12(%rsp), %r12d                 # 4-byte Reload
	movl	%r12d, %r9d
	pushq	8(%r14)
	.cfi_adjust_cfa_offset 8
	callq	concealByTrial
.Ltmp93:
	addq	$16, %rsp
.Ltmp94:
	.cfi_adjust_cfa_offset -16
.LBB0_39:                               # %if.end113.us
                                        #   in Loop: Header=BB0_36 Depth=3
	#DEBUG_VALUE: ercConcealInterFrame:recfr <- [DW_OP_plus_uconst 16] [$rsp+0]
	#DEBUG_VALUE: ercConcealInterFrame:object_list <- [DW_OP_plus_uconst 40] [$rsp+0]
	#DEBUG_VALUE: ercConcealInterFrame:picSizeX <- [DW_OP_plus_uconst 4] [$rsp+0]
	#DEBUG_VALUE: ercConcealInterFrame:picSizeY <- [DW_OP_LLVM_entry_value 1] $ecx
	#DEBUG_VALUE: ercConcealInterFrame:errorVar <- [DW_OP_plus_uconst 64] [$rsp+0]
	#DEBUG_VALUE: ercConcealInterFrame:chroma_format_idc <- [DW_OP_LLVM_entry_value 1] $r9d
	#DEBUG_VALUE: ercConcealInterFrame:p_Vid <- [DW_OP_plus_uconst 88, DW_OP_deref] $rsp
	#DEBUG_VALUE: ercConcealInterFrame:lastColumn <- [DW_OP_plus_uconst 8, DW_OP_deref] $rsp
	#DEBUG_VALUE: ercConcealInterFrame:lastRow <- [DW_OP_plus_uconst 120, DW_OP_deref] $rsp
	#DEBUG_VALUE: ercConcealInterFrame:predMB <- [DW_OP_plus_uconst 72, DW_OP_deref] $rsp
	#DEBUG_VALUE: ercConcealInterFrame:columnInd <- [DW_OP_plus_uconst 96, DW_OP_deref] $rsp
	#DEBUG_VALUE: ercConcealInterFrame:column <- [DW_OP_plus_uconst 80, DW_OP_deref] $rsp
	#DEBUG_VALUE: ercConcealInterFrame:row <- [DW_OP_plus_uconst 24, DW_OP_deref] $rsp
	.loc	0 162 17 is_stmt 1              # ldecod_src/erc_do_p.c:162:17
	movl	%r13d, %edi
	movl	$-1, %esi
	movl	%r12d, %edx
	movq	%r14, %rcx
	callq	ercMarkCurrMBConcealed@PLT
.Ltmp95:
	#DEBUG_VALUE: ercConcealInterFrame:currRow <- undef
	.loc	0 147 57                        # ldecod_src/erc_do_p.c:147:57
	decl	%ebp
	movq	8(%rsp), %rdi                   # 8-byte Reload
	subl	%edi, %r13d
	addl	$-2, %r15d
	testl	%ebp, %ebp
	movl	(%rsp), %edx                    # 4-byte Reload
.Ltmp96:
	.loc	0 147 15 is_stmt 0              # ldecod_src/erc_do_p.c:147:15
	jle	.LBB0_41
.Ltmp97:
.LBB0_36:                               # %for.body92.us
                                        #   Parent Loop BB0_11 Depth=1
                                        #     Parent Loop BB0_12 Depth=2
                                        # =>    This Inner Loop Header: Depth=3
	#DEBUG_VALUE: ercConcealInterFrame:recfr <- [DW_OP_plus_uconst 16] [$rsp+0]
	#DEBUG_VALUE: ercConcealInterFrame:object_list <- [DW_OP_plus_uconst 40] [$rsp+0]
	#DEBUG_VALUE: ercConcealInterFrame:picSizeX <- [DW_OP_plus_uconst 4] [$rsp+0]
	#DEBUG_VALUE: ercConcealInterFrame:picSizeY <- [DW_OP_LLVM_entry_value 1] $ecx
	#DEBUG_VALUE: ercConcealInterFrame:errorVar <- [DW_OP_plus_uconst 64] [$rsp+0]
	#DEBUG_VALUE: ercConcealInterFrame:chroma_format_idc <- [DW_OP_LLVM_entry_value 1] $r9d
	#DEBUG_VALUE: ercConcealInterFrame:p_Vid <- [DW_OP_plus_uconst 88, DW_OP_deref] $rsp
	#DEBUG_VALUE: ercConcealInterFrame:lastColumn <- [DW_OP_plus_uconst 8, DW_OP_deref] $rsp
	#DEBUG_VALUE: ercConcealInterFrame:lastRow <- [DW_OP_plus_uconst 120, DW_OP_deref] $rsp
	#DEBUG_VALUE: ercConcealInterFrame:predMB <- [DW_OP_plus_uconst 72, DW_OP_deref] $rsp
	#DEBUG_VALUE: ercConcealInterFrame:columnInd <- [DW_OP_plus_uconst 96, DW_OP_deref] $rsp
	#DEBUG_VALUE: ercConcealInterFrame:column <- [DW_OP_plus_uconst 80, DW_OP_deref] $rsp
	#DEBUG_VALUE: ercConcealInterFrame:row <- [DW_OP_plus_uconst 24, DW_OP_deref] $rsp
	#DEBUG_VALUE: ercConcealInterFrame:currRow <- undef
	.loc	0 151 29 is_stmt 1              # ldecod_src/erc_do_p.c:151:29
	movq	8(%r14), %rcx
	leaq	128(%rsp), %r12
	.loc	0 150 17                        # ldecod_src/erc_do_p.c:150:17
	movq	%r12, %rdi
	movl	%r15d, %esi
	movl	36(%rsp), %r8d                  # 4-byte Reload
	movl	32(%rsp), %r9d                  # 4-byte Reload
	pushq	$0
.Ltmp98:
	.cfi_adjust_cfa_offset 8
	pushq	$2
	.cfi_adjust_cfa_offset 8
	callq	ercCollect8PredBlocks@PLT
.Ltmp99:
	addq	$16, %rsp
	.cfi_adjust_cfa_offset -16
	movq	88(%rsp), %rax                  # 8-byte Reload
.Ltmp100:
	.loc	0 153 39                        # ldecod_src/erc_do_p.c:153:39
	cmpl	$7, 856512(%rax)
.Ltmp101:
	.loc	0 153 20 is_stmt 0              # ldecod_src/erc_do_p.c:153:20
	jg	.LBB0_38
.Ltmp102:
# %bb.37:                               # %if.else109.us
                                        #   in Loop: Header=BB0_36 Depth=3
	#DEBUG_VALUE: ercConcealInterFrame:recfr <- [DW_OP_plus_uconst 16] [$rsp+0]
	#DEBUG_VALUE: ercConcealInterFrame:object_list <- [DW_OP_plus_uconst 40] [$rsp+0]
	#DEBUG_VALUE: ercConcealInterFrame:picSizeX <- [DW_OP_plus_uconst 4] [$rsp+0]
	#DEBUG_VALUE: ercConcealInterFrame:picSizeY <- [DW_OP_LLVM_entry_value 1] $ecx
	#DEBUG_VALUE: ercConcealInterFrame:errorVar <- [DW_OP_plus_uconst 64] [$rsp+0]
	#DEBUG_VALUE: ercConcealInterFrame:chroma_format_idc <- [DW_OP_LLVM_entry_value 1] $r9d
	#DEBUG_VALUE: ercConcealInterFrame:p_Vid <- [DW_OP_plus_uconst 88, DW_OP_deref] $rsp
	#DEBUG_VALUE: ercConcealInterFrame:lastColumn <- [DW_OP_plus_uconst 8, DW_OP_deref] $rsp
	#DEBUG_VALUE: ercConcealInterFrame:lastRow <- [DW_OP_plus_uconst 120, DW_OP_deref] $rsp
	#DEBUG_VALUE: ercConcealInterFrame:predMB <- [DW_OP_plus_uconst 72, DW_OP_deref] $rsp
	#DEBUG_VALUE: ercConcealInterFrame:columnInd <- [DW_OP_plus_uconst 96, DW_OP_deref] $rsp
	#DEBUG_VALUE: ercConcealInterFrame:column <- [DW_OP_plus_uconst 80, DW_OP_deref] $rsp
	#DEBUG_VALUE: ercConcealInterFrame:row <- [DW_OP_plus_uconst 24, DW_OP_deref] $rsp
	.loc	0 0 20                          # ldecod_src/erc_do_p.c:0:20
	movq	16(%rsp), %rdi                  # 8-byte Reload
.Ltmp103:
	.loc	0 159 19 is_stmt 1              # ldecod_src/erc_do_p.c:159:19
	movl	%r13d, %esi
	movq	40(%rsp), %rdx                  # 8-byte Reload
	movl	4(%rsp), %r12d                  # 4-byte Reload
	movl	%r12d, %ecx
	callq	concealByCopy
.Ltmp104:
	.loc	0 0 19 is_stmt 0                # ldecod_src/erc_do_p.c:0:19
	jmp	.LBB0_39
.Ltmp105:
.LBB0_26:                               # %for.body127.us.preheader
                                        #   in Loop: Header=BB0_12 Depth=2
	#DEBUG_VALUE: ercConcealInterFrame:recfr <- [DW_OP_plus_uconst 16] [$rsp+0]
	#DEBUG_VALUE: ercConcealInterFrame:object_list <- [DW_OP_plus_uconst 40] [$rsp+0]
	#DEBUG_VALUE: ercConcealInterFrame:picSizeX <- [DW_OP_plus_uconst 4] [$rsp+0]
	#DEBUG_VALUE: ercConcealInterFrame:picSizeY <- [DW_OP_LLVM_entry_value 1] $ecx
	#DEBUG_VALUE: ercConcealInterFrame:errorVar <- [DW_OP_plus_uconst 64] [$rsp+0]
	#DEBUG_VALUE: ercConcealInterFrame:chroma_format_idc <- [DW_OP_LLVM_entry_value 1] $r9d
	#DEBUG_VALUE: ercConcealInterFrame:p_Vid <- [DW_OP_plus_uconst 88, DW_OP_deref] $rsp
	#DEBUG_VALUE: ercConcealInterFrame:lastColumn <- [DW_OP_plus_uconst 8, DW_OP_deref] $rsp
	#DEBUG_VALUE: ercConcealInterFrame:lastRow <- [DW_OP_plus_uconst 120, DW_OP_deref] $rsp
	#DEBUG_VALUE: ercConcealInterFrame:firstCorruptedRow <- [DW_OP_plus_uconst 24, DW_OP_deref] $rsp
	#DEBUG_VALUE: ercConcealInterFrame:i <- 0
	#DEBUG_VALUE: ercConcealInterFrame:predMB <- [DW_OP_plus_uconst 72, DW_OP_deref] $rsp
	#DEBUG_VALUE: ercConcealInterFrame:columnInd <- [DW_OP_plus_uconst 96, DW_OP_deref] $rsp
	#DEBUG_VALUE: ercConcealInterFrame:column <- [DW_OP_plus_uconst 80, DW_OP_deref] $rsp
	movq	%r11, 104(%rsp)                 # 8-byte Spill
	xorl	%ebx, %ebx
	movq	64(%rsp), %r13                  # 8-byte Reload
	jmp	.LBB0_27
.Ltmp106:
	.p2align	4, 0x90
.LBB0_29:                               # %if.then145.us
                                        #   in Loop: Header=BB0_27 Depth=3
	#DEBUG_VALUE: ercConcealInterFrame:recfr <- [DW_OP_plus_uconst 16] [$rsp+0]
	#DEBUG_VALUE: ercConcealInterFrame:object_list <- [DW_OP_plus_uconst 40] [$rsp+0]
	#DEBUG_VALUE: ercConcealInterFrame:picSizeX <- [DW_OP_plus_uconst 4] [$rsp+0]
	#DEBUG_VALUE: ercConcealInterFrame:picSizeY <- [DW_OP_LLVM_entry_value 1] $ecx
	#DEBUG_VALUE: ercConcealInterFrame:errorVar <- [DW_OP_plus_uconst 64] [$rsp+0]
	#DEBUG_VALUE: ercConcealInterFrame:chroma_format_idc <- [DW_OP_LLVM_entry_value 1] $r9d
	#DEBUG_VALUE: ercConcealInterFrame:p_Vid <- [DW_OP_plus_uconst 88, DW_OP_deref] $rsp
	#DEBUG_VALUE: ercConcealInterFrame:lastColumn <- [DW_OP_plus_uconst 8, DW_OP_deref] $rsp
	#DEBUG_VALUE: ercConcealInterFrame:lastRow <- [DW_OP_plus_uconst 120, DW_OP_deref] $rsp
	#DEBUG_VALUE: ercConcealInterFrame:i <- $ebx
	#DEBUG_VALUE: ercConcealInterFrame:predMB <- [DW_OP_plus_uconst 72, DW_OP_deref] $rsp
	#DEBUG_VALUE: ercConcealInterFrame:columnInd <- [DW_OP_plus_uconst 96, DW_OP_deref] $rsp
	#DEBUG_VALUE: ercConcealInterFrame:column <- [DW_OP_plus_uconst 80, DW_OP_deref] $rsp
	movq	%r13, %rax
.Ltmp107:
	.loc	0 195 19 is_stmt 1              # ldecod_src/erc_do_p.c:195:19
	subq	$8, %rsp
.Ltmp108:
	.cfi_adjust_cfa_offset 8
	.loc	0 0 19 is_stmt 0                # ldecod_src/erc_do_p.c:0:19
	movq	24(%rsp), %rdi                  # 8-byte Reload
	movq	80(%rsp), %rsi                  # 8-byte Reload
	.loc	0 195 19                        # ldecod_src/erc_do_p.c:195:19
	movl	%r15d, %edx
	movq	48(%rsp), %rcx                  # 8-byte Reload
	movq	%r12, %r8
	movl	12(%rsp), %r13d                 # 4-byte Reload
	movl	%r13d, %r9d
	pushq	8(%rax)
	.cfi_adjust_cfa_offset 8
	callq	concealByTrial
.Ltmp109:
	addq	$16, %rsp
.Ltmp110:
	.cfi_adjust_cfa_offset -16
.LBB0_30:                               # %if.end155.us
                                        #   in Loop: Header=BB0_27 Depth=3
	#DEBUG_VALUE: ercConcealInterFrame:recfr <- [DW_OP_plus_uconst 16] [$rsp+0]
	#DEBUG_VALUE: ercConcealInterFrame:object_list <- [DW_OP_plus_uconst 40] [$rsp+0]
	#DEBUG_VALUE: ercConcealInterFrame:picSizeX <- [DW_OP_plus_uconst 4] [$rsp+0]
	#DEBUG_VALUE: ercConcealInterFrame:picSizeY <- [DW_OP_LLVM_entry_value 1] $ecx
	#DEBUG_VALUE: ercConcealInterFrame:errorVar <- [DW_OP_plus_uconst 64] [$rsp+0]
	#DEBUG_VALUE: ercConcealInterFrame:chroma_format_idc <- [DW_OP_LLVM_entry_value 1] $r9d
	#DEBUG_VALUE: ercConcealInterFrame:p_Vid <- [DW_OP_plus_uconst 88, DW_OP_deref] $rsp
	#DEBUG_VALUE: ercConcealInterFrame:lastColumn <- [DW_OP_plus_uconst 8, DW_OP_deref] $rsp
	#DEBUG_VALUE: ercConcealInterFrame:lastRow <- [DW_OP_plus_uconst 120, DW_OP_deref] $rsp
	#DEBUG_VALUE: ercConcealInterFrame:i <- $ebx
	#DEBUG_VALUE: ercConcealInterFrame:predMB <- [DW_OP_plus_uconst 72, DW_OP_deref] $rsp
	#DEBUG_VALUE: ercConcealInterFrame:columnInd <- [DW_OP_plus_uconst 96, DW_OP_deref] $rsp
	#DEBUG_VALUE: ercConcealInterFrame:column <- [DW_OP_plus_uconst 80, DW_OP_deref] $rsp
	.loc	0 0 0                           # ldecod_src/erc_do_p.c:0:0
	movl	%ebx, %eax
	andl	$1, %eax
	movq	112(%rsp), %rbp                 # 8-byte Reload
	subl	%eax, %ebp
.Ltmp111:
	#DEBUG_VALUE: ercConcealInterFrame:lastCorruptedRow <- $ebp
	xorl	$1, %eax
	movq	24(%rsp), %r12                  # 8-byte Reload
	addl	%eax, %r12d
.Ltmp112:
	#DEBUG_VALUE: ercConcealInterFrame:firstCorruptedRow <- $r12d
	.loc	0 203 17 is_stmt 1              # ldecod_src/erc_do_p.c:203:17
	movl	%r15d, %edi
	movl	$-1, %esi
	movl	%r13d, %edx
	movq	64(%rsp), %r13                  # 8-byte Reload
	movq	%r13, %rcx
	callq	ercMarkCurrMBConcealed@PLT
.Ltmp113:
	.loc	0 0 17 is_stmt 0                # ldecod_src/erc_do_p.c:0:17
	movq	%rbp, %rcx
.Ltmp114:
	.loc	0 178 45 is_stmt 1              # ldecod_src/erc_do_p.c:178:45
	incl	%ebx
.Ltmp115:
	#DEBUG_VALUE: ercConcealInterFrame:i <- $ebx
	#DEBUG_VALUE: ercConcealInterFrame:firstCorruptedRow <- $r12d
	#DEBUG_VALUE: ercConcealInterFrame:lastCorruptedRow <- $ebp
	.loc	0 178 30 is_stmt 0              # ldecod_src/erc_do_p.c:178:30
	decl	%r14d
	movl	(%rsp), %edx                    # 4-byte Reload
.Ltmp116:
	.loc	0 178 15                        # ldecod_src/erc_do_p.c:178:15
	je	.LBB0_31
.Ltmp117:
.LBB0_27:                               # %for.body127.us
                                        #   Parent Loop BB0_11 Depth=1
                                        #     Parent Loop BB0_12 Depth=2
                                        # =>    This Inner Loop Header: Depth=3
	#DEBUG_VALUE: ercConcealInterFrame:recfr <- [DW_OP_plus_uconst 16] [$rsp+0]
	#DEBUG_VALUE: ercConcealInterFrame:object_list <- [DW_OP_plus_uconst 40] [$rsp+0]
	#DEBUG_VALUE: ercConcealInterFrame:picSizeX <- [DW_OP_plus_uconst 4] [$rsp+0]
	#DEBUG_VALUE: ercConcealInterFrame:picSizeY <- [DW_OP_LLVM_entry_value 1] $ecx
	#DEBUG_VALUE: ercConcealInterFrame:errorVar <- [DW_OP_plus_uconst 64] [$rsp+0]
	#DEBUG_VALUE: ercConcealInterFrame:chroma_format_idc <- [DW_OP_LLVM_entry_value 1] $r9d
	#DEBUG_VALUE: ercConcealInterFrame:p_Vid <- [DW_OP_plus_uconst 88, DW_OP_deref] $rsp
	#DEBUG_VALUE: ercConcealInterFrame:lastColumn <- [DW_OP_plus_uconst 8, DW_OP_deref] $rsp
	#DEBUG_VALUE: ercConcealInterFrame:lastRow <- [DW_OP_plus_uconst 120, DW_OP_deref] $rsp
	#DEBUG_VALUE: ercConcealInterFrame:firstCorruptedRow <- $r12d
	#DEBUG_VALUE: ercConcealInterFrame:predMB <- [DW_OP_plus_uconst 72, DW_OP_deref] $rsp
	#DEBUG_VALUE: ercConcealInterFrame:columnInd <- [DW_OP_plus_uconst 96, DW_OP_deref] $rsp
	#DEBUG_VALUE: ercConcealInterFrame:column <- [DW_OP_plus_uconst 80, DW_OP_deref] $rsp
	#DEBUG_VALUE: ercConcealInterFrame:i <- $ebx
	#DEBUG_VALUE: ercConcealInterFrame:firstCorruptedRow <- $r12d
	#DEBUG_VALUE: ercConcealInterFrame:lastCorruptedRow <- $ecx
	.loc	0 180 22 is_stmt 1              # ldecod_src/erc_do_p.c:180:22
	testb	$1, %bl
	movq	%r12, 24(%rsp)                  # 8-byte Spill
.Ltmp118:
	#DEBUG_VALUE: ercConcealInterFrame:firstCorruptedRow <- [DW_OP_plus_uconst 24, DW_OP_deref] $rsp
	movl	%r12d, %r15d
	movq	%rcx, 112(%rsp)                 # 8-byte Spill
.Ltmp119:
	#DEBUG_VALUE: ercConcealInterFrame:lastCorruptedRow <- [DW_OP_plus_uconst 112, DW_OP_deref] $rsp
	cmovnel	%ecx, %r15d
.Ltmp120:
	#DEBUG_VALUE: ercConcealInterFrame:currRow <- $r15d
	#DEBUG_VALUE: ercConcealInterFrame:firstCorruptedRow <- undef
	#DEBUG_VALUE: ercConcealInterFrame:lastCorruptedRow <- undef
	.loc	0 191 60                        # ldecod_src/erc_do_p.c:191:60
	leal	(%r15,%r15), %esi
	.loc	0 192 29                        # ldecod_src/erc_do_p.c:192:29
	movq	8(%r13), %rcx
	leaq	128(%rsp), %r12
	.loc	0 191 17                        # ldecod_src/erc_do_p.c:191:17
	movq	%r12, %rdi
	movl	36(%rsp), %r8d                  # 4-byte Reload
	movl	32(%rsp), %r9d                  # 4-byte Reload
	pushq	$0
.Ltmp121:
	.cfi_adjust_cfa_offset 8
	pushq	$2
	.cfi_adjust_cfa_offset 8
	callq	ercCollect8PredBlocks@PLT
.Ltmp122:
	addq	$16, %rsp
	.cfi_adjust_cfa_offset -16
.Ltmp123:
	.loc	0 0 0 is_stmt 0                 # ldecod_src/erc_do_p.c:0:0
	imull	8(%rsp), %r15d                  # 4-byte Folded Reload
.Ltmp124:
	addl	80(%rsp), %r15d                 # 4-byte Folded Reload
	movq	88(%rsp), %rax                  # 8-byte Reload
	.loc	0 194 39 is_stmt 1              # ldecod_src/erc_do_p.c:194:39
	cmpl	$7, 856512(%rax)
.Ltmp125:
	.loc	0 194 20 is_stmt 0              # ldecod_src/erc_do_p.c:194:20
	jg	.LBB0_29
.Ltmp126:
# %bb.28:                               # %if.else151.us
                                        #   in Loop: Header=BB0_27 Depth=3
	#DEBUG_VALUE: ercConcealInterFrame:recfr <- [DW_OP_plus_uconst 16] [$rsp+0]
	#DEBUG_VALUE: ercConcealInterFrame:object_list <- [DW_OP_plus_uconst 40] [$rsp+0]
	#DEBUG_VALUE: ercConcealInterFrame:picSizeX <- [DW_OP_plus_uconst 4] [$rsp+0]
	#DEBUG_VALUE: ercConcealInterFrame:picSizeY <- [DW_OP_LLVM_entry_value 1] $ecx
	#DEBUG_VALUE: ercConcealInterFrame:errorVar <- [DW_OP_plus_uconst 64] [$rsp+0]
	#DEBUG_VALUE: ercConcealInterFrame:chroma_format_idc <- [DW_OP_LLVM_entry_value 1] $r9d
	#DEBUG_VALUE: ercConcealInterFrame:p_Vid <- [DW_OP_plus_uconst 88, DW_OP_deref] $rsp
	#DEBUG_VALUE: ercConcealInterFrame:lastColumn <- [DW_OP_plus_uconst 8, DW_OP_deref] $rsp
	#DEBUG_VALUE: ercConcealInterFrame:lastRow <- [DW_OP_plus_uconst 120, DW_OP_deref] $rsp
	#DEBUG_VALUE: ercConcealInterFrame:i <- $ebx
	#DEBUG_VALUE: ercConcealInterFrame:predMB <- [DW_OP_plus_uconst 72, DW_OP_deref] $rsp
	#DEBUG_VALUE: ercConcealInterFrame:columnInd <- [DW_OP_plus_uconst 96, DW_OP_deref] $rsp
	#DEBUG_VALUE: ercConcealInterFrame:column <- [DW_OP_plus_uconst 80, DW_OP_deref] $rsp
	.loc	0 0 20                          # ldecod_src/erc_do_p.c:0:20
	movq	16(%rsp), %rdi                  # 8-byte Reload
.Ltmp127:
	.loc	0 200 19 is_stmt 1              # ldecod_src/erc_do_p.c:200:19
	movl	%r15d, %esi
	movq	40(%rsp), %rdx                  # 8-byte Reload
	movl	4(%rsp), %r13d                  # 4-byte Reload
	movl	%r13d, %ecx
	callq	concealByCopy
.Ltmp128:
	.loc	0 0 19 is_stmt 0                # ldecod_src/erc_do_p.c:0:19
	jmp	.LBB0_30
.Ltmp129:
.LBB0_31:                               # %for.inc164.us.loopexit
                                        #   in Loop: Header=BB0_12 Depth=2
	#DEBUG_VALUE: ercConcealInterFrame:recfr <- [DW_OP_plus_uconst 16] [$rsp+0]
	#DEBUG_VALUE: ercConcealInterFrame:object_list <- [DW_OP_plus_uconst 40] [$rsp+0]
	#DEBUG_VALUE: ercConcealInterFrame:picSizeX <- [DW_OP_plus_uconst 4] [$rsp+0]
	#DEBUG_VALUE: ercConcealInterFrame:picSizeY <- [DW_OP_LLVM_entry_value 1] $ecx
	#DEBUG_VALUE: ercConcealInterFrame:errorVar <- [DW_OP_plus_uconst 64] [$rsp+0]
	#DEBUG_VALUE: ercConcealInterFrame:chroma_format_idc <- [DW_OP_LLVM_entry_value 1] $r9d
	#DEBUG_VALUE: ercConcealInterFrame:p_Vid <- [DW_OP_plus_uconst 88, DW_OP_deref] $rsp
	#DEBUG_VALUE: ercConcealInterFrame:lastColumn <- [DW_OP_plus_uconst 8, DW_OP_deref] $rsp
	#DEBUG_VALUE: ercConcealInterFrame:lastRow <- [DW_OP_plus_uconst 120, DW_OP_deref] $rsp
	#DEBUG_VALUE: ercConcealInterFrame:lastCorruptedRow <- $ebp
	#DEBUG_VALUE: ercConcealInterFrame:firstCorruptedRow <- $r12d
	#DEBUG_VALUE: ercConcealInterFrame:i <- $ebx
	#DEBUG_VALUE: ercConcealInterFrame:predMB <- [DW_OP_plus_uconst 72, DW_OP_deref] $rsp
	#DEBUG_VALUE: ercConcealInterFrame:columnInd <- [DW_OP_plus_uconst 96, DW_OP_deref] $rsp
	#DEBUG_VALUE: ercConcealInterFrame:column <- [DW_OP_plus_uconst 80, DW_OP_deref] $rsp
	movl	%edx, %r9d
	movq	56(%rsp), %rbx                  # 8-byte Reload
.Ltmp130:
	movq	8(%rsp), %rdi                   # 8-byte Reload
	movq	48(%rsp), %rdx                  # 8-byte Reload
	movq	104(%rsp), %r11                 # 8-byte Reload
	jmp	.LBB0_32
.Ltmp131:
.LBB0_34:                               # %for.end169
	#DEBUG_VALUE: ercConcealInterFrame:recfr <- [DW_OP_plus_uconst 16] [$rsp+0]
	#DEBUG_VALUE: ercConcealInterFrame:object_list <- [DW_OP_plus_uconst 40] [$rsp+0]
	#DEBUG_VALUE: ercConcealInterFrame:picSizeX <- [DW_OP_LLVM_entry_value 1] $edx
	#DEBUG_VALUE: ercConcealInterFrame:picSizeY <- [DW_OP_LLVM_entry_value 1] $ecx
	#DEBUG_VALUE: ercConcealInterFrame:errorVar <- [DW_OP_LLVM_entry_value 1] $r8
	#DEBUG_VALUE: ercConcealInterFrame:chroma_format_idc <- [DW_OP_LLVM_entry_value 1] $r9d
	#DEBUG_VALUE: ercConcealInterFrame:p_Vid <- [DW_OP_plus_uconst 88, DW_OP_deref] $rsp
	#DEBUG_VALUE: ercConcealInterFrame:predMB <- [DW_OP_plus_uconst 72, DW_OP_deref] $rsp
	movq	72(%rsp), %rdi                  # 8-byte Reload
	.loc	0 213 7 is_stmt 1               # ldecod_src/erc_do_p.c:213:7
	callq	free@PLT
.Ltmp132:
	.loc	0 0 7 is_stmt 0                 # ldecod_src/erc_do_p.c:0:7
	movl	$1, %eax
.Ltmp133:
.LBB0_35:                               # %cleanup
	#DEBUG_VALUE: ercConcealInterFrame:recfr <- [DW_OP_plus_uconst 16] [$rsp+0]
	#DEBUG_VALUE: ercConcealInterFrame:object_list <- [DW_OP_plus_uconst 40] [$rsp+0]
	#DEBUG_VALUE: ercConcealInterFrame:picSizeX <- [DW_OP_LLVM_entry_value 1] $edx
	#DEBUG_VALUE: ercConcealInterFrame:picSizeY <- [DW_OP_LLVM_entry_value 1] $ecx
	#DEBUG_VALUE: ercConcealInterFrame:errorVar <- [DW_OP_LLVM_entry_value 1] $r8
	#DEBUG_VALUE: ercConcealInterFrame:chroma_format_idc <- [DW_OP_LLVM_entry_value 1] $r9d
	.loc	0 219 1 epilogue_begin is_stmt 1 # ldecod_src/erc_do_p.c:219:1
	addq	$168, %rsp
	.cfi_def_cfa_offset 56
	popq	%rbx
	.cfi_def_cfa_offset 48
	popq	%r12
	.cfi_def_cfa_offset 40
	popq	%r13
	.cfi_def_cfa_offset 32
	popq	%r14
	.cfi_def_cfa_offset 24
	popq	%r15
	.cfi_def_cfa_offset 16
	popq	%rbp
	.cfi_def_cfa_offset 8
	retq
.Ltmp134:
.Lfunc_end0:
	.size	ercConcealInterFrame, .Lfunc_end0-ercConcealInterFrame
	.cfi_endproc
	.file	10 "/usr/include" "stdlib.h" md5 0x02258fad21adf111bb9df9825e61954a
	.file	11 "/home/yjs/workspace" "GPUISel-llvm/build/lib/clang/19/include/__stddef_size_t.h" md5 0x2c44e821a2b1951cde2eb0fb2e656867
	.file	12 "ldecod_src/inc" "memalloc.h" md5 0x88776e97a131c37d03036121c7c9e0ac
	.file	13 "ldecod_src/inc" "erc_do.h" md5 0x4cafcab6631707c26f660753f6c5ac8c
                                        # -- End function
	.p2align	4, 0x90                         # -- Begin function concealByTrial
	.type	concealByTrial,@function
concealByTrial:                         # @concealByTrial
.Lfunc_begin1:
	.loc	0 332 0                         # ldecod_src/erc_do_p.c:332:0
	.cfi_startproc
# %bb.0:                                # %entry
	#DEBUG_VALUE: concealByTrial:recfr <- $rdi
	#DEBUG_VALUE: concealByTrial:predMB <- $rsi
	#DEBUG_VALUE: concealByTrial:currMBNum <- $edx
	#DEBUG_VALUE: concealByTrial:object_list <- $rcx
	#DEBUG_VALUE: concealByTrial:predBlocks <- $r8
	#DEBUG_VALUE: concealByTrial:picSizeX <- $r9d
	pushq	%rbp
	.cfi_def_cfa_offset 16
	pushq	%r15
	.cfi_def_cfa_offset 24
	pushq	%r14
	.cfi_def_cfa_offset 32
	pushq	%r13
	.cfi_def_cfa_offset 40
	pushq	%r12
	.cfi_def_cfa_offset 48
	pushq	%rbx
	.cfi_def_cfa_offset 56
	subq	$168, %rsp
	.cfi_def_cfa_offset 224
	.cfi_offset %rbx, -56
	.cfi_offset %r12, -48
	.cfi_offset %r13, -40
	.cfi_offset %r14, -32
	.cfi_offset %r15, -24
	.cfi_offset %rbp, -16
.Ltmp135:
	#DEBUG_VALUE: concealByTrial:yCondition <- [DW_OP_plus_uconst 224] [$rsp+0]
	movq	%r8, %r14
	movl	%edx, %r10d
	movq	%rsi, 72(%rsp)                  # 8-byte Spill
.Ltmp136:
	#DEBUG_VALUE: concealByTrial:predMB <- [DW_OP_plus_uconst 72] [$rsp+0]
	#DEBUG_VALUE: concealByTrial:mvPred <- [DW_OP_plus_uconst 24, DW_OP_deref] $rsp
	movq	%rdi, 64(%rsp)                  # 8-byte Spill
.Ltmp137:
	#DEBUG_VALUE: concealByTrial:recfr <- [DW_OP_plus_uconst 64] [$rsp+0]
	.loc	0 333 35 prologue_end           # ldecod_src/erc_do_p.c:333:35
	movq	(%rdi), %rax
.Ltmp138:
	#DEBUG_VALUE: concealByTrial:p_Vid <- $rax
	#DEBUG_VALUE: concealByTrial:predMBNum <- 0
	#DEBUG_VALUE: concealByTrial:compSplit1 <- 0
	#DEBUG_VALUE: concealByTrial:compSplit2 <- 0
	#DEBUG_VALUE: concealByTrial:compLeft <- 1
	#DEBUG_VALUE: concealByTrial:comp <- 0
	#DEBUG_VALUE: concealByTrial:order <- 1
	#DEBUG_VALUE: concealByTrial:predSplitted <- 0
	#DEBUG_VALUE: concealByTrial:threshold <- 3
	.loc	0 0 35 is_stmt 0                # ldecod_src/erc_do_p.c:0:35
	movq	%rax, 120(%rsp)                 # 8-byte Spill
.Ltmp139:
	#DEBUG_VALUE: concealByTrial:p_Vid <- [DW_OP_plus_uconst 120, DW_OP_deref] $rsp
	.loc	0 343 7 is_stmt 1               # ldecod_src/erc_do_p.c:343:7
	movl	$0, 88(%rsp)
	movq	$0, 80(%rsp)
	.loc	0 343 30 is_stmt 0              # ldecod_src/erc_do_p.c:343:30
	movl	$0, 32(%rsp)
	movq	$0, 24(%rsp)
	.loc	0 345 33 is_stmt 1              # ldecod_src/erc_do_p.c:345:33
	movl	%r9d, %r8d
.Ltmp140:
	#DEBUG_VALUE: concealByTrial:predBlocks <- $r14
	sarl	$4, %r8d
.Ltmp141:
	#DEBUG_VALUE: concealByTrial:numMBPerLine <- $r8d
	#DEBUG_VALUE: concealByTrial:regionSize <- 16
	.loc	0 353 40                        # ldecod_src/erc_do_p.c:353:40
	leal	(,%r10,4), %eax
	.loc	0 353 29 is_stmt 0              # ldecod_src/erc_do_p.c:353:29
	cltq
	leaq	(%rax,%rax,2), %rsi
	leaq	(%rcx,%rsi,8), %rbx
.Ltmp142:
	#DEBUG_VALUE: concealByTrial:currRegion <- $rbx
	.loc	0 0 29                          # ldecod_src/erc_do_p.c:0:29
	movl	%r9d, 16(%rsp)                  # 4-byte Spill
.Ltmp143:
	#DEBUG_VALUE: concealByTrial:picSizeX <- [DW_OP_plus_uconst 16] [$rsp+0]
	.loc	0 357 25 is_stmt 1              # ldecod_src/erc_do_p.c:357:25
	movl	%r9d, %edi
	sarl	$3, %edi
	movl	%edx, %eax
	cltd
.Ltmp144:
	#DEBUG_VALUE: concealByTrial:currMBNum <- $r10d
	idivl	%r8d
                                        # kill: def $edx killed $edx def $rdx
                                        # kill: def $eax killed $eax def $rax
	imull	%edi, %eax
	addl	%edx, %edx
	leal	(%rdx,%rax,2), %r11d
	.loc	0 358 25                        # ldecod_src/erc_do_p.c:358:25
	movl	%r11d, %eax
	cltd
	idivl	%edi
	.loc	0 357 83                        # ldecod_src/erc_do_p.c:357:83
	shll	$3, %edx
	.loc	0 357 22 is_stmt 0              # ldecod_src/erc_do_p.c:357:22
	movl	%edx, 4(%rcx,%rsi,8)
	.loc	0 358 83 is_stmt 1              # ldecod_src/erc_do_p.c:358:83
	shll	$3, %eax
	.loc	0 358 22 is_stmt 0              # ldecod_src/erc_do_p.c:358:22
	movl	%eax, 8(%rcx,%rsi,8)
	leal	1(%r10), %eax
	movl	%eax, 148(%rsp)                 # 4-byte Spill
	leal	(%r8,%r10), %eax
	movl	%eax, 144(%rsp)                 # 4-byte Spill
	leal	-1(%r10), %eax
	movl	%eax, 140(%rsp)                 # 4-byte Spill
	subl	%r8d, %r10d
.Ltmp145:
	#DEBUG_VALUE: concealByTrial:currMBNum <- [DW_OP_LLVM_entry_value 1] $edx
	.loc	0 0 22                          # ldecod_src/erc_do_p.c:0:22
	movq	%r10, 160(%rsp)                 # 8-byte Spill
	xorl	%r8d, %r8d
.Ltmp146:
	movl	$3, %edi
	xorl	%r9d, %r9d
	xorl	%r12d, %r12d
	movq	%rbx, 96(%rsp)                  # 8-byte Spill
.Ltmp147:
	#DEBUG_VALUE: concealByTrial:currRegion <- [DW_OP_plus_uconst 96, DW_OP_deref] $rsp
	movl	%r11d, 44(%rsp)                 # 4-byte Spill
	movq	%rcx, 112(%rsp)                 # 8-byte Spill
.Ltmp148:
	#DEBUG_VALUE: concealByTrial:object_list <- [DW_OP_plus_uconst 112] [$rsp+0]
	movq	%r14, 152(%rsp)                 # 8-byte Spill
.Ltmp149:
	#DEBUG_VALUE: concealByTrial:predBlocks <- [DW_OP_plus_uconst 152] [$rsp+0]
	.p2align	4, 0x90
.LBB1_1:                                # %do.body31
                                        # =>This Loop Header: Depth=1
                                        #     Child Loop BB1_4 Depth 2
	#DEBUG_VALUE: concealByTrial:recfr <- [DW_OP_plus_uconst 64] [$rsp+0]
	#DEBUG_VALUE: concealByTrial:predMB <- [DW_OP_plus_uconst 72] [$rsp+0]
	#DEBUG_VALUE: concealByTrial:currMBNum <- [DW_OP_LLVM_entry_value 1] $edx
	#DEBUG_VALUE: concealByTrial:object_list <- [DW_OP_plus_uconst 112] [$rsp+0]
	#DEBUG_VALUE: concealByTrial:predBlocks <- [DW_OP_plus_uconst 152] [$rsp+0]
	#DEBUG_VALUE: concealByTrial:picSizeX <- [DW_OP_plus_uconst 16] [$rsp+0]
	#DEBUG_VALUE: concealByTrial:yCondition <- [DW_OP_plus_uconst 224] [$rsp+0]
	#DEBUG_VALUE: concealByTrial:p_Vid <- [DW_OP_plus_uconst 120, DW_OP_deref] $rsp
	#DEBUG_VALUE: concealByTrial:compLeft <- 1
	#DEBUG_VALUE: concealByTrial:comp <- 0
	#DEBUG_VALUE: concealByTrial:order <- 1
	#DEBUG_VALUE: concealByTrial:regionSize <- 16
	#DEBUG_VALUE: concealByTrial:currRegion <- [DW_OP_plus_uconst 96, DW_OP_deref] $rsp
	movl	$4, %r15d
.Ltmp150:
	#DEBUG_VALUE: concealByTrial:predMBNum <- $r12d
	#DEBUG_VALUE: concealByTrial:compSplit1 <- $r9d
	#DEBUG_VALUE: concealByTrial:compSplit2 <- $r8d
	#DEBUG_VALUE: concealByTrial:threshold <- $edi
	#DEBUG_VALUE: concealByTrial:minDist <- 0
	#DEBUG_VALUE: concealByTrial:fInterNeighborExists <- 0
	#DEBUG_VALUE: concealByTrial:numIntraNeighbours <- 0
	#DEBUG_VALUE: concealByTrial:fZeroMotionChecked <- 0
	#DEBUG_VALUE: concealByTrial:i <- 4
	movl	$0, 48(%rsp)                    # 4-byte Folded Spill
	movl	$0, 12(%rsp)                    # 4-byte Folded Spill
	movl	$0, 20(%rsp)                    # 4-byte Folded Spill
	movl	%edi, 52(%rsp)                  # 4-byte Spill
.Ltmp151:
	#DEBUG_VALUE: concealByTrial:threshold <- [DW_OP_plus_uconst 52, DW_OP_deref] $rsp
	jmp	.LBB1_4
.Ltmp152:
.LBB1_2:                                #   in Loop: Header=BB1_4 Depth=2
	#DEBUG_VALUE: concealByTrial:recfr <- [DW_OP_plus_uconst 64] [$rsp+0]
	#DEBUG_VALUE: concealByTrial:predMB <- [DW_OP_plus_uconst 72] [$rsp+0]
	#DEBUG_VALUE: concealByTrial:currMBNum <- [DW_OP_LLVM_entry_value 1] $edx
	#DEBUG_VALUE: concealByTrial:object_list <- [DW_OP_plus_uconst 112] [$rsp+0]
	#DEBUG_VALUE: concealByTrial:predBlocks <- [DW_OP_plus_uconst 152] [$rsp+0]
	#DEBUG_VALUE: concealByTrial:picSizeX <- [DW_OP_plus_uconst 16] [$rsp+0]
	#DEBUG_VALUE: concealByTrial:yCondition <- [DW_OP_plus_uconst 224] [$rsp+0]
	#DEBUG_VALUE: concealByTrial:mvPred <- [DW_OP_plus_uconst 24, DW_OP_deref] $rsp
	#DEBUG_VALUE: concealByTrial:p_Vid <- [DW_OP_plus_uconst 120, DW_OP_deref] $rsp
	#DEBUG_VALUE: concealByTrial:predMBNum <- $r12d
	#DEBUG_VALUE: concealByTrial:compLeft <- 1
	#DEBUG_VALUE: concealByTrial:comp <- 0
	#DEBUG_VALUE: concealByTrial:order <- 1
	#DEBUG_VALUE: concealByTrial:threshold <- [DW_OP_plus_uconst 52, DW_OP_deref] $rsp
	#DEBUG_VALUE: concealByTrial:regionSize <- 16
	#DEBUG_VALUE: concealByTrial:currRegion <- [DW_OP_plus_uconst 96, DW_OP_deref] $rsp
	#DEBUG_VALUE: concealByTrial:minDist <- [DW_OP_plus_uconst 48, DW_OP_deref] $rsp
	#DEBUG_VALUE: concealByTrial:fZeroMotionChecked <- [DW_OP_plus_uconst 12, DW_OP_deref] $rsp
	#DEBUG_VALUE: concealByTrial:i <- $r15
	#DEBUG_VALUE: concealByTrial:currDist <- $ebx
	movq	96(%rsp), %rbx                  # 8-byte Reload
.Ltmp153:
	movq	112(%rsp), %rcx                 # 8-byte Reload
	movl	52(%rsp), %edi                  # 4-byte Reload
	movl	%ebp, %r8d
	movl	40(%rsp), %r9d                  # 4-byte Reload
.Ltmp154:
	.p2align	4, 0x90
.LBB1_3:                                # %for.inc276
                                        #   in Loop: Header=BB1_4 Depth=2
	#DEBUG_VALUE: concealByTrial:recfr <- [DW_OP_plus_uconst 64] [$rsp+0]
	#DEBUG_VALUE: concealByTrial:predMB <- [DW_OP_plus_uconst 72] [$rsp+0]
	#DEBUG_VALUE: concealByTrial:currMBNum <- [DW_OP_LLVM_entry_value 1] $edx
	#DEBUG_VALUE: concealByTrial:object_list <- [DW_OP_plus_uconst 112] [$rsp+0]
	#DEBUG_VALUE: concealByTrial:predBlocks <- [DW_OP_plus_uconst 152] [$rsp+0]
	#DEBUG_VALUE: concealByTrial:picSizeX <- [DW_OP_plus_uconst 16] [$rsp+0]
	#DEBUG_VALUE: concealByTrial:yCondition <- [DW_OP_plus_uconst 224] [$rsp+0]
	#DEBUG_VALUE: concealByTrial:p_Vid <- [DW_OP_plus_uconst 120, DW_OP_deref] $rsp
	#DEBUG_VALUE: concealByTrial:predMBNum <- $r12d
	#DEBUG_VALUE: concealByTrial:compLeft <- 1
	#DEBUG_VALUE: concealByTrial:comp <- 0
	#DEBUG_VALUE: concealByTrial:order <- 1
	#DEBUG_VALUE: concealByTrial:threshold <- [DW_OP_plus_uconst 52, DW_OP_deref] $rsp
	#DEBUG_VALUE: concealByTrial:regionSize <- 16
	#DEBUG_VALUE: concealByTrial:currRegion <- [DW_OP_plus_uconst 96, DW_OP_deref] $rsp
	#DEBUG_VALUE: concealByTrial:i <- $r15
	#DEBUG_VALUE: concealByTrial:predMBNum <- $r12d
	#DEBUG_VALUE: concealByTrial:compSplit1 <- $r9d
	#DEBUG_VALUE: concealByTrial:compSplit2 <- $r8d
	#DEBUG_VALUE: concealByTrial:minDist <- [DW_OP_plus_uconst 48, DW_OP_deref] $rsp
	#DEBUG_VALUE: concealByTrial:fZeroMotionChecked <- [DW_OP_plus_uconst 12, DW_OP_deref] $rsp
	#DEBUG_VALUE: concealByTrial:numIntraNeighbours <- undef
	#DEBUG_VALUE: concealByTrial:fInterNeighborExists <- [DW_OP_plus_uconst 20, DW_OP_deref] $rsp
	.loc	0 369 27 is_stmt 1              # ldecod_src/erc_do_p.c:369:27
	incq	%r15
.Ltmp155:
	#DEBUG_VALUE: concealByTrial:i <- $r15
	.loc	0 369 21 is_stmt 0              # ldecod_src/erc_do_p.c:369:21
	cmpq	$8, %r15
.Ltmp156:
	.loc	0 369 7                         # ldecod_src/erc_do_p.c:369:7
	je	.LBB1_53
.Ltmp157:
.LBB1_4:                                # %for.body
                                        #   Parent Loop BB1_1 Depth=1
                                        # =>  This Inner Loop Header: Depth=2
	#DEBUG_VALUE: concealByTrial:recfr <- [DW_OP_plus_uconst 64] [$rsp+0]
	#DEBUG_VALUE: concealByTrial:predMB <- [DW_OP_plus_uconst 72] [$rsp+0]
	#DEBUG_VALUE: concealByTrial:currMBNum <- [DW_OP_LLVM_entry_value 1] $edx
	#DEBUG_VALUE: concealByTrial:object_list <- [DW_OP_plus_uconst 112] [$rsp+0]
	#DEBUG_VALUE: concealByTrial:predBlocks <- [DW_OP_plus_uconst 152] [$rsp+0]
	#DEBUG_VALUE: concealByTrial:picSizeX <- [DW_OP_plus_uconst 16] [$rsp+0]
	#DEBUG_VALUE: concealByTrial:yCondition <- [DW_OP_plus_uconst 224] [$rsp+0]
	#DEBUG_VALUE: concealByTrial:p_Vid <- [DW_OP_plus_uconst 120, DW_OP_deref] $rsp
	#DEBUG_VALUE: concealByTrial:predMBNum <- $r12d
	#DEBUG_VALUE: concealByTrial:compSplit1 <- $r9d
	#DEBUG_VALUE: concealByTrial:compSplit2 <- $r8d
	#DEBUG_VALUE: concealByTrial:compLeft <- 1
	#DEBUG_VALUE: concealByTrial:comp <- 0
	#DEBUG_VALUE: concealByTrial:order <- 1
	#DEBUG_VALUE: concealByTrial:threshold <- [DW_OP_plus_uconst 52, DW_OP_deref] $rsp
	#DEBUG_VALUE: concealByTrial:regionSize <- 16
	#DEBUG_VALUE: concealByTrial:currRegion <- [DW_OP_plus_uconst 96, DW_OP_deref] $rsp
	#DEBUG_VALUE: concealByTrial:predMBNum <- $r12d
	#DEBUG_VALUE: concealByTrial:compSplit1 <- $r9d
	#DEBUG_VALUE: concealByTrial:compSplit2 <- $r8d
	#DEBUG_VALUE: concealByTrial:i <- $r15
	#DEBUG_VALUE: concealByTrial:minDist <- [DW_OP_plus_uconst 48, DW_OP_deref] $rsp
	#DEBUG_VALUE: concealByTrial:fZeroMotionChecked <- [DW_OP_plus_uconst 12, DW_OP_deref] $rsp
	#DEBUG_VALUE: concealByTrial:numIntraNeighbours <- undef
	#DEBUG_VALUE: concealByTrial:fInterNeighborExists <- [DW_OP_plus_uconst 20, DW_OP_deref] $rsp
	.loc	0 373 27 is_stmt 1              # ldecod_src/erc_do_p.c:373:27
	cmpl	%edi, (%r14,%r15,4)
.Ltmp158:
	.loc	0 373 13 is_stmt 0              # ldecod_src/erc_do_p.c:373:13
	jl	.LBB1_3
.Ltmp159:
# %bb.5:                                # %if.then
                                        #   in Loop: Header=BB1_4 Depth=2
	#DEBUG_VALUE: concealByTrial:recfr <- [DW_OP_plus_uconst 64] [$rsp+0]
	#DEBUG_VALUE: concealByTrial:predMB <- [DW_OP_plus_uconst 72] [$rsp+0]
	#DEBUG_VALUE: concealByTrial:currMBNum <- [DW_OP_LLVM_entry_value 1] $edx
	#DEBUG_VALUE: concealByTrial:object_list <- [DW_OP_plus_uconst 112] [$rsp+0]
	#DEBUG_VALUE: concealByTrial:predBlocks <- [DW_OP_plus_uconst 152] [$rsp+0]
	#DEBUG_VALUE: concealByTrial:picSizeX <- [DW_OP_plus_uconst 16] [$rsp+0]
	#DEBUG_VALUE: concealByTrial:yCondition <- [DW_OP_plus_uconst 224] [$rsp+0]
	#DEBUG_VALUE: concealByTrial:p_Vid <- [DW_OP_plus_uconst 120, DW_OP_deref] $rsp
	#DEBUG_VALUE: concealByTrial:predMBNum <- $r12d
	#DEBUG_VALUE: concealByTrial:compSplit1 <- $r9d
	#DEBUG_VALUE: concealByTrial:compSplit2 <- $r8d
	#DEBUG_VALUE: concealByTrial:compLeft <- 1
	#DEBUG_VALUE: concealByTrial:comp <- 0
	#DEBUG_VALUE: concealByTrial:order <- 1
	#DEBUG_VALUE: concealByTrial:threshold <- [DW_OP_plus_uconst 52, DW_OP_deref] $rsp
	#DEBUG_VALUE: concealByTrial:regionSize <- 16
	#DEBUG_VALUE: concealByTrial:currRegion <- [DW_OP_plus_uconst 96, DW_OP_deref] $rsp
	#DEBUG_VALUE: concealByTrial:minDist <- [DW_OP_plus_uconst 48, DW_OP_deref] $rsp
	#DEBUG_VALUE: concealByTrial:fInterNeighborExists <- [DW_OP_plus_uconst 20, DW_OP_deref] $rsp
	#DEBUG_VALUE: concealByTrial:fZeroMotionChecked <- [DW_OP_plus_uconst 12, DW_OP_deref] $rsp
	#DEBUG_VALUE: concealByTrial:i <- $r15
	.loc	0 375 11 is_stmt 1              # ldecod_src/erc_do_p.c:375:11
	leal	-4(%r15), %eax
	cmpl	$3, %eax
	ja	.LBB1_12
.Ltmp160:
# %bb.6:                                # %if.then
                                        #   in Loop: Header=BB1_4 Depth=2
	#DEBUG_VALUE: concealByTrial:recfr <- [DW_OP_plus_uconst 64] [$rsp+0]
	#DEBUG_VALUE: concealByTrial:predMB <- [DW_OP_plus_uconst 72] [$rsp+0]
	#DEBUG_VALUE: concealByTrial:currMBNum <- [DW_OP_LLVM_entry_value 1] $edx
	#DEBUG_VALUE: concealByTrial:object_list <- [DW_OP_plus_uconst 112] [$rsp+0]
	#DEBUG_VALUE: concealByTrial:predBlocks <- [DW_OP_plus_uconst 152] [$rsp+0]
	#DEBUG_VALUE: concealByTrial:picSizeX <- [DW_OP_plus_uconst 16] [$rsp+0]
	#DEBUG_VALUE: concealByTrial:yCondition <- [DW_OP_plus_uconst 224] [$rsp+0]
	#DEBUG_VALUE: concealByTrial:p_Vid <- [DW_OP_plus_uconst 120, DW_OP_deref] $rsp
	#DEBUG_VALUE: concealByTrial:predMBNum <- $r12d
	#DEBUG_VALUE: concealByTrial:compSplit1 <- $r9d
	#DEBUG_VALUE: concealByTrial:compSplit2 <- $r8d
	#DEBUG_VALUE: concealByTrial:compLeft <- 1
	#DEBUG_VALUE: concealByTrial:comp <- 0
	#DEBUG_VALUE: concealByTrial:order <- 1
	#DEBUG_VALUE: concealByTrial:threshold <- [DW_OP_plus_uconst 52, DW_OP_deref] $rsp
	#DEBUG_VALUE: concealByTrial:regionSize <- 16
	#DEBUG_VALUE: concealByTrial:currRegion <- [DW_OP_plus_uconst 96, DW_OP_deref] $rsp
	#DEBUG_VALUE: concealByTrial:minDist <- [DW_OP_plus_uconst 48, DW_OP_deref] $rsp
	#DEBUG_VALUE: concealByTrial:fInterNeighborExists <- [DW_OP_plus_uconst 20, DW_OP_deref] $rsp
	#DEBUG_VALUE: concealByTrial:fZeroMotionChecked <- [DW_OP_plus_uconst 12, DW_OP_deref] $rsp
	#DEBUG_VALUE: concealByTrial:i <- $r15
	jmpq	*.LJTI1_0(,%rax,8)
.Ltmp161:
.LBB1_7:                                # %sw.bb
                                        #   in Loop: Header=BB1_4 Depth=2
	#DEBUG_VALUE: concealByTrial:recfr <- [DW_OP_plus_uconst 64] [$rsp+0]
	#DEBUG_VALUE: concealByTrial:predMB <- [DW_OP_plus_uconst 72] [$rsp+0]
	#DEBUG_VALUE: concealByTrial:currMBNum <- [DW_OP_LLVM_entry_value 1] $edx
	#DEBUG_VALUE: concealByTrial:object_list <- [DW_OP_plus_uconst 112] [$rsp+0]
	#DEBUG_VALUE: concealByTrial:predBlocks <- [DW_OP_plus_uconst 152] [$rsp+0]
	#DEBUG_VALUE: concealByTrial:picSizeX <- [DW_OP_plus_uconst 16] [$rsp+0]
	#DEBUG_VALUE: concealByTrial:yCondition <- [DW_OP_plus_uconst 224] [$rsp+0]
	#DEBUG_VALUE: concealByTrial:p_Vid <- [DW_OP_plus_uconst 120, DW_OP_deref] $rsp
	#DEBUG_VALUE: concealByTrial:predMBNum <- $r12d
	#DEBUG_VALUE: concealByTrial:compSplit1 <- $r9d
	#DEBUG_VALUE: concealByTrial:compSplit2 <- $r8d
	#DEBUG_VALUE: concealByTrial:compLeft <- 1
	#DEBUG_VALUE: concealByTrial:comp <- 0
	#DEBUG_VALUE: concealByTrial:order <- 1
	#DEBUG_VALUE: concealByTrial:threshold <- [DW_OP_plus_uconst 52, DW_OP_deref] $rsp
	#DEBUG_VALUE: concealByTrial:regionSize <- 16
	#DEBUG_VALUE: concealByTrial:currRegion <- [DW_OP_plus_uconst 96, DW_OP_deref] $rsp
	#DEBUG_VALUE: concealByTrial:minDist <- [DW_OP_plus_uconst 48, DW_OP_deref] $rsp
	#DEBUG_VALUE: concealByTrial:fInterNeighborExists <- [DW_OP_plus_uconst 20, DW_OP_deref] $rsp
	#DEBUG_VALUE: concealByTrial:fZeroMotionChecked <- [DW_OP_plus_uconst 12, DW_OP_deref] $rsp
	#DEBUG_VALUE: concealByTrial:i <- $r15
	#DEBUG_VALUE: concealByTrial:predMBNum <- [DW_OP_plus_uconst 160, DW_OP_deref] $rsp
	#DEBUG_VALUE: concealByTrial:compSplit1 <- 2
	#DEBUG_VALUE: concealByTrial:compSplit2 <- 3
	.loc	0 0 11 is_stmt 0                # ldecod_src/erc_do_p.c:0:11
	movl	$2, %r9d
	movl	$3, %r8d
	movq	160(%rsp), %rax                 # 8-byte Reload
	movl	%eax, %r12d
.Ltmp162:
	.loc	0 381 13 is_stmt 1              # ldecod_src/erc_do_p.c:381:13
	jmp	.LBB1_12
.Ltmp163:
.LBB1_8:                                # %sw.bb35
                                        #   in Loop: Header=BB1_4 Depth=2
	#DEBUG_VALUE: concealByTrial:recfr <- [DW_OP_plus_uconst 64] [$rsp+0]
	#DEBUG_VALUE: concealByTrial:predMB <- [DW_OP_plus_uconst 72] [$rsp+0]
	#DEBUG_VALUE: concealByTrial:currMBNum <- [DW_OP_LLVM_entry_value 1] $edx
	#DEBUG_VALUE: concealByTrial:object_list <- [DW_OP_plus_uconst 112] [$rsp+0]
	#DEBUG_VALUE: concealByTrial:predBlocks <- [DW_OP_plus_uconst 152] [$rsp+0]
	#DEBUG_VALUE: concealByTrial:picSizeX <- [DW_OP_plus_uconst 16] [$rsp+0]
	#DEBUG_VALUE: concealByTrial:yCondition <- [DW_OP_plus_uconst 224] [$rsp+0]
	#DEBUG_VALUE: concealByTrial:p_Vid <- [DW_OP_plus_uconst 120, DW_OP_deref] $rsp
	#DEBUG_VALUE: concealByTrial:predMBNum <- $r12d
	#DEBUG_VALUE: concealByTrial:compSplit1 <- $r9d
	#DEBUG_VALUE: concealByTrial:compSplit2 <- $r8d
	#DEBUG_VALUE: concealByTrial:compLeft <- 1
	#DEBUG_VALUE: concealByTrial:comp <- 0
	#DEBUG_VALUE: concealByTrial:order <- 1
	#DEBUG_VALUE: concealByTrial:threshold <- [DW_OP_plus_uconst 52, DW_OP_deref] $rsp
	#DEBUG_VALUE: concealByTrial:regionSize <- 16
	#DEBUG_VALUE: concealByTrial:currRegion <- [DW_OP_plus_uconst 96, DW_OP_deref] $rsp
	#DEBUG_VALUE: concealByTrial:minDist <- [DW_OP_plus_uconst 48, DW_OP_deref] $rsp
	#DEBUG_VALUE: concealByTrial:fInterNeighborExists <- [DW_OP_plus_uconst 20, DW_OP_deref] $rsp
	#DEBUG_VALUE: concealByTrial:fZeroMotionChecked <- [DW_OP_plus_uconst 12, DW_OP_deref] $rsp
	#DEBUG_VALUE: concealByTrial:i <- $r15
	#DEBUG_VALUE: concealByTrial:predMBNum <- [DW_OP_plus_uconst 144, DW_OP_deref] $rsp
	#DEBUG_VALUE: concealByTrial:compSplit1 <- 0
	#DEBUG_VALUE: concealByTrial:compSplit2 <- 1
	.loc	0 0 13 is_stmt 0                # ldecod_src/erc_do_p.c:0:13
	xorl	%r9d, %r9d
	movl	$1, %r8d
	movl	144(%rsp), %eax                 # 4-byte Reload
	jmp	.LBB1_11
.Ltmp164:
.LBB1_9:                                # %sw.bb37
                                        #   in Loop: Header=BB1_4 Depth=2
	#DEBUG_VALUE: concealByTrial:recfr <- [DW_OP_plus_uconst 64] [$rsp+0]
	#DEBUG_VALUE: concealByTrial:predMB <- [DW_OP_plus_uconst 72] [$rsp+0]
	#DEBUG_VALUE: concealByTrial:currMBNum <- [DW_OP_LLVM_entry_value 1] $edx
	#DEBUG_VALUE: concealByTrial:object_list <- [DW_OP_plus_uconst 112] [$rsp+0]
	#DEBUG_VALUE: concealByTrial:predBlocks <- [DW_OP_plus_uconst 152] [$rsp+0]
	#DEBUG_VALUE: concealByTrial:picSizeX <- [DW_OP_plus_uconst 16] [$rsp+0]
	#DEBUG_VALUE: concealByTrial:yCondition <- [DW_OP_plus_uconst 224] [$rsp+0]
	#DEBUG_VALUE: concealByTrial:p_Vid <- [DW_OP_plus_uconst 120, DW_OP_deref] $rsp
	#DEBUG_VALUE: concealByTrial:predMBNum <- $r12d
	#DEBUG_VALUE: concealByTrial:compSplit1 <- $r9d
	#DEBUG_VALUE: concealByTrial:compSplit2 <- $r8d
	#DEBUG_VALUE: concealByTrial:compLeft <- 1
	#DEBUG_VALUE: concealByTrial:comp <- 0
	#DEBUG_VALUE: concealByTrial:order <- 1
	#DEBUG_VALUE: concealByTrial:threshold <- [DW_OP_plus_uconst 52, DW_OP_deref] $rsp
	#DEBUG_VALUE: concealByTrial:regionSize <- 16
	#DEBUG_VALUE: concealByTrial:currRegion <- [DW_OP_plus_uconst 96, DW_OP_deref] $rsp
	#DEBUG_VALUE: concealByTrial:minDist <- [DW_OP_plus_uconst 48, DW_OP_deref] $rsp
	#DEBUG_VALUE: concealByTrial:fInterNeighborExists <- [DW_OP_plus_uconst 20, DW_OP_deref] $rsp
	#DEBUG_VALUE: concealByTrial:fZeroMotionChecked <- [DW_OP_plus_uconst 12, DW_OP_deref] $rsp
	#DEBUG_VALUE: concealByTrial:i <- $r15
	xorl	%r9d, %r9d
.Ltmp165:
	movl	$2, %r8d
.Ltmp166:
	#DEBUG_VALUE: concealByTrial:predMBNum <- [DW_OP_plus_uconst 148, DW_OP_deref] $rsp
	#DEBUG_VALUE: concealByTrial:compSplit1 <- 0
	#DEBUG_VALUE: concealByTrial:compSplit2 <- 2
	movl	148(%rsp), %eax                 # 4-byte Reload
	jmp	.LBB1_11
.Ltmp167:
.LBB1_10:                               # %sw.bb33
                                        #   in Loop: Header=BB1_4 Depth=2
	#DEBUG_VALUE: concealByTrial:recfr <- [DW_OP_plus_uconst 64] [$rsp+0]
	#DEBUG_VALUE: concealByTrial:predMB <- [DW_OP_plus_uconst 72] [$rsp+0]
	#DEBUG_VALUE: concealByTrial:currMBNum <- [DW_OP_LLVM_entry_value 1] $edx
	#DEBUG_VALUE: concealByTrial:object_list <- [DW_OP_plus_uconst 112] [$rsp+0]
	#DEBUG_VALUE: concealByTrial:predBlocks <- [DW_OP_plus_uconst 152] [$rsp+0]
	#DEBUG_VALUE: concealByTrial:picSizeX <- [DW_OP_plus_uconst 16] [$rsp+0]
	#DEBUG_VALUE: concealByTrial:yCondition <- [DW_OP_plus_uconst 224] [$rsp+0]
	#DEBUG_VALUE: concealByTrial:p_Vid <- [DW_OP_plus_uconst 120, DW_OP_deref] $rsp
	#DEBUG_VALUE: concealByTrial:predMBNum <- $r12d
	#DEBUG_VALUE: concealByTrial:compSplit1 <- $r9d
	#DEBUG_VALUE: concealByTrial:compSplit2 <- $r8d
	#DEBUG_VALUE: concealByTrial:compLeft <- 1
	#DEBUG_VALUE: concealByTrial:comp <- 0
	#DEBUG_VALUE: concealByTrial:order <- 1
	#DEBUG_VALUE: concealByTrial:threshold <- [DW_OP_plus_uconst 52, DW_OP_deref] $rsp
	#DEBUG_VALUE: concealByTrial:regionSize <- 16
	#DEBUG_VALUE: concealByTrial:currRegion <- [DW_OP_plus_uconst 96, DW_OP_deref] $rsp
	#DEBUG_VALUE: concealByTrial:minDist <- [DW_OP_plus_uconst 48, DW_OP_deref] $rsp
	#DEBUG_VALUE: concealByTrial:fInterNeighborExists <- [DW_OP_plus_uconst 20, DW_OP_deref] $rsp
	#DEBUG_VALUE: concealByTrial:fZeroMotionChecked <- [DW_OP_plus_uconst 12, DW_OP_deref] $rsp
	#DEBUG_VALUE: concealByTrial:i <- $r15
	#DEBUG_VALUE: concealByTrial:predMBNum <- [DW_OP_plus_uconst 140, DW_OP_deref] $rsp
	#DEBUG_VALUE: concealByTrial:compSplit1 <- 1
	#DEBUG_VALUE: concealByTrial:compSplit2 <- 3
	movl	$1, %r9d
	movl	$3, %r8d
	movl	140(%rsp), %eax                 # 4-byte Reload
.Ltmp168:
.LBB1_11:                               # %sw.epilog
                                        #   in Loop: Header=BB1_4 Depth=2
	#DEBUG_VALUE: concealByTrial:recfr <- [DW_OP_plus_uconst 64] [$rsp+0]
	#DEBUG_VALUE: concealByTrial:predMB <- [DW_OP_plus_uconst 72] [$rsp+0]
	#DEBUG_VALUE: concealByTrial:currMBNum <- [DW_OP_LLVM_entry_value 1] $edx
	#DEBUG_VALUE: concealByTrial:object_list <- [DW_OP_plus_uconst 112] [$rsp+0]
	#DEBUG_VALUE: concealByTrial:predBlocks <- [DW_OP_plus_uconst 152] [$rsp+0]
	#DEBUG_VALUE: concealByTrial:picSizeX <- [DW_OP_plus_uconst 16] [$rsp+0]
	#DEBUG_VALUE: concealByTrial:yCondition <- [DW_OP_plus_uconst 224] [$rsp+0]
	#DEBUG_VALUE: concealByTrial:p_Vid <- [DW_OP_plus_uconst 120, DW_OP_deref] $rsp
	#DEBUG_VALUE: concealByTrial:predMBNum <- $eax
	#DEBUG_VALUE: concealByTrial:compLeft <- 1
	#DEBUG_VALUE: concealByTrial:comp <- 0
	#DEBUG_VALUE: concealByTrial:order <- 1
	#DEBUG_VALUE: concealByTrial:threshold <- [DW_OP_plus_uconst 52, DW_OP_deref] $rsp
	#DEBUG_VALUE: concealByTrial:regionSize <- 16
	#DEBUG_VALUE: concealByTrial:currRegion <- [DW_OP_plus_uconst 96, DW_OP_deref] $rsp
	#DEBUG_VALUE: concealByTrial:minDist <- [DW_OP_plus_uconst 48, DW_OP_deref] $rsp
	#DEBUG_VALUE: concealByTrial:fInterNeighborExists <- [DW_OP_plus_uconst 20, DW_OP_deref] $rsp
	#DEBUG_VALUE: concealByTrial:fZeroMotionChecked <- [DW_OP_plus_uconst 12, DW_OP_deref] $rsp
	#DEBUG_VALUE: concealByTrial:i <- $r15
	movl	%eax, %r12d
.Ltmp169:
	#DEBUG_VALUE: concealByTrial:predMBNum <- $r12d
.LBB1_12:                               # %sw.epilog
                                        #   in Loop: Header=BB1_4 Depth=2
	#DEBUG_VALUE: concealByTrial:recfr <- [DW_OP_plus_uconst 64] [$rsp+0]
	#DEBUG_VALUE: concealByTrial:predMB <- [DW_OP_plus_uconst 72] [$rsp+0]
	#DEBUG_VALUE: concealByTrial:currMBNum <- [DW_OP_LLVM_entry_value 1] $edx
	#DEBUG_VALUE: concealByTrial:object_list <- [DW_OP_plus_uconst 112] [$rsp+0]
	#DEBUG_VALUE: concealByTrial:predBlocks <- [DW_OP_plus_uconst 152] [$rsp+0]
	#DEBUG_VALUE: concealByTrial:picSizeX <- [DW_OP_plus_uconst 16] [$rsp+0]
	#DEBUG_VALUE: concealByTrial:yCondition <- [DW_OP_plus_uconst 224] [$rsp+0]
	#DEBUG_VALUE: concealByTrial:p_Vid <- [DW_OP_plus_uconst 120, DW_OP_deref] $rsp
	#DEBUG_VALUE: concealByTrial:predMBNum <- $r12d
	#DEBUG_VALUE: concealByTrial:compLeft <- 1
	#DEBUG_VALUE: concealByTrial:comp <- 0
	#DEBUG_VALUE: concealByTrial:order <- 1
	#DEBUG_VALUE: concealByTrial:threshold <- [DW_OP_plus_uconst 52, DW_OP_deref] $rsp
	#DEBUG_VALUE: concealByTrial:regionSize <- 16
	#DEBUG_VALUE: concealByTrial:currRegion <- [DW_OP_plus_uconst 96, DW_OP_deref] $rsp
	#DEBUG_VALUE: concealByTrial:minDist <- [DW_OP_plus_uconst 48, DW_OP_deref] $rsp
	#DEBUG_VALUE: concealByTrial:fInterNeighborExists <- [DW_OP_plus_uconst 20, DW_OP_deref] $rsp
	#DEBUG_VALUE: concealByTrial:fZeroMotionChecked <- [DW_OP_plus_uconst 12, DW_OP_deref] $rsp
	#DEBUG_VALUE: concealByTrial:i <- $r15
	#DEBUG_VALUE: concealByTrial:predMBNum <- $r12d
	#DEBUG_VALUE: concealByTrial:compSplit1 <- $r9d
	#DEBUG_VALUE: concealByTrial:compSplit2 <- $r8d
	.loc	0 404 15 is_stmt 1              # ldecod_src/erc_do_p.c:404:15
	leal	(,%r12,4), %eax
	cltq
	leaq	(%rax,%rax,2), %rax
	leaq	(%rcx,%rax,8), %r13
	movzbl	(%rcx,%rax,8), %eax
	cmpb	$3, %al
	.loc	0 404 63 is_stmt 0              # ldecod_src/erc_do_p.c:404:63
	jb	.LBB1_17
.Ltmp170:
# %bb.13:                               # %cond.true
                                        #   in Loop: Header=BB1_4 Depth=2
	#DEBUG_VALUE: concealByTrial:recfr <- [DW_OP_plus_uconst 64] [$rsp+0]
	#DEBUG_VALUE: concealByTrial:predMB <- [DW_OP_plus_uconst 72] [$rsp+0]
	#DEBUG_VALUE: concealByTrial:currMBNum <- [DW_OP_LLVM_entry_value 1] $edx
	#DEBUG_VALUE: concealByTrial:object_list <- [DW_OP_plus_uconst 112] [$rsp+0]
	#DEBUG_VALUE: concealByTrial:predBlocks <- [DW_OP_plus_uconst 152] [$rsp+0]
	#DEBUG_VALUE: concealByTrial:picSizeX <- [DW_OP_plus_uconst 16] [$rsp+0]
	#DEBUG_VALUE: concealByTrial:yCondition <- [DW_OP_plus_uconst 224] [$rsp+0]
	#DEBUG_VALUE: concealByTrial:p_Vid <- [DW_OP_plus_uconst 120, DW_OP_deref] $rsp
	#DEBUG_VALUE: concealByTrial:predMBNum <- $r12d
	#DEBUG_VALUE: concealByTrial:compSplit1 <- $r9d
	#DEBUG_VALUE: concealByTrial:compSplit2 <- $r8d
	#DEBUG_VALUE: concealByTrial:compLeft <- 1
	#DEBUG_VALUE: concealByTrial:comp <- 0
	#DEBUG_VALUE: concealByTrial:order <- 1
	#DEBUG_VALUE: concealByTrial:threshold <- [DW_OP_plus_uconst 52, DW_OP_deref] $rsp
	#DEBUG_VALUE: concealByTrial:regionSize <- 16
	#DEBUG_VALUE: concealByTrial:currRegion <- [DW_OP_plus_uconst 96, DW_OP_deref] $rsp
	#DEBUG_VALUE: concealByTrial:minDist <- [DW_OP_plus_uconst 48, DW_OP_deref] $rsp
	#DEBUG_VALUE: concealByTrial:fInterNeighborExists <- [DW_OP_plus_uconst 20, DW_OP_deref] $rsp
	#DEBUG_VALUE: concealByTrial:fZeroMotionChecked <- [DW_OP_plus_uconst 12, DW_OP_deref] $rsp
	#DEBUG_VALUE: concealByTrial:i <- $r15
	.loc	0 404 15                        # ldecod_src/erc_do_p.c:404:15
	movl	%r9d, %esi
	leaq	(%rsi,%rsi,2), %rdx
	cmpb	$6, (%r13,%rdx,8)
	je	.LBB1_3
.Ltmp171:
# %bb.14:                               # %cond.true67
                                        #   in Loop: Header=BB1_4 Depth=2
	#DEBUG_VALUE: concealByTrial:recfr <- [DW_OP_plus_uconst 64] [$rsp+0]
	#DEBUG_VALUE: concealByTrial:predMB <- [DW_OP_plus_uconst 72] [$rsp+0]
	#DEBUG_VALUE: concealByTrial:currMBNum <- [DW_OP_LLVM_entry_value 1] $edx
	#DEBUG_VALUE: concealByTrial:object_list <- [DW_OP_plus_uconst 112] [$rsp+0]
	#DEBUG_VALUE: concealByTrial:predBlocks <- [DW_OP_plus_uconst 152] [$rsp+0]
	#DEBUG_VALUE: concealByTrial:picSizeX <- [DW_OP_plus_uconst 16] [$rsp+0]
	#DEBUG_VALUE: concealByTrial:yCondition <- [DW_OP_plus_uconst 224] [$rsp+0]
	#DEBUG_VALUE: concealByTrial:p_Vid <- [DW_OP_plus_uconst 120, DW_OP_deref] $rsp
	#DEBUG_VALUE: concealByTrial:predMBNum <- $r12d
	#DEBUG_VALUE: concealByTrial:compSplit1 <- $r9d
	#DEBUG_VALUE: concealByTrial:compSplit2 <- $r8d
	#DEBUG_VALUE: concealByTrial:compLeft <- 1
	#DEBUG_VALUE: concealByTrial:comp <- 0
	#DEBUG_VALUE: concealByTrial:order <- 1
	#DEBUG_VALUE: concealByTrial:threshold <- [DW_OP_plus_uconst 52, DW_OP_deref] $rsp
	#DEBUG_VALUE: concealByTrial:regionSize <- 16
	#DEBUG_VALUE: concealByTrial:currRegion <- [DW_OP_plus_uconst 96, DW_OP_deref] $rsp
	#DEBUG_VALUE: concealByTrial:minDist <- [DW_OP_plus_uconst 48, DW_OP_deref] $rsp
	#DEBUG_VALUE: concealByTrial:fInterNeighborExists <- [DW_OP_plus_uconst 20, DW_OP_deref] $rsp
	#DEBUG_VALUE: concealByTrial:fZeroMotionChecked <- [DW_OP_plus_uconst 12, DW_OP_deref] $rsp
	#DEBUG_VALUE: concealByTrial:i <- $r15
	.loc	0 405 13 is_stmt 1              # ldecod_src/erc_do_p.c:405:13
	movl	%r8d, %edx
	leaq	(%rdx,%rdx,2), %rdx
	cmpb	$6, (%r13,%rdx,8)
	je	.LBB1_3
.Ltmp172:
# %bb.15:                               # %cond.true104.peel
                                        #   in Loop: Header=BB1_4 Depth=2
	#DEBUG_VALUE: concealByTrial:recfr <- [DW_OP_plus_uconst 64] [$rsp+0]
	#DEBUG_VALUE: concealByTrial:predMB <- [DW_OP_plus_uconst 72] [$rsp+0]
	#DEBUG_VALUE: concealByTrial:currMBNum <- [DW_OP_LLVM_entry_value 1] $edx
	#DEBUG_VALUE: concealByTrial:object_list <- [DW_OP_plus_uconst 112] [$rsp+0]
	#DEBUG_VALUE: concealByTrial:predBlocks <- [DW_OP_plus_uconst 152] [$rsp+0]
	#DEBUG_VALUE: concealByTrial:picSizeX <- [DW_OP_plus_uconst 16] [$rsp+0]
	#DEBUG_VALUE: concealByTrial:yCondition <- [DW_OP_plus_uconst 224] [$rsp+0]
	#DEBUG_VALUE: concealByTrial:p_Vid <- [DW_OP_plus_uconst 120, DW_OP_deref] $rsp
	#DEBUG_VALUE: concealByTrial:predMBNum <- $r12d
	#DEBUG_VALUE: concealByTrial:compSplit1 <- $r9d
	#DEBUG_VALUE: concealByTrial:compSplit2 <- $r8d
	#DEBUG_VALUE: concealByTrial:compLeft <- 1
	#DEBUG_VALUE: concealByTrial:comp <- 0
	#DEBUG_VALUE: concealByTrial:order <- 1
	#DEBUG_VALUE: concealByTrial:threshold <- [DW_OP_plus_uconst 52, DW_OP_deref] $rsp
	#DEBUG_VALUE: concealByTrial:regionSize <- 16
	#DEBUG_VALUE: concealByTrial:currRegion <- [DW_OP_plus_uconst 96, DW_OP_deref] $rsp
	#DEBUG_VALUE: concealByTrial:minDist <- [DW_OP_plus_uconst 48, DW_OP_deref] $rsp
	#DEBUG_VALUE: concealByTrial:fInterNeighborExists <- [DW_OP_plus_uconst 20, DW_OP_deref] $rsp
	#DEBUG_VALUE: concealByTrial:fZeroMotionChecked <- [DW_OP_plus_uconst 12, DW_OP_deref] $rsp
	#DEBUG_VALUE: concealByTrial:i <- $r15
	#DEBUG_VALUE: concealByTrial:compPred <- $r9d
	#DEBUG_VALUE: concealByTrial:minDist <- [DW_OP_plus_uconst 48, DW_OP_deref] $rsp
	#DEBUG_VALUE: concealByTrial:fZeroMotionChecked <- [DW_OP_plus_uconst 12, DW_OP_deref] $rsp
	#DEBUG_VALUE: concealByTrial:fInterNeighborExists <- [DW_OP_plus_uconst 20, DW_OP_deref] $rsp
	#DEBUG_VALUE: concealByTrial:predSplitted <- [DW_OP_constu 2, DW_OP_gt, DW_OP_LLVM_convert 1 7, DW_OP_LLVM_convert 32 7, DW_OP_stack_value] $al
	.loc	0 0 13 is_stmt 0                # ldecod_src/erc_do_p.c:0:13
	leaq	12(%r13), %r10
	xorl	%ebp, %ebp
	cmpl	%r8d, %r9d
	sete	%bpl
	notl	%ebp
.Ltmp173:
	.loc	0 420 19 is_stmt 1              # ldecod_src/erc_do_p.c:420:19
	leaq	(%rsi,%rsi,2), %rdx
	movzbl	(%r13,%rdx,8), %edx
	movl	$1, %r11d
	cmpl	$4, %edx
	je	.LBB1_27
.Ltmp174:
# %bb.16:                               # %cond.true104.peel
                                        #   in Loop: Header=BB1_4 Depth=2
	#DEBUG_VALUE: concealByTrial:recfr <- [DW_OP_plus_uconst 64] [$rsp+0]
	#DEBUG_VALUE: concealByTrial:predMB <- [DW_OP_plus_uconst 72] [$rsp+0]
	#DEBUG_VALUE: concealByTrial:currMBNum <- [DW_OP_LLVM_entry_value 1] $edx
	#DEBUG_VALUE: concealByTrial:object_list <- [DW_OP_plus_uconst 112] [$rsp+0]
	#DEBUG_VALUE: concealByTrial:predBlocks <- [DW_OP_plus_uconst 152] [$rsp+0]
	#DEBUG_VALUE: concealByTrial:picSizeX <- [DW_OP_plus_uconst 16] [$rsp+0]
	#DEBUG_VALUE: concealByTrial:yCondition <- [DW_OP_plus_uconst 224] [$rsp+0]
	#DEBUG_VALUE: concealByTrial:p_Vid <- [DW_OP_plus_uconst 120, DW_OP_deref] $rsp
	#DEBUG_VALUE: concealByTrial:predMBNum <- $r12d
	#DEBUG_VALUE: concealByTrial:compSplit1 <- $r9d
	#DEBUG_VALUE: concealByTrial:compSplit2 <- $r8d
	#DEBUG_VALUE: concealByTrial:compLeft <- 1
	#DEBUG_VALUE: concealByTrial:comp <- 0
	#DEBUG_VALUE: concealByTrial:order <- 1
	#DEBUG_VALUE: concealByTrial:predSplitted <- [DW_OP_constu 2, DW_OP_gt, DW_OP_LLVM_convert 1 7, DW_OP_LLVM_convert 32 7, DW_OP_stack_value] $al
	#DEBUG_VALUE: concealByTrial:threshold <- [DW_OP_plus_uconst 52, DW_OP_deref] $rsp
	#DEBUG_VALUE: concealByTrial:regionSize <- 16
	#DEBUG_VALUE: concealByTrial:currRegion <- [DW_OP_plus_uconst 96, DW_OP_deref] $rsp
	#DEBUG_VALUE: concealByTrial:minDist <- [DW_OP_plus_uconst 48, DW_OP_deref] $rsp
	#DEBUG_VALUE: concealByTrial:fInterNeighborExists <- [DW_OP_plus_uconst 20, DW_OP_deref] $rsp
	#DEBUG_VALUE: concealByTrial:fZeroMotionChecked <- [DW_OP_plus_uconst 12, DW_OP_deref] $rsp
	#DEBUG_VALUE: concealByTrial:i <- $r15
	#DEBUG_VALUE: concealByTrial:compPred <- $r9d
	cmpl	$6, %edx
	je	.LBB1_29
	jmp	.LBB1_20
.Ltmp175:
	.p2align	4, 0x90
.LBB1_17:                               # %cond.false
                                        #   in Loop: Header=BB1_4 Depth=2
	#DEBUG_VALUE: concealByTrial:recfr <- [DW_OP_plus_uconst 64] [$rsp+0]
	#DEBUG_VALUE: concealByTrial:predMB <- [DW_OP_plus_uconst 72] [$rsp+0]
	#DEBUG_VALUE: concealByTrial:currMBNum <- [DW_OP_LLVM_entry_value 1] $edx
	#DEBUG_VALUE: concealByTrial:object_list <- [DW_OP_plus_uconst 112] [$rsp+0]
	#DEBUG_VALUE: concealByTrial:predBlocks <- [DW_OP_plus_uconst 152] [$rsp+0]
	#DEBUG_VALUE: concealByTrial:picSizeX <- [DW_OP_plus_uconst 16] [$rsp+0]
	#DEBUG_VALUE: concealByTrial:yCondition <- [DW_OP_plus_uconst 224] [$rsp+0]
	#DEBUG_VALUE: concealByTrial:p_Vid <- [DW_OP_plus_uconst 120, DW_OP_deref] $rsp
	#DEBUG_VALUE: concealByTrial:predMBNum <- $r12d
	#DEBUG_VALUE: concealByTrial:compSplit1 <- $r9d
	#DEBUG_VALUE: concealByTrial:compSplit2 <- $r8d
	#DEBUG_VALUE: concealByTrial:compLeft <- 1
	#DEBUG_VALUE: concealByTrial:comp <- 0
	#DEBUG_VALUE: concealByTrial:order <- 1
	#DEBUG_VALUE: concealByTrial:threshold <- [DW_OP_plus_uconst 52, DW_OP_deref] $rsp
	#DEBUG_VALUE: concealByTrial:regionSize <- 16
	#DEBUG_VALUE: concealByTrial:currRegion <- [DW_OP_plus_uconst 96, DW_OP_deref] $rsp
	#DEBUG_VALUE: concealByTrial:minDist <- [DW_OP_plus_uconst 48, DW_OP_deref] $rsp
	#DEBUG_VALUE: concealByTrial:fInterNeighborExists <- [DW_OP_plus_uconst 20, DW_OP_deref] $rsp
	#DEBUG_VALUE: concealByTrial:fZeroMotionChecked <- [DW_OP_plus_uconst 12, DW_OP_deref] $rsp
	#DEBUG_VALUE: concealByTrial:i <- $r15
	.loc	0 404 15                        # ldecod_src/erc_do_p.c:404:15
	cmpb	$2, %al
	.loc	0 404 63 is_stmt 0              # ldecod_src/erc_do_p.c:404:63
	je	.LBB1_3
.Ltmp176:
# %bb.18:                               # %cond.false114.peel
                                        #   in Loop: Header=BB1_4 Depth=2
	#DEBUG_VALUE: concealByTrial:recfr <- [DW_OP_plus_uconst 64] [$rsp+0]
	#DEBUG_VALUE: concealByTrial:predMB <- [DW_OP_plus_uconst 72] [$rsp+0]
	#DEBUG_VALUE: concealByTrial:currMBNum <- [DW_OP_LLVM_entry_value 1] $edx
	#DEBUG_VALUE: concealByTrial:object_list <- [DW_OP_plus_uconst 112] [$rsp+0]
	#DEBUG_VALUE: concealByTrial:predBlocks <- [DW_OP_plus_uconst 152] [$rsp+0]
	#DEBUG_VALUE: concealByTrial:picSizeX <- [DW_OP_plus_uconst 16] [$rsp+0]
	#DEBUG_VALUE: concealByTrial:yCondition <- [DW_OP_plus_uconst 224] [$rsp+0]
	#DEBUG_VALUE: concealByTrial:p_Vid <- [DW_OP_plus_uconst 120, DW_OP_deref] $rsp
	#DEBUG_VALUE: concealByTrial:predMBNum <- $r12d
	#DEBUG_VALUE: concealByTrial:compSplit1 <- $r9d
	#DEBUG_VALUE: concealByTrial:compSplit2 <- $r8d
	#DEBUG_VALUE: concealByTrial:compLeft <- 1
	#DEBUG_VALUE: concealByTrial:comp <- 0
	#DEBUG_VALUE: concealByTrial:order <- 1
	#DEBUG_VALUE: concealByTrial:threshold <- [DW_OP_plus_uconst 52, DW_OP_deref] $rsp
	#DEBUG_VALUE: concealByTrial:regionSize <- 16
	#DEBUG_VALUE: concealByTrial:currRegion <- [DW_OP_plus_uconst 96, DW_OP_deref] $rsp
	#DEBUG_VALUE: concealByTrial:minDist <- [DW_OP_plus_uconst 48, DW_OP_deref] $rsp
	#DEBUG_VALUE: concealByTrial:fInterNeighborExists <- [DW_OP_plus_uconst 20, DW_OP_deref] $rsp
	#DEBUG_VALUE: concealByTrial:fZeroMotionChecked <- [DW_OP_plus_uconst 12, DW_OP_deref] $rsp
	#DEBUG_VALUE: concealByTrial:i <- $r15
	#DEBUG_VALUE: concealByTrial:predSplitted <- [DW_OP_stack_value] 0
	#DEBUG_VALUE: concealByTrial:compPred <- $r9d
	#DEBUG_VALUE: concealByTrial:minDist <- [DW_OP_plus_uconst 48, DW_OP_deref] $rsp
	#DEBUG_VALUE: concealByTrial:fZeroMotionChecked <- [DW_OP_plus_uconst 12, DW_OP_deref] $rsp
	#DEBUG_VALUE: concealByTrial:fInterNeighborExists <- [DW_OP_plus_uconst 20, DW_OP_deref] $rsp
	.loc	0 0 63                          # ldecod_src/erc_do_p.c:0:63
	leaq	12(%r13), %r10
	xorl	%ebp, %ebp
	cmpl	%r8d, %r9d
	sete	%bpl
	notl	%ebp
.Ltmp177:
	.loc	0 420 19 is_stmt 1              # ldecod_src/erc_do_p.c:420:19
	testb	%al, %al
	je	.LBB1_26
.Ltmp178:
# %bb.19:                               # %cond.false114.peel.if.else157.peel_crit_edge
                                        #   in Loop: Header=BB1_4 Depth=2
	#DEBUG_VALUE: concealByTrial:recfr <- [DW_OP_plus_uconst 64] [$rsp+0]
	#DEBUG_VALUE: concealByTrial:predMB <- [DW_OP_plus_uconst 72] [$rsp+0]
	#DEBUG_VALUE: concealByTrial:currMBNum <- [DW_OP_LLVM_entry_value 1] $edx
	#DEBUG_VALUE: concealByTrial:object_list <- [DW_OP_plus_uconst 112] [$rsp+0]
	#DEBUG_VALUE: concealByTrial:predBlocks <- [DW_OP_plus_uconst 152] [$rsp+0]
	#DEBUG_VALUE: concealByTrial:picSizeX <- [DW_OP_plus_uconst 16] [$rsp+0]
	#DEBUG_VALUE: concealByTrial:yCondition <- [DW_OP_plus_uconst 224] [$rsp+0]
	#DEBUG_VALUE: concealByTrial:p_Vid <- [DW_OP_plus_uconst 120, DW_OP_deref] $rsp
	#DEBUG_VALUE: concealByTrial:predMBNum <- $r12d
	#DEBUG_VALUE: concealByTrial:compSplit1 <- $r9d
	#DEBUG_VALUE: concealByTrial:compSplit2 <- $r8d
	#DEBUG_VALUE: concealByTrial:compLeft <- 1
	#DEBUG_VALUE: concealByTrial:comp <- 0
	#DEBUG_VALUE: concealByTrial:order <- 1
	#DEBUG_VALUE: concealByTrial:predSplitted <- [DW_OP_stack_value] 0
	#DEBUG_VALUE: concealByTrial:threshold <- [DW_OP_plus_uconst 52, DW_OP_deref] $rsp
	#DEBUG_VALUE: concealByTrial:regionSize <- 16
	#DEBUG_VALUE: concealByTrial:currRegion <- [DW_OP_plus_uconst 96, DW_OP_deref] $rsp
	#DEBUG_VALUE: concealByTrial:minDist <- [DW_OP_plus_uconst 48, DW_OP_deref] $rsp
	#DEBUG_VALUE: concealByTrial:fInterNeighborExists <- [DW_OP_plus_uconst 20, DW_OP_deref] $rsp
	#DEBUG_VALUE: concealByTrial:fZeroMotionChecked <- [DW_OP_plus_uconst 12, DW_OP_deref] $rsp
	#DEBUG_VALUE: concealByTrial:i <- $r15
	#DEBUG_VALUE: concealByTrial:compPred <- $r9d
	.loc	0 444 25                        # ldecod_src/erc_do_p.c:444:25
	movl	%r9d, %esi
	xorl	%r11d, %r11d
.Ltmp179:
.LBB1_20:                               # %if.else157.peel
                                        #   in Loop: Header=BB1_4 Depth=2
	#DEBUG_VALUE: concealByTrial:recfr <- [DW_OP_plus_uconst 64] [$rsp+0]
	#DEBUG_VALUE: concealByTrial:predMB <- [DW_OP_plus_uconst 72] [$rsp+0]
	#DEBUG_VALUE: concealByTrial:currMBNum <- [DW_OP_LLVM_entry_value 1] $edx
	#DEBUG_VALUE: concealByTrial:object_list <- [DW_OP_plus_uconst 112] [$rsp+0]
	#DEBUG_VALUE: concealByTrial:predBlocks <- [DW_OP_plus_uconst 152] [$rsp+0]
	#DEBUG_VALUE: concealByTrial:picSizeX <- [DW_OP_plus_uconst 16] [$rsp+0]
	#DEBUG_VALUE: concealByTrial:yCondition <- [DW_OP_plus_uconst 224] [$rsp+0]
	#DEBUG_VALUE: concealByTrial:p_Vid <- [DW_OP_plus_uconst 120, DW_OP_deref] $rsp
	#DEBUG_VALUE: concealByTrial:predMBNum <- $r12d
	#DEBUG_VALUE: concealByTrial:compSplit1 <- $r9d
	#DEBUG_VALUE: concealByTrial:compSplit2 <- $r8d
	#DEBUG_VALUE: concealByTrial:compLeft <- 1
	#DEBUG_VALUE: concealByTrial:comp <- 0
	#DEBUG_VALUE: concealByTrial:order <- 1
	#DEBUG_VALUE: concealByTrial:threshold <- [DW_OP_plus_uconst 52, DW_OP_deref] $rsp
	#DEBUG_VALUE: concealByTrial:regionSize <- 16
	#DEBUG_VALUE: concealByTrial:currRegion <- [DW_OP_plus_uconst 96, DW_OP_deref] $rsp
	#DEBUG_VALUE: concealByTrial:minDist <- [DW_OP_plus_uconst 48, DW_OP_deref] $rsp
	#DEBUG_VALUE: concealByTrial:fInterNeighborExists <- [DW_OP_plus_uconst 20, DW_OP_deref] $rsp
	#DEBUG_VALUE: concealByTrial:fZeroMotionChecked <- [DW_OP_plus_uconst 12, DW_OP_deref] $rsp
	#DEBUG_VALUE: concealByTrial:i <- $r15
	#DEBUG_VALUE: concealByTrial:compPred <- $r9d
	.loc	0 0 25 is_stmt 0                # ldecod_src/erc_do_p.c:0:25
	movl	%r11d, 56(%rsp)                 # 4-byte Spill
	movq	%r12, 104(%rsp)                 # 8-byte Spill
.Ltmp180:
	#DEBUG_VALUE: concealByTrial:predMBNum <- [DW_OP_plus_uconst 104, DW_OP_deref] $rsp
	movl	%r9d, %r12d
.Ltmp181:
	#DEBUG_VALUE: concealByTrial:compPred <- $r12d
	#DEBUG_VALUE: concealByTrial:compSplit1 <- $r12d
	movl	%r8d, 60(%rsp)                  # 4-byte Spill
.Ltmp182:
	#DEBUG_VALUE: concealByTrial:compSplit2 <- [DW_OP_plus_uconst 60, DW_OP_deref] $rsp
	.loc	0 404 15 is_stmt 1              # ldecod_src/erc_do_p.c:404:15
	cmpb	$3, %al
.Ltmp183:
	.loc	0 444 25                        # ldecod_src/erc_do_p.c:444:25
	leaq	(%rsi,%rsi,2), %rax
	leaq	12(%r13,%rax,8), %rax
	movq	%r10, 128(%rsp)                 # 8-byte Spill
	cmovbq	%r10, %rax
.Ltmp184:
	#DEBUG_VALUE: concealByTrial:mvptr <- $rax
	#DEBUG_VALUE: concealByTrial:mvPred <- [DW_OP_LLVM_fragment 0 32] undef
	#DEBUG_VALUE: concealByTrial:mvPred <- [DW_OP_plus_uconst 24, DW_OP_plus_uconst 4, DW_OP_deref, DW_OP_LLVM_fragment 32 64] $rsp
	.loc	0 446 29                        # ldecod_src/erc_do_p.c:446:29
	movq	(%rax), %rcx
	.loc	0 446 27 is_stmt 0              # ldecod_src/erc_do_p.c:446:27
	movq	%rcx, 24(%rsp)
.Ltmp185:
	#DEBUG_VALUE: concealByTrial:mvPred <- [DW_OP_plus_uconst 24, DW_OP_deref] $rsp
	.loc	0 448 29 is_stmt 1              # ldecod_src/erc_do_p.c:448:29
	movl	8(%rax), %eax
.Ltmp186:
	#DEBUG_VALUE: concealByTrial:mvPred <- [DW_OP_LLVM_fragment 64 32] $eax
	#DEBUG_VALUE: concealByTrial:mvPred <- [DW_OP_plus_uconst 24, DW_OP_deref, DW_OP_LLVM_fragment 0 64] $rsp
.LBB1_21:                               # %if.end189.peel
                                        #   in Loop: Header=BB1_4 Depth=2
	#DEBUG_VALUE: concealByTrial:recfr <- [DW_OP_plus_uconst 64] [$rsp+0]
	#DEBUG_VALUE: concealByTrial:predMB <- [DW_OP_plus_uconst 72] [$rsp+0]
	#DEBUG_VALUE: concealByTrial:currMBNum <- [DW_OP_LLVM_entry_value 1] $edx
	#DEBUG_VALUE: concealByTrial:object_list <- [DW_OP_plus_uconst 112] [$rsp+0]
	#DEBUG_VALUE: concealByTrial:predBlocks <- [DW_OP_plus_uconst 152] [$rsp+0]
	#DEBUG_VALUE: concealByTrial:picSizeX <- [DW_OP_plus_uconst 16] [$rsp+0]
	#DEBUG_VALUE: concealByTrial:yCondition <- [DW_OP_plus_uconst 224] [$rsp+0]
	#DEBUG_VALUE: concealByTrial:mvPred <- [DW_OP_plus_uconst 24, DW_OP_deref, DW_OP_LLVM_fragment 0 64] $rsp
	#DEBUG_VALUE: concealByTrial:p_Vid <- [DW_OP_plus_uconst 120, DW_OP_deref] $rsp
	#DEBUG_VALUE: concealByTrial:predMBNum <- [DW_OP_plus_uconst 104, DW_OP_deref] $rsp
	#DEBUG_VALUE: concealByTrial:compSplit1 <- $r12d
	#DEBUG_VALUE: concealByTrial:compSplit2 <- [DW_OP_plus_uconst 60, DW_OP_deref] $rsp
	#DEBUG_VALUE: concealByTrial:compLeft <- 1
	#DEBUG_VALUE: concealByTrial:comp <- 0
	#DEBUG_VALUE: concealByTrial:order <- 1
	#DEBUG_VALUE: concealByTrial:threshold <- [DW_OP_plus_uconst 52, DW_OP_deref] $rsp
	#DEBUG_VALUE: concealByTrial:regionSize <- 16
	#DEBUG_VALUE: concealByTrial:currRegion <- [DW_OP_plus_uconst 96, DW_OP_deref] $rsp
	#DEBUG_VALUE: concealByTrial:minDist <- [DW_OP_plus_uconst 48, DW_OP_deref] $rsp
	#DEBUG_VALUE: concealByTrial:fInterNeighborExists <- [DW_OP_plus_uconst 20, DW_OP_deref] $rsp
	#DEBUG_VALUE: concealByTrial:i <- $r15
	#DEBUG_VALUE: concealByTrial:compPred <- $r12d
	.loc	0 0 0 is_stmt 0                 # ldecod_src/erc_do_p.c:0:0
	movl	%eax, 32(%rsp)
.Ltmp187:
	#DEBUG_VALUE: concealByTrial:mvPred <- [DW_OP_plus_uconst 24, DW_OP_deref] $rsp
	movq	120(%rsp), %rax                 # 8-byte Reload
	movq	856520(%rax), %rdi
	movl	4(%rbx), %edx
	movl	8(%rbx), %ecx
	leaq	24(%rsp), %rsi
	movq	72(%rsp), %rbx                  # 8-byte Reload
	movq	%rbx, %r8
	callq	buildPredRegionYUV
.Ltmp188:
	#DEBUG_VALUE: concealByTrial:fZeroMotionChecked <- [DW_OP_plus_uconst 12, DW_OP_deref] $rsp
	movq	64(%rsp), %rax                  # 8-byte Reload
.Ltmp189:
	.loc	0 456 32 is_stmt 1              # ldecod_src/erc_do_p.c:456:32
	movq	8(%rax), %rcx
	.loc	0 454 26                        # ldecod_src/erc_do_p.c:454:26
	movq	%r14, %rdi
	movl	44(%rsp), %esi                  # 4-byte Reload
	movq	%rbx, %rdx
	movl	16(%rsp), %r8d                  # 4-byte Reload
	callq	edgeDistortion
.Ltmp190:
	movl	%eax, %r14d
.Ltmp191:
	#DEBUG_VALUE: concealByTrial:currDist <- $r14d
	.loc	0 459 28                        # ldecod_src/erc_do_p.c:459:28
	cmpl	48(%rsp), %eax                  # 4-byte Folded Reload
	setge	%al
	cmpl	$0, 20(%rsp)                    # 4-byte Folded Reload
	setne	%cl
	movl	$1, 20(%rsp)                    # 4-byte Folded Spill
.Ltmp192:
	#DEBUG_VALUE: concealByTrial:fInterNeighborExists <- undef
	.loc	0 459 38 is_stmt 0              # ldecod_src/erc_do_p.c:459:38
	testb	%cl, %al
	je	.LBB1_23
.Ltmp193:
# %bb.22:                               #   in Loop: Header=BB1_4 Depth=2
	#DEBUG_VALUE: concealByTrial:recfr <- [DW_OP_plus_uconst 64] [$rsp+0]
	#DEBUG_VALUE: concealByTrial:predMB <- [DW_OP_plus_uconst 72] [$rsp+0]
	#DEBUG_VALUE: concealByTrial:currMBNum <- [DW_OP_LLVM_entry_value 1] $edx
	#DEBUG_VALUE: concealByTrial:object_list <- [DW_OP_plus_uconst 112] [$rsp+0]
	#DEBUG_VALUE: concealByTrial:predBlocks <- [DW_OP_plus_uconst 152] [$rsp+0]
	#DEBUG_VALUE: concealByTrial:picSizeX <- [DW_OP_plus_uconst 16] [$rsp+0]
	#DEBUG_VALUE: concealByTrial:yCondition <- [DW_OP_plus_uconst 224] [$rsp+0]
	#DEBUG_VALUE: concealByTrial:mvPred <- [DW_OP_plus_uconst 24, DW_OP_deref] $rsp
	#DEBUG_VALUE: concealByTrial:p_Vid <- [DW_OP_plus_uconst 120, DW_OP_deref] $rsp
	#DEBUG_VALUE: concealByTrial:predMBNum <- [DW_OP_plus_uconst 104, DW_OP_deref] $rsp
	#DEBUG_VALUE: concealByTrial:compSplit1 <- $r12d
	#DEBUG_VALUE: concealByTrial:compSplit2 <- [DW_OP_plus_uconst 60, DW_OP_deref] $rsp
	#DEBUG_VALUE: concealByTrial:compLeft <- 1
	#DEBUG_VALUE: concealByTrial:comp <- 0
	#DEBUG_VALUE: concealByTrial:order <- 1
	#DEBUG_VALUE: concealByTrial:threshold <- [DW_OP_plus_uconst 52, DW_OP_deref] $rsp
	#DEBUG_VALUE: concealByTrial:regionSize <- 16
	#DEBUG_VALUE: concealByTrial:currRegion <- [DW_OP_plus_uconst 96, DW_OP_deref] $rsp
	#DEBUG_VALUE: concealByTrial:minDist <- [DW_OP_plus_uconst 48, DW_OP_deref] $rsp
	#DEBUG_VALUE: concealByTrial:fZeroMotionChecked <- [DW_OP_plus_uconst 12, DW_OP_deref] $rsp
	#DEBUG_VALUE: concealByTrial:i <- $r15
	#DEBUG_VALUE: concealByTrial:compPred <- $r12d
	#DEBUG_VALUE: concealByTrial:currDist <- $r14d
	.loc	0 0 38                          # ldecod_src/erc_do_p.c:0:38
	movq	96(%rsp), %rbx                  # 8-byte Reload
	movq	152(%rsp), %r14                 # 8-byte Reload
.Ltmp194:
	movq	112(%rsp), %rcx                 # 8-byte Reload
	movl	52(%rsp), %edi                  # 4-byte Reload
	movl	60(%rsp), %r8d                  # 4-byte Reload
	movl	%r12d, %r9d
	jmp	.LBB1_35
.Ltmp195:
.LBB1_23:                               # %for.body211.preheader.peel
                                        #   in Loop: Header=BB1_4 Depth=2
	#DEBUG_VALUE: concealByTrial:recfr <- [DW_OP_plus_uconst 64] [$rsp+0]
	#DEBUG_VALUE: concealByTrial:predMB <- [DW_OP_plus_uconst 72] [$rsp+0]
	#DEBUG_VALUE: concealByTrial:currMBNum <- [DW_OP_LLVM_entry_value 1] $edx
	#DEBUG_VALUE: concealByTrial:object_list <- [DW_OP_plus_uconst 112] [$rsp+0]
	#DEBUG_VALUE: concealByTrial:predBlocks <- [DW_OP_plus_uconst 152] [$rsp+0]
	#DEBUG_VALUE: concealByTrial:picSizeX <- [DW_OP_plus_uconst 16] [$rsp+0]
	#DEBUG_VALUE: concealByTrial:yCondition <- [DW_OP_plus_uconst 224] [$rsp+0]
	#DEBUG_VALUE: concealByTrial:mvPred <- [DW_OP_plus_uconst 24, DW_OP_deref] $rsp
	#DEBUG_VALUE: concealByTrial:p_Vid <- [DW_OP_plus_uconst 120, DW_OP_deref] $rsp
	#DEBUG_VALUE: concealByTrial:predMBNum <- [DW_OP_plus_uconst 104, DW_OP_deref] $rsp
	#DEBUG_VALUE: concealByTrial:compSplit1 <- $r12d
	#DEBUG_VALUE: concealByTrial:compSplit2 <- [DW_OP_plus_uconst 60, DW_OP_deref] $rsp
	#DEBUG_VALUE: concealByTrial:compLeft <- 1
	#DEBUG_VALUE: concealByTrial:comp <- 0
	#DEBUG_VALUE: concealByTrial:order <- 1
	#DEBUG_VALUE: concealByTrial:threshold <- [DW_OP_plus_uconst 52, DW_OP_deref] $rsp
	#DEBUG_VALUE: concealByTrial:regionSize <- 16
	#DEBUG_VALUE: concealByTrial:currRegion <- [DW_OP_plus_uconst 96, DW_OP_deref] $rsp
	#DEBUG_VALUE: concealByTrial:minDist <- [DW_OP_plus_uconst 48, DW_OP_deref] $rsp
	#DEBUG_VALUE: concealByTrial:fZeroMotionChecked <- [DW_OP_plus_uconst 12, DW_OP_deref] $rsp
	#DEBUG_VALUE: concealByTrial:i <- $r15
	#DEBUG_VALUE: concealByTrial:compPred <- $r12d
	#DEBUG_VALUE: concealByTrial:currDist <- $r14d
	.loc	0 466 29 is_stmt 1              # ldecod_src/erc_do_p.c:466:29
	movl	32(%rsp), %eax
	movl	%eax, 88(%rsp)
	movq	24(%rsp), %rax
	movq	%rax, 80(%rsp)
.Ltmp196:
	#DEBUG_VALUE: concealByTrial:k <- undef
	.loc	0 469 20                        # ldecod_src/erc_do_p.c:469:20
	movzbl	(%r13), %eax
	cmpb	$2, %al
	movl	%r12d, 40(%rsp)                 # 4-byte Spill
.Ltmp197:
	#DEBUG_VALUE: concealByTrial:compPred <- [DW_OP_plus_uconst 40, DW_OP_deref] $rsp
	#DEBUG_VALUE: concealByTrial:compSplit1 <- [DW_OP_plus_uconst 40, DW_OP_deref] $rsp
	.loc	0 469 19 is_stmt 0              # ldecod_src/erc_do_p.c:469:19
	jbe	.LBB1_30
.Ltmp198:
# %bb.24:                               # %cond.true224.peel
                                        #   in Loop: Header=BB1_4 Depth=2
	#DEBUG_VALUE: concealByTrial:recfr <- [DW_OP_plus_uconst 64] [$rsp+0]
	#DEBUG_VALUE: concealByTrial:predMB <- [DW_OP_plus_uconst 72] [$rsp+0]
	#DEBUG_VALUE: concealByTrial:currMBNum <- [DW_OP_LLVM_entry_value 1] $edx
	#DEBUG_VALUE: concealByTrial:object_list <- [DW_OP_plus_uconst 112] [$rsp+0]
	#DEBUG_VALUE: concealByTrial:predBlocks <- [DW_OP_plus_uconst 152] [$rsp+0]
	#DEBUG_VALUE: concealByTrial:picSizeX <- [DW_OP_plus_uconst 16] [$rsp+0]
	#DEBUG_VALUE: concealByTrial:yCondition <- [DW_OP_plus_uconst 224] [$rsp+0]
	#DEBUG_VALUE: concealByTrial:mvPred <- [DW_OP_plus_uconst 24, DW_OP_deref] $rsp
	#DEBUG_VALUE: concealByTrial:p_Vid <- [DW_OP_plus_uconst 120, DW_OP_deref] $rsp
	#DEBUG_VALUE: concealByTrial:predMBNum <- [DW_OP_plus_uconst 104, DW_OP_deref] $rsp
	#DEBUG_VALUE: concealByTrial:compSplit1 <- [DW_OP_plus_uconst 40, DW_OP_deref] $rsp
	#DEBUG_VALUE: concealByTrial:compSplit2 <- [DW_OP_plus_uconst 60, DW_OP_deref] $rsp
	#DEBUG_VALUE: concealByTrial:compLeft <- 1
	#DEBUG_VALUE: concealByTrial:comp <- 0
	#DEBUG_VALUE: concealByTrial:order <- 1
	#DEBUG_VALUE: concealByTrial:threshold <- [DW_OP_plus_uconst 52, DW_OP_deref] $rsp
	#DEBUG_VALUE: concealByTrial:regionSize <- 16
	#DEBUG_VALUE: concealByTrial:currRegion <- [DW_OP_plus_uconst 96, DW_OP_deref] $rsp
	#DEBUG_VALUE: concealByTrial:minDist <- [DW_OP_plus_uconst 48, DW_OP_deref] $rsp
	#DEBUG_VALUE: concealByTrial:fZeroMotionChecked <- [DW_OP_plus_uconst 12, DW_OP_deref] $rsp
	#DEBUG_VALUE: concealByTrial:i <- $r15
	#DEBUG_VALUE: concealByTrial:compPred <- [DW_OP_plus_uconst 40, DW_OP_deref] $rsp
	#DEBUG_VALUE: concealByTrial:currDist <- $r14d
	.loc	0 469 20                        # ldecod_src/erc_do_p.c:469:20
	movl	%r12d, %eax
	leaq	(%rax,%rax,2), %rax
	cmpb	$4, (%r13,%rax,8)
	jne	.LBB1_31
.Ltmp199:
.LBB1_33:                               #   in Loop: Header=BB1_4 Depth=2
	#DEBUG_VALUE: concealByTrial:recfr <- [DW_OP_plus_uconst 64] [$rsp+0]
	#DEBUG_VALUE: concealByTrial:predMB <- [DW_OP_plus_uconst 72] [$rsp+0]
	#DEBUG_VALUE: concealByTrial:currMBNum <- [DW_OP_LLVM_entry_value 1] $edx
	#DEBUG_VALUE: concealByTrial:object_list <- [DW_OP_plus_uconst 112] [$rsp+0]
	#DEBUG_VALUE: concealByTrial:predBlocks <- [DW_OP_plus_uconst 152] [$rsp+0]
	#DEBUG_VALUE: concealByTrial:picSizeX <- [DW_OP_plus_uconst 16] [$rsp+0]
	#DEBUG_VALUE: concealByTrial:yCondition <- [DW_OP_plus_uconst 224] [$rsp+0]
	#DEBUG_VALUE: concealByTrial:mvPred <- [DW_OP_plus_uconst 24, DW_OP_deref] $rsp
	#DEBUG_VALUE: concealByTrial:p_Vid <- [DW_OP_plus_uconst 120, DW_OP_deref] $rsp
	#DEBUG_VALUE: concealByTrial:predMBNum <- [DW_OP_plus_uconst 104, DW_OP_deref] $rsp
	#DEBUG_VALUE: concealByTrial:compSplit1 <- [DW_OP_plus_uconst 40, DW_OP_deref] $rsp
	#DEBUG_VALUE: concealByTrial:compSplit2 <- [DW_OP_plus_uconst 60, DW_OP_deref] $rsp
	#DEBUG_VALUE: concealByTrial:compLeft <- 1
	#DEBUG_VALUE: concealByTrial:comp <- 0
	#DEBUG_VALUE: concealByTrial:order <- 1
	#DEBUG_VALUE: concealByTrial:threshold <- [DW_OP_plus_uconst 52, DW_OP_deref] $rsp
	#DEBUG_VALUE: concealByTrial:regionSize <- 16
	#DEBUG_VALUE: concealByTrial:currRegion <- [DW_OP_plus_uconst 96, DW_OP_deref] $rsp
	#DEBUG_VALUE: concealByTrial:minDist <- [DW_OP_plus_uconst 48, DW_OP_deref] $rsp
	#DEBUG_VALUE: concealByTrial:fZeroMotionChecked <- [DW_OP_plus_uconst 12, DW_OP_deref] $rsp
	#DEBUG_VALUE: concealByTrial:i <- $r15
	#DEBUG_VALUE: concealByTrial:compPred <- [DW_OP_plus_uconst 40, DW_OP_deref] $rsp
	#DEBUG_VALUE: concealByTrial:currDist <- $r14d
	.loc	0 0 20                          # ldecod_src/erc_do_p.c:0:20
	xorl	%eax, %eax
	jmp	.LBB1_34
.Ltmp200:
.LBB1_26:                               #   in Loop: Header=BB1_4 Depth=2
	#DEBUG_VALUE: concealByTrial:recfr <- [DW_OP_plus_uconst 64] [$rsp+0]
	#DEBUG_VALUE: concealByTrial:predMB <- [DW_OP_plus_uconst 72] [$rsp+0]
	#DEBUG_VALUE: concealByTrial:currMBNum <- [DW_OP_LLVM_entry_value 1] $edx
	#DEBUG_VALUE: concealByTrial:object_list <- [DW_OP_plus_uconst 112] [$rsp+0]
	#DEBUG_VALUE: concealByTrial:predBlocks <- [DW_OP_plus_uconst 152] [$rsp+0]
	#DEBUG_VALUE: concealByTrial:picSizeX <- [DW_OP_plus_uconst 16] [$rsp+0]
	#DEBUG_VALUE: concealByTrial:yCondition <- [DW_OP_plus_uconst 224] [$rsp+0]
	#DEBUG_VALUE: concealByTrial:p_Vid <- [DW_OP_plus_uconst 120, DW_OP_deref] $rsp
	#DEBUG_VALUE: concealByTrial:predMBNum <- $r12d
	#DEBUG_VALUE: concealByTrial:compSplit1 <- $r9d
	#DEBUG_VALUE: concealByTrial:compSplit2 <- $r8d
	#DEBUG_VALUE: concealByTrial:compLeft <- 1
	#DEBUG_VALUE: concealByTrial:comp <- 0
	#DEBUG_VALUE: concealByTrial:order <- 1
	#DEBUG_VALUE: concealByTrial:predSplitted <- [DW_OP_stack_value] 0
	#DEBUG_VALUE: concealByTrial:threshold <- [DW_OP_plus_uconst 52, DW_OP_deref] $rsp
	#DEBUG_VALUE: concealByTrial:regionSize <- 16
	#DEBUG_VALUE: concealByTrial:currRegion <- [DW_OP_plus_uconst 96, DW_OP_deref] $rsp
	#DEBUG_VALUE: concealByTrial:minDist <- [DW_OP_plus_uconst 48, DW_OP_deref] $rsp
	#DEBUG_VALUE: concealByTrial:fInterNeighborExists <- [DW_OP_plus_uconst 20, DW_OP_deref] $rsp
	#DEBUG_VALUE: concealByTrial:fZeroMotionChecked <- [DW_OP_plus_uconst 12, DW_OP_deref] $rsp
	#DEBUG_VALUE: concealByTrial:i <- $r15
	#DEBUG_VALUE: concealByTrial:compPred <- $r9d
	xorl	%r11d, %r11d
.Ltmp201:
.LBB1_27:                               # %if.then122.peel
                                        #   in Loop: Header=BB1_4 Depth=2
	#DEBUG_VALUE: concealByTrial:recfr <- [DW_OP_plus_uconst 64] [$rsp+0]
	#DEBUG_VALUE: concealByTrial:predMB <- [DW_OP_plus_uconst 72] [$rsp+0]
	#DEBUG_VALUE: concealByTrial:currMBNum <- [DW_OP_LLVM_entry_value 1] $edx
	#DEBUG_VALUE: concealByTrial:object_list <- [DW_OP_plus_uconst 112] [$rsp+0]
	#DEBUG_VALUE: concealByTrial:predBlocks <- [DW_OP_plus_uconst 152] [$rsp+0]
	#DEBUG_VALUE: concealByTrial:picSizeX <- [DW_OP_plus_uconst 16] [$rsp+0]
	#DEBUG_VALUE: concealByTrial:yCondition <- [DW_OP_plus_uconst 224] [$rsp+0]
	#DEBUG_VALUE: concealByTrial:p_Vid <- [DW_OP_plus_uconst 120, DW_OP_deref] $rsp
	#DEBUG_VALUE: concealByTrial:predMBNum <- $r12d
	#DEBUG_VALUE: concealByTrial:compSplit1 <- $r9d
	#DEBUG_VALUE: concealByTrial:compSplit2 <- $r8d
	#DEBUG_VALUE: concealByTrial:compLeft <- 1
	#DEBUG_VALUE: concealByTrial:comp <- 0
	#DEBUG_VALUE: concealByTrial:order <- 1
	#DEBUG_VALUE: concealByTrial:threshold <- [DW_OP_plus_uconst 52, DW_OP_deref] $rsp
	#DEBUG_VALUE: concealByTrial:regionSize <- 16
	#DEBUG_VALUE: concealByTrial:currRegion <- [DW_OP_plus_uconst 96, DW_OP_deref] $rsp
	#DEBUG_VALUE: concealByTrial:minDist <- [DW_OP_plus_uconst 48, DW_OP_deref] $rsp
	#DEBUG_VALUE: concealByTrial:fInterNeighborExists <- [DW_OP_plus_uconst 20, DW_OP_deref] $rsp
	#DEBUG_VALUE: concealByTrial:fZeroMotionChecked <- [DW_OP_plus_uconst 12, DW_OP_deref] $rsp
	#DEBUG_VALUE: concealByTrial:i <- $r15
	#DEBUG_VALUE: concealByTrial:compPred <- $r9d
	.loc	0 423 21 is_stmt 1              # ldecod_src/erc_do_p.c:423:21
	cmpl	$0, 12(%rsp)                    # 4-byte Folded Reload
.Ltmp202:
	.loc	0 423 21 is_stmt 0              # ldecod_src/erc_do_p.c:423:21
	je	.LBB1_32
.Ltmp203:
# %bb.28:                               #   in Loop: Header=BB1_4 Depth=2
	#DEBUG_VALUE: concealByTrial:recfr <- [DW_OP_plus_uconst 64] [$rsp+0]
	#DEBUG_VALUE: concealByTrial:predMB <- [DW_OP_plus_uconst 72] [$rsp+0]
	#DEBUG_VALUE: concealByTrial:currMBNum <- [DW_OP_LLVM_entry_value 1] $edx
	#DEBUG_VALUE: concealByTrial:object_list <- [DW_OP_plus_uconst 112] [$rsp+0]
	#DEBUG_VALUE: concealByTrial:predBlocks <- [DW_OP_plus_uconst 152] [$rsp+0]
	#DEBUG_VALUE: concealByTrial:picSizeX <- [DW_OP_plus_uconst 16] [$rsp+0]
	#DEBUG_VALUE: concealByTrial:yCondition <- [DW_OP_plus_uconst 224] [$rsp+0]
	#DEBUG_VALUE: concealByTrial:p_Vid <- [DW_OP_plus_uconst 120, DW_OP_deref] $rsp
	#DEBUG_VALUE: concealByTrial:predMBNum <- $r12d
	#DEBUG_VALUE: concealByTrial:compSplit1 <- $r9d
	#DEBUG_VALUE: concealByTrial:compSplit2 <- $r8d
	#DEBUG_VALUE: concealByTrial:compLeft <- 1
	#DEBUG_VALUE: concealByTrial:comp <- 0
	#DEBUG_VALUE: concealByTrial:order <- 1
	#DEBUG_VALUE: concealByTrial:threshold <- [DW_OP_plus_uconst 52, DW_OP_deref] $rsp
	#DEBUG_VALUE: concealByTrial:regionSize <- 16
	#DEBUG_VALUE: concealByTrial:currRegion <- [DW_OP_plus_uconst 96, DW_OP_deref] $rsp
	#DEBUG_VALUE: concealByTrial:minDist <- [DW_OP_plus_uconst 48, DW_OP_deref] $rsp
	#DEBUG_VALUE: concealByTrial:fInterNeighborExists <- [DW_OP_plus_uconst 20, DW_OP_deref] $rsp
	#DEBUG_VALUE: concealByTrial:fZeroMotionChecked <- [DW_OP_plus_uconst 12, DW_OP_deref] $rsp
	#DEBUG_VALUE: concealByTrial:i <- $r15
	#DEBUG_VALUE: concealByTrial:compPred <- $r9d
	.loc	0 0 21                          # ldecod_src/erc_do_p.c:0:21
	movl	$1, 12(%rsp)                    # 4-byte Folded Spill
.Ltmp204:
	#DEBUG_VALUE: concealByTrial:fZeroMotionChecked <- undef
.LBB1_29:                               # %for.inc268.peel
                                        #   in Loop: Header=BB1_4 Depth=2
	#DEBUG_VALUE: concealByTrial:recfr <- [DW_OP_plus_uconst 64] [$rsp+0]
	#DEBUG_VALUE: concealByTrial:predMB <- [DW_OP_plus_uconst 72] [$rsp+0]
	#DEBUG_VALUE: concealByTrial:currMBNum <- [DW_OP_LLVM_entry_value 1] $edx
	#DEBUG_VALUE: concealByTrial:object_list <- [DW_OP_plus_uconst 112] [$rsp+0]
	#DEBUG_VALUE: concealByTrial:predBlocks <- [DW_OP_plus_uconst 152] [$rsp+0]
	#DEBUG_VALUE: concealByTrial:picSizeX <- [DW_OP_plus_uconst 16] [$rsp+0]
	#DEBUG_VALUE: concealByTrial:yCondition <- [DW_OP_plus_uconst 224] [$rsp+0]
	#DEBUG_VALUE: concealByTrial:p_Vid <- [DW_OP_plus_uconst 120, DW_OP_deref] $rsp
	#DEBUG_VALUE: concealByTrial:predMBNum <- $r12d
	#DEBUG_VALUE: concealByTrial:compSplit1 <- $r9d
	#DEBUG_VALUE: concealByTrial:compSplit2 <- $r8d
	#DEBUG_VALUE: concealByTrial:compLeft <- 1
	#DEBUG_VALUE: concealByTrial:comp <- 0
	#DEBUG_VALUE: concealByTrial:order <- 1
	#DEBUG_VALUE: concealByTrial:threshold <- [DW_OP_plus_uconst 52, DW_OP_deref] $rsp
	#DEBUG_VALUE: concealByTrial:regionSize <- 16
	#DEBUG_VALUE: concealByTrial:currRegion <- [DW_OP_plus_uconst 96, DW_OP_deref] $rsp
	#DEBUG_VALUE: concealByTrial:minDist <- [DW_OP_plus_uconst 48, DW_OP_deref] $rsp
	#DEBUG_VALUE: concealByTrial:fInterNeighborExists <- [DW_OP_plus_uconst 20, DW_OP_deref] $rsp
	#DEBUG_VALUE: concealByTrial:i <- $r15
	#DEBUG_VALUE: concealByTrial:compPred <- $r9d
	#DEBUG_VALUE: concealByTrial:minDist <- [DW_OP_plus_uconst 48, DW_OP_deref] $rsp
	#DEBUG_VALUE: concealByTrial:fZeroMotionChecked <- [DW_OP_plus_uconst 12, DW_OP_deref] $rsp
	#DEBUG_VALUE: concealByTrial:fInterNeighborExists <- [DW_OP_plus_uconst 20, DW_OP_deref] $rsp
	#DEBUG_VALUE: concealByTrial:compPred <- $r8d
	.loc	0 414 28 is_stmt 1              # ldecod_src/erc_do_p.c:414:28
	addl	%r11d, %ebp
.Ltmp205:
	#DEBUG_VALUE: concealByTrial:predSplitted <- $ebp
	.loc	0 0 28 is_stmt 0                # ldecod_src/erc_do_p.c:0:28
	jns	.LBB1_36
	jmp	.LBB1_3
.Ltmp206:
.LBB1_30:                               # %cond.false234.peel
                                        #   in Loop: Header=BB1_4 Depth=2
	#DEBUG_VALUE: concealByTrial:recfr <- [DW_OP_plus_uconst 64] [$rsp+0]
	#DEBUG_VALUE: concealByTrial:predMB <- [DW_OP_plus_uconst 72] [$rsp+0]
	#DEBUG_VALUE: concealByTrial:currMBNum <- [DW_OP_LLVM_entry_value 1] $edx
	#DEBUG_VALUE: concealByTrial:object_list <- [DW_OP_plus_uconst 112] [$rsp+0]
	#DEBUG_VALUE: concealByTrial:predBlocks <- [DW_OP_plus_uconst 152] [$rsp+0]
	#DEBUG_VALUE: concealByTrial:picSizeX <- [DW_OP_plus_uconst 16] [$rsp+0]
	#DEBUG_VALUE: concealByTrial:yCondition <- [DW_OP_plus_uconst 224] [$rsp+0]
	#DEBUG_VALUE: concealByTrial:mvPred <- [DW_OP_plus_uconst 24, DW_OP_deref] $rsp
	#DEBUG_VALUE: concealByTrial:p_Vid <- [DW_OP_plus_uconst 120, DW_OP_deref] $rsp
	#DEBUG_VALUE: concealByTrial:predMBNum <- [DW_OP_plus_uconst 104, DW_OP_deref] $rsp
	#DEBUG_VALUE: concealByTrial:compSplit1 <- [DW_OP_plus_uconst 40, DW_OP_deref] $rsp
	#DEBUG_VALUE: concealByTrial:compSplit2 <- [DW_OP_plus_uconst 60, DW_OP_deref] $rsp
	#DEBUG_VALUE: concealByTrial:compLeft <- 1
	#DEBUG_VALUE: concealByTrial:comp <- 0
	#DEBUG_VALUE: concealByTrial:order <- 1
	#DEBUG_VALUE: concealByTrial:threshold <- [DW_OP_plus_uconst 52, DW_OP_deref] $rsp
	#DEBUG_VALUE: concealByTrial:regionSize <- 16
	#DEBUG_VALUE: concealByTrial:currRegion <- [DW_OP_plus_uconst 96, DW_OP_deref] $rsp
	#DEBUG_VALUE: concealByTrial:minDist <- [DW_OP_plus_uconst 48, DW_OP_deref] $rsp
	#DEBUG_VALUE: concealByTrial:fZeroMotionChecked <- [DW_OP_plus_uconst 12, DW_OP_deref] $rsp
	#DEBUG_VALUE: concealByTrial:i <- $r15
	#DEBUG_VALUE: concealByTrial:compPred <- [DW_OP_plus_uconst 40, DW_OP_deref] $rsp
	#DEBUG_VALUE: concealByTrial:currDist <- $r14d
	.loc	0 469 20 is_stmt 1              # ldecod_src/erc_do_p.c:469:20
	testb	%al, %al
	.loc	0 469 19 is_stmt 0              # ldecod_src/erc_do_p.c:469:19
	je	.LBB1_33
.Ltmp207:
.LBB1_31:                               # %cond.false246.peel
                                        #   in Loop: Header=BB1_4 Depth=2
	#DEBUG_VALUE: concealByTrial:recfr <- [DW_OP_plus_uconst 64] [$rsp+0]
	#DEBUG_VALUE: concealByTrial:predMB <- [DW_OP_plus_uconst 72] [$rsp+0]
	#DEBUG_VALUE: concealByTrial:currMBNum <- [DW_OP_LLVM_entry_value 1] $edx
	#DEBUG_VALUE: concealByTrial:object_list <- [DW_OP_plus_uconst 112] [$rsp+0]
	#DEBUG_VALUE: concealByTrial:predBlocks <- [DW_OP_plus_uconst 152] [$rsp+0]
	#DEBUG_VALUE: concealByTrial:picSizeX <- [DW_OP_plus_uconst 16] [$rsp+0]
	#DEBUG_VALUE: concealByTrial:yCondition <- [DW_OP_plus_uconst 224] [$rsp+0]
	#DEBUG_VALUE: concealByTrial:mvPred <- [DW_OP_plus_uconst 24, DW_OP_deref] $rsp
	#DEBUG_VALUE: concealByTrial:p_Vid <- [DW_OP_plus_uconst 120, DW_OP_deref] $rsp
	#DEBUG_VALUE: concealByTrial:predMBNum <- [DW_OP_plus_uconst 104, DW_OP_deref] $rsp
	#DEBUG_VALUE: concealByTrial:compSplit1 <- [DW_OP_plus_uconst 40, DW_OP_deref] $rsp
	#DEBUG_VALUE: concealByTrial:compSplit2 <- [DW_OP_plus_uconst 60, DW_OP_deref] $rsp
	#DEBUG_VALUE: concealByTrial:compLeft <- 1
	#DEBUG_VALUE: concealByTrial:comp <- 0
	#DEBUG_VALUE: concealByTrial:order <- 1
	#DEBUG_VALUE: concealByTrial:threshold <- [DW_OP_plus_uconst 52, DW_OP_deref] $rsp
	#DEBUG_VALUE: concealByTrial:regionSize <- 16
	#DEBUG_VALUE: concealByTrial:currRegion <- [DW_OP_plus_uconst 96, DW_OP_deref] $rsp
	#DEBUG_VALUE: concealByTrial:minDist <- [DW_OP_plus_uconst 48, DW_OP_deref] $rsp
	#DEBUG_VALUE: concealByTrial:fZeroMotionChecked <- [DW_OP_plus_uconst 12, DW_OP_deref] $rsp
	#DEBUG_VALUE: concealByTrial:i <- $r15
	#DEBUG_VALUE: concealByTrial:compPred <- [DW_OP_plus_uconst 40, DW_OP_deref] $rsp
	#DEBUG_VALUE: concealByTrial:currDist <- $r14d
	.loc	0 0 19                          # ldecod_src/erc_do_p.c:0:19
	movb	$1, %al
.Ltmp208:
.LBB1_34:                               # %cond.end250.peel
                                        #   in Loop: Header=BB1_4 Depth=2
	#DEBUG_VALUE: concealByTrial:recfr <- [DW_OP_plus_uconst 64] [$rsp+0]
	#DEBUG_VALUE: concealByTrial:predMB <- [DW_OP_plus_uconst 72] [$rsp+0]
	#DEBUG_VALUE: concealByTrial:currMBNum <- [DW_OP_LLVM_entry_value 1] $edx
	#DEBUG_VALUE: concealByTrial:object_list <- [DW_OP_plus_uconst 112] [$rsp+0]
	#DEBUG_VALUE: concealByTrial:predBlocks <- [DW_OP_plus_uconst 152] [$rsp+0]
	#DEBUG_VALUE: concealByTrial:picSizeX <- [DW_OP_plus_uconst 16] [$rsp+0]
	#DEBUG_VALUE: concealByTrial:yCondition <- [DW_OP_plus_uconst 224] [$rsp+0]
	#DEBUG_VALUE: concealByTrial:mvPred <- [DW_OP_plus_uconst 24, DW_OP_deref] $rsp
	#DEBUG_VALUE: concealByTrial:p_Vid <- [DW_OP_plus_uconst 120, DW_OP_deref] $rsp
	#DEBUG_VALUE: concealByTrial:predMBNum <- [DW_OP_plus_uconst 104, DW_OP_deref] $rsp
	#DEBUG_VALUE: concealByTrial:compSplit1 <- [DW_OP_plus_uconst 40, DW_OP_deref] $rsp
	#DEBUG_VALUE: concealByTrial:compSplit2 <- [DW_OP_plus_uconst 60, DW_OP_deref] $rsp
	#DEBUG_VALUE: concealByTrial:compLeft <- 1
	#DEBUG_VALUE: concealByTrial:comp <- 0
	#DEBUG_VALUE: concealByTrial:order <- 1
	#DEBUG_VALUE: concealByTrial:threshold <- [DW_OP_plus_uconst 52, DW_OP_deref] $rsp
	#DEBUG_VALUE: concealByTrial:regionSize <- 16
	#DEBUG_VALUE: concealByTrial:currRegion <- [DW_OP_plus_uconst 96, DW_OP_deref] $rsp
	#DEBUG_VALUE: concealByTrial:minDist <- [DW_OP_plus_uconst 48, DW_OP_deref] $rsp
	#DEBUG_VALUE: concealByTrial:fZeroMotionChecked <- [DW_OP_plus_uconst 12, DW_OP_deref] $rsp
	#DEBUG_VALUE: concealByTrial:i <- $r15
	#DEBUG_VALUE: concealByTrial:compPred <- [DW_OP_plus_uconst 40, DW_OP_deref] $rsp
	#DEBUG_VALUE: concealByTrial:currDist <- $r14d
	movq	96(%rsp), %rbx                  # 8-byte Reload
	.loc	0 468 40 is_stmt 1              # ldecod_src/erc_do_p.c:468:40
	movb	%al, (%rbx)
	movq	64(%rsp), %rax                  # 8-byte Reload
	.loc	0 473 17                        # ldecod_src/erc_do_p.c:473:17
	movq	(%rax), %rdx
	movl	44(%rsp), %edi                  # 4-byte Reload
	movq	72(%rsp), %rsi                  # 8-byte Reload
	movl	16(%rsp), %ecx                  # 4-byte Reload
	callq	copyPredMB
.Ltmp209:
	.loc	0 0 17 is_stmt 0                # ldecod_src/erc_do_p.c:0:17
	movl	%r14d, 48(%rsp)                 # 4-byte Spill
.Ltmp210:
	#DEBUG_VALUE: concealByTrial:currDist <- [DW_OP_plus_uconst 48, DW_OP_deref] $rsp
	#DEBUG_VALUE: concealByTrial:minDist <- undef
	movq	152(%rsp), %r14                 # 8-byte Reload
	movq	112(%rsp), %rcx                 # 8-byte Reload
	movl	52(%rsp), %edi                  # 4-byte Reload
	movl	60(%rsp), %r8d                  # 4-byte Reload
	movl	40(%rsp), %r9d                  # 4-byte Reload
.Ltmp211:
.LBB1_35:                               # %for.inc268.peel
                                        #   in Loop: Header=BB1_4 Depth=2
	#DEBUG_VALUE: concealByTrial:recfr <- [DW_OP_plus_uconst 64] [$rsp+0]
	#DEBUG_VALUE: concealByTrial:predMB <- [DW_OP_plus_uconst 72] [$rsp+0]
	#DEBUG_VALUE: concealByTrial:currMBNum <- [DW_OP_LLVM_entry_value 1] $edx
	#DEBUG_VALUE: concealByTrial:object_list <- [DW_OP_plus_uconst 112] [$rsp+0]
	#DEBUG_VALUE: concealByTrial:predBlocks <- [DW_OP_plus_uconst 152] [$rsp+0]
	#DEBUG_VALUE: concealByTrial:picSizeX <- [DW_OP_plus_uconst 16] [$rsp+0]
	#DEBUG_VALUE: concealByTrial:yCondition <- [DW_OP_plus_uconst 224] [$rsp+0]
	#DEBUG_VALUE: concealByTrial:mvPred <- [DW_OP_plus_uconst 24, DW_OP_deref] $rsp
	#DEBUG_VALUE: concealByTrial:p_Vid <- [DW_OP_plus_uconst 120, DW_OP_deref] $rsp
	#DEBUG_VALUE: concealByTrial:predMBNum <- [DW_OP_plus_uconst 104, DW_OP_deref] $rsp
	#DEBUG_VALUE: concealByTrial:compSplit1 <- $r12d
	#DEBUG_VALUE: concealByTrial:compSplit2 <- [DW_OP_plus_uconst 60, DW_OP_deref] $rsp
	#DEBUG_VALUE: concealByTrial:compLeft <- 1
	#DEBUG_VALUE: concealByTrial:comp <- 0
	#DEBUG_VALUE: concealByTrial:order <- 1
	#DEBUG_VALUE: concealByTrial:threshold <- [DW_OP_plus_uconst 52, DW_OP_deref] $rsp
	#DEBUG_VALUE: concealByTrial:regionSize <- 16
	#DEBUG_VALUE: concealByTrial:currRegion <- [DW_OP_plus_uconst 96, DW_OP_deref] $rsp
	#DEBUG_VALUE: concealByTrial:fZeroMotionChecked <- [DW_OP_plus_uconst 12, DW_OP_deref] $rsp
	#DEBUG_VALUE: concealByTrial:i <- $r15
	#DEBUG_VALUE: concealByTrial:compPred <- $r12d
	movq	104(%rsp), %r12                 # 8-byte Reload
.Ltmp212:
	movq	128(%rsp), %r10                 # 8-byte Reload
	movl	56(%rsp), %r11d                 # 4-byte Reload
.Ltmp213:
	#DEBUG_VALUE: concealByTrial:minDist <- [DW_OP_plus_uconst 48, DW_OP_deref] $rsp
	#DEBUG_VALUE: concealByTrial:fZeroMotionChecked <- [DW_OP_plus_uconst 12, DW_OP_deref] $rsp
	#DEBUG_VALUE: concealByTrial:fInterNeighborExists <- [DW_OP_plus_uconst 20, DW_OP_deref] $rsp
	#DEBUG_VALUE: concealByTrial:compPred <- [DW_OP_plus_uconst 60, DW_OP_deref] $rsp
	.loc	0 414 28 is_stmt 1              # ldecod_src/erc_do_p.c:414:28
	addl	%r11d, %ebp
.Ltmp214:
	#DEBUG_VALUE: concealByTrial:predSplitted <- undef
	.loc	0 0 28 is_stmt 0                # ldecod_src/erc_do_p.c:0:28
	js	.LBB1_3
.Ltmp215:
.LBB1_36:                               # %for.body96
                                        #   in Loop: Header=BB1_4 Depth=2
	#DEBUG_VALUE: concealByTrial:recfr <- [DW_OP_plus_uconst 64] [$rsp+0]
	#DEBUG_VALUE: concealByTrial:predMB <- [DW_OP_plus_uconst 72] [$rsp+0]
	#DEBUG_VALUE: concealByTrial:currMBNum <- [DW_OP_LLVM_entry_value 1] $edx
	#DEBUG_VALUE: concealByTrial:object_list <- [DW_OP_plus_uconst 112] [$rsp+0]
	#DEBUG_VALUE: concealByTrial:predBlocks <- [DW_OP_plus_uconst 152] [$rsp+0]
	#DEBUG_VALUE: concealByTrial:picSizeX <- [DW_OP_plus_uconst 16] [$rsp+0]
	#DEBUG_VALUE: concealByTrial:yCondition <- [DW_OP_plus_uconst 224] [$rsp+0]
	#DEBUG_VALUE: concealByTrial:p_Vid <- [DW_OP_plus_uconst 120, DW_OP_deref] $rsp
	#DEBUG_VALUE: concealByTrial:predMBNum <- $r12d
	#DEBUG_VALUE: concealByTrial:compLeft <- 1
	#DEBUG_VALUE: concealByTrial:comp <- 0
	#DEBUG_VALUE: concealByTrial:order <- 1
	#DEBUG_VALUE: concealByTrial:threshold <- [DW_OP_plus_uconst 52, DW_OP_deref] $rsp
	#DEBUG_VALUE: concealByTrial:regionSize <- 16
	#DEBUG_VALUE: concealByTrial:currRegion <- [DW_OP_plus_uconst 96, DW_OP_deref] $rsp
	#DEBUG_VALUE: concealByTrial:minDist <- [DW_OP_plus_uconst 48, DW_OP_deref] $rsp
	#DEBUG_VALUE: concealByTrial:fInterNeighborExists <- [DW_OP_plus_uconst 20, DW_OP_deref] $rsp
	#DEBUG_VALUE: concealByTrial:fZeroMotionChecked <- [DW_OP_plus_uconst 12, DW_OP_deref] $rsp
	#DEBUG_VALUE: concealByTrial:i <- $r15
	#DEBUG_VALUE: concealByTrial:minDist <- [DW_OP_plus_uconst 48, DW_OP_deref] $rsp
	#DEBUG_VALUE: concealByTrial:fZeroMotionChecked <- [DW_OP_plus_uconst 12, DW_OP_deref] $rsp
	#DEBUG_VALUE: concealByTrial:fInterNeighborExists <- [DW_OP_plus_uconst 20, DW_OP_deref] $rsp
	#DEBUG_VALUE: concealByTrial:compPred <- undef
	.loc	0 420 19 is_stmt 1              # ldecod_src/erc_do_p.c:420:19
	movzbl	(%r13), %eax
	cmpl	$3, %eax
.Ltmp216:
	#DEBUG_VALUE: concealByTrial:predSplitted <- undef
	.loc	0 420 19 is_stmt 0              # ldecod_src/erc_do_p.c:420:19
	jb	.LBB1_39
.Ltmp217:
# %bb.37:                               # %cond.true104
                                        #   in Loop: Header=BB1_4 Depth=2
	#DEBUG_VALUE: concealByTrial:recfr <- [DW_OP_plus_uconst 64] [$rsp+0]
	#DEBUG_VALUE: concealByTrial:predMB <- [DW_OP_plus_uconst 72] [$rsp+0]
	#DEBUG_VALUE: concealByTrial:currMBNum <- [DW_OP_LLVM_entry_value 1] $edx
	#DEBUG_VALUE: concealByTrial:object_list <- [DW_OP_plus_uconst 112] [$rsp+0]
	#DEBUG_VALUE: concealByTrial:predBlocks <- [DW_OP_plus_uconst 152] [$rsp+0]
	#DEBUG_VALUE: concealByTrial:picSizeX <- [DW_OP_plus_uconst 16] [$rsp+0]
	#DEBUG_VALUE: concealByTrial:yCondition <- [DW_OP_plus_uconst 224] [$rsp+0]
	#DEBUG_VALUE: concealByTrial:p_Vid <- [DW_OP_plus_uconst 120, DW_OP_deref] $rsp
	#DEBUG_VALUE: concealByTrial:predMBNum <- $r12d
	#DEBUG_VALUE: concealByTrial:compLeft <- 1
	#DEBUG_VALUE: concealByTrial:comp <- 0
	#DEBUG_VALUE: concealByTrial:order <- 1
	#DEBUG_VALUE: concealByTrial:threshold <- [DW_OP_plus_uconst 52, DW_OP_deref] $rsp
	#DEBUG_VALUE: concealByTrial:regionSize <- 16
	#DEBUG_VALUE: concealByTrial:currRegion <- [DW_OP_plus_uconst 96, DW_OP_deref] $rsp
	#DEBUG_VALUE: concealByTrial:minDist <- [DW_OP_plus_uconst 48, DW_OP_deref] $rsp
	#DEBUG_VALUE: concealByTrial:fInterNeighborExists <- [DW_OP_plus_uconst 20, DW_OP_deref] $rsp
	#DEBUG_VALUE: concealByTrial:fZeroMotionChecked <- [DW_OP_plus_uconst 12, DW_OP_deref] $rsp
	#DEBUG_VALUE: concealByTrial:i <- $r15
	.loc	0 420 19                        # ldecod_src/erc_do_p.c:420:19
	movl	%r8d, %esi
	leaq	(%rsi,%rsi,2), %rdx
	movzbl	(%r13,%rdx,8), %edx
	cmpl	$4, %edx
	je	.LBB1_43
.Ltmp218:
# %bb.38:                               # %cond.true104
                                        #   in Loop: Header=BB1_4 Depth=2
	#DEBUG_VALUE: concealByTrial:recfr <- [DW_OP_plus_uconst 64] [$rsp+0]
	#DEBUG_VALUE: concealByTrial:predMB <- [DW_OP_plus_uconst 72] [$rsp+0]
	#DEBUG_VALUE: concealByTrial:currMBNum <- [DW_OP_LLVM_entry_value 1] $edx
	#DEBUG_VALUE: concealByTrial:object_list <- [DW_OP_plus_uconst 112] [$rsp+0]
	#DEBUG_VALUE: concealByTrial:predBlocks <- [DW_OP_plus_uconst 152] [$rsp+0]
	#DEBUG_VALUE: concealByTrial:picSizeX <- [DW_OP_plus_uconst 16] [$rsp+0]
	#DEBUG_VALUE: concealByTrial:yCondition <- [DW_OP_plus_uconst 224] [$rsp+0]
	#DEBUG_VALUE: concealByTrial:p_Vid <- [DW_OP_plus_uconst 120, DW_OP_deref] $rsp
	#DEBUG_VALUE: concealByTrial:predMBNum <- $r12d
	#DEBUG_VALUE: concealByTrial:compLeft <- 1
	#DEBUG_VALUE: concealByTrial:comp <- 0
	#DEBUG_VALUE: concealByTrial:order <- 1
	#DEBUG_VALUE: concealByTrial:threshold <- [DW_OP_plus_uconst 52, DW_OP_deref] $rsp
	#DEBUG_VALUE: concealByTrial:regionSize <- 16
	#DEBUG_VALUE: concealByTrial:currRegion <- [DW_OP_plus_uconst 96, DW_OP_deref] $rsp
	#DEBUG_VALUE: concealByTrial:minDist <- [DW_OP_plus_uconst 48, DW_OP_deref] $rsp
	#DEBUG_VALUE: concealByTrial:fInterNeighborExists <- [DW_OP_plus_uconst 20, DW_OP_deref] $rsp
	#DEBUG_VALUE: concealByTrial:fZeroMotionChecked <- [DW_OP_plus_uconst 12, DW_OP_deref] $rsp
	#DEBUG_VALUE: concealByTrial:i <- $r15
	cmpl	$6, %edx
	je	.LBB1_3
	jmp	.LBB1_42
.Ltmp219:
.LBB1_39:                               # %cond.false114
                                        #   in Loop: Header=BB1_4 Depth=2
	#DEBUG_VALUE: concealByTrial:recfr <- [DW_OP_plus_uconst 64] [$rsp+0]
	#DEBUG_VALUE: concealByTrial:predMB <- [DW_OP_plus_uconst 72] [$rsp+0]
	#DEBUG_VALUE: concealByTrial:currMBNum <- [DW_OP_LLVM_entry_value 1] $edx
	#DEBUG_VALUE: concealByTrial:object_list <- [DW_OP_plus_uconst 112] [$rsp+0]
	#DEBUG_VALUE: concealByTrial:predBlocks <- [DW_OP_plus_uconst 152] [$rsp+0]
	#DEBUG_VALUE: concealByTrial:picSizeX <- [DW_OP_plus_uconst 16] [$rsp+0]
	#DEBUG_VALUE: concealByTrial:yCondition <- [DW_OP_plus_uconst 224] [$rsp+0]
	#DEBUG_VALUE: concealByTrial:p_Vid <- [DW_OP_plus_uconst 120, DW_OP_deref] $rsp
	#DEBUG_VALUE: concealByTrial:predMBNum <- $r12d
	#DEBUG_VALUE: concealByTrial:compLeft <- 1
	#DEBUG_VALUE: concealByTrial:comp <- 0
	#DEBUG_VALUE: concealByTrial:order <- 1
	#DEBUG_VALUE: concealByTrial:threshold <- [DW_OP_plus_uconst 52, DW_OP_deref] $rsp
	#DEBUG_VALUE: concealByTrial:regionSize <- 16
	#DEBUG_VALUE: concealByTrial:currRegion <- [DW_OP_plus_uconst 96, DW_OP_deref] $rsp
	#DEBUG_VALUE: concealByTrial:minDist <- [DW_OP_plus_uconst 48, DW_OP_deref] $rsp
	#DEBUG_VALUE: concealByTrial:fInterNeighborExists <- [DW_OP_plus_uconst 20, DW_OP_deref] $rsp
	#DEBUG_VALUE: concealByTrial:fZeroMotionChecked <- [DW_OP_plus_uconst 12, DW_OP_deref] $rsp
	#DEBUG_VALUE: concealByTrial:i <- $r15
	.loc	0 420 19                        # ldecod_src/erc_do_p.c:420:19
	testl	%eax, %eax
	je	.LBB1_43
.Ltmp220:
# %bb.40:                               # %cond.false114
                                        #   in Loop: Header=BB1_4 Depth=2
	#DEBUG_VALUE: concealByTrial:recfr <- [DW_OP_plus_uconst 64] [$rsp+0]
	#DEBUG_VALUE: concealByTrial:predMB <- [DW_OP_plus_uconst 72] [$rsp+0]
	#DEBUG_VALUE: concealByTrial:currMBNum <- [DW_OP_LLVM_entry_value 1] $edx
	#DEBUG_VALUE: concealByTrial:object_list <- [DW_OP_plus_uconst 112] [$rsp+0]
	#DEBUG_VALUE: concealByTrial:predBlocks <- [DW_OP_plus_uconst 152] [$rsp+0]
	#DEBUG_VALUE: concealByTrial:picSizeX <- [DW_OP_plus_uconst 16] [$rsp+0]
	#DEBUG_VALUE: concealByTrial:yCondition <- [DW_OP_plus_uconst 224] [$rsp+0]
	#DEBUG_VALUE: concealByTrial:p_Vid <- [DW_OP_plus_uconst 120, DW_OP_deref] $rsp
	#DEBUG_VALUE: concealByTrial:predMBNum <- $r12d
	#DEBUG_VALUE: concealByTrial:compLeft <- 1
	#DEBUG_VALUE: concealByTrial:comp <- 0
	#DEBUG_VALUE: concealByTrial:order <- 1
	#DEBUG_VALUE: concealByTrial:threshold <- [DW_OP_plus_uconst 52, DW_OP_deref] $rsp
	#DEBUG_VALUE: concealByTrial:regionSize <- 16
	#DEBUG_VALUE: concealByTrial:currRegion <- [DW_OP_plus_uconst 96, DW_OP_deref] $rsp
	#DEBUG_VALUE: concealByTrial:minDist <- [DW_OP_plus_uconst 48, DW_OP_deref] $rsp
	#DEBUG_VALUE: concealByTrial:fInterNeighborExists <- [DW_OP_plus_uconst 20, DW_OP_deref] $rsp
	#DEBUG_VALUE: concealByTrial:fZeroMotionChecked <- [DW_OP_plus_uconst 12, DW_OP_deref] $rsp
	#DEBUG_VALUE: concealByTrial:i <- $r15
	cmpl	$2, %eax
	je	.LBB1_3
.Ltmp221:
# %bb.41:                               # %cond.false114.if.else157_crit_edge
                                        #   in Loop: Header=BB1_4 Depth=2
	#DEBUG_VALUE: concealByTrial:recfr <- [DW_OP_plus_uconst 64] [$rsp+0]
	#DEBUG_VALUE: concealByTrial:predMB <- [DW_OP_plus_uconst 72] [$rsp+0]
	#DEBUG_VALUE: concealByTrial:currMBNum <- [DW_OP_LLVM_entry_value 1] $edx
	#DEBUG_VALUE: concealByTrial:object_list <- [DW_OP_plus_uconst 112] [$rsp+0]
	#DEBUG_VALUE: concealByTrial:predBlocks <- [DW_OP_plus_uconst 152] [$rsp+0]
	#DEBUG_VALUE: concealByTrial:picSizeX <- [DW_OP_plus_uconst 16] [$rsp+0]
	#DEBUG_VALUE: concealByTrial:yCondition <- [DW_OP_plus_uconst 224] [$rsp+0]
	#DEBUG_VALUE: concealByTrial:p_Vid <- [DW_OP_plus_uconst 120, DW_OP_deref] $rsp
	#DEBUG_VALUE: concealByTrial:predMBNum <- $r12d
	#DEBUG_VALUE: concealByTrial:compLeft <- 1
	#DEBUG_VALUE: concealByTrial:comp <- 0
	#DEBUG_VALUE: concealByTrial:order <- 1
	#DEBUG_VALUE: concealByTrial:threshold <- [DW_OP_plus_uconst 52, DW_OP_deref] $rsp
	#DEBUG_VALUE: concealByTrial:regionSize <- 16
	#DEBUG_VALUE: concealByTrial:currRegion <- [DW_OP_plus_uconst 96, DW_OP_deref] $rsp
	#DEBUG_VALUE: concealByTrial:minDist <- [DW_OP_plus_uconst 48, DW_OP_deref] $rsp
	#DEBUG_VALUE: concealByTrial:fInterNeighborExists <- [DW_OP_plus_uconst 20, DW_OP_deref] $rsp
	#DEBUG_VALUE: concealByTrial:fZeroMotionChecked <- [DW_OP_plus_uconst 12, DW_OP_deref] $rsp
	#DEBUG_VALUE: concealByTrial:i <- $r15
	.loc	0 444 25 is_stmt 1              # ldecod_src/erc_do_p.c:444:25
	movl	%r8d, %esi
.Ltmp222:
.LBB1_42:                               # %if.else157
                                        #   in Loop: Header=BB1_4 Depth=2
	#DEBUG_VALUE: concealByTrial:recfr <- [DW_OP_plus_uconst 64] [$rsp+0]
	#DEBUG_VALUE: concealByTrial:predMB <- [DW_OP_plus_uconst 72] [$rsp+0]
	#DEBUG_VALUE: concealByTrial:currMBNum <- [DW_OP_LLVM_entry_value 1] $edx
	#DEBUG_VALUE: concealByTrial:object_list <- [DW_OP_plus_uconst 112] [$rsp+0]
	#DEBUG_VALUE: concealByTrial:predBlocks <- [DW_OP_plus_uconst 152] [$rsp+0]
	#DEBUG_VALUE: concealByTrial:picSizeX <- [DW_OP_plus_uconst 16] [$rsp+0]
	#DEBUG_VALUE: concealByTrial:yCondition <- [DW_OP_plus_uconst 224] [$rsp+0]
	#DEBUG_VALUE: concealByTrial:p_Vid <- [DW_OP_plus_uconst 120, DW_OP_deref] $rsp
	#DEBUG_VALUE: concealByTrial:predMBNum <- $r12d
	#DEBUG_VALUE: concealByTrial:compLeft <- 1
	#DEBUG_VALUE: concealByTrial:comp <- 0
	#DEBUG_VALUE: concealByTrial:order <- 1
	#DEBUG_VALUE: concealByTrial:threshold <- [DW_OP_plus_uconst 52, DW_OP_deref] $rsp
	#DEBUG_VALUE: concealByTrial:regionSize <- 16
	#DEBUG_VALUE: concealByTrial:currRegion <- [DW_OP_plus_uconst 96, DW_OP_deref] $rsp
	#DEBUG_VALUE: concealByTrial:minDist <- [DW_OP_plus_uconst 48, DW_OP_deref] $rsp
	#DEBUG_VALUE: concealByTrial:fInterNeighborExists <- [DW_OP_plus_uconst 20, DW_OP_deref] $rsp
	#DEBUG_VALUE: concealByTrial:fZeroMotionChecked <- [DW_OP_plus_uconst 12, DW_OP_deref] $rsp
	#DEBUG_VALUE: concealByTrial:i <- $r15
	.loc	0 0 25 is_stmt 0                # ldecod_src/erc_do_p.c:0:25
	movl	%r9d, 40(%rsp)                  # 4-byte Spill
	movl	%r8d, %ebp
	.loc	0 420 19 is_stmt 1              # ldecod_src/erc_do_p.c:420:19
	cmpb	$3, %al
.Ltmp223:
	.loc	0 444 25                        # ldecod_src/erc_do_p.c:444:25
	leaq	(%rsi,%rsi,2), %rax
	leaq	12(%r13,%rax,8), %rax
	cmovaeq	%rax, %r10
.Ltmp224:
	#DEBUG_VALUE: concealByTrial:mvptr <- $r10
	#DEBUG_VALUE: concealByTrial:mvPred <- [DW_OP_LLVM_fragment 0 32] undef
	#DEBUG_VALUE: concealByTrial:mvPred <- [DW_OP_plus_uconst 24, DW_OP_plus_uconst 4, DW_OP_deref, DW_OP_LLVM_fragment 32 64] $rsp
	.loc	0 446 29                        # ldecod_src/erc_do_p.c:446:29
	movq	(%r10), %rax
	.loc	0 446 27 is_stmt 0              # ldecod_src/erc_do_p.c:446:27
	movq	%rax, 24(%rsp)
.Ltmp225:
	#DEBUG_VALUE: concealByTrial:mvPred <- [DW_OP_plus_uconst 24, DW_OP_deref] $rsp
	.loc	0 448 29 is_stmt 1              # ldecod_src/erc_do_p.c:448:29
	movl	8(%r10), %eax
.Ltmp226:
	#DEBUG_VALUE: concealByTrial:mvPred <- [DW_OP_LLVM_fragment 64 32] $eax
	#DEBUG_VALUE: concealByTrial:mvPred <- [DW_OP_plus_uconst 24, DW_OP_deref, DW_OP_LLVM_fragment 0 64] $rsp
	.loc	0 0 29 is_stmt 0                # ldecod_src/erc_do_p.c:0:29
	jmp	.LBB1_46
.Ltmp227:
.LBB1_43:                               # %if.then122
                                        #   in Loop: Header=BB1_4 Depth=2
	#DEBUG_VALUE: concealByTrial:recfr <- [DW_OP_plus_uconst 64] [$rsp+0]
	#DEBUG_VALUE: concealByTrial:predMB <- [DW_OP_plus_uconst 72] [$rsp+0]
	#DEBUG_VALUE: concealByTrial:currMBNum <- [DW_OP_LLVM_entry_value 1] $edx
	#DEBUG_VALUE: concealByTrial:object_list <- [DW_OP_plus_uconst 112] [$rsp+0]
	#DEBUG_VALUE: concealByTrial:predBlocks <- [DW_OP_plus_uconst 152] [$rsp+0]
	#DEBUG_VALUE: concealByTrial:picSizeX <- [DW_OP_plus_uconst 16] [$rsp+0]
	#DEBUG_VALUE: concealByTrial:yCondition <- [DW_OP_plus_uconst 224] [$rsp+0]
	#DEBUG_VALUE: concealByTrial:p_Vid <- [DW_OP_plus_uconst 120, DW_OP_deref] $rsp
	#DEBUG_VALUE: concealByTrial:predMBNum <- $r12d
	#DEBUG_VALUE: concealByTrial:compLeft <- 1
	#DEBUG_VALUE: concealByTrial:comp <- 0
	#DEBUG_VALUE: concealByTrial:order <- 1
	#DEBUG_VALUE: concealByTrial:threshold <- [DW_OP_plus_uconst 52, DW_OP_deref] $rsp
	#DEBUG_VALUE: concealByTrial:regionSize <- 16
	#DEBUG_VALUE: concealByTrial:currRegion <- [DW_OP_plus_uconst 96, DW_OP_deref] $rsp
	#DEBUG_VALUE: concealByTrial:minDist <- [DW_OP_plus_uconst 48, DW_OP_deref] $rsp
	#DEBUG_VALUE: concealByTrial:fInterNeighborExists <- [DW_OP_plus_uconst 20, DW_OP_deref] $rsp
	#DEBUG_VALUE: concealByTrial:fZeroMotionChecked <- [DW_OP_plus_uconst 12, DW_OP_deref] $rsp
	#DEBUG_VALUE: concealByTrial:i <- $r15
	.loc	0 423 21 is_stmt 1              # ldecod_src/erc_do_p.c:423:21
	cmpl	$0, 12(%rsp)                    # 4-byte Folded Reload
.Ltmp228:
	.loc	0 423 21 is_stmt 0              # ldecod_src/erc_do_p.c:423:21
	je	.LBB1_45
.Ltmp229:
# %bb.44:                               #   in Loop: Header=BB1_4 Depth=2
	#DEBUG_VALUE: concealByTrial:recfr <- [DW_OP_plus_uconst 64] [$rsp+0]
	#DEBUG_VALUE: concealByTrial:predMB <- [DW_OP_plus_uconst 72] [$rsp+0]
	#DEBUG_VALUE: concealByTrial:currMBNum <- [DW_OP_LLVM_entry_value 1] $edx
	#DEBUG_VALUE: concealByTrial:object_list <- [DW_OP_plus_uconst 112] [$rsp+0]
	#DEBUG_VALUE: concealByTrial:predBlocks <- [DW_OP_plus_uconst 152] [$rsp+0]
	#DEBUG_VALUE: concealByTrial:picSizeX <- [DW_OP_plus_uconst 16] [$rsp+0]
	#DEBUG_VALUE: concealByTrial:yCondition <- [DW_OP_plus_uconst 224] [$rsp+0]
	#DEBUG_VALUE: concealByTrial:p_Vid <- [DW_OP_plus_uconst 120, DW_OP_deref] $rsp
	#DEBUG_VALUE: concealByTrial:predMBNum <- $r12d
	#DEBUG_VALUE: concealByTrial:compLeft <- 1
	#DEBUG_VALUE: concealByTrial:comp <- 0
	#DEBUG_VALUE: concealByTrial:order <- 1
	#DEBUG_VALUE: concealByTrial:threshold <- [DW_OP_plus_uconst 52, DW_OP_deref] $rsp
	#DEBUG_VALUE: concealByTrial:regionSize <- 16
	#DEBUG_VALUE: concealByTrial:currRegion <- [DW_OP_plus_uconst 96, DW_OP_deref] $rsp
	#DEBUG_VALUE: concealByTrial:minDist <- [DW_OP_plus_uconst 48, DW_OP_deref] $rsp
	#DEBUG_VALUE: concealByTrial:fInterNeighborExists <- [DW_OP_plus_uconst 20, DW_OP_deref] $rsp
	#DEBUG_VALUE: concealByTrial:fZeroMotionChecked <- [DW_OP_plus_uconst 12, DW_OP_deref] $rsp
	#DEBUG_VALUE: concealByTrial:i <- $r15
	.loc	0 0 21                          # ldecod_src/erc_do_p.c:0:21
	movl	$1, 12(%rsp)                    # 4-byte Folded Spill
.Ltmp230:
	#DEBUG_VALUE: concealByTrial:fZeroMotionChecked <- undef
	.loc	0 423 21                        # ldecod_src/erc_do_p.c:423:21
	jmp	.LBB1_3
.Ltmp231:
.LBB1_32:                               # %if.else124.peel
                                        #   in Loop: Header=BB1_4 Depth=2
	#DEBUG_VALUE: concealByTrial:recfr <- [DW_OP_plus_uconst 64] [$rsp+0]
	#DEBUG_VALUE: concealByTrial:predMB <- [DW_OP_plus_uconst 72] [$rsp+0]
	#DEBUG_VALUE: concealByTrial:currMBNum <- [DW_OP_LLVM_entry_value 1] $edx
	#DEBUG_VALUE: concealByTrial:object_list <- [DW_OP_plus_uconst 112] [$rsp+0]
	#DEBUG_VALUE: concealByTrial:predBlocks <- [DW_OP_plus_uconst 152] [$rsp+0]
	#DEBUG_VALUE: concealByTrial:picSizeX <- [DW_OP_plus_uconst 16] [$rsp+0]
	#DEBUG_VALUE: concealByTrial:yCondition <- [DW_OP_plus_uconst 224] [$rsp+0]
	#DEBUG_VALUE: concealByTrial:p_Vid <- [DW_OP_plus_uconst 120, DW_OP_deref] $rsp
	#DEBUG_VALUE: concealByTrial:predMBNum <- $r12d
	#DEBUG_VALUE: concealByTrial:compSplit1 <- $r9d
	#DEBUG_VALUE: concealByTrial:compSplit2 <- $r8d
	#DEBUG_VALUE: concealByTrial:compLeft <- 1
	#DEBUG_VALUE: concealByTrial:comp <- 0
	#DEBUG_VALUE: concealByTrial:order <- 1
	#DEBUG_VALUE: concealByTrial:threshold <- [DW_OP_plus_uconst 52, DW_OP_deref] $rsp
	#DEBUG_VALUE: concealByTrial:regionSize <- 16
	#DEBUG_VALUE: concealByTrial:currRegion <- [DW_OP_plus_uconst 96, DW_OP_deref] $rsp
	#DEBUG_VALUE: concealByTrial:minDist <- [DW_OP_plus_uconst 48, DW_OP_deref] $rsp
	#DEBUG_VALUE: concealByTrial:fInterNeighborExists <- [DW_OP_plus_uconst 20, DW_OP_deref] $rsp
	#DEBUG_VALUE: concealByTrial:fZeroMotionChecked <- [DW_OP_plus_uconst 12, DW_OP_deref] $rsp
	#DEBUG_VALUE: concealByTrial:i <- $r15
	#DEBUG_VALUE: concealByTrial:compPred <- $r9d
	#DEBUG_VALUE: concealByTrial:fZeroMotionChecked <- 1
	#DEBUG_VALUE: concealByTrial:mvPred <- [DW_OP_plus_uconst 24, DW_OP_deref] $rsp
	.loc	0 0 21                          # ldecod_src/erc_do_p.c:0:21
	movl	%r11d, 56(%rsp)                 # 4-byte Spill
	movq	%r10, 128(%rsp)                 # 8-byte Spill
	movq	%r12, 104(%rsp)                 # 8-byte Spill
.Ltmp232:
	#DEBUG_VALUE: concealByTrial:predMBNum <- [DW_OP_plus_uconst 104, DW_OP_deref] $rsp
	movl	%r9d, %r12d
.Ltmp233:
	#DEBUG_VALUE: concealByTrial:compPred <- $r12d
	#DEBUG_VALUE: concealByTrial:compSplit1 <- $r12d
	movl	%r8d, 60(%rsp)                  # 4-byte Spill
.Ltmp234:
	#DEBUG_VALUE: concealByTrial:compSplit2 <- [DW_OP_plus_uconst 60, DW_OP_deref] $rsp
	.loc	0 431 29 is_stmt 1              # ldecod_src/erc_do_p.c:431:29
	movq	$0, 24(%rsp)
	movl	$1, 12(%rsp)                    # 4-byte Folded Spill
	xorl	%eax, %eax
.Ltmp235:
	#DEBUG_VALUE: concealByTrial:mvPred <- [DW_OP_LLVM_fragment 64 32] 0
	#DEBUG_VALUE: concealByTrial:mvPred <- [DW_OP_plus_uconst 24, DW_OP_deref, DW_OP_LLVM_fragment 0 64] $rsp
	.loc	0 0 29 is_stmt 0                # ldecod_src/erc_do_p.c:0:29
	jmp	.LBB1_21
.Ltmp236:
.LBB1_45:                               # %if.else124
                                        #   in Loop: Header=BB1_4 Depth=2
	#DEBUG_VALUE: concealByTrial:recfr <- [DW_OP_plus_uconst 64] [$rsp+0]
	#DEBUG_VALUE: concealByTrial:predMB <- [DW_OP_plus_uconst 72] [$rsp+0]
	#DEBUG_VALUE: concealByTrial:currMBNum <- [DW_OP_LLVM_entry_value 1] $edx
	#DEBUG_VALUE: concealByTrial:object_list <- [DW_OP_plus_uconst 112] [$rsp+0]
	#DEBUG_VALUE: concealByTrial:predBlocks <- [DW_OP_plus_uconst 152] [$rsp+0]
	#DEBUG_VALUE: concealByTrial:picSizeX <- [DW_OP_plus_uconst 16] [$rsp+0]
	#DEBUG_VALUE: concealByTrial:yCondition <- [DW_OP_plus_uconst 224] [$rsp+0]
	#DEBUG_VALUE: concealByTrial:p_Vid <- [DW_OP_plus_uconst 120, DW_OP_deref] $rsp
	#DEBUG_VALUE: concealByTrial:predMBNum <- $r12d
	#DEBUG_VALUE: concealByTrial:compLeft <- 1
	#DEBUG_VALUE: concealByTrial:comp <- 0
	#DEBUG_VALUE: concealByTrial:order <- 1
	#DEBUG_VALUE: concealByTrial:threshold <- [DW_OP_plus_uconst 52, DW_OP_deref] $rsp
	#DEBUG_VALUE: concealByTrial:regionSize <- 16
	#DEBUG_VALUE: concealByTrial:currRegion <- [DW_OP_plus_uconst 96, DW_OP_deref] $rsp
	#DEBUG_VALUE: concealByTrial:minDist <- [DW_OP_plus_uconst 48, DW_OP_deref] $rsp
	#DEBUG_VALUE: concealByTrial:fInterNeighborExists <- [DW_OP_plus_uconst 20, DW_OP_deref] $rsp
	#DEBUG_VALUE: concealByTrial:fZeroMotionChecked <- [DW_OP_plus_uconst 12, DW_OP_deref] $rsp
	#DEBUG_VALUE: concealByTrial:i <- $r15
	#DEBUG_VALUE: concealByTrial:fZeroMotionChecked <- 1
	#DEBUG_VALUE: concealByTrial:mvPred <- [DW_OP_plus_uconst 24, DW_OP_deref] $rsp
	movl	%r9d, 40(%rsp)                  # 4-byte Spill
	movl	%r8d, %ebp
	.loc	0 431 29                        # ldecod_src/erc_do_p.c:431:29
	movq	$0, 24(%rsp)
	movl	$1, 12(%rsp)                    # 4-byte Folded Spill
	xorl	%eax, %eax
.Ltmp237:
	#DEBUG_VALUE: concealByTrial:mvPred <- [DW_OP_LLVM_fragment 64 32] 0
	#DEBUG_VALUE: concealByTrial:mvPred <- [DW_OP_plus_uconst 24, DW_OP_deref, DW_OP_LLVM_fragment 0 64] $rsp
.LBB1_46:                               # %if.end189
                                        #   in Loop: Header=BB1_4 Depth=2
	#DEBUG_VALUE: concealByTrial:recfr <- [DW_OP_plus_uconst 64] [$rsp+0]
	#DEBUG_VALUE: concealByTrial:predMB <- [DW_OP_plus_uconst 72] [$rsp+0]
	#DEBUG_VALUE: concealByTrial:currMBNum <- [DW_OP_LLVM_entry_value 1] $edx
	#DEBUG_VALUE: concealByTrial:object_list <- [DW_OP_plus_uconst 112] [$rsp+0]
	#DEBUG_VALUE: concealByTrial:predBlocks <- [DW_OP_plus_uconst 152] [$rsp+0]
	#DEBUG_VALUE: concealByTrial:picSizeX <- [DW_OP_plus_uconst 16] [$rsp+0]
	#DEBUG_VALUE: concealByTrial:yCondition <- [DW_OP_plus_uconst 224] [$rsp+0]
	#DEBUG_VALUE: concealByTrial:mvPred <- [DW_OP_plus_uconst 24, DW_OP_deref, DW_OP_LLVM_fragment 0 64] $rsp
	#DEBUG_VALUE: concealByTrial:p_Vid <- [DW_OP_plus_uconst 120, DW_OP_deref] $rsp
	#DEBUG_VALUE: concealByTrial:predMBNum <- $r12d
	#DEBUG_VALUE: concealByTrial:compLeft <- 1
	#DEBUG_VALUE: concealByTrial:comp <- 0
	#DEBUG_VALUE: concealByTrial:order <- 1
	#DEBUG_VALUE: concealByTrial:threshold <- [DW_OP_plus_uconst 52, DW_OP_deref] $rsp
	#DEBUG_VALUE: concealByTrial:regionSize <- 16
	#DEBUG_VALUE: concealByTrial:currRegion <- [DW_OP_plus_uconst 96, DW_OP_deref] $rsp
	#DEBUG_VALUE: concealByTrial:minDist <- [DW_OP_plus_uconst 48, DW_OP_deref] $rsp
	#DEBUG_VALUE: concealByTrial:fInterNeighborExists <- [DW_OP_plus_uconst 20, DW_OP_deref] $rsp
	#DEBUG_VALUE: concealByTrial:i <- $r15
	.loc	0 0 0                           # ldecod_src/erc_do_p.c:0:0
	movl	%eax, 32(%rsp)
.Ltmp238:
	#DEBUG_VALUE: concealByTrial:mvPred <- [DW_OP_plus_uconst 24, DW_OP_deref] $rsp
	movq	120(%rsp), %rax                 # 8-byte Reload
	movq	856520(%rax), %rdi
	movl	4(%rbx), %edx
	movl	8(%rbx), %ecx
	leaq	24(%rsp), %rsi
	movq	72(%rsp), %rbx                  # 8-byte Reload
	movq	%rbx, %r8
	callq	buildPredRegionYUV
.Ltmp239:
	#DEBUG_VALUE: concealByTrial:fZeroMotionChecked <- [DW_OP_plus_uconst 12, DW_OP_deref] $rsp
	movq	64(%rsp), %rax                  # 8-byte Reload
.Ltmp240:
	.loc	0 456 32 is_stmt 1              # ldecod_src/erc_do_p.c:456:32
	movq	8(%rax), %rcx
	.loc	0 454 26                        # ldecod_src/erc_do_p.c:454:26
	movq	%r14, %rdi
	movl	44(%rsp), %esi                  # 4-byte Reload
	movq	%rbx, %rdx
	movl	16(%rsp), %r8d                  # 4-byte Reload
	callq	edgeDistortion
.Ltmp241:
	movl	%eax, %ebx
.Ltmp242:
	#DEBUG_VALUE: concealByTrial:currDist <- $ebx
	.loc	0 459 28                        # ldecod_src/erc_do_p.c:459:28
	cmpl	48(%rsp), %eax                  # 4-byte Folded Reload
	setge	%al
	cmpl	$0, 20(%rsp)                    # 4-byte Folded Reload
	setne	%cl
	movl	$1, 20(%rsp)                    # 4-byte Folded Spill
.Ltmp243:
	#DEBUG_VALUE: concealByTrial:fInterNeighborExists <- undef
	.loc	0 459 38 is_stmt 0              # ldecod_src/erc_do_p.c:459:38
	testb	%cl, %al
	jne	.LBB1_2
.Ltmp244:
# %bb.47:                               # %for.body211.preheader
                                        #   in Loop: Header=BB1_4 Depth=2
	#DEBUG_VALUE: concealByTrial:recfr <- [DW_OP_plus_uconst 64] [$rsp+0]
	#DEBUG_VALUE: concealByTrial:predMB <- [DW_OP_plus_uconst 72] [$rsp+0]
	#DEBUG_VALUE: concealByTrial:currMBNum <- [DW_OP_LLVM_entry_value 1] $edx
	#DEBUG_VALUE: concealByTrial:object_list <- [DW_OP_plus_uconst 112] [$rsp+0]
	#DEBUG_VALUE: concealByTrial:predBlocks <- [DW_OP_plus_uconst 152] [$rsp+0]
	#DEBUG_VALUE: concealByTrial:picSizeX <- [DW_OP_plus_uconst 16] [$rsp+0]
	#DEBUG_VALUE: concealByTrial:yCondition <- [DW_OP_plus_uconst 224] [$rsp+0]
	#DEBUG_VALUE: concealByTrial:mvPred <- [DW_OP_plus_uconst 24, DW_OP_deref] $rsp
	#DEBUG_VALUE: concealByTrial:p_Vid <- [DW_OP_plus_uconst 120, DW_OP_deref] $rsp
	#DEBUG_VALUE: concealByTrial:predMBNum <- $r12d
	#DEBUG_VALUE: concealByTrial:compLeft <- 1
	#DEBUG_VALUE: concealByTrial:comp <- 0
	#DEBUG_VALUE: concealByTrial:order <- 1
	#DEBUG_VALUE: concealByTrial:threshold <- [DW_OP_plus_uconst 52, DW_OP_deref] $rsp
	#DEBUG_VALUE: concealByTrial:regionSize <- 16
	#DEBUG_VALUE: concealByTrial:currRegion <- [DW_OP_plus_uconst 96, DW_OP_deref] $rsp
	#DEBUG_VALUE: concealByTrial:minDist <- [DW_OP_plus_uconst 48, DW_OP_deref] $rsp
	#DEBUG_VALUE: concealByTrial:fZeroMotionChecked <- [DW_OP_plus_uconst 12, DW_OP_deref] $rsp
	#DEBUG_VALUE: concealByTrial:i <- $r15
	#DEBUG_VALUE: concealByTrial:currDist <- $ebx
	.loc	0 466 29 is_stmt 1              # ldecod_src/erc_do_p.c:466:29
	movl	32(%rsp), %eax
	movl	%eax, 88(%rsp)
	movq	24(%rsp), %rax
	movq	%rax, 80(%rsp)
.Ltmp245:
	#DEBUG_VALUE: concealByTrial:k <- undef
	.loc	0 469 20                        # ldecod_src/erc_do_p.c:469:20
	movzbl	(%r13), %eax
	cmpb	$3, %al
	movq	%r12, 104(%rsp)                 # 8-byte Spill
.Ltmp246:
	#DEBUG_VALUE: concealByTrial:predMBNum <- [DW_OP_plus_uconst 104, DW_OP_deref] $rsp
	.loc	0 469 19 is_stmt 0              # ldecod_src/erc_do_p.c:469:19
	jb	.LBB1_50
.Ltmp247:
# %bb.48:                               # %cond.true224
                                        #   in Loop: Header=BB1_4 Depth=2
	#DEBUG_VALUE: concealByTrial:recfr <- [DW_OP_plus_uconst 64] [$rsp+0]
	#DEBUG_VALUE: concealByTrial:predMB <- [DW_OP_plus_uconst 72] [$rsp+0]
	#DEBUG_VALUE: concealByTrial:currMBNum <- [DW_OP_LLVM_entry_value 1] $edx
	#DEBUG_VALUE: concealByTrial:object_list <- [DW_OP_plus_uconst 112] [$rsp+0]
	#DEBUG_VALUE: concealByTrial:predBlocks <- [DW_OP_plus_uconst 152] [$rsp+0]
	#DEBUG_VALUE: concealByTrial:picSizeX <- [DW_OP_plus_uconst 16] [$rsp+0]
	#DEBUG_VALUE: concealByTrial:yCondition <- [DW_OP_plus_uconst 224] [$rsp+0]
	#DEBUG_VALUE: concealByTrial:mvPred <- [DW_OP_plus_uconst 24, DW_OP_deref] $rsp
	#DEBUG_VALUE: concealByTrial:p_Vid <- [DW_OP_plus_uconst 120, DW_OP_deref] $rsp
	#DEBUG_VALUE: concealByTrial:predMBNum <- [DW_OP_plus_uconst 104, DW_OP_deref] $rsp
	#DEBUG_VALUE: concealByTrial:compLeft <- 1
	#DEBUG_VALUE: concealByTrial:comp <- 0
	#DEBUG_VALUE: concealByTrial:order <- 1
	#DEBUG_VALUE: concealByTrial:threshold <- [DW_OP_plus_uconst 52, DW_OP_deref] $rsp
	#DEBUG_VALUE: concealByTrial:regionSize <- 16
	#DEBUG_VALUE: concealByTrial:currRegion <- [DW_OP_plus_uconst 96, DW_OP_deref] $rsp
	#DEBUG_VALUE: concealByTrial:minDist <- [DW_OP_plus_uconst 48, DW_OP_deref] $rsp
	#DEBUG_VALUE: concealByTrial:fZeroMotionChecked <- [DW_OP_plus_uconst 12, DW_OP_deref] $rsp
	#DEBUG_VALUE: concealByTrial:i <- $r15
	#DEBUG_VALUE: concealByTrial:currDist <- $ebx
	.loc	0 469 20                        # ldecod_src/erc_do_p.c:469:20
	movl	%ebp, %eax
	leaq	(%rax,%rax,2), %rax
	cmpb	$4, (%r13,%rax,8)
	jne	.LBB1_51
.Ltmp248:
.LBB1_49:                               #   in Loop: Header=BB1_4 Depth=2
	#DEBUG_VALUE: concealByTrial:recfr <- [DW_OP_plus_uconst 64] [$rsp+0]
	#DEBUG_VALUE: concealByTrial:predMB <- [DW_OP_plus_uconst 72] [$rsp+0]
	#DEBUG_VALUE: concealByTrial:currMBNum <- [DW_OP_LLVM_entry_value 1] $edx
	#DEBUG_VALUE: concealByTrial:object_list <- [DW_OP_plus_uconst 112] [$rsp+0]
	#DEBUG_VALUE: concealByTrial:predBlocks <- [DW_OP_plus_uconst 152] [$rsp+0]
	#DEBUG_VALUE: concealByTrial:picSizeX <- [DW_OP_plus_uconst 16] [$rsp+0]
	#DEBUG_VALUE: concealByTrial:yCondition <- [DW_OP_plus_uconst 224] [$rsp+0]
	#DEBUG_VALUE: concealByTrial:mvPred <- [DW_OP_plus_uconst 24, DW_OP_deref] $rsp
	#DEBUG_VALUE: concealByTrial:p_Vid <- [DW_OP_plus_uconst 120, DW_OP_deref] $rsp
	#DEBUG_VALUE: concealByTrial:predMBNum <- [DW_OP_plus_uconst 104, DW_OP_deref] $rsp
	#DEBUG_VALUE: concealByTrial:compLeft <- 1
	#DEBUG_VALUE: concealByTrial:comp <- 0
	#DEBUG_VALUE: concealByTrial:order <- 1
	#DEBUG_VALUE: concealByTrial:threshold <- [DW_OP_plus_uconst 52, DW_OP_deref] $rsp
	#DEBUG_VALUE: concealByTrial:regionSize <- 16
	#DEBUG_VALUE: concealByTrial:currRegion <- [DW_OP_plus_uconst 96, DW_OP_deref] $rsp
	#DEBUG_VALUE: concealByTrial:minDist <- [DW_OP_plus_uconst 48, DW_OP_deref] $rsp
	#DEBUG_VALUE: concealByTrial:fZeroMotionChecked <- [DW_OP_plus_uconst 12, DW_OP_deref] $rsp
	#DEBUG_VALUE: concealByTrial:i <- $r15
	#DEBUG_VALUE: concealByTrial:currDist <- $ebx
	.loc	0 0 20                          # ldecod_src/erc_do_p.c:0:20
	movl	%ebp, %r13d
	xorl	%eax, %eax
	.loc	0 469 20                        # ldecod_src/erc_do_p.c:469:20
	jmp	.LBB1_52
.Ltmp249:
.LBB1_50:                               # %cond.false234
                                        #   in Loop: Header=BB1_4 Depth=2
	#DEBUG_VALUE: concealByTrial:recfr <- [DW_OP_plus_uconst 64] [$rsp+0]
	#DEBUG_VALUE: concealByTrial:predMB <- [DW_OP_plus_uconst 72] [$rsp+0]
	#DEBUG_VALUE: concealByTrial:currMBNum <- [DW_OP_LLVM_entry_value 1] $edx
	#DEBUG_VALUE: concealByTrial:object_list <- [DW_OP_plus_uconst 112] [$rsp+0]
	#DEBUG_VALUE: concealByTrial:predBlocks <- [DW_OP_plus_uconst 152] [$rsp+0]
	#DEBUG_VALUE: concealByTrial:picSizeX <- [DW_OP_plus_uconst 16] [$rsp+0]
	#DEBUG_VALUE: concealByTrial:yCondition <- [DW_OP_plus_uconst 224] [$rsp+0]
	#DEBUG_VALUE: concealByTrial:mvPred <- [DW_OP_plus_uconst 24, DW_OP_deref] $rsp
	#DEBUG_VALUE: concealByTrial:p_Vid <- [DW_OP_plus_uconst 120, DW_OP_deref] $rsp
	#DEBUG_VALUE: concealByTrial:predMBNum <- [DW_OP_plus_uconst 104, DW_OP_deref] $rsp
	#DEBUG_VALUE: concealByTrial:compLeft <- 1
	#DEBUG_VALUE: concealByTrial:comp <- 0
	#DEBUG_VALUE: concealByTrial:order <- 1
	#DEBUG_VALUE: concealByTrial:threshold <- [DW_OP_plus_uconst 52, DW_OP_deref] $rsp
	#DEBUG_VALUE: concealByTrial:regionSize <- 16
	#DEBUG_VALUE: concealByTrial:currRegion <- [DW_OP_plus_uconst 96, DW_OP_deref] $rsp
	#DEBUG_VALUE: concealByTrial:minDist <- [DW_OP_plus_uconst 48, DW_OP_deref] $rsp
	#DEBUG_VALUE: concealByTrial:fZeroMotionChecked <- [DW_OP_plus_uconst 12, DW_OP_deref] $rsp
	#DEBUG_VALUE: concealByTrial:i <- $r15
	#DEBUG_VALUE: concealByTrial:currDist <- $ebx
	testb	%al, %al
	.loc	0 469 19                        # ldecod_src/erc_do_p.c:469:19
	je	.LBB1_49
.Ltmp250:
.LBB1_51:                               # %cond.false246
                                        #   in Loop: Header=BB1_4 Depth=2
	#DEBUG_VALUE: concealByTrial:recfr <- [DW_OP_plus_uconst 64] [$rsp+0]
	#DEBUG_VALUE: concealByTrial:predMB <- [DW_OP_plus_uconst 72] [$rsp+0]
	#DEBUG_VALUE: concealByTrial:currMBNum <- [DW_OP_LLVM_entry_value 1] $edx
	#DEBUG_VALUE: concealByTrial:object_list <- [DW_OP_plus_uconst 112] [$rsp+0]
	#DEBUG_VALUE: concealByTrial:predBlocks <- [DW_OP_plus_uconst 152] [$rsp+0]
	#DEBUG_VALUE: concealByTrial:picSizeX <- [DW_OP_plus_uconst 16] [$rsp+0]
	#DEBUG_VALUE: concealByTrial:yCondition <- [DW_OP_plus_uconst 224] [$rsp+0]
	#DEBUG_VALUE: concealByTrial:mvPred <- [DW_OP_plus_uconst 24, DW_OP_deref] $rsp
	#DEBUG_VALUE: concealByTrial:p_Vid <- [DW_OP_plus_uconst 120, DW_OP_deref] $rsp
	#DEBUG_VALUE: concealByTrial:predMBNum <- [DW_OP_plus_uconst 104, DW_OP_deref] $rsp
	#DEBUG_VALUE: concealByTrial:compLeft <- 1
	#DEBUG_VALUE: concealByTrial:comp <- 0
	#DEBUG_VALUE: concealByTrial:order <- 1
	#DEBUG_VALUE: concealByTrial:threshold <- [DW_OP_plus_uconst 52, DW_OP_deref] $rsp
	#DEBUG_VALUE: concealByTrial:regionSize <- 16
	#DEBUG_VALUE: concealByTrial:currRegion <- [DW_OP_plus_uconst 96, DW_OP_deref] $rsp
	#DEBUG_VALUE: concealByTrial:minDist <- [DW_OP_plus_uconst 48, DW_OP_deref] $rsp
	#DEBUG_VALUE: concealByTrial:fZeroMotionChecked <- [DW_OP_plus_uconst 12, DW_OP_deref] $rsp
	#DEBUG_VALUE: concealByTrial:i <- $r15
	#DEBUG_VALUE: concealByTrial:currDist <- $ebx
	.loc	0 0 19                          # ldecod_src/erc_do_p.c:0:19
	movl	%ebp, %r13d
	movb	$1, %al
.Ltmp251:
.LBB1_52:                               # %cond.end250
                                        #   in Loop: Header=BB1_4 Depth=2
	#DEBUG_VALUE: concealByTrial:recfr <- [DW_OP_plus_uconst 64] [$rsp+0]
	#DEBUG_VALUE: concealByTrial:predMB <- [DW_OP_plus_uconst 72] [$rsp+0]
	#DEBUG_VALUE: concealByTrial:currMBNum <- [DW_OP_LLVM_entry_value 1] $edx
	#DEBUG_VALUE: concealByTrial:object_list <- [DW_OP_plus_uconst 112] [$rsp+0]
	#DEBUG_VALUE: concealByTrial:predBlocks <- [DW_OP_plus_uconst 152] [$rsp+0]
	#DEBUG_VALUE: concealByTrial:picSizeX <- [DW_OP_plus_uconst 16] [$rsp+0]
	#DEBUG_VALUE: concealByTrial:yCondition <- [DW_OP_plus_uconst 224] [$rsp+0]
	#DEBUG_VALUE: concealByTrial:mvPred <- [DW_OP_plus_uconst 24, DW_OP_deref] $rsp
	#DEBUG_VALUE: concealByTrial:p_Vid <- [DW_OP_plus_uconst 120, DW_OP_deref] $rsp
	#DEBUG_VALUE: concealByTrial:predMBNum <- [DW_OP_plus_uconst 104, DW_OP_deref] $rsp
	#DEBUG_VALUE: concealByTrial:compLeft <- 1
	#DEBUG_VALUE: concealByTrial:comp <- 0
	#DEBUG_VALUE: concealByTrial:order <- 1
	#DEBUG_VALUE: concealByTrial:threshold <- [DW_OP_plus_uconst 52, DW_OP_deref] $rsp
	#DEBUG_VALUE: concealByTrial:regionSize <- 16
	#DEBUG_VALUE: concealByTrial:currRegion <- [DW_OP_plus_uconst 96, DW_OP_deref] $rsp
	#DEBUG_VALUE: concealByTrial:minDist <- [DW_OP_plus_uconst 48, DW_OP_deref] $rsp
	#DEBUG_VALUE: concealByTrial:fZeroMotionChecked <- [DW_OP_plus_uconst 12, DW_OP_deref] $rsp
	#DEBUG_VALUE: concealByTrial:i <- $r15
	#DEBUG_VALUE: concealByTrial:currDist <- $ebx
	movq	96(%rsp), %r12                  # 8-byte Reload
	.loc	0 468 40 is_stmt 1              # ldecod_src/erc_do_p.c:468:40
	movb	%al, (%r12)
	movq	64(%rsp), %rax                  # 8-byte Reload
	.loc	0 473 17                        # ldecod_src/erc_do_p.c:473:17
	movq	(%rax), %rdx
	movl	44(%rsp), %edi                  # 4-byte Reload
	movq	72(%rsp), %rsi                  # 8-byte Reload
	movl	16(%rsp), %ecx                  # 4-byte Reload
	callq	copyPredMB
.Ltmp252:
	.loc	0 0 17 is_stmt 0                # ldecod_src/erc_do_p.c:0:17
	movl	%ebx, 48(%rsp)                  # 4-byte Spill
.Ltmp253:
	#DEBUG_VALUE: concealByTrial:currDist <- [DW_OP_plus_uconst 48, DW_OP_deref] $rsp
	#DEBUG_VALUE: concealByTrial:minDist <- undef
	movq	%r12, %rbx
	movq	112(%rsp), %rcx                 # 8-byte Reload
	movl	52(%rsp), %edi                  # 4-byte Reload
	movl	%r13d, %r8d
	movl	40(%rsp), %r9d                  # 4-byte Reload
	movq	104(%rsp), %r12                 # 8-byte Reload
	jmp	.LBB1_3
.Ltmp254:
	.p2align	4, 0x90
.LBB1_53:                               # %for.end278
                                        #   in Loop: Header=BB1_1 Depth=1
	#DEBUG_VALUE: concealByTrial:recfr <- [DW_OP_plus_uconst 64] [$rsp+0]
	#DEBUG_VALUE: concealByTrial:predMB <- [DW_OP_plus_uconst 72] [$rsp+0]
	#DEBUG_VALUE: concealByTrial:currMBNum <- [DW_OP_LLVM_entry_value 1] $edx
	#DEBUG_VALUE: concealByTrial:object_list <- [DW_OP_plus_uconst 112] [$rsp+0]
	#DEBUG_VALUE: concealByTrial:predBlocks <- [DW_OP_plus_uconst 152] [$rsp+0]
	#DEBUG_VALUE: concealByTrial:picSizeX <- [DW_OP_plus_uconst 16] [$rsp+0]
	#DEBUG_VALUE: concealByTrial:yCondition <- [DW_OP_plus_uconst 224] [$rsp+0]
	#DEBUG_VALUE: concealByTrial:p_Vid <- [DW_OP_plus_uconst 120, DW_OP_deref] $rsp
	#DEBUG_VALUE: concealByTrial:predMBNum <- $r12d
	#DEBUG_VALUE: concealByTrial:compSplit1 <- $r9d
	#DEBUG_VALUE: concealByTrial:compSplit2 <- $r8d
	#DEBUG_VALUE: concealByTrial:compLeft <- 1
	#DEBUG_VALUE: concealByTrial:comp <- 0
	#DEBUG_VALUE: concealByTrial:order <- 1
	#DEBUG_VALUE: concealByTrial:threshold <- [DW_OP_plus_uconst 52, DW_OP_deref] $rsp
	#DEBUG_VALUE: concealByTrial:regionSize <- 16
	#DEBUG_VALUE: concealByTrial:currRegion <- [DW_OP_plus_uconst 96, DW_OP_deref] $rsp
	#DEBUG_VALUE: concealByTrial:minDist <- [DW_OP_plus_uconst 48, DW_OP_deref] $rsp
	#DEBUG_VALUE: concealByTrial:fInterNeighborExists <- [DW_OP_plus_uconst 20, DW_OP_deref] $rsp
	#DEBUG_VALUE: concealByTrial:fZeroMotionChecked <- [DW_OP_plus_uconst 12, DW_OP_deref] $rsp
	#DEBUG_VALUE: concealByTrial:i <- $r15
	#DEBUG_VALUE: concealByTrial:threshold <- [DW_OP_plus_uconst 52, DW_OP_deref, DW_OP_constu 1, DW_OP_minus, DW_OP_stack_value] $rsp
	.loc	0 485 25 is_stmt 1              # ldecod_src/erc_do_p.c:485:25
	addl	$-3, %edi
	cmpl	$-3, %edi
.Ltmp255:
	.loc	0 485 5 is_stmt 0               # ldecod_src/erc_do_p.c:485:5
	ja	.LBB1_55
.Ltmp256:
# %bb.54:                               # %for.end278
                                        #   in Loop: Header=BB1_1 Depth=1
	#DEBUG_VALUE: concealByTrial:recfr <- [DW_OP_plus_uconst 64] [$rsp+0]
	#DEBUG_VALUE: concealByTrial:predMB <- [DW_OP_plus_uconst 72] [$rsp+0]
	#DEBUG_VALUE: concealByTrial:currMBNum <- [DW_OP_LLVM_entry_value 1] $edx
	#DEBUG_VALUE: concealByTrial:object_list <- [DW_OP_plus_uconst 112] [$rsp+0]
	#DEBUG_VALUE: concealByTrial:predBlocks <- [DW_OP_plus_uconst 152] [$rsp+0]
	#DEBUG_VALUE: concealByTrial:picSizeX <- [DW_OP_plus_uconst 16] [$rsp+0]
	#DEBUG_VALUE: concealByTrial:yCondition <- [DW_OP_plus_uconst 224] [$rsp+0]
	#DEBUG_VALUE: concealByTrial:p_Vid <- [DW_OP_plus_uconst 120, DW_OP_deref] $rsp
	#DEBUG_VALUE: concealByTrial:predMBNum <- $r12d
	#DEBUG_VALUE: concealByTrial:compSplit1 <- $r9d
	#DEBUG_VALUE: concealByTrial:compSplit2 <- $r8d
	#DEBUG_VALUE: concealByTrial:compLeft <- 1
	#DEBUG_VALUE: concealByTrial:comp <- 0
	#DEBUG_VALUE: concealByTrial:order <- 1
	#DEBUG_VALUE: concealByTrial:threshold <- [DW_OP_plus_uconst 52, DW_OP_deref, DW_OP_constu 1, DW_OP_minus, DW_OP_stack_value] $rsp
	#DEBUG_VALUE: concealByTrial:regionSize <- 16
	#DEBUG_VALUE: concealByTrial:currRegion <- [DW_OP_plus_uconst 96, DW_OP_deref] $rsp
	#DEBUG_VALUE: concealByTrial:minDist <- [DW_OP_plus_uconst 48, DW_OP_deref] $rsp
	#DEBUG_VALUE: concealByTrial:fInterNeighborExists <- [DW_OP_plus_uconst 20, DW_OP_deref] $rsp
	#DEBUG_VALUE: concealByTrial:fZeroMotionChecked <- [DW_OP_plus_uconst 12, DW_OP_deref] $rsp
	#DEBUG_VALUE: concealByTrial:i <- $r15
	.loc	0 0 5                           # ldecod_src/erc_do_p.c:0:5
	movl	$2, %edi
	.loc	0 485 5                         # ldecod_src/erc_do_p.c:485:5
	cmpl	$0, 20(%rsp)                    # 4-byte Folded Reload
	je	.LBB1_1
.Ltmp257:
.LBB1_55:                               # %do.end
	#DEBUG_VALUE: concealByTrial:recfr <- [DW_OP_plus_uconst 64] [$rsp+0]
	#DEBUG_VALUE: concealByTrial:predMB <- [DW_OP_plus_uconst 72] [$rsp+0]
	#DEBUG_VALUE: concealByTrial:currMBNum <- [DW_OP_LLVM_entry_value 1] $edx
	#DEBUG_VALUE: concealByTrial:object_list <- [DW_OP_plus_uconst 112] [$rsp+0]
	#DEBUG_VALUE: concealByTrial:predBlocks <- [DW_OP_plus_uconst 152] [$rsp+0]
	#DEBUG_VALUE: concealByTrial:picSizeX <- [DW_OP_plus_uconst 16] [$rsp+0]
	#DEBUG_VALUE: concealByTrial:yCondition <- [DW_OP_plus_uconst 224] [$rsp+0]
	#DEBUG_VALUE: concealByTrial:p_Vid <- [DW_OP_plus_uconst 120, DW_OP_deref] $rsp
	#DEBUG_VALUE: concealByTrial:predMBNum <- $r12d
	#DEBUG_VALUE: concealByTrial:compSplit1 <- $r9d
	#DEBUG_VALUE: concealByTrial:compSplit2 <- $r8d
	#DEBUG_VALUE: concealByTrial:compLeft <- 1
	#DEBUG_VALUE: concealByTrial:comp <- 0
	#DEBUG_VALUE: concealByTrial:order <- 1
	#DEBUG_VALUE: concealByTrial:threshold <- [DW_OP_plus_uconst 52, DW_OP_deref, DW_OP_constu 1, DW_OP_minus, DW_OP_stack_value] $rsp
	#DEBUG_VALUE: concealByTrial:regionSize <- 16
	#DEBUG_VALUE: concealByTrial:currRegion <- [DW_OP_plus_uconst 96, DW_OP_deref] $rsp
	#DEBUG_VALUE: concealByTrial:minDist <- [DW_OP_plus_uconst 48, DW_OP_deref] $rsp
	#DEBUG_VALUE: concealByTrial:fInterNeighborExists <- [DW_OP_plus_uconst 20, DW_OP_deref] $rsp
	#DEBUG_VALUE: concealByTrial:fZeroMotionChecked <- [DW_OP_plus_uconst 12, DW_OP_deref] $rsp
	#DEBUG_VALUE: concealByTrial:i <- $r15
	.loc	0 488 10 is_stmt 1              # ldecod_src/erc_do_p.c:488:10
	cmpl	$0, 12(%rsp)                    # 4-byte Folded Reload
	movl	44(%rsp), %ebp                  # 4-byte Reload
.Ltmp258:
	.loc	0 488 9 is_stmt 0               # ldecod_src/erc_do_p.c:488:9
	jne	.LBB1_58
.Ltmp259:
# %bb.56:                               # %if.then284
	#DEBUG_VALUE: concealByTrial:recfr <- [DW_OP_plus_uconst 64] [$rsp+0]
	#DEBUG_VALUE: concealByTrial:predMB <- [DW_OP_plus_uconst 72] [$rsp+0]
	#DEBUG_VALUE: concealByTrial:currMBNum <- [DW_OP_LLVM_entry_value 1] $edx
	#DEBUG_VALUE: concealByTrial:object_list <- [DW_OP_plus_uconst 112] [$rsp+0]
	#DEBUG_VALUE: concealByTrial:predBlocks <- [DW_OP_plus_uconst 152] [$rsp+0]
	#DEBUG_VALUE: concealByTrial:picSizeX <- [DW_OP_plus_uconst 16] [$rsp+0]
	#DEBUG_VALUE: concealByTrial:yCondition <- [DW_OP_plus_uconst 224] [$rsp+0]
	#DEBUG_VALUE: concealByTrial:p_Vid <- [DW_OP_plus_uconst 120, DW_OP_deref] $rsp
	#DEBUG_VALUE: concealByTrial:predMBNum <- $r12d
	#DEBUG_VALUE: concealByTrial:compSplit1 <- $r9d
	#DEBUG_VALUE: concealByTrial:compSplit2 <- $r8d
	#DEBUG_VALUE: concealByTrial:compLeft <- 1
	#DEBUG_VALUE: concealByTrial:comp <- 0
	#DEBUG_VALUE: concealByTrial:order <- 1
	#DEBUG_VALUE: concealByTrial:threshold <- [DW_OP_plus_uconst 52, DW_OP_deref, DW_OP_constu 1, DW_OP_minus, DW_OP_stack_value] $rsp
	#DEBUG_VALUE: concealByTrial:regionSize <- 16
	#DEBUG_VALUE: concealByTrial:currRegion <- [DW_OP_plus_uconst 96, DW_OP_deref] $rsp
	#DEBUG_VALUE: concealByTrial:minDist <- [DW_OP_plus_uconst 48, DW_OP_deref] $rsp
	#DEBUG_VALUE: concealByTrial:fInterNeighborExists <- [DW_OP_plus_uconst 20, DW_OP_deref] $rsp
	#DEBUG_VALUE: concealByTrial:fZeroMotionChecked <- [DW_OP_plus_uconst 12, DW_OP_deref] $rsp
	#DEBUG_VALUE: concealByTrial:i <- $r15
	#DEBUG_VALUE: concealByTrial:mvPred <- [DW_OP_plus_uconst 24, DW_OP_deref] $rsp
	.loc	0 490 17 is_stmt 1              # ldecod_src/erc_do_p.c:490:17
	movq	$0, 24(%rsp)
	.loc	0 491 17                        # ldecod_src/erc_do_p.c:491:17
	movl	$0, 32(%rsp)
	movq	120(%rsp), %rax                 # 8-byte Reload
	.loc	0 493 33                        # ldecod_src/erc_do_p.c:493:33
	movq	856520(%rax), %rdi
	.loc	0 493 62 is_stmt 0              # ldecod_src/erc_do_p.c:493:62
	movl	4(%rbx), %edx
	.loc	0 493 80                        # ldecod_src/erc_do_p.c:493:80
	movl	8(%rbx), %ecx
	leaq	24(%rsp), %rsi
	movq	72(%rsp), %rbx                  # 8-byte Reload
	.loc	0 493 7                         # ldecod_src/erc_do_p.c:493:7
	movq	%rbx, %r8
.Ltmp260:
	callq	buildPredRegionYUV
.Ltmp261:
	.loc	0 0 7                           # ldecod_src/erc_do_p.c:0:7
	movq	64(%rsp), %rax                  # 8-byte Reload
	.loc	0 497 24 is_stmt 1              # ldecod_src/erc_do_p.c:497:24
	movq	8(%rax), %rcx
	.loc	0 495 18                        # ldecod_src/erc_do_p.c:495:18
	movq	%r14, %rdi
	movl	%ebp, %esi
	movq	%rbx, %rdx
	movq	96(%rsp), %rbx                  # 8-byte Reload
	movl	16(%rsp), %r8d                  # 4-byte Reload
	callq	edgeDistortion
.Ltmp262:
	#DEBUG_VALUE: concealByTrial:currDist <- $eax
	.loc	0 499 20                        # ldecod_src/erc_do_p.c:499:20
	cmpl	48(%rsp), %eax                  # 4-byte Folded Reload
	setge	%al
.Ltmp263:
	.loc	0 0 20 is_stmt 0                # ldecod_src/erc_do_p.c:0:20
	cmpl	$0, 20(%rsp)                    # 4-byte Folded Reload
	setne	%cl
	.loc	0 499 30                        # ldecod_src/erc_do_p.c:499:30
	testb	%cl, %al
	jne	.LBB1_58
.Ltmp264:
# %bb.57:                               # %for.body315.preheader
	#DEBUG_VALUE: concealByTrial:recfr <- [DW_OP_plus_uconst 64] [$rsp+0]
	#DEBUG_VALUE: concealByTrial:predMB <- [DW_OP_plus_uconst 72] [$rsp+0]
	#DEBUG_VALUE: concealByTrial:currMBNum <- [DW_OP_LLVM_entry_value 1] $edx
	#DEBUG_VALUE: concealByTrial:object_list <- [DW_OP_plus_uconst 112] [$rsp+0]
	#DEBUG_VALUE: concealByTrial:predBlocks <- [DW_OP_plus_uconst 152] [$rsp+0]
	#DEBUG_VALUE: concealByTrial:picSizeX <- [DW_OP_plus_uconst 16] [$rsp+0]
	#DEBUG_VALUE: concealByTrial:yCondition <- [DW_OP_plus_uconst 224] [$rsp+0]
	#DEBUG_VALUE: concealByTrial:mvPred <- [DW_OP_plus_uconst 24, DW_OP_deref] $rsp
	#DEBUG_VALUE: concealByTrial:p_Vid <- [DW_OP_plus_uconst 120, DW_OP_deref] $rsp
	#DEBUG_VALUE: concealByTrial:predMBNum <- $r12d
	#DEBUG_VALUE: concealByTrial:compLeft <- 1
	#DEBUG_VALUE: concealByTrial:comp <- 0
	#DEBUG_VALUE: concealByTrial:order <- 1
	#DEBUG_VALUE: concealByTrial:threshold <- [DW_OP_plus_uconst 52, DW_OP_deref, DW_OP_constu 1, DW_OP_minus, DW_OP_stack_value] $rsp
	#DEBUG_VALUE: concealByTrial:regionSize <- 16
	#DEBUG_VALUE: concealByTrial:currRegion <- [DW_OP_plus_uconst 96, DW_OP_deref] $rsp
	#DEBUG_VALUE: concealByTrial:minDist <- [DW_OP_plus_uconst 48, DW_OP_deref] $rsp
	#DEBUG_VALUE: concealByTrial:fInterNeighborExists <- [DW_OP_plus_uconst 20, DW_OP_deref] $rsp
	#DEBUG_VALUE: concealByTrial:fZeroMotionChecked <- [DW_OP_plus_uconst 12, DW_OP_deref] $rsp
	#DEBUG_VALUE: concealByTrial:i <- $r15
	.loc	0 504 21 is_stmt 1              # ldecod_src/erc_do_p.c:504:21
	movl	32(%rsp), %eax
	movl	%eax, 88(%rsp)
	movq	24(%rsp), %rax
	movq	%rax, 80(%rsp)
.Ltmp265:
	#DEBUG_VALUE: concealByTrial:k <- undef
	.loc	0 506 32                        # ldecod_src/erc_do_p.c:506:32
	movb	$0, (%rbx)
	movq	64(%rsp), %rax                  # 8-byte Reload
	.loc	0 509 9                         # ldecod_src/erc_do_p.c:509:9
	movq	(%rax), %rdx
	movl	%ebp, %edi
	movq	72(%rsp), %rsi                  # 8-byte Reload
	movl	16(%rsp), %ecx                  # 4-byte Reload
	callq	copyPredMB
.Ltmp266:
.LBB1_58:                               # %if.end342
	#DEBUG_VALUE: concealByTrial:recfr <- [DW_OP_plus_uconst 64] [$rsp+0]
	#DEBUG_VALUE: concealByTrial:predMB <- [DW_OP_plus_uconst 72] [$rsp+0]
	#DEBUG_VALUE: concealByTrial:currMBNum <- [DW_OP_LLVM_entry_value 1] $edx
	#DEBUG_VALUE: concealByTrial:object_list <- [DW_OP_plus_uconst 112] [$rsp+0]
	#DEBUG_VALUE: concealByTrial:predBlocks <- [DW_OP_plus_uconst 152] [$rsp+0]
	#DEBUG_VALUE: concealByTrial:picSizeX <- [DW_OP_plus_uconst 16] [$rsp+0]
	#DEBUG_VALUE: concealByTrial:yCondition <- [DW_OP_plus_uconst 224] [$rsp+0]
	#DEBUG_VALUE: concealByTrial:p_Vid <- [DW_OP_plus_uconst 120, DW_OP_deref] $rsp
	#DEBUG_VALUE: concealByTrial:predMBNum <- $r12d
	#DEBUG_VALUE: concealByTrial:compLeft <- 1
	#DEBUG_VALUE: concealByTrial:comp <- 0
	#DEBUG_VALUE: concealByTrial:order <- 1
	#DEBUG_VALUE: concealByTrial:threshold <- [DW_OP_plus_uconst 52, DW_OP_deref, DW_OP_constu 1, DW_OP_minus, DW_OP_stack_value] $rsp
	#DEBUG_VALUE: concealByTrial:regionSize <- 16
	#DEBUG_VALUE: concealByTrial:currRegion <- [DW_OP_plus_uconst 96, DW_OP_deref] $rsp
	#DEBUG_VALUE: concealByTrial:minDist <- [DW_OP_plus_uconst 48, DW_OP_deref] $rsp
	#DEBUG_VALUE: concealByTrial:fInterNeighborExists <- [DW_OP_plus_uconst 20, DW_OP_deref] $rsp
	#DEBUG_VALUE: concealByTrial:fZeroMotionChecked <- [DW_OP_plus_uconst 12, DW_OP_deref] $rsp
	#DEBUG_VALUE: concealByTrial:i <- $r15
	#DEBUG_VALUE: concealByTrial:i <- 0
	.loc	0 515 25                        # ldecod_src/erc_do_p.c:515:25
	movl	88(%rsp), %eax
	movl	%eax, 20(%rbx)
	movq	80(%rsp), %rax
	movq	%rax, 12(%rbx)
.Ltmp267:
	#DEBUG_VALUE: concealByTrial:i <- undef
	.loc	0 517 5                         # ldecod_src/erc_do_p.c:517:5
	movslq	%ebp, %rax
	.loc	0 517 55 is_stmt 0              # ldecod_src/erc_do_p.c:517:55
	movq	224(%rsp), %rcx
	movb	$2, (%rcx,%rax)
.Ltmp268:
	#DEBUG_VALUE: concealByTrial:comp <- 1
	#DEBUG_VALUE: concealByTrial:compLeft <- 0
	.loc	0 523 5 epilogue_begin is_stmt 1 # ldecod_src/erc_do_p.c:523:5
	addq	$168, %rsp
	.cfi_def_cfa_offset 56
	popq	%rbx
	.cfi_def_cfa_offset 48
	popq	%r12
.Ltmp269:
	.cfi_def_cfa_offset 40
	popq	%r13
	.cfi_def_cfa_offset 32
	popq	%r14
	.cfi_def_cfa_offset 24
	popq	%r15
	.cfi_def_cfa_offset 16
	popq	%rbp
	.cfi_def_cfa_offset 8
	retq
.Ltmp270:
.Lfunc_end1:
	.size	concealByTrial, .Lfunc_end1-concealByTrial
	.cfi_endproc
	.section	.rodata,"a",@progbits
	.p2align	3, 0x0
.LJTI1_0:
	.quad	.LBB1_7
	.quad	.LBB1_10
	.quad	.LBB1_8
	.quad	.LBB1_9
                                        # -- End function
	.text
	.p2align	4, 0x90                         # -- Begin function concealByCopy
	.type	concealByCopy,@function
concealByCopy:                          # @concealByCopy
.Lfunc_begin2:
	.loc	0 241 0                         # ldecod_src/erc_do_p.c:241:0
	.cfi_startproc
# %bb.0:                                # %entry
	#DEBUG_VALUE: concealByCopy:recfr <- $rdi
	#DEBUG_VALUE: concealByCopy:currMBNum <- $esi
	#DEBUG_VALUE: concealByCopy:object_list <- $rdx
	#DEBUG_VALUE: concealByCopy:picSizeX <- $ecx
	pushq	%rbp
	.cfi_def_cfa_offset 16
	pushq	%r15
	.cfi_def_cfa_offset 24
	pushq	%r14
	.cfi_def_cfa_offset 32
	pushq	%r13
	.cfi_def_cfa_offset 40
	pushq	%r12
	.cfi_def_cfa_offset 48
	pushq	%rbx
	.cfi_def_cfa_offset 56
	.cfi_offset %rbx, -56
	.cfi_offset %r12, -48
	.cfi_offset %r13, -40
	.cfi_offset %r14, -32
	.cfi_offset %r15, -24
	.cfi_offset %rbp, -16
	movq	%rdx, %r9
	movl	%esi, %eax
.Ltmp271:
	.loc	0 244 38 prologue_end           # ldecod_src/erc_do_p.c:244:38
	leal	(,%rax,4), %edx
.Ltmp272:
	#DEBUG_VALUE: concealByCopy:object_list <- $r9
	.loc	0 244 27 is_stmt 0              # ldecod_src/erc_do_p.c:244:27
	movslq	%edx, %rdx
	leaq	(%rdx,%rdx,2), %rsi
.Ltmp273:
	#DEBUG_VALUE: concealByCopy:currMBNum <- $eax
	#DEBUG_VALUE: concealByCopy:currRegion <- undef
	.loc	0 245 26 is_stmt 1              # ldecod_src/erc_do_p.c:245:26
	movb	$0, (%r9,%rsi,8)
	.loc	0 247 23                        # ldecod_src/erc_do_p.c:247:23
	movl	%ecx, %r8d
	sarl	$4, %r8d
                                        # kill: def $eax killed $eax killed $rax
	.loc	0 248 23                        # ldecod_src/erc_do_p.c:248:23
	cltd
.Ltmp274:
	#DEBUG_VALUE: concealByCopy:currMBNum <- [DW_OP_LLVM_entry_value 1] $esi
	idivl	%r8d
                                        # kill: def $eax killed $eax def $rax
                                        # kill: def $edx killed $edx def $rdx
	.loc	0 247 49                        # ldecod_src/erc_do_p.c:247:49
	movl	%edx, %r8d
	shll	$4, %r8d
	.loc	0 247 20 is_stmt 0              # ldecod_src/erc_do_p.c:247:20
	movl	%r8d, 4(%r9,%rsi,8)
	.loc	0 248 49 is_stmt 1              # ldecod_src/erc_do_p.c:248:49
	movl	%eax, %r8d
	shll	$4, %r8d
	.loc	0 248 20 is_stmt 0              # ldecod_src/erc_do_p.c:248:20
	movl	%r8d, 8(%r9,%rsi,8)
	.loc	0 250 29 is_stmt 1              # ldecod_src/erc_do_p.c:250:29
	movl	%ecx, %r8d
	sarl	$3, %r8d
	imull	%r8d, %eax
	addl	%edx, %edx
	leal	(%rdx,%rax,2), %eax
.Ltmp275:
	#DEBUG_VALUE: copyBetweenFrames:currYBlockNum <- $eax
	#DEBUG_VALUE: copyBetweenFrames:recfr <- $rdi
	#DEBUG_VALUE: copyBetweenFrames:picSizeX <- $ecx
	#DEBUG_VALUE: copyBetweenFrames:regionSize <- 16
	.loc	0 272 35                        # ldecod_src/erc_do_p.c:272:35
	movq	(%rdi), %rdx
.Ltmp276:
	#DEBUG_VALUE: copyBetweenFrames:p_Vid <- $rdx
	.loc	0 273 41                        # ldecod_src/erc_do_p.c:273:41
	movq	856456(%rdx), %rsi
.Ltmp277:
	#DEBUG_VALUE: copyBetweenFrames:dec_picture <- $rsi
	.loc	0 275 36                        # ldecod_src/erc_do_p.c:275:36
	movq	848736(%rdx), %rdx
.Ltmp278:
	.loc	0 275 29 is_stmt 0              # ldecod_src/erc_do_p.c:275:29
	movq	(%rdx), %rdx
	movq	264(%rdx), %rdx
	movq	(%rdx), %r9
.Ltmp279:
	#DEBUG_VALUE: concealByCopy:object_list <- [DW_OP_LLVM_entry_value 1] $rdx
	#DEBUG_VALUE: copyBetweenFrames:refPic <- $r9
	.loc	0 279 11 is_stmt 1              # ldecod_src/erc_do_p.c:279:11
	cltd
.Ltmp280:
	idivl	%r8d
                                        # kill: def $eax killed $eax def $rax
                                        # kill: def $edx killed $edx def $rdx
	.loc	0 278 45                        # ldecod_src/erc_do_p.c:278:45
	shll	$3, %edx
.Ltmp281:
	#DEBUG_VALUE: copyBetweenFrames:xmin <- $edx
	#DEBUG_VALUE: copyBetweenFrames:ymin <- undef
	#DEBUG_VALUE: copyBetweenFrames:j <- undef
	.loc	0 0 45 is_stmt 0                # ldecod_src/erc_do_p.c:0:45
	leal	16(,%rax,8), %r8d
                                        # kill: def $eax killed $eax killed $rax
	.loc	0 279 45 is_stmt 1              # ldecod_src/erc_do_p.c:279:45
	shll	$3, %eax
.Ltmp282:
	#DEBUG_VALUE: copyBetweenFrames:j <- $eax
	#DEBUG_VALUE: copyBetweenFrames:ymin <- $eax
	.loc	0 0 45 is_stmt 0                # ldecod_src/erc_do_p.c:0:45
	movq	%rdx, -24(%rsp)                 # 8-byte Spill
.Ltmp283:
	#DEBUG_VALUE: copyBetweenFrames:xmin <- [DW_OP_constu 24, DW_OP_minus, DW_OP_deref] $rsp
	.loc	0 281 3 is_stmt 1               # ldecod_src/erc_do_p.c:281:3
	movslq	%edx, %r12
	movl	%eax, -36(%rsp)                 # 4-byte Spill
	movslq	%eax, %r11
	movl	%ecx, -28(%rsp)                 # 4-byte Spill
.Ltmp284:
	#DEBUG_VALUE: copyBetweenFrames:picSizeX <- [DW_OP_constu 28, DW_OP_minus, DW_OP_deref] $rsp
	#DEBUG_VALUE: concealByCopy:picSizeX <- [DW_OP_constu 28, DW_OP_minus] [$rsp+0]
	movslq	%ecx, %rbx
	movl	%r8d, -32(%rsp)                 # 4-byte Spill
	movslq	%r8d, %rax
.Ltmp285:
	.loc	0 0 3 is_stmt 0                 # ldecod_src/erc_do_p.c:0:3
	movq	%rax, -8(%rsp)                  # 8-byte Spill
	leaq	1(%r12), %rax
	movq	%rax, -16(%rsp)                 # 8-byte Spill
	leaq	2(%r12), %rcx
	.loc	0 281 3                         # ldecod_src/erc_do_p.c:281:3
	movq	%rbx, %rax
.Ltmp286:
	#DEBUG_VALUE: copyBetweenFrames:currYBlockNum <- [DW_OP_constu 16, DW_OP_minus, DW_OP_deref] $rsp
	imulq	%r11, %rax
	leaq	(%r12,%r12), %r8
	leaq	(%r8,%rax,2), %r13
	leaq	3(%r12), %rbp
	addq	%rbx, %rbx
	leaq	4(%r12), %r8
	leaq	5(%r12), %rax
	leaq	6(%r12), %r10
	leaq	7(%r12), %r14
.Ltmp287:
	.p2align	4, 0x90
.LBB2_1:                                # %for.cond7.preheader.i
                                        # =>This Inner Loop Header: Depth=1
	#DEBUG_VALUE: concealByCopy:recfr <- $rdi
	#DEBUG_VALUE: concealByCopy:currMBNum <- [DW_OP_LLVM_entry_value 1] $esi
	#DEBUG_VALUE: concealByCopy:object_list <- [DW_OP_LLVM_entry_value 1] $rdx
	#DEBUG_VALUE: concealByCopy:picSizeX <- [DW_OP_constu 28, DW_OP_minus] [$rsp+0]
	#DEBUG_VALUE: copyBetweenFrames:recfr <- $rdi
	#DEBUG_VALUE: copyBetweenFrames:picSizeX <- [DW_OP_constu 28, DW_OP_minus, DW_OP_deref] $rsp
	#DEBUG_VALUE: copyBetweenFrames:regionSize <- 16
	#DEBUG_VALUE: copyBetweenFrames:dec_picture <- $rsi
	#DEBUG_VALUE: copyBetweenFrames:refPic <- $r9
	#DEBUG_VALUE: copyBetweenFrames:xmin <- [DW_OP_constu 24, DW_OP_minus, DW_OP_deref] $rsp
	#DEBUG_VALUE: copyBetweenFrames:ymin <- [DW_OP_constu 36, DW_OP_minus, DW_OP_deref] $rsp
	#DEBUG_VALUE: copyBetweenFrames:location <- [DW_OP_LLVM_arg 0, DW_OP_LLVM_arg 0, DW_OP_LLVM_arg 0, DW_OP_mul, DW_OP_plus, DW_OP_stack_value] undef
	#DEBUG_VALUE: copyBetweenFrames:j <- $r11
	#DEBUG_VALUE: copyBetweenFrames:k <- $r12
	.loc	0 286 39 is_stmt 1              # ldecod_src/erc_do_p.c:286:39
	movq	128(%r9), %rdx
	.loc	0 286 31 is_stmt 0              # ldecod_src/erc_do_p.c:286:31
	movq	(%rdx,%r11,8), %rdx
	movzwl	(%rdx,%r12,2), %edx
	.loc	0 286 14                        # ldecod_src/erc_do_p.c:286:14
	movq	8(%rdi), %r15
	.loc	0 286 29                        # ldecod_src/erc_do_p.c:286:29
	movw	%dx, (%r15,%r13)
	#DEBUG_VALUE: copyBetweenFrames:location <- [DW_OP_LLVM_arg 0, DW_OP_LLVM_arg 0, DW_OP_LLVM_arg 0, DW_OP_mul, DW_OP_plus, DW_OP_stack_value] undef
.Ltmp288:
	#DEBUG_VALUE: copyBetweenFrames:k <- [DW_OP_constu 16, DW_OP_minus, DW_OP_deref_size 8, DW_OP_stack_value] $rsp
	.loc	0 286 39                        # ldecod_src/erc_do_p.c:286:39
	movq	128(%r9), %rdx
	.loc	0 286 31                        # ldecod_src/erc_do_p.c:286:31
	movq	(%rdx,%r11,8), %rdx
	movq	-16(%rsp), %r15                 # 8-byte Reload
	movzwl	(%rdx,%r15,2), %edx
	.loc	0 286 14                        # ldecod_src/erc_do_p.c:286:14
	movq	8(%rdi), %r15
	.loc	0 286 29                        # ldecod_src/erc_do_p.c:286:29
	movw	%dx, 2(%r15,%r13)
	#DEBUG_VALUE: copyBetweenFrames:location <- [DW_OP_LLVM_arg 0, DW_OP_LLVM_arg 0, DW_OP_LLVM_arg 0, DW_OP_mul, DW_OP_plus, DW_OP_stack_value] undef
.Ltmp289:
	#DEBUG_VALUE: copyBetweenFrames:k <- $rcx
	.loc	0 286 39                        # ldecod_src/erc_do_p.c:286:39
	movq	128(%r9), %rdx
	.loc	0 286 31                        # ldecod_src/erc_do_p.c:286:31
	movq	(%rdx,%r11,8), %rdx
	movzwl	(%rdx,%rcx,2), %edx
	.loc	0 286 14                        # ldecod_src/erc_do_p.c:286:14
	movq	8(%rdi), %r15
	.loc	0 286 29                        # ldecod_src/erc_do_p.c:286:29
	movw	%dx, 4(%r15,%r13)
	#DEBUG_VALUE: copyBetweenFrames:location <- [DW_OP_LLVM_arg 0, DW_OP_LLVM_arg 0, DW_OP_LLVM_arg 0, DW_OP_mul, DW_OP_plus, DW_OP_stack_value] undef
.Ltmp290:
	#DEBUG_VALUE: copyBetweenFrames:k <- $rbp
	.loc	0 286 39                        # ldecod_src/erc_do_p.c:286:39
	movq	128(%r9), %rdx
	.loc	0 286 31                        # ldecod_src/erc_do_p.c:286:31
	movq	(%rdx,%r11,8), %rdx
	movzwl	(%rdx,%rbp,2), %edx
	.loc	0 286 14                        # ldecod_src/erc_do_p.c:286:14
	movq	8(%rdi), %r15
	.loc	0 286 29                        # ldecod_src/erc_do_p.c:286:29
	movw	%dx, 6(%r15,%r13)
	#DEBUG_VALUE: copyBetweenFrames:location <- [DW_OP_LLVM_arg 0, DW_OP_LLVM_arg 0, DW_OP_LLVM_arg 0, DW_OP_mul, DW_OP_plus, DW_OP_stack_value] undef
.Ltmp291:
	#DEBUG_VALUE: copyBetweenFrames:k <- $r8
	.loc	0 286 39                        # ldecod_src/erc_do_p.c:286:39
	movq	128(%r9), %rdx
	.loc	0 286 31                        # ldecod_src/erc_do_p.c:286:31
	movq	(%rdx,%r11,8), %rdx
	movzwl	(%rdx,%r8,2), %edx
	.loc	0 286 14                        # ldecod_src/erc_do_p.c:286:14
	movq	8(%rdi), %r15
	.loc	0 286 29                        # ldecod_src/erc_do_p.c:286:29
	movw	%dx, 8(%r15,%r13)
	#DEBUG_VALUE: copyBetweenFrames:location <- [DW_OP_LLVM_arg 0, DW_OP_LLVM_arg 0, DW_OP_LLVM_arg 0, DW_OP_mul, DW_OP_plus, DW_OP_stack_value] undef
.Ltmp292:
	#DEBUG_VALUE: copyBetweenFrames:k <- $rax
	.loc	0 286 39                        # ldecod_src/erc_do_p.c:286:39
	movq	128(%r9), %rdx
	.loc	0 286 31                        # ldecod_src/erc_do_p.c:286:31
	movq	(%rdx,%r11,8), %rdx
	movzwl	(%rdx,%rax,2), %edx
	.loc	0 286 14                        # ldecod_src/erc_do_p.c:286:14
	movq	8(%rdi), %r15
	.loc	0 286 29                        # ldecod_src/erc_do_p.c:286:29
	movw	%dx, 10(%r15,%r13)
	#DEBUG_VALUE: copyBetweenFrames:location <- [DW_OP_LLVM_arg 0, DW_OP_LLVM_arg 0, DW_OP_LLVM_arg 0, DW_OP_mul, DW_OP_plus, DW_OP_stack_value] undef
.Ltmp293:
	#DEBUG_VALUE: copyBetweenFrames:k <- $r10
	.loc	0 286 39                        # ldecod_src/erc_do_p.c:286:39
	movq	128(%r9), %rdx
	.loc	0 286 31                        # ldecod_src/erc_do_p.c:286:31
	movq	(%rdx,%r11,8), %rdx
	movzwl	(%rdx,%r10,2), %edx
	.loc	0 286 14                        # ldecod_src/erc_do_p.c:286:14
	movq	8(%rdi), %r15
	.loc	0 286 29                        # ldecod_src/erc_do_p.c:286:29
	movw	%dx, 12(%r15,%r13)
	#DEBUG_VALUE: copyBetweenFrames:location <- [DW_OP_LLVM_arg 0, DW_OP_LLVM_arg 0, DW_OP_LLVM_arg 0, DW_OP_mul, DW_OP_plus, DW_OP_stack_value] undef
.Ltmp294:
	#DEBUG_VALUE: copyBetweenFrames:k <- $r14
	.loc	0 286 39                        # ldecod_src/erc_do_p.c:286:39
	movq	128(%r9), %rdx
	.loc	0 286 31                        # ldecod_src/erc_do_p.c:286:31
	movq	(%rdx,%r11,8), %rdx
	movzwl	(%rdx,%r14,2), %edx
	.loc	0 286 14                        # ldecod_src/erc_do_p.c:286:14
	movq	8(%rdi), %r15
	.loc	0 286 29                        # ldecod_src/erc_do_p.c:286:29
	movw	%dx, 14(%r15,%r13)
.Ltmp295:
	#DEBUG_VALUE: copyBetweenFrames:location <- [DW_OP_LLVM_arg 0, DW_OP_plus_uconst 8, DW_OP_LLVM_arg 0, DW_OP_LLVM_arg 0, DW_OP_mul, DW_OP_plus, DW_OP_stack_value] undef
	#DEBUG_VALUE: copyBetweenFrames:k <- [DW_OP_plus_uconst 8, DW_OP_stack_value] $r12
	.loc	0 286 39                        # ldecod_src/erc_do_p.c:286:39
	movq	128(%r9), %rdx
	.loc	0 286 31                        # ldecod_src/erc_do_p.c:286:31
	movq	(%rdx,%r11,8), %rdx
	movzwl	16(%rdx,%r12,2), %edx
	.loc	0 286 14                        # ldecod_src/erc_do_p.c:286:14
	movq	8(%rdi), %r15
	.loc	0 286 29                        # ldecod_src/erc_do_p.c:286:29
	movw	%dx, 16(%r15,%r13)
.Ltmp296:
	#DEBUG_VALUE: copyBetweenFrames:location <- [DW_OP_LLVM_arg 0, DW_OP_plus_uconst 9, DW_OP_LLVM_arg 0, DW_OP_LLVM_arg 0, DW_OP_mul, DW_OP_plus, DW_OP_stack_value] undef
	#DEBUG_VALUE: copyBetweenFrames:k <- [DW_OP_plus_uconst 9, DW_OP_stack_value] $r12
	.loc	0 286 39                        # ldecod_src/erc_do_p.c:286:39
	movq	128(%r9), %rdx
	.loc	0 286 31                        # ldecod_src/erc_do_p.c:286:31
	movq	(%rdx,%r11,8), %rdx
	movzwl	18(%rdx,%r12,2), %edx
	.loc	0 286 14                        # ldecod_src/erc_do_p.c:286:14
	movq	8(%rdi), %r15
	.loc	0 286 29                        # ldecod_src/erc_do_p.c:286:29
	movw	%dx, 18(%r15,%r13)
.Ltmp297:
	#DEBUG_VALUE: copyBetweenFrames:location <- [DW_OP_LLVM_arg 0, DW_OP_plus_uconst 10, DW_OP_LLVM_arg 0, DW_OP_LLVM_arg 0, DW_OP_mul, DW_OP_plus, DW_OP_stack_value] undef
	#DEBUG_VALUE: copyBetweenFrames:k <- [DW_OP_plus_uconst 10, DW_OP_stack_value] $r12
	.loc	0 286 39                        # ldecod_src/erc_do_p.c:286:39
	movq	128(%r9), %rdx
	.loc	0 286 31                        # ldecod_src/erc_do_p.c:286:31
	movq	(%rdx,%r11,8), %rdx
	movzwl	20(%rdx,%r12,2), %edx
	.loc	0 286 14                        # ldecod_src/erc_do_p.c:286:14
	movq	8(%rdi), %r15
	.loc	0 286 29                        # ldecod_src/erc_do_p.c:286:29
	movw	%dx, 20(%r15,%r13)
.Ltmp298:
	#DEBUG_VALUE: copyBetweenFrames:location <- [DW_OP_LLVM_arg 0, DW_OP_plus_uconst 11, DW_OP_LLVM_arg 0, DW_OP_LLVM_arg 0, DW_OP_mul, DW_OP_plus, DW_OP_stack_value] undef
	#DEBUG_VALUE: copyBetweenFrames:k <- [DW_OP_plus_uconst 11, DW_OP_stack_value] $r12
	.loc	0 286 39                        # ldecod_src/erc_do_p.c:286:39
	movq	128(%r9), %rdx
	.loc	0 286 31                        # ldecod_src/erc_do_p.c:286:31
	movq	(%rdx,%r11,8), %rdx
	movzwl	22(%rdx,%r12,2), %edx
	.loc	0 286 14                        # ldecod_src/erc_do_p.c:286:14
	movq	8(%rdi), %r15
	.loc	0 286 29                        # ldecod_src/erc_do_p.c:286:29
	movw	%dx, 22(%r15,%r13)
.Ltmp299:
	#DEBUG_VALUE: copyBetweenFrames:location <- [DW_OP_LLVM_arg 0, DW_OP_plus_uconst 12, DW_OP_LLVM_arg 0, DW_OP_LLVM_arg 0, DW_OP_mul, DW_OP_plus, DW_OP_stack_value] undef
	#DEBUG_VALUE: copyBetweenFrames:k <- [DW_OP_plus_uconst 12, DW_OP_stack_value] $r12
	.loc	0 286 39                        # ldecod_src/erc_do_p.c:286:39
	movq	128(%r9), %rdx
	.loc	0 286 31                        # ldecod_src/erc_do_p.c:286:31
	movq	(%rdx,%r11,8), %rdx
	movzwl	24(%rdx,%r12,2), %edx
	.loc	0 286 14                        # ldecod_src/erc_do_p.c:286:14
	movq	8(%rdi), %r15
	.loc	0 286 29                        # ldecod_src/erc_do_p.c:286:29
	movw	%dx, 24(%r15,%r13)
.Ltmp300:
	#DEBUG_VALUE: copyBetweenFrames:location <- [DW_OP_LLVM_arg 0, DW_OP_plus_uconst 13, DW_OP_LLVM_arg 0, DW_OP_LLVM_arg 0, DW_OP_mul, DW_OP_plus, DW_OP_stack_value] undef
	#DEBUG_VALUE: copyBetweenFrames:k <- [DW_OP_plus_uconst 13, DW_OP_stack_value] $r12
	.loc	0 286 39                        # ldecod_src/erc_do_p.c:286:39
	movq	128(%r9), %rdx
	.loc	0 286 31                        # ldecod_src/erc_do_p.c:286:31
	movq	(%rdx,%r11,8), %rdx
	movzwl	26(%rdx,%r12,2), %edx
	.loc	0 286 14                        # ldecod_src/erc_do_p.c:286:14
	movq	8(%rdi), %r15
	.loc	0 286 29                        # ldecod_src/erc_do_p.c:286:29
	movw	%dx, 26(%r15,%r13)
.Ltmp301:
	#DEBUG_VALUE: copyBetweenFrames:location <- [DW_OP_LLVM_arg 0, DW_OP_plus_uconst 14, DW_OP_LLVM_arg 0, DW_OP_LLVM_arg 0, DW_OP_mul, DW_OP_plus, DW_OP_stack_value] undef
	#DEBUG_VALUE: copyBetweenFrames:k <- [DW_OP_plus_uconst 14, DW_OP_stack_value] $r12
	.loc	0 286 39                        # ldecod_src/erc_do_p.c:286:39
	movq	128(%r9), %rdx
	.loc	0 286 31                        # ldecod_src/erc_do_p.c:286:31
	movq	(%rdx,%r11,8), %rdx
	movzwl	28(%rdx,%r12,2), %edx
	.loc	0 286 14                        # ldecod_src/erc_do_p.c:286:14
	movq	8(%rdi), %r15
	.loc	0 286 29                        # ldecod_src/erc_do_p.c:286:29
	movw	%dx, 28(%r15,%r13)
.Ltmp302:
	#DEBUG_VALUE: copyBetweenFrames:location <- [DW_OP_LLVM_arg 0, DW_OP_plus_uconst 15, DW_OP_LLVM_arg 0, DW_OP_LLVM_arg 0, DW_OP_mul, DW_OP_plus, DW_OP_stack_value] undef
	#DEBUG_VALUE: copyBetweenFrames:k <- [DW_OP_plus_uconst 15, DW_OP_stack_value] $r12
	.loc	0 286 39                        # ldecod_src/erc_do_p.c:286:39
	movq	128(%r9), %rdx
	.loc	0 286 31                        # ldecod_src/erc_do_p.c:286:31
	movq	(%rdx,%r11,8), %rdx
	movzwl	30(%rdx,%r12,2), %edx
	.loc	0 286 14                        # ldecod_src/erc_do_p.c:286:14
	movq	8(%rdi), %r15
	.loc	0 286 29                        # ldecod_src/erc_do_p.c:286:29
	movw	%dx, 30(%r15,%r13)
.Ltmp303:
	#DEBUG_VALUE: copyBetweenFrames:k <- [DW_OP_plus_uconst 16, DW_OP_stack_value] $r12
	.loc	0 281 42 is_stmt 1              # ldecod_src/erc_do_p.c:281:42
	incq	%r11
.Ltmp304:
	#DEBUG_VALUE: copyBetweenFrames:j <- $r11
	.loc	0 281 20 is_stmt 0              # ldecod_src/erc_do_p.c:281:20
	addq	%rbx, %r13
	cmpq	-8(%rsp), %r11                  # 8-byte Folded Reload
.Ltmp305:
	.loc	0 281 3                         # ldecod_src/erc_do_p.c:281:3
	jl	.LBB2_1
.Ltmp306:
# %bb.2:                                # %for.end19.i
	#DEBUG_VALUE: concealByCopy:recfr <- $rdi
	#DEBUG_VALUE: concealByCopy:currMBNum <- [DW_OP_LLVM_entry_value 1] $esi
	#DEBUG_VALUE: concealByCopy:object_list <- [DW_OP_LLVM_entry_value 1] $rdx
	#DEBUG_VALUE: concealByCopy:picSizeX <- [DW_OP_constu 28, DW_OP_minus] [$rsp+0]
	#DEBUG_VALUE: copyBetweenFrames:recfr <- $rdi
	#DEBUG_VALUE: copyBetweenFrames:picSizeX <- [DW_OP_constu 28, DW_OP_minus, DW_OP_deref] $rsp
	#DEBUG_VALUE: copyBetweenFrames:regionSize <- 16
	#DEBUG_VALUE: copyBetweenFrames:dec_picture <- $rsi
	#DEBUG_VALUE: copyBetweenFrames:refPic <- $r9
	#DEBUG_VALUE: copyBetweenFrames:xmin <- [DW_OP_constu 24, DW_OP_minus, DW_OP_deref] $rsp
	#DEBUG_VALUE: copyBetweenFrames:ymin <- [DW_OP_constu 36, DW_OP_minus, DW_OP_deref] $rsp
	#DEBUG_VALUE: copyBetweenFrames:j <- $r11
	#DEBUG_VALUE: copyBetweenFrames:k <- [DW_OP_plus_uconst 16, DW_OP_stack_value] $r12
	.loc	0 289 45 is_stmt 1              # ldecod_src/erc_do_p.c:289:45
	movl	268(%rsi), %r8d
	.loc	0 289 22 is_stmt 0              # ldecod_src/erc_do_p.c:289:22
	movslq	%r8d, %r10
	movzbl	uv_div+16(,%r10,4), %ecx
	movl	-36(%rsp), %edx                 # 4-byte Reload
	.loc	0 289 19                        # ldecod_src/erc_do_p.c:289:19
	sarl	%cl, %edx
.Ltmp307:
	#DEBUG_VALUE: copyBetweenFrames:j <- $edx
	.loc	0 0 19                          # ldecod_src/erc_do_p.c:0:19
	movl	-32(%rsp), %r13d                # 4-byte Reload
.Ltmp308:
	.loc	0 289 89                        # ldecod_src/erc_do_p.c:289:89
	movl	%r13d, %eax
	sarl	%cl, %eax
	.loc	0 289 67                        # ldecod_src/erc_do_p.c:289:67
	cmpl	%eax, %edx
	movl	-28(%rsp), %r15d                # 4-byte Reload
	movq	-24(%rsp), %r12                 # 8-byte Reload
.Ltmp309:
	.loc	0 289 5                         # ldecod_src/erc_do_p.c:289:5
	jge	.LBB2_8
.Ltmp310:
# %bb.3:                                # %for.body30.lr.ph.i
	#DEBUG_VALUE: concealByCopy:recfr <- $rdi
	#DEBUG_VALUE: concealByCopy:currMBNum <- [DW_OP_LLVM_entry_value 1] $esi
	#DEBUG_VALUE: concealByCopy:object_list <- [DW_OP_LLVM_entry_value 1] $rdx
	#DEBUG_VALUE: concealByCopy:picSizeX <- [DW_OP_constu 28, DW_OP_minus] [$rsp+0]
	#DEBUG_VALUE: copyBetweenFrames:recfr <- $rdi
	#DEBUG_VALUE: copyBetweenFrames:picSizeX <- [DW_OP_constu 28, DW_OP_minus, DW_OP_deref] $rsp
	#DEBUG_VALUE: copyBetweenFrames:regionSize <- 16
	#DEBUG_VALUE: copyBetweenFrames:dec_picture <- $rsi
	#DEBUG_VALUE: copyBetweenFrames:refPic <- $r9
	#DEBUG_VALUE: copyBetweenFrames:xmin <- [DW_OP_constu 24, DW_OP_minus, DW_OP_deref] $rsp
	#DEBUG_VALUE: copyBetweenFrames:ymin <- [DW_OP_constu 36, DW_OP_minus, DW_OP_deref] $rsp
	#DEBUG_VALUE: copyBetweenFrames:j <- $edx
	.loc	0 0 5                           # ldecod_src/erc_do_p.c:0:5
	leal	16(%r12), %eax
	.loc	0 289 5                         # ldecod_src/erc_do_p.c:289:5
	movslq	%edx, %rdx
.Ltmp311:
	.loc	0 0 5                           # ldecod_src/erc_do_p.c:0:5
	jmp	.LBB2_4
.Ltmp312:
	.p2align	4, 0x90
.LBB2_7:                                # %for.inc67.i
                                        #   in Loop: Header=BB2_4 Depth=1
	#DEBUG_VALUE: concealByCopy:recfr <- $rdi
	#DEBUG_VALUE: concealByCopy:currMBNum <- [DW_OP_LLVM_entry_value 1] $esi
	#DEBUG_VALUE: concealByCopy:object_list <- [DW_OP_LLVM_entry_value 1] $rdx
	#DEBUG_VALUE: concealByCopy:picSizeX <- [DW_OP_constu 28, DW_OP_minus] [$rsp+0]
	#DEBUG_VALUE: copyBetweenFrames:recfr <- $rdi
	#DEBUG_VALUE: copyBetweenFrames:picSizeX <- [DW_OP_constu 28, DW_OP_minus, DW_OP_deref] $rsp
	#DEBUG_VALUE: copyBetweenFrames:regionSize <- 16
	#DEBUG_VALUE: copyBetweenFrames:dec_picture <- $rsi
	#DEBUG_VALUE: copyBetweenFrames:refPic <- $r9
	#DEBUG_VALUE: copyBetweenFrames:xmin <- [DW_OP_constu 24, DW_OP_minus, DW_OP_deref] $rsp
	#DEBUG_VALUE: copyBetweenFrames:ymin <- [DW_OP_constu 36, DW_OP_minus, DW_OP_deref] $rsp
	#DEBUG_VALUE: copyBetweenFrames:j <- $rdx
	#DEBUG_VALUE: copyBetweenFrames:j <- undef
	.loc	0 289 92                        # ldecod_src/erc_do_p.c:289:92
	movzbl	uv_div+16(,%r10,4), %ecx
	.loc	0 289 89                        # ldecod_src/erc_do_p.c:289:89
	movl	%r13d, %r11d
	sarl	%cl, %r11d
	.loc	0 289 136                       # ldecod_src/erc_do_p.c:289:136
	incq	%rdx
.Ltmp313:
	#DEBUG_VALUE: copyBetweenFrames:j <- $rdx
	.loc	0 289 67                        # ldecod_src/erc_do_p.c:289:67
	movslq	%r11d, %rcx
	cmpq	%rcx, %rdx
.Ltmp314:
	.loc	0 289 5                         # ldecod_src/erc_do_p.c:289:5
	jge	.LBB2_8
.Ltmp315:
.LBB2_4:                                # %for.body30.i
                                        # =>This Loop Header: Depth=1
                                        #     Child Loop BB2_6 Depth 2
	#DEBUG_VALUE: concealByCopy:recfr <- $rdi
	#DEBUG_VALUE: concealByCopy:currMBNum <- [DW_OP_LLVM_entry_value 1] $esi
	#DEBUG_VALUE: concealByCopy:object_list <- [DW_OP_LLVM_entry_value 1] $rdx
	#DEBUG_VALUE: concealByCopy:picSizeX <- [DW_OP_constu 28, DW_OP_minus] [$rsp+0]
	#DEBUG_VALUE: copyBetweenFrames:recfr <- $rdi
	#DEBUG_VALUE: copyBetweenFrames:picSizeX <- [DW_OP_constu 28, DW_OP_minus, DW_OP_deref] $rsp
	#DEBUG_VALUE: copyBetweenFrames:regionSize <- 16
	#DEBUG_VALUE: copyBetweenFrames:dec_picture <- $rsi
	#DEBUG_VALUE: copyBetweenFrames:refPic <- $r9
	#DEBUG_VALUE: copyBetweenFrames:xmin <- [DW_OP_constu 24, DW_OP_minus, DW_OP_deref] $rsp
	#DEBUG_VALUE: copyBetweenFrames:ymin <- [DW_OP_constu 36, DW_OP_minus, DW_OP_deref] $rsp
	#DEBUG_VALUE: copyBetweenFrames:j <- $rdx
	.loc	0 290 24 is_stmt 1              # ldecod_src/erc_do_p.c:290:24
	movzbl	uv_div(,%r10,4), %ecx
	.loc	0 290 21 is_stmt 0              # ldecod_src/erc_do_p.c:290:21
	movl	%r12d, %r11d
	sarl	%cl, %r11d
.Ltmp316:
	#DEBUG_VALUE: copyBetweenFrames:k <- $r11d
	.loc	0 290 94                        # ldecod_src/erc_do_p.c:290:94
	movslq	%r8d, %r10
	movl	uv_div(,%r10,4), %ecx
	.loc	0 290 91                        # ldecod_src/erc_do_p.c:290:91
	movl	%eax, %ebx
	sarl	%cl, %ebx
	.loc	0 290 69                        # ldecod_src/erc_do_p.c:290:69
	cmpl	%ebx, %r11d
.Ltmp317:
	.loc	0 290 7                         # ldecod_src/erc_do_p.c:290:7
	jge	.LBB2_7
.Ltmp318:
# %bb.5:                                # %for.body42.lr.ph.i
                                        #   in Loop: Header=BB2_4 Depth=1
	#DEBUG_VALUE: concealByCopy:recfr <- $rdi
	#DEBUG_VALUE: concealByCopy:currMBNum <- [DW_OP_LLVM_entry_value 1] $esi
	#DEBUG_VALUE: concealByCopy:object_list <- [DW_OP_LLVM_entry_value 1] $rdx
	#DEBUG_VALUE: concealByCopy:picSizeX <- [DW_OP_constu 28, DW_OP_minus] [$rsp+0]
	#DEBUG_VALUE: copyBetweenFrames:recfr <- $rdi
	#DEBUG_VALUE: copyBetweenFrames:picSizeX <- [DW_OP_constu 28, DW_OP_minus, DW_OP_deref] $rsp
	#DEBUG_VALUE: copyBetweenFrames:regionSize <- 16
	#DEBUG_VALUE: copyBetweenFrames:dec_picture <- $rsi
	#DEBUG_VALUE: copyBetweenFrames:refPic <- $r9
	#DEBUG_VALUE: copyBetweenFrames:xmin <- [DW_OP_constu 24, DW_OP_minus, DW_OP_deref] $rsp
	#DEBUG_VALUE: copyBetweenFrames:ymin <- [DW_OP_constu 36, DW_OP_minus, DW_OP_deref] $rsp
	#DEBUG_VALUE: copyBetweenFrames:j <- $rdx
	#DEBUG_VALUE: copyBetweenFrames:k <- $r11d
	movslq	%r11d, %r11
.Ltmp319:
	.loc	0 0 7                           # ldecod_src/erc_do_p.c:0:7
	movl	%edx, %ebx
	imull	%r15d, %ebx
.Ltmp320:
	.p2align	4, 0x90
.LBB2_6:                                # %for.body42.i
                                        #   Parent Loop BB2_4 Depth=1
                                        # =>  This Inner Loop Header: Depth=2
	#DEBUG_VALUE: concealByCopy:recfr <- $rdi
	#DEBUG_VALUE: concealByCopy:currMBNum <- [DW_OP_LLVM_entry_value 1] $esi
	#DEBUG_VALUE: concealByCopy:object_list <- [DW_OP_LLVM_entry_value 1] $rdx
	#DEBUG_VALUE: concealByCopy:picSizeX <- [DW_OP_constu 28, DW_OP_minus] [$rsp+0]
	#DEBUG_VALUE: copyBetweenFrames:recfr <- $rdi
	#DEBUG_VALUE: copyBetweenFrames:picSizeX <- [DW_OP_constu 28, DW_OP_minus, DW_OP_deref] $rsp
	#DEBUG_VALUE: copyBetweenFrames:regionSize <- 16
	#DEBUG_VALUE: copyBetweenFrames:dec_picture <- $rsi
	#DEBUG_VALUE: copyBetweenFrames:refPic <- $r9
	#DEBUG_VALUE: copyBetweenFrames:xmin <- [DW_OP_constu 24, DW_OP_minus, DW_OP_deref] $rsp
	#DEBUG_VALUE: copyBetweenFrames:ymin <- [DW_OP_constu 36, DW_OP_minus, DW_OP_deref] $rsp
	#DEBUG_VALUE: copyBetweenFrames:j <- $rdx
	#DEBUG_VALUE: copyBetweenFrames:k <- $r11
	.loc	0 293 36 is_stmt 1              # ldecod_src/erc_do_p.c:293:36
	movl	%ebx, %r8d
                                        # kill: def $cl killed $cl killed $ecx
	sarl	%cl, %r8d
.Ltmp321:
	#DEBUG_VALUE: copyBetweenFrames:location <- [DW_OP_LLVM_arg 0, DW_OP_LLVM_arg 1, DW_OP_LLVM_convert 64 7, DW_OP_LLVM_convert 32 7, DW_OP_plus, DW_OP_stack_value] $r8d, $r11
	.loc	0 293 82 is_stmt 0              # ldecod_src/erc_do_p.c:293:82
	movslq	%r8d, %rcx
	.loc	0 297 41 is_stmt 1              # ldecod_src/erc_do_p.c:297:41
	addq	%r11, %rcx
	movq	136(%r9), %r8
.Ltmp322:
	.loc	0 297 33 is_stmt 0              # ldecod_src/erc_do_p.c:297:33
	movq	(%r8), %r8
	movq	(%r8,%rdx,8), %r8
	movzwl	(%r8,%r11,2), %r8d
	.loc	0 297 16                        # ldecod_src/erc_do_p.c:297:16
	movq	16(%rdi), %r10
	.loc	0 297 31                        # ldecod_src/erc_do_p.c:297:31
	movw	%r8w, (%r10,%rcx,2)
	.loc	0 298 41 is_stmt 1              # ldecod_src/erc_do_p.c:298:41
	movq	136(%r9), %r8
	.loc	0 298 33 is_stmt 0              # ldecod_src/erc_do_p.c:298:33
	movq	8(%r8), %r8
	movq	(%r8,%rdx,8), %r8
	movzwl	(%r8,%r11,2), %r8d
	.loc	0 298 16                        # ldecod_src/erc_do_p.c:298:16
	movq	24(%rdi), %r10
	.loc	0 298 31                        # ldecod_src/erc_do_p.c:298:31
	movw	%r8w, (%r10,%rcx,2)
.Ltmp323:
	#DEBUG_VALUE: copyBetweenFrames:k <- undef
	.loc	0 290 117 is_stmt 1             # ldecod_src/erc_do_p.c:290:117
	movl	268(%rsi), %r8d
	.loc	0 290 94 is_stmt 0              # ldecod_src/erc_do_p.c:290:94
	movslq	%r8d, %r10
	movl	uv_div(,%r10,4), %ecx
	.loc	0 290 91                        # ldecod_src/erc_do_p.c:290:91
	movl	%eax, %ebp
	sarl	%cl, %ebp
	.loc	0 290 138                       # ldecod_src/erc_do_p.c:290:138
	incq	%r11
.Ltmp324:
	#DEBUG_VALUE: copyBetweenFrames:k <- $r11
	.loc	0 290 69                        # ldecod_src/erc_do_p.c:290:69
	movslq	%ebp, %r14
	cmpq	%r14, %r11
.Ltmp325:
	.loc	0 290 7                         # ldecod_src/erc_do_p.c:290:7
	jl	.LBB2_6
	jmp	.LBB2_7
.Ltmp326:
.LBB2_8:                                # %copyBetweenFrames.exit
	#DEBUG_VALUE: concealByCopy:recfr <- $rdi
	#DEBUG_VALUE: concealByCopy:currMBNum <- [DW_OP_LLVM_entry_value 1] $esi
	#DEBUG_VALUE: concealByCopy:object_list <- [DW_OP_LLVM_entry_value 1] $rdx
	#DEBUG_VALUE: concealByCopy:picSizeX <- [DW_OP_constu 28, DW_OP_minus] [$rsp+0]
	.loc	0 252 3 epilogue_begin is_stmt 1 # ldecod_src/erc_do_p.c:252:3
	popq	%rbx
	.cfi_def_cfa_offset 48
	popq	%r12
	.cfi_def_cfa_offset 40
	popq	%r13
	.cfi_def_cfa_offset 32
	popq	%r14
	.cfi_def_cfa_offset 24
	popq	%r15
	.cfi_def_cfa_offset 16
	popq	%rbp
	.cfi_def_cfa_offset 8
	retq
.Ltmp327:
.Lfunc_end2:
	.size	concealByCopy, .Lfunc_end2-concealByCopy
	.cfi_endproc
	.file	14 "ldecod_src/inc" "parsetcommon.h" md5 0xd59d7e00f3aec3a23ed88314ae35b687
	.file	15 "/usr/include/x86_64-linux-gnu/bits" "types.h" md5 0xd108b5f93a74c50510d7d9bc0ab36df9
	.file	16 "/usr/include/x86_64-linux-gnu/bits" "stdint-intn.h" md5 0x55bcbdc3159515ebd91d351a70d505f4
	.file	17 "ldecod_src/inc" "win32.h" md5 0x100def0ffeee72ecdc377183538a04bb
	.file	18 "ldecod_src/inc" "io_image.h" md5 0x8caef624e6f5391b0c6ab2984e7f77c6
	.file	19 "ldecod_src/inc" "erc_globals.h" md5 0xc27fab662deb7c381592b003d3b76fc7
                                        # -- End function
	.section	.rodata.cst16,"aM",@progbits,16
	.p2align	4, 0x0                          # -- Begin function conceal_lost_frames
.LCPI3_0:
	.zero	16
	.text
	.globl	conceal_lost_frames
	.p2align	4, 0x90
	.type	conceal_lost_frames,@function
conceal_lost_frames:                    # @conceal_lost_frames
.Lfunc_begin3:
	.loc	0 1291 0                        # ldecod_src/erc_do_p.c:1291:0
	.cfi_startproc
# %bb.0:                                # %entry
	#DEBUG_VALUE: conceal_lost_frames:p_Dpb <- $rdi
	#DEBUG_VALUE: conceal_lost_frames:pSlice <- $rsi
	pushq	%rbp
	.cfi_def_cfa_offset 16
	pushq	%r15
	.cfi_def_cfa_offset 24
	pushq	%r14
	.cfi_def_cfa_offset 32
	pushq	%r13
	.cfi_def_cfa_offset 40
	pushq	%r12
	.cfi_def_cfa_offset 48
	pushq	%rbx
	.cfi_def_cfa_offset 56
	subq	$56, %rsp
	.cfi_def_cfa_offset 112
	.cfi_offset %rbx, -56
	.cfi_offset %r12, -48
	.cfi_offset %r13, -40
	.cfi_offset %r14, -32
	.cfi_offset %r15, -24
	.cfi_offset %rbp, -16
	movq	%rsi, %r14
	movq	%rdi, %rbx
.Ltmp328:
	.loc	0 1292 35 prologue_end          # ldecod_src/erc_do_p.c:1292:35
	movq	(%rdi), %r15
.Ltmp329:
	#DEBUG_VALUE: conceal_lost_frames:p_Vid <- $r15
	#DEBUG_VALUE: conceal_lost_frames:picture <- 0
	.loc	0 1296 14                       # ldecod_src/erc_do_p.c:1296:14
	movq	88(%rsi), %xmm0                 # xmm0 = mem[0],zero
	.loc	0 1300 34                       # ldecod_src/erc_do_p.c:1300:34
	movq	$0, 88(%rsi)
.Ltmp330:
	.loc	0 1304 34                       # ldecod_src/erc_do_p.c:1304:34
	cmpl	$1, 849252(%r15)
	movdqa	%xmm0, 32(%rsp)                 # 16-byte Spill
.Ltmp331:
	.loc	0 1304 6 is_stmt 0              # ldecod_src/erc_do_p.c:1304:6
	jne	.LBB3_2
.Ltmp332:
# %bb.1:                                # %if.then
	#DEBUG_VALUE: conceal_lost_frames:p_Dpb <- $rbx
	#DEBUG_VALUE: conceal_lost_frames:pSlice <- $r14
	#DEBUG_VALUE: conceal_lost_frames:p_Vid <- $r15
	#DEBUG_VALUE: conceal_lost_frames:picture <- 0
	#DEBUG_VALUE: conceal_lost_frames:UnusedShortTermFrameNum <- 0
	.loc	0 0 6                           # ldecod_src/erc_do_p.c:0:6
	xorl	%ebp, %ebp
.Ltmp333:
	.loc	0 1309 31 is_stmt 1             # ldecod_src/erc_do_p.c:1309:31
	xorl	%eax, %eax
	subl	849236(%r15), %eax
	.loc	0 1309 29 is_stmt 0             # ldecod_src/erc_do_p.c:1309:29
	movl	%eax, 849228(%r15)
	.loc	0 1310 32 is_stmt 1             # ldecod_src/erc_do_p.c:1310:32
	movl	$0, 849244(%r15)
.Ltmp334:
	#DEBUG_VALUE: conceal_lost_frames:UnusedShortTermFrameNum <- $ebp
	.loc	0 1315 26                       # ldecod_src/erc_do_p.c:1315:26
	movl	172(%r14), %eax
.Ltmp335:
	#DEBUG_VALUE: conceal_lost_frames:CurrFrameNum <- $eax
	.loc	0 0 26 is_stmt 0                # ldecod_src/erc_do_p.c:0:26
	movl	%eax, 12(%rsp)                  # 4-byte Spill
.Ltmp336:
	#DEBUG_VALUE: conceal_lost_frames:CurrFrameNum <- [DW_OP_plus_uconst 12, DW_OP_deref] $rsp
	.loc	0 1317 23 is_stmt 1             # ldecod_src/erc_do_p.c:1317:23
	cmpl	%ebp, %eax
	.loc	0 1317 3 is_stmt 0              # ldecod_src/erc_do_p.c:1317:3
	je	.LBB3_15
	jmp	.LBB3_4
.Ltmp337:
.LBB3_2:                                # %if.else
	#DEBUG_VALUE: conceal_lost_frames:p_Dpb <- $rbx
	#DEBUG_VALUE: conceal_lost_frames:pSlice <- $r14
	#DEBUG_VALUE: conceal_lost_frames:p_Vid <- $r15
	#DEBUG_VALUE: conceal_lost_frames:picture <- 0
	.loc	0 1313 39 is_stmt 1             # ldecod_src/erc_do_p.c:1313:39
	movl	848944(%r15), %eax
	.loc	0 1313 53 is_stmt 0             # ldecod_src/erc_do_p.c:1313:53
	incl	%eax
	.loc	0 1313 58                       # ldecod_src/erc_do_p.c:1313:58
	xorl	%edx, %edx
	divl	848992(%r15)
	movl	%edx, %ebp
.Ltmp338:
	#DEBUG_VALUE: conceal_lost_frames:UnusedShortTermFrameNum <- $ebp
	#DEBUG_VALUE: conceal_lost_frames:UnusedShortTermFrameNum <- $ebp
	.loc	0 1315 26 is_stmt 1             # ldecod_src/erc_do_p.c:1315:26
	movl	172(%r14), %eax
.Ltmp339:
	#DEBUG_VALUE: conceal_lost_frames:CurrFrameNum <- undef
	.loc	0 0 26 is_stmt 0                # ldecod_src/erc_do_p.c:0:26
	movl	%eax, 12(%rsp)                  # 4-byte Spill
	.loc	0 1317 23 is_stmt 1             # ldecod_src/erc_do_p.c:1317:23
	cmpl	%ebp, %eax
	.loc	0 1317 3 is_stmt 0              # ldecod_src/erc_do_p.c:1317:3
	jne	.LBB3_4
.Ltmp340:
.LBB3_15:                               # %while.end
	#DEBUG_VALUE: conceal_lost_frames:p_Dpb <- $rbx
	#DEBUG_VALUE: conceal_lost_frames:pSlice <- [DW_OP_LLVM_entry_value 1] $rsi
	#DEBUG_VALUE: conceal_lost_frames:p_Vid <- $r15
	#DEBUG_VALUE: conceal_lost_frames:picture <- 0
	#DEBUG_VALUE: conceal_lost_frames:UnusedShortTermFrameNum <- $ebp
	.loc	0 0 3                           # ldecod_src/erc_do_p.c:0:3
	movaps	32(%rsp), %xmm0                 # 16-byte Reload
	.loc	0 1372 34 is_stmt 1             # ldecod_src/erc_do_p.c:1372:34
	movlps	%xmm0, 88(%r14)
	movl	12(%rsp), %eax                  # 4-byte Reload
	.loc	0 1374 21                       # ldecod_src/erc_do_p.c:1374:21
	movl	%eax, 172(%r14)
	.loc	0 1375 1 epilogue_begin         # ldecod_src/erc_do_p.c:1375:1
	addq	$56, %rsp
	.cfi_def_cfa_offset 56
	popq	%rbx
.Ltmp341:
	#DEBUG_VALUE: conceal_lost_frames:p_Dpb <- [DW_OP_LLVM_entry_value 1] $rdi
	.cfi_def_cfa_offset 48
	popq	%r12
	.cfi_def_cfa_offset 40
	popq	%r13
	.cfi_def_cfa_offset 32
	popq	%r14
	.cfi_def_cfa_offset 24
	popq	%r15
.Ltmp342:
	.cfi_def_cfa_offset 16
	popq	%rbp
.Ltmp343:
	.cfi_def_cfa_offset 8
	retq
.Ltmp344:
.LBB3_4:                                # %while.body.lr.ph
	.cfi_def_cfa_offset 112
	#DEBUG_VALUE: conceal_lost_frames:p_Dpb <- $rbx
	#DEBUG_VALUE: conceal_lost_frames:pSlice <- $r14
	#DEBUG_VALUE: conceal_lost_frames:p_Vid <- $r15
	#DEBUG_VALUE: conceal_lost_frames:picture <- 0
	#DEBUG_VALUE: conceal_lost_frames:UnusedShortTermFrameNum <- $ebp
	.loc	0 0 1 is_stmt 0                 # ldecod_src/erc_do_p.c:0:1
	leaq	13340(%r14), %r13
	.loc	0 1317 3 is_stmt 1              # ldecod_src/erc_do_p.c:1317:3
	leaq	13344(%r14), %rax
	movq	%rax, 24(%rsp)                  # 8-byte Spill
	movq	%r14, 16(%rsp)                  # 8-byte Spill
.Ltmp345:
	#DEBUG_VALUE: conceal_lost_frames:pSlice <- [DW_OP_plus_uconst 16] [$rsp+0]
	.loc	0 0 3 is_stmt 0                 # ldecod_src/erc_do_p.c:0:3
	jmp	.LBB3_5
.Ltmp346:
	.p2align	4, 0x90
.LBB3_14:                               # %if.end31
                                        #   in Loop: Header=BB3_5 Depth=1
	#DEBUG_VALUE: conceal_lost_frames:p_Dpb <- $rbx
	#DEBUG_VALUE: conceal_lost_frames:pSlice <- [DW_OP_plus_uconst 16] [$rsp+0]
	#DEBUG_VALUE: conceal_lost_frames:p_Vid <- $r15
	#DEBUG_VALUE: conceal_lost_frames:picture <- $r12
	#DEBUG_VALUE: conceal_lost_frames:UnusedShortTermFrameNum <- $ebp
	.loc	0 1358 33 is_stmt 1             # ldecod_src/erc_do_p.c:1358:33
	movq	856656(%r15), %rdi
	.loc	0 1358 5 is_stmt 0              # ldecod_src/erc_do_p.c:1358:5
	movq	%r12, %rsi
	callq	store_picture_in_dpb@PLT
.Ltmp347:
	#DEBUG_VALUE: conceal_lost_frames:picture <- 0
	.loc	0 1362 26 is_stmt 1             # ldecod_src/erc_do_p.c:1362:26
	movl	%ebp, 848944(%r15)
.Ltmp348:
	#DEBUG_VALUE: conceal_lost_frames:i <- 16
	.loc	0 1368 27                       # ldecod_src/erc_do_p.c:1368:27
	movdqu	(%r13), %xmm0
	movups	16(%r13), %xmm1
	movups	32(%r13), %xmm2
	movups	48(%r13), %xmm3
.Ltmp349:
	#DEBUG_VALUE: conceal_lost_frames:i <- undef
	.loc	0 1363 56                       # ldecod_src/erc_do_p.c:1363:56
	incl	%ebp
.Ltmp350:
	.loc	0 1363 61 is_stmt 0             # ldecod_src/erc_do_p.c:1363:61
	movl	%ebp, %eax
	cltd
	idivl	848992(%r15)
.Ltmp351:
	#DEBUG_VALUE: conceal_lost_frames:UnusedShortTermFrameNum <- $edx
	.loc	0 0 61                          # ldecod_src/erc_do_p.c:0:61
	movq	24(%rsp), %rax                  # 8-byte Reload
.Ltmp352:
	.loc	0 1368 27 is_stmt 1             # ldecod_src/erc_do_p.c:1368:27
	movups	%xmm3, 48(%rax)
	movups	%xmm2, 32(%rax)
	movups	%xmm1, 16(%rax)
	movdqu	%xmm0, (%rax)
.Ltmp353:
	.loc	0 1370 25                       # ldecod_src/erc_do_p.c:1370:25
	movl	$0, (%r13)
	.loc	0 1363 61                       # ldecod_src/erc_do_p.c:1363:61
	movl	%edx, %ebp
.Ltmp354:
	.loc	0 1317 23                       # ldecod_src/erc_do_p.c:1317:23
	cmpl	%edx, 12(%rsp)                  # 4-byte Folded Reload
	.loc	0 1317 3 is_stmt 0              # ldecod_src/erc_do_p.c:1317:3
	je	.LBB3_15
.Ltmp355:
.LBB3_5:                                # %while.body
                                        # =>This Loop Header: Depth=1
                                        #     Child Loop BB3_7 Depth 2
	#DEBUG_VALUE: conceal_lost_frames:p_Dpb <- $rbx
	#DEBUG_VALUE: conceal_lost_frames:pSlice <- [DW_OP_plus_uconst 16] [$rsp+0]
	#DEBUG_VALUE: conceal_lost_frames:p_Vid <- $r15
	#DEBUG_VALUE: conceal_lost_frames:picture <- 0
	#DEBUG_VALUE: conceal_lost_frames:UnusedShortTermFrameNum <- $ebp
	#DEBUG_VALUE: conceal_lost_frames:UnusedShortTermFrameNum <- $ebp
	.loc	0 1319 60 is_stmt 1             # ldecod_src/erc_do_p.c:1319:60
	movl	848780(%r15), %edx
	.loc	0 1319 74 is_stmt 0             # ldecod_src/erc_do_p.c:1319:74
	movl	848784(%r15), %ecx
	.loc	0 1319 89                       # ldecod_src/erc_do_p.c:1319:89
	movl	848788(%r15), %r8d
	.loc	0 1319 106                      # ldecod_src/erc_do_p.c:1319:106
	movl	848792(%r15), %r9d
	.loc	0 1319 15                       # ldecod_src/erc_do_p.c:1319:15
	movq	%r15, %rdi
	xorl	%esi, %esi
	callq	alloc_storable_picture@PLT
.Ltmp356:
	movq	%rax, %r12
.Ltmp357:
	#DEBUG_VALUE: conceal_lost_frames:picture <- $r12
	#DEBUG_VALUE: copy_prev_pic_to_concealed_pic:picture <- $r12
	.loc	0 1321 26 is_stmt 1             # ldecod_src/erc_do_p.c:1321:26
	movl	$1, 96(%rax)
	.loc	0 1322 22                       # ldecod_src/erc_do_p.c:1322:22
	movl	%ebp, 28(%rax)
	.loc	0 1323 24                       # ldecod_src/erc_do_p.c:1323:24
	movl	%ebp, 20(%rax)
	.loc	0 1324 27                       # ldecod_src/erc_do_p.c:1324:27
	movl	$0, 52(%rax)
	.loc	0 1326 33                       # ldecod_src/erc_do_p.c:1326:33
	movq	$1, 44(%rax)
	.loc	0 1327 28                       # ldecod_src/erc_do_p.c:1327:28
	movl	$1, 320(%rax)
	.loc	0 1329 46                       # ldecod_src/erc_do_p.c:1329:46
	movl	$0, 264(%rax)
	.loc	0 1331 23                       # ldecod_src/erc_do_p.c:1331:23
	movl	%ebp, 172(%r14)
	.loc	0 1333 55                       # ldecod_src/erc_do_p.c:1333:55
	movl	849232(%r15), %eax
	.loc	0 1333 46 is_stmt 0             # ldecod_src/erc_do_p.c:1333:46
	addl	849228(%r15), %eax
	.loc	0 1336 17 is_stmt 1             # ldecod_src/erc_do_p.c:1336:17
	movd	%eax, %xmm0
	pshufd	$0, %xmm0, %xmm0                # xmm0 = xmm0[0,0,0,0]
	movdqu	%xmm0, 4(%r12)
	.loc	0 1337 29                       # ldecod_src/erc_do_p.c:1337:29
	movl	%eax, 849228(%r15)
.Ltmp358:
	#DEBUG_VALUE: copy_prev_pic_to_concealed_pic:p_Dpb <- $rbx
	#DEBUG_VALUE: copy_prev_pic_to_concealed_pic:p_Vid <- undef
	#DEBUG_VALUE: get_last_ref_pic_from_dpb:p_Dpb <- $rbx
	.loc	0 1096 26                       # ldecod_src/erc_do_p.c:1096:26
	movl	44(%rbx), %ecx
.Ltmp359:
	#DEBUG_VALUE: get_last_ref_pic_from_dpb:used_size <- [DW_OP_constu 1, DW_OP_minus, DW_OP_stack_value] $ecx
	#DEBUG_VALUE: get_last_ref_pic_from_dpb:i <- [DW_OP_constu 1, DW_OP_minus, DW_OP_stack_value] $ecx
	.loc	0 1099 24                       # ldecod_src/erc_do_p.c:1099:24
	decl	%ecx
.Ltmp360:
	.loc	0 1099 3 is_stmt 0              # ldecod_src/erc_do_p.c:1099:3
	js	.LBB3_11
.Ltmp361:
# %bb.6:                                # %for.body.lr.ph.i.i
                                        #   in Loop: Header=BB3_5 Depth=1
	#DEBUG_VALUE: conceal_lost_frames:p_Dpb <- $rbx
	#DEBUG_VALUE: conceal_lost_frames:pSlice <- [DW_OP_plus_uconst 16] [$rsp+0]
	#DEBUG_VALUE: conceal_lost_frames:p_Vid <- $r15
	#DEBUG_VALUE: conceal_lost_frames:picture <- $r12
	#DEBUG_VALUE: conceal_lost_frames:UnusedShortTermFrameNum <- $ebp
	#DEBUG_VALUE: copy_prev_pic_to_concealed_pic:picture <- $r12
	#DEBUG_VALUE: copy_prev_pic_to_concealed_pic:p_Dpb <- $rbx
	#DEBUG_VALUE: get_last_ref_pic_from_dpb:p_Dpb <- $rbx
	.loc	0 0 3                           # ldecod_src/erc_do_p.c:0:3
	movq	16(%rbx), %rax
	.loc	0 1099 3                        # ldecod_src/erc_do_p.c:1099:3
	movl	%ecx, %ecx
	incq	%rcx
	jmp	.LBB3_7
.Ltmp362:
	.p2align	4, 0x90
.LBB3_10:                               # %for.inc.i.i
                                        #   in Loop: Header=BB3_7 Depth=2
	#DEBUG_VALUE: conceal_lost_frames:p_Dpb <- $rbx
	#DEBUG_VALUE: conceal_lost_frames:pSlice <- [DW_OP_plus_uconst 16] [$rsp+0]
	#DEBUG_VALUE: conceal_lost_frames:p_Vid <- $r15
	#DEBUG_VALUE: conceal_lost_frames:picture <- $r12
	#DEBUG_VALUE: conceal_lost_frames:UnusedShortTermFrameNum <- $ebp
	#DEBUG_VALUE: copy_prev_pic_to_concealed_pic:picture <- $r12
	#DEBUG_VALUE: copy_prev_pic_to_concealed_pic:p_Dpb <- $rbx
	#DEBUG_VALUE: get_last_ref_pic_from_dpb:p_Dpb <- $rbx
	#DEBUG_VALUE: get_last_ref_pic_from_dpb:i <- [DW_OP_constu 2, DW_OP_minus, DW_OP_stack_value] $rcx
	.loc	0 1099 24                       # ldecod_src/erc_do_p.c:1099:24
	decq	%rcx
.Ltmp363:
	.loc	0 1099 3                        # ldecod_src/erc_do_p.c:1099:3
	jle	.LBB3_11
.Ltmp364:
.LBB3_7:                                # %for.body.i.i
                                        #   Parent Loop BB3_5 Depth=1
                                        # =>  This Inner Loop Header: Depth=2
	#DEBUG_VALUE: conceal_lost_frames:p_Dpb <- $rbx
	#DEBUG_VALUE: conceal_lost_frames:pSlice <- [DW_OP_plus_uconst 16] [$rsp+0]
	#DEBUG_VALUE: conceal_lost_frames:p_Vid <- $r15
	#DEBUG_VALUE: conceal_lost_frames:picture <- $r12
	#DEBUG_VALUE: conceal_lost_frames:UnusedShortTermFrameNum <- $ebp
	#DEBUG_VALUE: copy_prev_pic_to_concealed_pic:picture <- $r12
	#DEBUG_VALUE: copy_prev_pic_to_concealed_pic:p_Dpb <- $rbx
	#DEBUG_VALUE: get_last_ref_pic_from_dpb:p_Dpb <- $rbx
	.loc	0 1101 9 is_stmt 1              # ldecod_src/erc_do_p.c:1101:9
	movq	-8(%rax,%rcx,8), %rdx
	.loc	0 1101 30 is_stmt 0             # ldecod_src/erc_do_p.c:1101:30
	cmpl	$3, (%rdx)
.Ltmp365:
	.loc	0 1101 9                        # ldecod_src/erc_do_p.c:1101:9
	jne	.LBB3_10
.Ltmp366:
# %bb.8:                                # %if.then.i.i
                                        #   in Loop: Header=BB3_7 Depth=2
	#DEBUG_VALUE: conceal_lost_frames:p_Dpb <- $rbx
	#DEBUG_VALUE: conceal_lost_frames:pSlice <- [DW_OP_plus_uconst 16] [$rsp+0]
	#DEBUG_VALUE: conceal_lost_frames:p_Vid <- $r15
	#DEBUG_VALUE: conceal_lost_frames:picture <- $r12
	#DEBUG_VALUE: conceal_lost_frames:UnusedShortTermFrameNum <- $ebp
	#DEBUG_VALUE: copy_prev_pic_to_concealed_pic:picture <- $r12
	#DEBUG_VALUE: copy_prev_pic_to_concealed_pic:p_Dpb <- $rbx
	#DEBUG_VALUE: get_last_ref_pic_from_dpb:p_Dpb <- $rbx
	.loc	0 1103 27 is_stmt 1             # ldecod_src/erc_do_p.c:1103:27
	movq	48(%rdx), %rdi
	.loc	0 1103 12 is_stmt 0             # ldecod_src/erc_do_p.c:1103:12
	cmpl	$0, 44(%rdi)
	.loc	0 1103 54                       # ldecod_src/erc_do_p.c:1103:54
	je	.LBB3_10
.Ltmp367:
# %bb.9:                                # %land.lhs.true.i.i
                                        #   in Loop: Header=BB3_7 Depth=2
	#DEBUG_VALUE: conceal_lost_frames:p_Dpb <- $rbx
	#DEBUG_VALUE: conceal_lost_frames:pSlice <- [DW_OP_plus_uconst 16] [$rsp+0]
	#DEBUG_VALUE: conceal_lost_frames:p_Vid <- $r15
	#DEBUG_VALUE: conceal_lost_frames:picture <- $r12
	#DEBUG_VALUE: conceal_lost_frames:UnusedShortTermFrameNum <- $ebp
	#DEBUG_VALUE: copy_prev_pic_to_concealed_pic:picture <- $r12
	#DEBUG_VALUE: copy_prev_pic_to_concealed_pic:p_Dpb <- $rbx
	#DEBUG_VALUE: get_last_ref_pic_from_dpb:p_Dpb <- $rbx
	.loc	0 1104 11 is_stmt 1             # ldecod_src/erc_do_p.c:1104:11
	cmpb	$0, 40(%rdi)
	jne	.LBB3_10
	jmp	.LBB3_12
.Ltmp368:
	.p2align	4, 0x90
.LBB3_11:                               #   in Loop: Header=BB3_5 Depth=1
	#DEBUG_VALUE: conceal_lost_frames:p_Dpb <- $rbx
	#DEBUG_VALUE: conceal_lost_frames:pSlice <- [DW_OP_plus_uconst 16] [$rsp+0]
	#DEBUG_VALUE: conceal_lost_frames:p_Vid <- $r15
	#DEBUG_VALUE: conceal_lost_frames:picture <- $r12
	#DEBUG_VALUE: conceal_lost_frames:UnusedShortTermFrameNum <- $ebp
	#DEBUG_VALUE: copy_prev_pic_to_concealed_pic:picture <- $r12
	#DEBUG_VALUE: copy_prev_pic_to_concealed_pic:p_Dpb <- $rbx
	#DEBUG_VALUE: get_last_ref_pic_from_dpb:p_Dpb <- $rbx
	.loc	0 0 11 is_stmt 0                # ldecod_src/erc_do_p.c:0:11
	xorl	%edi, %edi
.Ltmp369:
.LBB3_12:                               # %copy_prev_pic_to_concealed_pic.exit
                                        #   in Loop: Header=BB3_5 Depth=1
	#DEBUG_VALUE: conceal_lost_frames:p_Dpb <- $rbx
	#DEBUG_VALUE: conceal_lost_frames:pSlice <- [DW_OP_plus_uconst 16] [$rsp+0]
	#DEBUG_VALUE: conceal_lost_frames:p_Vid <- $r15
	#DEBUG_VALUE: conceal_lost_frames:picture <- $r12
	#DEBUG_VALUE: conceal_lost_frames:UnusedShortTermFrameNum <- $ebp
	#DEBUG_VALUE: copy_prev_pic_to_concealed_pic:picture <- $r12
	#DEBUG_VALUE: copy_prev_pic_to_concealed_pic:p_Dpb <- $rbx
	movq	(%rbx), %rdx
.Ltmp370:
	#DEBUG_VALUE: copy_prev_pic_to_concealed_pic:p_Vid <- $rdx
	#DEBUG_VALUE: copy_prev_pic_to_concealed_pic:ref_pic <- $rdi
	.loc	0 1275 29 is_stmt 1             # ldecod_src/erc_do_p.c:1275:29
	movl	$0, 849256(%rdx)
	.loc	0 1276 3                        # ldecod_src/erc_do_p.c:1276:3
	movq	%r12, %rsi
	callq	copy_to_conceal
.Ltmp371:
	.loc	0 1342 36                       # ldecod_src/erc_do_p.c:1342:36
	cmpl	$1, 849252(%r15)
.Ltmp372:
	.loc	0 1342 8 is_stmt 0              # ldecod_src/erc_do_p.c:1342:8
	jne	.LBB3_14
.Ltmp373:
# %bb.13:                               # %if.then20
                                        #   in Loop: Header=BB3_5 Depth=1
	#DEBUG_VALUE: conceal_lost_frames:p_Dpb <- $rbx
	#DEBUG_VALUE: conceal_lost_frames:pSlice <- [DW_OP_plus_uconst 16] [$rsp+0]
	#DEBUG_VALUE: conceal_lost_frames:p_Vid <- $r15
	#DEBUG_VALUE: conceal_lost_frames:picture <- $r12
	#DEBUG_VALUE: conceal_lost_frames:UnusedShortTermFrameNum <- $ebp
	.loc	0 0 0                           # ldecod_src/erc_do_p.c:0:0
	movq	%r12, %r14
	addq	$4, %r14
.Ltmp374:
	.loc	0 1344 27 is_stmt 1             # ldecod_src/erc_do_p.c:1344:27
	movabsq	$4294967298, %rax               # imm = 0x100000002
	movq	%rax, 248(%r12)
	.loc	0 1347 31                       # ldecod_src/erc_do_p.c:1347:31
	movq	848736(%r15), %rax
	.loc	0 1347 24 is_stmt 0             # ldecod_src/erc_do_p.c:1347:24
	movq	(%rax), %rax
	.loc	0 1347 47                       # ldecod_src/erc_do_p.c:1347:47
	movl	1176(%rax), %esi
	.loc	0 1347 7                        # ldecod_src/erc_do_p.c:1347:7
	movq	%rbx, %rdi
	callq	flush_dpb@PLT
.Ltmp375:
	.loc	0 1354 19 is_stmt 1             # ldecod_src/erc_do_p.c:1354:19
	pxor	%xmm0, %xmm0
	movdqu	%xmm0, (%r14)
	movq	16(%rsp), %r14                  # 8-byte Reload
	.loc	0 1355 31                       # ldecod_src/erc_do_p.c:1355:31
	movl	$0, 849228(%r15)
	jmp	.LBB3_14
.Ltmp376:
.Lfunc_end3:
	.size	conceal_lost_frames, .Lfunc_end3-conceal_lost_frames
	.cfi_endproc
                                        # -- End function
	.globl	update_ref_list_for_concealment # -- Begin function update_ref_list_for_concealment
	.p2align	4, 0x90
	.type	update_ref_list_for_concealment,@function
update_ref_list_for_concealment:        # @update_ref_list_for_concealment
.Lfunc_begin4:
	.cfi_startproc
# %bb.0:                                # %entry
	#DEBUG_VALUE: update_ref_list_for_concealment:p_Dpb <- $rdi
	.loc	0 1388 35 prologue_end          # ldecod_src/erc_do_p.c:1388:35
	movq	(%rdi), %rax
.Ltmp377:
	#DEBUG_VALUE: update_ref_list_for_concealment:p_Vid <- $rax
	#DEBUG_VALUE: update_ref_list_for_concealment:j <- 0
	#DEBUG_VALUE: update_ref_list_for_concealment:i <- 0
	.loc	0 1391 26                       # ldecod_src/erc_do_p.c:1391:26
	movl	44(%rdi), %edx
	.loc	0 1391 17 is_stmt 0             # ldecod_src/erc_do_p.c:1391:17
	testl	%edx, %edx
.Ltmp378:
	.loc	0 1391 3                        # ldecod_src/erc_do_p.c:1391:3
	je	.LBB4_5
.Ltmp379:
# %bb.1:                                # %for.body.lr.ph
	#DEBUG_VALUE: update_ref_list_for_concealment:p_Dpb <- $rdi
	#DEBUG_VALUE: update_ref_list_for_concealment:p_Vid <- $rax
	#DEBUG_VALUE: update_ref_list_for_concealment:j <- 0
	#DEBUG_VALUE: update_ref_list_for_concealment:i <- 0
	.loc	0 0 3                           # ldecod_src/erc_do_p.c:0:3
	xorl	%ecx, %ecx
	xorl	%esi, %esi
	jmp	.LBB4_2
.Ltmp380:
	.p2align	4, 0x90
.LBB4_4:                                # %for.inc
                                        #   in Loop: Header=BB4_2 Depth=1
	#DEBUG_VALUE: update_ref_list_for_concealment:p_Dpb <- $rdi
	#DEBUG_VALUE: update_ref_list_for_concealment:p_Vid <- $rax
	#DEBUG_VALUE: update_ref_list_for_concealment:j <- $esi
	#DEBUG_VALUE: update_ref_list_for_concealment:i <- $rcx
	#DEBUG_VALUE: update_ref_list_for_concealment:j <- $esi
	.loc	0 1391 38                       # ldecod_src/erc_do_p.c:1391:38
	incq	%rcx
.Ltmp381:
	#DEBUG_VALUE: update_ref_list_for_concealment:i <- $rcx
	.loc	0 1391 17                       # ldecod_src/erc_do_p.c:1391:17
	movl	%edx, %r8d
	cmpq	%r8, %rcx
.Ltmp382:
	.loc	0 1391 3                        # ldecod_src/erc_do_p.c:1391:3
	jae	.LBB4_5
.Ltmp383:
.LBB4_2:                                # %for.body
                                        # =>This Inner Loop Header: Depth=1
	#DEBUG_VALUE: update_ref_list_for_concealment:p_Dpb <- $rdi
	#DEBUG_VALUE: update_ref_list_for_concealment:p_Vid <- $rax
	#DEBUG_VALUE: update_ref_list_for_concealment:j <- $esi
	#DEBUG_VALUE: update_ref_list_for_concealment:i <- $rcx
	.loc	0 1393 16 is_stmt 1             # ldecod_src/erc_do_p.c:1393:16
	movq	16(%rdi), %r8
	.loc	0 1393 9 is_stmt 0              # ldecod_src/erc_do_p.c:1393:9
	movq	(%r8,%rcx,8), %r8
	cmpl	$0, 44(%r8)
.Ltmp384:
	.loc	0 1393 9                        # ldecod_src/erc_do_p.c:1393:9
	je	.LBB4_4
.Ltmp385:
# %bb.3:                                # %if.then
                                        #   in Loop: Header=BB4_2 Depth=1
	#DEBUG_VALUE: update_ref_list_for_concealment:p_Dpb <- $rdi
	#DEBUG_VALUE: update_ref_list_for_concealment:p_Vid <- $rax
	#DEBUG_VALUE: update_ref_list_for_concealment:j <- $esi
	#DEBUG_VALUE: update_ref_list_for_concealment:i <- $rcx
	.loc	0 1395 14 is_stmt 1             # ldecod_src/erc_do_p.c:1395:14
	movq	24(%rdi), %rdx
	.loc	0 1395 7 is_stmt 0              # ldecod_src/erc_do_p.c:1395:7
	movl	%esi, %r9d
	.loc	0 1395 22                       # ldecod_src/erc_do_p.c:1395:22
	incl	%esi
.Ltmp386:
	#DEBUG_VALUE: update_ref_list_for_concealment:j <- $r9d
	#DEBUG_VALUE: update_ref_list_for_concealment:j <- $esi
	.loc	0 1395 26                       # ldecod_src/erc_do_p.c:1395:26
	movq	%r8, (%rdx,%r9,8)
.Ltmp387:
	.loc	0 1391 26 is_stmt 1             # ldecod_src/erc_do_p.c:1391:26
	movl	44(%rdi), %edx
	jmp	.LBB4_4
.Ltmp388:
.LBB4_5:                                # %for.end
	#DEBUG_VALUE: update_ref_list_for_concealment:p_Dpb <- $rdi
	#DEBUG_VALUE: update_ref_list_for_concealment:p_Vid <- $rax
	.loc	0 1399 40                       # ldecod_src/erc_do_p.c:1399:40
	movq	8(%rax), %rax
.Ltmp389:
	.loc	0 1399 52 is_stmt 0             # ldecod_src/erc_do_p.c:1399:52
	movl	2168(%rax), %eax
	.loc	0 1399 31                       # ldecod_src/erc_do_p.c:1399:31
	movl	%eax, 48(%rdi)
	.loc	0 1400 1 is_stmt 1              # ldecod_src/erc_do_p.c:1400:1
	retq
.Ltmp390:
.Lfunc_end4:
	.size	update_ref_list_for_concealment, .Lfunc_end4-update_ref_list_for_concealment
	.cfi_endproc
                                        # -- End function
	.globl	init_lists_for_non_reference_loss # -- Begin function init_lists_for_non_reference_loss
	.p2align	4, 0x90
	.type	init_lists_for_non_reference_loss,@function
init_lists_for_non_reference_loss:      # @init_lists_for_non_reference_loss
.Lfunc_begin5:
	.loc	0 1412 0                        # ldecod_src/erc_do_p.c:1412:0
	.cfi_startproc
# %bb.0:                                # %entry
	#DEBUG_VALUE: init_lists_for_non_reference_loss:p_Dpb <- $rdi
	#DEBUG_VALUE: init_lists_for_non_reference_loss:currSliceType <- $esi
	#DEBUG_VALUE: init_lists_for_non_reference_loss:currPicStructure <- $edx
	pushq	%rbp
	.cfi_def_cfa_offset 16
	pushq	%r15
	.cfi_def_cfa_offset 24
	pushq	%r14
	.cfi_def_cfa_offset 32
	pushq	%r13
	.cfi_def_cfa_offset 40
	pushq	%r12
	.cfi_def_cfa_offset 48
	pushq	%rbx
	.cfi_def_cfa_offset 56
	subq	$24, %rsp
	.cfi_def_cfa_offset 80
	.cfi_offset %rbx, -56
	.cfi_offset %r12, -48
	.cfi_offset %r13, -40
	.cfi_offset %r14, -32
	.cfi_offset %r15, -24
	.cfi_offset %rbp, -16
	movl	%edx, %ebp
	movl	%esi, %r14d
	movq	%rdi, %rbx
.Ltmp391:
	.loc	0 1413 35 prologue_end          # ldecod_src/erc_do_p.c:1413:35
	movq	(%rdi), %r12
.Ltmp392:
	#DEBUG_VALUE: init_lists_for_non_reference_loss:p_Vid <- $r12
	.loc	0 1414 49                       # ldecod_src/erc_do_p.c:1414:49
	movq	16(%r12), %r11
.Ltmp393:
	#DEBUG_VALUE: init_lists_for_non_reference_loss:active_sps <- $r11
	.loc	0 1418 39                       # ldecod_src/erc_do_p.c:1418:39
	movzbl	2068(%r11), %ecx
	.loc	0 1418 23 is_stmt 0             # ldecod_src/erc_do_p.c:1418:23
	addb	$4, %cl
	movl	$-1, %eax
	shll	%cl, %eax
.Ltmp394:
	#DEBUG_VALUE: init_lists_for_non_reference_loss:MaxFrameNum <- undef
	#DEBUG_VALUE: init_lists_for_non_reference_loss:list0idx <- 0
	#DEBUG_VALUE: init_lists_for_non_reference_loss:list0idx_1 <- 0
	.loc	0 1426 24 is_stmt 1             # ldecod_src/erc_do_p.c:1426:24
	testl	%edx, %edx
.Ltmp395:
	.loc	0 1426 7 is_stmt 0              # ldecod_src/erc_do_p.c:1426:7
	je	.LBB5_1
.Ltmp396:
.LBB5_8:                                # %if.end33
	#DEBUG_VALUE: init_lists_for_non_reference_loss:p_Dpb <- $rbx
	#DEBUG_VALUE: init_lists_for_non_reference_loss:currSliceType <- $r14d
	#DEBUG_VALUE: init_lists_for_non_reference_loss:currPicStructure <- $ebp
	#DEBUG_VALUE: init_lists_for_non_reference_loss:p_Vid <- $r12
	#DEBUG_VALUE: init_lists_for_non_reference_loss:active_sps <- $r11
	#DEBUG_VALUE: init_lists_for_non_reference_loss:list0idx <- 0
	#DEBUG_VALUE: init_lists_for_non_reference_loss:list0idx_1 <- 0
	.loc	0 0 7                           # ldecod_src/erc_do_p.c:0:7
	xorl	%r13d, %r13d
	.loc	0 1441 7 is_stmt 1              # ldecod_src/erc_do_p.c:1441:7
	movl	%ebp, %eax
	orl	%r14d, %eax
	je	.LBB5_9
.Ltmp397:
# %bb.16:                               # %if.end69
	#DEBUG_VALUE: init_lists_for_non_reference_loss:p_Dpb <- $rbx
	#DEBUG_VALUE: init_lists_for_non_reference_loss:currSliceType <- $r14d
	#DEBUG_VALUE: init_lists_for_non_reference_loss:currPicStructure <- $ebp
	#DEBUG_VALUE: init_lists_for_non_reference_loss:p_Vid <- $r12
	#DEBUG_VALUE: init_lists_for_non_reference_loss:active_sps <- $r11
	#DEBUG_VALUE: init_lists_for_non_reference_loss:list0idx <- 0
	#DEBUG_VALUE: init_lists_for_non_reference_loss:list0idx_1 <- 0
	#DEBUG_VALUE: init_lists_for_non_reference_loss:list0idx <- $r13d
	.loc	0 1459 21                       # ldecod_src/erc_do_p.c:1459:21
	xorl	$1, %r14d
.Ltmp398:
	#DEBUG_VALUE: init_lists_for_non_reference_loss:currSliceType <- [DW_OP_LLVM_entry_value 1] $esi
	.loc	0 1459 7 is_stmt 0              # ldecod_src/erc_do_p.c:1459:7
	orl	%ebp, %r14d
	je	.LBB5_17
	jmp	.LBB5_41
.Ltmp399:
.LBB5_1:                                # %for.cond.preheader
	#DEBUG_VALUE: init_lists_for_non_reference_loss:p_Dpb <- $rbx
	#DEBUG_VALUE: init_lists_for_non_reference_loss:currSliceType <- $r14d
	#DEBUG_VALUE: init_lists_for_non_reference_loss:currPicStructure <- $ebp
	#DEBUG_VALUE: init_lists_for_non_reference_loss:p_Vid <- $r12
	#DEBUG_VALUE: init_lists_for_non_reference_loss:active_sps <- $r11
