	.text
	.file	"fmo.c"
	.file	0 "/home/yjs/workspace/x264-test/src" "ldecod_src/fmo.c" md5 0x0b23875d46c5f68a6a0cb9db39e5d857
	.file	1 "ldecod_src/inc" "frame.h" md5 0xfd6ca9e1c707932f749220576db72b57
	.file	2 "ldecod_src/inc" "io_video.h" md5 0x1141c07f1801ad27d87214c419749431
	.file	3 "ldecod_src/inc" "types.h" md5 0x64f87bd13f2911471c7313b4ac17e90c
	.globl	fmo_init                        # -- Begin function fmo_init
	.p2align	4, 0x90
	.type	fmo_init,@function
fmo_init:                               # @fmo_init
.Lfunc_begin0:
	.loc	0 174 0                         # ldecod_src/fmo.c:174:0
	.cfi_startproc
# %bb.0:                                # %entry
	#DEBUG_VALUE: fmo_init:p_Vid <- $rdi
	#DEBUG_VALUE: fmo_init:pSlice <- $rsi
	pushq	%rbp
	.cfi_def_cfa_offset 16
	pushq	%r15
	.cfi_def_cfa_offset 24
	pushq	%r14
	.cfi_def_cfa_offset 32
	pushq	%r13
	.cfi_def_cfa_offset 40
	pushq	%r12
	.cfi_def_cfa_offset 48
	pushq	%rbx
	.cfi_def_cfa_offset 56
	subq	$40, %rsp
	.cfi_def_cfa_offset 96
	.cfi_offset %rbx, -56
	.cfi_offset %r12, -48
	.cfi_offset %r13, -40
	.cfi_offset %r14, -32
	.cfi_offset %r15, -24
	.cfi_offset %rbp, -16
	movq	%rsi, 16(%rsp)                  # 8-byte Spill
.Ltmp0:
	#DEBUG_VALUE: fmo_init:pSlice <- [DW_OP_plus_uconst 16] [$rsp+0]
	movq	%rdi, %rbx
.Ltmp1:
	.loc	0 175 42 prologue_end           # ldecod_src/fmo.c:175:42
	movq	8(%rdi), %r14
.Ltmp2:
	#DEBUG_VALUE: fmo_init:pps <- $r14
	#DEBUG_VALUE: FmoGenerateMapUnitToSliceGroupMap:p_Vid <- $rbx
	#DEBUG_VALUE: FmoGenerateMapUnitToSliceGroupMap:currSlice <- undef
	.loc	0 48 42                         # ldecod_src/fmo.c:48:42
	movq	16(%rdi), %rax
.Ltmp3:
	#DEBUG_VALUE: FmoGenerateMapUnitToSliceGroupMap:sps <- $rax
	.loc	0 53 74                         # ldecod_src/fmo.c:53:74
	movl	3128(%rax), %ebp
.Ltmp4:
	#DEBUG_VALUE: FmoGenerateMapUnitToSliceGroupMap:pps <- $r14
	.loc	0 53 33 is_stmt 0               # ldecod_src/fmo.c:53:33
	movl	3132(%rax), %eax
.Ltmp5:
	.loc	0 53 63                         # ldecod_src/fmo.c:53:63
	incl	%eax
	.loc	0 53 97                         # ldecod_src/fmo.c:53:97
	incl	%ebp
	.loc	0 53 66                         # ldecod_src/fmo.c:53:66
	imull	%eax, %ebp
.Ltmp6:
	#DEBUG_VALUE: FmoGenerateMapUnitToSliceGroupMap:NumSliceGroupMapUnits <- $ebp
	.loc	0 55 33 is_stmt 1               # ldecod_src/fmo.c:55:33
	cmpl	$6, 2048(%r14)
.Ltmp7:
	.loc	0 55 7 is_stmt 0                # ldecod_src/fmo.c:55:7
	jne	.LBB0_3
.Ltmp8:
# %bb.1:                                # %if.then.i
	#DEBUG_VALUE: fmo_init:p_Vid <- $rbx
	#DEBUG_VALUE: fmo_init:pSlice <- [DW_OP_plus_uconst 16] [$rsp+0]
	#DEBUG_VALUE: fmo_init:pps <- $r14
	#DEBUG_VALUE: FmoGenerateMapUnitToSliceGroupMap:p_Vid <- $rbx
	#DEBUG_VALUE: FmoGenerateMapUnitToSliceGroupMap:pps <- $r14
	#DEBUG_VALUE: FmoGenerateMapUnitToSliceGroupMap:NumSliceGroupMapUnits <- $ebp
	.loc	0 57 15 is_stmt 1               # ldecod_src/fmo.c:57:15
	movl	2156(%r14), %eax
	.loc	0 57 44 is_stmt 0               # ldecod_src/fmo.c:57:44
	incl	%eax
	.loc	0 57 49                         # ldecod_src/fmo.c:57:49
	cmpl	%ebp, %eax
.Ltmp9:
	.loc	0 57 9                          # ldecod_src/fmo.c:57:9
	je	.LBB0_3
.Ltmp10:
# %bb.2:                                # %if.then4.i
	#DEBUG_VALUE: fmo_init:p_Vid <- $rbx
	#DEBUG_VALUE: fmo_init:pSlice <- [DW_OP_plus_uconst 16] [$rsp+0]
	#DEBUG_VALUE: fmo_init:pps <- $r14
	#DEBUG_VALUE: FmoGenerateMapUnitToSliceGroupMap:p_Vid <- $rbx
	#DEBUG_VALUE: FmoGenerateMapUnitToSliceGroupMap:pps <- $r14
	#DEBUG_VALUE: FmoGenerateMapUnitToSliceGroupMap:NumSliceGroupMapUnits <- $ebp
	.loc	0 59 7 is_stmt 1                # ldecod_src/fmo.c:59:7
	movl	$.L.str, %edi
	movl	$500, %esi                      # imm = 0x1F4
	callq	error@PLT
.Ltmp11:
.LBB0_3:                                # %if.end5.i
	#DEBUG_VALUE: fmo_init:p_Vid <- $rbx
	#DEBUG_VALUE: fmo_init:pSlice <- [DW_OP_plus_uconst 16] [$rsp+0]
	#DEBUG_VALUE: fmo_init:pps <- $r14
	#DEBUG_VALUE: FmoGenerateMapUnitToSliceGroupMap:p_Vid <- $rbx
	#DEBUG_VALUE: FmoGenerateMapUnitToSliceGroupMap:pps <- $r14
	#DEBUG_VALUE: FmoGenerateMapUnitToSliceGroupMap:NumSliceGroupMapUnits <- $ebp
	.loc	0 64 14                         # ldecod_src/fmo.c:64:14
	movq	856712(%rbx), %rdi
	.loc	0 64 7 is_stmt 0                # ldecod_src/fmo.c:64:7
	testq	%rdi, %rdi
.Ltmp12:
	.loc	0 64 7                          # ldecod_src/fmo.c:64:7
	je	.LBB0_5
.Ltmp13:
# %bb.4:                                # %if.then6.i
	#DEBUG_VALUE: fmo_init:p_Vid <- $rbx
	#DEBUG_VALUE: fmo_init:pSlice <- [DW_OP_plus_uconst 16] [$rsp+0]
	#DEBUG_VALUE: fmo_init:pps <- $r14
	#DEBUG_VALUE: FmoGenerateMapUnitToSliceGroupMap:p_Vid <- $rbx
	#DEBUG_VALUE: FmoGenerateMapUnitToSliceGroupMap:pps <- $r14
	#DEBUG_VALUE: FmoGenerateMapUnitToSliceGroupMap:NumSliceGroupMapUnits <- $ebp
	.loc	0 65 5 is_stmt 1                # ldecod_src/fmo.c:65:5
	callq	free@PLT
.Ltmp14:
.LBB0_5:                                # %if.end8.i
	#DEBUG_VALUE: fmo_init:p_Vid <- $rbx
	#DEBUG_VALUE: fmo_init:pSlice <- [DW_OP_plus_uconst 16] [$rsp+0]
	#DEBUG_VALUE: fmo_init:pps <- $r14
	#DEBUG_VALUE: FmoGenerateMapUnitToSliceGroupMap:p_Vid <- $rbx
	#DEBUG_VALUE: FmoGenerateMapUnitToSliceGroupMap:pps <- $r14
	#DEBUG_VALUE: FmoGenerateMapUnitToSliceGroupMap:NumSliceGroupMapUnits <- $ebp
	.loc	0 66 48                         # ldecod_src/fmo.c:66:48
	movl	%ebp, %r15d
	.loc	0 66 72 is_stmt 0               # ldecod_src/fmo.c:66:72
	leaq	(,%r15,4), %rdi
	.loc	0 66 40                         # ldecod_src/fmo.c:66:40
	callq	malloc@PLT
.Ltmp15:
	.loc	0 66 38                         # ldecod_src/fmo.c:66:38
	movq	%rax, 856712(%rbx)
	.loc	0 66 89                         # ldecod_src/fmo.c:66:89
	testq	%rax, %rax
.Ltmp16:
	.loc	0 66 7                          # ldecod_src/fmo.c:66:7
	je	.LBB0_6
.Ltmp17:
# %bb.7:                                # %if.end20.i
	#DEBUG_VALUE: fmo_init:p_Vid <- $rbx
	#DEBUG_VALUE: fmo_init:pSlice <- [DW_OP_plus_uconst 16] [$rsp+0]
	#DEBUG_VALUE: fmo_init:pps <- $r14
	#DEBUG_VALUE: FmoGenerateMapUnitToSliceGroupMap:p_Vid <- $rbx
	#DEBUG_VALUE: FmoGenerateMapUnitToSliceGroupMap:pps <- $r14
	#DEBUG_VALUE: FmoGenerateMapUnitToSliceGroupMap:NumSliceGroupMapUnits <- $ebp
	.loc	0 72 36 is_stmt 1               # ldecod_src/fmo.c:72:36
	cmpl	$0, 2044(%r14)
	movq	%r14, 24(%rsp)                  # 8-byte Spill
.Ltmp18:
	#DEBUG_VALUE: FmoGenerateMapUnitToSliceGroupMap:pps <- [DW_OP_plus_uconst 24, DW_OP_deref] $rsp
	#DEBUG_VALUE: fmo_init:pps <- [DW_OP_plus_uconst 24, DW_OP_deref] $rsp
	.loc	0 72 7 is_stmt 0                # ldecod_src/fmo.c:72:7
	je	.LBB0_8
.Ltmp19:
# %bb.9:                                # %if.end28.i
	#DEBUG_VALUE: fmo_init:p_Vid <- $rbx
	#DEBUG_VALUE: fmo_init:pSlice <- [DW_OP_plus_uconst 16] [$rsp+0]
	#DEBUG_VALUE: fmo_init:pps <- [DW_OP_plus_uconst 24, DW_OP_deref] $rsp
	#DEBUG_VALUE: FmoGenerateMapUnitToSliceGroupMap:p_Vid <- $rbx
	#DEBUG_VALUE: FmoGenerateMapUnitToSliceGroupMap:pps <- [DW_OP_plus_uconst 24, DW_OP_deref] $rsp
	#DEBUG_VALUE: FmoGenerateMapUnitToSliceGroupMap:NumSliceGroupMapUnits <- $ebp
	.loc	0 78 16 is_stmt 1               # ldecod_src/fmo.c:78:16
	movl	2048(%r14), %esi
	cmpq	$6, %rsi
	.loc	0 78 3 is_stmt 0                # ldecod_src/fmo.c:78:3
	ja	.LBB0_99
.Ltmp20:
# %bb.10:                               # %if.end28.i
	#DEBUG_VALUE: fmo_init:p_Vid <- $rbx
	#DEBUG_VALUE: fmo_init:pSlice <- [DW_OP_plus_uconst 16] [$rsp+0]
	#DEBUG_VALUE: fmo_init:pps <- [DW_OP_plus_uconst 24, DW_OP_deref] $rsp
	#DEBUG_VALUE: FmoGenerateMapUnitToSliceGroupMap:p_Vid <- $rbx
	#DEBUG_VALUE: FmoGenerateMapUnitToSliceGroupMap:pps <- [DW_OP_plus_uconst 24, DW_OP_deref] $rsp
	#DEBUG_VALUE: FmoGenerateMapUnitToSliceGroupMap:NumSliceGroupMapUnits <- $ebp
	jmpq	*.LJTI0_0(,%rsi,8)
.Ltmp21:
.LBB0_11:                               # %sw.bb.i
	#DEBUG_VALUE: fmo_init:p_Vid <- $rbx
	#DEBUG_VALUE: fmo_init:pSlice <- [DW_OP_plus_uconst 16] [$rsp+0]
	#DEBUG_VALUE: fmo_init:pps <- [DW_OP_plus_uconst 24, DW_OP_deref] $rsp
	#DEBUG_VALUE: FmoGenerateMapUnitToSliceGroupMap:p_Vid <- $rbx
	#DEBUG_VALUE: FmoGenerateMapUnitToSliceGroupMap:pps <- [DW_OP_plus_uconst 24, DW_OP_deref] $rsp
	#DEBUG_VALUE: FmoGenerateMapUnitToSliceGroupMap:NumSliceGroupMapUnits <- $ebp
	#DEBUG_VALUE: FmoGenerateType0MapUnitMap:p_Vid <- $rbx
	#DEBUG_VALUE: FmoGenerateType0MapUnitMap:PicSizeInMapUnits <- $ebp
	.loc	0 348 42 is_stmt 1              # ldecod_src/fmo.c:348:42
	movq	8(%rbx), %rax
.Ltmp22:
	#DEBUG_VALUE: FmoGenerateType0MapUnitMap:pps <- $rax
	.loc	0 0 42 is_stmt 0                # ldecod_src/fmo.c:0:42
	xorl	%ecx, %ecx
.Ltmp23:
	#DEBUG_VALUE: FmoGenerateType0MapUnitMap:i <- 0
	xorl	%r8d, %r8d
	jmp	.LBB0_12
.Ltmp24:
	.p2align	4, 0x90
.LBB0_21:                               # %do.cond.i.i
                                        #   in Loop: Header=BB0_12 Depth=1
	#DEBUG_VALUE: fmo_init:p_Vid <- $rbx
	#DEBUG_VALUE: fmo_init:pSlice <- [DW_OP_plus_uconst 16] [$rsp+0]
	#DEBUG_VALUE: fmo_init:pps <- [DW_OP_plus_uconst 24, DW_OP_deref] $rsp
	#DEBUG_VALUE: FmoGenerateMapUnitToSliceGroupMap:p_Vid <- $rbx
	#DEBUG_VALUE: FmoGenerateMapUnitToSliceGroupMap:pps <- [DW_OP_plus_uconst 24, DW_OP_deref] $rsp
	#DEBUG_VALUE: FmoGenerateMapUnitToSliceGroupMap:NumSliceGroupMapUnits <- $ebp
	#DEBUG_VALUE: FmoGenerateType0MapUnitMap:p_Vid <- $rbx
	#DEBUG_VALUE: FmoGenerateType0MapUnitMap:PicSizeInMapUnits <- $ebp
	#DEBUG_VALUE: FmoGenerateType0MapUnitMap:pps <- $rax
	#DEBUG_VALUE: FmoGenerateType0MapUnitMap:i <- $r8d
	#DEBUG_VALUE: FmoGenerateType0MapUnitMap:iGroup <- $edx
	.loc	0 354 51 is_stmt 1              # ldecod_src/fmo.c:354:51
	cmpl	%ebp, %r8d
.Ltmp25:
	.loc	0 360 3                         # ldecod_src/fmo.c:360:3
	jae	.LBB0_95
.Ltmp26:
.LBB0_12:                               # %do.body.i.i
                                        # =>This Loop Header: Depth=1
                                        #     Child Loop BB0_14 Depth 2
                                        #       Child Loop BB0_17 Depth 3
	#DEBUG_VALUE: fmo_init:p_Vid <- $rbx
	#DEBUG_VALUE: fmo_init:pSlice <- [DW_OP_plus_uconst 16] [$rsp+0]
	#DEBUG_VALUE: fmo_init:pps <- [DW_OP_plus_uconst 24, DW_OP_deref] $rsp
	#DEBUG_VALUE: FmoGenerateMapUnitToSliceGroupMap:p_Vid <- $rbx
	#DEBUG_VALUE: FmoGenerateMapUnitToSliceGroupMap:pps <- [DW_OP_plus_uconst 24, DW_OP_deref] $rsp
	#DEBUG_VALUE: FmoGenerateMapUnitToSliceGroupMap:NumSliceGroupMapUnits <- $ebp
	#DEBUG_VALUE: FmoGenerateType0MapUnitMap:p_Vid <- $rbx
	#DEBUG_VALUE: FmoGenerateType0MapUnitMap:PicSizeInMapUnits <- $ebp
	#DEBUG_VALUE: FmoGenerateType0MapUnitMap:pps <- $rax
	#DEBUG_VALUE: FmoGenerateType0MapUnitMap:i <- $r8d
	#DEBUG_VALUE: FmoGenerateType0MapUnitMap:iGroup <- 0
	.loc	0 354 51                        # ldecod_src/fmo.c:354:51
	cmpl	%ebp, %r8d
.Ltmp27:
	.loc	0 353 5                         # ldecod_src/fmo.c:353:5
	jae	.LBB0_95
.Ltmp28:
# %bb.13:                               # %for.cond2.preheader.i.i.preheader
                                        #   in Loop: Header=BB0_12 Depth=1
	#DEBUG_VALUE: fmo_init:p_Vid <- $rbx
	#DEBUG_VALUE: fmo_init:pSlice <- [DW_OP_plus_uconst 16] [$rsp+0]
	#DEBUG_VALUE: fmo_init:pps <- [DW_OP_plus_uconst 24, DW_OP_deref] $rsp
	#DEBUG_VALUE: FmoGenerateMapUnitToSliceGroupMap:p_Vid <- $rbx
	#DEBUG_VALUE: FmoGenerateMapUnitToSliceGroupMap:pps <- [DW_OP_plus_uconst 24, DW_OP_deref] $rsp
	#DEBUG_VALUE: FmoGenerateMapUnitToSliceGroupMap:NumSliceGroupMapUnits <- $ebp
	#DEBUG_VALUE: FmoGenerateType0MapUnitMap:p_Vid <- $rbx
	#DEBUG_VALUE: FmoGenerateType0MapUnitMap:PicSizeInMapUnits <- $ebp
	#DEBUG_VALUE: FmoGenerateType0MapUnitMap:pps <- $rax
	#DEBUG_VALUE: FmoGenerateType0MapUnitMap:i <- $r8d
	#DEBUG_VALUE: FmoGenerateType0MapUnitMap:iGroup <- 0
	.loc	0 0 5 is_stmt 0                 # ldecod_src/fmo.c:0:5
	xorl	%edx, %edx
.Ltmp29:
	.p2align	4, 0x90
.LBB0_14:                               # %for.cond2.preheader.i.i
                                        #   Parent Loop BB0_12 Depth=1
                                        # =>  This Loop Header: Depth=2
                                        #       Child Loop BB0_17 Depth 3
	#DEBUG_VALUE: fmo_init:p_Vid <- $rbx
	#DEBUG_VALUE: fmo_init:pSlice <- [DW_OP_plus_uconst 16] [$rsp+0]
	#DEBUG_VALUE: fmo_init:pps <- [DW_OP_plus_uconst 24, DW_OP_deref] $rsp
	#DEBUG_VALUE: FmoGenerateMapUnitToSliceGroupMap:p_Vid <- $rbx
	#DEBUG_VALUE: FmoGenerateMapUnitToSliceGroupMap:pps <- [DW_OP_plus_uconst 24, DW_OP_deref] $rsp
	#DEBUG_VALUE: FmoGenerateMapUnitToSliceGroupMap:NumSliceGroupMapUnits <- $ebp
	#DEBUG_VALUE: FmoGenerateType0MapUnitMap:p_Vid <- $rbx
	#DEBUG_VALUE: FmoGenerateType0MapUnitMap:PicSizeInMapUnits <- $ebp
	#DEBUG_VALUE: FmoGenerateType0MapUnitMap:pps <- $rax
	#DEBUG_VALUE: FmoGenerateType0MapUnitMap:i <- $r8d
	#DEBUG_VALUE: FmoGenerateType0MapUnitMap:i <- $r8d
	#DEBUG_VALUE: FmoGenerateType0MapUnitMap:iGroup <- $edx
	movl	%edx, %edi
.Ltmp30:
	#DEBUG_VALUE: FmoGenerateType0MapUnitMap:j <- 0
	.loc	0 357 57 is_stmt 1              # ldecod_src/fmo.c:357:57
	movl	%r8d, %esi
	#DEBUG_VALUE: FmoGenerateType0MapUnitMap:j <- 0
	movl	%ebp, %r9d
	subl	%r8d, %r9d
	cmovbl	%ecx, %r9d
.Ltmp31:
	.loc	0 357 7 is_stmt 0               # ldecod_src/fmo.c:357:7
	jbe	.LBB0_15
.Ltmp32:
# %bb.16:                               # %for.body7.i.i.preheader
                                        #   in Loop: Header=BB0_14 Depth=2
	#DEBUG_VALUE: fmo_init:p_Vid <- $rbx
	#DEBUG_VALUE: fmo_init:pSlice <- [DW_OP_plus_uconst 16] [$rsp+0]
	#DEBUG_VALUE: fmo_init:pps <- [DW_OP_plus_uconst 24, DW_OP_deref] $rsp
	#DEBUG_VALUE: FmoGenerateMapUnitToSliceGroupMap:p_Vid <- $rbx
	#DEBUG_VALUE: FmoGenerateMapUnitToSliceGroupMap:pps <- [DW_OP_plus_uconst 24, DW_OP_deref] $rsp
	#DEBUG_VALUE: FmoGenerateMapUnitToSliceGroupMap:NumSliceGroupMapUnits <- $ebp
	#DEBUG_VALUE: FmoGenerateType0MapUnitMap:p_Vid <- $rbx
	#DEBUG_VALUE: FmoGenerateType0MapUnitMap:PicSizeInMapUnits <- $ebp
	#DEBUG_VALUE: FmoGenerateType0MapUnitMap:pps <- $rax
	#DEBUG_VALUE: FmoGenerateType0MapUnitMap:i <- $esi
	#DEBUG_VALUE: FmoGenerateType0MapUnitMap:iGroup <- $edi
	#DEBUG_VALUE: FmoGenerateType0MapUnitMap:j <- 0
	decq	%r9
	leaq	(,%rsi,4), %r10
	xorl	%r11d, %r11d
.Ltmp33:
	.p2align	4, 0x90
.LBB0_17:                               # %for.body7.i.i
                                        #   Parent Loop BB0_12 Depth=1
                                        #     Parent Loop BB0_14 Depth=2
                                        # =>    This Inner Loop Header: Depth=3
	#DEBUG_VALUE: fmo_init:p_Vid <- $rbx
	#DEBUG_VALUE: fmo_init:pSlice <- [DW_OP_plus_uconst 16] [$rsp+0]
	#DEBUG_VALUE: fmo_init:pps <- [DW_OP_plus_uconst 24, DW_OP_deref] $rsp
	#DEBUG_VALUE: FmoGenerateMapUnitToSliceGroupMap:p_Vid <- $rbx
	#DEBUG_VALUE: FmoGenerateMapUnitToSliceGroupMap:pps <- [DW_OP_plus_uconst 24, DW_OP_deref] $rsp
	#DEBUG_VALUE: FmoGenerateMapUnitToSliceGroupMap:NumSliceGroupMapUnits <- $ebp
	#DEBUG_VALUE: FmoGenerateType0MapUnitMap:p_Vid <- $rbx
	#DEBUG_VALUE: FmoGenerateType0MapUnitMap:PicSizeInMapUnits <- $ebp
	#DEBUG_VALUE: FmoGenerateType0MapUnitMap:pps <- $rax
	#DEBUG_VALUE: FmoGenerateType0MapUnitMap:i <- $esi
	#DEBUG_VALUE: FmoGenerateType0MapUnitMap:iGroup <- $edi
	#DEBUG_VALUE: FmoGenerateType0MapUnitMap:j <- $r11
	.loc	0 0 7                           # ldecod_src/fmo.c:0:7
	movq	856712(%rbx), %r8
.Ltmp34:
	.loc	0 358 44 is_stmt 1              # ldecod_src/fmo.c:358:44
	addq	%r10, %r8
	movl	%edx, (%r8,%r11,4)
.Ltmp35:
	#DEBUG_VALUE: FmoGenerateType0MapUnitMap:j <- undef
	.loc	0 357 24                        # ldecod_src/fmo.c:357:24
	movl	2052(%rax,%rdi,4), %r8d
	.loc	0 357 21 is_stmt 0              # ldecod_src/fmo.c:357:21
	cmpq	%r8, %r11
	#DEBUG_VALUE: FmoGenerateType0MapUnitMap:j <- undef
	.loc	0 357 57                        # ldecod_src/fmo.c:357:57
	jae	.LBB0_19
.Ltmp36:
# %bb.18:                               # %for.body7.i.i
                                        #   in Loop: Header=BB0_17 Depth=3
	#DEBUG_VALUE: fmo_init:p_Vid <- $rbx
	#DEBUG_VALUE: fmo_init:pSlice <- [DW_OP_plus_uconst 16] [$rsp+0]
	#DEBUG_VALUE: fmo_init:pps <- [DW_OP_plus_uconst 24, DW_OP_deref] $rsp
	#DEBUG_VALUE: FmoGenerateMapUnitToSliceGroupMap:p_Vid <- $rbx
	#DEBUG_VALUE: FmoGenerateMapUnitToSliceGroupMap:pps <- [DW_OP_plus_uconst 24, DW_OP_deref] $rsp
	#DEBUG_VALUE: FmoGenerateMapUnitToSliceGroupMap:NumSliceGroupMapUnits <- $ebp
	#DEBUG_VALUE: FmoGenerateType0MapUnitMap:p_Vid <- $rbx
	#DEBUG_VALUE: FmoGenerateType0MapUnitMap:PicSizeInMapUnits <- $ebp
	#DEBUG_VALUE: FmoGenerateType0MapUnitMap:pps <- $rax
	#DEBUG_VALUE: FmoGenerateType0MapUnitMap:i <- $esi
	#DEBUG_VALUE: FmoGenerateType0MapUnitMap:iGroup <- $edi
	.loc	0 357 0                         # ldecod_src/fmo.c:357:0
	leaq	1(%r11), %r14
	.loc	0 357 57                        # ldecod_src/fmo.c:357:57
	cmpq	%r11, %r9
	movq	%r14, %r11
	jne	.LBB0_17
	jmp	.LBB0_19
.Ltmp37:
	.p2align	4, 0x90
.LBB0_15:                               #   in Loop: Header=BB0_14 Depth=2
	#DEBUG_VALUE: fmo_init:p_Vid <- $rbx
	#DEBUG_VALUE: fmo_init:pSlice <- [DW_OP_plus_uconst 16] [$rsp+0]
	#DEBUG_VALUE: fmo_init:pps <- [DW_OP_plus_uconst 24, DW_OP_deref] $rsp
	#DEBUG_VALUE: FmoGenerateMapUnitToSliceGroupMap:p_Vid <- $rbx
	#DEBUG_VALUE: FmoGenerateMapUnitToSliceGroupMap:pps <- [DW_OP_plus_uconst 24, DW_OP_deref] $rsp
	#DEBUG_VALUE: FmoGenerateMapUnitToSliceGroupMap:NumSliceGroupMapUnits <- $ebp
	#DEBUG_VALUE: FmoGenerateType0MapUnitMap:p_Vid <- $rbx
	#DEBUG_VALUE: FmoGenerateType0MapUnitMap:PicSizeInMapUnits <- $ebp
	#DEBUG_VALUE: FmoGenerateType0MapUnitMap:pps <- $rax
	#DEBUG_VALUE: FmoGenerateType0MapUnitMap:i <- $esi
	#DEBUG_VALUE: FmoGenerateType0MapUnitMap:iGroup <- $edi
	#DEBUG_VALUE: FmoGenerateType0MapUnitMap:j <- 0
	.loc	0 357 0                         # ldecod_src/fmo.c:357:0
	movl	2052(%rax,%rdi,4), %r8d
.Ltmp38:
.LBB0_19:                               # %for.inc11.i.i
                                        #   in Loop: Header=BB0_14 Depth=2
	#DEBUG_VALUE: fmo_init:p_Vid <- $rbx
	#DEBUG_VALUE: fmo_init:pSlice <- [DW_OP_plus_uconst 16] [$rsp+0]
	#DEBUG_VALUE: fmo_init:pps <- [DW_OP_plus_uconst 24, DW_OP_deref] $rsp
	#DEBUG_VALUE: FmoGenerateMapUnitToSliceGroupMap:p_Vid <- $rbx
	#DEBUG_VALUE: FmoGenerateMapUnitToSliceGroupMap:pps <- [DW_OP_plus_uconst 24, DW_OP_deref] $rsp
	#DEBUG_VALUE: FmoGenerateMapUnitToSliceGroupMap:NumSliceGroupMapUnits <- $ebp
	#DEBUG_VALUE: FmoGenerateType0MapUnitMap:p_Vid <- $rbx
	#DEBUG_VALUE: FmoGenerateType0MapUnitMap:PicSizeInMapUnits <- $ebp
	#DEBUG_VALUE: FmoGenerateType0MapUnitMap:pps <- $rax
	#DEBUG_VALUE: FmoGenerateType0MapUnitMap:i <- $esi
	#DEBUG_VALUE: FmoGenerateType0MapUnitMap:iGroup <- $edi
	.loc	0 355 44 is_stmt 1              # ldecod_src/fmo.c:355:44
	incl	%edx
.Ltmp39:
	#DEBUG_VALUE: FmoGenerateType0MapUnitMap:iGroup <- $edx
	.loc	0 355 12 is_stmt 0              # ldecod_src/fmo.c:355:12
	addl	%esi, %r8d
	incl	%r8d
.Ltmp40:
	#DEBUG_VALUE: FmoGenerateType0MapUnitMap:i <- $r8d
	.loc	0 354 18 is_stmt 1              # ldecod_src/fmo.c:354:18
	cmpl	2044(%rax), %edx
.Ltmp41:
	.loc	0 353 5                         # ldecod_src/fmo.c:353:5
	ja	.LBB0_21
.Ltmp42:
# %bb.20:                               # %for.inc11.i.i
                                        #   in Loop: Header=BB0_14 Depth=2
	#DEBUG_VALUE: fmo_init:p_Vid <- $rbx
	#DEBUG_VALUE: fmo_init:pSlice <- [DW_OP_plus_uconst 16] [$rsp+0]
	#DEBUG_VALUE: fmo_init:pps <- [DW_OP_plus_uconst 24, DW_OP_deref] $rsp
	#DEBUG_VALUE: FmoGenerateMapUnitToSliceGroupMap:p_Vid <- $rbx
	#DEBUG_VALUE: FmoGenerateMapUnitToSliceGroupMap:pps <- [DW_OP_plus_uconst 24, DW_OP_deref] $rsp
	#DEBUG_VALUE: FmoGenerateMapUnitToSliceGroupMap:NumSliceGroupMapUnits <- $ebp
	#DEBUG_VALUE: FmoGenerateType0MapUnitMap:p_Vid <- $rbx
	#DEBUG_VALUE: FmoGenerateType0MapUnitMap:PicSizeInMapUnits <- $ebp
	#DEBUG_VALUE: FmoGenerateType0MapUnitMap:pps <- $rax
	#DEBUG_VALUE: FmoGenerateType0MapUnitMap:i <- $r8d
	#DEBUG_VALUE: FmoGenerateType0MapUnitMap:iGroup <- $edx
	cmpl	%ebp, %r8d
	jb	.LBB0_14
	jmp	.LBB0_21
.Ltmp43:
.LBB0_8:                                # %if.then23.i
	#DEBUG_VALUE: fmo_init:p_Vid <- $rbx
	#DEBUG_VALUE: fmo_init:pSlice <- [DW_OP_plus_uconst 16] [$rsp+0]
	#DEBUG_VALUE: fmo_init:pps <- [DW_OP_plus_uconst 24, DW_OP_deref] $rsp
	#DEBUG_VALUE: FmoGenerateMapUnitToSliceGroupMap:p_Vid <- $rbx
	#DEBUG_VALUE: FmoGenerateMapUnitToSliceGroupMap:pps <- [DW_OP_plus_uconst 24, DW_OP_deref] $rsp
	#DEBUG_VALUE: FmoGenerateMapUnitToSliceGroupMap:NumSliceGroupMapUnits <- $ebp
	#DEBUG_VALUE: fast_memset:dst <- $rax
	#DEBUG_VALUE: fast_memset:value <- 0
	#DEBUG_VALUE: fast_memset:width <- [DW_OP_constu 2, DW_OP_shl, DW_OP_LLVM_convert 64 7, DW_OP_LLVM_convert 32 7, DW_OP_stack_value] $ebp
	.file	4 "ldecod_src/inc" "fast_memory.h" md5 0x49b3114f30776e7555e4b756c6802326
	.loc	4 23 20                         # ldecod_src/inc/fast_memory.h:23:20
	shlq	$34, %r15
	sarq	$32, %r15
	.loc	4 23 3 is_stmt 0                # ldecod_src/inc/fast_memory.h:23:3
	movq	%rax, %rdi
	xorl	%esi, %esi
	movq	%r15, %rdx
	callq	memset@PLT
.Ltmp44:
.LBB0_95:                               # %FmoGenerateMapUnitToSliceGroupMap.exit
	#DEBUG_VALUE: fmo_init:p_Vid <- $rbx
	#DEBUG_VALUE: fmo_init:pSlice <- [DW_OP_plus_uconst 16] [$rsp+0]
	#DEBUG_VALUE: fmo_init:pps <- [DW_OP_plus_uconst 24, DW_OP_deref] $rsp
	#DEBUG_VALUE: FmoGenerateMbToSliceGroupMap:p_Vid <- $rbx
	#DEBUG_VALUE: FmoGenerateMbToSliceGroupMap:pSlice <- [DW_OP_plus_uconst 16, DW_OP_deref] $rsp
	.loc	0 121 42 is_stmt 1              # ldecod_src/fmo.c:121:42
	movq	16(%rbx), %r14
.Ltmp45:
	#DEBUG_VALUE: FmoGenerateMbToSliceGroupMap:sps <- $r14
	.loc	0 126 14                        # ldecod_src/fmo.c:126:14
	movq	856704(%rbx), %rdi
	.loc	0 126 7 is_stmt 0               # ldecod_src/fmo.c:126:7
	testq	%rdi, %rdi
.Ltmp46:
	.loc	0 126 7                         # ldecod_src/fmo.c:126:7
	je	.LBB0_97
.Ltmp47:
# %bb.96:                               # %if.then.i8
	#DEBUG_VALUE: fmo_init:p_Vid <- $rbx
	#DEBUG_VALUE: fmo_init:pSlice <- [DW_OP_plus_uconst 16] [$rsp+0]
	#DEBUG_VALUE: fmo_init:pps <- [DW_OP_plus_uconst 24, DW_OP_deref] $rsp
	#DEBUG_VALUE: FmoGenerateMbToSliceGroupMap:p_Vid <- $rbx
	#DEBUG_VALUE: FmoGenerateMbToSliceGroupMap:pSlice <- [DW_OP_plus_uconst 16, DW_OP_deref] $rsp
	#DEBUG_VALUE: FmoGenerateMbToSliceGroupMap:sps <- $r14
	.loc	0 127 5 is_stmt 1               # ldecod_src/fmo.c:127:5
	callq	free@PLT
.Ltmp48:
.LBB0_97:                               # %if.end.i
	#DEBUG_VALUE: fmo_init:p_Vid <- $rbx
	#DEBUG_VALUE: fmo_init:pSlice <- [DW_OP_plus_uconst 16] [$rsp+0]
	#DEBUG_VALUE: fmo_init:pps <- [DW_OP_plus_uconst 24, DW_OP_deref] $rsp
	#DEBUG_VALUE: FmoGenerateMbToSliceGroupMap:p_Vid <- $rbx
	#DEBUG_VALUE: FmoGenerateMbToSliceGroupMap:pSlice <- [DW_OP_plus_uconst 16, DW_OP_deref] $rsp
	#DEBUG_VALUE: FmoGenerateMbToSliceGroupMap:sps <- $r14
	.loc	0 129 51                        # ldecod_src/fmo.c:129:51
	movl	849012(%rbx), %r15d
	.loc	0 129 65 is_stmt 0              # ldecod_src/fmo.c:129:65
	leaq	(,%r15,4), %rdi
	.loc	0 129 35                        # ldecod_src/fmo.c:129:35
	callq	malloc@PLT
.Ltmp49:
	.loc	0 129 33                        # ldecod_src/fmo.c:129:33
	movq	%rax, 856704(%rbx)
	.loc	0 129 82                        # ldecod_src/fmo.c:129:82
	testq	%rax, %rax
.Ltmp50:
	.loc	0 129 7                         # ldecod_src/fmo.c:129:7
	je	.LBB0_98
.Ltmp51:
# %bb.101:                              # %if.end10.i
	#DEBUG_VALUE: fmo_init:p_Vid <- $rbx
	#DEBUG_VALUE: fmo_init:pSlice <- [DW_OP_plus_uconst 16] [$rsp+0]
	#DEBUG_VALUE: fmo_init:pps <- [DW_OP_plus_uconst 24, DW_OP_deref] $rsp
	#DEBUG_VALUE: FmoGenerateMbToSliceGroupMap:p_Vid <- $rbx
	#DEBUG_VALUE: FmoGenerateMbToSliceGroupMap:pSlice <- [DW_OP_plus_uconst 16, DW_OP_deref] $rsp
	#DEBUG_VALUE: FmoGenerateMbToSliceGroupMap:sps <- $r14
	.loc	0 136 7 is_stmt 1               # ldecod_src/fmo.c:136:7
	cmpl	$0, 3136(%r14)
	.loc	0 136 33 is_stmt 0              # ldecod_src/fmo.c:136:33
	jne	.LBB0_103
.Ltmp52:
# %bb.102:                              # %lor.lhs.false.i
	#DEBUG_VALUE: fmo_init:p_Vid <- $rbx
	#DEBUG_VALUE: fmo_init:pSlice <- [DW_OP_plus_uconst 16] [$rsp+0]
	#DEBUG_VALUE: fmo_init:pps <- [DW_OP_plus_uconst 24, DW_OP_deref] $rsp
	#DEBUG_VALUE: FmoGenerateMbToSliceGroupMap:p_Vid <- $rbx
	#DEBUG_VALUE: FmoGenerateMbToSliceGroupMap:pSlice <- [DW_OP_plus_uconst 16, DW_OP_deref] $rsp
	#DEBUG_VALUE: FmoGenerateMbToSliceGroupMap:sps <- $r14
	.loc	0 0 33                          # ldecod_src/fmo.c:0:33
	movq	16(%rsp), %rcx                  # 8-byte Reload
	.loc	0 136 36                        # ldecod_src/fmo.c:136:36
	cmpl	$0, 176(%rcx)
.Ltmp53:
	.loc	0 136 7                         # ldecod_src/fmo.c:136:7
	je	.LBB0_118
.Ltmp54:
.LBB0_103:                              # %if.then13.i13
	#DEBUG_VALUE: fmo_init:p_Vid <- $rbx
	#DEBUG_VALUE: fmo_init:pSlice <- [DW_OP_plus_uconst 16] [$rsp+0]
	#DEBUG_VALUE: fmo_init:pps <- [DW_OP_plus_uconst 24, DW_OP_deref] $rsp
	#DEBUG_VALUE: FmoGenerateMbToSliceGroupMap:p_Vid <- $rbx
	#DEBUG_VALUE: FmoGenerateMbToSliceGroupMap:pSlice <- [DW_OP_plus_uconst 16, DW_OP_deref] $rsp
	#DEBUG_VALUE: FmoGenerateMbToSliceGroupMap:sps <- $r14
	#DEBUG_VALUE: MapUnitToSliceGroupMap <- undef
	#DEBUG_VALUE: FmoGenerateMbToSliceGroupMap:i <- 0
	#DEBUG_VALUE: MbToSliceGroupMap <- $rax
	.loc	0 140 16 is_stmt 1              # ldecod_src/fmo.c:140:16
	testq	%r15, %r15
	movq	24(%rsp), %r10                  # 8-byte Reload
.Ltmp55:
	.loc	0 140 5 is_stmt 0               # ldecod_src/fmo.c:140:5
	je	.LBB0_125
.Ltmp56:
# %bb.104:                              # %for.body.preheader.i
	#DEBUG_VALUE: fmo_init:p_Vid <- $rbx
	#DEBUG_VALUE: fmo_init:pSlice <- [DW_OP_plus_uconst 16] [$rsp+0]
	#DEBUG_VALUE: fmo_init:pps <- [DW_OP_plus_uconst 24, DW_OP_deref] $rsp
	#DEBUG_VALUE: FmoGenerateMbToSliceGroupMap:p_Vid <- $rbx
	#DEBUG_VALUE: FmoGenerateMbToSliceGroupMap:pSlice <- [DW_OP_plus_uconst 16, DW_OP_deref] $rsp
	#DEBUG_VALUE: FmoGenerateMbToSliceGroupMap:sps <- $r14
	#DEBUG_VALUE: FmoGenerateMbToSliceGroupMap:i <- 0
	#DEBUG_VALUE: MbToSliceGroupMap <- $rax
	.loc	0 139 42 is_stmt 1              # ldecod_src/fmo.c:139:42
	movq	856712(%rbx), %rdi
.Ltmp57:
	#DEBUG_VALUE: MapUnitToSliceGroupMap <- $rdi
	.loc	0 0 42 is_stmt 0                # ldecod_src/fmo.c:0:42
	xorl	%esi, %esi
.Ltmp58:
	.loc	0 140 5 is_stmt 1               # ldecod_src/fmo.c:140:5
	cmpl	$16, %r15d
	jb	.LBB0_105
.Ltmp59:
# %bb.106:                              # %for.body.preheader.i
	#DEBUG_VALUE: fmo_init:p_Vid <- $rbx
	#DEBUG_VALUE: fmo_init:pSlice <- [DW_OP_plus_uconst 16] [$rsp+0]
	#DEBUG_VALUE: fmo_init:pps <- [DW_OP_plus_uconst 24, DW_OP_deref] $rsp
	#DEBUG_VALUE: FmoGenerateMbToSliceGroupMap:p_Vid <- $rbx
	#DEBUG_VALUE: FmoGenerateMbToSliceGroupMap:pSlice <- [DW_OP_plus_uconst 16, DW_OP_deref] $rsp
	#DEBUG_VALUE: FmoGenerateMbToSliceGroupMap:sps <- $r14
	#DEBUG_VALUE: MapUnitToSliceGroupMap <- $rdi
	#DEBUG_VALUE: FmoGenerateMbToSliceGroupMap:i <- 0
	#DEBUG_VALUE: MbToSliceGroupMap <- $rax
	movq	%rax, %rcx
	subq	%rdi, %rcx
	cmpq	$64, %rcx
	jb	.LBB0_105
.Ltmp60:
# %bb.107:                              # %vector.ph61
	#DEBUG_VALUE: fmo_init:p_Vid <- $rbx
	#DEBUG_VALUE: fmo_init:pSlice <- [DW_OP_plus_uconst 16] [$rsp+0]
	#DEBUG_VALUE: fmo_init:pps <- [DW_OP_plus_uconst 24, DW_OP_deref] $rsp
	#DEBUG_VALUE: FmoGenerateMbToSliceGroupMap:p_Vid <- $rbx
	#DEBUG_VALUE: FmoGenerateMbToSliceGroupMap:pSlice <- [DW_OP_plus_uconst 16, DW_OP_deref] $rsp
	#DEBUG_VALUE: FmoGenerateMbToSliceGroupMap:sps <- $r14
	#DEBUG_VALUE: MapUnitToSliceGroupMap <- $rdi
	#DEBUG_VALUE: FmoGenerateMbToSliceGroupMap:i <- 0
	#DEBUG_VALUE: MbToSliceGroupMap <- $rax
	movl	%r15d, %esi
	andl	$-16, %esi
	leaq	(,%rsi,4), %r8
	leaq	(%rdi,%rsi,4), %rcx
	leaq	(%rax,%rsi,4), %rdx
	xorl	%r9d, %r9d
.Ltmp61:
	.p2align	4, 0x90
.LBB0_108:                              # %vector.body70
                                        # =>This Inner Loop Header: Depth=1
	#DEBUG_VALUE: fmo_init:p_Vid <- $rbx
	#DEBUG_VALUE: fmo_init:pSlice <- [DW_OP_plus_uconst 16] [$rsp+0]
	#DEBUG_VALUE: fmo_init:pps <- [DW_OP_plus_uconst 24, DW_OP_deref] $rsp
	#DEBUG_VALUE: FmoGenerateMbToSliceGroupMap:p_Vid <- $rbx
	#DEBUG_VALUE: FmoGenerateMbToSliceGroupMap:pSlice <- [DW_OP_plus_uconst 16, DW_OP_deref] $rsp
	#DEBUG_VALUE: FmoGenerateMbToSliceGroupMap:sps <- $r14
	#DEBUG_VALUE: MapUnitToSliceGroupMap <- $rdi
	#DEBUG_VALUE: FmoGenerateMbToSliceGroupMap:i <- 0
	#DEBUG_VALUE: MbToSliceGroupMap <- $rax
	.loc	0 142 30                        # ldecod_src/fmo.c:142:30
	movups	(%rdi,%r9), %xmm0
	movups	16(%rdi,%r9), %xmm1
	movups	32(%rdi,%r9), %xmm2
	movups	48(%rdi,%r9), %xmm3
	.loc	0 142 28 is_stmt 0              # ldecod_src/fmo.c:142:28
	movups	%xmm0, (%rax,%r9)
	movups	%xmm1, 16(%rax,%r9)
	movups	%xmm2, 32(%rax,%r9)
	movups	%xmm3, 48(%rax,%r9)
	addq	$64, %r9
	cmpq	%r9, %r8
	jne	.LBB0_108
.Ltmp62:
# %bb.109:                              # %middle.block58
	#DEBUG_VALUE: fmo_init:p_Vid <- $rbx
	#DEBUG_VALUE: fmo_init:pSlice <- [DW_OP_plus_uconst 16] [$rsp+0]
	#DEBUG_VALUE: fmo_init:pps <- [DW_OP_plus_uconst 24, DW_OP_deref] $rsp
	#DEBUG_VALUE: FmoGenerateMbToSliceGroupMap:p_Vid <- $rbx
	#DEBUG_VALUE: FmoGenerateMbToSliceGroupMap:pSlice <- [DW_OP_plus_uconst 16, DW_OP_deref] $rsp
	#DEBUG_VALUE: FmoGenerateMbToSliceGroupMap:sps <- $r14
	#DEBUG_VALUE: MapUnitToSliceGroupMap <- $rdi
	#DEBUG_VALUE: FmoGenerateMbToSliceGroupMap:i <- 0
	#DEBUG_VALUE: MbToSliceGroupMap <- $rax
	.loc	0 140 5 is_stmt 1               # ldecod_src/fmo.c:140:5
	cmpl	%r15d, %esi
	je	.LBB0_125
.Ltmp63:
# %bb.110:                              # %for.body.i.preheader
	#DEBUG_VALUE: fmo_init:p_Vid <- $rbx
	#DEBUG_VALUE: fmo_init:pSlice <- [DW_OP_plus_uconst 16] [$rsp+0]
	#DEBUG_VALUE: fmo_init:pps <- [DW_OP_plus_uconst 24, DW_OP_deref] $rsp
	#DEBUG_VALUE: FmoGenerateMbToSliceGroupMap:p_Vid <- $rbx
	#DEBUG_VALUE: FmoGenerateMbToSliceGroupMap:pSlice <- [DW_OP_plus_uconst 16, DW_OP_deref] $rsp
	#DEBUG_VALUE: FmoGenerateMbToSliceGroupMap:sps <- $r14
	#DEBUG_VALUE: MapUnitToSliceGroupMap <- $rdi
	#DEBUG_VALUE: FmoGenerateMbToSliceGroupMap:i <- 0
	#DEBUG_VALUE: MbToSliceGroupMap <- $rax
	movl	%r15d, %eax
.Ltmp64:
	subl	%esi, %eax
	andl	$7, %eax
	je	.LBB0_111
.Ltmp65:
.LBB0_112:                              # %for.body.i.prol.preheader
	#DEBUG_VALUE: fmo_init:p_Vid <- $rbx
	#DEBUG_VALUE: fmo_init:pSlice <- [DW_OP_plus_uconst 16] [$rsp+0]
	#DEBUG_VALUE: fmo_init:pps <- [DW_OP_plus_uconst 24, DW_OP_deref] $rsp
	#DEBUG_VALUE: FmoGenerateMbToSliceGroupMap:p_Vid <- $rbx
	#DEBUG_VALUE: FmoGenerateMbToSliceGroupMap:pSlice <- [DW_OP_plus_uconst 16, DW_OP_deref] $rsp
	#DEBUG_VALUE: FmoGenerateMbToSliceGroupMap:sps <- $r14
	#DEBUG_VALUE: MapUnitToSliceGroupMap <- $rdi
	#DEBUG_VALUE: FmoGenerateMbToSliceGroupMap:i <- 0
	negl	%eax
	xorl	%edi, %edi
.Ltmp66:
	.p2align	4, 0x90
.LBB0_113:                              # %for.body.i.prol
                                        # =>This Inner Loop Header: Depth=1
	#DEBUG_VALUE: fmo_init:p_Vid <- $rbx
	#DEBUG_VALUE: fmo_init:pSlice <- [DW_OP_plus_uconst 16] [$rsp+0]
	#DEBUG_VALUE: fmo_init:pps <- [DW_OP_plus_uconst 24, DW_OP_deref] $rsp
	#DEBUG_VALUE: FmoGenerateMbToSliceGroupMap:p_Vid <- $rbx
	#DEBUG_VALUE: FmoGenerateMbToSliceGroupMap:pSlice <- [DW_OP_plus_uconst 16, DW_OP_deref] $rsp
	#DEBUG_VALUE: FmoGenerateMbToSliceGroupMap:sps <- $r14
	.loc	0 142 30                        # ldecod_src/fmo.c:142:30
	movl	(%rcx), %r8d
.Ltmp67:
	#DEBUG_VALUE: MapUnitToSliceGroupMap <- $rcx
	#DEBUG_VALUE: MbToSliceGroupMap <- $rdx
	#DEBUG_VALUE: FmoGenerateMbToSliceGroupMap:i <- [DW_OP_LLVM_arg 0, DW_OP_consts 18446744073709551615, DW_OP_div, DW_OP_LLVM_arg 1, DW_OP_plus, DW_OP_stack_value] $edi, $esi
	.loc	0 142 53 is_stmt 0              # ldecod_src/fmo.c:142:53
	addq	$4, %rcx
.Ltmp68:
	.loc	0 142 28                        # ldecod_src/fmo.c:142:28
	movl	%r8d, (%rdx)
.Ltmp69:
	#DEBUG_VALUE: MapUnitToSliceGroupMap <- $rcx
	.loc	0 142 25                        # ldecod_src/fmo.c:142:25
	addq	$4, %rdx
.Ltmp70:
	#DEBUG_VALUE: MbToSliceGroupMap <- $rdx
	#DEBUG_VALUE: FmoGenerateMbToSliceGroupMap:i <- [DW_OP_LLVM_arg 0, DW_OP_consts 18446744073709551615, DW_OP_div, DW_OP_consts 1, DW_OP_LLVM_arg 1, DW_OP_plus, DW_OP_plus, DW_OP_stack_value] $edi, $esi
	.loc	0 140 5 is_stmt 1               # ldecod_src/fmo.c:140:5
	decl	%edi
.Ltmp71:
	cmpl	%edi, %eax
	jne	.LBB0_113
.Ltmp72:
# %bb.114:                              # %for.body.i.prol.loopexit.loopexit
	#DEBUG_VALUE: fmo_init:p_Vid <- $rbx
	#DEBUG_VALUE: fmo_init:pSlice <- [DW_OP_plus_uconst 16] [$rsp+0]
	#DEBUG_VALUE: fmo_init:pps <- [DW_OP_plus_uconst 24, DW_OP_deref] $rsp
	#DEBUG_VALUE: FmoGenerateMbToSliceGroupMap:p_Vid <- $rbx
	#DEBUG_VALUE: FmoGenerateMbToSliceGroupMap:pSlice <- [DW_OP_plus_uconst 16, DW_OP_deref] $rsp
	#DEBUG_VALUE: FmoGenerateMbToSliceGroupMap:sps <- $r14
	#DEBUG_VALUE: MapUnitToSliceGroupMap <- $rcx
	#DEBUG_VALUE: MbToSliceGroupMap <- $rdx
	movl	%esi, %eax
	subl	%edi, %eax
	subl	%r15d, %esi
	cmpl	$-8, %esi
	jbe	.LBB0_116
	jmp	.LBB0_125
.Ltmp73:
.LBB0_105:
	#DEBUG_VALUE: fmo_init:p_Vid <- $rbx
	#DEBUG_VALUE: fmo_init:pSlice <- [DW_OP_plus_uconst 16] [$rsp+0]
	#DEBUG_VALUE: fmo_init:pps <- [DW_OP_plus_uconst 24, DW_OP_deref] $rsp
	#DEBUG_VALUE: FmoGenerateMbToSliceGroupMap:p_Vid <- $rbx
	#DEBUG_VALUE: FmoGenerateMbToSliceGroupMap:pSlice <- [DW_OP_plus_uconst 16, DW_OP_deref] $rsp
	#DEBUG_VALUE: FmoGenerateMbToSliceGroupMap:sps <- $r14
	#DEBUG_VALUE: MapUnitToSliceGroupMap <- $rdi
	#DEBUG_VALUE: FmoGenerateMbToSliceGroupMap:i <- 0
	#DEBUG_VALUE: MbToSliceGroupMap <- $rax
	.loc	0 0 5 is_stmt 0                 # ldecod_src/fmo.c:0:5
	movq	%rdi, %rcx
	movq	%rax, %rdx
	.loc	0 140 5                         # ldecod_src/fmo.c:140:5
	movl	%r15d, %eax
.Ltmp74:
	#DEBUG_VALUE: MbToSliceGroupMap <- $rdx
	subl	%esi, %eax
	andl	$7, %eax
	jne	.LBB0_112
.Ltmp75:
.LBB0_111:
	#DEBUG_VALUE: fmo_init:p_Vid <- $rbx
	#DEBUG_VALUE: fmo_init:pSlice <- [DW_OP_plus_uconst 16] [$rsp+0]
	#DEBUG_VALUE: fmo_init:pps <- [DW_OP_plus_uconst 24, DW_OP_deref] $rsp
	#DEBUG_VALUE: FmoGenerateMbToSliceGroupMap:p_Vid <- $rbx
	#DEBUG_VALUE: FmoGenerateMbToSliceGroupMap:pSlice <- [DW_OP_plus_uconst 16, DW_OP_deref] $rsp
	#DEBUG_VALUE: FmoGenerateMbToSliceGroupMap:sps <- $r14
	#DEBUG_VALUE: MapUnitToSliceGroupMap <- $rdi
	#DEBUG_VALUE: FmoGenerateMbToSliceGroupMap:i <- 0
	.loc	0 0 5                           # ldecod_src/fmo.c:0:5
	movl	%esi, %eax
	.loc	0 140 5                         # ldecod_src/fmo.c:140:5
	subl	%r15d, %esi
	cmpl	$-8, %esi
	ja	.LBB0_125
.Ltmp76:
.LBB0_116:                              # %for.body.i.preheader2
	#DEBUG_VALUE: fmo_init:p_Vid <- $rbx
	#DEBUG_VALUE: fmo_init:pSlice <- [DW_OP_plus_uconst 16] [$rsp+0]
	#DEBUG_VALUE: fmo_init:pps <- [DW_OP_plus_uconst 24, DW_OP_deref] $rsp
	#DEBUG_VALUE: FmoGenerateMbToSliceGroupMap:p_Vid <- $rbx
	#DEBUG_VALUE: FmoGenerateMbToSliceGroupMap:pSlice <- [DW_OP_plus_uconst 16, DW_OP_deref] $rsp
	#DEBUG_VALUE: FmoGenerateMbToSliceGroupMap:sps <- $r14
	subl	%eax, %r15d
	xorl	%eax, %eax
.Ltmp77:
	.p2align	4, 0x90
.LBB0_117:                              # %for.body.i
                                        # =>This Inner Loop Header: Depth=1
	#DEBUG_VALUE: fmo_init:p_Vid <- $rbx
	#DEBUG_VALUE: fmo_init:pSlice <- [DW_OP_plus_uconst 16] [$rsp+0]
	#DEBUG_VALUE: fmo_init:pps <- [DW_OP_plus_uconst 24, DW_OP_deref] $rsp
	#DEBUG_VALUE: FmoGenerateMbToSliceGroupMap:p_Vid <- $rbx
	#DEBUG_VALUE: FmoGenerateMbToSliceGroupMap:pSlice <- [DW_OP_plus_uconst 16, DW_OP_deref] $rsp
	#DEBUG_VALUE: FmoGenerateMbToSliceGroupMap:sps <- $r14
	#DEBUG_VALUE: MapUnitToSliceGroupMap <- [DW_OP_LLVM_arg 0, DW_OP_consts 8, DW_OP_div, DW_OP_consts 32, DW_OP_mul, DW_OP_LLVM_arg 1, DW_OP_plus, DW_OP_stack_value] $rax, $rcx
	#DEBUG_VALUE: MbToSliceGroupMap <- [DW_OP_LLVM_arg 0, DW_OP_consts 8, DW_OP_div, DW_OP_consts 32, DW_OP_mul, DW_OP_LLVM_arg 1, DW_OP_plus, DW_OP_stack_value] $rax, $rdx
	#DEBUG_VALUE: FmoGenerateMbToSliceGroupMap:i <- [DW_OP_LLVM_arg 0, DW_OP_consts 8, DW_OP_div, DW_OP_consts 8, DW_OP_mul, DW_OP_LLVM_arg 1, DW_OP_plus, DW_OP_stack_value] undef, undef
	#DEBUG_VALUE: MapUnitToSliceGroupMap <- [DW_OP_LLVM_arg 0, DW_OP_consts 8, DW_OP_div, DW_OP_consts 32, DW_OP_mul, DW_OP_consts 4, DW_OP_LLVM_arg 1, DW_OP_plus, DW_OP_plus, DW_OP_stack_value] $rax, $rcx
	.loc	0 142 30 is_stmt 1              # ldecod_src/fmo.c:142:30
	movl	(%rcx,%rax,4), %esi
.Ltmp78:
	#DEBUG_VALUE: MbToSliceGroupMap <- [DW_OP_LLVM_arg 0, DW_OP_consts 8, DW_OP_div, DW_OP_consts 32, DW_OP_mul, DW_OP_consts 4, DW_OP_LLVM_arg 1, DW_OP_plus, DW_OP_plus, DW_OP_stack_value] $rax, $rdx
	.loc	0 142 28 is_stmt 0              # ldecod_src/fmo.c:142:28
	movl	%esi, (%rdx,%rax,4)
.Ltmp79:
	#DEBUG_VALUE: FmoGenerateMbToSliceGroupMap:i <- [DW_OP_plus_uconst 1, DW_OP_stack_value] $rax
	#DEBUG_VALUE: MapUnitToSliceGroupMap <- [DW_OP_LLVM_arg 0, DW_OP_consts 8, DW_OP_div, DW_OP_consts 32, DW_OP_mul, DW_OP_consts 8, DW_OP_LLVM_arg 1, DW_OP_plus, DW_OP_plus, DW_OP_stack_value] $rax, $rcx
	.loc	0 142 30                        # ldecod_src/fmo.c:142:30
	movl	4(%rcx,%rax,4), %esi
.Ltmp80:
	#DEBUG_VALUE: MbToSliceGroupMap <- [DW_OP_LLVM_arg 0, DW_OP_consts 8, DW_OP_div, DW_OP_consts 32, DW_OP_mul, DW_OP_consts 8, DW_OP_LLVM_arg 1, DW_OP_plus, DW_OP_plus, DW_OP_stack_value] $rax, $rdx
	.loc	0 142 28                        # ldecod_src/fmo.c:142:28
	movl	%esi, 4(%rdx,%rax,4)
.Ltmp81:
	#DEBUG_VALUE: FmoGenerateMbToSliceGroupMap:i <- [DW_OP_plus_uconst 2, DW_OP_stack_value] $rax
	#DEBUG_VALUE: MapUnitToSliceGroupMap <- [DW_OP_LLVM_arg 0, DW_OP_consts 8, DW_OP_div, DW_OP_consts 32, DW_OP_mul, DW_OP_consts 12, DW_OP_LLVM_arg 1, DW_OP_plus, DW_OP_plus, DW_OP_stack_value] $rax, $rcx
	.loc	0 142 30                        # ldecod_src/fmo.c:142:30
	movl	8(%rcx,%rax,4), %esi
.Ltmp82:
	#DEBUG_VALUE: MbToSliceGroupMap <- [DW_OP_LLVM_arg 0, DW_OP_consts 8, DW_OP_div, DW_OP_consts 32, DW_OP_mul, DW_OP_consts 12, DW_OP_LLVM_arg 1, DW_OP_plus, DW_OP_plus, DW_OP_stack_value] $rax, $rdx
	.loc	0 142 28                        # ldecod_src/fmo.c:142:28
	movl	%esi, 8(%rdx,%rax,4)
.Ltmp83:
	#DEBUG_VALUE: FmoGenerateMbToSliceGroupMap:i <- [DW_OP_plus_uconst 3, DW_OP_stack_value] $rax
	#DEBUG_VALUE: MapUnitToSliceGroupMap <- [DW_OP_LLVM_arg 0, DW_OP_consts 8, DW_OP_div, DW_OP_consts 32, DW_OP_mul, DW_OP_consts 16, DW_OP_LLVM_arg 1, DW_OP_plus, DW_OP_plus, DW_OP_stack_value] $rax, $rcx
	.loc	0 142 30                        # ldecod_src/fmo.c:142:30
	movl	12(%rcx,%rax,4), %esi
.Ltmp84:
	#DEBUG_VALUE: MbToSliceGroupMap <- [DW_OP_LLVM_arg 0, DW_OP_consts 8, DW_OP_div, DW_OP_consts 32, DW_OP_mul, DW_OP_consts 16, DW_OP_LLVM_arg 1, DW_OP_plus, DW_OP_plus, DW_OP_stack_value] $rax, $rdx
	.loc	0 142 28                        # ldecod_src/fmo.c:142:28
	movl	%esi, 12(%rdx,%rax,4)
.Ltmp85:
	#DEBUG_VALUE: FmoGenerateMbToSliceGroupMap:i <- [DW_OP_plus_uconst 4, DW_OP_stack_value] $rax
	#DEBUG_VALUE: MapUnitToSliceGroupMap <- [DW_OP_LLVM_arg 0, DW_OP_consts 8, DW_OP_div, DW_OP_consts 32, DW_OP_mul, DW_OP_consts 20, DW_OP_LLVM_arg 1, DW_OP_plus, DW_OP_plus, DW_OP_stack_value] $rax, $rcx
	.loc	0 142 30                        # ldecod_src/fmo.c:142:30
	movl	16(%rcx,%rax,4), %esi
.Ltmp86:
	#DEBUG_VALUE: MbToSliceGroupMap <- [DW_OP_LLVM_arg 0, DW_OP_consts 8, DW_OP_div, DW_OP_consts 32, DW_OP_mul, DW_OP_consts 20, DW_OP_LLVM_arg 1, DW_OP_plus, DW_OP_plus, DW_OP_stack_value] $rax, $rdx
	.loc	0 142 28                        # ldecod_src/fmo.c:142:28
	movl	%esi, 16(%rdx,%rax,4)
.Ltmp87:
	#DEBUG_VALUE: FmoGenerateMbToSliceGroupMap:i <- [DW_OP_plus_uconst 5, DW_OP_stack_value] $rax
	#DEBUG_VALUE: MapUnitToSliceGroupMap <- [DW_OP_LLVM_arg 0, DW_OP_consts 8, DW_OP_div, DW_OP_consts 32, DW_OP_mul, DW_OP_consts 24, DW_OP_LLVM_arg 1, DW_OP_plus, DW_OP_plus, DW_OP_stack_value] $rax, $rcx
	.loc	0 142 30                        # ldecod_src/fmo.c:142:30
	movl	20(%rcx,%rax,4), %esi
.Ltmp88:
	#DEBUG_VALUE: MbToSliceGroupMap <- [DW_OP_LLVM_arg 0, DW_OP_consts 8, DW_OP_div, DW_OP_consts 32, DW_OP_mul, DW_OP_consts 24, DW_OP_LLVM_arg 1, DW_OP_plus, DW_OP_plus, DW_OP_stack_value] $rax, $rdx
	.loc	0 142 28                        # ldecod_src/fmo.c:142:28
	movl	%esi, 20(%rdx,%rax,4)
.Ltmp89:
	#DEBUG_VALUE: FmoGenerateMbToSliceGroupMap:i <- [DW_OP_plus_uconst 6, DW_OP_stack_value] $rax
	#DEBUG_VALUE: MapUnitToSliceGroupMap <- [DW_OP_LLVM_arg 0, DW_OP_consts 8, DW_OP_div, DW_OP_consts 32, DW_OP_mul, DW_OP_consts 28, DW_OP_LLVM_arg 1, DW_OP_plus, DW_OP_plus, DW_OP_stack_value] $rax, $rcx
	.loc	0 142 30                        # ldecod_src/fmo.c:142:30
	movl	24(%rcx,%rax,4), %esi
.Ltmp90:
	#DEBUG_VALUE: MbToSliceGroupMap <- [DW_OP_LLVM_arg 0, DW_OP_consts 8, DW_OP_div, DW_OP_consts 32, DW_OP_mul, DW_OP_consts 28, DW_OP_LLVM_arg 1, DW_OP_plus, DW_OP_plus, DW_OP_stack_value] $rax, $rdx
	.loc	0 142 28                        # ldecod_src/fmo.c:142:28
	movl	%esi, 24(%rdx,%rax,4)
.Ltmp91:
	#DEBUG_VALUE: FmoGenerateMbToSliceGroupMap:i <- [DW_OP_plus_uconst 7, DW_OP_stack_value] $rax
	#DEBUG_VALUE: MapUnitToSliceGroupMap <- [DW_OP_LLVM_arg 0, DW_OP_consts 8, DW_OP_div, DW_OP_consts 32, DW_OP_mul, DW_OP_consts 32, DW_OP_LLVM_arg 1, DW_OP_plus, DW_OP_plus, DW_OP_stack_value] $rax, $rcx
	.loc	0 142 30                        # ldecod_src/fmo.c:142:30
	movl	28(%rcx,%rax,4), %esi
.Ltmp92:
	#DEBUG_VALUE: MbToSliceGroupMap <- [DW_OP_LLVM_arg 0, DW_OP_consts 8, DW_OP_div, DW_OP_consts 32, DW_OP_mul, DW_OP_consts 32, DW_OP_LLVM_arg 1, DW_OP_plus, DW_OP_plus, DW_OP_stack_value] $rax, $rdx
	.loc	0 142 28                        # ldecod_src/fmo.c:142:28
	movl	%esi, 28(%rdx,%rax,4)
.Ltmp93:
	#DEBUG_VALUE: FmoGenerateMbToSliceGroupMap:i <- [DW_OP_LLVM_arg 0, DW_OP_consts 8, DW_OP_div, DW_OP_consts 8, DW_OP_mul, DW_OP_consts 8, DW_OP_LLVM_arg 1, DW_OP_plus, DW_OP_plus, DW_OP_stack_value] undef, undef
	.loc	0 140 16 is_stmt 1              # ldecod_src/fmo.c:140:16
	addq	$8, %rax
.Ltmp94:
	cmpl	%eax, %r15d
.Ltmp95:
	.loc	0 140 5 is_stmt 0               # ldecod_src/fmo.c:140:5
	jne	.LBB0_117
	jmp	.LBB0_125
.Ltmp96:
.LBB0_118:                              # %if.else.i
	#DEBUG_VALUE: fmo_init:p_Vid <- $rbx
	#DEBUG_VALUE: fmo_init:pSlice <- [DW_OP_plus_uconst 16] [$rsp+0]
	#DEBUG_VALUE: fmo_init:pps <- [DW_OP_plus_uconst 24, DW_OP_deref] $rsp
	#DEBUG_VALUE: FmoGenerateMbToSliceGroupMap:p_Vid <- $rbx
	#DEBUG_VALUE: FmoGenerateMbToSliceGroupMap:pSlice <- [DW_OP_plus_uconst 16, DW_OP_deref] $rsp
	#DEBUG_VALUE: FmoGenerateMbToSliceGroupMap:sps <- $r14
	.loc	0 146 9 is_stmt 1               # ldecod_src/fmo.c:146:9
	cmpl	$0, 3140(%r14)
.Ltmp97:
	#DEBUG_VALUE: FmoGenerateMbToSliceGroupMap:i <- 0
	.loc	0 146 44 is_stmt 0              # ldecod_src/fmo.c:146:44
	je	.LBB0_122
.Ltmp98:
# %bb.119:                              # %for.cond25.preheader.i
	#DEBUG_VALUE: fmo_init:p_Vid <- $rbx
	#DEBUG_VALUE: fmo_init:pSlice <- [DW_OP_plus_uconst 16] [$rsp+0]
	#DEBUG_VALUE: fmo_init:pps <- [DW_OP_plus_uconst 24, DW_OP_deref] $rsp
	#DEBUG_VALUE: FmoGenerateMbToSliceGroupMap:p_Vid <- $rbx
	#DEBUG_VALUE: FmoGenerateMbToSliceGroupMap:pSlice <- [DW_OP_plus_uconst 16, DW_OP_deref] $rsp
	#DEBUG_VALUE: FmoGenerateMbToSliceGroupMap:sps <- $r14
	#DEBUG_VALUE: FmoGenerateMbToSliceGroupMap:i <- 0
	.loc	0 0 0                           # ldecod_src/fmo.c:0:0
	testq	%r15, %r15
	movq	24(%rsp), %r10                  # 8-byte Reload
.Ltmp99:
	.loc	0 148 7 is_stmt 1               # ldecod_src/fmo.c:148:7
	je	.LBB0_125
.Ltmp100:
# %bb.120:                              # %for.body29.i.preheader
	#DEBUG_VALUE: fmo_init:p_Vid <- $rbx
	#DEBUG_VALUE: fmo_init:pSlice <- [DW_OP_plus_uconst 16] [$rsp+0]
	#DEBUG_VALUE: fmo_init:pps <- [DW_OP_plus_uconst 24, DW_OP_deref] $rsp
	#DEBUG_VALUE: FmoGenerateMbToSliceGroupMap:p_Vid <- $rbx
	#DEBUG_VALUE: FmoGenerateMbToSliceGroupMap:pSlice <- [DW_OP_plus_uconst 16, DW_OP_deref] $rsp
	#DEBUG_VALUE: FmoGenerateMbToSliceGroupMap:sps <- $r14
	#DEBUG_VALUE: FmoGenerateMbToSliceGroupMap:i <- 0
	.loc	0 0 7 is_stmt 0                 # ldecod_src/fmo.c:0:7
	xorl	%eax, %eax
.Ltmp101:
	.p2align	4, 0x90
.LBB0_121:                              # %for.body29.i
                                        # =>This Inner Loop Header: Depth=1
	#DEBUG_VALUE: fmo_init:p_Vid <- $rbx
	#DEBUG_VALUE: fmo_init:pSlice <- [DW_OP_plus_uconst 16] [$rsp+0]
	#DEBUG_VALUE: fmo_init:pps <- [DW_OP_plus_uconst 24, DW_OP_deref] $rsp
	#DEBUG_VALUE: FmoGenerateMbToSliceGroupMap:p_Vid <- $rbx
	#DEBUG_VALUE: FmoGenerateMbToSliceGroupMap:pSlice <- [DW_OP_plus_uconst 16, DW_OP_deref] $rsp
	#DEBUG_VALUE: FmoGenerateMbToSliceGroupMap:sps <- $r14
	#DEBUG_VALUE: FmoGenerateMbToSliceGroupMap:i <- $rax
	.loc	0 150 16 is_stmt 1              # ldecod_src/fmo.c:150:16
	movq	856704(%rbx), %rcx
	.loc	0 150 46 is_stmt 0              # ldecod_src/fmo.c:150:46
	movq	856712(%rbx), %rdx
	.loc	0 150 39                        # ldecod_src/fmo.c:150:39
	movq	%rax, %rsi
	andq	$-2, %rsi
	movl	(%rdx,%rsi,2), %edx
	.loc	0 150 37                        # ldecod_src/fmo.c:150:37
	movl	%edx, (%rcx,%rax,4)
.Ltmp102:
	.loc	0 148 41 is_stmt 1              # ldecod_src/fmo.c:148:41
	incq	%rax
.Ltmp103:
	#DEBUG_VALUE: FmoGenerateMbToSliceGroupMap:i <- $rax
	.loc	0 148 26 is_stmt 0              # ldecod_src/fmo.c:148:26
	movl	849012(%rbx), %ecx
	.loc	0 148 18                        # ldecod_src/fmo.c:148:18
	cmpq	%rcx, %rax
.Ltmp104:
	.loc	0 148 7                         # ldecod_src/fmo.c:148:7
	jb	.LBB0_121
	jmp	.LBB0_125
.Ltmp105:
.LBB0_72:                               # %sw.bb33.i
	#DEBUG_VALUE: fmo_init:p_Vid <- $rbx
	#DEBUG_VALUE: fmo_init:pSlice <- [DW_OP_plus_uconst 16] [$rsp+0]
	#DEBUG_VALUE: fmo_init:pps <- [DW_OP_plus_uconst 24, DW_OP_deref] $rsp
	#DEBUG_VALUE: FmoGenerateMapUnitToSliceGroupMap:p_Vid <- $rbx
	#DEBUG_VALUE: FmoGenerateMapUnitToSliceGroupMap:pps <- [DW_OP_plus_uconst 24, DW_OP_deref] $rsp
	#DEBUG_VALUE: FmoGenerateMapUnitToSliceGroupMap:NumSliceGroupMapUnits <- $ebp
	#DEBUG_VALUE: FmoGenerateType4MapUnitMap:p_Vid <- $rbx
	#DEBUG_VALUE: FmoGenerateType4MapUnitMap:PicSizeInMapUnits <- $ebp
	#DEBUG_VALUE: FmoGenerateType4MapUnitMap:currSlice <- undef
	#DEBUG_VALUE: FmoGenerateType4MapUnitMap:pps <- undef
	#DEBUG_VALUE: imin:a <- undef
	#DEBUG_VALUE: imin:b <- $ebp
	#DEBUG_VALUE: FmoGenerateType4MapUnitMap:mapUnitsInSliceGroup0 <- undef
	#DEBUG_VALUE: FmoGenerateType4MapUnitMap:sizeOfUpperLeftGroup <- undef
	#DEBUG_VALUE: FmoGenerateType4MapUnitMap:i <- 0
	.loc	0 506 17 is_stmt 1              # ldecod_src/fmo.c:506:17
	testl	%ebp, %ebp
.Ltmp106:
	.loc	0 506 3 is_stmt 0               # ldecod_src/fmo.c:506:3
	je	.LBB0_95
.Ltmp107:
# %bb.73:                               # %for.body.lr.ph.i110.i
	#DEBUG_VALUE: fmo_init:p_Vid <- $rbx
	#DEBUG_VALUE: fmo_init:pSlice <- [DW_OP_plus_uconst 16] [$rsp+0]
	#DEBUG_VALUE: fmo_init:pps <- [DW_OP_plus_uconst 24, DW_OP_deref] $rsp
	#DEBUG_VALUE: FmoGenerateMapUnitToSliceGroupMap:p_Vid <- $rbx
	#DEBUG_VALUE: FmoGenerateMapUnitToSliceGroupMap:pps <- [DW_OP_plus_uconst 24, DW_OP_deref] $rsp
	#DEBUG_VALUE: FmoGenerateMapUnitToSliceGroupMap:NumSliceGroupMapUnits <- $ebp
	#DEBUG_VALUE: FmoGenerateType4MapUnitMap:p_Vid <- $rbx
	#DEBUG_VALUE: FmoGenerateType4MapUnitMap:PicSizeInMapUnits <- $ebp
	#DEBUG_VALUE: imin:b <- $ebp
	#DEBUG_VALUE: FmoGenerateType4MapUnitMap:i <- 0
	.loc	0 0 0                           # ldecod_src/fmo.c:0:0
	movq	8(%rbx), %rax
.Ltmp108:
	#DEBUG_VALUE: FmoGenerateType4MapUnitMap:pps <- $rax
	.loc	0 501 47 is_stmt 1              # ldecod_src/fmo.c:501:47
	movl	2152(%rax), %edx
	#DEBUG_VALUE: imin:a <- undef
	.loc	0 501 78 is_stmt 0              # ldecod_src/fmo.c:501:78
	incl	%edx
	movq	16(%rsp), %rcx                  # 8-byte Reload
	.loc	0 501 83                        # ldecod_src/fmo.c:501:83
	imull	228(%rcx), %edx
.Ltmp109:
	#DEBUG_VALUE: imin:a <- $edx
	.file	5 "ldecod_src/inc" "ifunctions.h" md5 0x279401589ed56df99e287ad9e5fc564b
	.loc	5 44 10 is_stmt 1               # ldecod_src/inc/ifunctions.h:44:10
	cmpl	%ebp, %edx
	cmovgel	%ebp, %edx
.Ltmp110:
	#DEBUG_VALUE: FmoGenerateType4MapUnitMap:mapUnitsInSliceGroup0 <- $edx
	.loc	0 502 35                        # ldecod_src/fmo.c:502:35
	movl	%ebp, %ecx
	subl	%edx, %ecx
	cmpl	$0, 2148(%rax)
	cmovel	%edx, %ecx
.Ltmp111:
	#DEBUG_VALUE: FmoGenerateType4MapUnitMap:sizeOfUpperLeftGroup <- $ecx
	.loc	0 506 3                         # ldecod_src/fmo.c:506:3
	cmpl	$1, %ebp
	jne	.LBB0_77
.Ltmp112:
# %bb.74:
	#DEBUG_VALUE: fmo_init:p_Vid <- $rbx
	#DEBUG_VALUE: fmo_init:pSlice <- [DW_OP_plus_uconst 16] [$rsp+0]
	#DEBUG_VALUE: fmo_init:pps <- [DW_OP_plus_uconst 24, DW_OP_deref] $rsp
	#DEBUG_VALUE: FmoGenerateMapUnitToSliceGroupMap:p_Vid <- $rbx
	#DEBUG_VALUE: FmoGenerateMapUnitToSliceGroupMap:pps <- [DW_OP_plus_uconst 24, DW_OP_deref] $rsp
	#DEBUG_VALUE: FmoGenerateMapUnitToSliceGroupMap:NumSliceGroupMapUnits <- $ebp
	#DEBUG_VALUE: FmoGenerateType4MapUnitMap:p_Vid <- $rbx
	#DEBUG_VALUE: FmoGenerateType4MapUnitMap:PicSizeInMapUnits <- $ebp
	#DEBUG_VALUE: FmoGenerateType4MapUnitMap:pps <- $rax
	#DEBUG_VALUE: imin:b <- $ebp
	#DEBUG_VALUE: FmoGenerateType4MapUnitMap:mapUnitsInSliceGroup0 <- $edx
	#DEBUG_VALUE: FmoGenerateType4MapUnitMap:sizeOfUpperLeftGroup <- $ecx
	#DEBUG_VALUE: FmoGenerateType4MapUnitMap:i <- 0
	.loc	0 0 3 is_stmt 0                 # ldecod_src/fmo.c:0:3
	xorl	%edx, %edx
	jmp	.LBB0_75
.Ltmp113:
.LBB0_25:                               # %sw.bb31.i
	#DEBUG_VALUE: fmo_init:p_Vid <- $rbx
	#DEBUG_VALUE: fmo_init:pSlice <- [DW_OP_plus_uconst 16] [$rsp+0]
	#DEBUG_VALUE: fmo_init:pps <- [DW_OP_plus_uconst 24, DW_OP_deref] $rsp
	#DEBUG_VALUE: FmoGenerateMapUnitToSliceGroupMap:p_Vid <- $rbx
	#DEBUG_VALUE: FmoGenerateMapUnitToSliceGroupMap:pps <- [DW_OP_plus_uconst 24, DW_OP_deref] $rsp
	#DEBUG_VALUE: FmoGenerateMapUnitToSliceGroupMap:NumSliceGroupMapUnits <- $ebp
	#DEBUG_VALUE: FmoGenerateType2MapUnitMap:p_Vid <- $rbx
	#DEBUG_VALUE: FmoGenerateType2MapUnitMap:PicSizeInMapUnits <- $ebp
	.loc	0 392 42 is_stmt 1              # ldecod_src/fmo.c:392:42
	movq	8(%rbx), %r8
.Ltmp114:
	#DEBUG_VALUE: FmoGenerateType2MapUnitMap:pps <- $r8
	#DEBUG_VALUE: FmoGenerateType2MapUnitMap:i <- 0
	.loc	0 397 17                        # ldecod_src/fmo.c:397:17
	testl	%ebp, %ebp
.Ltmp115:
	.loc	0 397 3 is_stmt 0               # ldecod_src/fmo.c:397:3
	je	.LBB0_32
.Ltmp116:
# %bb.26:                               # %for.body.lr.ph.i80.i
	#DEBUG_VALUE: fmo_init:p_Vid <- $rbx
	#DEBUG_VALUE: fmo_init:pSlice <- [DW_OP_plus_uconst 16] [$rsp+0]
	#DEBUG_VALUE: fmo_init:pps <- [DW_OP_plus_uconst 24, DW_OP_deref] $rsp
	#DEBUG_VALUE: FmoGenerateMapUnitToSliceGroupMap:p_Vid <- $rbx
	#DEBUG_VALUE: FmoGenerateMapUnitToSliceGroupMap:pps <- [DW_OP_plus_uconst 24, DW_OP_deref] $rsp
	#DEBUG_VALUE: FmoGenerateMapUnitToSliceGroupMap:NumSliceGroupMapUnits <- $ebp
	#DEBUG_VALUE: FmoGenerateType2MapUnitMap:p_Vid <- $rbx
	#DEBUG_VALUE: FmoGenerateType2MapUnitMap:PicSizeInMapUnits <- $ebp
	#DEBUG_VALUE: FmoGenerateType2MapUnitMap:pps <- $r8
	#DEBUG_VALUE: FmoGenerateType2MapUnitMap:i <- 0
	.loc	0 398 47 is_stmt 1              # ldecod_src/fmo.c:398:47
	movl	2044(%r8), %eax
.Ltmp117:
	.loc	0 397 3                         # ldecod_src/fmo.c:397:3
	movl	%r15d, %ecx
	andl	$3, %ecx
	cmpl	$4, %ebp
	jae	.LBB0_28
.Ltmp118:
# %bb.27:
	#DEBUG_VALUE: fmo_init:p_Vid <- $rbx
	#DEBUG_VALUE: fmo_init:pSlice <- [DW_OP_plus_uconst 16] [$rsp+0]
	#DEBUG_VALUE: fmo_init:pps <- [DW_OP_plus_uconst 24, DW_OP_deref] $rsp
	#DEBUG_VALUE: FmoGenerateMapUnitToSliceGroupMap:p_Vid <- $rbx
	#DEBUG_VALUE: FmoGenerateMapUnitToSliceGroupMap:pps <- [DW_OP_plus_uconst 24, DW_OP_deref] $rsp
	#DEBUG_VALUE: FmoGenerateMapUnitToSliceGroupMap:NumSliceGroupMapUnits <- $ebp
	#DEBUG_VALUE: FmoGenerateType2MapUnitMap:p_Vid <- $rbx
	#DEBUG_VALUE: FmoGenerateType2MapUnitMap:PicSizeInMapUnits <- $ebp
	#DEBUG_VALUE: FmoGenerateType2MapUnitMap:pps <- $r8
	#DEBUG_VALUE: FmoGenerateType2MapUnitMap:i <- 0
	.loc	0 0 3 is_stmt 0                 # ldecod_src/fmo.c:0:3
	xorl	%edx, %edx
	.loc	0 397 3                         # ldecod_src/fmo.c:397:3
	jmp	.LBB0_30
.Ltmp119:
.LBB0_48:                               # %sw.bb32.i
	#DEBUG_VALUE: fmo_init:p_Vid <- $rbx
	#DEBUG_VALUE: fmo_init:pSlice <- [DW_OP_plus_uconst 16] [$rsp+0]
	#DEBUG_VALUE: fmo_init:pps <- [DW_OP_plus_uconst 24, DW_OP_deref] $rsp
	#DEBUG_VALUE: FmoGenerateMapUnitToSliceGroupMap:p_Vid <- $rbx
	#DEBUG_VALUE: FmoGenerateMapUnitToSliceGroupMap:pps <- [DW_OP_plus_uconst 24, DW_OP_deref] $rsp
	#DEBUG_VALUE: FmoGenerateMapUnitToSliceGroupMap:NumSliceGroupMapUnits <- $ebp
	#DEBUG_VALUE: FmoGenerateType3MapUnitMap:p_Vid <- $rbx
	#DEBUG_VALUE: FmoGenerateType3MapUnitMap:PicSizeInMapUnits <- $ebp
	#DEBUG_VALUE: FmoGenerateType3MapUnitMap:currSlice <- undef
	.loc	0 422 42 is_stmt 1              # ldecod_src/fmo.c:422:42
	movq	8(%rbx), %rax
.Ltmp120:
	#DEBUG_VALUE: FmoGenerateType3MapUnitMap:pps <- $rax
	.loc	0 428 47                        # ldecod_src/fmo.c:428:47
	movl	2152(%rax), %edx
	.loc	0 428 78 is_stmt 0              # ldecod_src/fmo.c:428:78
	incl	%edx
	movq	16(%rsp), %rcx                  # 8-byte Reload
	.loc	0 428 83                        # ldecod_src/fmo.c:428:83
	imull	228(%rcx), %edx
.Ltmp121:
	#DEBUG_VALUE: imin:a <- $edx
	#DEBUG_VALUE: imin:b <- $ebp
	.loc	5 44 10 is_stmt 1               # ldecod_src/inc/ifunctions.h:44:10
	cmpl	%ebp, %edx
	cmovgel	%ebp, %edx
.Ltmp122:
	#DEBUG_VALUE: FmoGenerateType3MapUnitMap:mapUnitsInSliceGroup0 <- $edx
	#DEBUG_VALUE: FmoGenerateType3MapUnitMap:i <- 0
	.loc	5 0 10 is_stmt 0                # ldecod_src/inc/ifunctions.h:0:10
	movl	%edx, 36(%rsp)                  # 4-byte Spill
.Ltmp123:
	#DEBUG_VALUE: FmoGenerateType3MapUnitMap:mapUnitsInSliceGroup0 <- [DW_OP_plus_uconst 36, DW_OP_deref] $rsp
	.loc	0 430 17 is_stmt 1              # ldecod_src/fmo.c:430:17
	testl	%ebp, %ebp
.Ltmp124:
	.loc	0 430 3 is_stmt 0               # ldecod_src/fmo.c:430:3
	je	.LBB0_95
.Ltmp125:
# %bb.49:                               # %for.body.i100.i.preheader
	#DEBUG_VALUE: fmo_init:p_Vid <- $rbx
	#DEBUG_VALUE: fmo_init:pSlice <- [DW_OP_plus_uconst 16] [$rsp+0]
	#DEBUG_VALUE: fmo_init:pps <- [DW_OP_plus_uconst 24, DW_OP_deref] $rsp
	#DEBUG_VALUE: FmoGenerateMapUnitToSliceGroupMap:p_Vid <- $rbx
	#DEBUG_VALUE: FmoGenerateMapUnitToSliceGroupMap:pps <- [DW_OP_plus_uconst 24, DW_OP_deref] $rsp
	#DEBUG_VALUE: FmoGenerateMapUnitToSliceGroupMap:NumSliceGroupMapUnits <- $ebp
	#DEBUG_VALUE: FmoGenerateType3MapUnitMap:p_Vid <- $rbx
	#DEBUG_VALUE: FmoGenerateType3MapUnitMap:PicSizeInMapUnits <- $ebp
	#DEBUG_VALUE: FmoGenerateType3MapUnitMap:pps <- $rax
	#DEBUG_VALUE: FmoGenerateType3MapUnitMap:mapUnitsInSliceGroup0 <- [DW_OP_plus_uconst 36, DW_OP_deref] $rsp
	#DEBUG_VALUE: FmoGenerateType3MapUnitMap:i <- 0
	movl	%r15d, %edx
	andl	$3, %edx
	cmpl	$4, %ebp
	jae	.LBB0_51
.Ltmp126:
# %bb.50:
	#DEBUG_VALUE: fmo_init:p_Vid <- $rbx
	#DEBUG_VALUE: fmo_init:pSlice <- [DW_OP_plus_uconst 16] [$rsp+0]
	#DEBUG_VALUE: fmo_init:pps <- [DW_OP_plus_uconst 24, DW_OP_deref] $rsp
	#DEBUG_VALUE: FmoGenerateMapUnitToSliceGroupMap:p_Vid <- $rbx
	#DEBUG_VALUE: FmoGenerateMapUnitToSliceGroupMap:pps <- [DW_OP_plus_uconst 24, DW_OP_deref] $rsp
	#DEBUG_VALUE: FmoGenerateMapUnitToSliceGroupMap:NumSliceGroupMapUnits <- $ebp
	#DEBUG_VALUE: FmoGenerateType3MapUnitMap:p_Vid <- $rbx
	#DEBUG_VALUE: FmoGenerateType3MapUnitMap:PicSizeInMapUnits <- $ebp
	#DEBUG_VALUE: FmoGenerateType3MapUnitMap:pps <- $rax
	#DEBUG_VALUE: FmoGenerateType3MapUnitMap:mapUnitsInSliceGroup0 <- [DW_OP_plus_uconst 36, DW_OP_deref] $rsp
	#DEBUG_VALUE: FmoGenerateType3MapUnitMap:i <- 0
	.loc	0 0 3                           # ldecod_src/fmo.c:0:3
	xorl	%esi, %esi
	.loc	0 430 3                         # ldecod_src/fmo.c:430:3
	jmp	.LBB0_53
.Ltmp127:
.LBB0_22:                               # %sw.bb30.i
	#DEBUG_VALUE: fmo_init:p_Vid <- $rbx
	#DEBUG_VALUE: fmo_init:pSlice <- [DW_OP_plus_uconst 16] [$rsp+0]
	#DEBUG_VALUE: fmo_init:pps <- [DW_OP_plus_uconst 24, DW_OP_deref] $rsp
	#DEBUG_VALUE: FmoGenerateMapUnitToSliceGroupMap:p_Vid <- $rbx
	#DEBUG_VALUE: FmoGenerateMapUnitToSliceGroupMap:pps <- [DW_OP_plus_uconst 24, DW_OP_deref] $rsp
	#DEBUG_VALUE: FmoGenerateMapUnitToSliceGroupMap:NumSliceGroupMapUnits <- $ebp
	#DEBUG_VALUE: FmoGenerateType1MapUnitMap:p_Vid <- $rbx
	#DEBUG_VALUE: FmoGenerateType1MapUnitMap:PicSizeInMapUnits <- $ebp
	#DEBUG_VALUE: FmoGenerateType1MapUnitMap:pps <- undef
	#DEBUG_VALUE: FmoGenerateType1MapUnitMap:i <- 0
	.loc	0 376 17 is_stmt 1              # ldecod_src/fmo.c:376:17
	testl	%ebp, %ebp
.Ltmp128:
	.loc	0 376 3 is_stmt 0               # ldecod_src/fmo.c:376:3
	je	.LBB0_95
.Ltmp129:
# %bb.23:                               # %for.body.lr.ph.i.i
	#DEBUG_VALUE: fmo_init:p_Vid <- $rbx
	#DEBUG_VALUE: fmo_init:pSlice <- [DW_OP_plus_uconst 16] [$rsp+0]
	#DEBUG_VALUE: fmo_init:pps <- [DW_OP_plus_uconst 24, DW_OP_deref] $rsp
	#DEBUG_VALUE: FmoGenerateMapUnitToSliceGroupMap:p_Vid <- $rbx
	#DEBUG_VALUE: FmoGenerateMapUnitToSliceGroupMap:pps <- [DW_OP_plus_uconst 24, DW_OP_deref] $rsp
	#DEBUG_VALUE: FmoGenerateMapUnitToSliceGroupMap:NumSliceGroupMapUnits <- $ebp
	#DEBUG_VALUE: FmoGenerateType1MapUnitMap:p_Vid <- $rbx
	#DEBUG_VALUE: FmoGenerateType1MapUnitMap:PicSizeInMapUnits <- $ebp
	#DEBUG_VALUE: FmoGenerateType1MapUnitMap:i <- 0
	.loc	0 374 42 is_stmt 1              # ldecod_src/fmo.c:374:42
	movq	8(%rbx), %rsi
.Ltmp130:
	#DEBUG_VALUE: FmoGenerateType1MapUnitMap:pps <- $rsi
	.loc	0 0 42 is_stmt 0                # ldecod_src/fmo.c:0:42
	xorl	%ecx, %ecx
.Ltmp131:
	.p2align	4, 0x90
.LBB0_24:                               # %for.body.i.i
                                        # =>This Inner Loop Header: Depth=1
	#DEBUG_VALUE: fmo_init:p_Vid <- $rbx
	#DEBUG_VALUE: fmo_init:pSlice <- [DW_OP_plus_uconst 16] [$rsp+0]
	#DEBUG_VALUE: fmo_init:pps <- [DW_OP_plus_uconst 24, DW_OP_deref] $rsp
	#DEBUG_VALUE: FmoGenerateMapUnitToSliceGroupMap:p_Vid <- $rbx
	#DEBUG_VALUE: FmoGenerateMapUnitToSliceGroupMap:pps <- [DW_OP_plus_uconst 24, DW_OP_deref] $rsp
	#DEBUG_VALUE: FmoGenerateMapUnitToSliceGroupMap:NumSliceGroupMapUnits <- $ebp
	#DEBUG_VALUE: FmoGenerateType1MapUnitMap:p_Vid <- $rbx
	#DEBUG_VALUE: FmoGenerateType1MapUnitMap:PicSizeInMapUnits <- $ebp
	#DEBUG_VALUE: FmoGenerateType1MapUnitMap:pps <- $rsi
	#DEBUG_VALUE: FmoGenerateType1MapUnitMap:i <- $rcx
	.loc	0 378 70 is_stmt 1              # ldecod_src/fmo.c:378:70
	movl	%ecx, %eax
	xorl	%edx, %edx
	divl	848996(%rbx)
	.loc	0 378 99 is_stmt 0              # ldecod_src/fmo.c:378:99
	movl	2044(%rsi), %edi
	.loc	0 378 122                       # ldecod_src/fmo.c:378:122
	incl	%edi
	.loc	0 378 92                        # ldecod_src/fmo.c:378:92
	imull	%edi, %eax
	.loc	0 378 126                       # ldecod_src/fmo.c:378:126
	shrl	%eax
	.loc	0 378 65                        # ldecod_src/fmo.c:378:65
	addl	%edx, %eax
	.loc	0 379 33 is_stmt 1              # ldecod_src/fmo.c:379:33
	xorl	%edx, %edx
	divl	%edi
	.loc	0 378 12                        # ldecod_src/fmo.c:378:12
	movq	856712(%rbx), %rax
	.loc	0 378 38 is_stmt 0              # ldecod_src/fmo.c:378:38
	movl	%edx, (%rax,%rcx,4)
.Ltmp132:
	.loc	0 376 39 is_stmt 1              # ldecod_src/fmo.c:376:39
	incq	%rcx
.Ltmp133:
	#DEBUG_VALUE: FmoGenerateType1MapUnitMap:i <- $rcx
	.loc	0 376 17 is_stmt 0              # ldecod_src/fmo.c:376:17
	cmpq	%rcx, %r15
.Ltmp134:
	.loc	0 376 3                         # ldecod_src/fmo.c:376:3
	jne	.LBB0_24
	jmp	.LBB0_95
.Ltmp135:
.LBB0_79:                               # %sw.bb34.i
	#DEBUG_VALUE: fmo_init:p_Vid <- $rbx
	#DEBUG_VALUE: fmo_init:pSlice <- [DW_OP_plus_uconst 16] [$rsp+0]
	#DEBUG_VALUE: fmo_init:pps <- [DW_OP_plus_uconst 24, DW_OP_deref] $rsp
	#DEBUG_VALUE: FmoGenerateMapUnitToSliceGroupMap:p_Vid <- $rbx
	#DEBUG_VALUE: FmoGenerateMapUnitToSliceGroupMap:pps <- [DW_OP_plus_uconst 24, DW_OP_deref] $rsp
	#DEBUG_VALUE: FmoGenerateMapUnitToSliceGroupMap:NumSliceGroupMapUnits <- $ebp
	#DEBUG_VALUE: FmoGenerateType5MapUnitMap:p_Vid <- $rbx
	#DEBUG_VALUE: FmoGenerateType5MapUnitMap:PicSizeInMapUnits <- $ebp
	#DEBUG_VALUE: FmoGenerateType5MapUnitMap:currSlice <- undef
	.loc	0 523 42 is_stmt 1              # ldecod_src/fmo.c:523:42
	movq	8(%rbx), %rax
.Ltmp136:
	#DEBUG_VALUE: FmoGenerateType5MapUnitMap:pps <- $rax
	.loc	0 525 47                        # ldecod_src/fmo.c:525:47
	movl	2152(%rax), %ecx
	.loc	0 525 78 is_stmt 0              # ldecod_src/fmo.c:525:78
	incl	%ecx
	movq	16(%rsp), %rdx                  # 8-byte Reload
	.loc	0 525 83                        # ldecod_src/fmo.c:525:83
	imull	228(%rdx), %ecx
.Ltmp137:
	#DEBUG_VALUE: imin:a <- $ecx
	#DEBUG_VALUE: imin:b <- $ebp
	.loc	5 44 10 is_stmt 1               # ldecod_src/inc/ifunctions.h:44:10
	cmpl	%ebp, %ecx
	cmovgel	%ebp, %ecx
.Ltmp138:
	#DEBUG_VALUE: FmoGenerateType5MapUnitMap:mapUnitsInSliceGroup0 <- $ecx
	.loc	0 526 35                        # ldecod_src/fmo.c:526:35
	subl	%ecx, %ebp
.Ltmp139:
	#DEBUG_VALUE: imin:b <- $r15d
	#DEBUG_VALUE: FmoGenerateType5MapUnitMap:PicSizeInMapUnits <- $r15d
	#DEBUG_VALUE: FmoGenerateMapUnitToSliceGroupMap:NumSliceGroupMapUnits <- $r15d
	cmpl	$0, 2148(%rax)
	cmovel	%ecx, %ebp
.Ltmp140:
	#DEBUG_VALUE: FmoGenerateType5MapUnitMap:sizeOfUpperLeftGroup <- $ebp
	#DEBUG_VALUE: FmoGenerateType5MapUnitMap:k <- 0
	#DEBUG_VALUE: FmoGenerateType5MapUnitMap:j <- 0
	.loc	0 530 26                        # ldecod_src/fmo.c:530:26
	movl	848996(%rbx), %esi
	.loc	0 530 17 is_stmt 0              # ldecod_src/fmo.c:530:17
	testl	%esi, %esi
.Ltmp141:
	.loc	0 530 3                         # ldecod_src/fmo.c:530:3
	je	.LBB0_95
.Ltmp142:
# %bb.80:                               # %for.cond1.preheader.lr.ph.i.i
	#DEBUG_VALUE: fmo_init:p_Vid <- $rbx
	#DEBUG_VALUE: fmo_init:pSlice <- [DW_OP_plus_uconst 16] [$rsp+0]
	#DEBUG_VALUE: fmo_init:pps <- [DW_OP_plus_uconst 24, DW_OP_deref] $rsp
	#DEBUG_VALUE: FmoGenerateMapUnitToSliceGroupMap:p_Vid <- $rbx
	#DEBUG_VALUE: FmoGenerateMapUnitToSliceGroupMap:pps <- [DW_OP_plus_uconst 24, DW_OP_deref] $rsp
	#DEBUG_VALUE: FmoGenerateMapUnitToSliceGroupMap:NumSliceGroupMapUnits <- $r15d
	#DEBUG_VALUE: FmoGenerateType5MapUnitMap:p_Vid <- $rbx
	#DEBUG_VALUE: FmoGenerateType5MapUnitMap:PicSizeInMapUnits <- $r15d
	#DEBUG_VALUE: FmoGenerateType5MapUnitMap:pps <- $rax
	#DEBUG_VALUE: FmoGenerateType5MapUnitMap:mapUnitsInSliceGroup0 <- $ecx
	#DEBUG_VALUE: FmoGenerateType5MapUnitMap:sizeOfUpperLeftGroup <- $ebp
	#DEBUG_VALUE: FmoGenerateType5MapUnitMap:k <- 0
	#DEBUG_VALUE: FmoGenerateType5MapUnitMap:j <- 0
	.loc	0 531 19 is_stmt 1              # ldecod_src/fmo.c:531:19
	cmpl	$0, 849000(%rbx)
	je	.LBB0_95
.Ltmp143:
# %bb.81:                               # %for.cond1.preheader.i.i.preheader
	#DEBUG_VALUE: fmo_init:p_Vid <- $rbx
	#DEBUG_VALUE: fmo_init:pSlice <- [DW_OP_plus_uconst 16] [$rsp+0]
	#DEBUG_VALUE: fmo_init:pps <- [DW_OP_plus_uconst 24, DW_OP_deref] $rsp
	#DEBUG_VALUE: FmoGenerateMapUnitToSliceGroupMap:p_Vid <- $rbx
	#DEBUG_VALUE: FmoGenerateMapUnitToSliceGroupMap:pps <- [DW_OP_plus_uconst 24, DW_OP_deref] $rsp
	#DEBUG_VALUE: FmoGenerateMapUnitToSliceGroupMap:NumSliceGroupMapUnits <- $r15d
	#DEBUG_VALUE: FmoGenerateType5MapUnitMap:p_Vid <- $rbx
	#DEBUG_VALUE: FmoGenerateType5MapUnitMap:PicSizeInMapUnits <- $r15d
	#DEBUG_VALUE: FmoGenerateType5MapUnitMap:pps <- $rax
	#DEBUG_VALUE: FmoGenerateType5MapUnitMap:mapUnitsInSliceGroup0 <- $ecx
	#DEBUG_VALUE: FmoGenerateType5MapUnitMap:sizeOfUpperLeftGroup <- $ebp
	#DEBUG_VALUE: FmoGenerateType5MapUnitMap:k <- 0
	#DEBUG_VALUE: FmoGenerateType5MapUnitMap:j <- 0
	.loc	0 0 19 is_stmt 0                # ldecod_src/fmo.c:0:19
	xorl	%ecx, %ecx
.Ltmp144:
	movl	$1, %edi
	xorl	%edx, %edx
	jmp	.LBB0_82
.Ltmp145:
	.p2align	4, 0x90
.LBB0_83:                               #   in Loop: Header=BB0_82 Depth=1
	#DEBUG_VALUE: fmo_init:p_Vid <- $rbx
	#DEBUG_VALUE: fmo_init:pSlice <- [DW_OP_plus_uconst 16] [$rsp+0]
	#DEBUG_VALUE: fmo_init:pps <- [DW_OP_plus_uconst 24, DW_OP_deref] $rsp
	#DEBUG_VALUE: FmoGenerateMapUnitToSliceGroupMap:p_Vid <- $rbx
	#DEBUG_VALUE: FmoGenerateMapUnitToSliceGroupMap:pps <- [DW_OP_plus_uconst 24, DW_OP_deref] $rsp
	#DEBUG_VALUE: FmoGenerateMapUnitToSliceGroupMap:NumSliceGroupMapUnits <- $r15d
	#DEBUG_VALUE: FmoGenerateType5MapUnitMap:p_Vid <- $rbx
	#DEBUG_VALUE: FmoGenerateType5MapUnitMap:PicSizeInMapUnits <- $r15d
	#DEBUG_VALUE: FmoGenerateType5MapUnitMap:pps <- $rax
	#DEBUG_VALUE: FmoGenerateType5MapUnitMap:sizeOfUpperLeftGroup <- $ebp
	#DEBUG_VALUE: FmoGenerateType5MapUnitMap:k <- $ecx
	#DEBUG_VALUE: FmoGenerateType5MapUnitMap:j <- $edx
	#DEBUG_VALUE: FmoGenerateType5MapUnitMap:i <- 0
	xorl	%edi, %edi
	.loc	0 530 42 is_stmt 1              # ldecod_src/fmo.c:530:42
	incl	%edx
.Ltmp146:
	#DEBUG_VALUE: FmoGenerateType5MapUnitMap:j <- $edx
	#DEBUG_VALUE: FmoGenerateType5MapUnitMap:k <- $ecx
	.loc	0 530 17 is_stmt 0              # ldecod_src/fmo.c:530:17
	cmpl	%esi, %edx
.Ltmp147:
	.loc	0 530 3                         # ldecod_src/fmo.c:530:3
	jae	.LBB0_95
.Ltmp148:
.LBB0_82:                               # %for.cond1.preheader.i.i
                                        # =>This Loop Header: Depth=1
                                        #     Child Loop BB0_85 Depth 2
	#DEBUG_VALUE: fmo_init:p_Vid <- $rbx
	#DEBUG_VALUE: fmo_init:pSlice <- [DW_OP_plus_uconst 16] [$rsp+0]
	#DEBUG_VALUE: fmo_init:pps <- [DW_OP_plus_uconst 24, DW_OP_deref] $rsp
	#DEBUG_VALUE: FmoGenerateMapUnitToSliceGroupMap:p_Vid <- $rbx
	#DEBUG_VALUE: FmoGenerateMapUnitToSliceGroupMap:pps <- [DW_OP_plus_uconst 24, DW_OP_deref] $rsp
	#DEBUG_VALUE: FmoGenerateMapUnitToSliceGroupMap:NumSliceGroupMapUnits <- $r15d
	#DEBUG_VALUE: FmoGenerateType5MapUnitMap:p_Vid <- $rbx
	#DEBUG_VALUE: FmoGenerateType5MapUnitMap:PicSizeInMapUnits <- $r15d
	#DEBUG_VALUE: FmoGenerateType5MapUnitMap:pps <- $rax
	#DEBUG_VALUE: FmoGenerateType5MapUnitMap:sizeOfUpperLeftGroup <- $ebp
	#DEBUG_VALUE: FmoGenerateType5MapUnitMap:j <- $edx
	#DEBUG_VALUE: FmoGenerateType5MapUnitMap:k <- $ecx
	#DEBUG_VALUE: FmoGenerateType5MapUnitMap:i <- 0
	.loc	0 531 19 is_stmt 1              # ldecod_src/fmo.c:531:19
	testl	%edi, %edi
.Ltmp149:
	.loc	0 531 5 is_stmt 0               # ldecod_src/fmo.c:531:5
	je	.LBB0_83
.Ltmp150:
# %bb.84:                               # %for.body3.i.i.preheader
                                        #   in Loop: Header=BB0_82 Depth=1
	#DEBUG_VALUE: fmo_init:p_Vid <- $rbx
	#DEBUG_VALUE: fmo_init:pSlice <- [DW_OP_plus_uconst 16] [$rsp+0]
	#DEBUG_VALUE: fmo_init:pps <- [DW_OP_plus_uconst 24, DW_OP_deref] $rsp
	#DEBUG_VALUE: FmoGenerateMapUnitToSliceGroupMap:p_Vid <- $rbx
	#DEBUG_VALUE: FmoGenerateMapUnitToSliceGroupMap:pps <- [DW_OP_plus_uconst 24, DW_OP_deref] $rsp
	#DEBUG_VALUE: FmoGenerateMapUnitToSliceGroupMap:NumSliceGroupMapUnits <- $r15d
	#DEBUG_VALUE: FmoGenerateType5MapUnitMap:p_Vid <- $rbx
	#DEBUG_VALUE: FmoGenerateType5MapUnitMap:PicSizeInMapUnits <- $r15d
	#DEBUG_VALUE: FmoGenerateType5MapUnitMap:pps <- $rax
	#DEBUG_VALUE: FmoGenerateType5MapUnitMap:sizeOfUpperLeftGroup <- $ebp
	#DEBUG_VALUE: FmoGenerateType5MapUnitMap:k <- $ecx
	#DEBUG_VALUE: FmoGenerateType5MapUnitMap:j <- $edx
	#DEBUG_VALUE: FmoGenerateType5MapUnitMap:i <- 0
	.loc	0 0 5                           # ldecod_src/fmo.c:0:5
	xorl	%r8d, %r8d
.Ltmp151:
	.p2align	4, 0x90
.LBB0_85:                               # %for.body3.i.i
                                        #   Parent Loop BB0_82 Depth=1
                                        # =>  This Inner Loop Header: Depth=2
	#DEBUG_VALUE: fmo_init:p_Vid <- $rbx
	#DEBUG_VALUE: fmo_init:pSlice <- [DW_OP_plus_uconst 16] [$rsp+0]
	#DEBUG_VALUE: fmo_init:pps <- [DW_OP_plus_uconst 24, DW_OP_deref] $rsp
	#DEBUG_VALUE: FmoGenerateMapUnitToSliceGroupMap:p_Vid <- $rbx
	#DEBUG_VALUE: FmoGenerateMapUnitToSliceGroupMap:pps <- [DW_OP_plus_uconst 24, DW_OP_deref] $rsp
	#DEBUG_VALUE: FmoGenerateMapUnitToSliceGroupMap:NumSliceGroupMapUnits <- $r15d
	#DEBUG_VALUE: FmoGenerateType5MapUnitMap:p_Vid <- $rbx
	#DEBUG_VALUE: FmoGenerateType5MapUnitMap:PicSizeInMapUnits <- $r15d
	#DEBUG_VALUE: FmoGenerateType5MapUnitMap:pps <- $rax
	#DEBUG_VALUE: FmoGenerateType5MapUnitMap:sizeOfUpperLeftGroup <- $ebp
	#DEBUG_VALUE: FmoGenerateType5MapUnitMap:j <- $edx
	#DEBUG_VALUE: FmoGenerateType5MapUnitMap:k <- undef
	#DEBUG_VALUE: FmoGenerateType5MapUnitMap:i <- $r8d
	.loc	0 532 14 is_stmt 1              # ldecod_src/fmo.c:532:14
	leal	(%rcx,%r8), %esi
	.loc	0 0 0 is_stmt 0                 # ldecod_src/fmo.c:0:0
	movl	2148(%rax), %edi
.Ltmp152:
	.loc	0 532 13                        # ldecod_src/fmo.c:532:13
	movl	$1, %r9d
	subl	%edi, %r9d
.Ltmp153:
	.loc	0 532 17                        # ldecod_src/fmo.c:532:17
	cmpl	%ebp, %esi
.Ltmp154:
	.loc	0 532 13                        # ldecod_src/fmo.c:532:13
	cmovbl	%edi, %r9d
.Ltmp155:
	.loc	0 0 0                           # ldecod_src/fmo.c:0:0
	movq	856712(%rbx), %rsi
	movl	848996(%rbx), %edi
	imull	%r8d, %edi
	addl	%edx, %edi
	movl	%r9d, (%rsi,%rdi,4)
.Ltmp156:
	.loc	0 531 50 is_stmt 1              # ldecod_src/fmo.c:531:50
	incl	%r8d
.Ltmp157:
	#DEBUG_VALUE: FmoGenerateType5MapUnitMap:i <- $r8d
	.loc	0 531 28 is_stmt 0              # ldecod_src/fmo.c:531:28
	movl	849000(%rbx), %edi
	.loc	0 531 19                        # ldecod_src/fmo.c:531:19
	cmpl	%edi, %r8d
.Ltmp158:
	.loc	0 531 5                         # ldecod_src/fmo.c:531:5
	jb	.LBB0_85
.Ltmp159:
# %bb.86:                               # %for.inc18.loopexit.i.i
                                        #   in Loop: Header=BB0_82 Depth=1
	#DEBUG_VALUE: fmo_init:p_Vid <- $rbx
	#DEBUG_VALUE: fmo_init:pSlice <- [DW_OP_plus_uconst 16] [$rsp+0]
	#DEBUG_VALUE: fmo_init:pps <- [DW_OP_plus_uconst 24, DW_OP_deref] $rsp
	#DEBUG_VALUE: FmoGenerateMapUnitToSliceGroupMap:p_Vid <- $rbx
	#DEBUG_VALUE: FmoGenerateMapUnitToSliceGroupMap:pps <- [DW_OP_plus_uconst 24, DW_OP_deref] $rsp
	#DEBUG_VALUE: FmoGenerateMapUnitToSliceGroupMap:NumSliceGroupMapUnits <- $r15d
	#DEBUG_VALUE: FmoGenerateType5MapUnitMap:p_Vid <- $rbx
	#DEBUG_VALUE: FmoGenerateType5MapUnitMap:PicSizeInMapUnits <- $r15d
	#DEBUG_VALUE: FmoGenerateType5MapUnitMap:pps <- $rax
	#DEBUG_VALUE: FmoGenerateType5MapUnitMap:sizeOfUpperLeftGroup <- $ebp
	#DEBUG_VALUE: FmoGenerateType5MapUnitMap:j <- $edx
	#DEBUG_VALUE: FmoGenerateType5MapUnitMap:i <- $r8d
	.loc	0 530 26 is_stmt 1              # ldecod_src/fmo.c:530:26
	movl	848996(%rbx), %esi
	.loc	0 530 42 is_stmt 0              # ldecod_src/fmo.c:530:42
	addl	%r8d, %ecx
	incl	%edx
.Ltmp160:
	#DEBUG_VALUE: FmoGenerateType5MapUnitMap:j <- undef
	#DEBUG_VALUE: FmoGenerateType5MapUnitMap:k <- $ecx
	.loc	0 530 17                        # ldecod_src/fmo.c:530:17
	cmpl	%esi, %edx
.Ltmp161:
	.loc	0 530 3                         # ldecod_src/fmo.c:530:3
	jb	.LBB0_82
	jmp	.LBB0_95
.Ltmp162:
.LBB0_88:                               # %sw.bb35.i
	#DEBUG_VALUE: fmo_init:p_Vid <- $rbx
	#DEBUG_VALUE: fmo_init:pSlice <- [DW_OP_plus_uconst 16] [$rsp+0]
	#DEBUG_VALUE: fmo_init:pps <- [DW_OP_plus_uconst 24, DW_OP_deref] $rsp
	#DEBUG_VALUE: FmoGenerateMapUnitToSliceGroupMap:p_Vid <- $rbx
	#DEBUG_VALUE: FmoGenerateMapUnitToSliceGroupMap:pps <- [DW_OP_plus_uconst 24, DW_OP_deref] $rsp
	#DEBUG_VALUE: FmoGenerateMapUnitToSliceGroupMap:NumSliceGroupMapUnits <- $ebp
	#DEBUG_VALUE: FmoGenerateType6MapUnitMap:p_Vid <- $rbx
	#DEBUG_VALUE: FmoGenerateType6MapUnitMap:PicSizeInMapUnits <- $ebp
	#DEBUG_VALUE: FmoGenerateType6MapUnitMap:pps <- undef
	#DEBUG_VALUE: FmoGenerateType6MapUnitMap:i <- 0
	.loc	0 550 14 is_stmt 1              # ldecod_src/fmo.c:550:14
	testl	%ebp, %ebp
.Ltmp163:
	.loc	0 550 3 is_stmt 0               # ldecod_src/fmo.c:550:3
	je	.LBB0_95
.Ltmp164:
# %bb.89:                               # %for.body.lr.ph.i141.i
	#DEBUG_VALUE: fmo_init:p_Vid <- $rbx
	#DEBUG_VALUE: fmo_init:pSlice <- [DW_OP_plus_uconst 16] [$rsp+0]
	#DEBUG_VALUE: fmo_init:pps <- [DW_OP_plus_uconst 24, DW_OP_deref] $rsp
	#DEBUG_VALUE: FmoGenerateMapUnitToSliceGroupMap:p_Vid <- $rbx
	#DEBUG_VALUE: FmoGenerateMapUnitToSliceGroupMap:pps <- [DW_OP_plus_uconst 24, DW_OP_deref] $rsp
	#DEBUG_VALUE: FmoGenerateMapUnitToSliceGroupMap:NumSliceGroupMapUnits <- $ebp
	#DEBUG_VALUE: FmoGenerateType6MapUnitMap:p_Vid <- $rbx
	#DEBUG_VALUE: FmoGenerateType6MapUnitMap:PicSizeInMapUnits <- $ebp
	#DEBUG_VALUE: FmoGenerateType6MapUnitMap:i <- 0
	.loc	0 548 42 is_stmt 1              # ldecod_src/fmo.c:548:42
	movq	8(%rbx), %rax
.Ltmp165:
	#DEBUG_VALUE: FmoGenerateType6MapUnitMap:pps <- $rax
	.loc	0 550 3                         # ldecod_src/fmo.c:550:3
	movl	%r15d, %ecx
	andl	$3, %ecx
	cmpl	$4, %ebp
	jae	.LBB0_91
.Ltmp166:
# %bb.90:
	#DEBUG_VALUE: fmo_init:p_Vid <- $rbx
	#DEBUG_VALUE: fmo_init:pSlice <- [DW_OP_plus_uconst 16] [$rsp+0]
	#DEBUG_VALUE: fmo_init:pps <- [DW_OP_plus_uconst 24, DW_OP_deref] $rsp
	#DEBUG_VALUE: FmoGenerateMapUnitToSliceGroupMap:p_Vid <- $rbx
	#DEBUG_VALUE: FmoGenerateMapUnitToSliceGroupMap:pps <- [DW_OP_plus_uconst 24, DW_OP_deref] $rsp
	#DEBUG_VALUE: FmoGenerateMapUnitToSliceGroupMap:NumSliceGroupMapUnits <- $ebp
	#DEBUG_VALUE: FmoGenerateType6MapUnitMap:p_Vid <- $rbx
	#DEBUG_VALUE: FmoGenerateType6MapUnitMap:PicSizeInMapUnits <- $ebp
	#DEBUG_VALUE: FmoGenerateType6MapUnitMap:pps <- $rax
	#DEBUG_VALUE: FmoGenerateType6MapUnitMap:i <- 0
	.loc	0 0 3 is_stmt 0                 # ldecod_src/fmo.c:0:3
	xorl	%edx, %edx
	.loc	0 550 3                         # ldecod_src/fmo.c:550:3
	jmp	.LBB0_93
.Ltmp167:
.LBB0_122:                              # %for.cond38.preheader.i
	#DEBUG_VALUE: fmo_init:p_Vid <- $rbx
	#DEBUG_VALUE: fmo_init:pSlice <- [DW_OP_plus_uconst 16] [$rsp+0]
	#DEBUG_VALUE: fmo_init:pps <- [DW_OP_plus_uconst 24, DW_OP_deref] $rsp
	#DEBUG_VALUE: FmoGenerateMbToSliceGroupMap:p_Vid <- $rbx
	#DEBUG_VALUE: FmoGenerateMbToSliceGroupMap:pSlice <- [DW_OP_plus_uconst 16, DW_OP_deref] $rsp
	#DEBUG_VALUE: FmoGenerateMbToSliceGroupMap:sps <- $r14
	#DEBUG_VALUE: FmoGenerateMbToSliceGroupMap:i <- 0
	.loc	0 0 0                           # ldecod_src/fmo.c:0:0
	testq	%r15, %r15
	movq	24(%rsp), %r10                  # 8-byte Reload
.Ltmp168:
	.loc	0 155 7 is_stmt 1               # ldecod_src/fmo.c:155:7
	je	.LBB0_125
.Ltmp169:
# %bb.123:                              # %for.body42.lr.ph.i
	#DEBUG_VALUE: fmo_init:p_Vid <- $rbx
	#DEBUG_VALUE: fmo_init:pSlice <- [DW_OP_plus_uconst 16] [$rsp+0]
	#DEBUG_VALUE: fmo_init:pps <- [DW_OP_plus_uconst 24, DW_OP_deref] $rsp
	#DEBUG_VALUE: FmoGenerateMbToSliceGroupMap:p_Vid <- $rbx
	#DEBUG_VALUE: FmoGenerateMbToSliceGroupMap:pSlice <- [DW_OP_plus_uconst 16, DW_OP_deref] $rsp
	#DEBUG_VALUE: FmoGenerateMbToSliceGroupMap:sps <- $r14
	#DEBUG_VALUE: FmoGenerateMbToSliceGroupMap:i <- 0
	.loc	0 0 7 is_stmt 0                 # ldecod_src/fmo.c:0:7
	xorl	%ecx, %ecx
.Ltmp170:
	.p2align	4, 0x90
.LBB0_124:                              # %for.body42.i
                                        # =>This Inner Loop Header: Depth=1
	#DEBUG_VALUE: fmo_init:p_Vid <- $rbx
	#DEBUG_VALUE: fmo_init:pSlice <- [DW_OP_plus_uconst 16] [$rsp+0]
	#DEBUG_VALUE: fmo_init:pps <- [DW_OP_plus_uconst 24, DW_OP_deref] $rsp
	#DEBUG_VALUE: FmoGenerateMbToSliceGroupMap:p_Vid <- $rbx
	#DEBUG_VALUE: FmoGenerateMbToSliceGroupMap:pSlice <- [DW_OP_plus_uconst 16, DW_OP_deref] $rsp
	#DEBUG_VALUE: FmoGenerateMbToSliceGroupMap:sps <- $r14
	#DEBUG_VALUE: FmoGenerateMbToSliceGroupMap:i <- $rcx
	.loc	0 157 46 is_stmt 1              # ldecod_src/fmo.c:157:46
	movq	856712(%rbx), %rdi
	.loc	0 157 82 is_stmt 0              # ldecod_src/fmo.c:157:82
	movl	848996(%rbx), %r8d
	.loc	0 157 74                        # ldecod_src/fmo.c:157:74
	leal	(%r8,%r8), %esi
	.loc	0 157 71                        # ldecod_src/fmo.c:157:71
	movl	%ecx, %eax
	xorl	%edx, %edx
	divl	%esi
	movl	%eax, %esi
	.loc	0 157 97                        # ldecod_src/fmo.c:157:97
	imull	%r8d, %esi
	.loc	0 157 121                       # ldecod_src/fmo.c:157:121
	movl	%ecx, %eax
	xorl	%edx, %edx
	divl	%r8d
                                        # kill: def $edx killed $edx def $rdx
	.loc	0 157 118                       # ldecod_src/fmo.c:157:118
	addl	%esi, %edx
	.loc	0 157 39                        # ldecod_src/fmo.c:157:39
	movl	(%rdi,%rdx,4), %eax
	.loc	0 157 16                        # ldecod_src/fmo.c:157:16
	movq	856704(%rbx), %rdx
	.loc	0 157 37                        # ldecod_src/fmo.c:157:37
	movl	%eax, (%rdx,%rcx,4)
.Ltmp171:
	.loc	0 155 41 is_stmt 1              # ldecod_src/fmo.c:155:41
	incq	%rcx
.Ltmp172:
	#DEBUG_VALUE: FmoGenerateMbToSliceGroupMap:i <- $rcx
	.loc	0 155 26 is_stmt 0              # ldecod_src/fmo.c:155:26
	movl	849012(%rbx), %eax
	.loc	0 155 18                        # ldecod_src/fmo.c:155:18
	cmpq	%rax, %rcx
.Ltmp173:
	.loc	0 155 7                         # ldecod_src/fmo.c:155:7
	jb	.LBB0_124
.Ltmp174:
.LBB0_125:                              # %FmoGenerateMbToSliceGroupMap.exit
	#DEBUG_VALUE: fmo_init:p_Vid <- $rbx
	#DEBUG_VALUE: fmo_init:pSlice <- [DW_OP_plus_uconst 16] [$rsp+0]
	#DEBUG_VALUE: fmo_init:pps <- [DW_OP_plus_uconst 24, DW_OP_deref] $rsp
	.loc	0 184 37 is_stmt 1              # ldecod_src/fmo.c:184:37
	movl	2044(%r10), %eax
	.loc	0 184 61 is_stmt 0              # ldecod_src/fmo.c:184:61
	incl	%eax
	.loc	0 184 30                        # ldecod_src/fmo.c:184:30
	movl	%eax, 856720(%rbx)
	.loc	0 213 3 is_stmt 1               # ldecod_src/fmo.c:213:3
	xorl	%eax, %eax
	.loc	0 213 3 epilogue_begin is_stmt 0 # ldecod_src/fmo.c:213:3
	addq	$40, %rsp
	.cfi_def_cfa_offset 56
	popq	%rbx
.Ltmp175:
	#DEBUG_VALUE: fmo_init:p_Vid <- [DW_OP_LLVM_entry_value 1] $rdi
	.cfi_def_cfa_offset 48
	popq	%r12
	.cfi_def_cfa_offset 40
	popq	%r13
	.cfi_def_cfa_offset 32
	popq	%r14
	.cfi_def_cfa_offset 24
	popq	%r15
	.cfi_def_cfa_offset 16
	popq	%rbp
	.cfi_def_cfa_offset 8
	retq
.Ltmp176:
.LBB0_77:                               # %for.body.lr.ph.i110.i.new
	.cfi_def_cfa_offset 96
	#DEBUG_VALUE: fmo_init:p_Vid <- $rbx
	#DEBUG_VALUE: fmo_init:pSlice <- [DW_OP_plus_uconst 16] [$rsp+0]
	#DEBUG_VALUE: fmo_init:pps <- [DW_OP_plus_uconst 24, DW_OP_deref] $rsp
	#DEBUG_VALUE: FmoGenerateMapUnitToSliceGroupMap:p_Vid <- $rbx
	#DEBUG_VALUE: FmoGenerateMapUnitToSliceGroupMap:pps <- [DW_OP_plus_uconst 24, DW_OP_deref] $rsp
	#DEBUG_VALUE: FmoGenerateMapUnitToSliceGroupMap:NumSliceGroupMapUnits <- $ebp
	#DEBUG_VALUE: FmoGenerateType4MapUnitMap:p_Vid <- $rbx
	#DEBUG_VALUE: FmoGenerateType4MapUnitMap:PicSizeInMapUnits <- $ebp
	#DEBUG_VALUE: FmoGenerateType4MapUnitMap:pps <- $rax
	#DEBUG_VALUE: FmoGenerateType4MapUnitMap:mapUnitsInSliceGroup0 <- $edx
	#DEBUG_VALUE: FmoGenerateType4MapUnitMap:sizeOfUpperLeftGroup <- $ecx
	#DEBUG_VALUE: FmoGenerateType4MapUnitMap:i <- 0
	.loc	0 506 3 is_stmt 1               # ldecod_src/fmo.c:506:3
	movl	%r15d, %esi
	andl	$-2, %esi
	xorl	%edx, %edx
.Ltmp177:
	.p2align	4, 0x90
.LBB0_78:                               # %for.body.i117.i
                                        # =>This Inner Loop Header: Depth=1
	#DEBUG_VALUE: fmo_init:p_Vid <- $rbx
	#DEBUG_VALUE: fmo_init:pSlice <- [DW_OP_plus_uconst 16] [$rsp+0]
	#DEBUG_VALUE: fmo_init:pps <- [DW_OP_plus_uconst 24, DW_OP_deref] $rsp
	#DEBUG_VALUE: FmoGenerateMapUnitToSliceGroupMap:p_Vid <- $rbx
	#DEBUG_VALUE: FmoGenerateMapUnitToSliceGroupMap:pps <- [DW_OP_plus_uconst 24, DW_OP_deref] $rsp
	#DEBUG_VALUE: FmoGenerateMapUnitToSliceGroupMap:NumSliceGroupMapUnits <- $ebp
	#DEBUG_VALUE: FmoGenerateType4MapUnitMap:p_Vid <- $rbx
	#DEBUG_VALUE: FmoGenerateType4MapUnitMap:PicSizeInMapUnits <- $ebp
	#DEBUG_VALUE: FmoGenerateType4MapUnitMap:pps <- $rax
	#DEBUG_VALUE: FmoGenerateType4MapUnitMap:sizeOfUpperLeftGroup <- $ecx
	#DEBUG_VALUE: FmoGenerateType4MapUnitMap:i <- $rdx
	.loc	0 0 0 is_stmt 0                 # ldecod_src/fmo.c:0:0
	movl	2148(%rax), %edi
.Ltmp178:
	.loc	0 507 9 is_stmt 1               # ldecod_src/fmo.c:507:9
	movl	$1, %r8d
	subl	%edi, %r8d
.Ltmp179:
	.loc	0 507 11 is_stmt 0              # ldecod_src/fmo.c:507:11
	cmpq	%rcx, %rdx
.Ltmp180:
	.loc	0 507 9                         # ldecod_src/fmo.c:507:9
	cmovbl	%edi, %r8d
.Ltmp181:
	.loc	0 0 0                           # ldecod_src/fmo.c:0:0
	movq	856712(%rbx), %rdi
	movl	%r8d, (%rdi,%rdx,4)
.Ltmp182:
	#DEBUG_VALUE: FmoGenerateType4MapUnitMap:i <- [DW_OP_constu 1, DW_OP_or, DW_OP_stack_value] $rdx
	.loc	0 507 11                        # ldecod_src/fmo.c:507:11
	leaq	1(%rdx), %rdi
	.loc	0 0 0                           # ldecod_src/fmo.c:0:0
	movl	2148(%rax), %r8d
.Ltmp183:
	.loc	0 507 9                         # ldecod_src/fmo.c:507:9
	movl	$1, %r9d
	subl	%r8d, %r9d
.Ltmp184:
	.loc	0 507 11                        # ldecod_src/fmo.c:507:11
	cmpq	%rcx, %rdi
.Ltmp185:
	.loc	0 507 9                         # ldecod_src/fmo.c:507:9
	cmovbl	%r8d, %r9d
.Ltmp186:
	.loc	0 0 0                           # ldecod_src/fmo.c:0:0
	movq	856712(%rbx), %rdi
	movl	%r9d, 4(%rdi,%rdx,4)
.Ltmp187:
	.loc	0 506 39 is_stmt 1              # ldecod_src/fmo.c:506:39
	addq	$2, %rdx
.Ltmp188:
	#DEBUG_VALUE: FmoGenerateType4MapUnitMap:i <- $rdx
	.loc	0 506 3 is_stmt 0               # ldecod_src/fmo.c:506:3
	cmpq	%rsi, %rdx
	jne	.LBB0_78
.Ltmp189:
.LBB0_75:                               # %FmoGenerateMapUnitToSliceGroupMap.exit.loopexit93.unr-lcssa
	#DEBUG_VALUE: fmo_init:p_Vid <- $rbx
	#DEBUG_VALUE: fmo_init:pSlice <- [DW_OP_plus_uconst 16] [$rsp+0]
	#DEBUG_VALUE: fmo_init:pps <- [DW_OP_plus_uconst 24, DW_OP_deref] $rsp
	#DEBUG_VALUE: FmoGenerateMapUnitToSliceGroupMap:p_Vid <- $rbx
	#DEBUG_VALUE: FmoGenerateMapUnitToSliceGroupMap:pps <- [DW_OP_plus_uconst 24, DW_OP_deref] $rsp
	#DEBUG_VALUE: FmoGenerateMapUnitToSliceGroupMap:NumSliceGroupMapUnits <- $ebp
	#DEBUG_VALUE: FmoGenerateType4MapUnitMap:p_Vid <- $rbx
	#DEBUG_VALUE: FmoGenerateType4MapUnitMap:PicSizeInMapUnits <- $ebp
	#DEBUG_VALUE: FmoGenerateType4MapUnitMap:pps <- $rax
	#DEBUG_VALUE: FmoGenerateType4MapUnitMap:sizeOfUpperLeftGroup <- $ecx
	testb	$1, %r15b
	je	.LBB0_95
.Ltmp190:
# %bb.76:                               # %for.body.i117.i.epil
	#DEBUG_VALUE: fmo_init:p_Vid <- $rbx
	#DEBUG_VALUE: fmo_init:pSlice <- [DW_OP_plus_uconst 16] [$rsp+0]
	#DEBUG_VALUE: fmo_init:pps <- [DW_OP_plus_uconst 24, DW_OP_deref] $rsp
	#DEBUG_VALUE: FmoGenerateMapUnitToSliceGroupMap:p_Vid <- $rbx
	#DEBUG_VALUE: FmoGenerateMapUnitToSliceGroupMap:pps <- [DW_OP_plus_uconst 24, DW_OP_deref] $rsp
	#DEBUG_VALUE: FmoGenerateMapUnitToSliceGroupMap:NumSliceGroupMapUnits <- $ebp
	#DEBUG_VALUE: FmoGenerateType4MapUnitMap:p_Vid <- $rbx
	#DEBUG_VALUE: FmoGenerateType4MapUnitMap:PicSizeInMapUnits <- $ebp
	#DEBUG_VALUE: FmoGenerateType4MapUnitMap:pps <- $rax
	#DEBUG_VALUE: FmoGenerateType4MapUnitMap:sizeOfUpperLeftGroup <- $ecx
	#DEBUG_VALUE: FmoGenerateType4MapUnitMap:i <- $rdx
	.loc	0 0 0                           # ldecod_src/fmo.c:0:0
	movl	2148(%rax), %eax
.Ltmp191:
	movl	$1, %esi
.Ltmp192:
	.loc	0 507 9 is_stmt 1               # ldecod_src/fmo.c:507:9
	subl	%eax, %esi
.Ltmp193:
	.loc	0 507 11 is_stmt 0              # ldecod_src/fmo.c:507:11
	cmpq	%rcx, %rdx
.Ltmp194:
	.loc	0 507 9                         # ldecod_src/fmo.c:507:9
	cmovbl	%eax, %esi
.Ltmp195:
	.loc	0 0 0                           # ldecod_src/fmo.c:0:0
	movq	856712(%rbx), %rax
	movl	%esi, (%rax,%rdx,4)
.Ltmp196:
	#DEBUG_VALUE: FmoGenerateType4MapUnitMap:i <- [DW_OP_plus_uconst 1, DW_OP_stack_value] $rdx
	.loc	0 121 42 is_stmt 1              # ldecod_src/fmo.c:121:42
	jmp	.LBB0_95
.Ltmp197:
.LBB0_28:                               # %for.body.lr.ph.i80.i.new
	#DEBUG_VALUE: fmo_init:p_Vid <- $rbx
	#DEBUG_VALUE: fmo_init:pSlice <- [DW_OP_plus_uconst 16] [$rsp+0]
	#DEBUG_VALUE: fmo_init:pps <- [DW_OP_plus_uconst 24, DW_OP_deref] $rsp
	#DEBUG_VALUE: FmoGenerateMapUnitToSliceGroupMap:p_Vid <- $rbx
	#DEBUG_VALUE: FmoGenerateMapUnitToSliceGroupMap:pps <- [DW_OP_plus_uconst 24, DW_OP_deref] $rsp
	#DEBUG_VALUE: FmoGenerateMapUnitToSliceGroupMap:NumSliceGroupMapUnits <- $ebp
	#DEBUG_VALUE: FmoGenerateType2MapUnitMap:p_Vid <- $rbx
	#DEBUG_VALUE: FmoGenerateType2MapUnitMap:PicSizeInMapUnits <- $ebp
	#DEBUG_VALUE: FmoGenerateType2MapUnitMap:pps <- $r8
	#DEBUG_VALUE: FmoGenerateType2MapUnitMap:i <- 0
	.loc	0 397 3                         # ldecod_src/fmo.c:397:3
	andl	$-4, %r15d
	xorl	%edx, %edx
.Ltmp198:
	.p2align	4, 0x90
.LBB0_29:                               # %for.body.i84.i
                                        # =>This Inner Loop Header: Depth=1
	#DEBUG_VALUE: fmo_init:p_Vid <- $rbx
	#DEBUG_VALUE: fmo_init:pSlice <- [DW_OP_plus_uconst 16] [$rsp+0]
	#DEBUG_VALUE: fmo_init:pps <- [DW_OP_plus_uconst 24, DW_OP_deref] $rsp
	#DEBUG_VALUE: FmoGenerateMapUnitToSliceGroupMap:p_Vid <- $rbx
	#DEBUG_VALUE: FmoGenerateMapUnitToSliceGroupMap:pps <- [DW_OP_plus_uconst 24, DW_OP_deref] $rsp
	#DEBUG_VALUE: FmoGenerateMapUnitToSliceGroupMap:NumSliceGroupMapUnits <- $ebp
	#DEBUG_VALUE: FmoGenerateType2MapUnitMap:p_Vid <- $rbx
	#DEBUG_VALUE: FmoGenerateType2MapUnitMap:PicSizeInMapUnits <- $ebp
	#DEBUG_VALUE: FmoGenerateType2MapUnitMap:pps <- $r8
	#DEBUG_VALUE: FmoGenerateType2MapUnitMap:i <- $rdx
	.loc	0 398 12                        # ldecod_src/fmo.c:398:12
	movq	856712(%rbx), %rsi
	.loc	0 398 40 is_stmt 0              # ldecod_src/fmo.c:398:40
	movl	%eax, (%rsi,%rdx,4)
.Ltmp199:
	#DEBUG_VALUE: FmoGenerateType2MapUnitMap:i <- [DW_OP_constu 1, DW_OP_or, DW_OP_stack_value] $rdx
	.loc	0 398 12                        # ldecod_src/fmo.c:398:12
	movq	856712(%rbx), %rsi
	.loc	0 398 40                        # ldecod_src/fmo.c:398:40
	movl	%eax, 4(%rsi,%rdx,4)
.Ltmp200:
	#DEBUG_VALUE: FmoGenerateType2MapUnitMap:i <- [DW_OP_constu 2, DW_OP_or, DW_OP_stack_value] $rdx
	.loc	0 398 12                        # ldecod_src/fmo.c:398:12
	movq	856712(%rbx), %rsi
	.loc	0 398 40                        # ldecod_src/fmo.c:398:40
	movl	%eax, 8(%rsi,%rdx,4)
.Ltmp201:
	#DEBUG_VALUE: FmoGenerateType2MapUnitMap:i <- [DW_OP_constu 3, DW_OP_or, DW_OP_stack_value] $rdx
	.loc	0 398 12                        # ldecod_src/fmo.c:398:12
	movq	856712(%rbx), %rsi
	.loc	0 398 40                        # ldecod_src/fmo.c:398:40
	movl	%eax, 12(%rsi,%rdx,4)
	.loc	0 397 39 is_stmt 1              # ldecod_src/fmo.c:397:39
	addq	$4, %rdx
.Ltmp202:
	#DEBUG_VALUE: FmoGenerateType2MapUnitMap:i <- $rdx
	.loc	0 397 3 is_stmt 0               # ldecod_src/fmo.c:397:3
	cmpq	%rdx, %r15
	jne	.LBB0_29
.Ltmp203:
.LBB0_30:                               # %for.end.i.i.loopexit.unr-lcssa
	#DEBUG_VALUE: fmo_init:p_Vid <- $rbx
	#DEBUG_VALUE: fmo_init:pSlice <- [DW_OP_plus_uconst 16] [$rsp+0]
	#DEBUG_VALUE: fmo_init:pps <- [DW_OP_plus_uconst 24, DW_OP_deref] $rsp
	#DEBUG_VALUE: FmoGenerateMapUnitToSliceGroupMap:p_Vid <- $rbx
	#DEBUG_VALUE: FmoGenerateMapUnitToSliceGroupMap:pps <- [DW_OP_plus_uconst 24, DW_OP_deref] $rsp
	#DEBUG_VALUE: FmoGenerateMapUnitToSliceGroupMap:NumSliceGroupMapUnits <- $ebp
	#DEBUG_VALUE: FmoGenerateType2MapUnitMap:p_Vid <- $rbx
	#DEBUG_VALUE: FmoGenerateType2MapUnitMap:PicSizeInMapUnits <- $ebp
	#DEBUG_VALUE: FmoGenerateType2MapUnitMap:pps <- $r8
	testq	%rcx, %rcx
	je	.LBB0_32
.Ltmp204:
	.p2align	4, 0x90
.LBB0_31:                               # %for.body.i84.i.epil
                                        # =>This Inner Loop Header: Depth=1
	#DEBUG_VALUE: fmo_init:p_Vid <- $rbx
	#DEBUG_VALUE: fmo_init:pSlice <- [DW_OP_plus_uconst 16] [$rsp+0]
	#DEBUG_VALUE: fmo_init:pps <- [DW_OP_plus_uconst 24, DW_OP_deref] $rsp
	#DEBUG_VALUE: FmoGenerateMapUnitToSliceGroupMap:p_Vid <- $rbx
	#DEBUG_VALUE: FmoGenerateMapUnitToSliceGroupMap:pps <- [DW_OP_plus_uconst 24, DW_OP_deref] $rsp
	#DEBUG_VALUE: FmoGenerateMapUnitToSliceGroupMap:NumSliceGroupMapUnits <- $ebp
	#DEBUG_VALUE: FmoGenerateType2MapUnitMap:p_Vid <- $rbx
	#DEBUG_VALUE: FmoGenerateType2MapUnitMap:PicSizeInMapUnits <- $ebp
	#DEBUG_VALUE: FmoGenerateType2MapUnitMap:pps <- $r8
	#DEBUG_VALUE: FmoGenerateType2MapUnitMap:i <- $rdx
	.loc	0 398 12 is_stmt 1              # ldecod_src/fmo.c:398:12
	movq	856712(%rbx), %rsi
	.loc	0 398 40 is_stmt 0              # ldecod_src/fmo.c:398:40
	movl	%eax, (%rsi,%rdx,4)
	.loc	0 397 39 is_stmt 1              # ldecod_src/fmo.c:397:39
	incq	%rdx
.Ltmp205:
	#DEBUG_VALUE: FmoGenerateType2MapUnitMap:i <- $rdx
	.loc	0 397 3 is_stmt 0               # ldecod_src/fmo.c:397:3
	decq	%rcx
	jne	.LBB0_31
.Ltmp206:
.LBB0_32:                               # %for.end.i.i
	#DEBUG_VALUE: fmo_init:p_Vid <- $rbx
	#DEBUG_VALUE: fmo_init:pSlice <- [DW_OP_plus_uconst 16] [$rsp+0]
	#DEBUG_VALUE: fmo_init:pps <- [DW_OP_plus_uconst 24, DW_OP_deref] $rsp
	#DEBUG_VALUE: FmoGenerateMapUnitToSliceGroupMap:p_Vid <- $rbx
	#DEBUG_VALUE: FmoGenerateMapUnitToSliceGroupMap:pps <- [DW_OP_plus_uconst 24, DW_OP_deref] $rsp
	#DEBUG_VALUE: FmoGenerateMapUnitToSliceGroupMap:NumSliceGroupMapUnits <- $ebp
	#DEBUG_VALUE: FmoGenerateType2MapUnitMap:p_Vid <- $rbx
	#DEBUG_VALUE: FmoGenerateType2MapUnitMap:PicSizeInMapUnits <- $ebp
	#DEBUG_VALUE: FmoGenerateType2MapUnitMap:pps <- $r8
	.loc	0 400 22 is_stmt 1              # ldecod_src/fmo.c:400:22
	movl	2044(%r8), %eax
.Ltmp207:
	#DEBUG_VALUE: FmoGenerateType2MapUnitMap:iGroup <- [DW_OP_constu 1, DW_OP_minus, DW_OP_stack_value] $eax
	.loc	0 400 59 is_stmt 0              # ldecod_src/fmo.c:400:59
	decl	%eax
.Ltmp208:
	.loc	0 400 3                         # ldecod_src/fmo.c:400:3
	js	.LBB0_95
.Ltmp209:
# %bb.33:                               # %for.body4.lr.ph.i.i
	#DEBUG_VALUE: fmo_init:p_Vid <- $rbx
	#DEBUG_VALUE: fmo_init:pSlice <- [DW_OP_plus_uconst 16] [$rsp+0]
	#DEBUG_VALUE: fmo_init:pps <- [DW_OP_plus_uconst 24, DW_OP_deref] $rsp
	#DEBUG_VALUE: FmoGenerateMapUnitToSliceGroupMap:p_Vid <- $rbx
	#DEBUG_VALUE: FmoGenerateMapUnitToSliceGroupMap:pps <- [DW_OP_plus_uconst 24, DW_OP_deref] $rsp
	#DEBUG_VALUE: FmoGenerateMapUnitToSliceGroupMap:NumSliceGroupMapUnits <- $ebp
	#DEBUG_VALUE: FmoGenerateType2MapUnitMap:p_Vid <- $rbx
	#DEBUG_VALUE: FmoGenerateType2MapUnitMap:PicSizeInMapUnits <- $ebp
	#DEBUG_VALUE: FmoGenerateType2MapUnitMap:pps <- $r8
	movl	%eax, %r9d
	jmp	.LBB0_35
.Ltmp210:
	.p2align	4, 0x90
.LBB0_34:                               # %for.cond2.loopexit.i.i
                                        #   in Loop: Header=BB0_35 Depth=1
	#DEBUG_VALUE: fmo_init:p_Vid <- $rbx
	#DEBUG_VALUE: fmo_init:pSlice <- [DW_OP_plus_uconst 16] [$rsp+0]
	#DEBUG_VALUE: fmo_init:pps <- [DW_OP_plus_uconst 24, DW_OP_deref] $rsp
	#DEBUG_VALUE: FmoGenerateMapUnitToSliceGroupMap:p_Vid <- $rbx
	#DEBUG_VALUE: FmoGenerateMapUnitToSliceGroupMap:pps <- [DW_OP_plus_uconst 24, DW_OP_deref] $rsp
	#DEBUG_VALUE: FmoGenerateMapUnitToSliceGroupMap:NumSliceGroupMapUnits <- $ebp
	#DEBUG_VALUE: FmoGenerateType2MapUnitMap:p_Vid <- $rbx
	#DEBUG_VALUE: FmoGenerateType2MapUnitMap:PicSizeInMapUnits <- $ebp
	#DEBUG_VALUE: FmoGenerateType2MapUnitMap:pps <- $r8
	.loc	0 400 0                         # ldecod_src/fmo.c:400:0
	leaq	-1(%r9), %rax
.Ltmp211:
	#DEBUG_VALUE: FmoGenerateType2MapUnitMap:iGroup <- $rax
	.loc	0 400 59                        # ldecod_src/fmo.c:400:59
	testq	%r9, %r9
	movq	%rax, %r9
.Ltmp212:
	.loc	0 400 3                         # ldecod_src/fmo.c:400:3
	jle	.LBB0_95
.Ltmp213:
.LBB0_35:                               # %for.body4.i.i
                                        # =>This Loop Header: Depth=1
                                        #     Child Loop BB0_45 Depth 2
                                        #       Child Loop BB0_46 Depth 3
                                        #     Child Loop BB0_42 Depth 2
                                        #     Child Loop BB0_44 Depth 2
	#DEBUG_VALUE: fmo_init:p_Vid <- $rbx
	#DEBUG_VALUE: fmo_init:pSlice <- [DW_OP_plus_uconst 16] [$rsp+0]
	#DEBUG_VALUE: fmo_init:pps <- [DW_OP_plus_uconst 24, DW_OP_deref] $rsp
	#DEBUG_VALUE: FmoGenerateMapUnitToSliceGroupMap:p_Vid <- $rbx
	#DEBUG_VALUE: FmoGenerateMapUnitToSliceGroupMap:pps <- [DW_OP_plus_uconst 24, DW_OP_deref] $rsp
	#DEBUG_VALUE: FmoGenerateMapUnitToSliceGroupMap:NumSliceGroupMapUnits <- $ebp
	#DEBUG_VALUE: FmoGenerateType2MapUnitMap:p_Vid <- $rbx
	#DEBUG_VALUE: FmoGenerateType2MapUnitMap:PicSizeInMapUnits <- $ebp
	#DEBUG_VALUE: FmoGenerateType2MapUnitMap:pps <- $r8
	.loc	0 402 49 is_stmt 1              # ldecod_src/fmo.c:402:49
	movl	848996(%rbx), %r10d
	.loc	0 402 16 is_stmt 0              # ldecod_src/fmo.c:402:16
	movl	2084(%r8,%r9,4), %eax
	.loc	0 404 20 is_stmt 1              # ldecod_src/fmo.c:404:20
	movl	2116(%r8,%r9,4), %edi
	.loc	0 403 40                        # ldecod_src/fmo.c:403:40
	xorl	%edx, %edx
	divl	%r10d
	movl	%edx, %esi
	movl	%eax, %ecx
.Ltmp214:
	#DEBUG_VALUE: FmoGenerateType2MapUnitMap:yTopLeft <- $eax
	#DEBUG_VALUE: FmoGenerateType2MapUnitMap:y <- $eax
	#DEBUG_VALUE: FmoGenerateType2MapUnitMap:xTopLeft <- $esi
	.loc	0 405 48                        # ldecod_src/fmo.c:405:48
	movl	%edi, %eax
.Ltmp215:
	#DEBUG_VALUE: FmoGenerateType2MapUnitMap:y <- $ecx
	#DEBUG_VALUE: FmoGenerateType2MapUnitMap:yTopLeft <- $ecx
	xorl	%edx, %edx
	divl	%r10d
.Ltmp216:
	#DEBUG_VALUE: FmoGenerateType2MapUnitMap:yBottomRight <- $eax
	#DEBUG_VALUE: FmoGenerateType2MapUnitMap:xBottomRight <- $edx
	.loc	0 406 26                        # ldecod_src/fmo.c:406:26
	cmpl	%eax, %ecx
.Ltmp217:
	.loc	0 406 5 is_stmt 0               # ldecod_src/fmo.c:406:5
	ja	.LBB0_34
.Ltmp218:
# %bb.36:                               # %for.cond23.preheader.lr.ph.i.i
                                        #   in Loop: Header=BB0_35 Depth=1
	#DEBUG_VALUE: fmo_init:p_Vid <- $rbx
	#DEBUG_VALUE: fmo_init:pSlice <- [DW_OP_plus_uconst 16] [$rsp+0]
	#DEBUG_VALUE: fmo_init:pps <- [DW_OP_plus_uconst 24, DW_OP_deref] $rsp
	#DEBUG_VALUE: FmoGenerateMapUnitToSliceGroupMap:p_Vid <- $rbx
	#DEBUG_VALUE: FmoGenerateMapUnitToSliceGroupMap:pps <- [DW_OP_plus_uconst 24, DW_OP_deref] $rsp
	#DEBUG_VALUE: FmoGenerateMapUnitToSliceGroupMap:NumSliceGroupMapUnits <- $ebp
	#DEBUG_VALUE: FmoGenerateType2MapUnitMap:p_Vid <- $rbx
	#DEBUG_VALUE: FmoGenerateType2MapUnitMap:PicSizeInMapUnits <- $ebp
	#DEBUG_VALUE: FmoGenerateType2MapUnitMap:pps <- $r8
	#DEBUG_VALUE: FmoGenerateType2MapUnitMap:yTopLeft <- $ecx
	#DEBUG_VALUE: FmoGenerateType2MapUnitMap:y <- $ecx
	#DEBUG_VALUE: FmoGenerateType2MapUnitMap:xTopLeft <- $esi
	#DEBUG_VALUE: FmoGenerateType2MapUnitMap:yBottomRight <- $eax
	#DEBUG_VALUE: FmoGenerateType2MapUnitMap:xBottomRight <- $edx
	.loc	0 0 5                           # ldecod_src/fmo.c:0:5
	cmpl	%edx, %esi
	jbe	.LBB0_45
.Ltmp219:
# %bb.37:                               # %for.cond23.preheader.us.i.i.preheader
                                        #   in Loop: Header=BB0_35 Depth=1
	#DEBUG_VALUE: fmo_init:p_Vid <- $rbx
	#DEBUG_VALUE: fmo_init:pSlice <- [DW_OP_plus_uconst 16] [$rsp+0]
	#DEBUG_VALUE: fmo_init:pps <- [DW_OP_plus_uconst 24, DW_OP_deref] $rsp
	#DEBUG_VALUE: FmoGenerateMapUnitToSliceGroupMap:p_Vid <- $rbx
	#DEBUG_VALUE: FmoGenerateMapUnitToSliceGroupMap:pps <- [DW_OP_plus_uconst 24, DW_OP_deref] $rsp
	#DEBUG_VALUE: FmoGenerateMapUnitToSliceGroupMap:NumSliceGroupMapUnits <- $ebp
	#DEBUG_VALUE: FmoGenerateType2MapUnitMap:p_Vid <- $rbx
	#DEBUG_VALUE: FmoGenerateType2MapUnitMap:PicSizeInMapUnits <- $ebp
	#DEBUG_VALUE: FmoGenerateType2MapUnitMap:pps <- $r8
	#DEBUG_VALUE: FmoGenerateType2MapUnitMap:yTopLeft <- $ecx
	#DEBUG_VALUE: FmoGenerateType2MapUnitMap:y <- $ecx
	#DEBUG_VALUE: FmoGenerateType2MapUnitMap:xTopLeft <- $esi
	#DEBUG_VALUE: FmoGenerateType2MapUnitMap:yBottomRight <- $eax
	#DEBUG_VALUE: FmoGenerateType2MapUnitMap:xBottomRight <- $edx
	movl	%eax, %esi
.Ltmp220:
	.loc	0 406 5                         # ldecod_src/fmo.c:406:5
	movl	%edi, %eax
.Ltmp221:
	#DEBUG_VALUE: FmoGenerateType2MapUnitMap:yBottomRight <- $esi
	xorl	%edx, %edx
.Ltmp222:
	divl	%r10d
                                        # kill: def $eax killed $eax def $rax
	incq	%rax
	leal	1(%rcx), %edi
	cmpq	%rdi, %rax
	cmovbeq	%rdi, %rax
	subl	%ecx, %eax
	cmpl	$3, %eax
	ja	.LBB0_39
.Ltmp223:
# %bb.38:                               #   in Loop: Header=BB0_35 Depth=1
	#DEBUG_VALUE: fmo_init:p_Vid <- $rbx
	#DEBUG_VALUE: fmo_init:pSlice <- [DW_OP_plus_uconst 16] [$rsp+0]
	#DEBUG_VALUE: fmo_init:pps <- [DW_OP_plus_uconst 24, DW_OP_deref] $rsp
	#DEBUG_VALUE: FmoGenerateMapUnitToSliceGroupMap:p_Vid <- $rbx
	#DEBUG_VALUE: FmoGenerateMapUnitToSliceGroupMap:pps <- [DW_OP_plus_uconst 24, DW_OP_deref] $rsp
	#DEBUG_VALUE: FmoGenerateMapUnitToSliceGroupMap:NumSliceGroupMapUnits <- $ebp
	#DEBUG_VALUE: FmoGenerateType2MapUnitMap:p_Vid <- $rbx
	#DEBUG_VALUE: FmoGenerateType2MapUnitMap:PicSizeInMapUnits <- $ebp
	#DEBUG_VALUE: FmoGenerateType2MapUnitMap:pps <- $r8
	#DEBUG_VALUE: FmoGenerateType2MapUnitMap:yTopLeft <- $ecx
	#DEBUG_VALUE: FmoGenerateType2MapUnitMap:y <- $ecx
	#DEBUG_VALUE: FmoGenerateType2MapUnitMap:yBottomRight <- $esi
	.loc	0 0 5                           # ldecod_src/fmo.c:0:5
	movl	%esi, %edx
.Ltmp224:
	.p2align	4, 0x90
.LBB0_44:                               # %for.cond23.preheader.us.i.i
                                        #   Parent Loop BB0_35 Depth=1
                                        # =>  This Inner Loop Header: Depth=2
	#DEBUG_VALUE: fmo_init:p_Vid <- $rbx
	#DEBUG_VALUE: fmo_init:pSlice <- [DW_OP_plus_uconst 16] [$rsp+0]
	#DEBUG_VALUE: fmo_init:pps <- [DW_OP_plus_uconst 24, DW_OP_deref] $rsp
	#DEBUG_VALUE: FmoGenerateMapUnitToSliceGroupMap:p_Vid <- $rbx
	#DEBUG_VALUE: FmoGenerateMapUnitToSliceGroupMap:pps <- [DW_OP_plus_uconst 24, DW_OP_deref] $rsp
	#DEBUG_VALUE: FmoGenerateMapUnitToSliceGroupMap:NumSliceGroupMapUnits <- $ebp
	#DEBUG_VALUE: FmoGenerateType2MapUnitMap:p_Vid <- $rbx
	#DEBUG_VALUE: FmoGenerateType2MapUnitMap:PicSizeInMapUnits <- $ebp
	#DEBUG_VALUE: FmoGenerateType2MapUnitMap:pps <- $r8
	#DEBUG_VALUE: FmoGenerateType2MapUnitMap:yBottomRight <- $edx
	#DEBUG_VALUE: FmoGenerateType2MapUnitMap:y <- $ecx
	#DEBUG_VALUE: FmoGenerateType2MapUnitMap:x <- undef
	.loc	0 406 44                        # ldecod_src/fmo.c:406:44
	incl	%ecx
.Ltmp225:
	#DEBUG_VALUE: FmoGenerateType2MapUnitMap:y <- $ecx
	.loc	0 406 26                        # ldecod_src/fmo.c:406:26
	cmpl	%edx, %ecx
.Ltmp226:
	.loc	0 406 5                         # ldecod_src/fmo.c:406:5
	jbe	.LBB0_44
	jmp	.LBB0_34
.Ltmp227:
	.p2align	4, 0x90
.LBB0_45:                               # %for.cond23.preheader.i.i
                                        #   Parent Loop BB0_35 Depth=1
                                        # =>  This Loop Header: Depth=2
                                        #       Child Loop BB0_46 Depth 3
	#DEBUG_VALUE: fmo_init:p_Vid <- $rbx
	#DEBUG_VALUE: fmo_init:pSlice <- [DW_OP_plus_uconst 16] [$rsp+0]
	#DEBUG_VALUE: fmo_init:pps <- [DW_OP_plus_uconst 24, DW_OP_deref] $rsp
	#DEBUG_VALUE: FmoGenerateMapUnitToSliceGroupMap:p_Vid <- $rbx
	#DEBUG_VALUE: FmoGenerateMapUnitToSliceGroupMap:pps <- [DW_OP_plus_uconst 24, DW_OP_deref] $rsp
	#DEBUG_VALUE: FmoGenerateMapUnitToSliceGroupMap:NumSliceGroupMapUnits <- $ebp
	#DEBUG_VALUE: FmoGenerateType2MapUnitMap:p_Vid <- $rbx
	#DEBUG_VALUE: FmoGenerateType2MapUnitMap:PicSizeInMapUnits <- $ebp
	#DEBUG_VALUE: FmoGenerateType2MapUnitMap:pps <- $r8
	#DEBUG_VALUE: FmoGenerateType2MapUnitMap:y <- $ecx
	#DEBUG_VALUE: FmoGenerateType2MapUnitMap:xTopLeft <- $esi
	#DEBUG_VALUE: FmoGenerateType2MapUnitMap:yBottomRight <- $eax
	#DEBUG_VALUE: FmoGenerateType2MapUnitMap:xBottomRight <- $edx
	#DEBUG_VALUE: FmoGenerateType2MapUnitMap:y <- $ecx
	#DEBUG_VALUE: FmoGenerateType2MapUnitMap:x <- $esi
	.loc	0 0 5                           # ldecod_src/fmo.c:0:5
	movl	%esi, %edi
.Ltmp228:
	.p2align	4, 0x90
.LBB0_46:                               # %for.body25.i.i
                                        #   Parent Loop BB0_35 Depth=1
                                        #     Parent Loop BB0_45 Depth=2
                                        # =>    This Inner Loop Header: Depth=3
	#DEBUG_VALUE: fmo_init:p_Vid <- $rbx
	#DEBUG_VALUE: fmo_init:pSlice <- [DW_OP_plus_uconst 16] [$rsp+0]
	#DEBUG_VALUE: fmo_init:pps <- [DW_OP_plus_uconst 24, DW_OP_deref] $rsp
	#DEBUG_VALUE: FmoGenerateMapUnitToSliceGroupMap:p_Vid <- $rbx
	#DEBUG_VALUE: FmoGenerateMapUnitToSliceGroupMap:pps <- [DW_OP_plus_uconst 24, DW_OP_deref] $rsp
	#DEBUG_VALUE: FmoGenerateMapUnitToSliceGroupMap:NumSliceGroupMapUnits <- $ebp
	#DEBUG_VALUE: FmoGenerateType2MapUnitMap:p_Vid <- $rbx
	#DEBUG_VALUE: FmoGenerateType2MapUnitMap:PicSizeInMapUnits <- $ebp
	#DEBUG_VALUE: FmoGenerateType2MapUnitMap:pps <- $r8
	#DEBUG_VALUE: FmoGenerateType2MapUnitMap:y <- $ecx
	#DEBUG_VALUE: FmoGenerateType2MapUnitMap:xTopLeft <- $esi
	#DEBUG_VALUE: FmoGenerateType2MapUnitMap:yBottomRight <- $eax
	#DEBUG_VALUE: FmoGenerateType2MapUnitMap:xBottomRight <- $edx
	#DEBUG_VALUE: FmoGenerateType2MapUnitMap:x <- $edi
	#DEBUG_VALUE: FmoGenerateType2MapUnitMap:x <- $edi
	.loc	0 408 16 is_stmt 1              # ldecod_src/fmo.c:408:16
	movq	856712(%rbx), %r10
	movl	848996(%rbx), %r11d
	.loc	0 408 42 is_stmt 0              # ldecod_src/fmo.c:408:42
	imull	%ecx, %r11d
	.loc	0 408 65                        # ldecod_src/fmo.c:408:65
	addl	%edi, %r11d
	.loc	0 408 71                        # ldecod_src/fmo.c:408:71
	movl	%r9d, (%r10,%r11,4)
	.loc	0 407 46 is_stmt 1              # ldecod_src/fmo.c:407:46
	incl	%edi
.Ltmp229:
	#DEBUG_VALUE: FmoGenerateType2MapUnitMap:x <- $edi
	.loc	0 407 28 is_stmt 0              # ldecod_src/fmo.c:407:28
	cmpl	%edx, %edi
.Ltmp230:
	.loc	0 407 7                         # ldecod_src/fmo.c:407:7
	jbe	.LBB0_46
.Ltmp231:
# %bb.47:                               # %for.cond23.for.inc33_crit_edge.i.i
                                        #   in Loop: Header=BB0_45 Depth=2
	#DEBUG_VALUE: fmo_init:p_Vid <- $rbx
	#DEBUG_VALUE: fmo_init:pSlice <- [DW_OP_plus_uconst 16] [$rsp+0]
	#DEBUG_VALUE: fmo_init:pps <- [DW_OP_plus_uconst 24, DW_OP_deref] $rsp
	#DEBUG_VALUE: FmoGenerateMapUnitToSliceGroupMap:p_Vid <- $rbx
	#DEBUG_VALUE: FmoGenerateMapUnitToSliceGroupMap:pps <- [DW_OP_plus_uconst 24, DW_OP_deref] $rsp
	#DEBUG_VALUE: FmoGenerateMapUnitToSliceGroupMap:NumSliceGroupMapUnits <- $ebp
	#DEBUG_VALUE: FmoGenerateType2MapUnitMap:p_Vid <- $rbx
	#DEBUG_VALUE: FmoGenerateType2MapUnitMap:PicSizeInMapUnits <- $ebp
	#DEBUG_VALUE: FmoGenerateType2MapUnitMap:pps <- $r8
	#DEBUG_VALUE: FmoGenerateType2MapUnitMap:y <- $ecx
	#DEBUG_VALUE: FmoGenerateType2MapUnitMap:xTopLeft <- $esi
	#DEBUG_VALUE: FmoGenerateType2MapUnitMap:yBottomRight <- $eax
	#DEBUG_VALUE: FmoGenerateType2MapUnitMap:xBottomRight <- $edx
	#DEBUG_VALUE: FmoGenerateType2MapUnitMap:x <- $edi
	.loc	0 406 44 is_stmt 1              # ldecod_src/fmo.c:406:44
	incl	%ecx
.Ltmp232:
	#DEBUG_VALUE: FmoGenerateType2MapUnitMap:y <- $ecx
	.loc	0 406 26 is_stmt 0              # ldecod_src/fmo.c:406:26
	cmpl	%eax, %ecx
	jbe	.LBB0_45
	jmp	.LBB0_34
.Ltmp233:
.LBB0_39:                               # %vector.scevcheck
                                        #   in Loop: Header=BB0_35 Depth=1
	#DEBUG_VALUE: fmo_init:p_Vid <- $rbx
	#DEBUG_VALUE: fmo_init:pSlice <- [DW_OP_plus_uconst 16] [$rsp+0]
	#DEBUG_VALUE: fmo_init:pps <- [DW_OP_plus_uconst 24, DW_OP_deref] $rsp
	#DEBUG_VALUE: FmoGenerateMapUnitToSliceGroupMap:p_Vid <- $rbx
	#DEBUG_VALUE: FmoGenerateMapUnitToSliceGroupMap:pps <- [DW_OP_plus_uconst 24, DW_OP_deref] $rsp
	#DEBUG_VALUE: FmoGenerateMapUnitToSliceGroupMap:NumSliceGroupMapUnits <- $ebp
	#DEBUG_VALUE: FmoGenerateType2MapUnitMap:p_Vid <- $rbx
	#DEBUG_VALUE: FmoGenerateType2MapUnitMap:PicSizeInMapUnits <- $ebp
	#DEBUG_VALUE: FmoGenerateType2MapUnitMap:pps <- $r8
	#DEBUG_VALUE: FmoGenerateType2MapUnitMap:yTopLeft <- $ecx
	#DEBUG_VALUE: FmoGenerateType2MapUnitMap:y <- $ecx
	#DEBUG_VALUE: FmoGenerateType2MapUnitMap:yBottomRight <- $esi
	.loc	0 0 26                          # ldecod_src/fmo.c:0:26
	movl	%esi, %edx
	.loc	0 406 5                         # ldecod_src/fmo.c:406:5
	movl	%esi, %r10d
	incq	%r10
	subq	%rdi, %r10
	movl	$0, %esi
.Ltmp234:
	#DEBUG_VALUE: FmoGenerateType2MapUnitMap:yBottomRight <- $edx
	cmovaeq	%r10, %rsi
	movl	$-2, %edi
	subl	%ecx, %edi
	cmpl	%esi, %edi
	jb	.LBB0_44
.Ltmp235:
# %bb.40:                               # %vector.scevcheck
                                        #   in Loop: Header=BB0_35 Depth=1
	#DEBUG_VALUE: fmo_init:p_Vid <- $rbx
	#DEBUG_VALUE: fmo_init:pSlice <- [DW_OP_plus_uconst 16] [$rsp+0]
	#DEBUG_VALUE: fmo_init:pps <- [DW_OP_plus_uconst 24, DW_OP_deref] $rsp
	#DEBUG_VALUE: FmoGenerateMapUnitToSliceGroupMap:p_Vid <- $rbx
	#DEBUG_VALUE: FmoGenerateMapUnitToSliceGroupMap:pps <- [DW_OP_plus_uconst 24, DW_OP_deref] $rsp
	#DEBUG_VALUE: FmoGenerateMapUnitToSliceGroupMap:NumSliceGroupMapUnits <- $ebp
	#DEBUG_VALUE: FmoGenerateType2MapUnitMap:p_Vid <- $rbx
	#DEBUG_VALUE: FmoGenerateType2MapUnitMap:PicSizeInMapUnits <- $ebp
	#DEBUG_VALUE: FmoGenerateType2MapUnitMap:pps <- $r8
	#DEBUG_VALUE: FmoGenerateType2MapUnitMap:yTopLeft <- $ecx
	#DEBUG_VALUE: FmoGenerateType2MapUnitMap:y <- $ecx
	#DEBUG_VALUE: FmoGenerateType2MapUnitMap:yBottomRight <- $edx
	.loc	0 0 5                           # ldecod_src/fmo.c:0:5
	shrq	$32, %rsi
	jne	.LBB0_44
.Ltmp236:
# %bb.41:                               # %vector.ph
                                        #   in Loop: Header=BB0_35 Depth=1
	#DEBUG_VALUE: fmo_init:p_Vid <- $rbx
	#DEBUG_VALUE: fmo_init:pSlice <- [DW_OP_plus_uconst 16] [$rsp+0]
	#DEBUG_VALUE: fmo_init:pps <- [DW_OP_plus_uconst 24, DW_OP_deref] $rsp
	#DEBUG_VALUE: FmoGenerateMapUnitToSliceGroupMap:p_Vid <- $rbx
	#DEBUG_VALUE: FmoGenerateMapUnitToSliceGroupMap:pps <- [DW_OP_plus_uconst 24, DW_OP_deref] $rsp
	#DEBUG_VALUE: FmoGenerateMapUnitToSliceGroupMap:NumSliceGroupMapUnits <- $ebp
	#DEBUG_VALUE: FmoGenerateType2MapUnitMap:p_Vid <- $rbx
	#DEBUG_VALUE: FmoGenerateType2MapUnitMap:PicSizeInMapUnits <- $ebp
	#DEBUG_VALUE: FmoGenerateType2MapUnitMap:pps <- $r8
	#DEBUG_VALUE: FmoGenerateType2MapUnitMap:yTopLeft <- $ecx
	#DEBUG_VALUE: FmoGenerateType2MapUnitMap:y <- $ecx
	#DEBUG_VALUE: FmoGenerateType2MapUnitMap:yBottomRight <- $edx
	.loc	0 406 5                         # ldecod_src/fmo.c:406:5
	movl	%eax, %esi
	andl	$-4, %esi
	addl	%esi, %ecx
.Ltmp237:
	.loc	0 0 5                           # ldecod_src/fmo.c:0:5
	movl	%esi, %edi
.Ltmp238:
	.p2align	4, 0x90
.LBB0_42:                               # %vector.body
                                        #   Parent Loop BB0_35 Depth=1
                                        # =>  This Inner Loop Header: Depth=2
	#DEBUG_VALUE: fmo_init:p_Vid <- $rbx
	#DEBUG_VALUE: fmo_init:pSlice <- [DW_OP_plus_uconst 16] [$rsp+0]
	#DEBUG_VALUE: fmo_init:pps <- [DW_OP_plus_uconst 24, DW_OP_deref] $rsp
	#DEBUG_VALUE: FmoGenerateMapUnitToSliceGroupMap:p_Vid <- $rbx
	#DEBUG_VALUE: FmoGenerateMapUnitToSliceGroupMap:pps <- [DW_OP_plus_uconst 24, DW_OP_deref] $rsp
	#DEBUG_VALUE: FmoGenerateMapUnitToSliceGroupMap:NumSliceGroupMapUnits <- $ebp
	#DEBUG_VALUE: FmoGenerateType2MapUnitMap:p_Vid <- $rbx
	#DEBUG_VALUE: FmoGenerateType2MapUnitMap:PicSizeInMapUnits <- $ebp
	#DEBUG_VALUE: FmoGenerateType2MapUnitMap:pps <- $r8
	#DEBUG_VALUE: FmoGenerateType2MapUnitMap:yBottomRight <- $edx
	addl	$-4, %edi
	jne	.LBB0_42
.Ltmp239:
# %bb.43:                               # %middle.block
                                        #   in Loop: Header=BB0_35 Depth=1
	#DEBUG_VALUE: fmo_init:p_Vid <- $rbx
	#DEBUG_VALUE: fmo_init:pSlice <- [DW_OP_plus_uconst 16] [$rsp+0]
	#DEBUG_VALUE: fmo_init:pps <- [DW_OP_plus_uconst 24, DW_OP_deref] $rsp
	#DEBUG_VALUE: FmoGenerateMapUnitToSliceGroupMap:p_Vid <- $rbx
	#DEBUG_VALUE: FmoGenerateMapUnitToSliceGroupMap:pps <- [DW_OP_plus_uconst 24, DW_OP_deref] $rsp
	#DEBUG_VALUE: FmoGenerateMapUnitToSliceGroupMap:NumSliceGroupMapUnits <- $ebp
	#DEBUG_VALUE: FmoGenerateType2MapUnitMap:p_Vid <- $rbx
	#DEBUG_VALUE: FmoGenerateType2MapUnitMap:PicSizeInMapUnits <- $ebp
	#DEBUG_VALUE: FmoGenerateType2MapUnitMap:pps <- $r8
	#DEBUG_VALUE: FmoGenerateType2MapUnitMap:yBottomRight <- $edx
	.loc	0 406 5                         # ldecod_src/fmo.c:406:5
	cmpl	%esi, %eax
	jne	.LBB0_44
	jmp	.LBB0_34
.Ltmp240:
.LBB0_51:                               # %for.body.i100.i.preheader.new
	#DEBUG_VALUE: fmo_init:p_Vid <- $rbx
	#DEBUG_VALUE: fmo_init:pSlice <- [DW_OP_plus_uconst 16] [$rsp+0]
	#DEBUG_VALUE: fmo_init:pps <- [DW_OP_plus_uconst 24, DW_OP_deref] $rsp
	#DEBUG_VALUE: FmoGenerateMapUnitToSliceGroupMap:p_Vid <- $rbx
	#DEBUG_VALUE: FmoGenerateMapUnitToSliceGroupMap:pps <- [DW_OP_plus_uconst 24, DW_OP_deref] $rsp
	#DEBUG_VALUE: FmoGenerateMapUnitToSliceGroupMap:NumSliceGroupMapUnits <- $ebp
	#DEBUG_VALUE: FmoGenerateType3MapUnitMap:p_Vid <- $rbx
	#DEBUG_VALUE: FmoGenerateType3MapUnitMap:PicSizeInMapUnits <- $ebp
	#DEBUG_VALUE: FmoGenerateType3MapUnitMap:pps <- $rax
	#DEBUG_VALUE: FmoGenerateType3MapUnitMap:mapUnitsInSliceGroup0 <- [DW_OP_plus_uconst 36, DW_OP_deref] $rsp
	#DEBUG_VALUE: FmoGenerateType3MapUnitMap:i <- 0
	.loc	0 430 3 is_stmt 1               # ldecod_src/fmo.c:430:3
	andl	$-4, %r15d
	xorl	%esi, %esi
.Ltmp241:
	.p2align	4, 0x90
.LBB0_52:                               # %for.body.i100.i
                                        # =>This Inner Loop Header: Depth=1
	#DEBUG_VALUE: fmo_init:p_Vid <- $rbx
	#DEBUG_VALUE: fmo_init:pSlice <- [DW_OP_plus_uconst 16] [$rsp+0]
	#DEBUG_VALUE: fmo_init:pps <- [DW_OP_plus_uconst 24, DW_OP_deref] $rsp
	#DEBUG_VALUE: FmoGenerateMapUnitToSliceGroupMap:p_Vid <- $rbx
	#DEBUG_VALUE: FmoGenerateMapUnitToSliceGroupMap:pps <- [DW_OP_plus_uconst 24, DW_OP_deref] $rsp
	#DEBUG_VALUE: FmoGenerateMapUnitToSliceGroupMap:NumSliceGroupMapUnits <- $ebp
	#DEBUG_VALUE: FmoGenerateType3MapUnitMap:p_Vid <- $rbx
	#DEBUG_VALUE: FmoGenerateType3MapUnitMap:PicSizeInMapUnits <- $ebp
	#DEBUG_VALUE: FmoGenerateType3MapUnitMap:pps <- $rax
	#DEBUG_VALUE: FmoGenerateType3MapUnitMap:mapUnitsInSliceGroup0 <- [DW_OP_plus_uconst 36, DW_OP_deref] $rsp
	#DEBUG_VALUE: FmoGenerateType3MapUnitMap:i <- $rsi
	.loc	0 431 12                        # ldecod_src/fmo.c:431:12
	movq	856712(%rbx), %rdi
	.loc	0 431 40 is_stmt 0              # ldecod_src/fmo.c:431:40
	movl	$2, (%rdi,%rsi,4)
.Ltmp242:
	#DEBUG_VALUE: FmoGenerateType3MapUnitMap:i <- [DW_OP_constu 1, DW_OP_or, DW_OP_stack_value] $rsi
	.loc	0 431 12                        # ldecod_src/fmo.c:431:12
	movq	856712(%rbx), %rdi
	.loc	0 431 40                        # ldecod_src/fmo.c:431:40
	movl	$2, 4(%rdi,%rsi,4)
.Ltmp243:
	#DEBUG_VALUE: FmoGenerateType3MapUnitMap:i <- [DW_OP_constu 2, DW_OP_or, DW_OP_stack_value] $rsi
	.loc	0 431 12                        # ldecod_src/fmo.c:431:12
	movq	856712(%rbx), %rdi
	.loc	0 431 40                        # ldecod_src/fmo.c:431:40
	movl	$2, 8(%rdi,%rsi,4)
.Ltmp244:
	#DEBUG_VALUE: FmoGenerateType3MapUnitMap:i <- [DW_OP_constu 3, DW_OP_or, DW_OP_stack_value] $rsi
	.loc	0 431 12                        # ldecod_src/fmo.c:431:12
	movq	856712(%rbx), %rdi
	.loc	0 431 40                        # ldecod_src/fmo.c:431:40
	movl	$2, 12(%rdi,%rsi,4)
	.loc	0 430 39 is_stmt 1              # ldecod_src/fmo.c:430:39
	addq	$4, %rsi
.Ltmp245:
	#DEBUG_VALUE: FmoGenerateType3MapUnitMap:i <- $rsi
	.loc	0 430 3 is_stmt 0               # ldecod_src/fmo.c:430:3
	cmpq	%rsi, %r15
	jne	.LBB0_52
.Ltmp246:
.LBB0_53:                               # %for.body9.lr.ph.i.i.unr-lcssa
	#DEBUG_VALUE: fmo_init:p_Vid <- $rbx
	#DEBUG_VALUE: fmo_init:pSlice <- [DW_OP_plus_uconst 16] [$rsp+0]
	#DEBUG_VALUE: fmo_init:pps <- [DW_OP_plus_uconst 24, DW_OP_deref] $rsp
	#DEBUG_VALUE: FmoGenerateMapUnitToSliceGroupMap:p_Vid <- $rbx
	#DEBUG_VALUE: FmoGenerateMapUnitToSliceGroupMap:pps <- [DW_OP_plus_uconst 24, DW_OP_deref] $rsp
	#DEBUG_VALUE: FmoGenerateMapUnitToSliceGroupMap:NumSliceGroupMapUnits <- $ebp
	#DEBUG_VALUE: FmoGenerateType3MapUnitMap:p_Vid <- $rbx
	#DEBUG_VALUE: FmoGenerateType3MapUnitMap:PicSizeInMapUnits <- $ebp
	#DEBUG_VALUE: FmoGenerateType3MapUnitMap:pps <- $rax
	#DEBUG_VALUE: FmoGenerateType3MapUnitMap:mapUnitsInSliceGroup0 <- [DW_OP_plus_uconst 36, DW_OP_deref] $rsp
	testq	%rdx, %rdx
	je	.LBB0_55
.Ltmp247:
	.p2align	4, 0x90
.LBB0_54:                               # %for.body.i100.i.epil
                                        # =>This Inner Loop Header: Depth=1
	#DEBUG_VALUE: fmo_init:p_Vid <- $rbx
	#DEBUG_VALUE: fmo_init:pSlice <- [DW_OP_plus_uconst 16] [$rsp+0]
	#DEBUG_VALUE: fmo_init:pps <- [DW_OP_plus_uconst 24, DW_OP_deref] $rsp
	#DEBUG_VALUE: FmoGenerateMapUnitToSliceGroupMap:p_Vid <- $rbx
	#DEBUG_VALUE: FmoGenerateMapUnitToSliceGroupMap:pps <- [DW_OP_plus_uconst 24, DW_OP_deref] $rsp
	#DEBUG_VALUE: FmoGenerateMapUnitToSliceGroupMap:NumSliceGroupMapUnits <- $ebp
	#DEBUG_VALUE: FmoGenerateType3MapUnitMap:p_Vid <- $rbx
	#DEBUG_VALUE: FmoGenerateType3MapUnitMap:PicSizeInMapUnits <- $ebp
	#DEBUG_VALUE: FmoGenerateType3MapUnitMap:pps <- $rax
	#DEBUG_VALUE: FmoGenerateType3MapUnitMap:mapUnitsInSliceGroup0 <- [DW_OP_plus_uconst 36, DW_OP_deref] $rsp
	#DEBUG_VALUE: FmoGenerateType3MapUnitMap:i <- $rsi
	.loc	0 431 12 is_stmt 1              # ldecod_src/fmo.c:431:12
	movq	856712(%rbx), %rdi
	.loc	0 431 40 is_stmt 0              # ldecod_src/fmo.c:431:40
	movl	$2, (%rdi,%rsi,4)
	.loc	0 430 39 is_stmt 1              # ldecod_src/fmo.c:430:39
	incq	%rsi
.Ltmp248:
	#DEBUG_VALUE: FmoGenerateType3MapUnitMap:i <- $rsi
	.loc	0 430 3 is_stmt 0               # ldecod_src/fmo.c:430:3
	decq	%rdx
	jne	.LBB0_54
.Ltmp249:
.LBB0_55:                               # %for.body9.lr.ph.i.i
	#DEBUG_VALUE: fmo_init:p_Vid <- $rbx
	#DEBUG_VALUE: fmo_init:pSlice <- [DW_OP_plus_uconst 16] [$rsp+0]
	#DEBUG_VALUE: fmo_init:pps <- [DW_OP_plus_uconst 24, DW_OP_deref] $rsp
	#DEBUG_VALUE: FmoGenerateMapUnitToSliceGroupMap:p_Vid <- $rbx
	#DEBUG_VALUE: FmoGenerateMapUnitToSliceGroupMap:pps <- [DW_OP_plus_uconst 24, DW_OP_deref] $rsp
	#DEBUG_VALUE: FmoGenerateMapUnitToSliceGroupMap:NumSliceGroupMapUnits <- $ebp
	#DEBUG_VALUE: FmoGenerateType3MapUnitMap:p_Vid <- $rbx
	#DEBUG_VALUE: FmoGenerateType3MapUnitMap:PicSizeInMapUnits <- $ebp
	#DEBUG_VALUE: FmoGenerateType3MapUnitMap:pps <- $rax
	#DEBUG_VALUE: FmoGenerateType3MapUnitMap:mapUnitsInSliceGroup0 <- [DW_OP_plus_uconst 36, DW_OP_deref] $rsp
	#DEBUG_VALUE: FmoGenerateType3MapUnitMap:x <- undef
	#DEBUG_VALUE: FmoGenerateType3MapUnitMap:xDir <- undef
	#DEBUG_VALUE: FmoGenerateType3MapUnitMap:yDir <- undef
	#DEBUG_VALUE: FmoGenerateType3MapUnitMap:k <- 0
	#DEBUG_VALUE: FmoGenerateType3MapUnitMap:y <- undef
	#DEBUG_VALUE: FmoGenerateType3MapUnitMap:bottomBound <- undef
	#DEBUG_VALUE: FmoGenerateType3MapUnitMap:rightBound <- undef
	#DEBUG_VALUE: FmoGenerateType3MapUnitMap:topBound <- undef
	#DEBUG_VALUE: FmoGenerateType3MapUnitMap:leftBound <- undef
	.loc	0 433 37 is_stmt 1              # ldecod_src/fmo.c:433:37
	movl	2148(%rax), %r13d
.Ltmp250:
	#DEBUG_VALUE: FmoGenerateType3MapUnitMap:yDir <- $r13d
	#DEBUG_VALUE: FmoGenerateType3MapUnitMap:xDir <- [DW_OP_constu 1, DW_OP_minus, DW_OP_stack_value] $r13d
	.loc	0 441 50                        # ldecod_src/fmo.c:441:50
	leal	-1(%r13), %r14d
.Ltmp251:
	#DEBUG_VALUE: FmoGenerateType3MapUnitMap:xDir <- $r14d
	.loc	0 433 16                        # ldecod_src/fmo.c:433:16
	movl	848996(%rbx), %edi
.Ltmp252:
	#DEBUG_VALUE: FmoGenerateType3MapUnitMap:x <- [DW_OP_LLVM_arg 0, DW_OP_LLVM_arg 1, DW_OP_minus, DW_OP_constu 1, DW_OP_shr, DW_OP_stack_value] $edi, $r13d
	#DEBUG_VALUE: FmoGenerateType3MapUnitMap:rightBound <- [DW_OP_LLVM_arg 0, DW_OP_LLVM_arg 1, DW_OP_minus, DW_OP_constu 1, DW_OP_shr, DW_OP_stack_value] $edi, $r13d
	#DEBUG_VALUE: FmoGenerateType3MapUnitMap:leftBound <- [DW_OP_LLVM_arg 0, DW_OP_LLVM_arg 1, DW_OP_minus, DW_OP_constu 1, DW_OP_shr, DW_OP_stack_value] $edi, $r13d
	.loc	0 434 16                        # ldecod_src/fmo.c:434:16
	movl	849000(%rbx), %esi
.Ltmp253:
	#DEBUG_VALUE: FmoGenerateType3MapUnitMap:y <- [DW_OP_LLVM_arg 0, DW_OP_LLVM_arg 1, DW_OP_minus, DW_OP_constu 1, DW_OP_shr, DW_OP_stack_value] $esi, $r13d
	#DEBUG_VALUE: FmoGenerateType3MapUnitMap:bottomBound <- [DW_OP_LLVM_arg 0, DW_OP_LLVM_arg 1, DW_OP_minus, DW_OP_constu 1, DW_OP_shr, DW_OP_stack_value] $esi, $r13d
	#DEBUG_VALUE: FmoGenerateType3MapUnitMap:topBound <- [DW_OP_LLVM_arg 0, DW_OP_LLVM_arg 1, DW_OP_minus, DW_OP_constu 1, DW_OP_shr, DW_OP_stack_value] $esi, $r13d
	.loc	0 434 36 is_stmt 0              # ldecod_src/fmo.c:434:36
	subl	%r13d, %esi
.Ltmp254:
	#DEBUG_VALUE: FmoGenerateType3MapUnitMap:topBound <- [DW_OP_constu 1, DW_OP_shr, DW_OP_stack_value] $esi
	#DEBUG_VALUE: FmoGenerateType3MapUnitMap:bottomBound <- [DW_OP_constu 1, DW_OP_shr, DW_OP_stack_value] $esi
	#DEBUG_VALUE: FmoGenerateType3MapUnitMap:y <- [DW_OP_constu 1, DW_OP_shr, DW_OP_stack_value] $esi
	.loc	0 434 79                        # ldecod_src/fmo.c:434:79
	shrl	%esi
.Ltmp255:
	#DEBUG_VALUE: FmoGenerateType3MapUnitMap:y <- $esi
	#DEBUG_VALUE: FmoGenerateType3MapUnitMap:bottomBound <- $esi
	#DEBUG_VALUE: FmoGenerateType3MapUnitMap:topBound <- $esi
	.loc	0 433 30 is_stmt 1              # ldecod_src/fmo.c:433:30
	subl	%r13d, %edi
.Ltmp256:
	#DEBUG_VALUE: FmoGenerateType3MapUnitMap:leftBound <- [DW_OP_constu 1, DW_OP_shr, DW_OP_stack_value] $edi
	#DEBUG_VALUE: FmoGenerateType3MapUnitMap:rightBound <- [DW_OP_constu 1, DW_OP_shr, DW_OP_stack_value] $edi
	#DEBUG_VALUE: FmoGenerateType3MapUnitMap:x <- [DW_OP_constu 1, DW_OP_shr, DW_OP_stack_value] $edi
	.loc	0 433 73 is_stmt 0              # ldecod_src/fmo.c:433:73
	shrl	%edi
.Ltmp257:
	#DEBUG_VALUE: FmoGenerateType3MapUnitMap:x <- $edi
	#DEBUG_VALUE: FmoGenerateType3MapUnitMap:rightBound <- $edi
	#DEBUG_VALUE: FmoGenerateType3MapUnitMap:leftBound <- $edi
	.loc	0 0 73                          # ldecod_src/fmo.c:0:73
	xorl	%edx, %edx
	movl	%esi, 8(%rsp)                   # 4-byte Spill
.Ltmp258:
	#DEBUG_VALUE: FmoGenerateType3MapUnitMap:topBound <- [DW_OP_plus_uconst 8, DW_OP_deref] $rsp
	#DEBUG_VALUE: FmoGenerateType3MapUnitMap:bottomBound <- [DW_OP_plus_uconst 8, DW_OP_deref] $rsp
	#DEBUG_VALUE: FmoGenerateType3MapUnitMap:y <- [DW_OP_plus_uconst 8, DW_OP_deref] $rsp
	movl	%edi, %r10d
	movl	%esi, 12(%rsp)                  # 4-byte Spill
	movl	%edi, %r11d
	jmp	.LBB0_56
.Ltmp259:
	.p2align	4, 0x90
.LBB0_60:                               # %if.then29.i.i
                                        #   in Loop: Header=BB0_56 Depth=1
	#DEBUG_VALUE: fmo_init:p_Vid <- $rbx
	#DEBUG_VALUE: fmo_init:pSlice <- [DW_OP_plus_uconst 16] [$rsp+0]
	#DEBUG_VALUE: fmo_init:pps <- [DW_OP_plus_uconst 24, DW_OP_deref] $rsp
	#DEBUG_VALUE: FmoGenerateMapUnitToSliceGroupMap:p_Vid <- $rbx
	#DEBUG_VALUE: FmoGenerateMapUnitToSliceGroupMap:pps <- [DW_OP_plus_uconst 24, DW_OP_deref] $rsp
	#DEBUG_VALUE: FmoGenerateMapUnitToSliceGroupMap:NumSliceGroupMapUnits <- $ebp
	#DEBUG_VALUE: FmoGenerateType3MapUnitMap:p_Vid <- $rbx
	#DEBUG_VALUE: FmoGenerateType3MapUnitMap:PicSizeInMapUnits <- $ebp
	#DEBUG_VALUE: FmoGenerateType3MapUnitMap:pps <- $rax
	#DEBUG_VALUE: FmoGenerateType3MapUnitMap:mapUnitsInSliceGroup0 <- [DW_OP_plus_uconst 36, DW_OP_deref] $rsp
	#DEBUG_VALUE: FmoGenerateType3MapUnitMap:x <- $edi
	#DEBUG_VALUE: FmoGenerateType3MapUnitMap:xDir <- $r14d
	#DEBUG_VALUE: FmoGenerateType3MapUnitMap:yDir <- $r13d
	#DEBUG_VALUE: FmoGenerateType3MapUnitMap:k <- $edx
	#DEBUG_VALUE: FmoGenerateType3MapUnitMap:y <- $esi
	#DEBUG_VALUE: FmoGenerateType3MapUnitMap:bottomBound <- [DW_OP_plus_uconst 8, DW_OP_deref] $rsp
	#DEBUG_VALUE: FmoGenerateType3MapUnitMap:rightBound <- $r10d
	#DEBUG_VALUE: FmoGenerateType3MapUnitMap:topBound <- [DW_OP_plus_uconst 12, DW_OP_deref] $rsp
	#DEBUG_VALUE: FmoGenerateType3MapUnitMap:leftBound <- $r11d
	#DEBUG_VALUE: imax:a <- [DW_OP_constu 1, DW_OP_minus, DW_OP_stack_value] $r11d
	#DEBUG_VALUE: imax:b <- 0
	.loc	5 49 10 is_stmt 1               # ldecod_src/inc/ifunctions.h:49:10
	cmpl	$2, %edi
	movl	$1, %ecx
	cmovll	%ecx, %edi
.Ltmp260:
	decl	%edi
.Ltmp261:
	#DEBUG_VALUE: FmoGenerateType3MapUnitMap:leftBound <- $edi
	#DEBUG_VALUE: FmoGenerateType3MapUnitMap:x <- $edi
	#DEBUG_VALUE: FmoGenerateType3MapUnitMap:xDir <- 0
	.loc	0 455 23                        # ldecod_src/fmo.c:455:23
	movl	2148(%rax), %ecx
	.loc	0 455 57 is_stmt 0              # ldecod_src/fmo.c:455:57
	leal	-1(,%rcx,2), %r13d
.Ltmp262:
	#DEBUG_VALUE: FmoGenerateType3MapUnitMap:yDir <- $r13d
	.loc	0 0 57                          # ldecod_src/fmo.c:0:57
	xorl	%r14d, %r14d
	movl	%edi, %r11d
.Ltmp263:
.LBB0_71:                               # %for.inc81.i.i
                                        #   in Loop: Header=BB0_56 Depth=1
	#DEBUG_VALUE: fmo_init:p_Vid <- $rbx
	#DEBUG_VALUE: fmo_init:pSlice <- [DW_OP_plus_uconst 16] [$rsp+0]
	#DEBUG_VALUE: fmo_init:pps <- [DW_OP_plus_uconst 24, DW_OP_deref] $rsp
	#DEBUG_VALUE: FmoGenerateMapUnitToSliceGroupMap:p_Vid <- $rbx
	#DEBUG_VALUE: FmoGenerateMapUnitToSliceGroupMap:pps <- [DW_OP_plus_uconst 24, DW_OP_deref] $rsp
	#DEBUG_VALUE: FmoGenerateMapUnitToSliceGroupMap:NumSliceGroupMapUnits <- $ebp
	#DEBUG_VALUE: FmoGenerateType3MapUnitMap:p_Vid <- $rbx
	#DEBUG_VALUE: FmoGenerateType3MapUnitMap:PicSizeInMapUnits <- $ebp
	#DEBUG_VALUE: FmoGenerateType3MapUnitMap:pps <- $rax
	#DEBUG_VALUE: FmoGenerateType3MapUnitMap:mapUnitsInSliceGroup0 <- [DW_OP_plus_uconst 36, DW_OP_deref] $rsp
	#DEBUG_VALUE: FmoGenerateType3MapUnitMap:x <- $edi
	#DEBUG_VALUE: FmoGenerateType3MapUnitMap:k <- $edx
	#DEBUG_VALUE: FmoGenerateType3MapUnitMap:y <- $esi
	#DEBUG_VALUE: FmoGenerateType3MapUnitMap:bottomBound <- [DW_OP_plus_uconst 8, DW_OP_deref] $rsp
	#DEBUG_VALUE: FmoGenerateType3MapUnitMap:rightBound <- $r10d
	#DEBUG_VALUE: FmoGenerateType3MapUnitMap:topBound <- [DW_OP_plus_uconst 12, DW_OP_deref] $rsp
	#DEBUG_VALUE: FmoGenerateType3MapUnitMap:leftBound <- $r11d
	movb	%r15b, %r8b
.Ltmp264:
	#DEBUG_VALUE: FmoGenerateType3MapUnitMap:yDir <- $r13d
	#DEBUG_VALUE: FmoGenerateType3MapUnitMap:xDir <- $r14d
	#DEBUG_VALUE: FmoGenerateType3MapUnitMap:y <- $esi
	#DEBUG_VALUE: FmoGenerateType3MapUnitMap:x <- $edi
	#DEBUG_VALUE: FmoGenerateType3MapUnitMap:bottomBound <- [DW_OP_plus_uconst 8, DW_OP_deref] $rsp
	#DEBUG_VALUE: FmoGenerateType3MapUnitMap:rightBound <- $r10d
	#DEBUG_VALUE: FmoGenerateType3MapUnitMap:topBound <- [DW_OP_plus_uconst 12, DW_OP_deref] $rsp
	#DEBUG_VALUE: FmoGenerateType3MapUnitMap:leftBound <- $r11d
	.loc	0 444 40 is_stmt 1              # ldecod_src/fmo.c:444:40
	addl	%r8d, %edx
.Ltmp265:
	#DEBUG_VALUE: FmoGenerateType3MapUnitMap:k <- $edx
	.loc	0 444 17 is_stmt 0              # ldecod_src/fmo.c:444:17
	cmpl	%ebp, %edx
.Ltmp266:
	.loc	0 444 3                         # ldecod_src/fmo.c:444:3
	jae	.LBB0_95
.Ltmp267:
.LBB0_56:                               # %for.body9.i.i
                                        # =>This Inner Loop Header: Depth=1
	#DEBUG_VALUE: fmo_init:p_Vid <- $rbx
	#DEBUG_VALUE: fmo_init:pSlice <- [DW_OP_plus_uconst 16] [$rsp+0]
	#DEBUG_VALUE: fmo_init:pps <- [DW_OP_plus_uconst 24, DW_OP_deref] $rsp
	#DEBUG_VALUE: FmoGenerateMapUnitToSliceGroupMap:p_Vid <- $rbx
	#DEBUG_VALUE: FmoGenerateMapUnitToSliceGroupMap:pps <- [DW_OP_plus_uconst 24, DW_OP_deref] $rsp
	#DEBUG_VALUE: FmoGenerateMapUnitToSliceGroupMap:NumSliceGroupMapUnits <- $ebp
	#DEBUG_VALUE: FmoGenerateType3MapUnitMap:p_Vid <- $rbx
	#DEBUG_VALUE: FmoGenerateType3MapUnitMap:PicSizeInMapUnits <- $ebp
	#DEBUG_VALUE: FmoGenerateType3MapUnitMap:pps <- $rax
	#DEBUG_VALUE: FmoGenerateType3MapUnitMap:mapUnitsInSliceGroup0 <- [DW_OP_plus_uconst 36, DW_OP_deref] $rsp
	#DEBUG_VALUE: FmoGenerateType3MapUnitMap:x <- $edi
	#DEBUG_VALUE: FmoGenerateType3MapUnitMap:xDir <- $r14d
	#DEBUG_VALUE: FmoGenerateType3MapUnitMap:yDir <- $r13d
	#DEBUG_VALUE: FmoGenerateType3MapUnitMap:y <- $esi
	#DEBUG_VALUE: FmoGenerateType3MapUnitMap:bottomBound <- [DW_OP_plus_uconst 8, DW_OP_deref] $rsp
	#DEBUG_VALUE: FmoGenerateType3MapUnitMap:rightBound <- $r10d
	#DEBUG_VALUE: FmoGenerateType3MapUnitMap:topBound <- [DW_OP_plus_uconst 12, DW_OP_deref] $rsp
	#DEBUG_VALUE: FmoGenerateType3MapUnitMap:leftBound <- $r11d
	#DEBUG_VALUE: FmoGenerateType3MapUnitMap:k <- $edx
	#DEBUG_VALUE: FmoGenerateType3MapUnitMap:yDir <- $r13d
	#DEBUG_VALUE: FmoGenerateType3MapUnitMap:xDir <- $r14d
	#DEBUG_VALUE: FmoGenerateType3MapUnitMap:y <- $esi
	#DEBUG_VALUE: FmoGenerateType3MapUnitMap:x <- $edi
	#DEBUG_VALUE: FmoGenerateType3MapUnitMap:bottomBound <- [DW_OP_plus_uconst 8, DW_OP_deref] $rsp
	#DEBUG_VALUE: FmoGenerateType3MapUnitMap:rightBound <- $r10d
	#DEBUG_VALUE: FmoGenerateType3MapUnitMap:topBound <- [DW_OP_plus_uconst 12, DW_OP_deref] $rsp
	#DEBUG_VALUE: FmoGenerateType3MapUnitMap:leftBound <- $r11d
	.loc	0 446 30 is_stmt 1              # ldecod_src/fmo.c:446:30
	movq	856712(%rbx), %r12
	movl	848996(%rbx), %r9d
	.loc	0 446 56 is_stmt 0              # ldecod_src/fmo.c:446:56
	imull	%esi, %r9d
	.loc	0 446 79                        # ldecod_src/fmo.c:446:79
	addl	%edi, %r9d
	.loc	0 446 86                        # ldecod_src/fmo.c:446:86
	xorl	%r8d, %r8d
	cmpl	$2, (%r12,%r9,4)
	sete	%r15b
.Ltmp268:
	#DEBUG_VALUE: FmoGenerateType3MapUnitMap:mapUnitVacant <- undef
	.loc	0 447 9 is_stmt 1               # ldecod_src/fmo.c:447:9
	jne	.LBB0_58
.Ltmp269:
# %bb.57:                               # %if.then.i.i
                                        #   in Loop: Header=BB0_56 Depth=1
	#DEBUG_VALUE: fmo_init:p_Vid <- $rbx
	#DEBUG_VALUE: fmo_init:pSlice <- [DW_OP_plus_uconst 16] [$rsp+0]
	#DEBUG_VALUE: fmo_init:pps <- [DW_OP_plus_uconst 24, DW_OP_deref] $rsp
	#DEBUG_VALUE: FmoGenerateMapUnitToSliceGroupMap:p_Vid <- $rbx
	#DEBUG_VALUE: FmoGenerateMapUnitToSliceGroupMap:pps <- [DW_OP_plus_uconst 24, DW_OP_deref] $rsp
	#DEBUG_VALUE: FmoGenerateMapUnitToSliceGroupMap:NumSliceGroupMapUnits <- $ebp
	#DEBUG_VALUE: FmoGenerateType3MapUnitMap:p_Vid <- $rbx
	#DEBUG_VALUE: FmoGenerateType3MapUnitMap:PicSizeInMapUnits <- $ebp
	#DEBUG_VALUE: FmoGenerateType3MapUnitMap:pps <- $rax
	#DEBUG_VALUE: FmoGenerateType3MapUnitMap:mapUnitsInSliceGroup0 <- [DW_OP_plus_uconst 36, DW_OP_deref] $rsp
	#DEBUG_VALUE: FmoGenerateType3MapUnitMap:x <- $edi
	#DEBUG_VALUE: FmoGenerateType3MapUnitMap:xDir <- $r14d
	#DEBUG_VALUE: FmoGenerateType3MapUnitMap:yDir <- $r13d
	#DEBUG_VALUE: FmoGenerateType3MapUnitMap:k <- $edx
	#DEBUG_VALUE: FmoGenerateType3MapUnitMap:y <- $esi
	#DEBUG_VALUE: FmoGenerateType3MapUnitMap:bottomBound <- [DW_OP_plus_uconst 8, DW_OP_deref] $rsp
	#DEBUG_VALUE: FmoGenerateType3MapUnitMap:rightBound <- $r10d
	#DEBUG_VALUE: FmoGenerateType3MapUnitMap:topBound <- [DW_OP_plus_uconst 12, DW_OP_deref] $rsp
	#DEBUG_VALUE: FmoGenerateType3MapUnitMap:leftBound <- $r11d
	.loc	0 448 76                        # ldecod_src/fmo.c:448:76
	xorl	%ecx, %ecx
	cmpl	36(%rsp), %edx                  # 4-byte Folded Reload
	setae	%cl
	.loc	0 448 70 is_stmt 0              # ldecod_src/fmo.c:448:70
	movl	%ecx, (%r12,%r9,4)
.Ltmp270:
.LBB0_58:                               # %if.end.i.i
                                        #   in Loop: Header=BB0_56 Depth=1
	#DEBUG_VALUE: fmo_init:p_Vid <- $rbx
	#DEBUG_VALUE: fmo_init:pSlice <- [DW_OP_plus_uconst 16] [$rsp+0]
	#DEBUG_VALUE: fmo_init:pps <- [DW_OP_plus_uconst 24, DW_OP_deref] $rsp
	#DEBUG_VALUE: FmoGenerateMapUnitToSliceGroupMap:p_Vid <- $rbx
	#DEBUG_VALUE: FmoGenerateMapUnitToSliceGroupMap:pps <- [DW_OP_plus_uconst 24, DW_OP_deref] $rsp
	#DEBUG_VALUE: FmoGenerateMapUnitToSliceGroupMap:NumSliceGroupMapUnits <- $ebp
	#DEBUG_VALUE: FmoGenerateType3MapUnitMap:p_Vid <- $rbx
	#DEBUG_VALUE: FmoGenerateType3MapUnitMap:PicSizeInMapUnits <- $ebp
	#DEBUG_VALUE: FmoGenerateType3MapUnitMap:pps <- $rax
	#DEBUG_VALUE: FmoGenerateType3MapUnitMap:mapUnitsInSliceGroup0 <- [DW_OP_plus_uconst 36, DW_OP_deref] $rsp
	#DEBUG_VALUE: FmoGenerateType3MapUnitMap:x <- $edi
	#DEBUG_VALUE: FmoGenerateType3MapUnitMap:xDir <- $r14d
	#DEBUG_VALUE: FmoGenerateType3MapUnitMap:yDir <- $r13d
	#DEBUG_VALUE: FmoGenerateType3MapUnitMap:k <- $edx
	#DEBUG_VALUE: FmoGenerateType3MapUnitMap:y <- $esi
	#DEBUG_VALUE: FmoGenerateType3MapUnitMap:bottomBound <- [DW_OP_plus_uconst 8, DW_OP_deref] $rsp
	#DEBUG_VALUE: FmoGenerateType3MapUnitMap:rightBound <- $r10d
	#DEBUG_VALUE: FmoGenerateType3MapUnitMap:topBound <- [DW_OP_plus_uconst 12, DW_OP_deref] $rsp
	#DEBUG_VALUE: FmoGenerateType3MapUnitMap:leftBound <- $r11d
	.loc	0 450 15 is_stmt 1              # ldecod_src/fmo.c:450:15
	cmpl	$-1, %r14d
	.loc	0 450 23 is_stmt 0              # ldecod_src/fmo.c:450:23
	jne	.LBB0_61
.Ltmp271:
# %bb.59:                               # %if.end.i.i
                                        #   in Loop: Header=BB0_56 Depth=1
	#DEBUG_VALUE: fmo_init:p_Vid <- $rbx
	#DEBUG_VALUE: fmo_init:pSlice <- [DW_OP_plus_uconst 16] [$rsp+0]
	#DEBUG_VALUE: fmo_init:pps <- [DW_OP_plus_uconst 24, DW_OP_deref] $rsp
	#DEBUG_VALUE: FmoGenerateMapUnitToSliceGroupMap:p_Vid <- $rbx
	#DEBUG_VALUE: FmoGenerateMapUnitToSliceGroupMap:pps <- [DW_OP_plus_uconst 24, DW_OP_deref] $rsp
	#DEBUG_VALUE: FmoGenerateMapUnitToSliceGroupMap:NumSliceGroupMapUnits <- $ebp
	#DEBUG_VALUE: FmoGenerateType3MapUnitMap:p_Vid <- $rbx
	#DEBUG_VALUE: FmoGenerateType3MapUnitMap:PicSizeInMapUnits <- $ebp
	#DEBUG_VALUE: FmoGenerateType3MapUnitMap:pps <- $rax
	#DEBUG_VALUE: FmoGenerateType3MapUnitMap:mapUnitsInSliceGroup0 <- [DW_OP_plus_uconst 36, DW_OP_deref] $rsp
	#DEBUG_VALUE: FmoGenerateType3MapUnitMap:x <- $edi
	#DEBUG_VALUE: FmoGenerateType3MapUnitMap:xDir <- $r14d
	#DEBUG_VALUE: FmoGenerateType3MapUnitMap:yDir <- $r13d
	#DEBUG_VALUE: FmoGenerateType3MapUnitMap:k <- $edx
	#DEBUG_VALUE: FmoGenerateType3MapUnitMap:y <- $esi
	#DEBUG_VALUE: FmoGenerateType3MapUnitMap:bottomBound <- [DW_OP_plus_uconst 8, DW_OP_deref] $rsp
	#DEBUG_VALUE: FmoGenerateType3MapUnitMap:rightBound <- $r10d
	#DEBUG_VALUE: FmoGenerateType3MapUnitMap:topBound <- [DW_OP_plus_uconst 12, DW_OP_deref] $rsp
	#DEBUG_VALUE: FmoGenerateType3MapUnitMap:leftBound <- $r11d
	cmpl	%r11d, %edi
	je	.LBB0_60
.Ltmp272:
.LBB0_61:                               # %if.else.i.i
                                        #   in Loop: Header=BB0_56 Depth=1
	#DEBUG_VALUE: fmo_init:p_Vid <- $rbx
	#DEBUG_VALUE: fmo_init:pSlice <- [DW_OP_plus_uconst 16] [$rsp+0]
	#DEBUG_VALUE: fmo_init:pps <- [DW_OP_plus_uconst 24, DW_OP_deref] $rsp
	#DEBUG_VALUE: FmoGenerateMapUnitToSliceGroupMap:p_Vid <- $rbx
	#DEBUG_VALUE: FmoGenerateMapUnitToSliceGroupMap:pps <- [DW_OP_plus_uconst 24, DW_OP_deref] $rsp
	#DEBUG_VALUE: FmoGenerateMapUnitToSliceGroupMap:NumSliceGroupMapUnits <- $ebp
	#DEBUG_VALUE: FmoGenerateType3MapUnitMap:p_Vid <- $rbx
	#DEBUG_VALUE: FmoGenerateType3MapUnitMap:PicSizeInMapUnits <- $ebp
	#DEBUG_VALUE: FmoGenerateType3MapUnitMap:pps <- $rax
	#DEBUG_VALUE: FmoGenerateType3MapUnitMap:mapUnitsInSliceGroup0 <- [DW_OP_plus_uconst 36, DW_OP_deref] $rsp
	#DEBUG_VALUE: FmoGenerateType3MapUnitMap:x <- $edi
	#DEBUG_VALUE: FmoGenerateType3MapUnitMap:xDir <- $r14d
	#DEBUG_VALUE: FmoGenerateType3MapUnitMap:yDir <- $r13d
	#DEBUG_VALUE: FmoGenerateType3MapUnitMap:k <- $edx
	#DEBUG_VALUE: FmoGenerateType3MapUnitMap:y <- $esi
	#DEBUG_VALUE: FmoGenerateType3MapUnitMap:bottomBound <- [DW_OP_plus_uconst 8, DW_OP_deref] $rsp
	#DEBUG_VALUE: FmoGenerateType3MapUnitMap:rightBound <- $r10d
	#DEBUG_VALUE: FmoGenerateType3MapUnitMap:topBound <- [DW_OP_plus_uconst 12, DW_OP_deref] $rsp
	#DEBUG_VALUE: FmoGenerateType3MapUnitMap:leftBound <- $r11d
	.loc	0 458 17 is_stmt 1              # ldecod_src/fmo.c:458:17
	cmpl	$1, %r14d
	.loc	0 458 24 is_stmt 0              # ldecod_src/fmo.c:458:24
	jne	.LBB0_64
.Ltmp273:
# %bb.62:                               # %if.else.i.i
                                        #   in Loop: Header=BB0_56 Depth=1
	#DEBUG_VALUE: fmo_init:p_Vid <- $rbx
	#DEBUG_VALUE: fmo_init:pSlice <- [DW_OP_plus_uconst 16] [$rsp+0]
	#DEBUG_VALUE: fmo_init:pps <- [DW_OP_plus_uconst 24, DW_OP_deref] $rsp
	#DEBUG_VALUE: FmoGenerateMapUnitToSliceGroupMap:p_Vid <- $rbx
	#DEBUG_VALUE: FmoGenerateMapUnitToSliceGroupMap:pps <- [DW_OP_plus_uconst 24, DW_OP_deref] $rsp
	#DEBUG_VALUE: FmoGenerateMapUnitToSliceGroupMap:NumSliceGroupMapUnits <- $ebp
	#DEBUG_VALUE: FmoGenerateType3MapUnitMap:p_Vid <- $rbx
	#DEBUG_VALUE: FmoGenerateType3MapUnitMap:PicSizeInMapUnits <- $ebp
	#DEBUG_VALUE: FmoGenerateType3MapUnitMap:pps <- $rax
	#DEBUG_VALUE: FmoGenerateType3MapUnitMap:mapUnitsInSliceGroup0 <- [DW_OP_plus_uconst 36, DW_OP_deref] $rsp
	#DEBUG_VALUE: FmoGenerateType3MapUnitMap:x <- $edi
	#DEBUG_VALUE: FmoGenerateType3MapUnitMap:xDir <- $r14d
	#DEBUG_VALUE: FmoGenerateType3MapUnitMap:yDir <- $r13d
	#DEBUG_VALUE: FmoGenerateType3MapUnitMap:k <- $edx
	#DEBUG_VALUE: FmoGenerateType3MapUnitMap:y <- $esi
	#DEBUG_VALUE: FmoGenerateType3MapUnitMap:bottomBound <- [DW_OP_plus_uconst 8, DW_OP_deref] $rsp
	#DEBUG_VALUE: FmoGenerateType3MapUnitMap:rightBound <- $r10d
	#DEBUG_VALUE: FmoGenerateType3MapUnitMap:topBound <- [DW_OP_plus_uconst 12, DW_OP_deref] $rsp
	#DEBUG_VALUE: FmoGenerateType3MapUnitMap:leftBound <- $r11d
	cmpl	%r10d, %edi
	jne	.LBB0_64
.Ltmp274:
# %bb.63:                               # %if.then40.i.i
                                        #   in Loop: Header=BB0_56 Depth=1
	#DEBUG_VALUE: fmo_init:p_Vid <- $rbx
	#DEBUG_VALUE: fmo_init:pSlice <- [DW_OP_plus_uconst 16] [$rsp+0]
	#DEBUG_VALUE: fmo_init:pps <- [DW_OP_plus_uconst 24, DW_OP_deref] $rsp
	#DEBUG_VALUE: FmoGenerateMapUnitToSliceGroupMap:p_Vid <- $rbx
	#DEBUG_VALUE: FmoGenerateMapUnitToSliceGroupMap:pps <- [DW_OP_plus_uconst 24, DW_OP_deref] $rsp
	#DEBUG_VALUE: FmoGenerateMapUnitToSliceGroupMap:NumSliceGroupMapUnits <- $ebp
	#DEBUG_VALUE: FmoGenerateType3MapUnitMap:p_Vid <- $rbx
	#DEBUG_VALUE: FmoGenerateType3MapUnitMap:PicSizeInMapUnits <- $ebp
	#DEBUG_VALUE: FmoGenerateType3MapUnitMap:pps <- $rax
	#DEBUG_VALUE: FmoGenerateType3MapUnitMap:mapUnitsInSliceGroup0 <- [DW_OP_plus_uconst 36, DW_OP_deref] $rsp
	#DEBUG_VALUE: FmoGenerateType3MapUnitMap:x <- $edi
	#DEBUG_VALUE: FmoGenerateType3MapUnitMap:xDir <- $r14d
	#DEBUG_VALUE: FmoGenerateType3MapUnitMap:yDir <- $r13d
	#DEBUG_VALUE: FmoGenerateType3MapUnitMap:k <- $edx
	#DEBUG_VALUE: FmoGenerateType3MapUnitMap:y <- $esi
	#DEBUG_VALUE: FmoGenerateType3MapUnitMap:bottomBound <- [DW_OP_plus_uconst 8, DW_OP_deref] $rsp
	#DEBUG_VALUE: FmoGenerateType3MapUnitMap:rightBound <- $r10d
	#DEBUG_VALUE: FmoGenerateType3MapUnitMap:topBound <- [DW_OP_plus_uconst 12, DW_OP_deref] $rsp
	#DEBUG_VALUE: FmoGenerateType3MapUnitMap:leftBound <- $r11d
	.loc	0 460 39 is_stmt 1              # ldecod_src/fmo.c:460:39
	incl	%edi
.Ltmp275:
	.loc	0 460 56 is_stmt 0              # ldecod_src/fmo.c:460:56
	movl	848996(%rbx), %r10d
.Ltmp276:
	.loc	0 460 70                        # ldecod_src/fmo.c:460:70
	decl	%r10d
.Ltmp277:
	#DEBUG_VALUE: imin:b <- $r10d
	#DEBUG_VALUE: imin:a <- $edi
	.loc	5 44 10 is_stmt 1               # ldecod_src/inc/ifunctions.h:44:10
	cmpl	%r10d, %edi
	cmovll	%edi, %r10d
.Ltmp278:
	#DEBUG_VALUE: FmoGenerateType3MapUnitMap:rightBound <- $r10d
	#DEBUG_VALUE: FmoGenerateType3MapUnitMap:x <- $r10d
	#DEBUG_VALUE: FmoGenerateType3MapUnitMap:xDir <- 0
	.loc	0 463 29                        # ldecod_src/fmo.c:463:29
	movl	2148(%rax), %ecx
	.loc	0 463 22 is_stmt 0              # ldecod_src/fmo.c:463:22
	addl	%ecx, %ecx
	.loc	0 463 18                        # ldecod_src/fmo.c:463:18
	movl	$1, %r13d
.Ltmp279:
	subl	%ecx, %r13d
.Ltmp280:
	#DEBUG_VALUE: FmoGenerateType3MapUnitMap:yDir <- $r13d
	.loc	0 0 18                          # ldecod_src/fmo.c:0:18
	xorl	%r14d, %r14d
	movl	%r10d, %edi
.Ltmp281:
	.loc	0 464 7 is_stmt 1               # ldecod_src/fmo.c:464:7
	jmp	.LBB0_71
.Ltmp282:
	.p2align	4, 0x90
.LBB0_64:                               # %if.else48.i.i
                                        #   in Loop: Header=BB0_56 Depth=1
	#DEBUG_VALUE: fmo_init:p_Vid <- $rbx
	#DEBUG_VALUE: fmo_init:pSlice <- [DW_OP_plus_uconst 16] [$rsp+0]
	#DEBUG_VALUE: fmo_init:pps <- [DW_OP_plus_uconst 24, DW_OP_deref] $rsp
	#DEBUG_VALUE: FmoGenerateMapUnitToSliceGroupMap:p_Vid <- $rbx
	#DEBUG_VALUE: FmoGenerateMapUnitToSliceGroupMap:pps <- [DW_OP_plus_uconst 24, DW_OP_deref] $rsp
	#DEBUG_VALUE: FmoGenerateMapUnitToSliceGroupMap:NumSliceGroupMapUnits <- $ebp
	#DEBUG_VALUE: FmoGenerateType3MapUnitMap:p_Vid <- $rbx
	#DEBUG_VALUE: FmoGenerateType3MapUnitMap:PicSizeInMapUnits <- $ebp
	#DEBUG_VALUE: FmoGenerateType3MapUnitMap:pps <- $rax
	#DEBUG_VALUE: FmoGenerateType3MapUnitMap:mapUnitsInSliceGroup0 <- [DW_OP_plus_uconst 36, DW_OP_deref] $rsp
	#DEBUG_VALUE: FmoGenerateType3MapUnitMap:x <- $edi
	#DEBUG_VALUE: FmoGenerateType3MapUnitMap:xDir <- $r14d
	#DEBUG_VALUE: FmoGenerateType3MapUnitMap:yDir <- $r13d
	#DEBUG_VALUE: FmoGenerateType3MapUnitMap:k <- $edx
	#DEBUG_VALUE: FmoGenerateType3MapUnitMap:y <- $esi
	#DEBUG_VALUE: FmoGenerateType3MapUnitMap:bottomBound <- [DW_OP_plus_uconst 8, DW_OP_deref] $rsp
	#DEBUG_VALUE: FmoGenerateType3MapUnitMap:rightBound <- $r10d
	#DEBUG_VALUE: FmoGenerateType3MapUnitMap:topBound <- [DW_OP_plus_uconst 12, DW_OP_deref] $rsp
	#DEBUG_VALUE: FmoGenerateType3MapUnitMap:leftBound <- $r11d
	.loc	0 466 19                        # ldecod_src/fmo.c:466:19
	cmpl	$-1, %r13d
	.loc	0 466 27 is_stmt 0              # ldecod_src/fmo.c:466:27
	jne	.LBB0_67
.Ltmp283:
# %bb.65:                               # %if.else48.i.i
                                        #   in Loop: Header=BB0_56 Depth=1
	#DEBUG_VALUE: fmo_init:p_Vid <- $rbx
	#DEBUG_VALUE: fmo_init:pSlice <- [DW_OP_plus_uconst 16] [$rsp+0]
	#DEBUG_VALUE: fmo_init:pps <- [DW_OP_plus_uconst 24, DW_OP_deref] $rsp
	#DEBUG_VALUE: FmoGenerateMapUnitToSliceGroupMap:p_Vid <- $rbx
	#DEBUG_VALUE: FmoGenerateMapUnitToSliceGroupMap:pps <- [DW_OP_plus_uconst 24, DW_OP_deref] $rsp
	#DEBUG_VALUE: FmoGenerateMapUnitToSliceGroupMap:NumSliceGroupMapUnits <- $ebp
	#DEBUG_VALUE: FmoGenerateType3MapUnitMap:p_Vid <- $rbx
	#DEBUG_VALUE: FmoGenerateType3MapUnitMap:PicSizeInMapUnits <- $ebp
	#DEBUG_VALUE: FmoGenerateType3MapUnitMap:pps <- $rax
	#DEBUG_VALUE: FmoGenerateType3MapUnitMap:mapUnitsInSliceGroup0 <- [DW_OP_plus_uconst 36, DW_OP_deref] $rsp
	#DEBUG_VALUE: FmoGenerateType3MapUnitMap:x <- $edi
	#DEBUG_VALUE: FmoGenerateType3MapUnitMap:xDir <- $r14d
	#DEBUG_VALUE: FmoGenerateType3MapUnitMap:yDir <- $r13d
	#DEBUG_VALUE: FmoGenerateType3MapUnitMap:k <- $edx
	#DEBUG_VALUE: FmoGenerateType3MapUnitMap:y <- $esi
	#DEBUG_VALUE: FmoGenerateType3MapUnitMap:bottomBound <- [DW_OP_plus_uconst 8, DW_OP_deref] $rsp
	#DEBUG_VALUE: FmoGenerateType3MapUnitMap:rightBound <- $r10d
	#DEBUG_VALUE: FmoGenerateType3MapUnitMap:topBound <- [DW_OP_plus_uconst 12, DW_OP_deref] $rsp
	#DEBUG_VALUE: FmoGenerateType3MapUnitMap:leftBound <- $r11d
	cmpl	12(%rsp), %esi                  # 4-byte Folded Reload
	jne	.LBB0_67
.Ltmp284:
# %bb.66:                               # %if.then54.i.i
                                        #   in Loop: Header=BB0_56 Depth=1
	#DEBUG_VALUE: fmo_init:p_Vid <- $rbx
	#DEBUG_VALUE: fmo_init:pSlice <- [DW_OP_plus_uconst 16] [$rsp+0]
	#DEBUG_VALUE: fmo_init:pps <- [DW_OP_plus_uconst 24, DW_OP_deref] $rsp
	#DEBUG_VALUE: FmoGenerateMapUnitToSliceGroupMap:p_Vid <- $rbx
	#DEBUG_VALUE: FmoGenerateMapUnitToSliceGroupMap:pps <- [DW_OP_plus_uconst 24, DW_OP_deref] $rsp
	#DEBUG_VALUE: FmoGenerateMapUnitToSliceGroupMap:NumSliceGroupMapUnits <- $ebp
	#DEBUG_VALUE: FmoGenerateType3MapUnitMap:p_Vid <- $rbx
	#DEBUG_VALUE: FmoGenerateType3MapUnitMap:PicSizeInMapUnits <- $ebp
	#DEBUG_VALUE: FmoGenerateType3MapUnitMap:pps <- $rax
	#DEBUG_VALUE: FmoGenerateType3MapUnitMap:mapUnitsInSliceGroup0 <- [DW_OP_plus_uconst 36, DW_OP_deref] $rsp
	#DEBUG_VALUE: FmoGenerateType3MapUnitMap:x <- $edi
	#DEBUG_VALUE: FmoGenerateType3MapUnitMap:xDir <- $r14d
	#DEBUG_VALUE: FmoGenerateType3MapUnitMap:yDir <- $r13d
	#DEBUG_VALUE: FmoGenerateType3MapUnitMap:k <- $edx
	#DEBUG_VALUE: FmoGenerateType3MapUnitMap:y <- $esi
	#DEBUG_VALUE: FmoGenerateType3MapUnitMap:bottomBound <- [DW_OP_plus_uconst 8, DW_OP_deref] $rsp
	#DEBUG_VALUE: FmoGenerateType3MapUnitMap:rightBound <- $r10d
	#DEBUG_VALUE: FmoGenerateType3MapUnitMap:topBound <- [DW_OP_plus_uconst 12, DW_OP_deref] $rsp
	#DEBUG_VALUE: FmoGenerateType3MapUnitMap:leftBound <- $r11d
	#DEBUG_VALUE: imax:a <- [DW_OP_plus_uconst 12, DW_OP_deref, DW_OP_constu 1, DW_OP_minus, DW_OP_stack_value] $rsp
	#DEBUG_VALUE: imax:b <- 0
	.loc	5 49 10 is_stmt 1               # ldecod_src/inc/ifunctions.h:49:10
	cmpl	$2, %esi
	movl	$1, %ecx
	cmovll	%ecx, %esi
.Ltmp285:
	decl	%esi
.Ltmp286:
	#DEBUG_VALUE: FmoGenerateType3MapUnitMap:topBound <- $esi
	#DEBUG_VALUE: FmoGenerateType3MapUnitMap:y <- $esi
	.loc	0 470 31                        # ldecod_src/fmo.c:470:31
	movl	2148(%rax), %ecx
	.loc	0 470 24 is_stmt 0              # ldecod_src/fmo.c:470:24
	addl	%ecx, %ecx
	.loc	0 470 20                        # ldecod_src/fmo.c:470:20
	movl	$1, %r14d
.Ltmp287:
	subl	%ecx, %r14d
.Ltmp288:
	#DEBUG_VALUE: FmoGenerateType3MapUnitMap:xDir <- $r14d
	.loc	0 0 20                          # ldecod_src/fmo.c:0:20
	xorl	%r13d, %r13d
.Ltmp289:
	#DEBUG_VALUE: FmoGenerateType3MapUnitMap:yDir <- 0
	movl	%esi, 12(%rsp)                  # 4-byte Spill
.Ltmp290:
	#DEBUG_VALUE: FmoGenerateType3MapUnitMap:topBound <- [DW_OP_plus_uconst 12, DW_OP_deref] $rsp
	#DEBUG_VALUE: FmoGenerateType3MapUnitMap:y <- [DW_OP_plus_uconst 12, DW_OP_deref] $rsp
	#DEBUG_VALUE: imax:a <- [DW_OP_constu 1, DW_OP_minus, DW_OP_stack_value] undef
	.loc	0 472 10 is_stmt 1              # ldecod_src/fmo.c:472:10
	jmp	.LBB0_71
.Ltmp291:
.LBB0_67:                               # %if.else60.i.i
                                        #   in Loop: Header=BB0_56 Depth=1
	#DEBUG_VALUE: fmo_init:p_Vid <- $rbx
	#DEBUG_VALUE: fmo_init:pSlice <- [DW_OP_plus_uconst 16] [$rsp+0]
	#DEBUG_VALUE: fmo_init:pps <- [DW_OP_plus_uconst 24, DW_OP_deref] $rsp
	#DEBUG_VALUE: FmoGenerateMapUnitToSliceGroupMap:p_Vid <- $rbx
	#DEBUG_VALUE: FmoGenerateMapUnitToSliceGroupMap:pps <- [DW_OP_plus_uconst 24, DW_OP_deref] $rsp
	#DEBUG_VALUE: FmoGenerateMapUnitToSliceGroupMap:NumSliceGroupMapUnits <- $ebp
	#DEBUG_VALUE: FmoGenerateType3MapUnitMap:p_Vid <- $rbx
	#DEBUG_VALUE: FmoGenerateType3MapUnitMap:PicSizeInMapUnits <- $ebp
	#DEBUG_VALUE: FmoGenerateType3MapUnitMap:pps <- $rax
	#DEBUG_VALUE: FmoGenerateType3MapUnitMap:mapUnitsInSliceGroup0 <- [DW_OP_plus_uconst 36, DW_OP_deref] $rsp
	#DEBUG_VALUE: FmoGenerateType3MapUnitMap:x <- $edi
	#DEBUG_VALUE: FmoGenerateType3MapUnitMap:xDir <- $r14d
	#DEBUG_VALUE: FmoGenerateType3MapUnitMap:yDir <- $r13d
	#DEBUG_VALUE: FmoGenerateType3MapUnitMap:k <- $edx
	#DEBUG_VALUE: FmoGenerateType3MapUnitMap:y <- $esi
	#DEBUG_VALUE: FmoGenerateType3MapUnitMap:bottomBound <- [DW_OP_plus_uconst 8, DW_OP_deref] $rsp
	#DEBUG_VALUE: FmoGenerateType3MapUnitMap:rightBound <- $r10d
	#DEBUG_VALUE: FmoGenerateType3MapUnitMap:topBound <- [DW_OP_plus_uconst 12, DW_OP_deref] $rsp
	#DEBUG_VALUE: FmoGenerateType3MapUnitMap:leftBound <- $r11d
	.loc	0 474 21                        # ldecod_src/fmo.c:474:21
	cmpl	$1, %r13d
	.loc	0 474 28 is_stmt 0              # ldecod_src/fmo.c:474:28
	jne	.LBB0_70
.Ltmp292:
# %bb.68:                               # %if.else60.i.i
                                        #   in Loop: Header=BB0_56 Depth=1
	#DEBUG_VALUE: fmo_init:p_Vid <- $rbx
	#DEBUG_VALUE: fmo_init:pSlice <- [DW_OP_plus_uconst 16] [$rsp+0]
	#DEBUG_VALUE: fmo_init:pps <- [DW_OP_plus_uconst 24, DW_OP_deref] $rsp
	#DEBUG_VALUE: FmoGenerateMapUnitToSliceGroupMap:p_Vid <- $rbx
	#DEBUG_VALUE: FmoGenerateMapUnitToSliceGroupMap:pps <- [DW_OP_plus_uconst 24, DW_OP_deref] $rsp
	#DEBUG_VALUE: FmoGenerateMapUnitToSliceGroupMap:NumSliceGroupMapUnits <- $ebp
	#DEBUG_VALUE: FmoGenerateType3MapUnitMap:p_Vid <- $rbx
	#DEBUG_VALUE: FmoGenerateType3MapUnitMap:PicSizeInMapUnits <- $ebp
	#DEBUG_VALUE: FmoGenerateType3MapUnitMap:pps <- $rax
	#DEBUG_VALUE: FmoGenerateType3MapUnitMap:mapUnitsInSliceGroup0 <- [DW_OP_plus_uconst 36, DW_OP_deref] $rsp
	#DEBUG_VALUE: FmoGenerateType3MapUnitMap:x <- $edi
	#DEBUG_VALUE: FmoGenerateType3MapUnitMap:xDir <- $r14d
	#DEBUG_VALUE: FmoGenerateType3MapUnitMap:yDir <- $r13d
	#DEBUG_VALUE: FmoGenerateType3MapUnitMap:k <- $edx
	#DEBUG_VALUE: FmoGenerateType3MapUnitMap:y <- $esi
	#DEBUG_VALUE: FmoGenerateType3MapUnitMap:bottomBound <- [DW_OP_plus_uconst 8, DW_OP_deref] $rsp
	#DEBUG_VALUE: FmoGenerateType3MapUnitMap:rightBound <- $r10d
	#DEBUG_VALUE: FmoGenerateType3MapUnitMap:topBound <- [DW_OP_plus_uconst 12, DW_OP_deref] $rsp
	#DEBUG_VALUE: FmoGenerateType3MapUnitMap:leftBound <- $r11d
	cmpl	8(%rsp), %esi                   # 4-byte Folded Reload
	jne	.LBB0_70
.Ltmp293:
# %bb.69:                               # %if.then66.i.i
                                        #   in Loop: Header=BB0_56 Depth=1
	#DEBUG_VALUE: fmo_init:p_Vid <- $rbx
	#DEBUG_VALUE: fmo_init:pSlice <- [DW_OP_plus_uconst 16] [$rsp+0]
	#DEBUG_VALUE: fmo_init:pps <- [DW_OP_plus_uconst 24, DW_OP_deref] $rsp
	#DEBUG_VALUE: FmoGenerateMapUnitToSliceGroupMap:p_Vid <- $rbx
	#DEBUG_VALUE: FmoGenerateMapUnitToSliceGroupMap:pps <- [DW_OP_plus_uconst 24, DW_OP_deref] $rsp
	#DEBUG_VALUE: FmoGenerateMapUnitToSliceGroupMap:NumSliceGroupMapUnits <- $ebp
	#DEBUG_VALUE: FmoGenerateType3MapUnitMap:p_Vid <- $rbx
	#DEBUG_VALUE: FmoGenerateType3MapUnitMap:PicSizeInMapUnits <- $ebp
	#DEBUG_VALUE: FmoGenerateType3MapUnitMap:pps <- $rax
	#DEBUG_VALUE: FmoGenerateType3MapUnitMap:mapUnitsInSliceGroup0 <- [DW_OP_plus_uconst 36, DW_OP_deref] $rsp
	#DEBUG_VALUE: FmoGenerateType3MapUnitMap:x <- $edi
	#DEBUG_VALUE: FmoGenerateType3MapUnitMap:xDir <- $r14d
	#DEBUG_VALUE: FmoGenerateType3MapUnitMap:yDir <- $r13d
	#DEBUG_VALUE: FmoGenerateType3MapUnitMap:k <- $edx
	#DEBUG_VALUE: FmoGenerateType3MapUnitMap:y <- $esi
	#DEBUG_VALUE: FmoGenerateType3MapUnitMap:bottomBound <- [DW_OP_plus_uconst 8, DW_OP_deref] $rsp
	#DEBUG_VALUE: FmoGenerateType3MapUnitMap:rightBound <- $r10d
	#DEBUG_VALUE: FmoGenerateType3MapUnitMap:topBound <- [DW_OP_plus_uconst 12, DW_OP_deref] $rsp
	#DEBUG_VALUE: FmoGenerateType3MapUnitMap:leftBound <- $r11d
	.loc	0 476 45 is_stmt 1              # ldecod_src/fmo.c:476:45
	incl	%esi
.Ltmp294:
	.loc	0 476 62 is_stmt 0              # ldecod_src/fmo.c:476:62
	movl	849000(%rbx), %r9d
	.loc	0 476 82                        # ldecod_src/fmo.c:476:82
	decl	%r9d
.Ltmp295:
	#DEBUG_VALUE: imin:b <- $r9d
	#DEBUG_VALUE: imin:a <- $esi
	.loc	5 44 10 is_stmt 1               # ldecod_src/inc/ifunctions.h:44:10
	cmpl	%r9d, %esi
	cmovll	%esi, %r9d
.Ltmp296:
	#DEBUG_VALUE: FmoGenerateType3MapUnitMap:bottomBound <- $r9d
	#DEBUG_VALUE: FmoGenerateType3MapUnitMap:y <- $r9d
	.loc	0 478 29                        # ldecod_src/fmo.c:478:29
	movl	2148(%rax), %ecx
	.loc	0 478 63 is_stmt 0              # ldecod_src/fmo.c:478:63
	leal	-1(,%rcx,2), %r14d
.Ltmp297:
	#DEBUG_VALUE: FmoGenerateType3MapUnitMap:xDir <- $r14d
	.loc	0 0 63                          # ldecod_src/fmo.c:0:63
	xorl	%r13d, %r13d
.Ltmp298:
	#DEBUG_VALUE: FmoGenerateType3MapUnitMap:yDir <- 0
	movl	%r9d, 8(%rsp)                   # 4-byte Spill
.Ltmp299:
	#DEBUG_VALUE: FmoGenerateType3MapUnitMap:bottomBound <- [DW_OP_plus_uconst 8, DW_OP_deref] $rsp
	#DEBUG_VALUE: FmoGenerateType3MapUnitMap:y <- [DW_OP_plus_uconst 8, DW_OP_deref] $rsp
	movl	%r9d, %esi
.Ltmp300:
	.loc	0 480 11 is_stmt 1              # ldecod_src/fmo.c:480:11
	jmp	.LBB0_71
.Ltmp301:
.LBB0_70:                               # %if.else74.i.i
                                        #   in Loop: Header=BB0_56 Depth=1
	#DEBUG_VALUE: fmo_init:p_Vid <- $rbx
	#DEBUG_VALUE: fmo_init:pSlice <- [DW_OP_plus_uconst 16] [$rsp+0]
	#DEBUG_VALUE: fmo_init:pps <- [DW_OP_plus_uconst 24, DW_OP_deref] $rsp
	#DEBUG_VALUE: FmoGenerateMapUnitToSliceGroupMap:p_Vid <- $rbx
	#DEBUG_VALUE: FmoGenerateMapUnitToSliceGroupMap:pps <- [DW_OP_plus_uconst 24, DW_OP_deref] $rsp
	#DEBUG_VALUE: FmoGenerateMapUnitToSliceGroupMap:NumSliceGroupMapUnits <- $ebp
	#DEBUG_VALUE: FmoGenerateType3MapUnitMap:p_Vid <- $rbx
	#DEBUG_VALUE: FmoGenerateType3MapUnitMap:PicSizeInMapUnits <- $ebp
	#DEBUG_VALUE: FmoGenerateType3MapUnitMap:pps <- $rax
	#DEBUG_VALUE: FmoGenerateType3MapUnitMap:mapUnitsInSliceGroup0 <- [DW_OP_plus_uconst 36, DW_OP_deref] $rsp
	#DEBUG_VALUE: FmoGenerateType3MapUnitMap:x <- $edi
	#DEBUG_VALUE: FmoGenerateType3MapUnitMap:xDir <- $r14d
	#DEBUG_VALUE: FmoGenerateType3MapUnitMap:yDir <- $r13d
	#DEBUG_VALUE: FmoGenerateType3MapUnitMap:k <- $edx
	#DEBUG_VALUE: FmoGenerateType3MapUnitMap:y <- $esi
	#DEBUG_VALUE: FmoGenerateType3MapUnitMap:bottomBound <- [DW_OP_plus_uconst 8, DW_OP_deref] $rsp
	#DEBUG_VALUE: FmoGenerateType3MapUnitMap:rightBound <- $r10d
	#DEBUG_VALUE: FmoGenerateType3MapUnitMap:topBound <- [DW_OP_plus_uconst 12, DW_OP_deref] $rsp
	#DEBUG_VALUE: FmoGenerateType3MapUnitMap:leftBound <- $r11d
	.loc	0 483 19                        # ldecod_src/fmo.c:483:19
	addl	%r14d, %edi
.Ltmp302:
	#DEBUG_VALUE: FmoGenerateType3MapUnitMap:x <- $edi
	.loc	0 484 19                        # ldecod_src/fmo.c:484:19
	addl	%r13d, %esi
.Ltmp303:
	#DEBUG_VALUE: FmoGenerateType3MapUnitMap:y <- $esi
	.loc	0 0 19 is_stmt 0                # ldecod_src/fmo.c:0:19
	jmp	.LBB0_71
.Ltmp304:
.LBB0_91:                               # %for.body.lr.ph.i141.i.new
	#DEBUG_VALUE: fmo_init:p_Vid <- $rbx
	#DEBUG_VALUE: fmo_init:pSlice <- [DW_OP_plus_uconst 16] [$rsp+0]
	#DEBUG_VALUE: fmo_init:pps <- [DW_OP_plus_uconst 24, DW_OP_deref] $rsp
	#DEBUG_VALUE: FmoGenerateMapUnitToSliceGroupMap:p_Vid <- $rbx
	#DEBUG_VALUE: FmoGenerateMapUnitToSliceGroupMap:pps <- [DW_OP_plus_uconst 24, DW_OP_deref] $rsp
	#DEBUG_VALUE: FmoGenerateMapUnitToSliceGroupMap:NumSliceGroupMapUnits <- $ebp
	#DEBUG_VALUE: FmoGenerateType6MapUnitMap:p_Vid <- $rbx
	#DEBUG_VALUE: FmoGenerateType6MapUnitMap:PicSizeInMapUnits <- $ebp
	#DEBUG_VALUE: FmoGenerateType6MapUnitMap:pps <- $rax
	#DEBUG_VALUE: FmoGenerateType6MapUnitMap:i <- 0
	.loc	0 550 3 is_stmt 1               # ldecod_src/fmo.c:550:3
	andl	$-4, %r15d
	xorl	%edx, %edx
.Ltmp305:
	.p2align	4, 0x90
.LBB0_92:                               # %for.body.i145.i
                                        # =>This Inner Loop Header: Depth=1
	#DEBUG_VALUE: fmo_init:p_Vid <- $rbx
	#DEBUG_VALUE: fmo_init:pSlice <- [DW_OP_plus_uconst 16] [$rsp+0]
	#DEBUG_VALUE: fmo_init:pps <- [DW_OP_plus_uconst 24, DW_OP_deref] $rsp
	#DEBUG_VALUE: FmoGenerateMapUnitToSliceGroupMap:p_Vid <- $rbx
	#DEBUG_VALUE: FmoGenerateMapUnitToSliceGroupMap:pps <- [DW_OP_plus_uconst 24, DW_OP_deref] $rsp
	#DEBUG_VALUE: FmoGenerateMapUnitToSliceGroupMap:NumSliceGroupMapUnits <- $ebp
	#DEBUG_VALUE: FmoGenerateType6MapUnitMap:p_Vid <- $rbx
	#DEBUG_VALUE: FmoGenerateType6MapUnitMap:PicSizeInMapUnits <- $ebp
	#DEBUG_VALUE: FmoGenerateType6MapUnitMap:pps <- $rax
	#DEBUG_VALUE: FmoGenerateType6MapUnitMap:i <- $rdx
	.loc	0 552 45                        # ldecod_src/fmo.c:552:45
	movq	2160(%rax), %rsi
	.loc	0 552 40 is_stmt 0              # ldecod_src/fmo.c:552:40
	movzbl	(%rsi,%rdx), %esi
	.loc	0 552 12                        # ldecod_src/fmo.c:552:12
	movq	856712(%rbx), %rdi
	.loc	0 552 38                        # ldecod_src/fmo.c:552:38
	movl	%esi, (%rdi,%rdx,4)
.Ltmp306:
	#DEBUG_VALUE: FmoGenerateType6MapUnitMap:i <- [DW_OP_constu 1, DW_OP_or, DW_OP_stack_value] $rdx
	.loc	0 552 45                        # ldecod_src/fmo.c:552:45
	movq	2160(%rax), %rsi
	.loc	0 552 40                        # ldecod_src/fmo.c:552:40
	movzbl	1(%rsi,%rdx), %esi
	.loc	0 552 12                        # ldecod_src/fmo.c:552:12
	movq	856712(%rbx), %rdi
	.loc	0 552 38                        # ldecod_src/fmo.c:552:38
	movl	%esi, 4(%rdi,%rdx,4)
.Ltmp307:
	#DEBUG_VALUE: FmoGenerateType6MapUnitMap:i <- [DW_OP_constu 2, DW_OP_or, DW_OP_stack_value] $rdx
	.loc	0 552 45                        # ldecod_src/fmo.c:552:45
	movq	2160(%rax), %rsi
	.loc	0 552 40                        # ldecod_src/fmo.c:552:40
	movzbl	2(%rsi,%rdx), %esi
	.loc	0 552 12                        # ldecod_src/fmo.c:552:12
	movq	856712(%rbx), %rdi
	.loc	0 552 38                        # ldecod_src/fmo.c:552:38
	movl	%esi, 8(%rdi,%rdx,4)
.Ltmp308:
	#DEBUG_VALUE: FmoGenerateType6MapUnitMap:i <- [DW_OP_constu 3, DW_OP_or, DW_OP_stack_value] $rdx
	.loc	0 552 45                        # ldecod_src/fmo.c:552:45
	movq	2160(%rax), %rsi
	.loc	0 552 40                        # ldecod_src/fmo.c:552:40
	movzbl	3(%rsi,%rdx), %esi
	.loc	0 552 12                        # ldecod_src/fmo.c:552:12
	movq	856712(%rbx), %rdi
	.loc	0 552 38                        # ldecod_src/fmo.c:552:38
	movl	%esi, 12(%rdi,%rdx,4)
.Ltmp309:
	.loc	0 550 35 is_stmt 1              # ldecod_src/fmo.c:550:35
	addq	$4, %rdx
.Ltmp310:
	#DEBUG_VALUE: FmoGenerateType6MapUnitMap:i <- $rdx
	.loc	0 550 3 is_stmt 0               # ldecod_src/fmo.c:550:3
	cmpq	%rdx, %r15
	jne	.LBB0_92
.Ltmp311:
.LBB0_93:                               # %FmoGenerateMapUnitToSliceGroupMap.exit.loopexit96.unr-lcssa
	#DEBUG_VALUE: fmo_init:p_Vid <- $rbx
	#DEBUG_VALUE: fmo_init:pSlice <- [DW_OP_plus_uconst 16] [$rsp+0]
	#DEBUG_VALUE: fmo_init:pps <- [DW_OP_plus_uconst 24, DW_OP_deref] $rsp
	#DEBUG_VALUE: FmoGenerateMapUnitToSliceGroupMap:p_Vid <- $rbx
	#DEBUG_VALUE: FmoGenerateMapUnitToSliceGroupMap:pps <- [DW_OP_plus_uconst 24, DW_OP_deref] $rsp
	#DEBUG_VALUE: FmoGenerateMapUnitToSliceGroupMap:NumSliceGroupMapUnits <- $ebp
	#DEBUG_VALUE: FmoGenerateType6MapUnitMap:p_Vid <- $rbx
	#DEBUG_VALUE: FmoGenerateType6MapUnitMap:PicSizeInMapUnits <- $ebp
	#DEBUG_VALUE: FmoGenerateType6MapUnitMap:pps <- $rax
	testq	%rcx, %rcx
	je	.LBB0_95
.Ltmp312:
	.p2align	4, 0x90
.LBB0_94:                               # %for.body.i145.i.epil
                                        # =>This Inner Loop Header: Depth=1
	#DEBUG_VALUE: fmo_init:p_Vid <- $rbx
	#DEBUG_VALUE: fmo_init:pSlice <- [DW_OP_plus_uconst 16] [$rsp+0]
	#DEBUG_VALUE: fmo_init:pps <- [DW_OP_plus_uconst 24, DW_OP_deref] $rsp
	#DEBUG_VALUE: FmoGenerateMapUnitToSliceGroupMap:p_Vid <- $rbx
	#DEBUG_VALUE: FmoGenerateMapUnitToSliceGroupMap:pps <- [DW_OP_plus_uconst 24, DW_OP_deref] $rsp
	#DEBUG_VALUE: FmoGenerateMapUnitToSliceGroupMap:NumSliceGroupMapUnits <- $ebp
	#DEBUG_VALUE: FmoGenerateType6MapUnitMap:p_Vid <- $rbx
	#DEBUG_VALUE: FmoGenerateType6MapUnitMap:PicSizeInMapUnits <- $ebp
	#DEBUG_VALUE: FmoGenerateType6MapUnitMap:pps <- $rax
	#DEBUG_VALUE: FmoGenerateType6MapUnitMap:i <- $rdx
	.loc	0 552 45 is_stmt 1              # ldecod_src/fmo.c:552:45
	movq	2160(%rax), %rsi
	.loc	0 552 40 is_stmt 0              # ldecod_src/fmo.c:552:40
	movzbl	(%rsi,%rdx), %esi
	.loc	0 552 12                        # ldecod_src/fmo.c:552:12
	movq	856712(%rbx), %rdi
	.loc	0 552 38                        # ldecod_src/fmo.c:552:38
	movl	%esi, (%rdi,%rdx,4)
.Ltmp313:
	.loc	0 550 35 is_stmt 1              # ldecod_src/fmo.c:550:35
	incq	%rdx
.Ltmp314:
	#DEBUG_VALUE: FmoGenerateType6MapUnitMap:i <- $rdx
	.loc	0 550 3 is_stmt 0               # ldecod_src/fmo.c:550:3
	decq	%rcx
	jne	.LBB0_94
	jmp	.LBB0_95
.Ltmp315:
.LBB0_6:                                # %if.then13.i
	#DEBUG_VALUE: fmo_init:p_Vid <- $rbx
	#DEBUG_VALUE: fmo_init:pSlice <- [DW_OP_plus_uconst 16] [$rsp+0]
	#DEBUG_VALUE: fmo_init:pps <- $r14
	#DEBUG_VALUE: FmoGenerateMapUnitToSliceGroupMap:p_Vid <- $rbx
	#DEBUG_VALUE: FmoGenerateMapUnitToSliceGroupMap:pps <- $r14
	#DEBUG_VALUE: FmoGenerateMapUnitToSliceGroupMap:NumSliceGroupMapUnits <- $ebp
	.loc	0 68 98 is_stmt 1               # ldecod_src/fmo.c:68:98
	movl	2156(%r14), %eax
	.loc	0 68 130 is_stmt 0              # ldecod_src/fmo.c:68:130
	leal	4(,%rax,4), %esi
	.loc	0 68 5                          # ldecod_src/fmo.c:68:5
	movl	$.L.str.1, %edi
.Ltmp316:
	.loc	0 0 0                           # ldecod_src/fmo.c:0:0
	xorl	%eax, %eax
	callq	printf@PLT
.Ltmp317:
	movl	$-1, %edi
	callq	exit@PLT
.Ltmp318:
.LBB0_98:                               # %if.then4.i15
	#DEBUG_VALUE: fmo_init:p_Vid <- $rbx
	#DEBUG_VALUE: fmo_init:pSlice <- [DW_OP_plus_uconst 16] [$rsp+0]
	#DEBUG_VALUE: fmo_init:pps <- [DW_OP_plus_uconst 24, DW_OP_deref] $rsp
	#DEBUG_VALUE: FmoGenerateMbToSliceGroupMap:p_Vid <- $rbx
	#DEBUG_VALUE: FmoGenerateMbToSliceGroupMap:pSlice <- [DW_OP_plus_uconst 16, DW_OP_deref] $rsp
	#DEBUG_VALUE: FmoGenerateMbToSliceGroupMap:sps <- $r14
	.loc	0 131 107 is_stmt 1             # ldecod_src/fmo.c:131:107
	shll	$2, %r15d
	.loc	0 131 5 is_stmt 0               # ldecod_src/fmo.c:131:5
	movl	$.L.str.3, %edi
	movl	%r15d, %esi
.Ltmp319:
	.loc	0 0 0                           # ldecod_src/fmo.c:0:0
	xorl	%eax, %eax
	callq	printf@PLT
.Ltmp320:
	movl	$-1, %edi
	callq	exit@PLT
.Ltmp321:
.LBB0_99:                               # %sw.default.i
	#DEBUG_VALUE: fmo_init:p_Vid <- $rbx
	#DEBUG_VALUE: fmo_init:pSlice <- [DW_OP_plus_uconst 16] [$rsp+0]
	#DEBUG_VALUE: fmo_init:pps <- [DW_OP_plus_uconst 24, DW_OP_deref] $rsp
	#DEBUG_VALUE: FmoGenerateMapUnitToSliceGroupMap:p_Vid <- $rbx
	#DEBUG_VALUE: FmoGenerateMapUnitToSliceGroupMap:pps <- [DW_OP_plus_uconst 24, DW_OP_deref] $rsp
	#DEBUG_VALUE: FmoGenerateMapUnitToSliceGroupMap:NumSliceGroupMapUnits <- $ebp
	.loc	0 102 5 is_stmt 1               # ldecod_src/fmo.c:102:5
	movl	$.L.str.2, %edi
.Ltmp322:
                                        # kill: def $esi killed $esi killed $rsi
	.loc	0 0 0 is_stmt 0                 # ldecod_src/fmo.c:0:0
	xorl	%eax, %eax
	callq	printf@PLT
.Ltmp323:
	movl	$-1, %edi
	callq	exit@PLT
.Ltmp324:
.Lfunc_end0:
	.size	fmo_init, .Lfunc_end0-fmo_init
	.cfi_endproc
	.section	.rodata,"a",@progbits
	.p2align	3, 0x0
.LJTI0_0:
	.quad	.LBB0_11
	.quad	.LBB0_22
	.quad	.LBB0_25
	.quad	.LBB0_48
	.quad	.LBB0_72
	.quad	.LBB0_79
	.quad	.LBB0_88
	.file	6 "ldecod_src/inc" "global.h" md5 0xc4ca3c417c5616a2ff6b6266e7376fc1
	.file	7 "ldecod_src/inc" "parsetcommon.h" md5 0xd59d7e00f3aec3a23ed88314ae35b687
	.file	8 "ldecod_src/inc" "typedefs.h" md5 0xe1393d024b72e653f4e6dbeffdb0b154
	.file	9 "/usr/include/x86_64-linux-gnu/bits" "types.h" md5 0xd108b5f93a74c50510d7d9bc0ab36df9
	.file	10 "/usr/include/x86_64-linux-gnu/bits" "stdint-intn.h" md5 0x55bcbdc3159515ebd91d351a70d505f4
	.file	11 "ldecod_src/inc" "win32.h" md5 0x100def0ffeee72ecdc377183538a04bb
	.file	12 "ldecod_src/inc" "io_image.h" md5 0x8caef624e6f5391b0c6ab2984e7f77c6
	.file	13 "/usr/include" "stdlib.h" md5 0x02258fad21adf111bb9df9825e61954a
	.file	14 "/home/yjs/workspace" "GPUISel-llvm/build/lib/clang/19/include/__stddef_size_t.h" md5 0x2c44e821a2b1951cde2eb0fb2e656867
	.file	15 "/usr/include" "stdio.h" md5 0xf31eefcc3f15835fc5a4023a625cf609
                                        # -- End function
	.text
	.globl	FmoFinit                        # -- Begin function FmoFinit
	.p2align	4, 0x90
	.type	FmoFinit,@function
FmoFinit:                               # @FmoFinit
.Lfunc_begin1:
	.loc	0 224 0 is_stmt 1               # ldecod_src/fmo.c:224:0
	.cfi_startproc
# %bb.0:                                # %entry
	#DEBUG_VALUE: FmoFinit:p_Vid <- $rdi
	pushq	%rbx
	.cfi_def_cfa_offset 16
	.cfi_offset %rbx, -16
	movq	%rdi, %rbx
.Ltmp325:
	.loc	0 225 14 prologue_end           # ldecod_src/fmo.c:225:14
	movq	856704(%rdi), %rdi
.Ltmp326:
	#DEBUG_VALUE: FmoFinit:p_Vid <- $rbx
	.loc	0 225 7 is_stmt 0               # ldecod_src/fmo.c:225:7
	testq	%rdi, %rdi
.Ltmp327:
	.loc	0 225 7                         # ldecod_src/fmo.c:225:7
	je	.LBB1_2
.Ltmp328:
# %bb.1:                                # %if.then
	#DEBUG_VALUE: FmoFinit:p_Vid <- $rbx
	.loc	0 227 5 is_stmt 1               # ldecod_src/fmo.c:227:5
	callq	free@PLT
.Ltmp329:
	.loc	0 228 30                        # ldecod_src/fmo.c:228:30
	movq	$0, 856704(%rbx)
.Ltmp330:
.LBB1_2:                                # %if.end
	#DEBUG_VALUE: FmoFinit:p_Vid <- $rbx
	.loc	0 230 14                        # ldecod_src/fmo.c:230:14
	movq	856712(%rbx), %rdi
	.loc	0 230 7 is_stmt 0               # ldecod_src/fmo.c:230:7
	testq	%rdi, %rdi
.Ltmp331:
	.loc	0 230 7                         # ldecod_src/fmo.c:230:7
	je	.LBB1_4
.Ltmp332:
# %bb.3:                                # %if.then4
	#DEBUG_VALUE: FmoFinit:p_Vid <- $rbx
	.loc	0 232 5 is_stmt 1               # ldecod_src/fmo.c:232:5
	callq	free@PLT
.Ltmp333:
	.loc	0 233 35                        # ldecod_src/fmo.c:233:35
	movq	$0, 856712(%rbx)
.Ltmp334:
.LBB1_4:                                # %if.end7
	#DEBUG_VALUE: FmoFinit:p_Vid <- $rbx
	.loc	0 235 3                         # ldecod_src/fmo.c:235:3
	xorl	%eax, %eax
	.loc	0 235 3 epilogue_begin is_stmt 0 # ldecod_src/fmo.c:235:3
	popq	%rbx
.Ltmp335:
	#DEBUG_VALUE: FmoFinit:p_Vid <- [DW_OP_LLVM_entry_value 1] $rdi
	.cfi_def_cfa_offset 8
	retq
.Ltmp336:
.Lfunc_end1:
	.size	FmoFinit, .Lfunc_end1-FmoFinit
	.cfi_endproc
                                        # -- End function
	.globl	FmoGetNumberOfSliceGroup        # -- Begin function FmoGetNumberOfSliceGroup
	.p2align	4, 0x90
	.type	FmoGetNumberOfSliceGroup,@function
FmoGetNumberOfSliceGroup:               # @FmoGetNumberOfSliceGroup
.Lfunc_begin2:
	.cfi_startproc
# %bb.0:                                # %entry
	#DEBUG_VALUE: FmoGetNumberOfSliceGroup:p_Vid <- $rdi
	.loc	0 250 17 prologue_end is_stmt 1 # ldecod_src/fmo.c:250:17
	movl	856720(%rdi), %eax
	.loc	0 250 3 is_stmt 0               # ldecod_src/fmo.c:250:3
	retq
.Ltmp337:
.Lfunc_end2:
	.size	FmoGetNumberOfSliceGroup, .Lfunc_end2-FmoGetNumberOfSliceGroup
	.cfi_endproc
                                        # -- End function
	.globl	FmoGetLastMBOfPicture           # -- Begin function FmoGetLastMBOfPicture
	.p2align	4, 0x90
	.type	FmoGetLastMBOfPicture,@function
FmoGetLastMBOfPicture:                  # @FmoGetLastMBOfPicture
.Lfunc_begin3:
	.cfi_startproc
# %bb.0:                                # %entry
	#DEBUG_VALUE: FmoGetLastMBOfPicture:p_Vid <- $rdi
	#DEBUG_VALUE: FmoGetNumberOfSliceGroup:p_Vid <- $rdi
	.loc	0 250 17 prologue_end is_stmt 1 # ldecod_src/fmo.c:250:17
	movl	856720(%rdi), %ecx
.Ltmp338:
	.loc	0 268 74                        # ldecod_src/fmo.c:268:74
	decl	%ecx
.Ltmp339:
	#DEBUG_VALUE: FmoGetLastMBInSliceGroup:SliceGroup <- $ecx
	#DEBUG_VALUE: FmoGetLastMBInSliceGroup:p_Vid <- $rdi
	.loc	0 286 17                        # ldecod_src/fmo.c:286:17
	movl	849012(%rdi), %eax
.Ltmp340:
	#DEBUG_VALUE: FmoGetLastMBInSliceGroup:i <- [DW_OP_constu 1, DW_OP_minus, DW_OP_stack_value] $eax
	.loc	0 286 8 is_stmt 0               # ldecod_src/fmo.c:286:8
	movq	%rax, %rdx
	decq	%rdx
.Ltmp341:
	.p2align	4, 0x90
.LBB3_1:                                # %for.cond.i
                                        # =>This Inner Loop Header: Depth=1
	#DEBUG_VALUE: FmoGetLastMBOfPicture:p_Vid <- $rdi
	#DEBUG_VALUE: FmoGetLastMBInSliceGroup:SliceGroup <- $ecx
	#DEBUG_VALUE: FmoGetLastMBInSliceGroup:p_Vid <- $rdi
	#DEBUG_VALUE: FmoGetLastMBInSliceGroup:i <- [DW_OP_LLVM_arg 0, DW_OP_consts 18446744073709551615, DW_OP_LLVM_arg 1, DW_OP_LLVM_convert 64 7, DW_OP_plus, DW_OP_minus, DW_OP_consts 18446744073709551615, DW_OP_div, DW_OP_consts 18446744073709551615, DW_OP_mul, DW_OP_consts 18446744073709551615, DW_OP_LLVM_arg 1, DW_OP_plus, DW_OP_plus, DW_OP_stack_value] undef, undef
	.loc	0 286 34                        # ldecod_src/fmo.c:286:34
	decl	%eax
.Ltmp342:
	.loc	0 286 3                         # ldecod_src/fmo.c:286:3
	js	.LBB3_2
.Ltmp343:
# %bb.3:                                # %for.body.i
                                        #   in Loop: Header=BB3_1 Depth=1
	#DEBUG_VALUE: FmoGetLastMBOfPicture:p_Vid <- $rdi
	#DEBUG_VALUE: FmoGetLastMBInSliceGroup:SliceGroup <- $ecx
	#DEBUG_VALUE: FmoGetLastMBInSliceGroup:p_Vid <- $rdi
	#DEBUG_VALUE: FmoGetSliceGroupId:p_Vid <- $rdi
	#DEBUG_VALUE: FmoGetSliceGroupId:mb <- [DW_OP_LLVM_arg 0, DW_OP_consts 18446744073709551615, DW_OP_LLVM_arg 1, DW_OP_LLVM_convert 64 7, DW_OP_plus, DW_OP_minus, DW_OP_consts 18446744073709551615, DW_OP_div, DW_OP_consts 18446744073709551615, DW_OP_mul, DW_OP_consts 18446744073709551615, DW_OP_LLVM_arg 1, DW_OP_plus, DW_OP_plus, DW_OP_stack_value] undef, undef
	.loc	0 309 17 is_stmt 1              # ldecod_src/fmo.c:309:17
	movq	856704(%rdi), %rsi
	.loc	0 309 10 is_stmt 0              # ldecod_src/fmo.c:309:10
	movl	%edx, %r8d
	andl	$2147483647, %r8d               # imm = 0x7FFFFFFF
.Ltmp344:
	.loc	0 287 9 is_stmt 1               # ldecod_src/fmo.c:287:9
	decq	%rdx
.Ltmp345:
	.loc	0 287 39 is_stmt 0              # ldecod_src/fmo.c:287:39
	cmpl	%ecx, (%rsi,%r8,4)
.Ltmp346:
	.loc	0 287 9                         # ldecod_src/fmo.c:287:9
	jne	.LBB3_1
.Ltmp347:
# %bb.4:                                # %FmoGetLastMBInSliceGroup.exit
	#DEBUG_VALUE: FmoGetLastMBOfPicture:p_Vid <- $rdi
                                        # kill: def $eax killed $eax killed $rax
	.loc	0 268 3 is_stmt 1               # ldecod_src/fmo.c:268:3
	retq
.Ltmp348:
.LBB3_2:
	#DEBUG_VALUE: FmoGetLastMBOfPicture:p_Vid <- $rdi
	.loc	0 0 3 is_stmt 0                 # ldecod_src/fmo.c:0:3
	movl	$-1, %eax
                                        # kill: def $eax killed $eax killed $rax
	.loc	0 268 3                         # ldecod_src/fmo.c:268:3
	retq
.Ltmp349:
.Lfunc_end3:
	.size	FmoGetLastMBOfPicture, .Lfunc_end3-FmoGetLastMBOfPicture
	.cfi_endproc
                                        # -- End function
	.globl	FmoGetLastMBInSliceGroup        # -- Begin function FmoGetLastMBInSliceGroup
	.p2align	4, 0x90
	.type	FmoGetLastMBInSliceGroup,@function
FmoGetLastMBInSliceGroup:               # @FmoGetLastMBInSliceGroup
.Lfunc_begin4:
	.cfi_startproc
# %bb.0:                                # %entry
	#DEBUG_VALUE: FmoGetLastMBInSliceGroup:p_Vid <- $rdi
	#DEBUG_VALUE: FmoGetLastMBInSliceGroup:SliceGroup <- $esi
	.loc	0 286 17 prologue_end is_stmt 1 # ldecod_src/fmo.c:286:17
	movl	849012(%rdi), %eax
.Ltmp350:
	#DEBUG_VALUE: FmoGetLastMBInSliceGroup:i <- [DW_OP_constu 1, DW_OP_minus, DW_OP_stack_value] $eax
	.loc	0 286 8 is_stmt 0               # ldecod_src/fmo.c:286:8
	movq	%rax, %rcx
	decq	%rcx
.Ltmp351:
	.p2align	4, 0x90
.LBB4_1:                                # %for.cond
                                        # =>This Inner Loop Header: Depth=1
	#DEBUG_VALUE: FmoGetLastMBInSliceGroup:p_Vid <- $rdi
	#DEBUG_VALUE: FmoGetLastMBInSliceGroup:SliceGroup <- $esi
	#DEBUG_VALUE: FmoGetLastMBInSliceGroup:i <- [DW_OP_LLVM_arg 0, DW_OP_consts 18446744073709551615, DW_OP_LLVM_arg 1, DW_OP_LLVM_convert 64 7, DW_OP_plus, DW_OP_minus, DW_OP_consts 18446744073709551615, DW_OP_div, DW_OP_consts 18446744073709551615, DW_OP_mul, DW_OP_consts 18446744073709551615, DW_OP_LLVM_arg 1, DW_OP_plus, DW_OP_plus, DW_OP_stack_value] undef, undef
	.loc	0 286 34                        # ldecod_src/fmo.c:286:34
	decl	%eax
.Ltmp352:
	.loc	0 286 3                         # ldecod_src/fmo.c:286:3
	js	.LBB4_2
.Ltmp353:
# %bb.3:                                # %for.body
                                        #   in Loop: Header=BB4_1 Depth=1
	#DEBUG_VALUE: FmoGetLastMBInSliceGroup:p_Vid <- $rdi
	#DEBUG_VALUE: FmoGetLastMBInSliceGroup:SliceGroup <- $esi
	#DEBUG_VALUE: FmoGetSliceGroupId:p_Vid <- $rdi
	#DEBUG_VALUE: FmoGetSliceGroupId:mb <- [DW_OP_LLVM_arg 0, DW_OP_consts 18446744073709551615, DW_OP_LLVM_arg 1, DW_OP_LLVM_convert 64 7, DW_OP_plus, DW_OP_minus, DW_OP_consts 18446744073709551615, DW_OP_div, DW_OP_consts 18446744073709551615, DW_OP_mul, DW_OP_consts 18446744073709551615, DW_OP_LLVM_arg 1, DW_OP_plus, DW_OP_plus, DW_OP_stack_value] undef, undef
	.loc	0 309 17 is_stmt 1              # ldecod_src/fmo.c:309:17
	movq	856704(%rdi), %rdx
	.loc	0 309 10 is_stmt 0              # ldecod_src/fmo.c:309:10
	movl	%ecx, %r8d
	andl	$2147483647, %r8d               # imm = 0x7FFFFFFF
.Ltmp354:
	.loc	0 287 9 is_stmt 1               # ldecod_src/fmo.c:287:9
	decq	%rcx
.Ltmp355:
	.loc	0 287 39 is_stmt 0              # ldecod_src/fmo.c:287:39
	cmpl	%esi, (%rdx,%r8,4)
.Ltmp356:
	.loc	0 287 9                         # ldecod_src/fmo.c:287:9
	jne	.LBB4_1
.Ltmp357:
# %bb.4:                                # %cleanup
	#DEBUG_VALUE: FmoGetLastMBInSliceGroup:p_Vid <- $rdi
	#DEBUG_VALUE: FmoGetLastMBInSliceGroup:SliceGroup <- $esi
                                        # kill: def $eax killed $eax killed $rax
	.loc	0 291 1 is_stmt 1               # ldecod_src/fmo.c:291:1
	retq
.Ltmp358:
.LBB4_2:
	#DEBUG_VALUE: FmoGetLastMBInSliceGroup:p_Vid <- $rdi
	#DEBUG_VALUE: FmoGetLastMBInSliceGroup:SliceGroup <- $esi
	.loc	0 0 1 is_stmt 0                 # ldecod_src/fmo.c:0:1
	movl	$-1, %eax
                                        # kill: def $eax killed $eax killed $rax
	.loc	0 291 1                         # ldecod_src/fmo.c:291:1
	retq
.Ltmp359:
.Lfunc_end4:
	.size	FmoGetLastMBInSliceGroup, .Lfunc_end4-FmoGetLastMBInSliceGroup
	.cfi_endproc
                                        # -- End function
	.globl	FmoGetSliceGroupId              # -- Begin function FmoGetSliceGroupId
	.p2align	4, 0x90
	.type	FmoGetSliceGroupId,@function
FmoGetSliceGroupId:                     # @FmoGetSliceGroupId
.Lfunc_begin5:
	.cfi_startproc
# %bb.0:                                # %entry
	#DEBUG_VALUE: FmoGetSliceGroupId:p_Vid <- $rdi
	#DEBUG_VALUE: FmoGetSliceGroupId:mb <- $esi
	.loc	0 309 17 prologue_end is_stmt 1 # ldecod_src/fmo.c:309:17
	movq	856704(%rdi), %rax
	.loc	0 309 10 is_stmt 0              # ldecod_src/fmo.c:309:10
	movslq	%esi, %rcx
	movl	(%rax,%rcx,4), %eax
	.loc	0 309 3                         # ldecod_src/fmo.c:309:3
	retq
.Ltmp360:
.Lfunc_end5:
	.size	FmoGetSliceGroupId, .Lfunc_end5-FmoGetSliceGroupId
	.cfi_endproc
                                        # -- End function
	.globl	FmoGetNextMBNr                  # -- Begin function FmoGetNextMBNr
	.p2align	4, 0x90
	.type	FmoGetNextMBNr,@function
FmoGetNextMBNr:                         # @FmoGetNextMBNr
.Lfunc_begin6:
	.loc	0 326 0 is_stmt 1               # ldecod_src/fmo.c:326:0
	.cfi_startproc
# %bb.0:                                # %entry
	#DEBUG_VALUE: FmoGetNextMBNr:p_Vid <- $rdi
	#DEBUG_VALUE: FmoGetNextMBNr:CurrentMbNr <- $esi
	#DEBUG_VALUE: FmoGetSliceGroupId:p_Vid <- $rdi
	#DEBUG_VALUE: FmoGetSliceGroupId:mb <- $esi
	movl	%esi, %eax
.Ltmp361:
	.loc	0 309 17 prologue_end           # ldecod_src/fmo.c:309:17
	movq	856704(%rdi), %rcx
	.loc	0 309 10 is_stmt 0              # ldecod_src/fmo.c:309:10
	movslq	%esi, %rsi
.Ltmp362:
	#DEBUG_VALUE: FmoGetSliceGroupId:mb <- $eax
	#DEBUG_VALUE: FmoGetNextMBNr:CurrentMbNr <- $eax
	movl	(%rcx,%rsi,4), %edx
.Ltmp363:
	#DEBUG_VALUE: FmoGetNextMBNr:SliceGroup <- $edx
	.loc	0 0 10                          # ldecod_src/fmo.c:0:10
	movslq	849012(%rdi), %rdi
.Ltmp364:
	#DEBUG_VALUE: FmoGetNextMBNr:p_Vid <- [DW_OP_LLVM_entry_value 1] $rdi
	.loc	0 329 3 is_stmt 1               # ldecod_src/fmo.c:329:3
	incq	%rsi
.Ltmp365:
	.p2align	4, 0x90
.LBB6_1:                                # %while.cond
                                        # =>This Inner Loop Header: Depth=1
	#DEBUG_VALUE: FmoGetNextMBNr:p_Vid <- [DW_OP_LLVM_entry_value 1] $rdi
	#DEBUG_VALUE: FmoGetNextMBNr:SliceGroup <- $edx
	#DEBUG_VALUE: FmoGetNextMBNr:CurrentMbNr <- [DW_OP_LLVM_arg 0, DW_OP_LLVM_arg 0, DW_OP_minus, DW_OP_consts 1, DW_OP_LLVM_arg 0, DW_OP_LLVM_convert 64 5, DW_OP_plus, DW_OP_plus, DW_OP_stack_value] undef
	.loc	0 329 23 is_stmt 0              # ldecod_src/fmo.c:329:23
	cmpq	%rdi, %rsi
	.loc	0 329 49                        # ldecod_src/fmo.c:329:49
	jge	.LBB6_2
.Ltmp366:
# %bb.3:                                # %land.rhs
                                        #   in Loop: Header=BB6_1 Depth=1
	#DEBUG_VALUE: FmoGetNextMBNr:p_Vid <- [DW_OP_LLVM_entry_value 1] $rdi
	#DEBUG_VALUE: FmoGetNextMBNr:SliceGroup <- $edx
	.loc	0 329 3                         # ldecod_src/fmo.c:329:3
	incl	%eax
	leaq	1(%rsi), %r8
	.loc	0 329 91                        # ldecod_src/fmo.c:329:91
	cmpl	%edx, (%rcx,%rsi,4)
	movq	%r8, %rsi
	.loc	0 329 3                         # ldecod_src/fmo.c:329:3
	jne	.LBB6_1
.Ltmp367:
# %bb.4:                                # %while.end
	#DEBUG_VALUE: FmoGetNextMBNr:p_Vid <- [DW_OP_LLVM_entry_value 1] $rdi
	#DEBUG_VALUE: FmoGetNextMBNr:SliceGroup <- $edx
	.loc	0 336 1 is_stmt 1               # ldecod_src/fmo.c:336:1
	retq
.Ltmp368:
.LBB6_2:
	#DEBUG_VALUE: FmoGetNextMBNr:p_Vid <- [DW_OP_LLVM_entry_value 1] $rdi
	#DEBUG_VALUE: FmoGetNextMBNr:SliceGroup <- $edx
	.loc	0 0 1 is_stmt 0                 # ldecod_src/fmo.c:0:1
	movl	$-1, %eax
	.loc	0 336 1                         # ldecod_src/fmo.c:336:1
	retq
.Ltmp369:
.Lfunc_end6:
	.size	FmoGetNextMBNr, .Lfunc_end6-FmoGetNextMBNr
	.cfi_endproc
                                        # -- End function
	.type	.L.str,@object                  # @.str
	.section	.rodata.str1.1,"aMS",@progbits,1
.L.str:
	.asciz	"wrong pps->pic_size_in_map_units_minus1 for used SPS and FMO type 6"
	.size	.L.str, 68

	.type	.L.str.1,@object                # @.str.1
.L.str.1:
	.asciz	"cannot allocated %d bytes for p_Vid->MapUnitToSliceGroupMap, exit\n"
	.size	.L.str.1, 67

	.type	.L.str.2,@object                # @.str.2
.L.str.2:
	.asciz	"Illegal slice_group_map_type %d , exit \n"
	.size	.L.str.2, 41

	.type	.L.str.3,@object                # @.str.3
.L.str.3:
	.asciz	"cannot allocate %d bytes for p_Vid->MbToSliceGroupMap, exit\n"
	.size	.L.str.3, 61

	.section	".note.GNU-stack","",@progbits