	.text
	.file	"image.c"
	.file	0 "/home/yjs/workspace/x264-test/src" "ldecod_src/image.c" md5 0x7f65cfc395860481e754be1f038d1352
	.file	1 "ldecod_src/inc" "global.h" md5 0xc4ca3c417c5616a2ff6b6266e7376fc1
	.file	2 "ldecod_src/inc" "ifunctions.h" md5 0x279401589ed56df99e287ad9e5fc564b
	.file	3 "ldecod_src/inc" "types.h" md5 0x64f87bd13f2911471c7313b4ac17e90c
	.file	4 "ldecod_src/inc" "frame.h" md5 0xfd6ca9e1c707932f749220576db72b57
	.file	5 "ldecod_src/inc" "io_video.h" md5 0x1141c07f1801ad27d87214c419749431
	.file	6 "ldecod_src/inc" "nalucommon.h" md5 0xf9e55677f5f79524218c8a7a94869788
	.file	7 "ldecod_src/inc" "defines.h" md5 0xf06de374c735b286d10ba4ea0c8c0a5d
	.file	8 "ldecod_src/inc" "parsetcommon.h" md5 0xd59d7e00f3aec3a23ed88314ae35b687
	.file	9 "ldecod_src/inc" "typedefs.h" md5 0xe1393d024b72e653f4e6dbeffdb0b154
	.file	10 "/usr/include/x86_64-linux-gnu/bits" "types.h" md5 0xd108b5f93a74c50510d7d9bc0ab36df9
	.file	11 "/usr/include/x86_64-linux-gnu/bits" "stdint-intn.h" md5 0x55bcbdc3159515ebd91d351a70d505f4
	.file	12 "ldecod_src/inc" "win32.h" md5 0x100def0ffeee72ecdc377183538a04bb
	.file	13 "ldecod_src/inc" "mbuffer.h" md5 0x1ba7faf5f978b0f36a8f480bbf7b3401
	.file	14 "ldecod_src/inc" "erc_api.h" md5 0x9f38a583d5066807e951e2b61474101e
	.file	15 "ldecod_src/inc" "io_image.h" md5 0x8caef624e6f5391b0c6ab2984e7f77c6
	.file	16 "ldecod_src/inc" "erc_globals.h" md5 0xc27fab662deb7c381592b003d3b76fc7
	.file	17 "ldecod_src/inc" "annexb.h" md5 0xa6a52094af5c5816464e8295d9d6ede7
	.file	18 "ldecod_src/inc" "nalu.h" md5 0xb3549c8c215a89e3e10b3ba1698c39db
	.file	19 "ldecod_src/inc" "sei.h" md5 0xb096a43ea4af7b5f3dc386e3863042de
	.globl	init_all_macroblocks            # -- Begin function init_all_macroblocks
	.p2align	4, 0x90
	.type	init_all_macroblocks,@function
init_all_macroblocks:                   # @init_all_macroblocks
.Lfunc_begin0:
	.cfi_startproc
# %bb.0:                                # %entry
	#DEBUG_VALUE: init_all_macroblocks:dec_picture <- $rdi
	#DEBUG_VALUE: init_all_macroblocks:j <- 0
	.loc	0 94 55 prologue_end            # ldecod_src/image.c:94:55
	movl	68(%rdi), %eax
	.loc	0 94 40 is_stmt 0               # ldecod_src/image.c:94:40
	imull	64(%rdi), %eax
	.loc	0 94 16                         # ldecod_src/image.c:94:16
	cmpl	$16, %eax
.Ltmp0:
	.loc	0 94 3                          # ldecod_src/image.c:94:3
	jl	.LBB0_3
.Ltmp1:
# %bb.1:                                # %for.body.preheader
	#DEBUG_VALUE: init_all_macroblocks:dec_picture <- $rdi
	#DEBUG_VALUE: init_all_macroblocks:j <- 0
	.loc	0 91 43 is_stmt 1               # ldecod_src/image.c:91:43
	movq	152(%rdi), %rax
	.loc	0 91 30 is_stmt 0               # ldecod_src/image.c:91:30
	movq	(%rax), %rax
.Ltmp2:
	#DEBUG_VALUE: init_all_macroblocks:mv_info <- $rax
	.loc	0 0 30                          # ldecod_src/image.c:0:30
	xorl	%ecx, %ecx
	xorps	%xmm0, %xmm0
.Ltmp3:
	.p2align	4, 0x90
.LBB0_2:                                # %for.body
                                        # =>This Inner Loop Header: Depth=1
	#DEBUG_VALUE: init_all_macroblocks:dec_picture <- $rdi
	#DEBUG_VALUE: init_all_macroblocks:j <- $ecx
	#DEBUG_VALUE: init_all_macroblocks:mv_info <- [DW_OP_plus_uconst 32, DW_OP_stack_value] $rax
	#DEBUG_VALUE: reset_mv_info:mv_info <- $rax
	.loc	0 75 28 is_stmt 1               # ldecod_src/image.c:75:28
	movups	%xmm0, (%rax)
	movq	$0, 16(%rax)
	.loc	0 78 28                         # ldecod_src/image.c:78:28
	movw	$-1, 24(%rax)
.Ltmp4:
	#DEBUG_VALUE: init_all_macroblocks:j <- undef
	.loc	0 94 55                         # ldecod_src/image.c:94:55
	movl	68(%rdi), %edx
	.loc	0 94 40 is_stmt 0               # ldecod_src/image.c:94:40
	imull	64(%rdi), %edx
	.loc	0 94 70                         # ldecod_src/image.c:94:70
	incl	%ecx
.Ltmp5:
	#DEBUG_VALUE: init_all_macroblocks:j <- $ecx
	.loc	0 94 63                         # ldecod_src/image.c:94:63
	sarl	$4, %edx
.Ltmp6:
	.loc	0 94 3                          # ldecod_src/image.c:94:3
	addq	$32, %rax
.Ltmp7:
	.loc	0 94 16                         # ldecod_src/image.c:94:16
	cmpl	%edx, %ecx
.Ltmp8:
	.loc	0 94 3                          # ldecod_src/image.c:94:3
	jl	.LBB0_2
.Ltmp9:
.LBB0_3:                                # %for.end
	#DEBUG_VALUE: init_all_macroblocks:dec_picture <- $rdi
	.loc	0 98 1 is_stmt 1                # ldecod_src/image.c:98:1
	retq
.Ltmp10:
.Lfunc_end0:
	.size	init_all_macroblocks, .Lfunc_end0-init_all_macroblocks
	.cfi_endproc
                                        # -- End function
	.globl	init_slice                      # -- Begin function init_slice
	.p2align	4, 0x90
	.type	init_slice,@function
init_slice:                             # @init_slice
.Lfunc_begin1:
	.loc	0 604 0                         # ldecod_src/image.c:604:0
	.cfi_startproc
# %bb.0:                                # %entry
	#DEBUG_VALUE: init_slice:p_Vid <- $rdi
	#DEBUG_VALUE: init_slice:currSlice <- $rsi
	pushq	%r14
	.cfi_def_cfa_offset 16
	pushq	%rbx
	.cfi_def_cfa_offset 24
	pushq	%rax
	.cfi_def_cfa_offset 32
	.cfi_offset %rbx, -24
	.cfi_offset %r14, -16
	movq	%rsi, %rbx
	movq	%rdi, %r14
.Ltmp11:
	.loc	0 606 34 prologue_end           # ldecod_src/image.c:606:34
	movq	24(%rsi), %rax
	.loc	0 606 21 is_stmt 0              # ldecod_src/image.c:606:21
	movq	%rax, 16(%rdi)
	.loc	0 607 34 is_stmt 1              # ldecod_src/image.c:607:34
	movq	16(%rsi), %rax
	.loc	0 607 21 is_stmt 0              # ldecod_src/image.c:607:21
	movq	%rax, 8(%rdi)
	.loc	0 614 3 is_stmt 1               # ldecod_src/image.c:614:3
	movq	%rsi, %rdi
.Ltmp12:
	#DEBUG_VALUE: init_slice:p_Vid <- $r14
	callq	*13464(%rsi)
.Ltmp13:
	#DEBUG_VALUE: init_slice:currSlice <- $rbx
	.loc	0 616 42                        # ldecod_src/image.c:616:42
	cmpl	$1, 32(%rbx)
	ja	.LBB1_2
.Ltmp14:
# %bb.1:                                # %if.then
	#DEBUG_VALUE: init_slice:p_Vid <- $r14
	#DEBUG_VALUE: init_slice:currSlice <- $rbx
	.loc	0 617 46                        # ldecod_src/image.c:617:46
	movl	104(%rbx), %esi
	.loc	0 617 5 is_stmt 0               # ldecod_src/image.c:617:5
	movq	%rbx, %rdi
	callq	reorder_lists_mvc@PLT
.Ltmp15:
	.loc	0 621 18 is_stmt 1              # ldecod_src/image.c:621:18
	movq	13320(%rbx), %rdi
	.loc	0 621 7 is_stmt 0               # ldecod_src/image.c:621:7
	testq	%rdi, %rdi
.Ltmp16:
	.loc	0 621 7                         # ldecod_src/image.c:621:7
	jne	.LBB1_4
	jmp	.LBB1_5
.Ltmp17:
.LBB1_2:                                # %if.else
	#DEBUG_VALUE: init_slice:p_Vid <- $r14
	#DEBUG_VALUE: init_slice:currSlice <- $rbx
	.loc	0 619 5 is_stmt 1               # ldecod_src/image.c:619:5
	movq	%rbx, %rdi
	callq	reorder_lists
.Ltmp18:
	.loc	0 621 18                        # ldecod_src/image.c:621:18
	movq	13320(%rbx), %rdi
	.loc	0 621 7 is_stmt 0               # ldecod_src/image.c:621:7
	testq	%rdi, %rdi
.Ltmp19:
	.loc	0 621 7                         # ldecod_src/image.c:621:7
	je	.LBB1_5
.Ltmp20:
.LBB1_4:                                # %if.then5
	#DEBUG_VALUE: init_slice:p_Vid <- $r14
	#DEBUG_VALUE: init_slice:currSlice <- $rbx
	.loc	0 623 5 is_stmt 1               # ldecod_src/image.c:623:5
	callq	free@PLT
.Ltmp21:
	.loc	0 624 34                        # ldecod_src/image.c:624:34
	movq	$0, 13320(%rbx)
.Ltmp22:
.LBB1_5:                                # %if.end8
	#DEBUG_VALUE: init_slice:p_Vid <- $r14
	#DEBUG_VALUE: init_slice:currSlice <- $rbx
	.loc	0 626 18                        # ldecod_src/image.c:626:18
	movq	13328(%rbx), %rdi
	.loc	0 626 7 is_stmt 0               # ldecod_src/image.c:626:7
	testq	%rdi, %rdi
.Ltmp23:
	.loc	0 626 7                         # ldecod_src/image.c:626:7
	je	.LBB1_7
.Ltmp24:
# %bb.6:                                # %if.then10
	#DEBUG_VALUE: init_slice:p_Vid <- $r14
	#DEBUG_VALUE: init_slice:currSlice <- $rbx
	.loc	0 628 5 is_stmt 1               # ldecod_src/image.c:628:5
	callq	free@PLT
.Ltmp25:
	.loc	0 629 34                        # ldecod_src/image.c:629:34
	movq	$0, 13328(%rbx)
.Ltmp26:
.LBB1_7:                                # %if.end13
	#DEBUG_VALUE: init_slice:p_Vid <- $r14
	#DEBUG_VALUE: init_slice:currSlice <- $rbx
	.loc	0 637 27                        # ldecod_src/image.c:637:27
	cmpl	$0, 184(%rbx)
.Ltmp27:
	.loc	0 637 7 is_stmt 0               # ldecod_src/image.c:637:7
	je	.LBB1_8
.Ltmp28:
# %bb.9:                                # %if.end16
	#DEBUG_VALUE: init_slice:p_Vid <- $r14
	#DEBUG_VALUE: init_slice:currSlice <- $rbx
	.loc	0 644 19 is_stmt 1              # ldecod_src/image.c:644:19
	movl	220(%rbx), %eax
	.loc	0 644 37 is_stmt 0              # ldecod_src/image.c:644:37
	testl	%eax, %eax
	.loc	0 644 42                        # ldecod_src/image.c:644:42
	jne	.LBB1_10
	jmp	.LBB1_11
.Ltmp29:
.LBB1_8:                                # %if.then15
	#DEBUG_VALUE: init_slice:p_Vid <- $r14
	#DEBUG_VALUE: init_slice:currSlice <- $rbx
	.loc	0 639 5 is_stmt 1               # ldecod_src/image.c:639:5
	movq	%r14, %rdi
	movq	%rbx, %rsi
	callq	init_mbaff_lists@PLT
.Ltmp30:
	.loc	0 644 19                        # ldecod_src/image.c:644:19
	movl	220(%rbx), %eax
	.loc	0 644 37 is_stmt 0              # ldecod_src/image.c:644:37
	testl	%eax, %eax
	.loc	0 644 42                        # ldecod_src/image.c:644:42
	je	.LBB1_11
.Ltmp31:
.LBB1_10:                               # %land.lhs.true
	#DEBUG_VALUE: init_slice:p_Vid <- $r14
	#DEBUG_VALUE: init_slice:currSlice <- $rbx
	.loc	0 644 52                        # ldecod_src/image.c:644:52
	movl	851864(%r14), %ecx
	.loc	0 644 71                        # ldecod_src/image.c:644:71
	cmpl	172(%rbx), %ecx
.Ltmp32:
	.loc	0 644 6                         # ldecod_src/image.c:644:6
	je	.LBB1_12
.Ltmp33:
.LBB1_11:                               # %if.then19
	#DEBUG_VALUE: init_slice:p_Vid <- $r14
	#DEBUG_VALUE: init_slice:currSlice <- $rbx
	#DEBUG_VALUE: init_slice:i <- 16
	.loc	0 648 30 is_stmt 1              # ldecod_src/image.c:648:30
	movups	13340(%rbx), %xmm0
	movups	13356(%rbx), %xmm1
	movups	13372(%rbx), %xmm2
	movups	13388(%rbx), %xmm3
	movups	%xmm0, 13344(%rbx)
	movups	%xmm1, 13360(%rbx)
	movups	%xmm2, 13376(%rbx)
	movups	%xmm3, 13392(%rbx)
.Ltmp34:
	#DEBUG_VALUE: init_slice:i <- undef
.LBB1_12:                               # %if.end24
	#DEBUG_VALUE: init_slice:p_Vid <- $r14
	#DEBUG_VALUE: init_slice:currSlice <- $rbx
	.loc	0 644 37                        # ldecod_src/image.c:644:37
	xorl	%ecx, %ecx
	testl	%eax, %eax
	setne	%cl
.Ltmp35:
	.loc	0 651 28                        # ldecod_src/image.c:651:28
	movl	851868(%r14,%rcx,4), %eax
	.loc	0 651 26 is_stmt 0              # ldecod_src/image.c:651:26
	movl	%eax, 13340(%rbx)
.Ltmp36:
	.loc	0 654 18 is_stmt 1              # ldecod_src/image.c:654:18
	movq	24(%rbx), %rax
	.loc	0 654 30 is_stmt 0              # ldecod_src/image.c:654:30
	movl	36(%rax), %edx
	movq	linfo_cbp_inter_other@GOTPCREL(%rip), %rax
	movq	linfo_cbp_intra_other@GOTPCREL(%rip), %rcx
	.loc	0 654 51                        # ldecod_src/image.c:654:51
	testl	%edx, %edx
	je	.LBB1_15
.Ltmp37:
# %bb.13:                               # %if.end24
	#DEBUG_VALUE: init_slice:p_Vid <- $r14
	#DEBUG_VALUE: init_slice:currSlice <- $rbx
	cmpl	$3, %edx
	je	.LBB1_15
.Ltmp38:
# %bb.14:                               # %if.else36
	#DEBUG_VALUE: init_slice:p_Vid <- $r14
	#DEBUG_VALUE: init_slice:currSlice <- $rbx
	.loc	0 0 51                          # ldecod_src/image.c:0:51
	movq	linfo_cbp_inter_normal@GOTPCREL(%rip), %rax
	movq	linfo_cbp_intra_normal@GOTPCREL(%rip), %rcx
.Ltmp39:
.LBB1_15:                               # %if.end39
	#DEBUG_VALUE: init_slice:p_Vid <- $r14
	#DEBUG_VALUE: init_slice:currSlice <- $rbx
	movq	%rcx, 13480(%rbx)
	movq	%rax, 13488(%rbx)
.Ltmp40:
	.loc	0 664 1 epilogue_begin is_stmt 1 # ldecod_src/image.c:664:1
	addq	$8, %rsp
	.cfi_def_cfa_offset 24
	popq	%rbx
.Ltmp41:
	#DEBUG_VALUE: init_slice:currSlice <- [DW_OP_LLVM_entry_value 1] $rsi
	.cfi_def_cfa_offset 16
	popq	%r14
.Ltmp42:
	#DEBUG_VALUE: init_slice:p_Vid <- [DW_OP_LLVM_entry_value 1] $rdi
	.cfi_def_cfa_offset 8
	retq
.Ltmp43:
.Lfunc_end1:
	.size	init_slice, .Lfunc_end1-init_slice
	.cfi_endproc
	.file	20 "ldecod_src/inc" "mbuffer_mvc.h" md5 0xd753d21300997baae220b89f27c05aae
	.file	21 "/usr/include" "stdlib.h" md5 0x02258fad21adf111bb9df9825e61954a
                                        # -- End function
	.globl	reorder_lists                   # -- Begin function reorder_lists
	.p2align	4, 0x90
	.type	reorder_lists,@function
reorder_lists:                          # @reorder_lists
.Lfunc_begin2:
	.cfi_startproc
# %bb.0:                                # %entry
	#DEBUG_VALUE: reorder_lists:currSlice <- $rdi
	#DEBUG_VALUE: reorder_lists:p_Vid <- undef
	.loc	0 1182 19 prologue_end          # ldecod_src/image.c:1182:19
	movl	164(%rdi), %eax
	.loc	0 1182 41 is_stmt 0             # ldecod_src/image.c:1182:41
	cmpl	$2, %eax
.Ltmp44:
	je	free_ref_pic_list_reordering_buffer@PLT # TAILCALL
.Ltmp45:
# %bb.1:                                # %entry
	#DEBUG_VALUE: reorder_lists:currSlice <- [DW_OP_LLVM_entry_value 1] $rdi
	cmpl	$4, %eax
.Ltmp46:
	je	free_ref_pic_list_reordering_buffer@PLT # TAILCALL
.Ltmp47:
# %bb.2:                                # %if.then
	#DEBUG_VALUE: reorder_lists:currSlice <- [DW_OP_LLVM_entry_value 1] $rdi
	pushq	%r14
	.cfi_def_cfa_offset 16
	pushq	%rbx
	.cfi_def_cfa_offset 24
	pushq	%rax
	.cfi_def_cfa_offset 32
	.cfi_offset %rbx, -24
	.cfi_offset %r14, -16
	.loc	0 0 0                           # ldecod_src/image.c:0:0
	movq	(%rdi), %r14
.Ltmp48:
	#DEBUG_VALUE: reorder_lists:p_Vid <- $r14
	.loc	0 1184 9 is_stmt 1              # ldecod_src/image.c:1184:9
	cmpl	$0, 1104(%rdi)
.Ltmp49:
	.loc	0 1184 9 is_stmt 0              # ldecod_src/image.c:1184:9
	je	.LBB2_4
.Ltmp50:
# %bb.3:                                # %if.then4
	#DEBUG_VALUE: reorder_lists:currSlice <- [DW_OP_LLVM_entry_value 1] $rdi
	#DEBUG_VALUE: reorder_lists:p_Vid <- $r14
	.loc	0 0 9                           # ldecod_src/image.c:0:9
	movq	%rdi, %rbx
.Ltmp51:
	.loc	0 1186 7 is_stmt 1              # ldecod_src/image.c:1186:7
	xorl	%esi, %esi
	callq	reorder_ref_pic_list@PLT
.Ltmp52:
	.loc	0 0 7 is_stmt 0                 # ldecod_src/image.c:0:7
	movq	%rbx, %rdi
.Ltmp53:
.LBB2_4:                                # %if.end
	#DEBUG_VALUE: reorder_lists:currSlice <- [DW_OP_LLVM_entry_value 1] $rdi
	#DEBUG_VALUE: reorder_lists:p_Vid <- $r14
	.loc	0 1188 16 is_stmt 1             # ldecod_src/image.c:1188:16
	movq	856488(%r14), %rax
	.loc	0 1188 40 is_stmt 0             # ldecod_src/image.c:1188:40
	movq	264(%rdi), %rcx
	.loc	0 1188 60                       # ldecod_src/image.c:1188:60
	movslq	136(%rdi), %rdx
	.loc	0 1188 37                       # ldecod_src/image.c:1188:37
	cmpq	-8(%rcx,%rdx,8), %rax
.Ltmp54:
	.loc	0 1188 9                        # ldecod_src/image.c:1188:9
	je	.LBB2_5
.Ltmp55:
# %bb.9:                                # %if.end17
	#DEBUG_VALUE: reorder_lists:currSlice <- [DW_OP_LLVM_entry_value 1] $rdi
	#DEBUG_VALUE: reorder_lists:p_Vid <- $r14
	.loc	0 1196 45 is_stmt 1             # ldecod_src/image.c:1196:45
	movzbl	136(%rdi), %eax
	.loc	0 1196 29 is_stmt 0             # ldecod_src/image.c:1196:29
	movb	%al, 256(%rdi)
.Ltmp56:
	.loc	0 1198 29 is_stmt 1             # ldecod_src/image.c:1198:29
	cmpl	$1, 164(%rdi)
.Ltmp57:
	.loc	0 1198 7 is_stmt 0              # ldecod_src/image.c:1198:7
	je	.LBB2_10
.Ltmp58:
.LBB2_18:
	#DEBUG_VALUE: reorder_lists:currSlice <- [DW_OP_LLVM_entry_value 1] $rdi
	#DEBUG_VALUE: reorder_lists:p_Vid <- $r14
	.loc	0 0 7                           # ldecod_src/image.c:0:7
	addq	$8, %rsp
	.cfi_def_cfa_offset 24
	popq	%rbx
	.cfi_def_cfa_offset 16
	popq	%r14
.Ltmp59:
	.cfi_def_cfa_offset 8
	.cfi_restore %rbx
	.cfi_restore %r14
	.loc	0 1215 3 is_stmt 1              # ldecod_src/image.c:1215:3
	jmp	free_ref_pic_list_reordering_buffer@PLT # TAILCALL
.Ltmp60:
.LBB2_5:                                # %if.then9
	.cfi_def_cfa_offset 32
	.cfi_offset %rbx, -24
	.cfi_offset %r14, -16
	#DEBUG_VALUE: reorder_lists:currSlice <- [DW_OP_LLVM_entry_value 1] $rdi
	#DEBUG_VALUE: reorder_lists:p_Vid <- $r14
	.loc	0 0 3 is_stmt 0                 # ldecod_src/image.c:0:3
	movq	%rdi, %rbx
.Ltmp61:
	.loc	0 1190 11 is_stmt 1             # ldecod_src/image.c:1190:11
	cmpl	$0, 848948(%r14)
.Ltmp62:
	.loc	0 1190 11 is_stmt 0             # ldecod_src/image.c:1190:11
	je	.LBB2_7
.Ltmp63:
# %bb.6:                                # %if.then11
	#DEBUG_VALUE: reorder_lists:currSlice <- [DW_OP_LLVM_entry_value 1] $rdi
	#DEBUG_VALUE: reorder_lists:p_Vid <- $r14
	.loc	0 1191 9 is_stmt 1              # ldecod_src/image.c:1191:9
	movl	$.Lstr, %edi
	callq	puts@PLT
.Ltmp64:
	.loc	0 0 9 is_stmt 0                 # ldecod_src/image.c:0:9
	jmp	.LBB2_8
.Ltmp65:
.LBB2_7:                                # %if.else
	#DEBUG_VALUE: reorder_lists:currSlice <- [DW_OP_LLVM_entry_value 1] $rdi
	#DEBUG_VALUE: reorder_lists:p_Vid <- $r14
	.loc	0 1193 9 is_stmt 1              # ldecod_src/image.c:1193:9
	movl	$.L.str.7, %edi
	movl	$500, %esi                      # imm = 0x1F4
	callq	error@PLT
.Ltmp66:
.LBB2_8:                                # %if.end17
	#DEBUG_VALUE: reorder_lists:currSlice <- [DW_OP_LLVM_entry_value 1] $rdi
	#DEBUG_VALUE: reorder_lists:p_Vid <- $r14
	.loc	0 0 9 is_stmt 0                 # ldecod_src/image.c:0:9
	movq	%rbx, %rdi
	.loc	0 1196 45 is_stmt 1             # ldecod_src/image.c:1196:45
	movzbl	136(%rdi), %eax
	.loc	0 1196 29 is_stmt 0             # ldecod_src/image.c:1196:29
	movb	%al, 256(%rdi)
.Ltmp67:
	.loc	0 1198 29 is_stmt 1             # ldecod_src/image.c:1198:29
	cmpl	$1, 164(%rdi)
.Ltmp68:
	.loc	0 1198 7 is_stmt 0              # ldecod_src/image.c:1198:7
	jne	.LBB2_18
.Ltmp69:
.LBB2_10:                               # %if.then21
	#DEBUG_VALUE: reorder_lists:currSlice <- [DW_OP_LLVM_entry_value 1] $rdi
	#DEBUG_VALUE: reorder_lists:p_Vid <- $r14
	.loc	0 1200 9 is_stmt 1              # ldecod_src/image.c:1200:9
	cmpl	$0, 1108(%rdi)
.Ltmp70:
	.loc	0 1200 9 is_stmt 0              # ldecod_src/image.c:1200:9
	je	.LBB2_12
.Ltmp71:
# %bb.11:                               # %if.then25
	#DEBUG_VALUE: reorder_lists:currSlice <- [DW_OP_LLVM_entry_value 1] $rdi
	#DEBUG_VALUE: reorder_lists:p_Vid <- $r14
	.loc	0 0 9                           # ldecod_src/image.c:0:9
	movq	%rdi, %rbx
.Ltmp72:
	.loc	0 1202 7 is_stmt 1              # ldecod_src/image.c:1202:7
	movl	$1, %esi
	callq	reorder_ref_pic_list@PLT
.Ltmp73:
	.loc	0 0 7 is_stmt 0                 # ldecod_src/image.c:0:7
	movq	%rbx, %rdi
.Ltmp74:
.LBB2_12:                               # %if.end26
	#DEBUG_VALUE: reorder_lists:currSlice <- [DW_OP_LLVM_entry_value 1] $rdi
	#DEBUG_VALUE: reorder_lists:p_Vid <- $r14
	.loc	0 1204 16 is_stmt 1             # ldecod_src/image.c:1204:16
	movq	856488(%r14), %rax
	.loc	0 1204 40 is_stmt 0             # ldecod_src/image.c:1204:40
	movq	272(%rdi), %rcx
	.loc	0 1204 60                       # ldecod_src/image.c:1204:60
	movslq	140(%rdi), %rdx
	.loc	0 1204 37                       # ldecod_src/image.c:1204:37
	cmpq	-8(%rcx,%rdx,8), %rax
.Ltmp75:
	.loc	0 1204 9                        # ldecod_src/image.c:1204:9
	jne	.LBB2_17
.Ltmp76:
# %bb.13:                               # %if.then37
	#DEBUG_VALUE: reorder_lists:currSlice <- [DW_OP_LLVM_entry_value 1] $rdi
	#DEBUG_VALUE: reorder_lists:p_Vid <- $r14
	.loc	0 0 9                           # ldecod_src/image.c:0:9
	movq	%rdi, %rbx
.Ltmp77:
	.loc	0 1206 11 is_stmt 1             # ldecod_src/image.c:1206:11
	cmpl	$0, 848948(%r14)
.Ltmp78:
	.loc	0 1206 11 is_stmt 0             # ldecod_src/image.c:1206:11
	je	.LBB2_15
.Ltmp79:
# %bb.14:                               # %if.then40
	#DEBUG_VALUE: reorder_lists:currSlice <- [DW_OP_LLVM_entry_value 1] $rdi
	#DEBUG_VALUE: reorder_lists:p_Vid <- $r14
	.loc	0 1207 9 is_stmt 1              # ldecod_src/image.c:1207:9
	movl	$.Lstr.51, %edi
	callq	puts@PLT
.Ltmp80:
	.loc	0 0 9 is_stmt 0                 # ldecod_src/image.c:0:9
	jmp	.LBB2_16
.Ltmp81:
.LBB2_15:                               # %if.else42
	#DEBUG_VALUE: reorder_lists:currSlice <- [DW_OP_LLVM_entry_value 1] $rdi
	#DEBUG_VALUE: reorder_lists:p_Vid <- $r14
	.loc	0 1209 9 is_stmt 1              # ldecod_src/image.c:1209:9
	movl	$.L.str.9, %edi
	movl	$500, %esi                      # imm = 0x1F4
	callq	error@PLT
.Ltmp82:
.LBB2_16:                               # %if.end44
	#DEBUG_VALUE: reorder_lists:currSlice <- [DW_OP_LLVM_entry_value 1] $rdi
	#DEBUG_VALUE: reorder_lists:p_Vid <- $r14
	.loc	0 0 9 is_stmt 0                 # ldecod_src/image.c:0:9
	movq	%rbx, %rdi
.Ltmp83:
.LBB2_17:                               # %if.end44
	#DEBUG_VALUE: reorder_lists:currSlice <- [DW_OP_LLVM_entry_value 1] $rdi
	#DEBUG_VALUE: reorder_lists:p_Vid <- $r14
	.loc	0 1212 45 is_stmt 1             # ldecod_src/image.c:1212:45
	movzbl	140(%rdi), %eax
	.loc	0 1212 29 is_stmt 0             # ldecod_src/image.c:1212:29
	movb	%al, 257(%rdi)
	addq	$8, %rsp
	.cfi_def_cfa_offset 24
	popq	%rbx
	.cfi_def_cfa_offset 16
	popq	%r14
.Ltmp84:
	.cfi_def_cfa_offset 8
	.cfi_restore %rbx
	.cfi_restore %r14
	.loc	0 1215 3 is_stmt 1              # ldecod_src/image.c:1215:3
	jmp	free_ref_pic_list_reordering_buffer@PLT # TAILCALL
.Ltmp85:
.Lfunc_end2:
	.size	reorder_lists, .Lfunc_end2-reorder_lists
	.cfi_endproc
                                        # -- End function
	.globl	decode_slice                    # -- Begin function decode_slice
	.p2align	4, 0x90
	.type	decode_slice,@function
decode_slice:                           # @decode_slice
.Lfunc_begin3:
	.loc	0 667 0                         # ldecod_src/image.c:667:0
	.cfi_startproc
# %bb.0:                                # %entry
	#DEBUG_VALUE: decode_slice:currSlice <- $rdi
	#DEBUG_VALUE: decode_slice:current_header <- $esi
	pushq	%rbp
	.cfi_def_cfa_offset 16
	pushq	%r15
	.cfi_def_cfa_offset 24
	pushq	%r14
	.cfi_def_cfa_offset 32
	pushq	%r13
	.cfi_def_cfa_offset 40
	pushq	%r12
	.cfi_def_cfa_offset 48
	pushq	%rbx
	.cfi_def_cfa_offset 56
	subq	$24, %rsp
	.cfi_def_cfa_offset 80
	.cfi_offset %rbx, -56
	.cfi_offset %r12, -48
	.cfi_offset %r13, -40
	.cfi_offset %r14, -32
	.cfi_offset %r15, -24
	.cfi_offset %rbp, -16
	movl	%esi, 12(%rsp)                  # 4-byte Spill
.Ltmp86:
	#DEBUG_VALUE: decode_slice:current_header <- [DW_OP_plus_uconst 12] [$rsp+0]
	movq	%rdi, %r15
.Ltmp87:
	.loc	0 668 39 prologue_end           # ldecod_src/image.c:668:39
	movq	(%rdi), %rax
.Ltmp88:
	#DEBUG_VALUE: decode_slice:p_Vid <- $rax
	.loc	0 0 39 is_stmt 0                # ldecod_src/image.c:0:39
	movq	%rax, 16(%rsp)                  # 8-byte Spill
.Ltmp89:
	#DEBUG_VALUE: decode_slice:p_Vid <- [DW_OP_plus_uconst 16, DW_OP_deref] $rsp
	.loc	0 670 18 is_stmt 1              # ldecod_src/image.c:670:18
	movq	16(%rdi), %rcx
.Ltmp90:
	.loc	0 669 30                        # ldecod_src/image.c:669:30
	movl	128(%rdi), %eax
.Ltmp91:
	#DEBUG_VALUE: decode_slice:iScale <- undef
	.loc	0 0 30 is_stmt 0                # ldecod_src/image.c:0:30
	movl	%eax, 8(%rsp)                   # 4-byte Spill
.Ltmp92:
	.loc	0 670 7 is_stmt 1               # ldecod_src/image.c:670:7
	cmpl	$0, 12(%rcx)
.Ltmp93:
	.loc	0 670 7 is_stmt 0               # ldecod_src/image.c:670:7
	je	.LBB3_2
.Ltmp94:
# %bb.1:                                # %if.then
	#DEBUG_VALUE: decode_slice:currSlice <- $r15
	#DEBUG_VALUE: decode_slice:current_header <- [DW_OP_plus_uconst 12] [$rsp+0]
	#DEBUG_VALUE: decode_slice:p_Vid <- [DW_OP_plus_uconst 16, DW_OP_deref] $rsp
	.loc	0 672 5 is_stmt 1               # ldecod_src/image.c:672:5
	movq	%r15, %rdi
	callq	init_contexts@PLT
.Ltmp95:
	.loc	0 673 5                         # ldecod_src/image.c:673:5
	movq	%r15, %rdi
	callq	cabac_new_slice@PLT
.Ltmp96:
	.loc	0 676 20                        # ldecod_src/image.c:676:20
	movq	16(%r15), %rcx
.Ltmp97:
.LBB3_2:                                # %if.end
	#DEBUG_VALUE: decode_slice:currSlice <- $r15
	#DEBUG_VALUE: decode_slice:current_header <- [DW_OP_plus_uconst 12] [$rsp+0]
	#DEBUG_VALUE: decode_slice:p_Vid <- [DW_OP_plus_uconst 16, DW_OP_deref] $rsp
	.loc	0 676 32 is_stmt 0              # ldecod_src/image.c:676:32
	movl	2180(%rcx), %eax
	.loc	0 676 52                        # ldecod_src/image.c:676:52
	testl	%eax, %eax
	.loc	0 676 57                        # ldecod_src/image.c:676:57
	je	.LBB3_4
.Ltmp98:
# %bb.3:                                # %land.lhs.true
	#DEBUG_VALUE: decode_slice:currSlice <- $r15
	#DEBUG_VALUE: decode_slice:current_header <- [DW_OP_plus_uconst 12] [$rsp+0]
	#DEBUG_VALUE: decode_slice:p_Vid <- [DW_OP_plus_uconst 16, DW_OP_deref] $rsp
	.loc	0 676 83                        # ldecod_src/image.c:676:83
	cmpl	$1, 164(%r15)
	.loc	0 676 96                        # ldecod_src/image.c:676:96
	je	.LBB3_6
.Ltmp99:
.LBB3_4:                                # %lor.lhs.false
	#DEBUG_VALUE: decode_slice:currSlice <- $r15
	#DEBUG_VALUE: decode_slice:current_header <- [DW_OP_plus_uconst 12] [$rsp+0]
	#DEBUG_VALUE: decode_slice:p_Vid <- [DW_OP_plus_uconst 16, DW_OP_deref] $rsp
	.loc	0 676 100                       # ldecod_src/image.c:676:100
	cmpl	$0, 2176(%rcx)
	.loc	0 676 142                       # ldecod_src/image.c:676:142
	je	.LBB3_90
.Ltmp100:
# %bb.5:                                # %land.lhs.true6
	#DEBUG_VALUE: decode_slice:currSlice <- $r15
	#DEBUG_VALUE: decode_slice:current_header <- [DW_OP_plus_uconst 12] [$rsp+0]
	#DEBUG_VALUE: decode_slice:p_Vid <- [DW_OP_plus_uconst 16, DW_OP_deref] $rsp
	.loc	0 676 8                         # ldecod_src/image.c:676:8
	cmpl	$1, 164(%r15)
	jne	.LBB3_90
.Ltmp101:
.LBB3_6:                                # %if.then.i
	#DEBUG_VALUE: decode_slice:currSlice <- $r15
	#DEBUG_VALUE: decode_slice:current_header <- [DW_OP_plus_uconst 12] [$rsp+0]
	#DEBUG_VALUE: decode_slice:p_Vid <- [DW_OP_plus_uconst 16, DW_OP_deref] $rsp
	.loc	0 413 22 is_stmt 1              # ldecod_src/image.c:413:22
	movl	136(%r15), %esi
.Ltmp102:
	#DEBUG_VALUE: max_l0_ref <- undef
	.loc	0 414 22                        # ldecod_src/image.c:414:22
	movl	140(%r15), %edi
.Ltmp103:
	#DEBUG_VALUE: max_l1_ref <- undef
	.loc	0 416 52                        # ldecod_src/image.c:416:52
	cmpl	$2, %eax
.Ltmp104:
	.loc	0 416 9 is_stmt 0               # ldecod_src/image.c:416:9
	jne	.LBB3_9
.Ltmp105:
# %bb.7:                                # %if.then4.i
	#DEBUG_VALUE: decode_slice:currSlice <- $r15
	#DEBUG_VALUE: decode_slice:current_header <- [DW_OP_plus_uconst 12] [$rsp+0]
	#DEBUG_VALUE: decode_slice:p_Vid <- [DW_OP_plus_uconst 16, DW_OP_deref] $rsp
	.loc	0 418 41 is_stmt 1              # ldecod_src/image.c:418:41
	movl	$327685, 13276(%r15)            # imm = 0x50005
	.loc	0 420 34                        # ldecod_src/image.c:420:34
	movl	$1048592, 13304(%r15)           # imm = 0x100010
	xorl	%eax, %eax
.Ltmp106:
	#DEBUG_VALUE: i <- 0
	.p2align	4, 0x90
.LBB3_8:                                # %for.cond6.preheader.i
                                        # =>This Inner Loop Header: Depth=1
	#DEBUG_VALUE: decode_slice:currSlice <- $r15
	#DEBUG_VALUE: decode_slice:current_header <- [DW_OP_plus_uconst 12] [$rsp+0]
	#DEBUG_VALUE: decode_slice:p_Vid <- [DW_OP_plus_uconst 16, DW_OP_deref] $rsp
	#DEBUG_VALUE: i <- [DW_OP_consts 8, DW_OP_div, DW_OP_stack_value] $rax
	#DEBUG_VALUE: comp <- 0
	.loc	0 427 0                         # ldecod_src/image.c:427:0
	movzbl	13276(%r15), %ecx
.Ltmp107:
	#DEBUG_VALUE: log_weight_denom <- undef
	.loc	0 428 48                        # ldecod_src/image.c:428:48
	movl	$1, %edx
	shll	%cl, %edx
	.loc	0 428 22 is_stmt 0              # ldecod_src/image.c:428:22
	movq	13280(%r15), %rcx
	.loc	0 428 11                        # ldecod_src/image.c:428:11
	movq	(%rcx), %rcx
	movq	(%rcx,%rax), %rcx
	.loc	0 428 44                        # ldecod_src/image.c:428:44
	movl	%edx, (%rcx)
	.loc	0 429 22 is_stmt 1              # ldecod_src/image.c:429:22
	movq	13280(%r15), %rcx
	.loc	0 429 11 is_stmt 0              # ldecod_src/image.c:429:11
	movq	8(%rcx), %rcx
	movq	(%rcx,%rax), %rcx
	.loc	0 429 44                        # ldecod_src/image.c:429:44
	movl	%edx, (%rcx)
	.loc	0 430 22 is_stmt 1              # ldecod_src/image.c:430:22
	movq	13288(%r15), %rcx
	.loc	0 430 11 is_stmt 0              # ldecod_src/image.c:430:11
	movq	(%rcx), %rcx
	movq	(%rcx,%rax), %rcx
	.loc	0 430 44                        # ldecod_src/image.c:430:44
	movl	$0, (%rcx)
	.loc	0 431 22 is_stmt 1              # ldecod_src/image.c:431:22
	movq	13288(%r15), %rcx
	.loc	0 431 11 is_stmt 0              # ldecod_src/image.c:431:11
	movq	8(%rcx), %rcx
	movq	(%rcx,%rax), %rcx
	.loc	0 431 44                        # ldecod_src/image.c:431:44
	movl	$0, (%rcx)
.Ltmp108:
	#DEBUG_VALUE: comp <- 1
	.loc	0 427 0 is_stmt 1               # ldecod_src/image.c:427:0
	movzbl	13278(%r15), %ecx
	.loc	0 428 48                        # ldecod_src/image.c:428:48
	movl	$1, %edx
	shll	%cl, %edx
	.loc	0 428 22 is_stmt 0              # ldecod_src/image.c:428:22
	movq	13280(%r15), %rcx
	.loc	0 428 11                        # ldecod_src/image.c:428:11
	movq	(%rcx), %rcx
	movq	(%rcx,%rax), %rcx
	.loc	0 428 44                        # ldecod_src/image.c:428:44
	movl	%edx, 4(%rcx)
	.loc	0 429 22 is_stmt 1              # ldecod_src/image.c:429:22
	movq	13280(%r15), %rcx
	.loc	0 429 11 is_stmt 0              # ldecod_src/image.c:429:11
	movq	8(%rcx), %rcx
	movq	(%rcx,%rax), %rcx
	.loc	0 429 44                        # ldecod_src/image.c:429:44
	movl	%edx, 4(%rcx)
	.loc	0 430 22 is_stmt 1              # ldecod_src/image.c:430:22
	movq	13288(%r15), %rcx
	.loc	0 430 11 is_stmt 0              # ldecod_src/image.c:430:11
	movq	(%rcx), %rcx
	movq	(%rcx,%rax), %rcx
	.loc	0 430 44                        # ldecod_src/image.c:430:44
	movl	$0, 4(%rcx)
	.loc	0 431 22 is_stmt 1              # ldecod_src/image.c:431:22
	movq	13288(%r15), %rcx
	.loc	0 431 11 is_stmt 0              # ldecod_src/image.c:431:11
	movq	8(%rcx), %rcx
	movq	(%rcx,%rax), %rcx
	.loc	0 431 44                        # ldecod_src/image.c:431:44
	movl	$0, 4(%rcx)
.Ltmp109:
	#DEBUG_VALUE: comp <- 2
	.loc	0 427 0 is_stmt 1               # ldecod_src/image.c:427:0
	movzbl	13278(%r15), %ecx
	.loc	0 428 48                        # ldecod_src/image.c:428:48
	movl	$1, %edx
	shll	%cl, %edx
	.loc	0 428 22 is_stmt 0              # ldecod_src/image.c:428:22
	movq	13280(%r15), %rcx
	.loc	0 428 11                        # ldecod_src/image.c:428:11
	movq	(%rcx), %rcx
	movq	(%rcx,%rax), %rcx
	.loc	0 428 44                        # ldecod_src/image.c:428:44
	movl	%edx, 8(%rcx)
	.loc	0 429 22 is_stmt 1              # ldecod_src/image.c:429:22
	movq	13280(%r15), %rcx
	.loc	0 429 11 is_stmt 0              # ldecod_src/image.c:429:11
	movq	8(%rcx), %rcx
	movq	(%rcx,%rax), %rcx
	.loc	0 429 44                        # ldecod_src/image.c:429:44
	movl	%edx, 8(%rcx)
	.loc	0 430 22 is_stmt 1              # ldecod_src/image.c:430:22
	movq	13288(%r15), %rcx
	.loc	0 430 11 is_stmt 0              # ldecod_src/image.c:430:11
	movq	(%rcx), %rcx
	movq	(%rcx,%rax), %rcx
	.loc	0 430 44                        # ldecod_src/image.c:430:44
	movl	$0, 8(%rcx)
	.loc	0 431 22 is_stmt 1              # ldecod_src/image.c:431:22
	movq	13288(%r15), %rcx
	.loc	0 431 11 is_stmt 0              # ldecod_src/image.c:431:11
	movq	8(%rcx), %rcx
	movq	(%rcx,%rax), %rcx
	.loc	0 431 44                        # ldecod_src/image.c:431:44
	movl	$0, 8(%rcx)
.Ltmp110:
	#DEBUG_VALUE: comp <- 3
	#DEBUG_VALUE: i <- [DW_OP_consts 8, DW_OP_div, DW_OP_consts 1, DW_OP_plus, DW_OP_stack_value] $rax
	.loc	0 423 18 is_stmt 1              # ldecod_src/image.c:423:18
	addq	$8, %rax
.Ltmp111:
	cmpq	$256, %rax                      # imm = 0x100
.Ltmp112:
	.loc	0 423 7 is_stmt 0               # ldecod_src/image.c:423:7
	jne	.LBB3_8
.Ltmp113:
.LBB3_9:                                # %if.end.i
	#DEBUG_VALUE: decode_slice:currSlice <- $r15
	#DEBUG_VALUE: decode_slice:current_header <- [DW_OP_plus_uconst 12] [$rsp+0]
	#DEBUG_VALUE: decode_slice:p_Vid <- [DW_OP_plus_uconst 16, DW_OP_deref] $rsp
	#DEBUG_VALUE: i <- 0
	.loc	0 436 16 is_stmt 1              # ldecod_src/image.c:436:16
	testl	%esi, %esi
.Ltmp114:
	.loc	0 436 5 is_stmt 0               # ldecod_src/image.c:436:5
	jle	.LBB3_90
.Ltmp115:
# %bb.10:                               # %for.cond42.preheader.lr.ph.i
	#DEBUG_VALUE: decode_slice:currSlice <- $r15
	#DEBUG_VALUE: decode_slice:current_header <- [DW_OP_plus_uconst 12] [$rsp+0]
	#DEBUG_VALUE: decode_slice:p_Vid <- [DW_OP_plus_uconst 16, DW_OP_deref] $rsp
	#DEBUG_VALUE: i <- 0
	.loc	0 0 5                           # ldecod_src/image.c:0:5
	testl	%edi, %edi
	jle	.LBB3_90
.Ltmp116:
# %bb.11:                               # %for.cond42.preheader.us.preheader.i
	#DEBUG_VALUE: decode_slice:currSlice <- $r15
	#DEBUG_VALUE: decode_slice:current_header <- [DW_OP_plus_uconst 12] [$rsp+0]
	#DEBUG_VALUE: decode_slice:p_Vid <- [DW_OP_plus_uconst 16, DW_OP_deref] $rsp
	#DEBUG_VALUE: i <- 0
	movl	$-129, %ecx
	xorl	%r8d, %r8d
	jmp	.LBB3_12
.Ltmp117:
	.p2align	4, 0x90
.LBB3_38:                               # %for.cond42.for.inc235_crit_edge.us.i
                                        #   in Loop: Header=BB3_12 Depth=1
	#DEBUG_VALUE: decode_slice:currSlice <- $r15
	#DEBUG_VALUE: decode_slice:current_header <- [DW_OP_plus_uconst 12] [$rsp+0]
	#DEBUG_VALUE: decode_slice:p_Vid <- [DW_OP_plus_uconst 16, DW_OP_deref] $rsp
	#DEBUG_VALUE: i <- $r8
	#DEBUG_VALUE: j <- $r10
	.loc	0 436 29                        # ldecod_src/image.c:436:29
	incq	%r8
.Ltmp118:
	#DEBUG_VALUE: i <- $r8
	.loc	0 436 16                        # ldecod_src/image.c:436:16
	cmpq	%rsi, %r8
.Ltmp119:
	.loc	0 436 5                         # ldecod_src/image.c:436:5
	je	.LBB3_39
.Ltmp120:
.LBB3_12:                               # %for.cond42.preheader.us.i
                                        # =>This Inner Loop Header: Depth=1
	#DEBUG_VALUE: decode_slice:currSlice <- $r15
	#DEBUG_VALUE: decode_slice:current_header <- [DW_OP_plus_uconst 12] [$rsp+0]
	#DEBUG_VALUE: decode_slice:p_Vid <- [DW_OP_plus_uconst 16, DW_OP_deref] $rsp
	#DEBUG_VALUE: i <- $r8
	#DEBUG_VALUE: j <- 0
	.loc	0 0 5                           # ldecod_src/image.c:0:5
	leaq	(,%r8,8), %r9
	xorl	%r10d, %r10d
.Ltmp121:
	#DEBUG_VALUE: j <- $r10
	#DEBUG_VALUE: comp <- 0
	xorl	%r11d, %r11d
.Ltmp122:
	#DEBUG_VALUE: comp <- [DW_OP_consts 4, DW_OP_div, DW_OP_stack_value] $r11
	#DEBUG_VALUE: log_weight_denom <- undef
	.loc	0 443 26 is_stmt 1              # ldecod_src/image.c:443:26
	movq	16(%r15), %rax
	.loc	0 443 38 is_stmt 0              # ldecod_src/image.c:443:38
	movl	2180(%rax), %eax
.Ltmp123:
	.loc	0 443 15                        # ldecod_src/image.c:443:15
	cmpl	$1, %eax
	jne	.LBB3_14
.Ltmp124:
	.p2align	4, 0x90
.LBB3_33:                               # %if.then64.us.i
                                        #   in Loop: Header=BB3_12 Depth=1
	#DEBUG_VALUE: decode_slice:currSlice <- $r15
	#DEBUG_VALUE: decode_slice:current_header <- [DW_OP_plus_uconst 12] [$rsp+0]
	#DEBUG_VALUE: decode_slice:p_Vid <- [DW_OP_plus_uconst 16, DW_OP_deref] $rsp
	#DEBUG_VALUE: i <- $r8
	#DEBUG_VALUE: comp <- [DW_OP_consts 4, DW_OP_div, DW_OP_stack_value] $r11
	.loc	0 445 64 is_stmt 1              # ldecod_src/image.c:445:64
	movq	13280(%r15), %rax
	.loc	0 445 24 is_stmt 0              # ldecod_src/image.c:445:24
	movq	13296(%r15), %rdx
	.loc	0 445 53                        # ldecod_src/image.c:445:53
	movq	(%rax), %rax
	movq	(%rax,%r8,8), %rax
	movl	(%rax,%r11), %eax
	.loc	0 445 13                        # ldecod_src/image.c:445:13
	movq	(%rdx), %rdx
	movq	(%rdx,%r8,8), %rdx
	movq	(%rdx,%r10,8), %rdx
	.loc	0 445 50                        # ldecod_src/image.c:445:50
	movl	%eax, (%rdx,%r11)
	.loc	0 446 64 is_stmt 1              # ldecod_src/image.c:446:64
	movq	13280(%r15), %rax
	.loc	0 446 24 is_stmt 0              # ldecod_src/image.c:446:24
	movq	13296(%r15), %rbx
	.loc	0 446 53                        # ldecod_src/image.c:446:53
	movq	8(%rax), %rax
	movq	(%rax,%r10,8), %rax
	movl	(%rax,%r11), %edx
	movq	8(%rbx), %rax
	.loc	0 446 13                        # ldecod_src/image.c:446:13
	addq	%r9, %rax
.Ltmp125:
.LBB3_34:                               # %for.inc229.us.sink.split.i
                                        #   in Loop: Header=BB3_12 Depth=1
	#DEBUG_VALUE: decode_slice:currSlice <- $r15
	#DEBUG_VALUE: decode_slice:current_header <- [DW_OP_plus_uconst 12] [$rsp+0]
	#DEBUG_VALUE: decode_slice:p_Vid <- [DW_OP_plus_uconst 16, DW_OP_deref] $rsp
	#DEBUG_VALUE: i <- $r8
	#DEBUG_VALUE: comp <- [DW_OP_consts 4, DW_OP_div, DW_OP_stack_value] $r11
	.loc	0 0 0                           # ldecod_src/image.c:0:0
	movq	(%rax), %rax
	movq	(%rax,%r10,8), %rax
	movl	%edx, (%rax,%r11)
.Ltmp126:
.LBB3_35:                               # %for.inc229.us.i
                                        #   in Loop: Header=BB3_12 Depth=1
	#DEBUG_VALUE: decode_slice:currSlice <- $r15
	#DEBUG_VALUE: decode_slice:current_header <- [DW_OP_plus_uconst 12] [$rsp+0]
	#DEBUG_VALUE: decode_slice:p_Vid <- [DW_OP_plus_uconst 16, DW_OP_deref] $rsp
	#DEBUG_VALUE: i <- $r8
	#DEBUG_VALUE: comp <- [DW_OP_consts 4, DW_OP_div, DW_OP_stack_value] $r11
	#DEBUG_VALUE: comp <- [DW_OP_consts 4, DW_OP_div, DW_OP_consts 1, DW_OP_plus, DW_OP_stack_value] undef
	.loc	0 440 28 is_stmt 1              # ldecod_src/image.c:440:28
	addq	$4, %r11
	cmpq	$12, %r11
.Ltmp127:
	.loc	0 440 9 is_stmt 0               # ldecod_src/image.c:440:9
	je	.LBB3_36
.Ltmp128:
# %bb.13:                               # %cond.end58.us.i
                                        #   in Loop: Header=BB3_12 Depth=1
	#DEBUG_VALUE: decode_slice:currSlice <- $r15
	#DEBUG_VALUE: decode_slice:current_header <- [DW_OP_plus_uconst 12] [$rsp+0]
	#DEBUG_VALUE: decode_slice:p_Vid <- [DW_OP_plus_uconst 16, DW_OP_deref] $rsp
	#DEBUG_VALUE: i <- $r8
	#DEBUG_VALUE: comp <- [DW_OP_consts 4, DW_OP_div, DW_OP_stack_value] $r11
	#DEBUG_VALUE: log_weight_denom <- undef
	.loc	0 443 26 is_stmt 1              # ldecod_src/image.c:443:26
	movq	16(%r15), %rax
	.loc	0 443 38 is_stmt 0              # ldecod_src/image.c:443:38
	movl	2180(%rax), %eax
.Ltmp129:
	.loc	0 443 15                        # ldecod_src/image.c:443:15
	cmpl	$1, %eax
	je	.LBB3_33
.Ltmp130:
.LBB3_14:                               # %cond.end58.us.i
                                        #   in Loop: Header=BB3_12 Depth=1
	#DEBUG_VALUE: decode_slice:currSlice <- $r15
	#DEBUG_VALUE: decode_slice:current_header <- [DW_OP_plus_uconst 12] [$rsp+0]
	#DEBUG_VALUE: decode_slice:p_Vid <- [DW_OP_plus_uconst 16, DW_OP_deref] $rsp
	#DEBUG_VALUE: i <- $r8
	#DEBUG_VALUE: comp <- [DW_OP_consts 4, DW_OP_div, DW_OP_stack_value] $r11
	cmpl	$2, %eax
	jne	.LBB3_35
.Ltmp131:
# %bb.15:                               # %if.then96.us.i
                                        #   in Loop: Header=BB3_12 Depth=1
	#DEBUG_VALUE: decode_slice:currSlice <- $r15
	#DEBUG_VALUE: decode_slice:current_header <- [DW_OP_plus_uconst 12] [$rsp+0]
	#DEBUG_VALUE: decode_slice:p_Vid <- [DW_OP_plus_uconst 16, DW_OP_deref] $rsp
	#DEBUG_VALUE: i <- $r8
	#DEBUG_VALUE: comp <- [DW_OP_consts 4, DW_OP_div, DW_OP_stack_value] $r11
	.loc	0 450 69 is_stmt 1              # ldecod_src/image.c:450:69
	movq	264(%r15), %rax
	.loc	0 450 34 is_stmt 0              # ldecod_src/image.c:450:34
	movq	272(%r15), %rdx
	movq	(%rdx,%r10,8), %rbx
	.loc	0 450 63                        # ldecod_src/image.c:450:63
	movl	4(%rbx), %ebp
	.loc	0 450 69                        # ldecod_src/image.c:450:69
	movq	(%rax,%r8,8), %rdx
	.loc	0 450 98                        # ldecod_src/image.c:450:98
	movl	4(%rdx), %eax
.Ltmp132:
	.loc	0 451 20 is_stmt 1              # ldecod_src/image.c:451:20
	movl	%ebp, %r12d
	subl	%eax, %r12d
.Ltmp133:
	#DEBUG_VALUE: iClip3:x <- $r12d
	#DEBUG_VALUE: imax:a <- $r12d
	#DEBUG_VALUE: iClip3:low <- -128
	#DEBUG_VALUE: iClip3:high <- 127
	#DEBUG_VALUE: imax:b <- -128
	.loc	2 49 10                         # ldecod_src/inc/ifunctions.h:49:10
	cmpl	$-127, %r12d
	jl	.LBB3_16
.Ltmp134:
# %bb.17:                               # %if.then96.us.i
                                        #   in Loop: Header=BB3_12 Depth=1
	#DEBUG_VALUE: decode_slice:currSlice <- $r15
	#DEBUG_VALUE: decode_slice:current_header <- [DW_OP_plus_uconst 12] [$rsp+0]
	#DEBUG_VALUE: decode_slice:p_Vid <- [DW_OP_plus_uconst 16, DW_OP_deref] $rsp
	#DEBUG_VALUE: i <- $r8
	#DEBUG_VALUE: comp <- [DW_OP_consts 4, DW_OP_div, DW_OP_stack_value] $r11
	#DEBUG_VALUE: iClip3:x <- $r12d
	#DEBUG_VALUE: iClip3:low <- -128
	#DEBUG_VALUE: iClip3:high <- 127
	#DEBUG_VALUE: iClip3:x <- $r12d
	#DEBUG_VALUE: imin:a <- $r12d
	#DEBUG_VALUE: imin:b <- 127
	.loc	2 44 10                         # ldecod_src/inc/ifunctions.h:44:10
	cmpl	$127, %r12d
	jge	.LBB3_18
.Ltmp135:
.LBB3_19:                               # %if.then96.us.i
                                        #   in Loop: Header=BB3_12 Depth=1
	#DEBUG_VALUE: decode_slice:currSlice <- $r15
	#DEBUG_VALUE: decode_slice:current_header <- [DW_OP_plus_uconst 12] [$rsp+0]
	#DEBUG_VALUE: decode_slice:p_Vid <- [DW_OP_plus_uconst 16, DW_OP_deref] $rsp
	#DEBUG_VALUE: i <- $r8
	#DEBUG_VALUE: comp <- [DW_OP_consts 4, DW_OP_div, DW_OP_stack_value] $r11
	#DEBUG_VALUE: iClip3:x <- $r12d
	#DEBUG_VALUE: iClip3:low <- -128
	#DEBUG_VALUE: iClip3:high <- 127
	#DEBUG_VALUE: iClip3:x <- $r12d
	#DEBUG_VALUE: td <- $r12d
	.loc	0 451 20                        # ldecod_src/image.c:451:20
	cmpl	%eax, %ebp
	.loc	0 451 25 is_stmt 0              # ldecod_src/image.c:451:25
	jne	.LBB3_20
	jmp	.LBB3_32
.Ltmp136:
.LBB3_16:                               # %if.then96.us.i
                                        #   in Loop: Header=BB3_12 Depth=1
	#DEBUG_VALUE: decode_slice:currSlice <- $r15
	#DEBUG_VALUE: decode_slice:current_header <- [DW_OP_plus_uconst 12] [$rsp+0]
	#DEBUG_VALUE: decode_slice:p_Vid <- [DW_OP_plus_uconst 16, DW_OP_deref] $rsp
	#DEBUG_VALUE: i <- $r8
	#DEBUG_VALUE: comp <- [DW_OP_consts 4, DW_OP_div, DW_OP_stack_value] $r11
	#DEBUG_VALUE: iClip3:x <- $r12d
	#DEBUG_VALUE: iClip3:low <- -128
	#DEBUG_VALUE: iClip3:high <- 127
	.loc	0 0 25                          # ldecod_src/image.c:0:25
	movl	$-128, %r12d
.Ltmp137:
	#DEBUG_VALUE: iClip3:x <- $r12d
	#DEBUG_VALUE: imin:a <- $r12d
	#DEBUG_VALUE: imin:b <- 127
	.loc	2 44 10 is_stmt 1               # ldecod_src/inc/ifunctions.h:44:10
	cmpl	$127, %r12d
	jl	.LBB3_19
.Ltmp138:
.LBB3_18:                               # %if.then96.us.i
                                        #   in Loop: Header=BB3_12 Depth=1
	#DEBUG_VALUE: decode_slice:currSlice <- $r15
	#DEBUG_VALUE: decode_slice:current_header <- [DW_OP_plus_uconst 12] [$rsp+0]
	#DEBUG_VALUE: decode_slice:p_Vid <- [DW_OP_plus_uconst 16, DW_OP_deref] $rsp
	#DEBUG_VALUE: i <- $r8
	#DEBUG_VALUE: comp <- [DW_OP_consts 4, DW_OP_div, DW_OP_stack_value] $r11
	#DEBUG_VALUE: iClip3:x <- $r12d
	#DEBUG_VALUE: iClip3:low <- -128
	#DEBUG_VALUE: iClip3:high <- 127
	.loc	2 0 10 is_stmt 0                # ldecod_src/inc/ifunctions.h:0:10
	movl	$127, %r12d
	#DEBUG_VALUE: iClip3:x <- $r12d
.Ltmp139:
	#DEBUG_VALUE: td <- $r12d
	.loc	0 451 20 is_stmt 1              # ldecod_src/image.c:451:20
	cmpl	%eax, %ebp
	.loc	0 451 25 is_stmt 0              # ldecod_src/image.c:451:25
	je	.LBB3_32
.Ltmp140:
.LBB3_20:                               # %lor.lhs.false.us.i
                                        #   in Loop: Header=BB3_12 Depth=1
	#DEBUG_VALUE: decode_slice:currSlice <- $r15
	#DEBUG_VALUE: decode_slice:current_header <- [DW_OP_plus_uconst 12] [$rsp+0]
	#DEBUG_VALUE: decode_slice:p_Vid <- [DW_OP_plus_uconst 16, DW_OP_deref] $rsp
	#DEBUG_VALUE: i <- $r8
	#DEBUG_VALUE: comp <- [DW_OP_consts 4, DW_OP_div, DW_OP_stack_value] $r11
	#DEBUG_VALUE: td <- $r12d
	.loc	0 451 28                        # ldecod_src/image.c:451:28
	cmpb	$0, 40(%rbx)
	.loc	0 451 70                        # ldecod_src/image.c:451:70
	jne	.LBB3_32
.Ltmp141:
# %bb.21:                               # %lor.lhs.false112.us.i
                                        #   in Loop: Header=BB3_12 Depth=1
	#DEBUG_VALUE: decode_slice:currSlice <- $r15
	#DEBUG_VALUE: decode_slice:current_header <- [DW_OP_plus_uconst 12] [$rsp+0]
	#DEBUG_VALUE: decode_slice:p_Vid <- [DW_OP_plus_uconst 16, DW_OP_deref] $rsp
	#DEBUG_VALUE: i <- $r8
	#DEBUG_VALUE: comp <- [DW_OP_consts 4, DW_OP_div, DW_OP_stack_value] $r11
	#DEBUG_VALUE: td <- $r12d
	.loc	0 451 73                        # ldecod_src/image.c:451:73
	cmpb	$0, 40(%rdx)
.Ltmp142:
	.loc	0 451 17                        # ldecod_src/image.c:451:17
	je	.LBB3_22
.Ltmp143:
	.p2align	4, 0x90
.LBB3_32:                               # %if.then120.us.i
                                        #   in Loop: Header=BB3_12 Depth=1
	#DEBUG_VALUE: decode_slice:currSlice <- $r15
	#DEBUG_VALUE: decode_slice:current_header <- [DW_OP_plus_uconst 12] [$rsp+0]
	#DEBUG_VALUE: decode_slice:p_Vid <- [DW_OP_plus_uconst 16, DW_OP_deref] $rsp
	#DEBUG_VALUE: i <- $r8
	#DEBUG_VALUE: comp <- [DW_OP_consts 4, DW_OP_div, DW_OP_stack_value] $r11
	#DEBUG_VALUE: td <- $r12d
	.loc	0 453 26 is_stmt 1              # ldecod_src/image.c:453:26
	movq	13296(%r15), %rax
	.loc	0 453 15 is_stmt 0              # ldecod_src/image.c:453:15
	movq	(%rax), %rax
	movq	(%rax,%r8,8), %rax
	movq	(%rax,%r10,8), %rax
	.loc	0 453 52                        # ldecod_src/image.c:453:52
	movl	$32, (%rax,%r11)
	.loc	0 454 26 is_stmt 1              # ldecod_src/image.c:454:26
	movq	13296(%r15), %rax
	movq	8(%rax), %rax
	.loc	0 454 15 is_stmt 0              # ldecod_src/image.c:454:15
	addq	%r9, %rax
	movl	$32, %edx
	.loc	0 455 13 is_stmt 1              # ldecod_src/image.c:455:13
	jmp	.LBB3_34
.Ltmp144:
.LBB3_36:                               # %for.inc232.us.i
                                        #   in Loop: Header=BB3_12 Depth=1
	#DEBUG_VALUE: decode_slice:currSlice <- $r15
	#DEBUG_VALUE: decode_slice:current_header <- [DW_OP_plus_uconst 12] [$rsp+0]
	#DEBUG_VALUE: decode_slice:p_Vid <- [DW_OP_plus_uconst 16, DW_OP_deref] $rsp
	#DEBUG_VALUE: i <- $r8
	.loc	0 438 31                        # ldecod_src/image.c:438:31
	incq	%r10
.Ltmp145:
	#DEBUG_VALUE: j <- $r10
	.loc	0 438 18 is_stmt 0              # ldecod_src/image.c:438:18
	cmpq	%rdi, %r10
.Ltmp146:
	.loc	0 438 7                         # ldecod_src/image.c:438:7
	je	.LBB3_38
.Ltmp147:
# %bb.37:                               # %for.cond46.preheader.us.i
                                        #   in Loop: Header=BB3_12 Depth=1
	#DEBUG_VALUE: decode_slice:currSlice <- $r15
	#DEBUG_VALUE: decode_slice:current_header <- [DW_OP_plus_uconst 12] [$rsp+0]
	#DEBUG_VALUE: decode_slice:p_Vid <- [DW_OP_plus_uconst 16, DW_OP_deref] $rsp
	#DEBUG_VALUE: i <- $r8
	#DEBUG_VALUE: j <- $r10
	#DEBUG_VALUE: j <- $r10
	#DEBUG_VALUE: comp <- 0
	.loc	0 0 7                           # ldecod_src/image.c:0:7
	xorl	%r11d, %r11d
.Ltmp148:
	#DEBUG_VALUE: comp <- [DW_OP_consts 4, DW_OP_div, DW_OP_stack_value] $r11
	#DEBUG_VALUE: log_weight_denom <- undef
	.loc	0 443 26 is_stmt 1              # ldecod_src/image.c:443:26
	movq	16(%r15), %rax
	.loc	0 443 38 is_stmt 0              # ldecod_src/image.c:443:38
	movl	2180(%rax), %eax
.Ltmp149:
	.loc	0 443 15                        # ldecod_src/image.c:443:15
	cmpl	$1, %eax
	jne	.LBB3_14
	jmp	.LBB3_33
.Ltmp150:
.LBB3_22:                               # %if.else137.us.i
                                        #   in Loop: Header=BB3_12 Depth=1
	#DEBUG_VALUE: decode_slice:currSlice <- $r15
	#DEBUG_VALUE: decode_slice:current_header <- [DW_OP_plus_uconst 12] [$rsp+0]
	#DEBUG_VALUE: decode_slice:p_Vid <- [DW_OP_plus_uconst 16, DW_OP_deref] $rsp
	#DEBUG_VALUE: i <- $r8
	#DEBUG_VALUE: comp <- [DW_OP_consts 4, DW_OP_div, DW_OP_stack_value] $r11
	#DEBUG_VALUE: td <- $r12d
	.loc	0 458 47 is_stmt 1              # ldecod_src/image.c:458:47
	movl	104(%r15), %ebx
	.loc	0 458 55 is_stmt 0              # ldecod_src/image.c:458:55
	subl	%eax, %ebx
.Ltmp151:
	#DEBUG_VALUE: iClip3:x <- $ebx
	#DEBUG_VALUE: imax:a <- $ebx
	#DEBUG_VALUE: iClip3:low <- -128
	#DEBUG_VALUE: iClip3:high <- 127
	#DEBUG_VALUE: imax:b <- -128
	.loc	2 49 10 is_stmt 1               # ldecod_src/inc/ifunctions.h:49:10
	cmpl	$-127, %ebx
	jge	.LBB3_24
.Ltmp152:
# %bb.23:                               # %if.else137.us.i
                                        #   in Loop: Header=BB3_12 Depth=1
	#DEBUG_VALUE: decode_slice:currSlice <- $r15
	#DEBUG_VALUE: decode_slice:current_header <- [DW_OP_plus_uconst 12] [$rsp+0]
	#DEBUG_VALUE: decode_slice:p_Vid <- [DW_OP_plus_uconst 16, DW_OP_deref] $rsp
	#DEBUG_VALUE: i <- $r8
	#DEBUG_VALUE: comp <- [DW_OP_consts 4, DW_OP_div, DW_OP_stack_value] $r11
	#DEBUG_VALUE: td <- $r12d
	#DEBUG_VALUE: iClip3:x <- $ebx
	#DEBUG_VALUE: imax:a <- $ebx
	#DEBUG_VALUE: iClip3:low <- -128
	#DEBUG_VALUE: iClip3:high <- 127
	#DEBUG_VALUE: imax:b <- -128
	.loc	2 0 10 is_stmt 0                # ldecod_src/inc/ifunctions.h:0:10
	movl	$-128, %ebx
.Ltmp153:
.LBB3_24:                               # %if.else137.us.i
                                        #   in Loop: Header=BB3_12 Depth=1
	#DEBUG_VALUE: decode_slice:currSlice <- $r15
	#DEBUG_VALUE: decode_slice:current_header <- [DW_OP_plus_uconst 12] [$rsp+0]
	#DEBUG_VALUE: decode_slice:p_Vid <- [DW_OP_plus_uconst 16, DW_OP_deref] $rsp
	#DEBUG_VALUE: i <- $r8
	#DEBUG_VALUE: comp <- [DW_OP_consts 4, DW_OP_div, DW_OP_stack_value] $r11
	#DEBUG_VALUE: td <- $r12d
	#DEBUG_VALUE: iClip3:low <- -128
	#DEBUG_VALUE: iClip3:high <- 127
	#DEBUG_VALUE: iClip3:x <- $ebx
	#DEBUG_VALUE: imin:a <- $ebx
	#DEBUG_VALUE: imin:b <- 127
	.loc	2 44 10 is_stmt 1               # ldecod_src/inc/ifunctions.h:44:10
	cmpl	$127, %ebx
	jl	.LBB3_26
.Ltmp154:
# %bb.25:                               # %if.else137.us.i
                                        #   in Loop: Header=BB3_12 Depth=1
	#DEBUG_VALUE: decode_slice:currSlice <- $r15
	#DEBUG_VALUE: decode_slice:current_header <- [DW_OP_plus_uconst 12] [$rsp+0]
	#DEBUG_VALUE: decode_slice:p_Vid <- [DW_OP_plus_uconst 16, DW_OP_deref] $rsp
	#DEBUG_VALUE: i <- $r8
	#DEBUG_VALUE: comp <- [DW_OP_consts 4, DW_OP_div, DW_OP_stack_value] $r11
	#DEBUG_VALUE: td <- $r12d
	#DEBUG_VALUE: iClip3:x <- $ebx
	#DEBUG_VALUE: iClip3:low <- -128
	#DEBUG_VALUE: iClip3:high <- 127
	#DEBUG_VALUE: imin:a <- $ebx
	#DEBUG_VALUE: imin:b <- 127
	.loc	2 0 10 is_stmt 0                # ldecod_src/inc/ifunctions.h:0:10
	movl	$127, %ebx
.Ltmp155:
.LBB3_26:                               # %if.else137.us.i
                                        #   in Loop: Header=BB3_12 Depth=1
	#DEBUG_VALUE: decode_slice:currSlice <- $r15
	#DEBUG_VALUE: decode_slice:current_header <- [DW_OP_plus_uconst 12] [$rsp+0]
	#DEBUG_VALUE: decode_slice:p_Vid <- [DW_OP_plus_uconst 16, DW_OP_deref] $rsp
	#DEBUG_VALUE: i <- $r8
	#DEBUG_VALUE: comp <- [DW_OP_consts 4, DW_OP_div, DW_OP_stack_value] $r11
	#DEBUG_VALUE: td <- $r12d
	#DEBUG_VALUE: iClip3:low <- -128
	#DEBUG_VALUE: iClip3:high <- 127
	#DEBUG_VALUE: iClip3:x <- $ebx
	#DEBUG_VALUE: tb <- $ebx
	.loc	0 460 36 is_stmt 1              # ldecod_src/image.c:460:36
	movl	%r12d, %eax
	shrb	$7, %al
	addb	%r12b, %al
	movl	%eax, %edx
	sarb	%dl
.Ltmp156:
	#DEBUG_VALUE: iabs:x <- [DW_OP_LLVM_convert 8 5, DW_OP_LLVM_convert 32 5, DW_OP_stack_value] $dl
	#DEBUG_VALUE: iabs:y <- [DW_OP_LLVM_convert 8 5, DW_OP_LLVM_convert 32 5, DW_OP_constu 31, DW_OP_shra, DW_OP_stack_value] $dl
	.loc	2 120 18                        # ldecod_src/inc/ifunctions.h:120:18
	sarb	$7, %al
	xorb	%al, %dl
.Ltmp157:
	subb	%al, %dl
	movzbl	%dl, %eax
.Ltmp158:
	.loc	0 460 27                        # ldecod_src/image.c:460:27
	orl	$16384, %eax                    # imm = 0x4000
                                        # kill: def $ax killed $ax killed $eax
	.loc	0 460 40 is_stmt 0              # ldecod_src/image.c:460:40
	xorl	%edx, %edx
	idivw	%r12w
	cwtl
.Ltmp159:
	#DEBUG_VALUE: tx <- $eax
	.loc	0 461 56 is_stmt 1              # ldecod_src/image.c:461:56
	imull	%ebx, %eax
.Ltmp160:
	.loc	0 461 60 is_stmt 0              # ldecod_src/image.c:461:60
	addl	$32, %eax
	.loc	0 461 66                        # ldecod_src/image.c:461:66
	sarl	$6, %eax
.Ltmp161:
	#DEBUG_VALUE: iClip3:x <- $eax
	#DEBUG_VALUE: imax:a <- $eax
	#DEBUG_VALUE: iClip3:low <- -1024
	#DEBUG_VALUE: iClip3:high <- 1023
	#DEBUG_VALUE: imax:b <- -1024
	.loc	2 49 10 is_stmt 1               # ldecod_src/inc/ifunctions.h:49:10
	cmpl	$-1023, %eax                    # imm = 0xFC01
	jge	.LBB3_28
.Ltmp162:
# %bb.27:                               # %if.else137.us.i
                                        #   in Loop: Header=BB3_12 Depth=1
	#DEBUG_VALUE: decode_slice:currSlice <- $r15
	#DEBUG_VALUE: decode_slice:current_header <- [DW_OP_plus_uconst 12] [$rsp+0]
	#DEBUG_VALUE: decode_slice:p_Vid <- [DW_OP_plus_uconst 16, DW_OP_deref] $rsp
	#DEBUG_VALUE: i <- $r8
	#DEBUG_VALUE: comp <- [DW_OP_consts 4, DW_OP_div, DW_OP_stack_value] $r11
	#DEBUG_VALUE: td <- $r12d
	#DEBUG_VALUE: iClip3:x <- $ebx
	#DEBUG_VALUE: iClip3:low <- -128
	#DEBUG_VALUE: iClip3:high <- 127
	#DEBUG_VALUE: tb <- $ebx
	#DEBUG_VALUE: iClip3:x <- $eax
	#DEBUG_VALUE: imax:a <- $eax
	#DEBUG_VALUE: iClip3:low <- -1024
	#DEBUG_VALUE: iClip3:high <- 1023
	#DEBUG_VALUE: imax:b <- -1024
	.loc	2 0 10 is_stmt 0                # ldecod_src/inc/ifunctions.h:0:10
	movl	$-1024, %eax                    # imm = 0xFC00
.Ltmp163:
.LBB3_28:                               # %if.else137.us.i
                                        #   in Loop: Header=BB3_12 Depth=1
	#DEBUG_VALUE: decode_slice:currSlice <- $r15
	#DEBUG_VALUE: decode_slice:current_header <- [DW_OP_plus_uconst 12] [$rsp+0]
	#DEBUG_VALUE: decode_slice:p_Vid <- [DW_OP_plus_uconst 16, DW_OP_deref] $rsp
	#DEBUG_VALUE: i <- $r8
	#DEBUG_VALUE: comp <- [DW_OP_consts 4, DW_OP_div, DW_OP_stack_value] $r11
	#DEBUG_VALUE: td <- $r12d
	#DEBUG_VALUE: tb <- $ebx
	#DEBUG_VALUE: iClip3:low <- -1024
	#DEBUG_VALUE: iClip3:high <- 1023
	#DEBUG_VALUE: iClip3:x <- $eax
	#DEBUG_VALUE: imin:a <- $eax
	#DEBUG_VALUE: imin:b <- 1023
	.loc	2 44 10 is_stmt 1               # ldecod_src/inc/ifunctions.h:44:10
	cmpl	$1023, %eax                     # imm = 0x3FF
	jl	.LBB3_30
.Ltmp164:
# %bb.29:                               # %if.else137.us.i
                                        #   in Loop: Header=BB3_12 Depth=1
	#DEBUG_VALUE: decode_slice:currSlice <- $r15
	#DEBUG_VALUE: decode_slice:current_header <- [DW_OP_plus_uconst 12] [$rsp+0]
	#DEBUG_VALUE: decode_slice:p_Vid <- [DW_OP_plus_uconst 16, DW_OP_deref] $rsp
	#DEBUG_VALUE: i <- $r8
	#DEBUG_VALUE: comp <- [DW_OP_consts 4, DW_OP_div, DW_OP_stack_value] $r11
	#DEBUG_VALUE: td <- $r12d
	#DEBUG_VALUE: tb <- $ebx
	#DEBUG_VALUE: iClip3:x <- $eax
	#DEBUG_VALUE: iClip3:low <- -1024
	#DEBUG_VALUE: iClip3:high <- 1023
	#DEBUG_VALUE: imin:a <- $eax
	#DEBUG_VALUE: imin:b <- 1023
	.loc	2 0 10 is_stmt 0                # ldecod_src/inc/ifunctions.h:0:10
	movl	$1023, %eax                     # imm = 0x3FF
.Ltmp165:
.LBB3_30:                               # %if.else137.us.i
                                        #   in Loop: Header=BB3_12 Depth=1
	#DEBUG_VALUE: decode_slice:currSlice <- $r15
	#DEBUG_VALUE: decode_slice:current_header <- [DW_OP_plus_uconst 12] [$rsp+0]
	#DEBUG_VALUE: decode_slice:p_Vid <- [DW_OP_plus_uconst 16, DW_OP_deref] $rsp
	#DEBUG_VALUE: i <- $r8
	#DEBUG_VALUE: comp <- [DW_OP_consts 4, DW_OP_div, DW_OP_stack_value] $r11
	#DEBUG_VALUE: td <- $r12d
	#DEBUG_VALUE: tb <- $ebx
	#DEBUG_VALUE: iClip3:low <- -1024
	#DEBUG_VALUE: iClip3:high <- 1023
	#DEBUG_VALUE: iClip3:x <- $eax
	#DEBUG_VALUE: DistScaleFactor <- $eax
	.loc	0 463 70 is_stmt 1              # ldecod_src/image.c:463:70
	sarl	$2, %eax
.Ltmp166:
	.loc	0 463 26 is_stmt 0              # ldecod_src/image.c:463:26
	movq	13296(%r15), %rdx
	.loc	0 463 15                        # ldecod_src/image.c:463:15
	movq	8(%rdx), %rdx
	movq	(%rdx,%r8,8), %rdx
	movq	(%rdx,%r10,8), %rdx
	.loc	0 463 52                        # ldecod_src/image.c:463:52
	movl	%eax, (%rdx,%r11)
	.loc	0 464 70 is_stmt 1              # ldecod_src/image.c:464:70
	movq	13296(%r15), %rax
	.loc	0 464 15 is_stmt 0              # ldecod_src/image.c:464:15
	movq	(%rax), %rdx
	.loc	0 464 59                        # ldecod_src/image.c:464:59
	movq	8(%rax), %rax
	movq	(%rax,%r8,8), %rax
	movq	(%rax,%r10,8), %rax
	.loc	0 464 57                        # ldecod_src/image.c:464:57
	movl	$64, %ebx
.Ltmp167:
	subl	(%rax,%r11), %ebx
	.loc	0 464 15                        # ldecod_src/image.c:464:15
	movq	(%rdx,%r8,8), %rax
	movq	(%rax,%r10,8), %rax
	.loc	0 464 52                        # ldecod_src/image.c:464:52
	movl	%ebx, (%rax,%r11)
.Ltmp168:
	.loc	0 465 30 is_stmt 1              # ldecod_src/image.c:465:30
	movq	13296(%r15), %rax
	.loc	0 465 19 is_stmt 0              # ldecod_src/image.c:465:19
	movq	8(%rax), %rdx
	movq	(%rdx,%r8,8), %rdx
	movq	(%rdx,%r10,8), %rdx
	movl	(%rdx,%r11), %edx
	.loc	0 465 62                        # ldecod_src/image.c:465:62
	addl	%ecx, %edx
	cmpl	$-194, %edx
	ja	.LBB3_35
.Ltmp169:
# %bb.31:                               # %if.then196.us.i
                                        #   in Loop: Header=BB3_12 Depth=1
	#DEBUG_VALUE: decode_slice:currSlice <- $r15
	#DEBUG_VALUE: decode_slice:current_header <- [DW_OP_plus_uconst 12] [$rsp+0]
	#DEBUG_VALUE: decode_slice:p_Vid <- [DW_OP_plus_uconst 16, DW_OP_deref] $rsp
	#DEBUG_VALUE: i <- $r8
	#DEBUG_VALUE: comp <- [DW_OP_consts 4, DW_OP_div, DW_OP_stack_value] $r11
	#DEBUG_VALUE: td <- $r12d
	.loc	0 467 17 is_stmt 1              # ldecod_src/image.c:467:17
	movq	(%rax), %rax
	movq	(%rax,%r8,8), %rax
	movq	(%rax,%r10,8), %rax
	.loc	0 467 54 is_stmt 0              # ldecod_src/image.c:467:54
	movl	$32, (%rax,%r11)
	.loc	0 468 28 is_stmt 1              # ldecod_src/image.c:468:28
	movq	13296(%r15), %rax
	.loc	0 468 17 is_stmt 0              # ldecod_src/image.c:468:17
	movq	8(%rax), %rax
	movq	(%rax,%r8,8), %rax
	movq	(%rax,%r10,8), %rax
	.loc	0 468 54                        # ldecod_src/image.c:468:54
	movl	$32, (%rax,%r11)
	.loc	0 469 28 is_stmt 1              # ldecod_src/image.c:469:28
	movq	13288(%r15), %rax
	.loc	0 469 17 is_stmt 0              # ldecod_src/image.c:469:17
	movq	(%rax), %rax
	movq	(%rax,%r8,8), %rax
	.loc	0 469 50                        # ldecod_src/image.c:469:50
	movl	$0, (%rax,%r11)
	.loc	0 470 28 is_stmt 1              # ldecod_src/image.c:470:28
	movq	13288(%r15), %rax
	.loc	0 470 17 is_stmt 0              # ldecod_src/image.c:470:17
	addq	$8, %rax
	xorl	%edx, %edx
	.loc	0 471 15 is_stmt 1              # ldecod_src/image.c:471:15
	jmp	.LBB3_34
.Ltmp170:
.LBB3_39:                               # %for.end237.i
	#DEBUG_VALUE: decode_slice:currSlice <- $r15
	#DEBUG_VALUE: decode_slice:current_header <- [DW_OP_plus_uconst 12] [$rsp+0]
	#DEBUG_VALUE: decode_slice:p_Vid <- [DW_OP_plus_uconst 16, DW_OP_deref] $rsp
	#DEBUG_VALUE: i <- $r8
	#DEBUG_VALUE: j <- $r10
	.loc	0 478 9                         # ldecod_src/image.c:478:9
	cmpl	$0, 128(%r15)
.Ltmp171:
	.loc	0 478 9 is_stmt 0               # ldecod_src/image.c:478:9
	je	.LBB3_90
.Ltmp172:
# %bb.40:                               # %for.cond245.preheader.lr.ph.i
	#DEBUG_VALUE: decode_slice:currSlice <- $r15
	#DEBUG_VALUE: decode_slice:current_header <- [DW_OP_plus_uconst 12] [$rsp+0]
	#DEBUG_VALUE: decode_slice:p_Vid <- [DW_OP_plus_uconst 16, DW_OP_deref] $rsp
	#DEBUG_VALUE: i <- $r8
	#DEBUG_VALUE: j <- $r10
	.loc	0 0 9                           # ldecod_src/image.c:0:9
	addl	%esi, %esi
.Ltmp173:
	#DEBUG_VALUE: i <- 0
	addl	%edi, %edi
.Ltmp174:
	.loc	0 480 7 is_stmt 1               # ldecod_src/image.c:480:7
	cmpl	$2, %edi
	movl	$1, %eax
	cmovll	%eax, %edi
	cmpl	$2, %esi
	cmovll	%eax, %esi
	movl	$-129, %ecx
	xorl	%r8d, %r8d
	jmp	.LBB3_41
.Ltmp175:
	.p2align	4, 0x90
.LBB3_89:                               # %for.cond245.for.inc533_crit_edge.us.i
                                        #   in Loop: Header=BB3_41 Depth=1
	#DEBUG_VALUE: decode_slice:currSlice <- $r15
	#DEBUG_VALUE: decode_slice:current_header <- [DW_OP_plus_uconst 12] [$rsp+0]
	#DEBUG_VALUE: decode_slice:p_Vid <- [DW_OP_plus_uconst 16, DW_OP_deref] $rsp
	#DEBUG_VALUE: i <- $r8
	#DEBUG_VALUE: j <- $r11
	#DEBUG_VALUE: k <- 6
	.loc	0 480 33 is_stmt 0              # ldecod_src/image.c:480:33
	incq	%r8
.Ltmp176:
	#DEBUG_VALUE: i <- $r8
	.loc	0 480 18                        # ldecod_src/image.c:480:18
	cmpq	%rsi, %r8
.Ltmp177:
	.loc	0 480 7                         # ldecod_src/image.c:480:7
	je	.LBB3_90
.Ltmp178:
.LBB3_41:                               # %for.cond245.preheader.us.i
                                        # =>This Loop Header: Depth=1
                                        #     Child Loop BB3_88 Depth 2
                                        #       Child Loop BB3_85 Depth 3
	#DEBUG_VALUE: decode_slice:currSlice <- $r15
	#DEBUG_VALUE: decode_slice:current_header <- [DW_OP_plus_uconst 12] [$rsp+0]
	#DEBUG_VALUE: decode_slice:p_Vid <- [DW_OP_plus_uconst 16, DW_OP_deref] $rsp
	#DEBUG_VALUE: i <- $r8
	#DEBUG_VALUE: j <- 0
	.loc	0 0 7                           # ldecod_src/image.c:0:7
	movl	%r8d, %r9d
	shrl	%r9d
	leaq	(,%r8,8), %r10
	xorl	%r11d, %r11d
.Ltmp179:
	.loc	0 482 9 is_stmt 1               # ldecod_src/image.c:482:9
	jmp	.LBB3_88
.Ltmp180:
	.p2align	4, 0x90
.LBB3_87:                               # %for.inc530.us.i
                                        #   in Loop: Header=BB3_88 Depth=2
	#DEBUG_VALUE: decode_slice:currSlice <- $r15
	#DEBUG_VALUE: decode_slice:current_header <- [DW_OP_plus_uconst 12] [$rsp+0]
	#DEBUG_VALUE: decode_slice:p_Vid <- [DW_OP_plus_uconst 16, DW_OP_deref] $rsp
	#DEBUG_VALUE: i <- $r8
	#DEBUG_VALUE: j <- $r11
	#DEBUG_VALUE: k <- 6
	.loc	0 482 35 is_stmt 0              # ldecod_src/image.c:482:35
	incq	%r11
.Ltmp181:
	#DEBUG_VALUE: j <- $r11
	.loc	0 482 20                        # ldecod_src/image.c:482:20
	cmpq	%rdi, %r11
.Ltmp182:
	.loc	0 482 9                         # ldecod_src/image.c:482:9
	je	.LBB3_89
.Ltmp183:
.LBB3_88:                               # %for.cond250.preheader.us.i
                                        #   Parent Loop BB3_41 Depth=1
                                        # =>  This Loop Header: Depth=2
                                        #       Child Loop BB3_85 Depth 3
	#DEBUG_VALUE: decode_slice:currSlice <- $r15
	#DEBUG_VALUE: decode_slice:current_header <- [DW_OP_plus_uconst 12] [$rsp+0]
	#DEBUG_VALUE: decode_slice:p_Vid <- [DW_OP_plus_uconst 16, DW_OP_deref] $rsp
	#DEBUG_VALUE: i <- $r8
	#DEBUG_VALUE: j <- $r11
	.loc	0 0 9                           # ldecod_src/image.c:0:9
	movl	%r11d, %r12d
	shrl	%r12d
.Ltmp184:
	#DEBUG_VALUE: comp <- 0
	xorl	%r13d, %r13d
.Ltmp185:
	.loc	0 484 11 is_stmt 1              # ldecod_src/image.c:484:11
	jmp	.LBB3_85
.Ltmp186:
	.p2align	4, 0x90
.LBB3_82:                               # %if.then302.us.1.i
                                        #   in Loop: Header=BB3_85 Depth=3
	#DEBUG_VALUE: decode_slice:currSlice <- $r15
	#DEBUG_VALUE: decode_slice:current_header <- [DW_OP_plus_uconst 12] [$rsp+0]
	#DEBUG_VALUE: decode_slice:p_Vid <- [DW_OP_plus_uconst 16, DW_OP_deref] $rsp
	#DEBUG_VALUE: i <- $r8
	#DEBUG_VALUE: comp <- [DW_OP_consts 4, DW_OP_div, DW_OP_stack_value] $r13
	#DEBUG_VALUE: j <- $r11
	#DEBUG_VALUE: k <- 4
	.loc	0 494 70                        # ldecod_src/image.c:494:70
	movq	13280(%r15), %rax
	.loc	0 494 28 is_stmt 0              # ldecod_src/image.c:494:28
	movq	13296(%r15), %rdx
	.loc	0 494 59                        # ldecod_src/image.c:494:59
	movq	(%rax), %rax
	movq	(%rax,%r9,8), %rax
	movl	(%rax,%r13), %eax
	.loc	0 494 17                        # ldecod_src/image.c:494:17
	movq	32(%rdx), %rdx
	movq	(%rdx,%r8,8), %rdx
	movq	(%rdx,%r11,8), %rdx
	.loc	0 494 56                        # ldecod_src/image.c:494:56
	movl	%eax, (%rdx,%r13)
	.loc	0 495 70 is_stmt 1              # ldecod_src/image.c:495:70
	movq	13280(%r15), %rax
	.loc	0 495 28 is_stmt 0              # ldecod_src/image.c:495:28
	movq	13296(%r15), %rbx
	.loc	0 495 59                        # ldecod_src/image.c:495:59
	movq	8(%rax), %rax
	movq	(%rax,%r12,8), %rax
	movl	(%rax,%r13), %edx
	movq	40(%rbx), %rax
	.loc	0 495 17                        # ldecod_src/image.c:495:17
	addq	%r10, %rax
.Ltmp187:
.LBB3_83:                               # %for.inc524.us.1.sink.split.i
                                        #   in Loop: Header=BB3_85 Depth=3
	#DEBUG_VALUE: decode_slice:currSlice <- $r15
	#DEBUG_VALUE: decode_slice:current_header <- [DW_OP_plus_uconst 12] [$rsp+0]
	#DEBUG_VALUE: decode_slice:p_Vid <- [DW_OP_plus_uconst 16, DW_OP_deref] $rsp
	#DEBUG_VALUE: i <- $r8
	#DEBUG_VALUE: comp <- [DW_OP_consts 4, DW_OP_div, DW_OP_stack_value] $r13
	#DEBUG_VALUE: j <- $r11
	#DEBUG_VALUE: k <- 4
	.loc	0 0 0                           # ldecod_src/image.c:0:0
	movq	(%rax), %rax
	movq	(%rax,%r11,8), %rax
	movl	%edx, (%rax,%r13)
.Ltmp188:
.LBB3_84:                               # %for.inc524.us.1.i
                                        #   in Loop: Header=BB3_85 Depth=3
	#DEBUG_VALUE: decode_slice:currSlice <- $r15
	#DEBUG_VALUE: decode_slice:current_header <- [DW_OP_plus_uconst 12] [$rsp+0]
	#DEBUG_VALUE: decode_slice:p_Vid <- [DW_OP_plus_uconst 16, DW_OP_deref] $rsp
	#DEBUG_VALUE: i <- $r8
	#DEBUG_VALUE: comp <- [DW_OP_consts 4, DW_OP_div, DW_OP_stack_value] $r13
	#DEBUG_VALUE: j <- $r11
	#DEBUG_VALUE: k <- 4
	#DEBUG_VALUE: k <- 6
	#DEBUG_VALUE: comp <- [DW_OP_consts 4, DW_OP_div, DW_OP_consts 1, DW_OP_plus, DW_OP_stack_value] $r13
	.loc	0 484 30 is_stmt 1              # ldecod_src/image.c:484:30
	addq	$4, %r13
.Ltmp189:
	cmpq	$12, %r13
.Ltmp190:
	.loc	0 484 11 is_stmt 0              # ldecod_src/image.c:484:11
	je	.LBB3_87
.Ltmp191:
.LBB3_85:                               # %for.cond254.preheader.us.i
                                        #   Parent Loop BB3_41 Depth=1
                                        #     Parent Loop BB3_88 Depth=2
                                        # =>    This Inner Loop Header: Depth=3
	#DEBUG_VALUE: decode_slice:currSlice <- $r15
	#DEBUG_VALUE: decode_slice:current_header <- [DW_OP_plus_uconst 12] [$rsp+0]
	#DEBUG_VALUE: decode_slice:p_Vid <- [DW_OP_plus_uconst 16, DW_OP_deref] $rsp
	#DEBUG_VALUE: i <- $r8
	#DEBUG_VALUE: j <- $r11
	#DEBUG_VALUE: comp <- [DW_OP_consts 4, DW_OP_div, DW_OP_stack_value] $r13
	#DEBUG_VALUE: k <- 2
	.loc	0 488 63 is_stmt 1              # ldecod_src/image.c:488:63
	movq	13288(%r15), %rax
	.loc	0 488 52 is_stmt 0              # ldecod_src/image.c:488:52
	movq	(%rax), %rdx
	.loc	0 488 15                        # ldecod_src/image.c:488:15
	movq	16(%rax), %rax
	.loc	0 488 52                        # ldecod_src/image.c:488:52
	movq	(%rdx,%r9,8), %rdx
	movl	(%rdx,%r13), %edx
	.loc	0 488 15                        # ldecod_src/image.c:488:15
	movq	(%rax,%r8,8), %rax
	.loc	0 488 50                        # ldecod_src/image.c:488:50
	movl	%edx, (%rax,%r13)
	.loc	0 489 63 is_stmt 1              # ldecod_src/image.c:489:63
	movq	13288(%r15), %rax
	.loc	0 489 52 is_stmt 0              # ldecod_src/image.c:489:52
	movq	8(%rax), %rdx
	.loc	0 489 15                        # ldecod_src/image.c:489:15
	movq	24(%rax), %rax
	.loc	0 489 52                        # ldecod_src/image.c:489:52
	movq	(%rdx,%r12,8), %rdx
	movl	(%rdx,%r13), %edx
	.loc	0 489 15                        # ldecod_src/image.c:489:15
	movq	(%rax,%r11,8), %rax
	.loc	0 489 50                        # ldecod_src/image.c:489:50
	movl	%edx, (%rax,%r13)
.Ltmp192:
	#DEBUG_VALUE: log_weight_denom <- undef
	.loc	0 492 30 is_stmt 1              # ldecod_src/image.c:492:30
	movq	16(%r15), %rax
	.loc	0 492 42 is_stmt 0              # ldecod_src/image.c:492:42
	movl	2180(%rax), %eax
.Ltmp193:
	.loc	0 492 19                        # ldecod_src/image.c:492:19
	cmpl	$1, %eax
	je	.LBB3_60
.Ltmp194:
# %bb.86:                               # %for.cond254.preheader.us.i
                                        #   in Loop: Header=BB3_85 Depth=3
	#DEBUG_VALUE: decode_slice:currSlice <- $r15
	#DEBUG_VALUE: decode_slice:current_header <- [DW_OP_plus_uconst 12] [$rsp+0]
	#DEBUG_VALUE: decode_slice:p_Vid <- [DW_OP_plus_uconst 16, DW_OP_deref] $rsp
	#DEBUG_VALUE: i <- $r8
	#DEBUG_VALUE: comp <- [DW_OP_consts 4, DW_OP_div, DW_OP_stack_value] $r13
	#DEBUG_VALUE: j <- $r11
	#DEBUG_VALUE: k <- 2
	cmpl	$2, %eax
	jne	.LBB3_62
.Ltmp195:
# %bb.42:                               # %if.then342.us.i
                                        #   in Loop: Header=BB3_85 Depth=3
	#DEBUG_VALUE: decode_slice:currSlice <- $r15
	#DEBUG_VALUE: decode_slice:current_header <- [DW_OP_plus_uconst 12] [$rsp+0]
	#DEBUG_VALUE: decode_slice:p_Vid <- [DW_OP_plus_uconst 16, DW_OP_deref] $rsp
	#DEBUG_VALUE: i <- $r8
	#DEBUG_VALUE: comp <- [DW_OP_consts 4, DW_OP_div, DW_OP_stack_value] $r13
	#DEBUG_VALUE: j <- $r11
	#DEBUG_VALUE: k <- 2
	.loc	0 499 77 is_stmt 1              # ldecod_src/image.c:499:77
	movq	280(%r15), %rax
	.loc	0 499 40 is_stmt 0              # ldecod_src/image.c:499:40
	movq	288(%r15), %rdx
	movq	(%rdx,%r11,8), %rbp
	.loc	0 499 71                        # ldecod_src/image.c:499:71
	movl	4(%rbp), %r14d
	.loc	0 499 77                        # ldecod_src/image.c:499:77
	movq	(%rax,%r8,8), %rdx
	.loc	0 499 108                       # ldecod_src/image.c:499:108
	movl	4(%rdx), %eax
.Ltmp196:
	.loc	0 500 24 is_stmt 1              # ldecod_src/image.c:500:24
	movl	%r14d, %ebx
	subl	%eax, %ebx
.Ltmp197:
	#DEBUG_VALUE: iClip3:x <- $ebx
	#DEBUG_VALUE: imax:a <- $ebx
	#DEBUG_VALUE: iClip3:low <- -128
	#DEBUG_VALUE: iClip3:high <- 127
	#DEBUG_VALUE: imax:b <- -128
	.loc	2 49 10                         # ldecod_src/inc/ifunctions.h:49:10
	cmpl	$-127, %ebx
	jl	.LBB3_43
.Ltmp198:
# %bb.44:                               # %if.then342.us.i
                                        #   in Loop: Header=BB3_85 Depth=3
	#DEBUG_VALUE: decode_slice:currSlice <- $r15
	#DEBUG_VALUE: decode_slice:current_header <- [DW_OP_plus_uconst 12] [$rsp+0]
	#DEBUG_VALUE: decode_slice:p_Vid <- [DW_OP_plus_uconst 16, DW_OP_deref] $rsp
	#DEBUG_VALUE: i <- $r8
	#DEBUG_VALUE: comp <- [DW_OP_consts 4, DW_OP_div, DW_OP_stack_value] $r13
	#DEBUG_VALUE: j <- $r11
	#DEBUG_VALUE: k <- 2
	#DEBUG_VALUE: iClip3:x <- $ebx
	#DEBUG_VALUE: iClip3:low <- -128
	#DEBUG_VALUE: iClip3:high <- 127
	#DEBUG_VALUE: iClip3:x <- $ebx
	#DEBUG_VALUE: imin:a <- $ebx
	#DEBUG_VALUE: imin:b <- 127
	.loc	2 44 10                         # ldecod_src/inc/ifunctions.h:44:10
	cmpl	$127, %ebx
	jge	.LBB3_45
.Ltmp199:
.LBB3_46:                               # %if.then342.us.i
                                        #   in Loop: Header=BB3_85 Depth=3
	#DEBUG_VALUE: decode_slice:currSlice <- $r15
	#DEBUG_VALUE: decode_slice:current_header <- [DW_OP_plus_uconst 12] [$rsp+0]
	#DEBUG_VALUE: decode_slice:p_Vid <- [DW_OP_plus_uconst 16, DW_OP_deref] $rsp
	#DEBUG_VALUE: i <- $r8
	#DEBUG_VALUE: comp <- [DW_OP_consts 4, DW_OP_div, DW_OP_stack_value] $r13
	#DEBUG_VALUE: j <- $r11
	#DEBUG_VALUE: k <- 2
	#DEBUG_VALUE: iClip3:x <- $ebx
	#DEBUG_VALUE: iClip3:low <- -128
	#DEBUG_VALUE: iClip3:high <- 127
	#DEBUG_VALUE: iClip3:x <- $ebx
	#DEBUG_VALUE: td <- $ebx
	.loc	0 500 24                        # ldecod_src/image.c:500:24
	cmpl	%eax, %r14d
	.loc	0 500 29 is_stmt 0              # ldecod_src/image.c:500:29
	jne	.LBB3_47
	jmp	.LBB3_59
.Ltmp200:
	.p2align	4, 0x90
.LBB3_60:                               # %if.then302.us.i
                                        #   in Loop: Header=BB3_85 Depth=3
	#DEBUG_VALUE: decode_slice:currSlice <- $r15
	#DEBUG_VALUE: decode_slice:current_header <- [DW_OP_plus_uconst 12] [$rsp+0]
	#DEBUG_VALUE: decode_slice:p_Vid <- [DW_OP_plus_uconst 16, DW_OP_deref] $rsp
	#DEBUG_VALUE: i <- $r8
	#DEBUG_VALUE: comp <- [DW_OP_consts 4, DW_OP_div, DW_OP_stack_value] $r13
	#DEBUG_VALUE: j <- $r11
	#DEBUG_VALUE: k <- 2
	.loc	0 494 70 is_stmt 1              # ldecod_src/image.c:494:70
	movq	13280(%r15), %rax
	.loc	0 494 28 is_stmt 0              # ldecod_src/image.c:494:28
	movq	13296(%r15), %rdx
	.loc	0 494 59                        # ldecod_src/image.c:494:59
	movq	(%rax), %rax
	movq	(%rax,%r9,8), %rax
	movl	(%rax,%r13), %eax
	.loc	0 494 17                        # ldecod_src/image.c:494:17
	movq	16(%rdx), %rdx
	movq	(%rdx,%r8,8), %rdx
	movq	(%rdx,%r11,8), %rdx
	.loc	0 494 56                        # ldecod_src/image.c:494:56
	movl	%eax, (%rdx,%r13)
	.loc	0 495 70 is_stmt 1              # ldecod_src/image.c:495:70
	movq	13280(%r15), %rax
	.loc	0 495 28 is_stmt 0              # ldecod_src/image.c:495:28
	movq	13296(%r15), %rbx
	.loc	0 495 59                        # ldecod_src/image.c:495:59
	movq	8(%rax), %rax
	movq	(%rax,%r12,8), %rax
	movl	(%rax,%r13), %edx
	movq	24(%rbx), %rax
	.loc	0 495 17                        # ldecod_src/image.c:495:17
	addq	%r10, %rax
	jmp	.LBB3_61
.Ltmp201:
.LBB3_43:                               # %if.then342.us.i
                                        #   in Loop: Header=BB3_85 Depth=3
	#DEBUG_VALUE: decode_slice:currSlice <- $r15
	#DEBUG_VALUE: decode_slice:current_header <- [DW_OP_plus_uconst 12] [$rsp+0]
	#DEBUG_VALUE: decode_slice:p_Vid <- [DW_OP_plus_uconst 16, DW_OP_deref] $rsp
	#DEBUG_VALUE: i <- $r8
	#DEBUG_VALUE: comp <- [DW_OP_consts 4, DW_OP_div, DW_OP_stack_value] $r13
	#DEBUG_VALUE: j <- $r11
	#DEBUG_VALUE: k <- 2
	#DEBUG_VALUE: iClip3:x <- $ebx
	#DEBUG_VALUE: iClip3:low <- -128
	#DEBUG_VALUE: iClip3:high <- 127
	.loc	0 0 17                          # ldecod_src/image.c:0:17
	movl	$-128, %ebx
.Ltmp202:
	#DEBUG_VALUE: iClip3:x <- $ebx
	#DEBUG_VALUE: imin:a <- $ebx
	#DEBUG_VALUE: imin:b <- 127
	.loc	2 44 10 is_stmt 1               # ldecod_src/inc/ifunctions.h:44:10
	cmpl	$127, %ebx
	jl	.LBB3_46
.Ltmp203:
.LBB3_45:                               # %if.then342.us.i
                                        #   in Loop: Header=BB3_85 Depth=3
	#DEBUG_VALUE: decode_slice:currSlice <- $r15
	#DEBUG_VALUE: decode_slice:current_header <- [DW_OP_plus_uconst 12] [$rsp+0]
	#DEBUG_VALUE: decode_slice:p_Vid <- [DW_OP_plus_uconst 16, DW_OP_deref] $rsp
	#DEBUG_VALUE: i <- $r8
	#DEBUG_VALUE: comp <- [DW_OP_consts 4, DW_OP_div, DW_OP_stack_value] $r13
	#DEBUG_VALUE: j <- $r11
	#DEBUG_VALUE: k <- 2
	#DEBUG_VALUE: iClip3:x <- $ebx
	#DEBUG_VALUE: iClip3:low <- -128
	#DEBUG_VALUE: iClip3:high <- 127
	.loc	2 0 10 is_stmt 0                # ldecod_src/inc/ifunctions.h:0:10
	movl	$127, %ebx
	#DEBUG_VALUE: iClip3:x <- $ebx
.Ltmp204:
	#DEBUG_VALUE: td <- $ebx
	.loc	0 500 24 is_stmt 1              # ldecod_src/image.c:500:24
	cmpl	%eax, %r14d
	.loc	0 500 29 is_stmt 0              # ldecod_src/image.c:500:29
	je	.LBB3_59
.Ltmp205:
.LBB3_47:                               # %lor.lhs.false361.us.i
                                        #   in Loop: Header=BB3_85 Depth=3
	#DEBUG_VALUE: decode_slice:currSlice <- $r15
	#DEBUG_VALUE: decode_slice:current_header <- [DW_OP_plus_uconst 12] [$rsp+0]
	#DEBUG_VALUE: decode_slice:p_Vid <- [DW_OP_plus_uconst 16, DW_OP_deref] $rsp
	#DEBUG_VALUE: i <- $r8
	#DEBUG_VALUE: comp <- [DW_OP_consts 4, DW_OP_div, DW_OP_stack_value] $r13
	#DEBUG_VALUE: j <- $r11
	#DEBUG_VALUE: td <- $ebx
	#DEBUG_VALUE: k <- 2
	.loc	0 500 32                        # ldecod_src/image.c:500:32
	cmpb	$0, 40(%rbp)
	.loc	0 500 76                        # ldecod_src/image.c:500:76
	jne	.LBB3_59
.Ltmp206:
# %bb.48:                               # %lor.lhs.false371.us.i
                                        #   in Loop: Header=BB3_85 Depth=3
	#DEBUG_VALUE: decode_slice:currSlice <- $r15
	#DEBUG_VALUE: decode_slice:current_header <- [DW_OP_plus_uconst 12] [$rsp+0]
	#DEBUG_VALUE: decode_slice:p_Vid <- [DW_OP_plus_uconst 16, DW_OP_deref] $rsp
	#DEBUG_VALUE: i <- $r8
	#DEBUG_VALUE: comp <- [DW_OP_consts 4, DW_OP_div, DW_OP_stack_value] $r13
	#DEBUG_VALUE: j <- $r11
	#DEBUG_VALUE: td <- $ebx
	#DEBUG_VALUE: k <- 2
	.loc	0 500 79                        # ldecod_src/image.c:500:79
	cmpb	$0, 40(%rdx)
.Ltmp207:
	.loc	0 500 21                        # ldecod_src/image.c:500:21
	je	.LBB3_49
.Ltmp208:
	.p2align	4, 0x90
.LBB3_59:                               # %if.then381.us.i
                                        #   in Loop: Header=BB3_85 Depth=3
	#DEBUG_VALUE: decode_slice:currSlice <- $r15
	#DEBUG_VALUE: decode_slice:current_header <- [DW_OP_plus_uconst 12] [$rsp+0]
	#DEBUG_VALUE: decode_slice:p_Vid <- [DW_OP_plus_uconst 16, DW_OP_deref] $rsp
	#DEBUG_VALUE: i <- $r8
	#DEBUG_VALUE: comp <- [DW_OP_consts 4, DW_OP_div, DW_OP_stack_value] $r13
	#DEBUG_VALUE: j <- $r11
	#DEBUG_VALUE: td <- $ebx
	#DEBUG_VALUE: k <- 2
	.loc	0 502 30 is_stmt 1              # ldecod_src/image.c:502:30
	movq	13296(%r15), %rax
	.loc	0 502 19 is_stmt 0              # ldecod_src/image.c:502:19
	movq	16(%rax), %rax
	movq	(%rax,%r8,8), %rax
	movq	(%rax,%r11,8), %rax
	.loc	0 502 58                        # ldecod_src/image.c:502:58
	movl	$32, (%rax,%r13)
	.loc	0 503 30 is_stmt 1              # ldecod_src/image.c:503:30
	movq	13296(%r15), %rax
	movq	24(%rax), %rax
	.loc	0 503 19 is_stmt 0              # ldecod_src/image.c:503:19
	addq	%r10, %rax
	movl	$32, %edx
.Ltmp209:
.LBB3_61:                               # %for.inc524.us.sink.split.i
                                        #   in Loop: Header=BB3_85 Depth=3
	#DEBUG_VALUE: decode_slice:currSlice <- $r15
	#DEBUG_VALUE: decode_slice:current_header <- [DW_OP_plus_uconst 12] [$rsp+0]
	#DEBUG_VALUE: decode_slice:p_Vid <- [DW_OP_plus_uconst 16, DW_OP_deref] $rsp
	#DEBUG_VALUE: i <- $r8
	#DEBUG_VALUE: comp <- [DW_OP_consts 4, DW_OP_div, DW_OP_stack_value] $r13
	#DEBUG_VALUE: j <- $r11
	#DEBUG_VALUE: k <- 2
	.loc	0 0 0                           # ldecod_src/image.c:0:0
	movq	(%rax), %rax
	movq	(%rax,%r11,8), %rax
	movl	%edx, (%rax,%r13)
.Ltmp210:
.LBB3_62:                               # %for.inc524.us.i
                                        #   in Loop: Header=BB3_85 Depth=3
	#DEBUG_VALUE: decode_slice:currSlice <- $r15
	#DEBUG_VALUE: decode_slice:current_header <- [DW_OP_plus_uconst 12] [$rsp+0]
	#DEBUG_VALUE: decode_slice:p_Vid <- [DW_OP_plus_uconst 16, DW_OP_deref] $rsp
	#DEBUG_VALUE: i <- $r8
	#DEBUG_VALUE: comp <- [DW_OP_consts 4, DW_OP_div, DW_OP_stack_value] $r13
	#DEBUG_VALUE: j <- $r11
	#DEBUG_VALUE: k <- 2
	#DEBUG_VALUE: k <- 4
	.loc	0 488 63 is_stmt 1              # ldecod_src/image.c:488:63
	movq	13288(%r15), %rax
	.loc	0 488 52 is_stmt 0              # ldecod_src/image.c:488:52
	movq	(%rax), %rdx
	.loc	0 488 15                        # ldecod_src/image.c:488:15
	movq	32(%rax), %rax
	.loc	0 488 52                        # ldecod_src/image.c:488:52
	movq	(%rdx,%r9,8), %rdx
	movl	(%rdx,%r13), %edx
	.loc	0 488 15                        # ldecod_src/image.c:488:15
	movq	(%rax,%r8,8), %rax
	.loc	0 488 50                        # ldecod_src/image.c:488:50
	movl	%edx, (%rax,%r13)
	.loc	0 489 63 is_stmt 1              # ldecod_src/image.c:489:63
	movq	13288(%r15), %rax
	.loc	0 489 52 is_stmt 0              # ldecod_src/image.c:489:52
	movq	8(%rax), %rdx
	.loc	0 489 15                        # ldecod_src/image.c:489:15
	movq	40(%rax), %rax
	.loc	0 489 52                        # ldecod_src/image.c:489:52
	movq	(%rdx,%r12,8), %rdx
	movl	(%rdx,%r13), %edx
	.loc	0 489 15                        # ldecod_src/image.c:489:15
	movq	(%rax,%r11,8), %rax
	.loc	0 489 50                        # ldecod_src/image.c:489:50
	movl	%edx, (%rax,%r13)
.Ltmp211:
	#DEBUG_VALUE: log_weight_denom <- undef
	.loc	0 492 30 is_stmt 1              # ldecod_src/image.c:492:30
	movq	16(%r15), %rax
	.loc	0 492 42 is_stmt 0              # ldecod_src/image.c:492:42
	movl	2180(%rax), %eax
.Ltmp212:
	.loc	0 492 19                        # ldecod_src/image.c:492:19
	cmpl	$1, %eax
	je	.LBB3_82
.Ltmp213:
# %bb.63:                               # %for.inc524.us.i
                                        #   in Loop: Header=BB3_85 Depth=3
	#DEBUG_VALUE: decode_slice:currSlice <- $r15
	#DEBUG_VALUE: decode_slice:current_header <- [DW_OP_plus_uconst 12] [$rsp+0]
	#DEBUG_VALUE: decode_slice:p_Vid <- [DW_OP_plus_uconst 16, DW_OP_deref] $rsp
	#DEBUG_VALUE: i <- $r8
	#DEBUG_VALUE: comp <- [DW_OP_consts 4, DW_OP_div, DW_OP_stack_value] $r13
	#DEBUG_VALUE: j <- $r11
	#DEBUG_VALUE: k <- 4
	cmpl	$2, %eax
	jne	.LBB3_84
.Ltmp214:
# %bb.64:                               # %if.then342.us.1.i
                                        #   in Loop: Header=BB3_85 Depth=3
	#DEBUG_VALUE: decode_slice:currSlice <- $r15
	#DEBUG_VALUE: decode_slice:current_header <- [DW_OP_plus_uconst 12] [$rsp+0]
	#DEBUG_VALUE: decode_slice:p_Vid <- [DW_OP_plus_uconst 16, DW_OP_deref] $rsp
	#DEBUG_VALUE: i <- $r8
	#DEBUG_VALUE: comp <- [DW_OP_consts 4, DW_OP_div, DW_OP_stack_value] $r13
	#DEBUG_VALUE: j <- $r11
	#DEBUG_VALUE: k <- 4
	.loc	0 499 77 is_stmt 1              # ldecod_src/image.c:499:77
	movq	296(%r15), %rax
	.loc	0 499 40 is_stmt 0              # ldecod_src/image.c:499:40
	movq	304(%r15), %rdx
	movq	(%rdx,%r11,8), %rbp
	.loc	0 499 71                        # ldecod_src/image.c:499:71
	movl	4(%rbp), %r14d
	.loc	0 499 77                        # ldecod_src/image.c:499:77
	movq	(%rax,%r8,8), %rdx
	.loc	0 499 108                       # ldecod_src/image.c:499:108
	movl	4(%rdx), %eax
.Ltmp215:
	.loc	0 500 24 is_stmt 1              # ldecod_src/image.c:500:24
	movl	%r14d, %ebx
	subl	%eax, %ebx
.Ltmp216:
	#DEBUG_VALUE: iClip3:x <- $ebx
	#DEBUG_VALUE: imax:a <- $ebx
	#DEBUG_VALUE: iClip3:low <- -128
	#DEBUG_VALUE: iClip3:high <- 127
	#DEBUG_VALUE: imax:b <- -128
	.loc	2 49 10                         # ldecod_src/inc/ifunctions.h:49:10
	cmpl	$-127, %ebx
	jl	.LBB3_65
.Ltmp217:
# %bb.66:                               # %if.then342.us.1.i
                                        #   in Loop: Header=BB3_85 Depth=3
	#DEBUG_VALUE: decode_slice:currSlice <- $r15
	#DEBUG_VALUE: decode_slice:current_header <- [DW_OP_plus_uconst 12] [$rsp+0]
	#DEBUG_VALUE: decode_slice:p_Vid <- [DW_OP_plus_uconst 16, DW_OP_deref] $rsp
	#DEBUG_VALUE: i <- $r8
	#DEBUG_VALUE: comp <- [DW_OP_consts 4, DW_OP_div, DW_OP_stack_value] $r13
	#DEBUG_VALUE: j <- $r11
	#DEBUG_VALUE: k <- 4
	#DEBUG_VALUE: iClip3:x <- $ebx
	#DEBUG_VALUE: iClip3:low <- -128
	#DEBUG_VALUE: iClip3:high <- 127
	#DEBUG_VALUE: iClip3:x <- $ebx
	#DEBUG_VALUE: imin:a <- $ebx
	#DEBUG_VALUE: imin:b <- 127
	.loc	2 44 10                         # ldecod_src/inc/ifunctions.h:44:10
	cmpl	$127, %ebx
	jge	.LBB3_67
.Ltmp218:
.LBB3_68:                               # %if.then342.us.1.i
                                        #   in Loop: Header=BB3_85 Depth=3
	#DEBUG_VALUE: decode_slice:currSlice <- $r15
	#DEBUG_VALUE: decode_slice:current_header <- [DW_OP_plus_uconst 12] [$rsp+0]
	#DEBUG_VALUE: decode_slice:p_Vid <- [DW_OP_plus_uconst 16, DW_OP_deref] $rsp
	#DEBUG_VALUE: i <- $r8
	#DEBUG_VALUE: comp <- [DW_OP_consts 4, DW_OP_div, DW_OP_stack_value] $r13
	#DEBUG_VALUE: j <- $r11
	#DEBUG_VALUE: k <- 4
	#DEBUG_VALUE: iClip3:x <- $ebx
	#DEBUG_VALUE: iClip3:low <- -128
	#DEBUG_VALUE: iClip3:high <- 127
	#DEBUG_VALUE: iClip3:x <- $ebx
	#DEBUG_VALUE: td <- $ebx
	.loc	0 500 24                        # ldecod_src/image.c:500:24
	cmpl	%eax, %r14d
	.loc	0 500 29 is_stmt 0              # ldecod_src/image.c:500:29
	jne	.LBB3_69
	jmp	.LBB3_81
.Ltmp219:
.LBB3_65:                               # %if.then342.us.1.i
                                        #   in Loop: Header=BB3_85 Depth=3
	#DEBUG_VALUE: decode_slice:currSlice <- $r15
	#DEBUG_VALUE: decode_slice:current_header <- [DW_OP_plus_uconst 12] [$rsp+0]
	#DEBUG_VALUE: decode_slice:p_Vid <- [DW_OP_plus_uconst 16, DW_OP_deref] $rsp
	#DEBUG_VALUE: i <- $r8
	#DEBUG_VALUE: comp <- [DW_OP_consts 4, DW_OP_div, DW_OP_stack_value] $r13
	#DEBUG_VALUE: j <- $r11
	#DEBUG_VALUE: k <- 4
	#DEBUG_VALUE: iClip3:x <- $ebx
	#DEBUG_VALUE: iClip3:low <- -128
	#DEBUG_VALUE: iClip3:high <- 127
	.loc	0 0 29                          # ldecod_src/image.c:0:29
	movl	$-128, %ebx
.Ltmp220:
	#DEBUG_VALUE: iClip3:x <- $ebx
	#DEBUG_VALUE: imin:a <- $ebx
	#DEBUG_VALUE: imin:b <- 127
	.loc	2 44 10 is_stmt 1               # ldecod_src/inc/ifunctions.h:44:10
	cmpl	$127, %ebx
	jl	.LBB3_68
.Ltmp221:
.LBB3_67:                               # %if.then342.us.1.i
                                        #   in Loop: Header=BB3_85 Depth=3
	#DEBUG_VALUE: decode_slice:currSlice <- $r15
	#DEBUG_VALUE: decode_slice:current_header <- [DW_OP_plus_uconst 12] [$rsp+0]
	#DEBUG_VALUE: decode_slice:p_Vid <- [DW_OP_plus_uconst 16, DW_OP_deref] $rsp
	#DEBUG_VALUE: i <- $r8
	#DEBUG_VALUE: comp <- [DW_OP_consts 4, DW_OP_div, DW_OP_stack_value] $r13
	#DEBUG_VALUE: j <- $r11
	#DEBUG_VALUE: k <- 4
	#DEBUG_VALUE: iClip3:x <- $ebx
	#DEBUG_VALUE: iClip3:low <- -128
	#DEBUG_VALUE: iClip3:high <- 127
	.loc	2 0 10 is_stmt 0                # ldecod_src/inc/ifunctions.h:0:10
	movl	$127, %ebx
	#DEBUG_VALUE: iClip3:x <- $ebx
.Ltmp222:
	#DEBUG_VALUE: td <- $ebx
	.loc	0 500 24 is_stmt 1              # ldecod_src/image.c:500:24
	cmpl	%eax, %r14d
	.loc	0 500 29 is_stmt 0              # ldecod_src/image.c:500:29
	je	.LBB3_81
.Ltmp223:
.LBB3_69:                               # %lor.lhs.false361.us.1.i
                                        #   in Loop: Header=BB3_85 Depth=3
	#DEBUG_VALUE: decode_slice:currSlice <- $r15
	#DEBUG_VALUE: decode_slice:current_header <- [DW_OP_plus_uconst 12] [$rsp+0]
	#DEBUG_VALUE: decode_slice:p_Vid <- [DW_OP_plus_uconst 16, DW_OP_deref] $rsp
	#DEBUG_VALUE: i <- $r8
	#DEBUG_VALUE: comp <- [DW_OP_consts 4, DW_OP_div, DW_OP_stack_value] $r13
	#DEBUG_VALUE: j <- $r11
	#DEBUG_VALUE: td <- $ebx
	#DEBUG_VALUE: k <- 4
	.loc	0 500 32                        # ldecod_src/image.c:500:32
	cmpb	$0, 40(%rbp)
	.loc	0 500 76                        # ldecod_src/image.c:500:76
	jne	.LBB3_81
.Ltmp224:
# %bb.70:                               # %lor.lhs.false371.us.1.i
                                        #   in Loop: Header=BB3_85 Depth=3
	#DEBUG_VALUE: decode_slice:currSlice <- $r15
	#DEBUG_VALUE: decode_slice:current_header <- [DW_OP_plus_uconst 12] [$rsp+0]
	#DEBUG_VALUE: decode_slice:p_Vid <- [DW_OP_plus_uconst 16, DW_OP_deref] $rsp
	#DEBUG_VALUE: i <- $r8
	#DEBUG_VALUE: comp <- [DW_OP_consts 4, DW_OP_div, DW_OP_stack_value] $r13
	#DEBUG_VALUE: j <- $r11
	#DEBUG_VALUE: td <- $ebx
	#DEBUG_VALUE: k <- 4
	.loc	0 500 79                        # ldecod_src/image.c:500:79
	cmpb	$0, 40(%rdx)
.Ltmp225:
	.loc	0 500 21                        # ldecod_src/image.c:500:21
	je	.LBB3_71
.Ltmp226:
	.p2align	4, 0x90
.LBB3_81:                               # %if.then381.us.1.i
                                        #   in Loop: Header=BB3_85 Depth=3
	#DEBUG_VALUE: decode_slice:currSlice <- $r15
	#DEBUG_VALUE: decode_slice:current_header <- [DW_OP_plus_uconst 12] [$rsp+0]
	#DEBUG_VALUE: decode_slice:p_Vid <- [DW_OP_plus_uconst 16, DW_OP_deref] $rsp
	#DEBUG_VALUE: i <- $r8
	#DEBUG_VALUE: comp <- [DW_OP_consts 4, DW_OP_div, DW_OP_stack_value] $r13
	#DEBUG_VALUE: j <- $r11
	#DEBUG_VALUE: td <- $ebx
	#DEBUG_VALUE: k <- 4
	.loc	0 502 30 is_stmt 1              # ldecod_src/image.c:502:30
	movq	13296(%r15), %rax
	.loc	0 502 19 is_stmt 0              # ldecod_src/image.c:502:19
	movq	32(%rax), %rax
	movq	(%rax,%r8,8), %rax
	movq	(%rax,%r11,8), %rax
	.loc	0 502 58                        # ldecod_src/image.c:502:58
	movl	$32, (%rax,%r13)
	.loc	0 503 30 is_stmt 1              # ldecod_src/image.c:503:30
	movq	13296(%r15), %rax
	movq	40(%rax), %rax
	.loc	0 503 19 is_stmt 0              # ldecod_src/image.c:503:19
	addq	%r10, %rax
	movl	$32, %edx
	.loc	0 504 17 is_stmt 1              # ldecod_src/image.c:504:17
	jmp	.LBB3_83
.Ltmp227:
.LBB3_49:                               # %if.else402.us.i
                                        #   in Loop: Header=BB3_85 Depth=3
	#DEBUG_VALUE: decode_slice:currSlice <- $r15
	#DEBUG_VALUE: decode_slice:current_header <- [DW_OP_plus_uconst 12] [$rsp+0]
	#DEBUG_VALUE: decode_slice:p_Vid <- [DW_OP_plus_uconst 16, DW_OP_deref] $rsp
	#DEBUG_VALUE: i <- $r8
	#DEBUG_VALUE: comp <- [DW_OP_consts 4, DW_OP_div, DW_OP_stack_value] $r13
	#DEBUG_VALUE: j <- $r11
	#DEBUG_VALUE: td <- $ebx
	#DEBUG_VALUE: k <- 2
	.loc	0 507 41                        # ldecod_src/image.c:507:41
	movl	68(%r15), %ebp
	.loc	0 507 88 is_stmt 0              # ldecod_src/image.c:507:88
	subl	%eax, %ebp
.Ltmp228:
	#DEBUG_VALUE: iClip3:x <- $ebp
	#DEBUG_VALUE: imax:a <- $ebp
	#DEBUG_VALUE: iClip3:low <- -128
	#DEBUG_VALUE: iClip3:high <- 127
	#DEBUG_VALUE: imax:b <- -128
	.loc	2 49 10 is_stmt 1               # ldecod_src/inc/ifunctions.h:49:10
	cmpl	$-127, %ebp
	jge	.LBB3_51
.Ltmp229:
# %bb.50:                               # %if.else402.us.i
                                        #   in Loop: Header=BB3_85 Depth=3
	#DEBUG_VALUE: decode_slice:currSlice <- $r15
	#DEBUG_VALUE: decode_slice:current_header <- [DW_OP_plus_uconst 12] [$rsp+0]
	#DEBUG_VALUE: decode_slice:p_Vid <- [DW_OP_plus_uconst 16, DW_OP_deref] $rsp
	#DEBUG_VALUE: i <- $r8
	#DEBUG_VALUE: comp <- [DW_OP_consts 4, DW_OP_div, DW_OP_stack_value] $r13
	#DEBUG_VALUE: j <- $r11
	#DEBUG_VALUE: td <- $ebx
	#DEBUG_VALUE: k <- 2
	#DEBUG_VALUE: iClip3:x <- $ebp
	#DEBUG_VALUE: imax:a <- $ebp
	#DEBUG_VALUE: iClip3:low <- -128
	#DEBUG_VALUE: iClip3:high <- 127
	#DEBUG_VALUE: imax:b <- -128
	.loc	2 0 10 is_stmt 0                # ldecod_src/inc/ifunctions.h:0:10
	movl	$-128, %ebp
.Ltmp230:
.LBB3_51:                               # %if.else402.us.i
                                        #   in Loop: Header=BB3_85 Depth=3
	#DEBUG_VALUE: decode_slice:currSlice <- $r15
	#DEBUG_VALUE: decode_slice:current_header <- [DW_OP_plus_uconst 12] [$rsp+0]
	#DEBUG_VALUE: decode_slice:p_Vid <- [DW_OP_plus_uconst 16, DW_OP_deref] $rsp
	#DEBUG_VALUE: i <- $r8
	#DEBUG_VALUE: comp <- [DW_OP_consts 4, DW_OP_div, DW_OP_stack_value] $r13
	#DEBUG_VALUE: j <- $r11
	#DEBUG_VALUE: td <- $ebx
	#DEBUG_VALUE: k <- 2
	#DEBUG_VALUE: iClip3:low <- -128
	#DEBUG_VALUE: iClip3:high <- 127
	#DEBUG_VALUE: iClip3:x <- $ebp
	#DEBUG_VALUE: imin:a <- $ebp
	#DEBUG_VALUE: imin:b <- 127
	.loc	2 44 10 is_stmt 1               # ldecod_src/inc/ifunctions.h:44:10
	cmpl	$127, %ebp
	jl	.LBB3_53
.Ltmp231:
# %bb.52:                               # %if.else402.us.i
                                        #   in Loop: Header=BB3_85 Depth=3
	#DEBUG_VALUE: decode_slice:currSlice <- $r15
	#DEBUG_VALUE: decode_slice:current_header <- [DW_OP_plus_uconst 12] [$rsp+0]
	#DEBUG_VALUE: decode_slice:p_Vid <- [DW_OP_plus_uconst 16, DW_OP_deref] $rsp
	#DEBUG_VALUE: i <- $r8
	#DEBUG_VALUE: comp <- [DW_OP_consts 4, DW_OP_div, DW_OP_stack_value] $r13
	#DEBUG_VALUE: j <- $r11
	#DEBUG_VALUE: td <- $ebx
	#DEBUG_VALUE: k <- 2
	#DEBUG_VALUE: iClip3:x <- $ebp
	#DEBUG_VALUE: iClip3:low <- -128
	#DEBUG_VALUE: iClip3:high <- 127
	#DEBUG_VALUE: imin:a <- $ebp
	#DEBUG_VALUE: imin:b <- 127
	.loc	2 0 10 is_stmt 0                # ldecod_src/inc/ifunctions.h:0:10
	movl	$127, %ebp
.Ltmp232:
.LBB3_53:                               # %if.else402.us.i
                                        #   in Loop: Header=BB3_85 Depth=3
	#DEBUG_VALUE: decode_slice:currSlice <- $r15
	#DEBUG_VALUE: decode_slice:current_header <- [DW_OP_plus_uconst 12] [$rsp+0]
	#DEBUG_VALUE: decode_slice:p_Vid <- [DW_OP_plus_uconst 16, DW_OP_deref] $rsp
	#DEBUG_VALUE: i <- $r8
	#DEBUG_VALUE: comp <- [DW_OP_consts 4, DW_OP_div, DW_OP_stack_value] $r13
	#DEBUG_VALUE: j <- $r11
	#DEBUG_VALUE: td <- $ebx
	#DEBUG_VALUE: k <- 2
	#DEBUG_VALUE: iClip3:low <- -128
	#DEBUG_VALUE: iClip3:high <- 127
	#DEBUG_VALUE: iClip3:x <- $ebp
	#DEBUG_VALUE: tb <- $ebp
	.loc	0 509 40 is_stmt 1              # ldecod_src/image.c:509:40
	movl	%ebx, %eax
	shrb	$7, %al
	addb	%bl, %al
	movl	%eax, %edx
	sarb	%dl
.Ltmp233:
	#DEBUG_VALUE: iabs:x <- [DW_OP_LLVM_convert 8 5, DW_OP_LLVM_convert 32 5, DW_OP_stack_value] $dl
	#DEBUG_VALUE: iabs:y <- [DW_OP_LLVM_convert 8 5, DW_OP_LLVM_convert 32 5, DW_OP_constu 31, DW_OP_shra, DW_OP_stack_value] $dl
	.loc	2 120 18                        # ldecod_src/inc/ifunctions.h:120:18
	sarb	$7, %al
	xorb	%al, %dl
.Ltmp234:
	subb	%al, %dl
	movzbl	%dl, %eax
.Ltmp235:
	.loc	0 509 31                        # ldecod_src/image.c:509:31
	orl	$16384, %eax                    # imm = 0x4000
                                        # kill: def $ax killed $ax killed $eax
	.loc	0 509 44 is_stmt 0              # ldecod_src/image.c:509:44
	xorl	%edx, %edx
	idivw	%bx
	cwtl
.Ltmp236:
	#DEBUG_VALUE: tx <- $eax
	.loc	0 510 60 is_stmt 1              # ldecod_src/image.c:510:60
	imull	%ebp, %eax
.Ltmp237:
	.loc	0 510 64 is_stmt 0              # ldecod_src/image.c:510:64
	addl	$32, %eax
	.loc	0 510 70                        # ldecod_src/image.c:510:70
	sarl	$6, %eax
.Ltmp238:
	#DEBUG_VALUE: iClip3:x <- $eax
	#DEBUG_VALUE: imax:a <- $eax
	#DEBUG_VALUE: iClip3:low <- -1024
	#DEBUG_VALUE: iClip3:high <- 1023
	#DEBUG_VALUE: imax:b <- -1024
	.loc	2 49 10 is_stmt 1               # ldecod_src/inc/ifunctions.h:49:10
	cmpl	$-1023, %eax                    # imm = 0xFC01
	jge	.LBB3_55
.Ltmp239:
# %bb.54:                               # %if.else402.us.i
                                        #   in Loop: Header=BB3_85 Depth=3
	#DEBUG_VALUE: decode_slice:currSlice <- $r15
	#DEBUG_VALUE: decode_slice:current_header <- [DW_OP_plus_uconst 12] [$rsp+0]
	#DEBUG_VALUE: decode_slice:p_Vid <- [DW_OP_plus_uconst 16, DW_OP_deref] $rsp
	#DEBUG_VALUE: i <- $r8
	#DEBUG_VALUE: comp <- [DW_OP_consts 4, DW_OP_div, DW_OP_stack_value] $r13
	#DEBUG_VALUE: j <- $r11
	#DEBUG_VALUE: td <- $ebx
	#DEBUG_VALUE: tb <- $ebp
	#DEBUG_VALUE: k <- 2
	#DEBUG_VALUE: iClip3:x <- $ebp
	#DEBUG_VALUE: iClip3:low <- -128
	#DEBUG_VALUE: iClip3:high <- 127
	#DEBUG_VALUE: iClip3:x <- $eax
	#DEBUG_VALUE: imax:a <- $eax
	#DEBUG_VALUE: iClip3:low <- -1024
	#DEBUG_VALUE: iClip3:high <- 1023
	#DEBUG_VALUE: imax:b <- -1024
	.loc	2 0 10 is_stmt 0                # ldecod_src/inc/ifunctions.h:0:10
	movl	$-1024, %eax                    # imm = 0xFC00
.Ltmp240:
.LBB3_55:                               # %if.else402.us.i
                                        #   in Loop: Header=BB3_85 Depth=3
	#DEBUG_VALUE: decode_slice:currSlice <- $r15
	#DEBUG_VALUE: decode_slice:current_header <- [DW_OP_plus_uconst 12] [$rsp+0]
	#DEBUG_VALUE: decode_slice:p_Vid <- [DW_OP_plus_uconst 16, DW_OP_deref] $rsp
	#DEBUG_VALUE: i <- $r8
	#DEBUG_VALUE: comp <- [DW_OP_consts 4, DW_OP_div, DW_OP_stack_value] $r13
	#DEBUG_VALUE: j <- $r11
	#DEBUG_VALUE: td <- $ebx
	#DEBUG_VALUE: tb <- $ebp
	#DEBUG_VALUE: k <- 2
	#DEBUG_VALUE: iClip3:low <- -1024
	#DEBUG_VALUE: iClip3:high <- 1023
	#DEBUG_VALUE: iClip3:x <- $eax
	#DEBUG_VALUE: imin:a <- $eax
	#DEBUG_VALUE: imin:b <- 1023
	.loc	2 44 10 is_stmt 1               # ldecod_src/inc/ifunctions.h:44:10
	cmpl	$1023, %eax                     # imm = 0x3FF
	jl	.LBB3_57
.Ltmp241:
# %bb.56:                               # %if.else402.us.i
                                        #   in Loop: Header=BB3_85 Depth=3
	#DEBUG_VALUE: decode_slice:currSlice <- $r15
	#DEBUG_VALUE: decode_slice:current_header <- [DW_OP_plus_uconst 12] [$rsp+0]
	#DEBUG_VALUE: decode_slice:p_Vid <- [DW_OP_plus_uconst 16, DW_OP_deref] $rsp
	#DEBUG_VALUE: i <- $r8
	#DEBUG_VALUE: comp <- [DW_OP_consts 4, DW_OP_div, DW_OP_stack_value] $r13
	#DEBUG_VALUE: j <- $r11
	#DEBUG_VALUE: td <- $ebx
	#DEBUG_VALUE: tb <- $ebp
	#DEBUG_VALUE: k <- 2
	#DEBUG_VALUE: iClip3:x <- $eax
	#DEBUG_VALUE: iClip3:low <- -1024
	#DEBUG_VALUE: iClip3:high <- 1023
	#DEBUG_VALUE: imin:a <- $eax
	#DEBUG_VALUE: imin:b <- 1023
	.loc	2 0 10 is_stmt 0                # ldecod_src/inc/ifunctions.h:0:10
	movl	$1023, %eax                     # imm = 0x3FF
.Ltmp242:
.LBB3_57:                               # %if.else402.us.i
                                        #   in Loop: Header=BB3_85 Depth=3
	#DEBUG_VALUE: decode_slice:currSlice <- $r15
	#DEBUG_VALUE: decode_slice:current_header <- [DW_OP_plus_uconst 12] [$rsp+0]
	#DEBUG_VALUE: decode_slice:p_Vid <- [DW_OP_plus_uconst 16, DW_OP_deref] $rsp
	#DEBUG_VALUE: i <- $r8
	#DEBUG_VALUE: comp <- [DW_OP_consts 4, DW_OP_div, DW_OP_stack_value] $r13
	#DEBUG_VALUE: j <- $r11
	#DEBUG_VALUE: td <- $ebx
	#DEBUG_VALUE: tb <- $ebp
	#DEBUG_VALUE: k <- 2
	#DEBUG_VALUE: iClip3:low <- -1024
	#DEBUG_VALUE: iClip3:high <- 1023
	#DEBUG_VALUE: iClip3:x <- $eax
	#DEBUG_VALUE: DistScaleFactor <- $eax
	.loc	0 512 76 is_stmt 1              # ldecod_src/image.c:512:76
	sarl	$2, %eax
.Ltmp243:
	.loc	0 512 30 is_stmt 0              # ldecod_src/image.c:512:30
	movq	13296(%r15), %rdx
	.loc	0 512 19                        # ldecod_src/image.c:512:19
	movq	24(%rdx), %rdx
	movq	(%rdx,%r8,8), %rdx
	movq	(%rdx,%r11,8), %rdx
	.loc	0 512 58                        # ldecod_src/image.c:512:58
	movl	%eax, (%rdx,%r13)
	.loc	0 513 76 is_stmt 1              # ldecod_src/image.c:513:76
	movq	13296(%r15), %rax
	.loc	0 513 19 is_stmt 0              # ldecod_src/image.c:513:19
	movq	16(%rax), %rdx
	.loc	0 513 65                        # ldecod_src/image.c:513:65
	movq	24(%rax), %rax
	movq	(%rax,%r8,8), %rax
	movq	(%rax,%r11,8), %rax
	.loc	0 513 63                        # ldecod_src/image.c:513:63
	movl	$64, %ebx
.Ltmp244:
	subl	(%rax,%r13), %ebx
	.loc	0 513 19                        # ldecod_src/image.c:513:19
	movq	(%rdx,%r8,8), %rax
	movq	(%rax,%r11,8), %rax
	.loc	0 513 58                        # ldecod_src/image.c:513:58
	movl	%ebx, (%rax,%r13)
.Ltmp245:
	.loc	0 514 34 is_stmt 1              # ldecod_src/image.c:514:34
	movq	13296(%r15), %rax
	.loc	0 514 23 is_stmt 0              # ldecod_src/image.c:514:23
	movq	24(%rax), %rax
	movq	(%rax,%r8,8), %rax
	movq	(%rax,%r11,8), %rax
	movl	(%rax,%r13), %edx
	.loc	0 514 68                        # ldecod_src/image.c:514:68
	addl	%ecx, %edx
	cmpl	$-194, %edx
	ja	.LBB3_62
.Ltmp246:
# %bb.58:                               # %if.then483.us.i
                                        #   in Loop: Header=BB3_85 Depth=3
	#DEBUG_VALUE: decode_slice:currSlice <- $r15
	#DEBUG_VALUE: decode_slice:current_header <- [DW_OP_plus_uconst 12] [$rsp+0]
	#DEBUG_VALUE: decode_slice:p_Vid <- [DW_OP_plus_uconst 16, DW_OP_deref] $rsp
	#DEBUG_VALUE: i <- $r8
	#DEBUG_VALUE: comp <- [DW_OP_consts 4, DW_OP_div, DW_OP_stack_value] $r13
	#DEBUG_VALUE: j <- $r11
	#DEBUG_VALUE: tb <- $ebp
	#DEBUG_VALUE: k <- 2
	.loc	0 516 60 is_stmt 1              # ldecod_src/image.c:516:60
	movl	$32, (%rax,%r13)
	.loc	0 517 32                        # ldecod_src/image.c:517:32
	movq	13296(%r15), %rax
	.loc	0 517 21 is_stmt 0              # ldecod_src/image.c:517:21
	movq	16(%rax), %rax
	movq	(%rax,%r8,8), %rax
	movq	(%rax,%r11,8), %rax
	.loc	0 517 60                        # ldecod_src/image.c:517:60
	movl	$32, (%rax,%r13)
	.loc	0 518 32 is_stmt 1              # ldecod_src/image.c:518:32
	movq	13288(%r15), %rax
	.loc	0 518 21 is_stmt 0              # ldecod_src/image.c:518:21
	movq	16(%rax), %rax
	movq	(%rax,%r8,8), %rax
	.loc	0 518 56                        # ldecod_src/image.c:518:56
	movl	$0, (%rax,%r13)
	.loc	0 519 32 is_stmt 1              # ldecod_src/image.c:519:32
	movq	13288(%r15), %rax
	.loc	0 519 21 is_stmt 0              # ldecod_src/image.c:519:21
	addq	$24, %rax
	xorl	%edx, %edx
	.loc	0 520 19 is_stmt 1              # ldecod_src/image.c:520:19
	jmp	.LBB3_61
.Ltmp247:
.LBB3_71:                               # %if.else402.us.1.i
                                        #   in Loop: Header=BB3_85 Depth=3
	#DEBUG_VALUE: decode_slice:currSlice <- $r15
	#DEBUG_VALUE: decode_slice:current_header <- [DW_OP_plus_uconst 12] [$rsp+0]
	#DEBUG_VALUE: decode_slice:p_Vid <- [DW_OP_plus_uconst 16, DW_OP_deref] $rsp
	#DEBUG_VALUE: i <- $r8
	#DEBUG_VALUE: comp <- [DW_OP_consts 4, DW_OP_div, DW_OP_stack_value] $r13
	#DEBUG_VALUE: j <- $r11
	#DEBUG_VALUE: td <- $ebx
	#DEBUG_VALUE: k <- 4
	.loc	0 507 41                        # ldecod_src/image.c:507:41
	movl	72(%r15), %ebp
	.loc	0 507 88 is_stmt 0              # ldecod_src/image.c:507:88
	subl	%eax, %ebp
.Ltmp248:
	#DEBUG_VALUE: iClip3:x <- $ebp
	#DEBUG_VALUE: imax:a <- $ebp
	#DEBUG_VALUE: iClip3:low <- -128
	#DEBUG_VALUE: iClip3:high <- 127
	#DEBUG_VALUE: imax:b <- -128
	.loc	2 49 10 is_stmt 1               # ldecod_src/inc/ifunctions.h:49:10
	cmpl	$-127, %ebp
	jge	.LBB3_73
.Ltmp249:
# %bb.72:                               # %if.else402.us.1.i
                                        #   in Loop: Header=BB3_85 Depth=3
	#DEBUG_VALUE: decode_slice:currSlice <- $r15
	#DEBUG_VALUE: decode_slice:current_header <- [DW_OP_plus_uconst 12] [$rsp+0]
	#DEBUG_VALUE: decode_slice:p_Vid <- [DW_OP_plus_uconst 16, DW_OP_deref] $rsp
	#DEBUG_VALUE: i <- $r8
	#DEBUG_VALUE: comp <- [DW_OP_consts 4, DW_OP_div, DW_OP_stack_value] $r13
	#DEBUG_VALUE: j <- $r11
	#DEBUG_VALUE: td <- $ebx
	#DEBUG_VALUE: k <- 4
	#DEBUG_VALUE: iClip3:x <- $ebp
	#DEBUG_VALUE: imax:a <- $ebp
	#DEBUG_VALUE: iClip3:low <- -128
	#DEBUG_VALUE: iClip3:high <- 127
	#DEBUG_VALUE: imax:b <- -128
	.loc	2 0 10 is_stmt 0                # ldecod_src/inc/ifunctions.h:0:10
	movl	$-128, %ebp
.Ltmp250:
.LBB3_73:                               # %if.else402.us.1.i
                                        #   in Loop: Header=BB3_85 Depth=3
	#DEBUG_VALUE: decode_slice:currSlice <- $r15
	#DEBUG_VALUE: decode_slice:current_header <- [DW_OP_plus_uconst 12] [$rsp+0]
	#DEBUG_VALUE: decode_slice:p_Vid <- [DW_OP_plus_uconst 16, DW_OP_deref] $rsp
	#DEBUG_VALUE: i <- $r8
	#DEBUG_VALUE: comp <- [DW_OP_consts 4, DW_OP_div, DW_OP_stack_value] $r13
	#DEBUG_VALUE: j <- $r11
	#DEBUG_VALUE: td <- $ebx
	#DEBUG_VALUE: k <- 4
	#DEBUG_VALUE: iClip3:low <- -128
	#DEBUG_VALUE: iClip3:high <- 127
	#DEBUG_VALUE: iClip3:x <- $ebp
	#DEBUG_VALUE: imin:a <- $ebp
	#DEBUG_VALUE: imin:b <- 127
	.loc	2 44 10 is_stmt 1               # ldecod_src/inc/ifunctions.h:44:10
	cmpl	$127, %ebp
	jl	.LBB3_75
.Ltmp251:
# %bb.74:                               # %if.else402.us.1.i
                                        #   in Loop: Header=BB3_85 Depth=3
	#DEBUG_VALUE: decode_slice:currSlice <- $r15
	#DEBUG_VALUE: decode_slice:current_header <- [DW_OP_plus_uconst 12] [$rsp+0]
	#DEBUG_VALUE: decode_slice:p_Vid <- [DW_OP_plus_uconst 16, DW_OP_deref] $rsp
	#DEBUG_VALUE: i <- $r8
	#DEBUG_VALUE: comp <- [DW_OP_consts 4, DW_OP_div, DW_OP_stack_value] $r13
	#DEBUG_VALUE: j <- $r11
	#DEBUG_VALUE: td <- $ebx
	#DEBUG_VALUE: k <- 4
	#DEBUG_VALUE: iClip3:x <- $ebp
	#DEBUG_VALUE: iClip3:low <- -128
	#DEBUG_VALUE: iClip3:high <- 127
	#DEBUG_VALUE: imin:a <- $ebp
	#DEBUG_VALUE: imin:b <- 127
	.loc	2 0 10 is_stmt 0                # ldecod_src/inc/ifunctions.h:0:10
	movl	$127, %ebp
.Ltmp252:
.LBB3_75:                               # %if.else402.us.1.i
                                        #   in Loop: Header=BB3_85 Depth=3
	#DEBUG_VALUE: decode_slice:currSlice <- $r15
	#DEBUG_VALUE: decode_slice:current_header <- [DW_OP_plus_uconst 12] [$rsp+0]
	#DEBUG_VALUE: decode_slice:p_Vid <- [DW_OP_plus_uconst 16, DW_OP_deref] $rsp
	#DEBUG_VALUE: i <- $r8
	#DEBUG_VALUE: comp <- [DW_OP_consts 4, DW_OP_div, DW_OP_stack_value] $r13
	#DEBUG_VALUE: j <- $r11
	#DEBUG_VALUE: td <- $ebx
	#DEBUG_VALUE: k <- 4
	#DEBUG_VALUE: iClip3:low <- -128
	#DEBUG_VALUE: iClip3:high <- 127
	#DEBUG_VALUE: iClip3:x <- $ebp
	#DEBUG_VALUE: tb <- $ebp
	.loc	0 509 40 is_stmt 1              # ldecod_src/image.c:509:40
	movl	%ebx, %eax
	shrb	$7, %al
	addb	%bl, %al
	movl	%eax, %edx
	sarb	%dl
.Ltmp253:
	#DEBUG_VALUE: iabs:x <- [DW_OP_LLVM_convert 8 5, DW_OP_LLVM_convert 32 5, DW_OP_stack_value] $dl
	#DEBUG_VALUE: iabs:y <- [DW_OP_LLVM_convert 8 5, DW_OP_LLVM_convert 32 5, DW_OP_constu 31, DW_OP_shra, DW_OP_stack_value] $dl
	.loc	2 120 18                        # ldecod_src/inc/ifunctions.h:120:18
	sarb	$7, %al
	xorb	%al, %dl
.Ltmp254:
	subb	%al, %dl
	movzbl	%dl, %eax
.Ltmp255:
	.loc	0 509 31                        # ldecod_src/image.c:509:31
	orl	$16384, %eax                    # imm = 0x4000
                                        # kill: def $ax killed $ax killed $eax
	.loc	0 509 44 is_stmt 0              # ldecod_src/image.c:509:44
	xorl	%edx, %edx
	idivw	%bx
	cwtl
.Ltmp256:
	#DEBUG_VALUE: tx <- $eax
	.loc	0 510 60 is_stmt 1              # ldecod_src/image.c:510:60
	imull	%ebp, %eax
.Ltmp257:
	.loc	0 510 64 is_stmt 0              # ldecod_src/image.c:510:64
	addl	$32, %eax
	.loc	0 510 70                        # ldecod_src/image.c:510:70
	sarl	$6, %eax
.Ltmp258:
	#DEBUG_VALUE: iClip3:x <- $eax
	#DEBUG_VALUE: imax:a <- $eax
	#DEBUG_VALUE: iClip3:low <- -1024
	#DEBUG_VALUE: iClip3:high <- 1023
	#DEBUG_VALUE: imax:b <- -1024
	.loc	2 49 10 is_stmt 1               # ldecod_src/inc/ifunctions.h:49:10
	cmpl	$-1023, %eax                    # imm = 0xFC01
	jge	.LBB3_77
.Ltmp259:
# %bb.76:                               # %if.else402.us.1.i
                                        #   in Loop: Header=BB3_85 Depth=3
	#DEBUG_VALUE: decode_slice:currSlice <- $r15
	#DEBUG_VALUE: decode_slice:current_header <- [DW_OP_plus_uconst 12] [$rsp+0]
	#DEBUG_VALUE: decode_slice:p_Vid <- [DW_OP_plus_uconst 16, DW_OP_deref] $rsp
	#DEBUG_VALUE: i <- $r8
	#DEBUG_VALUE: comp <- [DW_OP_consts 4, DW_OP_div, DW_OP_stack_value] $r13
	#DEBUG_VALUE: j <- $r11
	#DEBUG_VALUE: td <- $ebx
	#DEBUG_VALUE: tb <- $ebp
	#DEBUG_VALUE: k <- 4
	#DEBUG_VALUE: iClip3:x <- $ebp
	#DEBUG_VALUE: iClip3:low <- -128
	#DEBUG_VALUE: iClip3:high <- 127
	#DEBUG_VALUE: iClip3:x <- $eax
	#DEBUG_VALUE: imax:a <- $eax
	#DEBUG_VALUE: iClip3:low <- -1024
	#DEBUG_VALUE: iClip3:high <- 1023
	#DEBUG_VALUE: imax:b <- -1024
	.loc	2 0 10 is_stmt 0                # ldecod_src/inc/ifunctions.h:0:10
	movl	$-1024, %eax                    # imm = 0xFC00
.Ltmp260:
.LBB3_77:                               # %if.else402.us.1.i
                                        #   in Loop: Header=BB3_85 Depth=3
	#DEBUG_VALUE: decode_slice:currSlice <- $r15
	#DEBUG_VALUE: decode_slice:current_header <- [DW_OP_plus_uconst 12] [$rsp+0]
	#DEBUG_VALUE: decode_slice:p_Vid <- [DW_OP_plus_uconst 16, DW_OP_deref] $rsp
	#DEBUG_VALUE: i <- $r8
	#DEBUG_VALUE: comp <- [DW_OP_consts 4, DW_OP_div, DW_OP_stack_value] $r13
	#DEBUG_VALUE: j <- $r11
	#DEBUG_VALUE: td <- $ebx
	#DEBUG_VALUE: tb <- $ebp
	#DEBUG_VALUE: k <- 4
	#DEBUG_VALUE: iClip3:low <- -1024
	#DEBUG_VALUE: iClip3:high <- 1023
	#DEBUG_VALUE: iClip3:x <- $eax
	#DEBUG_VALUE: imin:a <- $eax
	#DEBUG_VALUE: imin:b <- 1023
	.loc	2 44 10 is_stmt 1               # ldecod_src/inc/ifunctions.h:44:10
	cmpl	$1023, %eax                     # imm = 0x3FF
	jl	.LBB3_79
.Ltmp261:
# %bb.78:                               # %if.else402.us.1.i
                                        #   in Loop: Header=BB3_85 Depth=3
	#DEBUG_VALUE: decode_slice:currSlice <- $r15
	#DEBUG_VALUE: decode_slice:current_header <- [DW_OP_plus_uconst 12] [$rsp+0]
	#DEBUG_VALUE: decode_slice:p_Vid <- [DW_OP_plus_uconst 16, DW_OP_deref] $rsp
	#DEBUG_VALUE: i <- $r8
	#DEBUG_VALUE: comp <- [DW_OP_consts 4, DW_OP_div, DW_OP_stack_value] $r13
	#DEBUG_VALUE: j <- $r11
	#DEBUG_VALUE: td <- $ebx
	#DEBUG_VALUE: tb <- $ebp
	#DEBUG_VALUE: k <- 4
	#DEBUG_VALUE: iClip3:x <- $eax
	#DEBUG_VALUE: iClip3:low <- -1024
	#DEBUG_VALUE: iClip3:high <- 1023
	#DEBUG_VALUE: imin:a <- $eax
	#DEBUG_VALUE: imin:b <- 1023
	.loc	2 0 10 is_stmt 0                # ldecod_src/inc/ifunctions.h:0:10
	movl	$1023, %eax                     # imm = 0x3FF
.Ltmp262:
.LBB3_79:                               # %if.else402.us.1.i
                                        #   in Loop: Header=BB3_85 Depth=3
	#DEBUG_VALUE: decode_slice:currSlice <- $r15
	#DEBUG_VALUE: decode_slice:current_header <- [DW_OP_plus_uconst 12] [$rsp+0]
	#DEBUG_VALUE: decode_slice:p_Vid <- [DW_OP_plus_uconst 16, DW_OP_deref] $rsp
	#DEBUG_VALUE: i <- $r8
	#DEBUG_VALUE: comp <- [DW_OP_consts 4, DW_OP_div, DW_OP_stack_value] $r13
	#DEBUG_VALUE: j <- $r11
	#DEBUG_VALUE: td <- $ebx
	#DEBUG_VALUE: tb <- $ebp
	#DEBUG_VALUE: k <- 4
	#DEBUG_VALUE: iClip3:low <- -1024
	#DEBUG_VALUE: iClip3:high <- 1023
	#DEBUG_VALUE: iClip3:x <- $eax
	#DEBUG_VALUE: DistScaleFactor <- $eax
	.loc	0 512 76 is_stmt 1              # ldecod_src/image.c:512:76
	sarl	$2, %eax
.Ltmp263:
	.loc	0 512 30 is_stmt 0              # ldecod_src/image.c:512:30
	movq	13296(%r15), %rdx
	.loc	0 512 19                        # ldecod_src/image.c:512:19
	movq	40(%rdx), %rdx
	movq	(%rdx,%r8,8), %rdx
	movq	(%rdx,%r11,8), %rdx
	.loc	0 512 58                        # ldecod_src/image.c:512:58
	movl	%eax, (%rdx,%r13)
	.loc	0 513 76 is_stmt 1              # ldecod_src/image.c:513:76
	movq	13296(%r15), %rax
	.loc	0 513 19 is_stmt 0              # ldecod_src/image.c:513:19
	movq	32(%rax), %rdx
	.loc	0 513 65                        # ldecod_src/image.c:513:65
	movq	40(%rax), %rax
	movq	(%rax,%r8,8), %rax
	movq	(%rax,%r11,8), %rax
	.loc	0 513 63                        # ldecod_src/image.c:513:63
	movl	$64, %ebx
.Ltmp264:
	subl	(%rax,%r13), %ebx
	.loc	0 513 19                        # ldecod_src/image.c:513:19
	movq	(%rdx,%r8,8), %rax
	movq	(%rax,%r11,8), %rax
	.loc	0 513 58                        # ldecod_src/image.c:513:58
	movl	%ebx, (%rax,%r13)
.Ltmp265:
	.loc	0 514 34 is_stmt 1              # ldecod_src/image.c:514:34
	movq	13296(%r15), %rax
	.loc	0 514 23 is_stmt 0              # ldecod_src/image.c:514:23
	movq	40(%rax), %rax
	movq	(%rax,%r8,8), %rax
	movq	(%rax,%r11,8), %rax
	movl	(%rax,%r13), %edx
	.loc	0 514 68                        # ldecod_src/image.c:514:68
	addl	%ecx, %edx
	cmpl	$-194, %edx
	ja	.LBB3_84
.Ltmp266:
# %bb.80:                               # %if.then483.us.1.i
                                        #   in Loop: Header=BB3_85 Depth=3
	#DEBUG_VALUE: decode_slice:currSlice <- $r15
	#DEBUG_VALUE: decode_slice:current_header <- [DW_OP_plus_uconst 12] [$rsp+0]
	#DEBUG_VALUE: decode_slice:p_Vid <- [DW_OP_plus_uconst 16, DW_OP_deref] $rsp
	#DEBUG_VALUE: i <- $r8
	#DEBUG_VALUE: comp <- [DW_OP_consts 4, DW_OP_div, DW_OP_stack_value] $r13
	#DEBUG_VALUE: j <- $r11
	#DEBUG_VALUE: tb <- $ebp
	#DEBUG_VALUE: k <- 4
	.loc	0 516 60 is_stmt 1              # ldecod_src/image.c:516:60
	movl	$32, (%rax,%r13)
	.loc	0 517 32                        # ldecod_src/image.c:517:32
	movq	13296(%r15), %rax
	.loc	0 517 21 is_stmt 0              # ldecod_src/image.c:517:21
	movq	32(%rax), %rax
	movq	(%rax,%r8,8), %rax
	movq	(%rax,%r11,8), %rax
	.loc	0 517 60                        # ldecod_src/image.c:517:60
	movl	$32, (%rax,%r13)
	.loc	0 518 32 is_stmt 1              # ldecod_src/image.c:518:32
	movq	13288(%r15), %rax
	.loc	0 518 21 is_stmt 0              # ldecod_src/image.c:518:21
	movq	32(%rax), %rax
	movq	(%rax,%r8,8), %rax
	.loc	0 518 56                        # ldecod_src/image.c:518:56
	movl	$0, (%rax,%r13)
	.loc	0 519 32 is_stmt 1              # ldecod_src/image.c:519:32
	movq	13288(%r15), %rax
	.loc	0 519 21 is_stmt 0              # ldecod_src/image.c:519:21
	addq	$40, %rax
	xorl	%edx, %edx
	.loc	0 520 19 is_stmt 1              # ldecod_src/image.c:520:19
	jmp	.LBB3_83
.Ltmp267:
.LBB3_90:                               # %if.end10
	#DEBUG_VALUE: decode_slice:currSlice <- $r15
	#DEBUG_VALUE: decode_slice:current_header <- [DW_OP_plus_uconst 12] [$rsp+0]
	#DEBUG_VALUE: decode_slice:p_Vid <- [DW_OP_plus_uconst 16, DW_OP_deref] $rsp
	.loc	0 0 19 is_stmt 0                # ldecod_src/image.c:0:19
	movl	12(%rsp), %eax                  # 4-byte Reload
.Ltmp268:
	.loc	0 682 30 is_stmt 1              # ldecod_src/image.c:682:30
	andl	$-2, %eax
	cmpl	$2, %eax
	jne	.LBB3_93
.Ltmp269:
# %bb.91:                               # %land.lhs.true14
	#DEBUG_VALUE: decode_slice:currSlice <- $r15
	#DEBUG_VALUE: decode_slice:current_header <- [DW_OP_plus_uconst 12] [$rsp+0]
	#DEBUG_VALUE: decode_slice:p_Vid <- [DW_OP_plus_uconst 16, DW_OP_deref] $rsp
	.loc	0 682 78 is_stmt 0              # ldecod_src/image.c:682:78
	cmpl	$0, 144(%r15)
.Ltmp270:
	.loc	0 682 7                         # ldecod_src/image.c:682:7
	je	.LBB3_92
.Ltmp271:
.LBB3_93:                               # %if.end17
	#DEBUG_VALUE: decode_slice:currSlice <- $r15
	#DEBUG_VALUE: decode_slice:current_header <- [DW_OP_plus_uconst 12] [$rsp+0]
	#DEBUG_VALUE: decode_slice:p_Vid <- [DW_OP_plus_uconst 16, DW_OP_deref] $rsp
	.loc	0 0 7                           # ldecod_src/image.c:0:7
	movq	16(%rsp), %r14                  # 8-byte Reload
.Ltmp272:
	.loc	0 690 6 is_stmt 1               # ldecod_src/image.c:690:6
	cmpl	$0, 856824(%r14)
	.loc	0 690 26 is_stmt 0              # ldecod_src/image.c:690:26
	je	.LBB3_98
.Ltmp273:
.LBB3_94:                               # %land.lhs.true19
	#DEBUG_VALUE: decode_slice:currSlice <- $r15
	#DEBUG_VALUE: decode_slice:current_header <- [DW_OP_plus_uconst 12] [$rsp+0]
	#DEBUG_VALUE: decode_slice:p_Vid <- [DW_OP_plus_uconst 16, DW_OP_deref] $rsp
	.loc	0 690 37                        # ldecod_src/image.c:690:37
	movl	856856(%r14), %eax
	.loc	0 690 66                        # ldecod_src/image.c:690:66
	movq	856456(%r14), %rcx
	.loc	0 690 52                        # ldecod_src/image.c:690:52
	movl	44(%rcx), %ecx
	btl	%ecx, %eax
.Ltmp274:
	.loc	0 690 6                         # ldecod_src/image.c:690:6
	jae	.LBB3_98
.Ltmp275:
# %bb.95:                               # %if.then21
	#DEBUG_VALUE: decode_slice:currSlice <- $r15
	#DEBUG_VALUE: decode_slice:current_header <- [DW_OP_plus_uconst 12] [$rsp+0]
	#DEBUG_VALUE: decode_slice:p_Vid <- [DW_OP_plus_uconst 16, DW_OP_deref] $rsp
	.loc	0 0 6                           # ldecod_src/image.c:0:6
	movl	8(%rsp), %ecx                   # 4-byte Reload
	incl	%ecx
.Ltmp276:
	#DEBUG_VALUE: decode_slice:iScale <- $ecx
	.loc	0 692 43 is_stmt 1              # ldecod_src/image.c:692:43
	cmpl	$0, 849280(%r14)
.Ltmp277:
	.loc	0 692 8 is_stmt 0               # ldecod_src/image.c:692:8
	je	.LBB3_97
.Ltmp278:
# %bb.96:                               # %if.then23
	#DEBUG_VALUE: decode_slice:currSlice <- $r15
	#DEBUG_VALUE: decode_slice:current_header <- [DW_OP_plus_uconst 12] [$rsp+0]
	#DEBUG_VALUE: decode_slice:p_Vid <- [DW_OP_plus_uconst 16, DW_OP_deref] $rsp
	#DEBUG_VALUE: decode_slice:iScale <- $ecx
	.loc	0 694 41 is_stmt 1              # ldecod_src/image.c:694:41
	movl	216(%r15), %esi
	.loc	0 694 7 is_stmt 0               # ldecod_src/image.c:694:7
	movq	%r14, %rdi
	movq	%r15, %rdx
	movl	%ecx, %ebx
.Ltmp279:
	#DEBUG_VALUE: decode_slice:iScale <- $ebx
	callq	change_plane_JV@PLT
.Ltmp280:
	.loc	0 0 7                           # ldecod_src/image.c:0:7
	movl	%ebx, %ecx
.Ltmp281:
.LBB3_97:                               # %if.end32.sink.split
	#DEBUG_VALUE: decode_slice:currSlice <- $r15
	#DEBUG_VALUE: decode_slice:current_header <- [DW_OP_plus_uconst 12] [$rsp+0]
	#DEBUG_VALUE: decode_slice:p_Vid <- [DW_OP_plus_uconst 16, DW_OP_deref] $rsp
	movq	13520(%r15), %rsi
	movl	188(%r15), %edx
	imull	%ecx, %edx
	imull	192(%r15), %ecx
	movq	%r14, %rdi
	addq	$24, %rsp
	.cfi_def_cfa_offset 56
	popq	%rbx
	.cfi_def_cfa_offset 48
	popq	%r12
	.cfi_def_cfa_offset 40
	popq	%r13
	.cfi_def_cfa_offset 32
	popq	%r14
	.cfi_def_cfa_offset 24
	popq	%r15
.Ltmp282:
	#DEBUG_VALUE: decode_slice:currSlice <- [DW_OP_LLVM_entry_value 1] $rdi
	.cfi_def_cfa_offset 16
	popq	%rbp
	.cfi_def_cfa_offset 8
.Ltmp283:
	jmp	DeblockPicturePartially@PLT     # TAILCALL
.Ltmp284:
.LBB3_92:                               # %if.then16
	.cfi_def_cfa_offset 80
	#DEBUG_VALUE: decode_slice:currSlice <- $r15
	#DEBUG_VALUE: decode_slice:current_header <- [DW_OP_plus_uconst 12] [$rsp+0]
	#DEBUG_VALUE: decode_slice:p_Vid <- [DW_OP_plus_uconst 16, DW_OP_deref] $rsp
	.loc	0 683 5 is_stmt 1               # ldecod_src/image.c:683:5
	movq	%r15, %rdi
	callq	decode_one_slice
.Ltmp285:
	.loc	0 0 5 is_stmt 0                 # ldecod_src/image.c:0:5
	movq	16(%rsp), %r14                  # 8-byte Reload
.Ltmp286:
	.loc	0 690 6 is_stmt 1               # ldecod_src/image.c:690:6
	cmpl	$0, 856824(%r14)
	.loc	0 690 26 is_stmt 0              # ldecod_src/image.c:690:26
	jne	.LBB3_94
.Ltmp287:
.LBB3_98:                               # %if.end32
	#DEBUG_VALUE: decode_slice:currSlice <- $r15
	#DEBUG_VALUE: decode_slice:current_header <- [DW_OP_plus_uconst 12] [$rsp+0]
	#DEBUG_VALUE: decode_slice:p_Vid <- [DW_OP_plus_uconst 16, DW_OP_deref] $rsp
	.loc	0 702 1 epilogue_begin is_stmt 1 # ldecod_src/image.c:702:1
	addq	$24, %rsp
	.cfi_def_cfa_offset 56
	popq	%rbx
	.cfi_def_cfa_offset 48
	popq	%r12
	.cfi_def_cfa_offset 40
	popq	%r13
	.cfi_def_cfa_offset 32
	popq	%r14
	.cfi_def_cfa_offset 24
	popq	%r15
.Ltmp288:
	#DEBUG_VALUE: decode_slice:currSlice <- [DW_OP_LLVM_entry_value 1] $rdi
	.cfi_def_cfa_offset 16
	popq	%rbp
	.cfi_def_cfa_offset 8
	retq
.Ltmp289:
.Lfunc_end3:
	.size	decode_slice, .Lfunc_end3-decode_slice
	.cfi_endproc
	.file	22 "ldecod_src/inc" "context_ini.h" md5 0x043b5677fcca41f3f0b6009753884389
	.file	23 "ldecod_src/inc" "cabac.h" md5 0x614ec2d2e454a50d0f312606889331d5
	.file	24 "ldecod_src/inc" "loopfilter.h" md5 0x72ecf38d4e8d863c5f1c28636ba4d049
                                        # -- End function
	.globl	decode_one_slice                # -- Begin function decode_one_slice
	.p2align	4, 0x90
	.type	decode_one_slice,@function
decode_one_slice:                       # @decode_one_slice
.Lfunc_begin4:
	.loc	0 2412 0                        # ldecod_src/image.c:2412:0
	.cfi_startproc
# %bb.0:                                # %entry
	#DEBUG_VALUE: decode_one_slice:currSlice <- $rdi
	pushq	%r14
	.cfi_def_cfa_offset 16
	pushq	%rbx
	.cfi_def_cfa_offset 24
	pushq	%rax
	.cfi_def_cfa_offset 32
	.cfi_offset %rbx, -24
	.cfi_offset %r14, -16
	movq	%rdi, %rbx
.Ltmp290:
	.loc	0 2413 39 prologue_end          # ldecod_src/image.c:2413:39
	movq	(%rdi), %r14
.Ltmp291:
	#DEBUG_VALUE: decode_one_slice:p_Vid <- $r14
	#DEBUG_VALUE: decode_one_slice:end_of_slice <- 0
	.loc	0 2415 15                       # ldecod_src/image.c:2415:15
	movq	$0, (%rsp)
	.loc	0 2416 25                       # ldecod_src/image.c:2416:25
	movl	$-1, 120(%rdi)
.Ltmp292:
	.loc	0 2418 42                       # ldecod_src/image.c:2418:42
	cmpl	$0, 849280(%r14)
.Ltmp293:
	.loc	0 2418 7 is_stmt 0              # ldecod_src/image.c:2418:7
	je	.LBB4_2
.Ltmp294:
# %bb.1:                                # %if.then
	#DEBUG_VALUE: decode_one_slice:currSlice <- $rbx
	#DEBUG_VALUE: decode_one_slice:p_Vid <- $r14
	#DEBUG_VALUE: decode_one_slice:end_of_slice <- 0
	.loc	0 2420 40 is_stmt 1             # ldecod_src/image.c:2420:40
	movl	216(%rbx), %esi
	.loc	0 2420 5 is_stmt 0              # ldecod_src/image.c:2420:5
	movq	%r14, %rdi
	movq	%rbx, %rdx
	callq	change_plane_JV@PLT
.Ltmp295:
	.loc	0 2431 18 is_stmt 1             # ldecod_src/image.c:2431:18
	movl	164(%rbx), %esi
	.loc	0 2431 29 is_stmt 0             # ldecod_src/image.c:2431:29
	cmpl	$1, %esi
.Ltmp296:
	.loc	0 2431 7                        # ldecod_src/image.c:2431:7
	jne	.LBB4_5
.Ltmp297:
.LBB4_4:                                # %if.then8
	#DEBUG_VALUE: decode_one_slice:currSlice <- $rbx
	#DEBUG_VALUE: decode_one_slice:p_Vid <- $r14
	#DEBUG_VALUE: decode_one_slice:end_of_slice <- 0
	.loc	0 2433 45 is_stmt 1             # ldecod_src/image.c:2433:45
	leaq	264(%rbx), %rsi
	.loc	0 2433 5 is_stmt 0              # ldecod_src/image.c:2433:5
	movq	%rbx, %rdi
	callq	compute_colocated@PLT
.Ltmp298:
	.loc	0 2436 18 is_stmt 1             # ldecod_src/image.c:2436:18
	movl	164(%rbx), %esi
.Ltmp299:
.LBB4_5:                                # %if.end9
	#DEBUG_VALUE: decode_one_slice:currSlice <- $rbx
	#DEBUG_VALUE: decode_one_slice:p_Vid <- $r14
	#DEBUG_VALUE: decode_one_slice:end_of_slice <- 0
	.loc	0 2436 40 is_stmt 0             # ldecod_src/image.c:2436:40
	cmpl	$2, %esi
	je	.LBB4_60
.Ltmp300:
# %bb.6:                                # %if.end9
	#DEBUG_VALUE: decode_one_slice:currSlice <- $rbx
	#DEBUG_VALUE: decode_one_slice:p_Vid <- $r14
	#DEBUG_VALUE: decode_one_slice:end_of_slice <- 0
	cmpl	$4, %esi
	je	.LBB4_60
.Ltmp301:
# %bb.7:                                # %if.then14
	#DEBUG_VALUE: decode_one_slice:currSlice <- $rbx
	#DEBUG_VALUE: decode_one_slice:p_Vid <- $r14
	#DEBUG_VALUE: decode_one_slice:end_of_slice <- 0
	#DEBUG_VALUE: init_cur_imgy:currSlice <- $rbx
	#DEBUG_VALUE: init_cur_imgy:p_Vid <- $r14
	.loc	0 2338 42 is_stmt 1             # ldecod_src/image.c:2338:42
	cmpl	$0, 849280(%r14)
	.loc	0 0 0 is_stmt 0                 # ldecod_src/image.c:0:0
	movq	856488(%r14), %rax
	movl	76(%rbx), %ecx
	movl	849276(%r14), %edx
.Ltmp302:
	.loc	0 2338 7                        # ldecod_src/image.c:2338:7
	je	.LBB4_51
.Ltmp303:
# %bb.8:                                # %if.then.i
	#DEBUG_VALUE: decode_one_slice:currSlice <- $rbx
	#DEBUG_VALUE: decode_one_slice:p_Vid <- $r14
	#DEBUG_VALUE: decode_one_slice:end_of_slice <- 0
	#DEBUG_VALUE: init_cur_imgy:currSlice <- $rbx
	#DEBUG_VALUE: init_cur_imgy:p_Vid <- $r14
	#DEBUG_VALUE: vidref <- $rax
	#DEBUG_VALUE: noref <- undef
	.loc	0 2341 5 is_stmt 1              # ldecod_src/image.c:2341:5
	cmpl	$0, 216(%rbx)
	je	.LBB4_9
.Ltmp304:
.LBB4_60:                               # %if.end15
	#DEBUG_VALUE: decode_one_slice:currSlice <- $rbx
	#DEBUG_VALUE: decode_one_slice:p_Vid <- $r14
	#DEBUG_VALUE: decode_one_slice:end_of_slice <- 0
	#DEBUG_VALUE: decode_one_slice:end_of_slice <- 0
	.loc	0 0 5 is_stmt 0                 # ldecod_src/image.c:0:5
	movq	%rsp, %r14
.Ltmp305:
	jmp	.LBB4_61
.Ltmp306:
	.p2align	4, 0x90
.LBB4_62:                               #   in Loop: Header=BB4_61 Depth=1
	#DEBUG_VALUE: decode_one_slice:currSlice <- $rbx
	movb	$1, %al
.Ltmp307:
.LBB4_66:                               # %lor.end
                                        #   in Loop: Header=BB4_61 Depth=1
	#DEBUG_VALUE: decode_one_slice:currSlice <- $rbx
	.loc	0 2464 77 is_stmt 1             # ldecod_src/image.c:2464:77
	movzbl	%al, %esi
	.loc	0 2464 20 is_stmt 0             # ldecod_src/image.c:2464:20
	movq	%rbx, %rdi
	callq	exit_macroblock@PLT
.Ltmp308:
	#DEBUG_VALUE: decode_one_slice:end_of_slice <- $eax
	.loc	0 2441 23 is_stmt 1             # ldecod_src/image.c:2441:23
	testl	%eax, %eax
	.loc	0 2441 3 is_stmt 0              # ldecod_src/image.c:2441:3
	jne	.LBB4_67
.Ltmp309:
.LBB4_61:                               # %while.body
                                        # =>This Inner Loop Header: Depth=1
	#DEBUG_VALUE: decode_one_slice:currSlice <- $rbx
	.loc	0 2449 5 is_stmt 1              # ldecod_src/image.c:2449:5
	movq	%rbx, %rdi
	movq	%r14, %rsi
	callq	start_macroblock@PLT
.Ltmp310:
	.loc	0 2451 36                       # ldecod_src/image.c:2451:36
	movq	(%rsp), %rdi
	.loc	0 2451 5 is_stmt 0              # ldecod_src/image.c:2451:5
	callq	*13448(%rbx)
.Ltmp311:
	.loc	0 2452 27 is_stmt 1             # ldecod_src/image.c:2452:27
	movq	(%rsp), %rdi
	.loc	0 2452 46 is_stmt 0             # ldecod_src/image.c:2452:46
	movq	13520(%rbx), %rsi
	.loc	0 2452 5                        # ldecod_src/image.c:2452:5
	callq	decode_one_macroblock@PLT
.Ltmp312:
	.loc	0 2454 8 is_stmt 1              # ldecod_src/image.c:2454:8
	cmpl	$0, 128(%rbx)
	.loc	0 2454 37 is_stmt 0             # ldecod_src/image.c:2454:37
	je	.LBB4_62
.Ltmp313:
# %bb.63:                               # %land.lhs.true18
                                        #   in Loop: Header=BB4_61 Depth=1
	#DEBUG_VALUE: decode_one_slice:currSlice <- $rbx
	.loc	0 2454 40                       # ldecod_src/image.c:2454:40
	movq	(%rsp), %rax
	cmpl	$0, 384(%rax)
.Ltmp314:
	.loc	0 2454 8                        # ldecod_src/image.c:2454:8
	je	.LBB4_65
.Ltmp315:
# %bb.64:                               # %if.then20
                                        #   in Loop: Header=BB4_61 Depth=1
	#DEBUG_VALUE: decode_one_slice:currSlice <- $rbx
	.loc	0 2456 45 is_stmt 1             # ldecod_src/image.c:2456:45
	movq	136(%rbx), %xmm0                # xmm0 = mem[0],zero
	psrad	$1, %xmm0
	movq	%xmm0, 136(%rbx)
.Ltmp316:
.LBB4_65:                               # %lor.rhs
                                        #   in Loop: Header=BB4_61 Depth=1
	#DEBUG_VALUE: decode_one_slice:currSlice <- $rbx
	.loc	0 2464 77                       # ldecod_src/image.c:2464:77
	movzbl	108(%rbx), %eax
	andb	$1, %al
	jmp	.LBB4_66
.Ltmp317:
.LBB4_67:                               # %while.end
	#DEBUG_VALUE: decode_one_slice:currSlice <- $rbx
	#DEBUG_VALUE: decode_one_slice:end_of_slice <- $eax
	.loc	0 2468 1 epilogue_begin         # ldecod_src/image.c:2468:1
	addq	$8, %rsp
	.cfi_def_cfa_offset 24
	popq	%rbx
.Ltmp318:
	#DEBUG_VALUE: decode_one_slice:currSlice <- [DW_OP_LLVM_entry_value 1] $rdi
	.cfi_def_cfa_offset 16
	popq	%r14
	.cfi_def_cfa_offset 8
	retq
.Ltmp319:
.LBB4_2:                                # %if.else
	.cfi_def_cfa_offset 32
	#DEBUG_VALUE: decode_one_slice:currSlice <- $rbx
	#DEBUG_VALUE: decode_one_slice:p_Vid <- $r14
	#DEBUG_VALUE: decode_one_slice:end_of_slice <- 0
	.loc	0 2424 33                       # ldecod_src/image.c:2424:33
	movq	848888(%r14), %rax
	.loc	0 2424 24 is_stmt 0             # ldecod_src/image.c:2424:24
	movq	%rax, 13512(%rbx)
	.loc	0 2425 37 is_stmt 1             # ldecod_src/image.c:2425:37
	movq	856456(%r14), %rax
	.loc	0 2425 28 is_stmt 0             # ldecod_src/image.c:2425:28
	movq	%rax, 13520(%rbx)
	.loc	0 2426 33 is_stmt 1             # ldecod_src/image.c:2426:33
	movq	848840(%r14), %rax
	.loc	0 2426 24 is_stmt 0             # ldecod_src/image.c:2426:24
	movq	%rax, 13528(%rbx)
	.loc	0 2427 35 is_stmt 1             # ldecod_src/image.c:2427:35
	movq	848800(%r14), %rax
	.loc	0 2427 26 is_stmt 0             # ldecod_src/image.c:2427:26
	movq	%rax, 13536(%rbx)
	.loc	0 2428 37 is_stmt 1             # ldecod_src/image.c:2428:37
	movq	848744(%r14), %rax
	.loc	0 2428 28 is_stmt 0             # ldecod_src/image.c:2428:28
	movq	%rax, 13544(%rbx)
.Ltmp320:
	.loc	0 2431 18 is_stmt 1             # ldecod_src/image.c:2431:18
	movl	164(%rbx), %esi
	.loc	0 2431 29 is_stmt 0             # ldecod_src/image.c:2431:29
	cmpl	$1, %esi
.Ltmp321:
	.loc	0 2431 7                        # ldecod_src/image.c:2431:7
	je	.LBB4_4
	jmp	.LBB4_5
.Ltmp322:
.LBB4_51:                               # %if.else.i
	#DEBUG_VALUE: decode_one_slice:currSlice <- $rbx
	#DEBUG_VALUE: decode_one_slice:p_Vid <- $r14
	#DEBUG_VALUE: decode_one_slice:end_of_slice <- 0
	#DEBUG_VALUE: init_cur_imgy:currSlice <- $rbx
	#DEBUG_VALUE: init_cur_imgy:p_Vid <- $r14
	#DEBUG_VALUE: vidref <- $rax
	#DEBUG_VALUE: noref <- undef
	.loc	0 2383 23 is_stmt 1             # ldecod_src/image.c:2383:23
	xorl	%edi, %edi
	cmpl	$1, %esi
	sete	%dil
	incq	%rdi
	cmpl	$0, 128(%rbx)
	movl	$6, %esi
	cmoveq	%rdi, %rsi
.Ltmp323:
	#DEBUG_VALUE: total_lists <- $rsi
	.loc	0 0 23 is_stmt 0                # ldecod_src/image.c:0:23
	xorl	%edi, %edi
.Ltmp324:
	#DEBUG_VALUE: init_cur_imgy:j <- 0
	jmp	.LBB4_52
.Ltmp325:
	.p2align	4, 0x90
.LBB4_59:                               # %for.inc57.i
                                        #   in Loop: Header=BB4_52 Depth=1
	#DEBUG_VALUE: decode_one_slice:currSlice <- $rbx
	#DEBUG_VALUE: decode_one_slice:p_Vid <- $r14
	#DEBUG_VALUE: decode_one_slice:end_of_slice <- 0
	#DEBUG_VALUE: init_cur_imgy:currSlice <- $rbx
	#DEBUG_VALUE: init_cur_imgy:p_Vid <- $r14
	#DEBUG_VALUE: init_cur_imgy:j <- $rdi
	#DEBUG_VALUE: init_cur_imgy:i <- [DW_OP_constu 1, DW_OP_or, DW_OP_stack_value] $r8
	#DEBUG_VALUE: vidref <- $rax
	#DEBUG_VALUE: total_lists <- $rsi
	.loc	0 2385 35 is_stmt 1             # ldecod_src/image.c:2385:35
	incq	%rdi
.Ltmp326:
	#DEBUG_VALUE: init_cur_imgy:j <- $rdi
	.loc	0 2385 19 is_stmt 0             # ldecod_src/image.c:2385:19
	cmpq	%rsi, %rdi
.Ltmp327:
	.loc	0 2385 5                        # ldecod_src/image.c:2385:5
	je	.LBB4_60
.Ltmp328:
.LBB4_52:                               # %for.cond32.preheader.i
                                        # =>This Loop Header: Depth=1
                                        #     Child Loop BB4_53 Depth 2
	#DEBUG_VALUE: decode_one_slice:currSlice <- $rbx
	#DEBUG_VALUE: decode_one_slice:p_Vid <- $r14
	#DEBUG_VALUE: decode_one_slice:end_of_slice <- 0
	#DEBUG_VALUE: init_cur_imgy:currSlice <- $rbx
	#DEBUG_VALUE: init_cur_imgy:p_Vid <- $r14
	#DEBUG_VALUE: vidref <- $rax
	#DEBUG_VALUE: total_lists <- $rsi
	#DEBUG_VALUE: init_cur_imgy:j <- $rdi
	#DEBUG_VALUE: init_cur_imgy:i <- 0
	.loc	0 0 5                           # ldecod_src/image.c:0:5
	xorl	%r8d, %r8d
	jmp	.LBB4_53
.Ltmp329:
	.p2align	4, 0x90
.LBB4_58:                               # %if.end53.i.1
                                        #   in Loop: Header=BB4_53 Depth=2
	#DEBUG_VALUE: decode_one_slice:currSlice <- $rbx
	#DEBUG_VALUE: decode_one_slice:p_Vid <- $r14
	#DEBUG_VALUE: decode_one_slice:end_of_slice <- 0
	#DEBUG_VALUE: init_cur_imgy:currSlice <- $rbx
	#DEBUG_VALUE: init_cur_imgy:p_Vid <- $r14
	#DEBUG_VALUE: init_cur_imgy:j <- $rdi
	#DEBUG_VALUE: init_cur_imgy:i <- [DW_OP_constu 1, DW_OP_or, DW_OP_stack_value] $r8
	#DEBUG_VALUE: vidref <- $rax
	#DEBUG_VALUE: total_lists <- $rsi
	.loc	0 2391 39 is_stmt 1             # ldecod_src/image.c:2391:39
	addq	$2, %r8
.Ltmp330:
	#DEBUG_VALUE: init_cur_imgy:i <- $r8
.LBB4_53:                               # %for.body35.i
                                        #   Parent Loop BB4_52 Depth=1
                                        # =>  This Inner Loop Header: Depth=2
	#DEBUG_VALUE: decode_one_slice:currSlice <- $rbx
	#DEBUG_VALUE: decode_one_slice:p_Vid <- $r14
	#DEBUG_VALUE: decode_one_slice:end_of_slice <- 0
	#DEBUG_VALUE: init_cur_imgy:currSlice <- $rbx
	#DEBUG_VALUE: init_cur_imgy:p_Vid <- $r14
	#DEBUG_VALUE: init_cur_imgy:j <- $rdi
	#DEBUG_VALUE: vidref <- $rax
	#DEBUG_VALUE: total_lists <- $rsi
	#DEBUG_VALUE: init_cur_imgy:i <- $r8
	.loc	0 2393 37                       # ldecod_src/image.c:2393:37
	movq	264(%rbx,%rdi,8), %r9
	movq	(%r9,%r8,8), %r9
.Ltmp331:
	#DEBUG_VALUE: curr_ref <- $r9
	.loc	0 2394 13                       # ldecod_src/image.c:2394:13
	testq	%r9, %r9
.Ltmp332:
	.loc	0 2394 13 is_stmt 0             # ldecod_src/image.c:2394:13
	je	.LBB4_55
.Ltmp333:
# %bb.54:                               # %if.then43.i
                                        #   in Loop: Header=BB4_53 Depth=2
	#DEBUG_VALUE: decode_one_slice:currSlice <- $rbx
	#DEBUG_VALUE: decode_one_slice:p_Vid <- $r14
	#DEBUG_VALUE: decode_one_slice:end_of_slice <- 0
	#DEBUG_VALUE: init_cur_imgy:currSlice <- $rbx
	#DEBUG_VALUE: init_cur_imgy:p_Vid <- $r14
	#DEBUG_VALUE: init_cur_imgy:j <- $rdi
	#DEBUG_VALUE: init_cur_imgy:i <- $r8
	#DEBUG_VALUE: vidref <- $rax
	#DEBUG_VALUE: total_lists <- $rsi
	#DEBUG_VALUE: curr_ref <- $r9
	.loc	0 0 0                           # ldecod_src/image.c:0:0
	cmpl	%edx, %ecx
	setl	%r10b
.Ltmp334:
	.loc	0 2395 36 is_stmt 1             # ldecod_src/image.c:2395:36
	cmpq	%rax, %r9
	sete	%r11b
	andb	%r10b, %r11b
	movzbl	%r11b, %r10d
	.loc	0 2395 28 is_stmt 0             # ldecod_src/image.c:2395:28
	movl	%r10d, 384(%r9)
	.loc	0 2396 42 is_stmt 1             # ldecod_src/image.c:2396:42
	movq	128(%r9), %r10
	.loc	0 2396 30 is_stmt 0             # ldecod_src/image.c:2396:30
	movq	%r10, 376(%r9)
.Ltmp335:
.LBB4_55:                               # %if.end53.i
                                        #   in Loop: Header=BB4_53 Depth=2
	#DEBUG_VALUE: decode_one_slice:currSlice <- $rbx
	#DEBUG_VALUE: decode_one_slice:p_Vid <- $r14
	#DEBUG_VALUE: decode_one_slice:end_of_slice <- 0
	#DEBUG_VALUE: init_cur_imgy:currSlice <- $rbx
	#DEBUG_VALUE: init_cur_imgy:p_Vid <- $r14
	#DEBUG_VALUE: init_cur_imgy:j <- $rdi
	#DEBUG_VALUE: init_cur_imgy:i <- $r8
	#DEBUG_VALUE: vidref <- $rax
	#DEBUG_VALUE: total_lists <- $rsi
	#DEBUG_VALUE: init_cur_imgy:i <- [DW_OP_constu 1, DW_OP_or, DW_OP_stack_value] $r8
	.loc	0 2391 21 is_stmt 1             # ldecod_src/image.c:2391:21
	cmpq	$32, %r8
.Ltmp336:
	.loc	0 2391 7 is_stmt 0              # ldecod_src/image.c:2391:7
	je	.LBB4_59
.Ltmp337:
# %bb.56:                               # %for.body35.i.1
                                        #   in Loop: Header=BB4_53 Depth=2
	#DEBUG_VALUE: decode_one_slice:currSlice <- $rbx
	#DEBUG_VALUE: decode_one_slice:p_Vid <- $r14
	#DEBUG_VALUE: decode_one_slice:end_of_slice <- 0
	#DEBUG_VALUE: init_cur_imgy:currSlice <- $rbx
	#DEBUG_VALUE: init_cur_imgy:p_Vid <- $r14
	#DEBUG_VALUE: init_cur_imgy:j <- $rdi
	#DEBUG_VALUE: init_cur_imgy:i <- [DW_OP_constu 1, DW_OP_or, DW_OP_stack_value] $r8
	#DEBUG_VALUE: vidref <- $rax
	#DEBUG_VALUE: total_lists <- $rsi
	#DEBUG_VALUE: init_cur_imgy:i <- [DW_OP_constu 1, DW_OP_or, DW_OP_stack_value] $r8
	.loc	0 2393 37 is_stmt 1             # ldecod_src/image.c:2393:37
	movq	264(%rbx,%rdi,8), %r9
	movq	8(%r9,%r8,8), %r9
.Ltmp338:
	#DEBUG_VALUE: curr_ref <- $r9
	.loc	0 2394 13                       # ldecod_src/image.c:2394:13
	testq	%r9, %r9
.Ltmp339:
	.loc	0 2394 13 is_stmt 0             # ldecod_src/image.c:2394:13
	je	.LBB4_58
.Ltmp340:
# %bb.57:                               # %if.then43.i.1
                                        #   in Loop: Header=BB4_53 Depth=2
	#DEBUG_VALUE: decode_one_slice:currSlice <- $rbx
	#DEBUG_VALUE: decode_one_slice:p_Vid <- $r14
	#DEBUG_VALUE: decode_one_slice:end_of_slice <- 0
	#DEBUG_VALUE: init_cur_imgy:currSlice <- $rbx
	#DEBUG_VALUE: init_cur_imgy:p_Vid <- $r14
	#DEBUG_VALUE: init_cur_imgy:j <- $rdi
	#DEBUG_VALUE: init_cur_imgy:i <- [DW_OP_constu 1, DW_OP_or, DW_OP_stack_value] $r8
	#DEBUG_VALUE: vidref <- $rax
	#DEBUG_VALUE: total_lists <- $rsi
	#DEBUG_VALUE: curr_ref <- $r9
	.loc	0 0 0                           # ldecod_src/image.c:0:0
	cmpl	%edx, %ecx
	setl	%r10b
.Ltmp341:
	.loc	0 2395 36 is_stmt 1             # ldecod_src/image.c:2395:36
	cmpq	%rax, %r9
	sete	%r11b
	andb	%r10b, %r11b
	movzbl	%r11b, %r10d
	.loc	0 2395 28 is_stmt 0             # ldecod_src/image.c:2395:28
	movl	%r10d, 384(%r9)
	.loc	0 2396 42 is_stmt 1             # ldecod_src/image.c:2396:42
	movq	128(%r9), %r10
	.loc	0 2396 30 is_stmt 0             # ldecod_src/image.c:2396:30
	movq	%r10, 376(%r9)
	jmp	.LBB4_58
.Ltmp342:
.LBB4_9:                                # %for.cond.preheader.i
	#DEBUG_VALUE: decode_one_slice:currSlice <- $rbx
	#DEBUG_VALUE: decode_one_slice:p_Vid <- $r14
	#DEBUG_VALUE: decode_one_slice:end_of_slice <- 0
	#DEBUG_VALUE: init_cur_imgy:currSlice <- $rbx
	#DEBUG_VALUE: init_cur_imgy:p_Vid <- $r14
	#DEBUG_VALUE: vidref <- $rax
	.loc	0 0 30                          # ldecod_src/image.c:0:30
	xorl	%esi, %esi
.Ltmp343:
	#DEBUG_VALUE: init_cur_imgy:j <- 0
	#DEBUG_VALUE: init_cur_imgy:i <- 0
	jmp	.LBB4_10
.Ltmp344:
	.p2align	4, 0x90
.LBB4_15:                               # %if.end.i.1
                                        #   in Loop: Header=BB4_10 Depth=1
	#DEBUG_VALUE: decode_one_slice:currSlice <- $rbx
	#DEBUG_VALUE: decode_one_slice:p_Vid <- $r14
	#DEBUG_VALUE: decode_one_slice:end_of_slice <- 0
	#DEBUG_VALUE: init_cur_imgy:currSlice <- $rbx
	#DEBUG_VALUE: init_cur_imgy:p_Vid <- $r14
	#DEBUG_VALUE: vidref <- $rax
	#DEBUG_VALUE: init_cur_imgy:j <- 0
	#DEBUG_VALUE: init_cur_imgy:i <- [DW_OP_constu 1, DW_OP_or, DW_OP_stack_value] $rsi
	.loc	0 2344 41 is_stmt 1             # ldecod_src/image.c:2344:41
	addq	$2, %rsi
.Ltmp345:
	#DEBUG_VALUE: init_cur_imgy:i <- $rsi
.LBB4_10:                               # %for.body7.i
                                        # =>This Inner Loop Header: Depth=1
	#DEBUG_VALUE: decode_one_slice:currSlice <- $rbx
	#DEBUG_VALUE: decode_one_slice:p_Vid <- $r14
	#DEBUG_VALUE: decode_one_slice:end_of_slice <- 0
	#DEBUG_VALUE: init_cur_imgy:currSlice <- $rbx
	#DEBUG_VALUE: init_cur_imgy:p_Vid <- $r14
	#DEBUG_VALUE: vidref <- $rax
	#DEBUG_VALUE: init_cur_imgy:j <- 0
	#DEBUG_VALUE: init_cur_imgy:i <- $rsi
	.loc	0 2345 39                       # ldecod_src/image.c:2345:39
	movq	264(%rbx), %rdi
	movq	(%rdi,%rsi,8), %rdi
.Ltmp346:
	#DEBUG_VALUE: curr_ref <- $rdi
	.loc	0 2346 15                       # ldecod_src/image.c:2346:15
	testq	%rdi, %rdi
.Ltmp347:
	.loc	0 2346 15 is_stmt 0             # ldecod_src/image.c:2346:15
	je	.LBB4_12
.Ltmp348:
# %bb.11:                               # %if.then10.i
                                        #   in Loop: Header=BB4_10 Depth=1
	#DEBUG_VALUE: decode_one_slice:currSlice <- $rbx
	#DEBUG_VALUE: decode_one_slice:p_Vid <- $r14
	#DEBUG_VALUE: decode_one_slice:end_of_slice <- 0
	#DEBUG_VALUE: init_cur_imgy:currSlice <- $rbx
	#DEBUG_VALUE: init_cur_imgy:p_Vid <- $r14
	#DEBUG_VALUE: vidref <- $rax
	#DEBUG_VALUE: init_cur_imgy:j <- 0
	#DEBUG_VALUE: init_cur_imgy:i <- $rsi
	#DEBUG_VALUE: curr_ref <- $rdi
	.loc	0 0 0                           # ldecod_src/image.c:0:0
	cmpl	%edx, %ecx
	setl	%r8b
.Ltmp349:
	.loc	0 2347 38 is_stmt 1             # ldecod_src/image.c:2347:38
	cmpq	%rax, %rdi
	sete	%r9b
	andb	%r8b, %r9b
	movzbl	%r9b, %r8d
	.loc	0 2347 30 is_stmt 0             # ldecod_src/image.c:2347:30
	movl	%r8d, 384(%rdi)
	.loc	0 2348 44 is_stmt 1             # ldecod_src/image.c:2348:44
	movq	128(%rdi), %r8
	.loc	0 2348 32 is_stmt 0             # ldecod_src/image.c:2348:32
	movq	%r8, 376(%rdi)
.Ltmp350:
.LBB4_12:                               # %if.end.i
                                        #   in Loop: Header=BB4_10 Depth=1
	#DEBUG_VALUE: decode_one_slice:currSlice <- $rbx
	#DEBUG_VALUE: decode_one_slice:p_Vid <- $r14
	#DEBUG_VALUE: decode_one_slice:end_of_slice <- 0
	#DEBUG_VALUE: init_cur_imgy:currSlice <- $rbx
	#DEBUG_VALUE: init_cur_imgy:p_Vid <- $r14
	#DEBUG_VALUE: vidref <- $rax
	#DEBUG_VALUE: init_cur_imgy:j <- 0
	#DEBUG_VALUE: init_cur_imgy:i <- $rsi
	#DEBUG_VALUE: init_cur_imgy:i <- [DW_OP_constu 1, DW_OP_or, DW_OP_stack_value] $rsi
	.loc	0 2344 23 is_stmt 1             # ldecod_src/image.c:2344:23
	cmpq	$32, %rsi
.Ltmp351:
	.loc	0 2344 9 is_stmt 0              # ldecod_src/image.c:2344:9
	je	.LBB4_16
.Ltmp352:
# %bb.13:                               # %for.body7.i.1
                                        #   in Loop: Header=BB4_10 Depth=1
	#DEBUG_VALUE: decode_one_slice:currSlice <- $rbx
	#DEBUG_VALUE: decode_one_slice:p_Vid <- $r14
	#DEBUG_VALUE: decode_one_slice:end_of_slice <- 0
	#DEBUG_VALUE: init_cur_imgy:currSlice <- $rbx
	#DEBUG_VALUE: init_cur_imgy:p_Vid <- $r14
	#DEBUG_VALUE: vidref <- $rax
	#DEBUG_VALUE: init_cur_imgy:j <- 0
	#DEBUG_VALUE: init_cur_imgy:i <- [DW_OP_constu 1, DW_OP_or, DW_OP_stack_value] $rsi
	#DEBUG_VALUE: init_cur_imgy:i <- [DW_OP_constu 1, DW_OP_or, DW_OP_stack_value] $rsi
	.loc	0 2345 39 is_stmt 1             # ldecod_src/image.c:2345:39
	movq	264(%rbx), %rdi
	movq	8(%rdi,%rsi,8), %rdi
.Ltmp353:
	#DEBUG_VALUE: curr_ref <- $rdi
	.loc	0 2346 15                       # ldecod_src/image.c:2346:15
	testq	%rdi, %rdi
.Ltmp354:
	.loc	0 2346 15 is_stmt 0             # ldecod_src/image.c:2346:15
	je	.LBB4_15
.Ltmp355:
# %bb.14:                               # %if.then10.i.1
                                        #   in Loop: Header=BB4_10 Depth=1
	#DEBUG_VALUE: decode_one_slice:currSlice <- $rbx
	#DEBUG_VALUE: decode_one_slice:p_Vid <- $r14
	#DEBUG_VALUE: decode_one_slice:end_of_slice <- 0
	#DEBUG_VALUE: init_cur_imgy:currSlice <- $rbx
	#DEBUG_VALUE: init_cur_imgy:p_Vid <- $r14
	#DEBUG_VALUE: vidref <- $rax
	#DEBUG_VALUE: init_cur_imgy:j <- 0
	#DEBUG_VALUE: init_cur_imgy:i <- [DW_OP_constu 1, DW_OP_or, DW_OP_stack_value] $rsi
	#DEBUG_VALUE: curr_ref <- $rdi
	.loc	0 0 0                           # ldecod_src/image.c:0:0
	cmpl	%edx, %ecx
	setl	%r8b
.Ltmp356:
	.loc	0 2347 38 is_stmt 1             # ldecod_src/image.c:2347:38
	cmpq	%rax, %rdi
	sete	%r9b
	andb	%r8b, %r9b
	movzbl	%r9b, %r8d
	.loc	0 2347 30 is_stmt 0             # ldecod_src/image.c:2347:30
	movl	%r8d, 384(%rdi)
	.loc	0 2348 44 is_stmt 1             # ldecod_src/image.c:2348:44
	movq	128(%rdi), %r8
	.loc	0 2348 32 is_stmt 0             # ldecod_src/image.c:2348:32
	movq	%r8, 376(%rdi)
	jmp	.LBB4_15
.Ltmp357:
.LBB4_16:                               # %for.inc14.i
	#DEBUG_VALUE: decode_one_slice:currSlice <- $rbx
	#DEBUG_VALUE: decode_one_slice:p_Vid <- $r14
	#DEBUG_VALUE: decode_one_slice:end_of_slice <- 0
	#DEBUG_VALUE: init_cur_imgy:currSlice <- $rbx
	#DEBUG_VALUE: init_cur_imgy:p_Vid <- $r14
	#DEBUG_VALUE: vidref <- $rax
	#DEBUG_VALUE: init_cur_imgy:j <- 0
	#DEBUG_VALUE: init_cur_imgy:i <- [DW_OP_constu 1, DW_OP_or, DW_OP_stack_value] $rsi
	.loc	0 0 32                          # ldecod_src/image.c:0:32
	xorl	%esi, %esi
.Ltmp358:
	#DEBUG_VALUE: init_cur_imgy:j <- 1
	#DEBUG_VALUE: init_cur_imgy:i <- 0
	jmp	.LBB4_17
.Ltmp359:
	.p2align	4, 0x90
.LBB4_22:                               # %if.end.1.i.1
                                        #   in Loop: Header=BB4_17 Depth=1
	#DEBUG_VALUE: decode_one_slice:currSlice <- $rbx
	#DEBUG_VALUE: decode_one_slice:p_Vid <- $r14
	#DEBUG_VALUE: decode_one_slice:end_of_slice <- 0
	#DEBUG_VALUE: init_cur_imgy:currSlice <- $rbx
	#DEBUG_VALUE: init_cur_imgy:p_Vid <- $r14
	#DEBUG_VALUE: vidref <- $rax
	#DEBUG_VALUE: init_cur_imgy:j <- 1
	#DEBUG_VALUE: init_cur_imgy:i <- [DW_OP_constu 1, DW_OP_or, DW_OP_stack_value] $rsi
	.loc	0 2344 41 is_stmt 1             # ldecod_src/image.c:2344:41
	addq	$2, %rsi
.Ltmp360:
	#DEBUG_VALUE: init_cur_imgy:i <- $rsi
.LBB4_17:                               # %for.body7.1.i
                                        # =>This Inner Loop Header: Depth=1
	#DEBUG_VALUE: decode_one_slice:currSlice <- $rbx
	#DEBUG_VALUE: decode_one_slice:p_Vid <- $r14
	#DEBUG_VALUE: decode_one_slice:end_of_slice <- 0
	#DEBUG_VALUE: init_cur_imgy:currSlice <- $rbx
	#DEBUG_VALUE: init_cur_imgy:p_Vid <- $r14
	#DEBUG_VALUE: vidref <- $rax
	#DEBUG_VALUE: init_cur_imgy:j <- 1
	#DEBUG_VALUE: init_cur_imgy:i <- $rsi
	.loc	0 2345 39                       # ldecod_src/image.c:2345:39
	movq	272(%rbx), %rdi
	movq	(%rdi,%rsi,8), %rdi
.Ltmp361:
	#DEBUG_VALUE: curr_ref <- $rdi
	.loc	0 2346 15                       # ldecod_src/image.c:2346:15
	testq	%rdi, %rdi
.Ltmp362:
	.loc	0 2346 15 is_stmt 0             # ldecod_src/image.c:2346:15
	je	.LBB4_19
.Ltmp363:
# %bb.18:                               # %if.then10.1.i
                                        #   in Loop: Header=BB4_17 Depth=1
	#DEBUG_VALUE: decode_one_slice:currSlice <- $rbx
	#DEBUG_VALUE: decode_one_slice:p_Vid <- $r14
	#DEBUG_VALUE: decode_one_slice:end_of_slice <- 0
	#DEBUG_VALUE: init_cur_imgy:currSlice <- $rbx
	#DEBUG_VALUE: init_cur_imgy:p_Vid <- $r14
	#DEBUG_VALUE: vidref <- $rax
	#DEBUG_VALUE: init_cur_imgy:j <- 1
	#DEBUG_VALUE: init_cur_imgy:i <- $rsi
	#DEBUG_VALUE: curr_ref <- $rdi
	.loc	0 0 0                           # ldecod_src/image.c:0:0
	cmpl	%edx, %ecx
	setl	%r8b
.Ltmp364:
	.loc	0 2347 38 is_stmt 1             # ldecod_src/image.c:2347:38
	cmpq	%rax, %rdi
	sete	%r9b
	andb	%r8b, %r9b
	movzbl	%r9b, %r8d
	.loc	0 2347 30 is_stmt 0             # ldecod_src/image.c:2347:30
	movl	%r8d, 384(%rdi)
	.loc	0 2348 44 is_stmt 1             # ldecod_src/image.c:2348:44
	movq	128(%rdi), %r8
	.loc	0 2348 32 is_stmt 0             # ldecod_src/image.c:2348:32
	movq	%r8, 376(%rdi)
.Ltmp365:
.LBB4_19:                               # %if.end.1.i
                                        #   in Loop: Header=BB4_17 Depth=1
	#DEBUG_VALUE: decode_one_slice:currSlice <- $rbx
	#DEBUG_VALUE: decode_one_slice:p_Vid <- $r14
	#DEBUG_VALUE: decode_one_slice:end_of_slice <- 0
	#DEBUG_VALUE: init_cur_imgy:currSlice <- $rbx
	#DEBUG_VALUE: init_cur_imgy:p_Vid <- $r14
	#DEBUG_VALUE: vidref <- $rax
	#DEBUG_VALUE: init_cur_imgy:j <- 1
	#DEBUG_VALUE: init_cur_imgy:i <- $rsi
	#DEBUG_VALUE: init_cur_imgy:i <- [DW_OP_constu 1, DW_OP_or, DW_OP_stack_value] $rsi
	.loc	0 2344 23 is_stmt 1             # ldecod_src/image.c:2344:23
	cmpq	$32, %rsi
.Ltmp366:
	.loc	0 2344 9 is_stmt 0              # ldecod_src/image.c:2344:9
	je	.LBB4_23
.Ltmp367:
# %bb.20:                               # %for.body7.1.i.1
                                        #   in Loop: Header=BB4_17 Depth=1
	#DEBUG_VALUE: decode_one_slice:currSlice <- $rbx
	#DEBUG_VALUE: decode_one_slice:p_Vid <- $r14
	#DEBUG_VALUE: decode_one_slice:end_of_slice <- 0
	#DEBUG_VALUE: init_cur_imgy:currSlice <- $rbx
	#DEBUG_VALUE: init_cur_imgy:p_Vid <- $r14
	#DEBUG_VALUE: vidref <- $rax
	#DEBUG_VALUE: init_cur_imgy:j <- 1
	#DEBUG_VALUE: init_cur_imgy:i <- [DW_OP_constu 1, DW_OP_or, DW_OP_stack_value] $rsi
	#DEBUG_VALUE: init_cur_imgy:i <- [DW_OP_constu 1, DW_OP_or, DW_OP_stack_value] $rsi
	.loc	0 2345 39 is_stmt 1             # ldecod_src/image.c:2345:39
	movq	272(%rbx), %rdi
	movq	8(%rdi,%rsi,8), %rdi
.Ltmp368:
	#DEBUG_VALUE: curr_ref <- $rdi
	.loc	0 2346 15                       # ldecod_src/image.c:2346:15
	testq	%rdi, %rdi
.Ltmp369:
	.loc	0 2346 15 is_stmt 0             # ldecod_src/image.c:2346:15
	je	.LBB4_22
.Ltmp370:
# %bb.21:                               # %if.then10.1.i.1
                                        #   in Loop: Header=BB4_17 Depth=1
	#DEBUG_VALUE: decode_one_slice:currSlice <- $rbx
	#DEBUG_VALUE: decode_one_slice:p_Vid <- $r14
	#DEBUG_VALUE: decode_one_slice:end_of_slice <- 0
	#DEBUG_VALUE: init_cur_imgy:currSlice <- $rbx
	#DEBUG_VALUE: init_cur_imgy:p_Vid <- $r14
	#DEBUG_VALUE: vidref <- $rax
	#DEBUG_VALUE: init_cur_imgy:j <- 1
	#DEBUG_VALUE: init_cur_imgy:i <- [DW_OP_constu 1, DW_OP_or, DW_OP_stack_value] $rsi
	#DEBUG_VALUE: curr_ref <- $rdi
	.loc	0 0 0                           # ldecod_src/image.c:0:0
	cmpl	%edx, %ecx
	setl	%r8b
.Ltmp371:
	.loc	0 2347 38 is_stmt 1             # ldecod_src/image.c:2347:38
	cmpq	%rax, %rdi
	sete	%r9b
	andb	%r8b, %r9b
	movzbl	%r9b, %r8d
	.loc	0 2347 30 is_stmt 0             # ldecod_src/image.c:2347:30
	movl	%r8d, 384(%rdi)
	.loc	0 2348 44 is_stmt 1             # ldecod_src/image.c:2348:44
	movq	128(%rdi), %r8
	.loc	0 2348 32 is_stmt 0             # ldecod_src/image.c:2348:32
	movq	%r8, 376(%rdi)
	jmp	.LBB4_22
.Ltmp372:
.LBB4_23:                               # %for.inc14.1.i
	#DEBUG_VALUE: decode_one_slice:currSlice <- $rbx
	#DEBUG_VALUE: decode_one_slice:p_Vid <- $r14
	#DEBUG_VALUE: decode_one_slice:end_of_slice <- 0
	#DEBUG_VALUE: init_cur_imgy:currSlice <- $rbx
	#DEBUG_VALUE: init_cur_imgy:p_Vid <- $r14
	#DEBUG_VALUE: vidref <- $rax
	#DEBUG_VALUE: init_cur_imgy:j <- 1
	#DEBUG_VALUE: init_cur_imgy:i <- [DW_OP_constu 1, DW_OP_or, DW_OP_stack_value] $rsi
	.loc	0 0 32                          # ldecod_src/image.c:0:32
	xorl	%esi, %esi
.Ltmp373:
	#DEBUG_VALUE: init_cur_imgy:j <- 2
	#DEBUG_VALUE: init_cur_imgy:i <- 0
	jmp	.LBB4_24
.Ltmp374:
	.p2align	4, 0x90
.LBB4_29:                               # %if.end.2.i.1
                                        #   in Loop: Header=BB4_24 Depth=1
	#DEBUG_VALUE: decode_one_slice:currSlice <- $rbx
	#DEBUG_VALUE: decode_one_slice:p_Vid <- $r14
	#DEBUG_VALUE: decode_one_slice:end_of_slice <- 0
	#DEBUG_VALUE: init_cur_imgy:currSlice <- $rbx
	#DEBUG_VALUE: init_cur_imgy:p_Vid <- $r14
	#DEBUG_VALUE: vidref <- $rax
	#DEBUG_VALUE: init_cur_imgy:j <- 2
	#DEBUG_VALUE: init_cur_imgy:i <- [DW_OP_constu 1, DW_OP_or, DW_OP_stack_value] $rsi
	.loc	0 2344 41 is_stmt 1             # ldecod_src/image.c:2344:41
	addq	$2, %rsi
.Ltmp375:
	#DEBUG_VALUE: init_cur_imgy:i <- $rsi
.LBB4_24:                               # %for.body7.2.i
                                        # =>This Inner Loop Header: Depth=1
	#DEBUG_VALUE: decode_one_slice:currSlice <- $rbx
	#DEBUG_VALUE: decode_one_slice:p_Vid <- $r14
	#DEBUG_VALUE: decode_one_slice:end_of_slice <- 0
	#DEBUG_VALUE: init_cur_imgy:currSlice <- $rbx
	#DEBUG_VALUE: init_cur_imgy:p_Vid <- $r14
	#DEBUG_VALUE: vidref <- $rax
	#DEBUG_VALUE: init_cur_imgy:j <- 2
	#DEBUG_VALUE: init_cur_imgy:i <- $rsi
	.loc	0 2345 39                       # ldecod_src/image.c:2345:39
	movq	280(%rbx), %rdi
	movq	(%rdi,%rsi,8), %rdi
.Ltmp376:
	#DEBUG_VALUE: curr_ref <- $rdi
	.loc	0 2346 15                       # ldecod_src/image.c:2346:15
	testq	%rdi, %rdi
.Ltmp377:
	.loc	0 2346 15 is_stmt 0             # ldecod_src/image.c:2346:15
	je	.LBB4_26
.Ltmp378:
# %bb.25:                               # %if.then10.2.i
                                        #   in Loop: Header=BB4_24 Depth=1
	#DEBUG_VALUE: decode_one_slice:currSlice <- $rbx
	#DEBUG_VALUE: decode_one_slice:p_Vid <- $r14
	#DEBUG_VALUE: decode_one_slice:end_of_slice <- 0
	#DEBUG_VALUE: init_cur_imgy:currSlice <- $rbx
	#DEBUG_VALUE: init_cur_imgy:p_Vid <- $r14
	#DEBUG_VALUE: vidref <- $rax
	#DEBUG_VALUE: init_cur_imgy:j <- 2
	#DEBUG_VALUE: init_cur_imgy:i <- $rsi
	#DEBUG_VALUE: curr_ref <- $rdi
	.loc	0 0 0                           # ldecod_src/image.c:0:0
	cmpl	%edx, %ecx
	setl	%r8b
.Ltmp379:
	.loc	0 2347 38 is_stmt 1             # ldecod_src/image.c:2347:38
	cmpq	%rax, %rdi
	sete	%r9b
	andb	%r8b, %r9b
	movzbl	%r9b, %r8d
	.loc	0 2347 30 is_stmt 0             # ldecod_src/image.c:2347:30
	movl	%r8d, 384(%rdi)
	.loc	0 2348 44 is_stmt 1             # ldecod_src/image.c:2348:44
	movq	128(%rdi), %r8
	.loc	0 2348 32 is_stmt 0             # ldecod_src/image.c:2348:32
	movq	%r8, 376(%rdi)
.Ltmp380:
.LBB4_26:                               # %if.end.2.i
                                        #   in Loop: Header=BB4_24 Depth=1
	#DEBUG_VALUE: decode_one_slice:currSlice <- $rbx
	#DEBUG_VALUE: decode_one_slice:p_Vid <- $r14
	#DEBUG_VALUE: decode_one_slice:end_of_slice <- 0
	#DEBUG_VALUE: init_cur_imgy:currSlice <- $rbx
	#DEBUG_VALUE: init_cur_imgy:p_Vid <- $r14
	#DEBUG_VALUE: vidref <- $rax
	#DEBUG_VALUE: init_cur_imgy:j <- 2
	#DEBUG_VALUE: init_cur_imgy:i <- $rsi
	#DEBUG_VALUE: init_cur_imgy:i <- [DW_OP_constu 1, DW_OP_or, DW_OP_stack_value] $rsi
	.loc	0 2344 23 is_stmt 1             # ldecod_src/image.c:2344:23
	cmpq	$32, %rsi
.Ltmp381:
	.loc	0 2344 9 is_stmt 0              # ldecod_src/image.c:2344:9
	je	.LBB4_30
.Ltmp382:
# %bb.27:                               # %for.body7.2.i.1
                                        #   in Loop: Header=BB4_24 Depth=1
	#DEBUG_VALUE: decode_one_slice:currSlice <- $rbx
	#DEBUG_VALUE: decode_one_slice:p_Vid <- $r14
	#DEBUG_VALUE: decode_one_slice:end_of_slice <- 0
	#DEBUG_VALUE: init_cur_imgy:currSlice <- $rbx
	#DEBUG_VALUE: init_cur_imgy:p_Vid <- $r14
	#DEBUG_VALUE: vidref <- $rax
	#DEBUG_VALUE: init_cur_imgy:j <- 2
	#DEBUG_VALUE: init_cur_imgy:i <- [DW_OP_constu 1, DW_OP_or, DW_OP_stack_value] $rsi
	#DEBUG_VALUE: init_cur_imgy:i <- [DW_OP_constu 1, DW_OP_or, DW_OP_stack_value] $rsi
	.loc	0 2345 39 is_stmt 1             # ldecod_src/image.c:2345:39
	movq	280(%rbx), %rdi
	movq	8(%rdi,%rsi,8), %rdi
.Ltmp383:
	#DEBUG_VALUE: curr_ref <- $rdi
	.loc	0 2346 15                       # ldecod_src/image.c:2346:15
	testq	%rdi, %rdi
.Ltmp384:
	.loc	0 2346 15 is_stmt 0             # ldecod_src/image.c:2346:15
	je	.LBB4_29
.Ltmp385:
# %bb.28:                               # %if.then10.2.i.1
                                        #   in Loop: Header=BB4_24 Depth=1
	#DEBUG_VALUE: decode_one_slice:currSlice <- $rbx
	#DEBUG_VALUE: decode_one_slice:p_Vid <- $r14
	#DEBUG_VALUE: decode_one_slice:end_of_slice <- 0
	#DEBUG_VALUE: init_cur_imgy:currSlice <- $rbx
	#DEBUG_VALUE: init_cur_imgy:p_Vid <- $r14
	#DEBUG_VALUE: vidref <- $rax
	#DEBUG_VALUE: init_cur_imgy:j <- 2
	#DEBUG_VALUE: init_cur_imgy:i <- [DW_OP_constu 1, DW_OP_or, DW_OP_stack_value] $rsi
	#DEBUG_VALUE: curr_ref <- $rdi
	.loc	0 0 0                           # ldecod_src/image.c:0:0
	cmpl	%edx, %ecx
	setl	%r8b
.Ltmp386:
	.loc	0 2347 38 is_stmt 1             # ldecod_src/image.c:2347:38
	cmpq	%rax, %rdi
	sete	%r9b
	andb	%r8b, %r9b
	movzbl	%r9b, %r8d
	.loc	0 2347 30 is_stmt 0             # ldecod_src/image.c:2347:30
	movl	%r8d, 384(%rdi)
	.loc	0 2348 44 is_stmt 1             # ldecod_src/image.c:2348:44
	movq	128(%rdi), %r8
	.loc	0 2348 32 is_stmt 0             # ldecod_src/image.c:2348:32
	movq	%r8, 376(%rdi)
	jmp	.LBB4_29
.Ltmp387:
.LBB4_30:                               # %for.inc14.2.i
	#DEBUG_VALUE: decode_one_slice:currSlice <- $rbx
	#DEBUG_VALUE: decode_one_slice:p_Vid <- $r14
	#DEBUG_VALUE: decode_one_slice:end_of_slice <- 0
	#DEBUG_VALUE: init_cur_imgy:currSlice <- $rbx
	#DEBUG_VALUE: init_cur_imgy:p_Vid <- $r14
	#DEBUG_VALUE: vidref <- $rax
	#DEBUG_VALUE: init_cur_imgy:j <- 2
	#DEBUG_VALUE: init_cur_imgy:i <- [DW_OP_constu 1, DW_OP_or, DW_OP_stack_value] $rsi
	.loc	0 0 32                          # ldecod_src/image.c:0:32
	xorl	%esi, %esi
.Ltmp388:
	#DEBUG_VALUE: init_cur_imgy:j <- 3
	#DEBUG_VALUE: init_cur_imgy:i <- 0
	jmp	.LBB4_31
.Ltmp389:
	.p2align	4, 0x90
.LBB4_36:                               # %if.end.3.i.1
                                        #   in Loop: Header=BB4_31 Depth=1
	#DEBUG_VALUE: decode_one_slice:currSlice <- $rbx
	#DEBUG_VALUE: decode_one_slice:p_Vid <- $r14
	#DEBUG_VALUE: decode_one_slice:end_of_slice <- 0
	#DEBUG_VALUE: init_cur_imgy:currSlice <- $rbx
	#DEBUG_VALUE: init_cur_imgy:p_Vid <- $r14
	#DEBUG_VALUE: vidref <- $rax
	#DEBUG_VALUE: init_cur_imgy:j <- 3
	#DEBUG_VALUE: init_cur_imgy:i <- [DW_OP_constu 1, DW_OP_or, DW_OP_stack_value] $rsi
	.loc	0 2344 41 is_stmt 1             # ldecod_src/image.c:2344:41
	addq	$2, %rsi
.Ltmp390:
	#DEBUG_VALUE: init_cur_imgy:i <- $rsi
.LBB4_31:                               # %for.body7.3.i
                                        # =>This Inner Loop Header: Depth=1
	#DEBUG_VALUE: decode_one_slice:currSlice <- $rbx
	#DEBUG_VALUE: decode_one_slice:p_Vid <- $r14
	#DEBUG_VALUE: decode_one_slice:end_of_slice <- 0
	#DEBUG_VALUE: init_cur_imgy:currSlice <- $rbx
	#DEBUG_VALUE: init_cur_imgy:p_Vid <- $r14
	#DEBUG_VALUE: vidref <- $rax
	#DEBUG_VALUE: init_cur_imgy:j <- 3
	#DEBUG_VALUE: init_cur_imgy:i <- $rsi
	.loc	0 2345 39                       # ldecod_src/image.c:2345:39
	movq	288(%rbx), %rdi
	movq	(%rdi,%rsi,8), %rdi
.Ltmp391:
	#DEBUG_VALUE: curr_ref <- $rdi
	.loc	0 2346 15                       # ldecod_src/image.c:2346:15
	testq	%rdi, %rdi
.Ltmp392:
	.loc	0 2346 15 is_stmt 0             # ldecod_src/image.c:2346:15
	je	.LBB4_33
.Ltmp393:
# %bb.32:                               # %if.then10.3.i
                                        #   in Loop: Header=BB4_31 Depth=1
	#DEBUG_VALUE: decode_one_slice:currSlice <- $rbx
	#DEBUG_VALUE: decode_one_slice:p_Vid <- $r14
	#DEBUG_VALUE: decode_one_slice:end_of_slice <- 0
	#DEBUG_VALUE: init_cur_imgy:currSlice <- $rbx
	#DEBUG_VALUE: init_cur_imgy:p_Vid <- $r14
	#DEBUG_VALUE: vidref <- $rax
	#DEBUG_VALUE: init_cur_imgy:j <- 3
	#DEBUG_VALUE: init_cur_imgy:i <- $rsi
	#DEBUG_VALUE: curr_ref <- $rdi
	.loc	0 0 0                           # ldecod_src/image.c:0:0
	cmpl	%edx, %ecx
	setl	%r8b
.Ltmp394:
	.loc	0 2347 38 is_stmt 1             # ldecod_src/image.c:2347:38
	cmpq	%rax, %rdi
	sete	%r9b
	andb	%r8b, %r9b
	movzbl	%r9b, %r8d
	.loc	0 2347 30 is_stmt 0             # ldecod_src/image.c:2347:30
	movl	%r8d, 384(%rdi)
	.loc	0 2348 44 is_stmt 1             # ldecod_src/image.c:2348:44
	movq	128(%rdi), %r8
	.loc	0 2348 32 is_stmt 0             # ldecod_src/image.c:2348:32
	movq	%r8, 376(%rdi)
.Ltmp395:
.LBB4_33:                               # %if.end.3.i
                                        #   in Loop: Header=BB4_31 Depth=1
	#DEBUG_VALUE: decode_one_slice:currSlice <- $rbx
	#DEBUG_VALUE: decode_one_slice:p_Vid <- $r14
	#DEBUG_VALUE: decode_one_slice:end_of_slice <- 0
	#DEBUG_VALUE: init_cur_imgy:currSlice <- $rbx
	#DEBUG_VALUE: init_cur_imgy:p_Vid <- $r14
	#DEBUG_VALUE: vidref <- $rax
	#DEBUG_VALUE: init_cur_imgy:j <- 3
	#DEBUG_VALUE: init_cur_imgy:i <- $rsi
	#DEBUG_VALUE: init_cur_imgy:i <- [DW_OP_constu 1, DW_OP_or, DW_OP_stack_value] $rsi
	.loc	0 2344 23 is_stmt 1             # ldecod_src/image.c:2344:23
	cmpq	$32, %rsi
.Ltmp396:
	.loc	0 2344 9 is_stmt 0              # ldecod_src/image.c:2344:9
	je	.LBB4_37
.Ltmp397:
# %bb.34:                               # %for.body7.3.i.1
                                        #   in Loop: Header=BB4_31 Depth=1
	#DEBUG_VALUE: decode_one_slice:currSlice <- $rbx
	#DEBUG_VALUE: decode_one_slice:p_Vid <- $r14
	#DEBUG_VALUE: decode_one_slice:end_of_slice <- 0
	#DEBUG_VALUE: init_cur_imgy:currSlice <- $rbx
	#DEBUG_VALUE: init_cur_imgy:p_Vid <- $r14
	#DEBUG_VALUE: vidref <- $rax
	#DEBUG_VALUE: init_cur_imgy:j <- 3
	#DEBUG_VALUE: init_cur_imgy:i <- [DW_OP_constu 1, DW_OP_or, DW_OP_stack_value] $rsi
	#DEBUG_VALUE: init_cur_imgy:i <- [DW_OP_constu 1, DW_OP_or, DW_OP_stack_value] $rsi
	.loc	0 2345 39 is_stmt 1             # ldecod_src/image.c:2345:39
	movq	288(%rbx), %rdi
	movq	8(%rdi,%rsi,8), %rdi
.Ltmp398:
	#DEBUG_VALUE: curr_ref <- $rdi
	.loc	0 2346 15                       # ldecod_src/image.c:2346:15
	testq	%rdi, %rdi
.Ltmp399:
	.loc	0 2346 15 is_stmt 0             # ldecod_src/image.c:2346:15
	je	.LBB4_36
.Ltmp400:
# %bb.35:                               # %if.then10.3.i.1
                                        #   in Loop: Header=BB4_31 Depth=1
	#DEBUG_VALUE: decode_one_slice:currSlice <- $rbx
	#DEBUG_VALUE: decode_one_slice:p_Vid <- $r14
	#DEBUG_VALUE: decode_one_slice:end_of_slice <- 0
	#DEBUG_VALUE: init_cur_imgy:currSlice <- $rbx
	#DEBUG_VALUE: init_cur_imgy:p_Vid <- $r14
	#DEBUG_VALUE: vidref <- $rax
	#DEBUG_VALUE: init_cur_imgy:j <- 3
	#DEBUG_VALUE: init_cur_imgy:i <- [DW_OP_constu 1, DW_OP_or, DW_OP_stack_value] $rsi
	#DEBUG_VALUE: curr_ref <- $rdi
	.loc	0 0 0                           # ldecod_src/image.c:0:0
	cmpl	%edx, %ecx
	setl	%r8b
.Ltmp401:
	.loc	0 2347 38 is_stmt 1             # ldecod_src/image.c:2347:38
	cmpq	%rax, %rdi
	sete	%r9b
	andb	%r8b, %r9b
	movzbl	%r9b, %r8d
	.loc	0 2347 30 is_stmt 0             # ldecod_src/image.c:2347:30
	movl	%r8d, 384(%rdi)
	.loc	0 2348 44 is_stmt 1             # ldecod_src/image.c:2348:44
	movq	128(%rdi), %r8
	.loc	0 2348 32 is_stmt 0             # ldecod_src/image.c:2348:32
	movq	%r8, 376(%rdi)
	jmp	.LBB4_36
.Ltmp402:
.LBB4_37:                               # %for.inc14.3.i
	#DEBUG_VALUE: decode_one_slice:currSlice <- $rbx
	#DEBUG_VALUE: decode_one_slice:p_Vid <- $r14
	#DEBUG_VALUE: decode_one_slice:end_of_slice <- 0
	#DEBUG_VALUE: init_cur_imgy:currSlice <- $rbx
	#DEBUG_VALUE: init_cur_imgy:p_Vid <- $r14
	#DEBUG_VALUE: vidref <- $rax
	#DEBUG_VALUE: init_cur_imgy:j <- 3
	#DEBUG_VALUE: init_cur_imgy:i <- [DW_OP_constu 1, DW_OP_or, DW_OP_stack_value] $rsi
	.loc	0 0 32                          # ldecod_src/image.c:0:32
	xorl	%esi, %esi
.Ltmp403:
	#DEBUG_VALUE: init_cur_imgy:j <- 4
	#DEBUG_VALUE: init_cur_imgy:i <- 0
	jmp	.LBB4_38
.Ltmp404:
	.p2align	4, 0x90
.LBB4_43:                               # %if.end.4.i.1
                                        #   in Loop: Header=BB4_38 Depth=1
	#DEBUG_VALUE: decode_one_slice:currSlice <- $rbx
	#DEBUG_VALUE: decode_one_slice:p_Vid <- $r14
	#DEBUG_VALUE: decode_one_slice:end_of_slice <- 0
	#DEBUG_VALUE: init_cur_imgy:currSlice <- $rbx
	#DEBUG_VALUE: init_cur_imgy:p_Vid <- $r14
	#DEBUG_VALUE: vidref <- $rax
	#DEBUG_VALUE: init_cur_imgy:j <- 4
	#DEBUG_VALUE: init_cur_imgy:i <- [DW_OP_constu 1, DW_OP_or, DW_OP_stack_value] $rsi
	.loc	0 2344 41 is_stmt 1             # ldecod_src/image.c:2344:41
	addq	$2, %rsi
.Ltmp405:
	#DEBUG_VALUE: init_cur_imgy:i <- $rsi
.LBB4_38:                               # %for.body7.4.i
                                        # =>This Inner Loop Header: Depth=1
	#DEBUG_VALUE: decode_one_slice:currSlice <- $rbx
	#DEBUG_VALUE: decode_one_slice:p_Vid <- $r14
	#DEBUG_VALUE: decode_one_slice:end_of_slice <- 0
	#DEBUG_VALUE: init_cur_imgy:currSlice <- $rbx
	#DEBUG_VALUE: init_cur_imgy:p_Vid <- $r14
	#DEBUG_VALUE: vidref <- $rax
	#DEBUG_VALUE: init_cur_imgy:j <- 4
	#DEBUG_VALUE: init_cur_imgy:i <- $rsi
	.loc	0 2345 39                       # ldecod_src/image.c:2345:39
	movq	296(%rbx), %rdi
	movq	(%rdi,%rsi,8), %rdi
.Ltmp406:
	#DEBUG_VALUE: curr_ref <- $rdi
	.loc	0 2346 15                       # ldecod_src/image.c:2346:15
	testq	%rdi, %rdi
.Ltmp407:
	.loc	0 2346 15 is_stmt 0             # ldecod_src/image.c:2346:15
	je	.LBB4_40
.Ltmp408:
# %bb.39:                               # %if.then10.4.i
                                        #   in Loop: Header=BB4_38 Depth=1
	#DEBUG_VALUE: decode_one_slice:currSlice <- $rbx
	#DEBUG_VALUE: decode_one_slice:p_Vid <- $r14
	#DEBUG_VALUE: decode_one_slice:end_of_slice <- 0
	#DEBUG_VALUE: init_cur_imgy:currSlice <- $rbx
	#DEBUG_VALUE: init_cur_imgy:p_Vid <- $r14
	#DEBUG_VALUE: vidref <- $rax
	#DEBUG_VALUE: init_cur_imgy:j <- 4
	#DEBUG_VALUE: init_cur_imgy:i <- $rsi
	#DEBUG_VALUE: curr_ref <- $rdi
	.loc	0 0 0                           # ldecod_src/image.c:0:0
	cmpl	%edx, %ecx
	setl	%r8b
.Ltmp409:
	.loc	0 2347 38 is_stmt 1             # ldecod_src/image.c:2347:38
	cmpq	%rax, %rdi
	sete	%r9b
	andb	%r8b, %r9b
	movzbl	%r9b, %r8d
	.loc	0 2347 30 is_stmt 0             # ldecod_src/image.c:2347:30
	movl	%r8d, 384(%rdi)
	.loc	0 2348 44 is_stmt 1             # ldecod_src/image.c:2348:44
	movq	128(%rdi), %r8
	.loc	0 2348 32 is_stmt 0             # ldecod_src/image.c:2348:32
	movq	%r8, 376(%rdi)
.Ltmp410:
.LBB4_40:                               # %if.end.4.i
                                        #   in Loop: Header=BB4_38 Depth=1
	#DEBUG_VALUE: decode_one_slice:currSlice <- $rbx
	#DEBUG_VALUE: decode_one_slice:p_Vid <- $r14
	#DEBUG_VALUE: decode_one_slice:end_of_slice <- 0
	#DEBUG_VALUE: init_cur_imgy:currSlice <- $rbx
	#DEBUG_VALUE: init_cur_imgy:p_Vid <- $r14
	#DEBUG_VALUE: vidref <- $rax
	#DEBUG_VALUE: init_cur_imgy:j <- 4
	#DEBUG_VALUE: init_cur_imgy:i <- $rsi
	#DEBUG_VALUE: init_cur_imgy:i <- [DW_OP_constu 1, DW_OP_or, DW_OP_stack_value] $rsi
	.loc	0 2344 23 is_stmt 1             # ldecod_src/image.c:2344:23
	cmpq	$32, %rsi
.Ltmp411:
	.loc	0 2344 9 is_stmt 0              # ldecod_src/image.c:2344:9
	je	.LBB4_44
.Ltmp412:
# %bb.41:                               # %for.body7.4.i.1
                                        #   in Loop: Header=BB4_38 Depth=1
	#DEBUG_VALUE: decode_one_slice:currSlice <- $rbx
	#DEBUG_VALUE: decode_one_slice:p_Vid <- $r14
	#DEBUG_VALUE: decode_one_slice:end_of_slice <- 0
	#DEBUG_VALUE: init_cur_imgy:currSlice <- $rbx
	#DEBUG_VALUE: init_cur_imgy:p_Vid <- $r14
	#DEBUG_VALUE: vidref <- $rax
	#DEBUG_VALUE: init_cur_imgy:j <- 4
	#DEBUG_VALUE: init_cur_imgy:i <- [DW_OP_constu 1, DW_OP_or, DW_OP_stack_value] $rsi
	#DEBUG_VALUE: init_cur_imgy:i <- [DW_OP_constu 1, DW_OP_or, DW_OP_stack_value] $rsi
	.loc	0 2345 39 is_stmt 1             # ldecod_src/image.c:2345:39
	movq	296(%rbx), %rdi
	movq	8(%rdi,%rsi,8), %rdi
.Ltmp413:
	#DEBUG_VALUE: curr_ref <- $rdi
	.loc	0 2346 15                       # ldecod_src/image.c:2346:15
	testq	%rdi, %rdi
.Ltmp414:
	.loc	0 2346 15 is_stmt 0             # ldecod_src/image.c:2346:15
	je	.LBB4_43
.Ltmp415:
# %bb.42:                               # %if.then10.4.i.1
                                        #   in Loop: Header=BB4_38 Depth=1
	#DEBUG_VALUE: decode_one_slice:currSlice <- $rbx
	#DEBUG_VALUE: decode_one_slice:p_Vid <- $r14
	#DEBUG_VALUE: decode_one_slice:end_of_slice <- 0
	#DEBUG_VALUE: init_cur_imgy:currSlice <- $rbx
	#DEBUG_VALUE: init_cur_imgy:p_Vid <- $r14
	#DEBUG_VALUE: vidref <- $rax
	#DEBUG_VALUE: init_cur_imgy:j <- 4
	#DEBUG_VALUE: init_cur_imgy:i <- [DW_OP_constu 1, DW_OP_or, DW_OP_stack_value] $rsi
	#DEBUG_VALUE: curr_ref <- $rdi
	.loc	0 0 0                           # ldecod_src/image.c:0:0
	cmpl	%edx, %ecx
	setl	%r8b
.Ltmp416:
	.loc	0 2347 38 is_stmt 1             # ldecod_src/image.c:2347:38
	cmpq	%rax, %rdi
	sete	%r9b
	andb	%r8b, %r9b
	movzbl	%r9b, %r8d
	.loc	0 2347 30 is_stmt 0             # ldecod_src/image.c:2347:30
	movl	%r8d, 384(%rdi)
	.loc	0 2348 44 is_stmt 1             # ldecod_src/image.c:2348:44
	movq	128(%rdi), %r8
	.loc	0 2348 32 is_stmt 0             # ldecod_src/image.c:2348:32
	movq	%r8, 376(%rdi)
	jmp	.LBB4_43
.Ltmp417:
.LBB4_44:                               # %for.inc14.4.i
	#DEBUG_VALUE: decode_one_slice:currSlice <- $rbx
	#DEBUG_VALUE: decode_one_slice:p_Vid <- $r14
	#DEBUG_VALUE: decode_one_slice:end_of_slice <- 0
	#DEBUG_VALUE: init_cur_imgy:currSlice <- $rbx
	#DEBUG_VALUE: init_cur_imgy:p_Vid <- $r14
	#DEBUG_VALUE: vidref <- $rax
	#DEBUG_VALUE: init_cur_imgy:j <- 4
	#DEBUG_VALUE: init_cur_imgy:i <- [DW_OP_constu 1, DW_OP_or, DW_OP_stack_value] $rsi
	.loc	0 0 32                          # ldecod_src/image.c:0:32
	xorl	%esi, %esi
.Ltmp418:
	#DEBUG_VALUE: init_cur_imgy:j <- 5
	#DEBUG_VALUE: init_cur_imgy:i <- 0
	jmp	.LBB4_45
.Ltmp419:
	.p2align	4, 0x90
.LBB4_50:                               # %if.end.5.i.1
                                        #   in Loop: Header=BB4_45 Depth=1
	#DEBUG_VALUE: decode_one_slice:currSlice <- $rbx
	#DEBUG_VALUE: decode_one_slice:p_Vid <- $r14
	#DEBUG_VALUE: decode_one_slice:end_of_slice <- 0
	#DEBUG_VALUE: init_cur_imgy:currSlice <- $rbx
	#DEBUG_VALUE: init_cur_imgy:p_Vid <- $r14
	#DEBUG_VALUE: vidref <- $rax
	#DEBUG_VALUE: init_cur_imgy:j <- 5
	#DEBUG_VALUE: init_cur_imgy:i <- [DW_OP_constu 1, DW_OP_or, DW_OP_stack_value] $rsi
	.loc	0 2344 41 is_stmt 1             # ldecod_src/image.c:2344:41
	addq	$2, %rsi
.Ltmp420:
	#DEBUG_VALUE: init_cur_imgy:i <- $rsi
.LBB4_45:                               # %for.body7.5.i
                                        # =>This Inner Loop Header: Depth=1
	#DEBUG_VALUE: decode_one_slice:currSlice <- $rbx
	#DEBUG_VALUE: decode_one_slice:p_Vid <- $r14
	#DEBUG_VALUE: decode_one_slice:end_of_slice <- 0
	#DEBUG_VALUE: init_cur_imgy:currSlice <- $rbx
	#DEBUG_VALUE: init_cur_imgy:p_Vid <- $r14
	#DEBUG_VALUE: vidref <- $rax
	#DEBUG_VALUE: init_cur_imgy:j <- 5
	#DEBUG_VALUE: init_cur_imgy:i <- $rsi
	.loc	0 2345 39                       # ldecod_src/image.c:2345:39
	movq	304(%rbx), %rdi
	movq	(%rdi,%rsi,8), %rdi
.Ltmp421:
	#DEBUG_VALUE: curr_ref <- $rdi
	.loc	0 2346 15                       # ldecod_src/image.c:2346:15
	testq	%rdi, %rdi
.Ltmp422:
	.loc	0 2346 15 is_stmt 0             # ldecod_src/image.c:2346:15
	je	.LBB4_47
.Ltmp423:
# %bb.46:                               # %if.then10.5.i
                                        #   in Loop: Header=BB4_45 Depth=1
	#DEBUG_VALUE: decode_one_slice:currSlice <- $rbx
	#DEBUG_VALUE: decode_one_slice:p_Vid <- $r14
	#DEBUG_VALUE: decode_one_slice:end_of_slice <- 0
	#DEBUG_VALUE: init_cur_imgy:currSlice <- $rbx
	#DEBUG_VALUE: init_cur_imgy:p_Vid <- $r14
	#DEBUG_VALUE: vidref <- $rax
	#DEBUG_VALUE: init_cur_imgy:j <- 5
	#DEBUG_VALUE: init_cur_imgy:i <- $rsi
	#DEBUG_VALUE: curr_ref <- $rdi
	.loc	0 0 0                           # ldecod_src/image.c:0:0
	cmpl	%edx, %ecx
	setl	%r8b
.Ltmp424:
	.loc	0 2347 38 is_stmt 1             # ldecod_src/image.c:2347:38
	cmpq	%rax, %rdi
	sete	%r9b
	andb	%r8b, %r9b
	movzbl	%r9b, %r8d
	.loc	0 2347 30 is_stmt 0             # ldecod_src/image.c:2347:30
	movl	%r8d, 384(%rdi)
	.loc	0 2348 44 is_stmt 1             # ldecod_src/image.c:2348:44
	movq	128(%rdi), %r8
	.loc	0 2348 32 is_stmt 0             # ldecod_src/image.c:2348:32
	movq	%r8, 376(%rdi)
.Ltmp425:
.LBB4_47:                               # %if.end.5.i
                                        #   in Loop: Header=BB4_45 Depth=1
	#DEBUG_VALUE: decode_one_slice:currSlice <- $rbx
	#DEBUG_VALUE: decode_one_slice:p_Vid <- $r14
	#DEBUG_VALUE: decode_one_slice:end_of_slice <- 0
	#DEBUG_VALUE: init_cur_imgy:currSlice <- $rbx
	#DEBUG_VALUE: init_cur_imgy:p_Vid <- $r14
	#DEBUG_VALUE: vidref <- $rax
	#DEBUG_VALUE: init_cur_imgy:j <- 5
	#DEBUG_VALUE: init_cur_imgy:i <- $rsi
	#DEBUG_VALUE: init_cur_imgy:i <- [DW_OP_constu 1, DW_OP_or, DW_OP_stack_value] $rsi
	.loc	0 2344 23 is_stmt 1             # ldecod_src/image.c:2344:23
	cmpq	$32, %rsi
.Ltmp426:
	.loc	0 2344 9 is_stmt 0              # ldecod_src/image.c:2344:9
	je	.LBB4_60
.Ltmp427:
# %bb.48:                               # %for.body7.5.i.1
                                        #   in Loop: Header=BB4_45 Depth=1
	#DEBUG_VALUE: decode_one_slice:currSlice <- $rbx
	#DEBUG_VALUE: decode_one_slice:p_Vid <- $r14
	#DEBUG_VALUE: decode_one_slice:end_of_slice <- 0
	#DEBUG_VALUE: init_cur_imgy:currSlice <- $rbx
	#DEBUG_VALUE: init_cur_imgy:p_Vid <- $r14
	#DEBUG_VALUE: vidref <- $rax
	#DEBUG_VALUE: init_cur_imgy:j <- 5
	#DEBUG_VALUE: init_cur_imgy:i <- [DW_OP_constu 1, DW_OP_or, DW_OP_stack_value] $rsi
	#DEBUG_VALUE: init_cur_imgy:i <- [DW_OP_constu 1, DW_OP_or, DW_OP_stack_value] $rsi
	.loc	0 2345 39 is_stmt 1             # ldecod_src/image.c:2345:39
	movq	304(%rbx), %rdi
	movq	8(%rdi,%rsi,8), %rdi
.Ltmp428:
	#DEBUG_VALUE: curr_ref <- $rdi
	.loc	0 2346 15                       # ldecod_src/image.c:2346:15
	testq	%rdi, %rdi
.Ltmp429:
	.loc	0 2346 15 is_stmt 0             # ldecod_src/image.c:2346:15
	je	.LBB4_50
.Ltmp430:
# %bb.49:                               # %if.then10.5.i.1
                                        #   in Loop: Header=BB4_45 Depth=1
	#DEBUG_VALUE: decode_one_slice:currSlice <- $rbx
	#DEBUG_VALUE: decode_one_slice:p_Vid <- $r14
	#DEBUG_VALUE: decode_one_slice:end_of_slice <- 0
	#DEBUG_VALUE: init_cur_imgy:currSlice <- $rbx
	#DEBUG_VALUE: init_cur_imgy:p_Vid <- $r14
	#DEBUG_VALUE: vidref <- $rax
	#DEBUG_VALUE: init_cur_imgy:j <- 5
	#DEBUG_VALUE: init_cur_imgy:i <- [DW_OP_constu 1, DW_OP_or, DW_OP_stack_value] $rsi
	#DEBUG_VALUE: curr_ref <- $rdi
	.loc	0 0 0                           # ldecod_src/image.c:0:0
	cmpl	%edx, %ecx
	setl	%r8b
.Ltmp431:
	.loc	0 2347 38 is_stmt 1             # ldecod_src/image.c:2347:38
	cmpq	%rax, %rdi
	sete	%r9b
	andb	%r8b, %r9b
	movzbl	%r9b, %r8d
	.loc	0 2347 30 is_stmt 0             # ldecod_src/image.c:2347:30
	movl	%r8d, 384(%rdi)
	.loc	0 2348 44 is_stmt 1             # ldecod_src/image.c:2348:44
	movq	128(%rdi), %r8
	.loc	0 2348 32 is_stmt 0             # ldecod_src/image.c:2348:32
	movq	%r8, 376(%rdi)
	jmp	.LBB4_50
.Ltmp432:
.Lfunc_end4:
	.size	decode_one_slice, .Lfunc_end4-decode_one_slice
	.cfi_endproc
	.file	25 "ldecod_src/inc" "macroblock.h" md5 0x17b4b8d6c8aaa60d7374ecd392230b5d
                                        # -- End function
	.globl	decode_one_frame                # -- Begin function decode_one_frame
	.p2align	4, 0x90
	.type	decode_one_frame,@function
decode_one_frame:                       # @decode_one_frame
.Lfunc_begin5:
	.loc	0 758 0 is_stmt 1               # ldecod_src/image.c:758:0
	.cfi_startproc
# %bb.0:                                # %entry
	#DEBUG_VALUE: decode_one_frame:pDecoder <- $rdi
	pushq	%rbp
	.cfi_def_cfa_offset 16
	pushq	%r15
	.cfi_def_cfa_offset 24
	pushq	%r14
	.cfi_def_cfa_offset 32
	pushq	%r13
	.cfi_def_cfa_offset 40
	pushq	%r12
	.cfi_def_cfa_offset 48
	pushq	%rbx
	.cfi_def_cfa_offset 56
	subq	$2232, %rsp                     # imm = 0x8B8
	.cfi_def_cfa_offset 2288
	.cfi_offset %rbx, -56
	.cfi_offset %r12, -48
	.cfi_offset %r13, -40
	.cfi_offset %r14, -32
	.cfi_offset %r15, -24
	.cfi_offset %rbp, -16
	#DEBUG_VALUE: tmpPPS <- [DW_OP_plus_uconst 72, DW_OP_deref, DW_OP_LLVM_fragment 0 17280] $rsp
	.loc	0 759 38 prologue_end           # ldecod_src/image.c:759:38
	movq	8(%rdi), %rbx
.Ltmp433:
	#DEBUG_VALUE: decode_one_frame:p_Vid <- $rbx
	.loc	0 760 35                        # ldecod_src/image.c:760:35
	movq	(%rbx), %r13
.Ltmp434:
	#DEBUG_VALUE: decode_one_frame:p_Inp <- $r13
	.loc	0 763 32                        # ldecod_src/image.c:763:32
	movq	848736(%rbx), %r14
.Ltmp435:
	#DEBUG_VALUE: decode_one_frame:ppSliceList <- $r14
	#DEBUG_VALUE: decode_one_frame:current_header <- 0
	.loc	0 769 29                        # ldecod_src/image.c:769:29
	movl	$0, 848728(%rbx)
	.loc	0 770 21                        # ldecod_src/image.c:770:21
	movq	$0, 848716(%rbx)
.Ltmp436:
	.loc	0 771 6                         # ldecod_src/image.c:771:6
	cmpl	$0, 848872(%rbx)
.Ltmp437:
	.loc	0 771 6 is_stmt 0               # ldecod_src/image.c:771:6
	je	.LBB5_4
.Ltmp438:
# %bb.1:                                # %if.then
	#DEBUG_VALUE: decode_one_frame:pDecoder <- $rdi
	#DEBUG_VALUE: decode_one_frame:p_Vid <- $rbx
	#DEBUG_VALUE: decode_one_frame:p_Inp <- $r13
	#DEBUG_VALUE: decode_one_frame:ppSliceList <- $r14
	#DEBUG_VALUE: decode_one_frame:current_header <- 0
	.loc	0 773 15 is_stmt 1              # ldecod_src/image.c:773:15
	movq	856872(%rbx), %rdx
	.loc	0 773 8 is_stmt 0               # ldecod_src/image.c:773:8
	cmpl	$0, (%rdx)
	.loc	0 773 31                        # ldecod_src/image.c:773:31
	je	.LBB5_6
.Ltmp439:
# %bb.2:                                # %land.lhs.true
	#DEBUG_VALUE: decode_one_frame:pDecoder <- $rdi
	#DEBUG_VALUE: decode_one_frame:p_Vid <- $rbx
	#DEBUG_VALUE: decode_one_frame:p_Inp <- $r13
	#DEBUG_VALUE: decode_one_frame:ppSliceList <- $r14
	#DEBUG_VALUE: decode_one_frame:current_header <- 0
	.loc	0 773 57                        # ldecod_src/image.c:773:57
	movl	4(%rdx), %esi
	.loc	0 773 88                        # ldecod_src/image.c:773:88
	movq	848880(%rbx), %rax
	.loc	0 773 78                        # ldecod_src/image.c:773:78
	cmpl	1228(%rax), %esi
.Ltmp440:
	.loc	0 773 8                         # ldecod_src/image.c:773:8
	jne	.LBB5_6
.Ltmp441:
# %bb.3:                                # %if.then7
	#DEBUG_VALUE: decode_one_frame:pDecoder <- $rdi
	#DEBUG_VALUE: decode_one_frame:p_Vid <- $rbx
	#DEBUG_VALUE: decode_one_frame:p_Inp <- $r13
	#DEBUG_VALUE: decode_one_frame:ppSliceList <- $r14
	#DEBUG_VALUE: decode_one_frame:current_header <- 0
	.loc	0 775 7 is_stmt 1               # ldecod_src/image.c:775:7
	movq	%rbx, %rdi
.Ltmp442:
	#DEBUG_VALUE: decode_one_frame:pDecoder <- [DW_OP_LLVM_entry_value 1] $rdi
	callq	MakePPSavailable@PLT
.Ltmp443:
	.loc	0 776 14                        # ldecod_src/image.c:776:14
	movq	856872(%rbx), %rax
	.loc	0 776 29 is_stmt 0              # ldecod_src/image.c:776:29
	movl	$0, (%rax)
.Ltmp444:
	.loc	0 781 36 is_stmt 1              # ldecod_src/image.c:781:36
	movslq	848720(%rbx), %rax
	jmp	.LBB5_7
.Ltmp445:
.LBB5_6:
	#DEBUG_VALUE: decode_one_frame:pDecoder <- $rdi
	#DEBUG_VALUE: decode_one_frame:p_Vid <- $rbx
	#DEBUG_VALUE: decode_one_frame:p_Inp <- $r13
	#DEBUG_VALUE: decode_one_frame:ppSliceList <- $r14
	#DEBUG_VALUE: decode_one_frame:current_header <- 0
	.loc	0 0 36 is_stmt 0                # ldecod_src/image.c:0:36
	xorl	%eax, %eax
.Ltmp446:
.LBB5_7:                                # %if.end
	#DEBUG_VALUE: decode_one_frame:pDecoder <- [DW_OP_LLVM_entry_value 1] $rdi
	#DEBUG_VALUE: decode_one_frame:p_Vid <- $rbx
	#DEBUG_VALUE: decode_one_frame:p_Inp <- $r13
	#DEBUG_VALUE: decode_one_frame:ppSliceList <- $r14
	#DEBUG_VALUE: decode_one_frame:current_header <- 0
	.loc	0 781 17                        # ldecod_src/image.c:781:17
	movq	(%r14,%rax,8), %rcx
.Ltmp447:
	#DEBUG_VALUE: decode_one_frame:currSlice <- $rcx
	.loc	0 782 53 is_stmt 1              # ldecod_src/image.c:782:53
	movq	848880(%rbx), %rdx
	.loc	0 782 44 is_stmt 0              # ldecod_src/image.c:782:44
	movq	%rdx, (%r14,%rax,8)
	.loc	0 783 23 is_stmt 1              # ldecod_src/image.c:783:23
	movq	%rcx, 848880(%rbx)
	.loc	0 786 36                        # ldecod_src/image.c:786:36
	movslq	848720(%rbx), %rax
	.loc	0 786 17 is_stmt 0              # ldecod_src/image.c:786:17
	movq	(%r14,%rax,8), %r15
.Ltmp448:
	#DEBUG_VALUE: decode_one_frame:currSlice <- $r15
	.loc	0 788 5 is_stmt 1               # ldecod_src/image.c:788:5
	movq	%r15, %rdi
	callq	UseParameterSet@PLT
.Ltmp449:
	.loc	0 790 5                         # ldecod_src/image.c:790:5
	movq	%rbx, %rdi
	movq	%r15, %rsi
	movq	%r13, %rdx
	callq	init_picture
.Ltmp450:
	.loc	0 792 30                        # ldecod_src/image.c:792:30
	incl	848720(%rbx)
	movl	$3, %r12d
.Ltmp451:
	#DEBUG_VALUE: decode_one_frame:current_header <- 3
	.loc	0 0 30 is_stmt 0                # ldecod_src/image.c:0:30
	jmp	.LBB5_8
.Ltmp452:
.LBB5_4:
	#DEBUG_VALUE: decode_one_frame:pDecoder <- $rdi
	#DEBUG_VALUE: tmpPPS <- [DW_OP_plus_uconst 72, DW_OP_deref, DW_OP_LLVM_fragment 0 17280] $rsp
	#DEBUG_VALUE: decode_one_frame:p_Vid <- $rbx
	#DEBUG_VALUE: decode_one_frame:p_Inp <- $r13
	#DEBUG_VALUE: decode_one_frame:ppSliceList <- $r14
	#DEBUG_VALUE: decode_one_frame:current_header <- 0
	xorl	%r12d, %r12d
.Ltmp453:
.LBB5_8:                                # %if.end23
	#DEBUG_VALUE: decode_one_frame:pDecoder <- [DW_OP_LLVM_entry_value 1] $rdi
	#DEBUG_VALUE: decode_one_frame:p_Vid <- $rbx
	#DEBUG_VALUE: decode_one_frame:p_Inp <- $r13
	#DEBUG_VALUE: decode_one_frame:ppSliceList <- $r14
	#DEBUG_VALUE: decode_one_frame:current_header <- $r12d
	leaq	856456(%rbx), %rax
	movq	%rax, 8(%rsp)                   # 8-byte Spill
	movl	$4294967295, %r15d              # imm = 0xFFFFFFFF
	jmp	.LBB5_10
.Ltmp454:
.LBB5_9:                                # %CopySliceInfo.exit
                                        #   in Loop: Header=BB5_10 Depth=1
	#DEBUG_VALUE: decode_one_frame:pDecoder <- [DW_OP_LLVM_entry_value 1] $rdi
	#DEBUG_VALUE: decode_one_frame:p_Vid <- $rbx
	#DEBUG_VALUE: decode_one_frame:p_Inp <- $r13
	#DEBUG_VALUE: decode_one_frame:ppSliceList <- $r14
	#DEBUG_VALUE: decode_one_frame:current_header <- $r12d
	#DEBUG_VALUE: decode_one_frame:currSlice <- $rbp
	#DEBUG_VALUE: CopySliceInfo:p_old_slice <- $rax
	#DEBUG_VALUE: CopySliceInfo:currSlice <- $rbp
	.loc	0 2173 37 is_stmt 1             # ldecod_src/image.c:2173:37
	movl	1176(%rbp), %ecx
	.loc	0 2173 24 is_stmt 0             # ldecod_src/image.c:2173:24
	movl	%ecx, 40(%rax)
	.loc	0 2174 45 is_stmt 1             # ldecod_src/image.c:2174:45
	movl	1180(%rbp), %ecx
	.loc	0 2174 32 is_stmt 0             # ldecod_src/image.c:2174:32
	movl	%ecx, 44(%rax)
	.loc	0 2175 45 is_stmt 1             # ldecod_src/image.c:2175:45
	movl	1184(%rbp), %ecx
	.loc	0 2175 32 is_stmt 0             # ldecod_src/image.c:2175:32
	movl	%ecx, 48(%rax)
.Ltmp455:
	.p2align	4, 0x90
.LBB5_10:                               # %while.cond
                                        # =>This Loop Header: Depth=1
                                        #     Child Loop BB5_22 Depth 2
	#DEBUG_VALUE: decode_one_frame:pDecoder <- [DW_OP_LLVM_entry_value 1] $rdi
	#DEBUG_VALUE: decode_one_frame:p_Vid <- $rbx
	#DEBUG_VALUE: decode_one_frame:p_Inp <- $r13
	#DEBUG_VALUE: decode_one_frame:ppSliceList <- $r14
	#DEBUG_VALUE: decode_one_frame:current_header <- $r12d
	#DEBUG_VALUE: decode_one_frame:ppSliceList <- $r14
	#DEBUG_VALUE: decode_one_frame:current_header <- $r12d
	.loc	0 795 31 is_stmt 1              # ldecod_src/image.c:795:31
	leal	-3(%r12), %eax
	cmpl	$-3, %eax
	.loc	0 795 3 is_stmt 0               # ldecod_src/image.c:795:3
	ja	.LBB5_49
.Ltmp456:
# %bb.11:                               # %while.body
                                        #   in Loop: Header=BB5_10 Depth=1
	#DEBUG_VALUE: decode_one_frame:pDecoder <- [DW_OP_LLVM_entry_value 1] $rdi
	#DEBUG_VALUE: decode_one_frame:p_Vid <- $rbx
	#DEBUG_VALUE: decode_one_frame:p_Inp <- $r13
	#DEBUG_VALUE: decode_one_frame:ppSliceList <- $r14
	#DEBUG_VALUE: decode_one_frame:current_header <- $r12d
	.loc	0 799 28 is_stmt 1              # ldecod_src/image.c:799:28
	movslq	848720(%rbx), %rax
	.loc	0 799 9 is_stmt 0               # ldecod_src/image.c:799:9
	movq	(%r14,%rax,8), %rbp
	testq	%rbp, %rbp
.Ltmp457:
	.loc	0 799 8                         # ldecod_src/image.c:799:8
	jne	.LBB5_13
.Ltmp458:
# %bb.12:                               # %if.then30
                                        #   in Loop: Header=BB5_10 Depth=1
	#DEBUG_VALUE: decode_one_frame:pDecoder <- [DW_OP_LLVM_entry_value 1] $rdi
	#DEBUG_VALUE: decode_one_frame:p_Vid <- $rbx
	#DEBUG_VALUE: decode_one_frame:p_Inp <- $r13
	#DEBUG_VALUE: decode_one_frame:ppSliceList <- $r14
	#DEBUG_VALUE: decode_one_frame:current_header <- $r12d
	.loc	0 801 48 is_stmt 1              # ldecod_src/image.c:801:48
	movq	%r13, %rdi
	movq	%rbx, %rsi
	callq	malloc_slice@PLT
.Ltmp459:
	.loc	0 801 26 is_stmt 0              # ldecod_src/image.c:801:26
	movslq	848720(%rbx), %rcx
	.loc	0 801 46                        # ldecod_src/image.c:801:46
	movq	%rax, (%r14,%rcx,8)
.Ltmp460:
	.loc	0 803 36 is_stmt 1              # ldecod_src/image.c:803:36
	movslq	848720(%rbx), %rax
	.loc	0 803 17 is_stmt 0              # ldecod_src/image.c:803:17
	movq	(%r14,%rax,8), %rbp
.Ltmp461:
.LBB5_13:                               # %if.end34
                                        #   in Loop: Header=BB5_10 Depth=1
	#DEBUG_VALUE: decode_one_frame:pDecoder <- [DW_OP_LLVM_entry_value 1] $rdi
	#DEBUG_VALUE: decode_one_frame:p_Vid <- $rbx
	#DEBUG_VALUE: decode_one_frame:p_Inp <- $r13
	#DEBUG_VALUE: decode_one_frame:ppSliceList <- $r14
	#DEBUG_VALUE: decode_one_frame:current_header <- $r12d
	#DEBUG_VALUE: decode_one_frame:currSlice <- $rbp
	.loc	0 806 22 is_stmt 1              # ldecod_src/image.c:806:22
	movq	%rbx, (%rbp)
	.loc	0 807 22                        # ldecod_src/image.c:807:22
	movq	%r13, 8(%rbp)
	.loc	0 808 31                        # ldecod_src/image.c:808:31
	movq	856656(%rbx), %rax
	.loc	0 808 22 is_stmt 0              # ldecod_src/image.c:808:22
	movq	%rax, 40(%rbp)
	.loc	0 809 28 is_stmt 1              # ldecod_src/image.c:809:28
	movl	$-8888, 208(%rbp)               # imm = 0xDD48
	.loc	0 810 27                        # ldecod_src/image.c:810:27
	movl	$0, 112(%rbp)
	.loc	0 811 26                        # ldecod_src/image.c:811:26
	movq	%r15, 13264(%rbp)
	.loc	0 813 31                        # ldecod_src/image.c:813:31
	movl	$0, 1240(%rbp)
	.loc	0 814 22                        # ldecod_src/image.c:814:22
	movq	%rbp, %rdi
	callq	read_new_slice
.Ltmp462:
	movl	%eax, %r12d
.Ltmp463:
	#DEBUG_VALUE: decode_one_frame:current_header <- $r12d
	.loc	0 816 31                        # ldecod_src/image.c:816:31
	movl	%eax, 204(%rbp)
.Ltmp464:
	#DEBUG_VALUE: Error_tracking:p_Vid <- $rbx
	#DEBUG_VALUE: Error_tracking:currSlice <- $rbp
	.loc	0 716 35                        # ldecod_src/image.c:716:35
	cmpl	$0, 220(%rbp)
.Ltmp465:
	.loc	0 716 6 is_stmt 0               # ldecod_src/image.c:716:6
	jne	.LBB5_15
.Ltmp466:
# %bb.14:                               # %if.end.i
                                        #   in Loop: Header=BB5_10 Depth=1
	#DEBUG_VALUE: decode_one_frame:pDecoder <- [DW_OP_LLVM_entry_value 1] $rdi
	#DEBUG_VALUE: decode_one_frame:p_Vid <- $rbx
	#DEBUG_VALUE: decode_one_frame:p_Inp <- $r13
	#DEBUG_VALUE: decode_one_frame:ppSliceList <- $r14
	#DEBUG_VALUE: decode_one_frame:current_header <- $r12d
	#DEBUG_VALUE: decode_one_frame:currSlice <- $rbp
	#DEBUG_VALUE: Error_tracking:p_Vid <- $rbx
	#DEBUG_VALUE: Error_tracking:currSlice <- $rbp
	.loc	0 718 31 is_stmt 1              # ldecod_src/image.c:718:31
	movabsq	$4294967297, %rax               # imm = 0x100000001
	movq	%rax, 851868(%rbx)
.Ltmp467:
	.loc	0 721 35                        # ldecod_src/image.c:721:35
	cmpl	$0, 220(%rbp)
	.loc	0 721 40 is_stmt 0              # ldecod_src/image.c:721:40
	je	.LBB5_18
.Ltmp468:
.LBB5_15:                               # %land.lhs.true13.i
                                        #   in Loop: Header=BB5_10 Depth=1
	#DEBUG_VALUE: decode_one_frame:pDecoder <- [DW_OP_LLVM_entry_value 1] $rdi
	#DEBUG_VALUE: decode_one_frame:p_Vid <- $rbx
	#DEBUG_VALUE: decode_one_frame:p_Inp <- $r13
	#DEBUG_VALUE: decode_one_frame:ppSliceList <- $r14
	#DEBUG_VALUE: decode_one_frame:current_header <- $r12d
	#DEBUG_VALUE: decode_one_frame:currSlice <- $rbp
	#DEBUG_VALUE: Error_tracking:p_Vid <- $rbx
	#DEBUG_VALUE: Error_tracking:currSlice <- $rbp
	.loc	0 731 60 is_stmt 1              # ldecod_src/image.c:731:60
	cmpl	$2, 848776(%rbx)
.Ltmp469:
	.loc	0 731 11 is_stmt 0              # ldecod_src/image.c:731:11
	je	.LBB5_24
.Ltmp470:
# %bb.16:                               # %if.then16.i
                                        #   in Loop: Header=BB5_10 Depth=1
	#DEBUG_VALUE: decode_one_frame:pDecoder <- [DW_OP_LLVM_entry_value 1] $rdi
	#DEBUG_VALUE: decode_one_frame:p_Vid <- $rbx
	#DEBUG_VALUE: decode_one_frame:p_Inp <- $r13
	#DEBUG_VALUE: decode_one_frame:ppSliceList <- $r14
	#DEBUG_VALUE: decode_one_frame:current_header <- $r12d
	#DEBUG_VALUE: decode_one_frame:currSlice <- $rbp
	#DEBUG_VALUE: Error_tracking:p_Vid <- $rbx
	#DEBUG_VALUE: Error_tracking:currSlice <- $rbp
	.loc	0 733 39 is_stmt 1              # ldecod_src/image.c:733:39
	movslq	232(%rbp), %rax
	.loc	0 733 64 is_stmt 0              # ldecod_src/image.c:733:64
	cmpl	$0, 13340(%rbp,%rax,4)
.Ltmp471:
	.loc	0 733 8                         # ldecod_src/image.c:733:8
	jne	.LBB5_24
.Ltmp472:
# %bb.17:                               # %if.then21.i
                                        #   in Loop: Header=BB5_10 Depth=1
	#DEBUG_VALUE: decode_one_frame:pDecoder <- [DW_OP_LLVM_entry_value 1] $rdi
	#DEBUG_VALUE: decode_one_frame:p_Vid <- $rbx
	#DEBUG_VALUE: decode_one_frame:p_Inp <- $r13
	#DEBUG_VALUE: decode_one_frame:ppSliceList <- $r14
	#DEBUG_VALUE: decode_one_frame:current_header <- $r12d
	#DEBUG_VALUE: decode_one_frame:currSlice <- $rbp
	#DEBUG_VALUE: Error_tracking:p_Vid <- $rbx
	#DEBUG_VALUE: Error_tracking:currSlice <- $rbp
	.loc	0 735 35 is_stmt 1              # ldecod_src/image.c:735:35
	movl	$0, 851872(%rbx)
	jmp	.LBB5_24
.Ltmp473:
.LBB5_18:                               # %land.lhs.true.i
                                        #   in Loop: Header=BB5_10 Depth=1
	#DEBUG_VALUE: decode_one_frame:pDecoder <- [DW_OP_LLVM_entry_value 1] $rdi
	#DEBUG_VALUE: decode_one_frame:p_Vid <- $rbx
	#DEBUG_VALUE: decode_one_frame:p_Inp <- $r13
	#DEBUG_VALUE: decode_one_frame:ppSliceList <- $r14
	#DEBUG_VALUE: decode_one_frame:current_header <- $r12d
	#DEBUG_VALUE: decode_one_frame:currSlice <- $rbp
	#DEBUG_VALUE: Error_tracking:p_Vid <- $rbx
	#DEBUG_VALUE: Error_tracking:currSlice <- $rbp
	.loc	0 721 55                        # ldecod_src/image.c:721:55
	cmpl	$2, 848776(%rbx)
.Ltmp474:
	.loc	0 721 6 is_stmt 0               # ldecod_src/image.c:721:6
	je	.LBB5_24
.Ltmp475:
# %bb.19:                               # %for.cond.preheader.i
                                        #   in Loop: Header=BB5_10 Depth=1
	#DEBUG_VALUE: decode_one_frame:pDecoder <- [DW_OP_LLVM_entry_value 1] $rdi
	#DEBUG_VALUE: decode_one_frame:p_Vid <- $rbx
	#DEBUG_VALUE: decode_one_frame:p_Inp <- $r13
	#DEBUG_VALUE: decode_one_frame:ppSliceList <- $r14
	#DEBUG_VALUE: decode_one_frame:current_header <- $r12d
	#DEBUG_VALUE: decode_one_frame:currSlice <- $rbp
	#DEBUG_VALUE: Error_tracking:p_Vid <- $rbx
	#DEBUG_VALUE: Error_tracking:currSlice <- $rbp
	#DEBUG_VALUE: Error_tracking:i <- 0
	.loc	0 723 15 is_stmt 1              # ldecod_src/image.c:723:15
	movl	136(%rbp), %eax
	.loc	0 723 14 is_stmt 0              # ldecod_src/image.c:723:14
	testl	%eax, %eax
.Ltmp476:
	.loc	0 723 5                         # ldecod_src/image.c:723:5
	jle	.LBB5_24
.Ltmp477:
# %bb.20:                               # %for.body.lr.ph.i
                                        #   in Loop: Header=BB5_10 Depth=1
	#DEBUG_VALUE: decode_one_frame:pDecoder <- [DW_OP_LLVM_entry_value 1] $rdi
	#DEBUG_VALUE: decode_one_frame:p_Vid <- $rbx
	#DEBUG_VALUE: decode_one_frame:p_Inp <- $r13
	#DEBUG_VALUE: decode_one_frame:ppSliceList <- $r14
	#DEBUG_VALUE: decode_one_frame:current_header <- $r12d
	#DEBUG_VALUE: decode_one_frame:currSlice <- $rbp
	#DEBUG_VALUE: Error_tracking:p_Vid <- $rbx
	#DEBUG_VALUE: Error_tracking:currSlice <- $rbp
	#DEBUG_VALUE: Error_tracking:i <- 0
	.loc	0 0 5                           # ldecod_src/image.c:0:5
	xorl	%ecx, %ecx
	jmp	.LBB5_22
.Ltmp478:
	.p2align	4, 0x90
.LBB5_21:                               # %for.inc.i
                                        #   in Loop: Header=BB5_22 Depth=2
	#DEBUG_VALUE: decode_one_frame:pDecoder <- [DW_OP_LLVM_entry_value 1] $rdi
	#DEBUG_VALUE: decode_one_frame:p_Vid <- $rbx
	#DEBUG_VALUE: decode_one_frame:p_Inp <- $r13
	#DEBUG_VALUE: decode_one_frame:ppSliceList <- $r14
	#DEBUG_VALUE: decode_one_frame:current_header <- $r12d
	#DEBUG_VALUE: decode_one_frame:currSlice <- $rbp
	#DEBUG_VALUE: Error_tracking:p_Vid <- $rbx
	#DEBUG_VALUE: Error_tracking:currSlice <- $rbp
	#DEBUG_VALUE: Error_tracking:i <- $rcx
	.loc	0 723 53                        # ldecod_src/image.c:723:53
	incq	%rcx
.Ltmp479:
	#DEBUG_VALUE: Error_tracking:i <- $rcx
	.loc	0 723 14                        # ldecod_src/image.c:723:14
	movslq	%eax, %rdx
	cmpq	%rdx, %rcx
.Ltmp480:
	.loc	0 723 5                         # ldecod_src/image.c:723:5
	jge	.LBB5_24
.Ltmp481:
.LBB5_22:                               # %for.body.i
                                        #   Parent Loop BB5_10 Depth=1
                                        # =>  This Inner Loop Header: Depth=2
	#DEBUG_VALUE: decode_one_frame:pDecoder <- [DW_OP_LLVM_entry_value 1] $rdi
	#DEBUG_VALUE: decode_one_frame:p_Vid <- $rbx
	#DEBUG_VALUE: decode_one_frame:p_Inp <- $r13
	#DEBUG_VALUE: decode_one_frame:ppSliceList <- $r14
	#DEBUG_VALUE: decode_one_frame:current_header <- $r12d
	#DEBUG_VALUE: decode_one_frame:currSlice <- $rbp
	#DEBUG_VALUE: Error_tracking:p_Vid <- $rbx
	#DEBUG_VALUE: Error_tracking:currSlice <- $rbp
	#DEBUG_VALUE: Error_tracking:i <- $rcx
	.loc	0 725 33 is_stmt 1              # ldecod_src/image.c:725:33
	cmpl	$0, 13340(%rbp,%rcx,4)
.Ltmp482:
	.loc	0 725 10 is_stmt 0              # ldecod_src/image.c:725:10
	jne	.LBB5_21
.Ltmp483:
# %bb.23:                               # %if.then8.i
                                        #   in Loop: Header=BB5_22 Depth=2
	#DEBUG_VALUE: decode_one_frame:pDecoder <- [DW_OP_LLVM_entry_value 1] $rdi
	#DEBUG_VALUE: decode_one_frame:p_Vid <- $rbx
	#DEBUG_VALUE: decode_one_frame:p_Inp <- $r13
	#DEBUG_VALUE: decode_one_frame:ppSliceList <- $r14
	#DEBUG_VALUE: decode_one_frame:current_header <- $r12d
	#DEBUG_VALUE: decode_one_frame:currSlice <- $rbp
	#DEBUG_VALUE: Error_tracking:p_Vid <- $rbx
	#DEBUG_VALUE: Error_tracking:currSlice <- $rbp
	#DEBUG_VALUE: Error_tracking:i <- $rcx
	.loc	0 727 35 is_stmt 1              # ldecod_src/image.c:727:35
	movl	$0, 851868(%rbx)
.Ltmp484:
	.loc	0 723 15                        # ldecod_src/image.c:723:15
	movl	136(%rbp), %eax
	jmp	.LBB5_21
.Ltmp485:
	.p2align	4, 0x90
.LBB5_24:                               # %Error_tracking.exit
                                        #   in Loop: Header=BB5_10 Depth=1
	#DEBUG_VALUE: decode_one_frame:pDecoder <- [DW_OP_LLVM_entry_value 1] $rdi
	#DEBUG_VALUE: decode_one_frame:p_Vid <- $rbx
	#DEBUG_VALUE: decode_one_frame:p_Inp <- $r13
	#DEBUG_VALUE: decode_one_frame:ppSliceList <- $r14
	#DEBUG_VALUE: decode_one_frame:current_header <- $r12d
	#DEBUG_VALUE: decode_one_frame:currSlice <- $rbp
	.loc	0 822 19                        # ldecod_src/image.c:822:19
	movl	172(%rbp), %eax
	.loc	0 822 29 is_stmt 0              # ldecod_src/image.c:822:29
	cmpl	851864(%rbx), %eax
	.loc	0 822 58                        # ldecod_src/image.c:822:58
	jne	.LBB5_28
.Ltmp486:
# %bb.25:                               # %land.lhs.true45
                                        #   in Loop: Header=BB5_10 Depth=1
	#DEBUG_VALUE: decode_one_frame:pDecoder <- [DW_OP_LLVM_entry_value 1] $rdi
	#DEBUG_VALUE: decode_one_frame:p_Vid <- $rbx
	#DEBUG_VALUE: decode_one_frame:p_Inp <- $r13
	#DEBUG_VALUE: decode_one_frame:ppSliceList <- $r14
	#DEBUG_VALUE: decode_one_frame:current_header <- $r12d
	#DEBUG_VALUE: decode_one_frame:currSlice <- $rbp
	.loc	0 822 90                        # ldecod_src/image.c:822:90
	cmpl	$0, 220(%rbp)
	.loc	0 823 7 is_stmt 1               # ldecod_src/image.c:823:7
	je	.LBB5_28
.Ltmp487:
# %bb.26:                               # %land.lhs.true47
                                        #   in Loop: Header=BB5_10 Depth=1
	#DEBUG_VALUE: decode_one_frame:pDecoder <- [DW_OP_LLVM_entry_value 1] $rdi
	#DEBUG_VALUE: decode_one_frame:p_Vid <- $rbx
	#DEBUG_VALUE: decode_one_frame:p_Inp <- $r13
	#DEBUG_VALUE: decode_one_frame:ppSliceList <- $r14
	#DEBUG_VALUE: decode_one_frame:current_header <- $r12d
	#DEBUG_VALUE: decode_one_frame:currSlice <- $rbp
	.loc	0 823 36 is_stmt 0              # ldecod_src/image.c:823:36
	cmpl	$0, 851868(%rbx)
	.loc	0 823 40                        # ldecod_src/image.c:823:40
	je	.LBB5_28
.Ltmp488:
# %bb.27:                               # %land.lhs.true47
                                        #   in Loop: Header=BB5_10 Depth=1
	#DEBUG_VALUE: decode_one_frame:pDecoder <- [DW_OP_LLVM_entry_value 1] $rdi
	#DEBUG_VALUE: decode_one_frame:p_Vid <- $rbx
	#DEBUG_VALUE: decode_one_frame:p_Inp <- $r13
	#DEBUG_VALUE: decode_one_frame:ppSliceList <- $r14
	#DEBUG_VALUE: decode_one_frame:current_header <- $r12d
	#DEBUG_VALUE: decode_one_frame:currSlice <- $rbp
	cmpl	$1, %r12d
	jne	.LBB5_10
.Ltmp489:
.LBB5_28:                               # %if.end52
                                        #   in Loop: Header=BB5_10 Depth=1
	#DEBUG_VALUE: decode_one_frame:pDecoder <- [DW_OP_LLVM_entry_value 1] $rdi
	#DEBUG_VALUE: decode_one_frame:p_Vid <- $rbx
	#DEBUG_VALUE: decode_one_frame:p_Inp <- $r13
	#DEBUG_VALUE: decode_one_frame:ppSliceList <- $r14
	#DEBUG_VALUE: decode_one_frame:current_header <- $r12d
	#DEBUG_VALUE: decode_one_frame:currSlice <- $rbp
	.loc	0 828 31 is_stmt 1              # ldecod_src/image.c:828:31
	leal	-3(%r12), %ecx
.Ltmp490:
	.loc	0 830 53                        # ldecod_src/image.c:830:53
	movslq	848720(%rbx), %rax
.Ltmp491:
	.loc	0 828 31                        # ldecod_src/image.c:828:31
	cmpl	$-2, %ecx
	jb	.LBB5_31
.Ltmp492:
# %bb.29:                               # %lor.lhs.false
                                        #   in Loop: Header=BB5_10 Depth=1
	#DEBUG_VALUE: decode_one_frame:pDecoder <- [DW_OP_LLVM_entry_value 1] $rdi
	#DEBUG_VALUE: decode_one_frame:p_Vid <- $rbx
	#DEBUG_VALUE: decode_one_frame:p_Inp <- $r13
	#DEBUG_VALUE: decode_one_frame:ppSliceList <- $r14
	#DEBUG_VALUE: decode_one_frame:current_header <- $r12d
	#DEBUG_VALUE: decode_one_frame:currSlice <- $rbp
	.loc	0 828 85 is_stmt 0              # ldecod_src/image.c:828:85
	testl	%eax, %eax
	.loc	0 828 89                        # ldecod_src/image.c:828:89
	jne	.LBB5_36
.Ltmp493:
# %bb.30:                               # %lor.lhs.false
                                        #   in Loop: Header=BB5_10 Depth=1
	#DEBUG_VALUE: decode_one_frame:pDecoder <- [DW_OP_LLVM_entry_value 1] $rdi
	#DEBUG_VALUE: decode_one_frame:p_Vid <- $rbx
	#DEBUG_VALUE: decode_one_frame:p_Inp <- $r13
	#DEBUG_VALUE: decode_one_frame:ppSliceList <- $r14
	#DEBUG_VALUE: decode_one_frame:current_header <- $r12d
	#DEBUG_VALUE: decode_one_frame:currSlice <- $rbp
	cmpl	$2, %r12d
	jne	.LBB5_36
.Ltmp494:
.LBB5_31:                               # %if.then60
                                        #   in Loop: Header=BB5_10 Depth=1
	#DEBUG_VALUE: decode_one_frame:pDecoder <- [DW_OP_LLVM_entry_value 1] $rdi
	#DEBUG_VALUE: decode_one_frame:p_Vid <- $rbx
	#DEBUG_VALUE: decode_one_frame:p_Inp <- $r13
	#DEBUG_VALUE: decode_one_frame:ppSliceList <- $r14
	#DEBUG_VALUE: decode_one_frame:current_header <- $r12d
	#DEBUG_VALUE: decode_one_frame:currSlice <- $rbp
	.loc	0 830 36 is_stmt 1              # ldecod_src/image.c:830:36
	movw	%ax, 116(%rbp)
	.loc	0 831 56                        # ldecod_src/image.c:831:56
	cwtl
.Ltmp495:
	#DEBUG_VALUE: imax:a <- $eax
	.loc	0 831 92 is_stmt 0              # ldecod_src/image.c:831:92
	movq	856456(%rbx), %rcx
	.loc	0 831 105                       # ldecod_src/image.c:831:105
	movswl	60(%rcx), %edx
.Ltmp496:
	#DEBUG_VALUE: imax:b <- $edx
	.loc	2 49 10 is_stmt 1               # ldecod_src/inc/ifunctions.h:49:10
	cmpl	%edx, %eax
	cmovgl	%eax, %edx
.Ltmp497:
	.loc	0 831 41                        # ldecod_src/image.c:831:41
	movw	%dx, 60(%rcx)
.Ltmp498:
	.loc	0 832 18                        # ldecod_src/image.c:832:18
	movl	848720(%rbx), %eax
.Ltmp499:
	.loc	0 832 37 is_stmt 0              # ldecod_src/image.c:832:37
	testl	%eax, %eax
.Ltmp500:
	.loc	0 832 11                        # ldecod_src/image.c:832:11
	jle	.LBB5_33
.Ltmp501:
# %bb.32:                               # %if.then72
                                        #   in Loop: Header=BB5_10 Depth=1
	#DEBUG_VALUE: decode_one_frame:pDecoder <- [DW_OP_LLVM_entry_value 1] $rdi
	#DEBUG_VALUE: decode_one_frame:p_Vid <- $rbx
	#DEBUG_VALUE: decode_one_frame:p_Inp <- $r13
	#DEBUG_VALUE: decode_one_frame:ppSliceList <- $r14
	#DEBUG_VALUE: decode_one_frame:current_header <- $r12d
	#DEBUG_VALUE: decode_one_frame:currSlice <- $rbp
	.loc	0 834 18 is_stmt 1              # ldecod_src/image.c:834:18
	movq	(%r14), %rax
.Ltmp502:
	#DEBUG_VALUE: CopyPOC:pSlice0 <- $rax
	#DEBUG_VALUE: CopyPOC:currSlice <- $rbp
	.loc	0 742 35                        # ldecod_src/image.c:742:35
	movl	76(%rax), %ecx
	.loc	0 742 24 is_stmt 0              # ldecod_src/image.c:742:24
	movl	%ecx, 76(%rbp)
	.loc	0 743 35 is_stmt 1              # ldecod_src/image.c:743:35
	movl	68(%rax), %ecx
	.loc	0 743 24 is_stmt 0              # ldecod_src/image.c:743:24
	movl	%ecx, 68(%rbp)
	.loc	0 744 35 is_stmt 1              # ldecod_src/image.c:744:35
	movl	72(%rax), %ecx
	.loc	0 744 24 is_stmt 0              # ldecod_src/image.c:744:24
	movl	%ecx, 72(%rbp)
	.loc	0 745 35 is_stmt 1              # ldecod_src/image.c:745:35
	movl	104(%rax), %eax
.Ltmp503:
	.loc	0 745 24 is_stmt 0              # ldecod_src/image.c:745:24
	movl	%eax, 104(%rbp)
.Ltmp504:
	.loc	0 835 81 is_stmt 1              # ldecod_src/image.c:835:81
	movl	188(%rbp), %eax
	.loc	0 835 29 is_stmt 0              # ldecod_src/image.c:835:29
	movslq	848720(%rbx), %rcx
	.loc	0 835 10                        # ldecod_src/image.c:835:10
	movq	-8(%r14,%rcx,8), %rcx
	.loc	0 835 68                        # ldecod_src/image.c:835:68
	movl	%eax, 192(%rcx)
.Ltmp505:
	.loc	0 837 33 is_stmt 1              # ldecod_src/image.c:837:33
	movl	848720(%rbx), %eax
.Ltmp506:
.LBB5_33:                               # %if.end76
                                        #   in Loop: Header=BB5_10 Depth=1
	#DEBUG_VALUE: decode_one_frame:pDecoder <- [DW_OP_LLVM_entry_value 1] $rdi
	#DEBUG_VALUE: decode_one_frame:p_Vid <- $rbx
	#DEBUG_VALUE: decode_one_frame:p_Inp <- $r13
	#DEBUG_VALUE: decode_one_frame:ppSliceList <- $r14
	#DEBUG_VALUE: decode_one_frame:current_header <- $r12d
	#DEBUG_VALUE: decode_one_frame:currSlice <- $rbp
	incl	%eax
	movl	%eax, 848720(%rbx)
.Ltmp507:
	.loc	0 838 47                        # ldecod_src/image.c:838:47
	movslq	848724(%rbx), %rcx
	movl	$3, %r12d
.Ltmp508:
	.loc	0 838 37 is_stmt 0              # ldecod_src/image.c:838:37
	cmpl	%ecx, %eax
.Ltmp509:
	.loc	0 838 11                        # ldecod_src/image.c:838:11
	jl	.LBB5_41
.Ltmp510:
# %bb.34:                               # %if.then82
                                        #   in Loop: Header=BB5_10 Depth=1
	#DEBUG_VALUE: decode_one_frame:pDecoder <- [DW_OP_LLVM_entry_value 1] $rdi
	#DEBUG_VALUE: decode_one_frame:p_Vid <- $rbx
	#DEBUG_VALUE: decode_one_frame:p_Inp <- $r13
	#DEBUG_VALUE: decode_one_frame:ppSliceList <- $r14
	#DEBUG_VALUE: decode_one_frame:currSlice <- $rbp
	.loc	0 840 58 is_stmt 1              # ldecod_src/image.c:840:58
	movq	848736(%rbx), %rdi
	.loc	0 840 119 is_stmt 0             # ldecod_src/image.c:840:119
	leaq	128(,%rcx,8), %rsi
	.loc	0 840 43                        # ldecod_src/image.c:840:43
	callq	realloc@PLT
.Ltmp511:
	#DEBUG_VALUE: tmpSliceList <- $rax
	.loc	0 841 14 is_stmt 1              # ldecod_src/image.c:841:14
	testq	%rax, %rax
.Ltmp512:
	.loc	0 841 13 is_stmt 0              # ldecod_src/image.c:841:13
	je	.LBB5_38
.Ltmp513:
# %bb.35:                               # %if.else
                                        #   in Loop: Header=BB5_10 Depth=1
	#DEBUG_VALUE: decode_one_frame:pDecoder <- [DW_OP_LLVM_entry_value 1] $rdi
	#DEBUG_VALUE: decode_one_frame:p_Vid <- $rbx
	#DEBUG_VALUE: decode_one_frame:p_Inp <- $r13
	#DEBUG_VALUE: decode_one_frame:ppSliceList <- $r14
	#DEBUG_VALUE: decode_one_frame:currSlice <- $rbp
	#DEBUG_VALUE: tmpSliceList <- $rax
	.loc	0 0 0                           # ldecod_src/image.c:0:0
	movq	%rax, %r14
.Ltmp514:
	.loc	0 852 45 is_stmt 1              # ldecod_src/image.c:852:45
	movq	%rax, 848736(%rbx)
.Ltmp515:
	#DEBUG_VALUE: decode_one_frame:ppSliceList <- $r14
	.loc	0 853 45                        # ldecod_src/image.c:853:45
	movslq	848720(%rbx), %rax
.Ltmp516:
	#DEBUG_VALUE: tmpSliceList <- $r14
	.loc	0 0 45 is_stmt 0                # ldecod_src/image.c:0:45
	xorps	%xmm0, %xmm0
	.loc	0 853 12                        # ldecod_src/image.c:853:12
	movups	%xmm0, 112(%r14,%rax,8)
	movups	%xmm0, 96(%r14,%rax,8)
	movups	%xmm0, 80(%r14,%rax,8)
	movups	%xmm0, 64(%r14,%rax,8)
	movups	%xmm0, 48(%r14,%rax,8)
	movups	%xmm0, 32(%r14,%rax,8)
	movups	%xmm0, 16(%r14,%rax,8)
	movups	%xmm0, (%r14,%rax,8)
.Ltmp517:
	#DEBUG_VALUE: decode_one_frame:ppSliceList <- $r14
	.loc	0 855 39 is_stmt 1              # ldecod_src/image.c:855:39
	addl	$16, 848724(%rbx)
	.loc	0 856 8                         # ldecod_src/image.c:856:8
	jmp	.LBB5_41
.Ltmp518:
.LBB5_36:                               # %if.else106
                                        #   in Loop: Header=BB5_10 Depth=1
	#DEBUG_VALUE: decode_one_frame:pDecoder <- [DW_OP_LLVM_entry_value 1] $rdi
	#DEBUG_VALUE: decode_one_frame:p_Vid <- $rbx
	#DEBUG_VALUE: decode_one_frame:p_Inp <- $r13
	#DEBUG_VALUE: decode_one_frame:ppSliceList <- $r14
	#DEBUG_VALUE: decode_one_frame:current_header <- $r12d
	#DEBUG_VALUE: decode_one_frame:currSlice <- $rbp
	.loc	0 861 10                        # ldecod_src/image.c:861:10
	movq	-8(%r14,%rax,8), %rcx
	cmpl	$0, 128(%rcx)
	.loc	0 0 0 is_stmt 0                 # ldecod_src/image.c:0:0
	movl	849016(%rbx), %eax
.Ltmp519:
	.loc	0 861 10                        # ldecod_src/image.c:861:10
	je	.LBB5_39
.Ltmp520:
# %bb.37:                               # %if.then112
                                        #   in Loop: Header=BB5_10 Depth=1
	#DEBUG_VALUE: decode_one_frame:pDecoder <- [DW_OP_LLVM_entry_value 1] $rdi
	#DEBUG_VALUE: decode_one_frame:p_Vid <- $rbx
	#DEBUG_VALUE: decode_one_frame:p_Inp <- $r13
	#DEBUG_VALUE: decode_one_frame:ppSliceList <- $r14
	#DEBUG_VALUE: decode_one_frame:current_header <- $r12d
	#DEBUG_VALUE: decode_one_frame:currSlice <- $rbp
	.loc	0 862 89 is_stmt 1              # ldecod_src/image.c:862:89
	shrl	%eax
	.loc	0 862 8 is_stmt 0               # ldecod_src/image.c:862:8
	jmp	.LBB5_40
.Ltmp521:
.LBB5_38:                               # %if.then88
                                        #   in Loop: Header=BB5_10 Depth=1
	#DEBUG_VALUE: decode_one_frame:pDecoder <- [DW_OP_LLVM_entry_value 1] $rdi
	#DEBUG_VALUE: decode_one_frame:p_Vid <- $rbx
	#DEBUG_VALUE: decode_one_frame:p_Inp <- $r13
	#DEBUG_VALUE: decode_one_frame:ppSliceList <- $r14
	#DEBUG_VALUE: decode_one_frame:currSlice <- $rbp
	#DEBUG_VALUE: tmpSliceList <- $rax
	.loc	0 843 42 is_stmt 1              # ldecod_src/image.c:843:42
	movslq	848724(%rbx), %rdi
	.loc	0 843 63 is_stmt 0              # ldecod_src/image.c:843:63
	addq	$16, %rdi
	.loc	0 843 27                        # ldecod_src/image.c:843:27
	movl	$8, %esi
	callq	calloc@PLT
.Ltmp522:
	movq	%rax, %r14
.Ltmp523:
	#DEBUG_VALUE: tmpSliceList <- $r14
	#DEBUG_VALUE: decode_one_frame:ppSliceList <- $r14
	.loc	0 844 40 is_stmt 1              # ldecod_src/image.c:844:40
	movq	848736(%rbx), %rsi
	movq	%rsi, (%rsp)                    # 8-byte Spill
	.loc	0 844 60 is_stmt 0              # ldecod_src/image.c:844:60
	movslq	848720(%rbx), %rdx
	.loc	0 844 78                        # ldecod_src/image.c:844:78
	shlq	$3, %rdx
	.loc	0 844 12                        # ldecod_src/image.c:844:12
	movq	%rax, %rdi
	callq	memcpy@PLT
.Ltmp524:
	.loc	0 0 12                          # ldecod_src/image.c:0:12
	movq	(%rsp), %rdi                    # 8-byte Reload
	.loc	0 846 12 is_stmt 1              # ldecod_src/image.c:846:12
	callq	free@PLT
.Ltmp525:
	.loc	0 847 45                        # ldecod_src/image.c:847:45
	movq	%r14, 848736(%rbx)
.Ltmp526:
	#DEBUG_VALUE: decode_one_frame:ppSliceList <- $r14
	.loc	0 855 39                        # ldecod_src/image.c:855:39
	addl	$16, 848724(%rbx)
	.loc	0 856 8                         # ldecod_src/image.c:856:8
	jmp	.LBB5_41
.Ltmp527:
.LBB5_39:                               # %if.else118
                                        #   in Loop: Header=BB5_10 Depth=1
	#DEBUG_VALUE: decode_one_frame:pDecoder <- [DW_OP_LLVM_entry_value 1] $rdi
	#DEBUG_VALUE: decode_one_frame:p_Vid <- $rbx
	#DEBUG_VALUE: decode_one_frame:p_Inp <- $r13
	#DEBUG_VALUE: decode_one_frame:ppSliceList <- $r14
	#DEBUG_VALUE: decode_one_frame:current_header <- $r12d
	#DEBUG_VALUE: decode_one_frame:currSlice <- $rbp
	.loc	0 864 135                       # ldecod_src/image.c:864:135
	movl	176(%rcx), %esi
	.loc	0 864 92 is_stmt 0              # ldecod_src/image.c:864:92
	incl	%esi
	.loc	0 864 89                        # ldecod_src/image.c:864:89
	xorl	%edx, %edx
	divl	%esi
.Ltmp528:
.LBB5_40:                               # %if.end131
                                        #   in Loop: Header=BB5_10 Depth=1
	#DEBUG_VALUE: decode_one_frame:pDecoder <- [DW_OP_LLVM_entry_value 1] $rdi
	#DEBUG_VALUE: decode_one_frame:p_Vid <- $rbx
	#DEBUG_VALUE: decode_one_frame:p_Inp <- $r13
	#DEBUG_VALUE: decode_one_frame:ppSliceList <- $r14
	#DEBUG_VALUE: decode_one_frame:current_header <- $r12d
	#DEBUG_VALUE: decode_one_frame:currSlice <- $rbp
	.loc	0 0 0                           # ldecod_src/image.c:0:0
	movl	%eax, 192(%rcx)
.Ltmp529:
	.loc	0 865 24 is_stmt 1              # ldecod_src/image.c:865:24
	movl	$1, 848872(%rbx)
	.loc	0 866 36                        # ldecod_src/image.c:866:36
	movw	$0, 116(%rbp)
	.loc	0 868 56                        # ldecod_src/image.c:868:56
	movq	848880(%rbx), %rax
	.loc	0 868 27 is_stmt 0              # ldecod_src/image.c:868:27
	movslq	848720(%rbx), %rcx
	.loc	0 868 47                        # ldecod_src/image.c:868:47
	movq	%rax, (%r14,%rcx,8)
	.loc	0 869 26 is_stmt 1              # ldecod_src/image.c:869:26
	movq	%rbp, 848880(%rbx)
.Ltmp530:
.LBB5_41:                               # %if.end139
                                        #   in Loop: Header=BB5_10 Depth=1
	#DEBUG_VALUE: decode_one_frame:pDecoder <- [DW_OP_LLVM_entry_value 1] $rdi
	#DEBUG_VALUE: decode_one_frame:p_Vid <- $rbx
	#DEBUG_VALUE: decode_one_frame:p_Inp <- $r13
	#DEBUG_VALUE: decode_one_frame:ppSliceList <- $r14
	#DEBUG_VALUE: decode_one_frame:currSlice <- $rbp
	#DEBUG_VALUE: decode_one_frame:ppSliceList <- $r14
	#DEBUG_VALUE: decode_one_frame:current_header <- $r12d
	.loc	0 872 37                        # ldecod_src/image.c:872:37
	movq	848696(%rbx), %rax
.Ltmp531:
	#DEBUG_VALUE: CopySliceInfo:p_old_slice <- $rax
	#DEBUG_VALUE: CopySliceInfo:currSlice <- $rbp
	.loc	0 2142 39                       # ldecod_src/image.c:2142:39
	movq	(%rbp), %rcx
.Ltmp532:
	#DEBUG_VALUE: CopySliceInfo:p_Vid <- $rcx
	.loc	0 2144 44                       # ldecod_src/image.c:2144:44
	movl	1228(%rbp), %edx
	.loc	0 2144 31 is_stmt 0             # ldecod_src/image.c:2144:31
	movl	%edx, 36(%rax)
	.loc	0 2145 44 is_stmt 1             # ldecod_src/image.c:2145:44
	movl	172(%rbp), %edx
	.loc	0 2145 31 is_stmt 0             # ldecod_src/image.c:2145:31
	movl	%edx, 4(%rax)
	.loc	0 2146 44 is_stmt 1             # ldecod_src/image.c:2146:44
	movl	176(%rbp), %edx
	.loc	0 2146 31 is_stmt 0             # ldecod_src/image.c:2146:31
	movl	%edx, (%rax)
.Ltmp533:
	.loc	0 2148 6 is_stmt 1              # ldecod_src/image.c:2148:6
	testl	%edx, %edx
.Ltmp534:
	.loc	0 2148 6 is_stmt 0              # ldecod_src/image.c:2148:6
	je	.LBB5_43
.Ltmp535:
# %bb.42:                               # %if.then.i
                                        #   in Loop: Header=BB5_10 Depth=1
	#DEBUG_VALUE: decode_one_frame:pDecoder <- [DW_OP_LLVM_entry_value 1] $rdi
	#DEBUG_VALUE: decode_one_frame:p_Vid <- $rbx
	#DEBUG_VALUE: decode_one_frame:p_Inp <- $r13
	#DEBUG_VALUE: decode_one_frame:ppSliceList <- $r14
	#DEBUG_VALUE: decode_one_frame:current_header <- $r12d
	#DEBUG_VALUE: decode_one_frame:currSlice <- $rbp
	#DEBUG_VALUE: CopySliceInfo:p_old_slice <- $rax
	#DEBUG_VALUE: CopySliceInfo:currSlice <- $rbp
	#DEBUG_VALUE: CopySliceInfo:p_Vid <- $rcx
	.loc	0 2150 49 is_stmt 1             # ldecod_src/image.c:2150:49
	movzbl	180(%rbp), %edx
	.loc	0 2150 36 is_stmt 0             # ldecod_src/image.c:2150:36
	movb	%dl, 28(%rax)
.Ltmp536:
.LBB5_43:                               # %if.end.i286
                                        #   in Loop: Header=BB5_10 Depth=1
	#DEBUG_VALUE: decode_one_frame:pDecoder <- [DW_OP_LLVM_entry_value 1] $rdi
	#DEBUG_VALUE: decode_one_frame:p_Vid <- $rbx
	#DEBUG_VALUE: decode_one_frame:p_Inp <- $r13
	#DEBUG_VALUE: decode_one_frame:ppSliceList <- $r14
	#DEBUG_VALUE: decode_one_frame:current_header <- $r12d
	#DEBUG_VALUE: decode_one_frame:currSlice <- $rbp
	#DEBUG_VALUE: CopySliceInfo:p_old_slice <- $rax
	#DEBUG_VALUE: CopySliceInfo:currSlice <- $rbp
	#DEBUG_VALUE: CopySliceInfo:p_Vid <- $rcx
	.loc	0 2153 41 is_stmt 1             # ldecod_src/image.c:2153:41
	movl	56(%rbp), %edx
	.loc	0 2153 28 is_stmt 0             # ldecod_src/image.c:2153:28
	movl	%edx, 8(%rax)
	.loc	0 2154 48 is_stmt 1             # ldecod_src/image.c:2154:48
	movzbl	48(%rbp), %edx
	.loc	0 2154 28 is_stmt 0             # ldecod_src/image.c:2154:28
	movb	%dl, 29(%rax)
.Ltmp537:
	.loc	0 2156 7 is_stmt 1              # ldecod_src/image.c:2156:7
	cmpl	$0, 48(%rbp)
.Ltmp538:
	.loc	0 2156 7 is_stmt 0              # ldecod_src/image.c:2156:7
	je	.LBB5_45
.Ltmp539:
# %bb.44:                               # %if.then9.i
                                        #   in Loop: Header=BB5_10 Depth=1
	#DEBUG_VALUE: decode_one_frame:pDecoder <- [DW_OP_LLVM_entry_value 1] $rdi
	#DEBUG_VALUE: decode_one_frame:p_Vid <- $rbx
	#DEBUG_VALUE: decode_one_frame:p_Inp <- $r13
	#DEBUG_VALUE: decode_one_frame:ppSliceList <- $r14
	#DEBUG_VALUE: decode_one_frame:current_header <- $r12d
	#DEBUG_VALUE: decode_one_frame:currSlice <- $rbp
	#DEBUG_VALUE: CopySliceInfo:p_old_slice <- $rax
	#DEBUG_VALUE: CopySliceInfo:currSlice <- $rbp
	#DEBUG_VALUE: CopySliceInfo:p_Vid <- $rcx
	.loc	0 2158 42 is_stmt 1             # ldecod_src/image.c:2158:42
	movl	52(%rbp), %edx
	.loc	0 2158 29 is_stmt 0             # ldecod_src/image.c:2158:29
	movl	%edx, 32(%rax)
.Ltmp540:
.LBB5_45:                               # %if.end11.i
                                        #   in Loop: Header=BB5_10 Depth=1
	#DEBUG_VALUE: decode_one_frame:pDecoder <- [DW_OP_LLVM_entry_value 1] $rdi
	#DEBUG_VALUE: decode_one_frame:p_Vid <- $rbx
	#DEBUG_VALUE: decode_one_frame:p_Inp <- $r13
	#DEBUG_VALUE: decode_one_frame:ppSliceList <- $r14
	#DEBUG_VALUE: decode_one_frame:current_header <- $r12d
	#DEBUG_VALUE: decode_one_frame:currSlice <- $rbp
	#DEBUG_VALUE: CopySliceInfo:p_old_slice <- $rax
	#DEBUG_VALUE: CopySliceInfo:currSlice <- $rbp
	#DEBUG_VALUE: CopySliceInfo:p_Vid <- $rcx
	.loc	0 2161 14 is_stmt 1             # ldecod_src/image.c:2161:14
	movq	16(%rcx), %rdx
	.loc	0 2161 26 is_stmt 0             # ldecod_src/image.c:2161:26
	movl	2072(%rdx), %edx
	.loc	0 2161 45                       # ldecod_src/image.c:2161:45
	testl	%edx, %edx
.Ltmp541:
	.loc	0 2161 7                        # ldecod_src/image.c:2161:7
	je	.LBB5_47
.Ltmp542:
# %bb.46:                               # %if.end14.i
                                        #   in Loop: Header=BB5_10 Depth=1
	#DEBUG_VALUE: decode_one_frame:pDecoder <- [DW_OP_LLVM_entry_value 1] $rdi
	#DEBUG_VALUE: decode_one_frame:p_Vid <- $rbx
	#DEBUG_VALUE: decode_one_frame:p_Inp <- $r13
	#DEBUG_VALUE: decode_one_frame:ppSliceList <- $r14
	#DEBUG_VALUE: decode_one_frame:current_header <- $r12d
	#DEBUG_VALUE: decode_one_frame:currSlice <- $rbp
	#DEBUG_VALUE: CopySliceInfo:p_old_slice <- $rax
	#DEBUG_VALUE: CopySliceInfo:currSlice <- $rbp
	#DEBUG_VALUE: CopySliceInfo:p_Vid <- $rcx
	.loc	0 2167 45 is_stmt 1             # ldecod_src/image.c:2167:45
	cmpl	$1, %edx
.Ltmp543:
	.loc	0 2167 7 is_stmt 0              # ldecod_src/image.c:2167:7
	jne	.LBB5_9
	jmp	.LBB5_48
.Ltmp544:
.LBB5_47:                               # %if.then13.i
                                        #   in Loop: Header=BB5_10 Depth=1
	#DEBUG_VALUE: decode_one_frame:pDecoder <- [DW_OP_LLVM_entry_value 1] $rdi
	#DEBUG_VALUE: decode_one_frame:p_Vid <- $rbx
	#DEBUG_VALUE: decode_one_frame:p_Inp <- $r13
	#DEBUG_VALUE: decode_one_frame:ppSliceList <- $r14
	#DEBUG_VALUE: decode_one_frame:current_header <- $r12d
	#DEBUG_VALUE: decode_one_frame:currSlice <- $rbp
	#DEBUG_VALUE: CopySliceInfo:p_old_slice <- $rax
	#DEBUG_VALUE: CopySliceInfo:currSlice <- $rbp
	#DEBUG_VALUE: CopySliceInfo:p_Vid <- $rcx
	.loc	0 2163 57 is_stmt 1             # ldecod_src/image.c:2163:57
	movl	80(%rbp), %edx
	.loc	0 2163 44 is_stmt 0             # ldecod_src/image.c:2163:44
	movl	%edx, 12(%rax)
	.loc	0 2164 57 is_stmt 1             # ldecod_src/image.c:2164:57
	movl	84(%rbp), %edx
	.loc	0 2164 44 is_stmt 0             # ldecod_src/image.c:2164:44
	movl	%edx, 16(%rax)
.Ltmp545:
	.loc	0 2167 14 is_stmt 1             # ldecod_src/image.c:2167:14
	movq	16(%rcx), %rcx
.Ltmp546:
	.loc	0 2167 26 is_stmt 0             # ldecod_src/image.c:2167:26
	movl	2072(%rcx), %edx
	.loc	0 2167 45                       # ldecod_src/image.c:2167:45
	cmpl	$1, %edx
.Ltmp547:
	.loc	0 2167 7                        # ldecod_src/image.c:2167:7
	jne	.LBB5_9
.Ltmp548:
.LBB5_48:                               # %if.then19.i
                                        #   in Loop: Header=BB5_10 Depth=1
	#DEBUG_VALUE: decode_one_frame:pDecoder <- [DW_OP_LLVM_entry_value 1] $rdi
	#DEBUG_VALUE: decode_one_frame:p_Vid <- $rbx
	#DEBUG_VALUE: decode_one_frame:p_Inp <- $r13
	#DEBUG_VALUE: decode_one_frame:ppSliceList <- $r14
	#DEBUG_VALUE: decode_one_frame:current_header <- $r12d
	#DEBUG_VALUE: decode_one_frame:currSlice <- $rbp
	#DEBUG_VALUE: CopySliceInfo:p_old_slice <- $rax
	#DEBUG_VALUE: CopySliceInfo:currSlice <- $rbp
	.loc	0 2169 43 is_stmt 1             # ldecod_src/image.c:2169:43
	movl	88(%rbp), %ecx
	.loc	0 2169 41 is_stmt 0             # ldecod_src/image.c:2169:41
	movl	%ecx, 20(%rax)
	.loc	0 2170 43 is_stmt 1             # ldecod_src/image.c:2170:43
	movl	92(%rbp), %ecx
	.loc	0 2170 41 is_stmt 0             # ldecod_src/image.c:2170:41
	movl	%ecx, 24(%rax)
	jmp	.LBB5_9
.Ltmp549:
.LBB5_49:                               # %while.end
	#DEBUG_VALUE: decode_one_frame:pDecoder <- [DW_OP_LLVM_entry_value 1] $rdi
	#DEBUG_VALUE: decode_one_frame:p_Vid <- $rbx
	#DEBUG_VALUE: decode_one_frame:p_Inp <- $r13
	#DEBUG_VALUE: decode_one_frame:ppSliceList <- $r14
	#DEBUG_VALUE: decode_one_frame:current_header <- $r12d
	#DEBUG_VALUE: decode_one_frame:iRet <- $r12d
	#DEBUG_VALUE: tmpPPS <- [DW_OP_plus_uconst 16, DW_OP_deref, DW_OP_LLVM_fragment 17344 384] $rsp
	#DEBUG_VALUE: init_picture_decoding:p_Vid <- $rbx
	.loc	0 535 26 is_stmt 1              # ldecod_src/image.c:535:26
	movq	848736(%rbx), %rax
	.loc	0 535 19 is_stmt 0              # ldecod_src/image.c:535:19
	movq	(%rax), %r13
.Ltmp550:
	#DEBUG_VALUE: init_picture_decoding:pSlice <- $r13
	#DEBUG_VALUE: init_picture_decoding:iDeblockMode <- 1
	.loc	0 539 32 is_stmt 1              # ldecod_src/image.c:539:32
	cmpl	$50, 848720(%rbx)
.Ltmp551:
	.loc	0 539 6 is_stmt 0               # ldecod_src/image.c:539:6
	jl	.LBB5_51
.Ltmp552:
# %bb.50:                               # %if.then.i305
	#DEBUG_VALUE: decode_one_frame:pDecoder <- [DW_OP_LLVM_entry_value 1] $rdi
	#DEBUG_VALUE: decode_one_frame:p_Vid <- $rbx
	#DEBUG_VALUE: decode_one_frame:ppSliceList <- $r14
	#DEBUG_VALUE: decode_one_frame:current_header <- $r12d
	#DEBUG_VALUE: decode_one_frame:iRet <- $r12d
	#DEBUG_VALUE: init_picture_decoding:p_Vid <- $rbx
	#DEBUG_VALUE: init_picture_decoding:pSlice <- $r13
	#DEBUG_VALUE: init_picture_decoding:iDeblockMode <- 1
	.loc	0 541 5 is_stmt 1               # ldecod_src/image.c:541:5
	movl	$.L.str.50, %edi
	movl	$200, %esi
	callq	error@PLT
.Ltmp553:
.LBB5_51:                               # %if.end.i290
	#DEBUG_VALUE: decode_one_frame:pDecoder <- [DW_OP_LLVM_entry_value 1] $rdi
	#DEBUG_VALUE: decode_one_frame:p_Vid <- $rbx
	#DEBUG_VALUE: decode_one_frame:ppSliceList <- $r14
	#DEBUG_VALUE: decode_one_frame:current_header <- $r12d
	#DEBUG_VALUE: decode_one_frame:iRet <- $r12d
	#DEBUG_VALUE: init_picture_decoding:p_Vid <- $rbx
	#DEBUG_VALUE: init_picture_decoding:pSlice <- $r13
	#DEBUG_VALUE: init_picture_decoding:iDeblockMode <- 1
	.loc	0 544 13                        # ldecod_src/image.c:544:13
	movq	856872(%rbx), %rax
	.loc	0 544 6 is_stmt 0               # ldecod_src/image.c:544:6
	cmpl	$0, (%rax)
	.loc	0 544 29                        # ldecod_src/image.c:544:29
	je	.LBB5_54
.Ltmp554:
# %bb.52:                               # %land.lhs.true.i292
	#DEBUG_VALUE: decode_one_frame:pDecoder <- [DW_OP_LLVM_entry_value 1] $rdi
	#DEBUG_VALUE: decode_one_frame:p_Vid <- $rbx
	#DEBUG_VALUE: decode_one_frame:ppSliceList <- $r14
	#DEBUG_VALUE: decode_one_frame:current_header <- $r12d
	#DEBUG_VALUE: decode_one_frame:iRet <- $r12d
	#DEBUG_VALUE: init_picture_decoding:p_Vid <- $rbx
	#DEBUG_VALUE: init_picture_decoding:pSlice <- $r13
	#DEBUG_VALUE: init_picture_decoding:iDeblockMode <- 1
	.loc	0 544 55                        # ldecod_src/image.c:544:55
	movl	4(%rax), %eax
	.loc	0 544 76                        # ldecod_src/image.c:544:76
	cmpl	1228(%r13), %eax
.Ltmp555:
	.loc	0 544 6                         # ldecod_src/image.c:544:6
	jne	.LBB5_54
.Ltmp556:
# %bb.53:                               # %if.then4.i
	#DEBUG_VALUE: decode_one_frame:pDecoder <- [DW_OP_LLVM_entry_value 1] $rdi
	#DEBUG_VALUE: decode_one_frame:p_Vid <- $rbx
	#DEBUG_VALUE: decode_one_frame:ppSliceList <- $r14
	#DEBUG_VALUE: decode_one_frame:current_header <- $r12d
	#DEBUG_VALUE: decode_one_frame:iRet <- $r12d
	#DEBUG_VALUE: init_picture_decoding:p_Vid <- $rbx
	#DEBUG_VALUE: init_picture_decoding:pSlice <- $r13
	#DEBUG_VALUE: init_picture_decoding:iDeblockMode <- 1
	.loc	0 547 28 is_stmt 1              # ldecod_src/image.c:547:28
	movq	8(%rbx), %r15
	leaq	72(%rsp), %rdi
	.loc	0 547 5 is_stmt 0               # ldecod_src/image.c:547:5
	movl	$2160, %edx                     # imm = 0x870
	movq	%r15, %rsi
	callq	memcpy@PLT
.Ltmp557:
	#DEBUG_VALUE: tmpPPS <- [DW_OP_LLVM_fragment 0 17280] undef
	movq	2160(%r15), %rbp
	movups	2168(%r15), %xmm0
	movaps	%xmm0, 16(%rsp)
	movups	2184(%r15), %xmm0
	movaps	%xmm0, 32(%rsp)
	movups	2200(%r15), %xmm0
	movaps	%xmm0, 48(%rsp)
.Ltmp558:
	#DEBUG_VALUE: tmpPPS <- [DW_OP_plus_uconst 72, DW_OP_deref, DW_OP_LLVM_fragment 0 17280] $rsp
	#DEBUG_VALUE: tmpPPS <- [DW_OP_plus_uconst 16, DW_OP_deref, DW_OP_LLVM_fragment 17344 384] $rsp
	#DEBUG_VALUE: tmpPPS <- [DW_OP_LLVM_fragment 17280 64] $rbp
	.loc	0 548 39 is_stmt 1              # ldecod_src/image.c:548:39
	movq	$0, 2160(%r15)
	.loc	0 549 37                        # ldecod_src/image.c:549:37
	movq	856872(%rbx), %rdx
	.loc	0 549 47 is_stmt 0              # ldecod_src/image.c:549:47
	movl	4(%rdx), %esi
	.loc	0 549 5                         # ldecod_src/image.c:549:5
	movq	%rbx, %rdi
	callq	MakePPSavailable@PLT
.Ltmp559:
	.loc	0 550 19 is_stmt 1              # ldecod_src/image.c:550:19
	movq	856872(%rbx), %r15
	.loc	0 550 5 is_stmt 0               # ldecod_src/image.c:550:5
	movl	$2160, %edx                     # imm = 0x870
	movq	%r15, %rdi
	leaq	72(%rsp), %rsi
	callq	memcpy@PLT
.Ltmp560:
	movq	%rbp, 2160(%r15)
	movaps	16(%rsp), %xmm0
	movaps	32(%rsp), %xmm1
	movaps	48(%rsp), %xmm2
	movups	%xmm0, 2168(%r15)
	movups	%xmm1, 2184(%r15)
	movups	%xmm2, 2200(%r15)
.Ltmp561:
	#DEBUG_VALUE: tmpPPS <- [DW_OP_LLVM_fragment 17280 64] 0
.LBB5_54:                               # %if.end11.i294
	#DEBUG_VALUE: decode_one_frame:pDecoder <- [DW_OP_LLVM_entry_value 1] $rdi
	#DEBUG_VALUE: decode_one_frame:p_Vid <- $rbx
	#DEBUG_VALUE: decode_one_frame:ppSliceList <- $r14
	#DEBUG_VALUE: decode_one_frame:current_header <- $r12d
	#DEBUG_VALUE: decode_one_frame:iRet <- $r12d
	#DEBUG_VALUE: init_picture_decoding:p_Vid <- $rbx
	#DEBUG_VALUE: init_picture_decoding:pSlice <- $r13
	#DEBUG_VALUE: init_picture_decoding:iDeblockMode <- 1
	.loc	0 554 3 is_stmt 1               # ldecod_src/image.c:554:3
	movq	%r13, %rdi
	callq	UseParameterSet@PLT
.Ltmp562:
	.loc	0 555 6                         # ldecod_src/image.c:555:6
	cmpl	$0, 48(%r13)
.Ltmp563:
	.loc	0 555 6 is_stmt 0               # ldecod_src/image.c:555:6
	je	.LBB5_56
.Ltmp564:
# %bb.55:                               # %if.then13.i296
	#DEBUG_VALUE: decode_one_frame:pDecoder <- [DW_OP_LLVM_entry_value 1] $rdi
	#DEBUG_VALUE: decode_one_frame:p_Vid <- $rbx
	#DEBUG_VALUE: decode_one_frame:ppSliceList <- $r14
	#DEBUG_VALUE: decode_one_frame:current_header <- $r12d
	#DEBUG_VALUE: decode_one_frame:iRet <- $r12d
	#DEBUG_VALUE: init_picture_decoding:p_Vid <- $rbx
	#DEBUG_VALUE: init_picture_decoding:pSlice <- $r13
	#DEBUG_VALUE: init_picture_decoding:iDeblockMode <- 1
	.loc	0 556 18 is_stmt 1              # ldecod_src/image.c:556:18
	movl	$0, 848712(%rbx)
.Ltmp565:
.LBB5_56:                               # %if.end14.i297
	#DEBUG_VALUE: decode_one_frame:pDecoder <- [DW_OP_LLVM_entry_value 1] $rdi
	#DEBUG_VALUE: decode_one_frame:p_Vid <- $rbx
	#DEBUG_VALUE: decode_one_frame:ppSliceList <- $r14
	#DEBUG_VALUE: decode_one_frame:current_header <- $r12d
	#DEBUG_VALUE: decode_one_frame:iRet <- $r12d
	#DEBUG_VALUE: init_picture_decoding:p_Vid <- $rbx
	#DEBUG_VALUE: init_picture_decoding:pSlice <- $r13
	#DEBUG_VALUE: init_picture_decoding:iDeblockMode <- 1
	.loc	0 559 34                        # ldecod_src/image.c:559:34
	movl	848996(%rbx), %esi
	.loc	0 558 34                        # ldecod_src/image.c:558:34
	movl	849004(%rbx), %ecx
	.loc	0 558 67 is_stmt 0              # ldecod_src/image.c:558:67
	movl	176(%r13), %edi
	.loc	0 558 57                        # ldecod_src/image.c:558:57
	incl	%edi
	.loc	0 558 51                        # ldecod_src/image.c:558:51
	movl	%ecx, %eax
	xorl	%edx, %edx
	divl	%edi
	.loc	0 558 25                        # ldecod_src/image.c:558:25
	movl	%eax, 849008(%rbx)
	.loc	0 559 48 is_stmt 1              # ldecod_src/image.c:559:48
	imull	%esi, %eax
	.loc	0 559 25 is_stmt 0              # ldecod_src/image.c:559:25
	movl	%eax, 849012(%rbx)
	.loc	0 560 48 is_stmt 1              # ldecod_src/image.c:560:48
	imull	%ecx, %esi
	.loc	0 560 25 is_stmt 0              # ldecod_src/image.c:560:25
	movl	%esi, 849016(%rbx)
	.loc	0 561 30 is_stmt 1              # ldecod_src/image.c:561:30
	movl	184(%r13), %eax
	.loc	0 561 20 is_stmt 0              # ldecod_src/image.c:561:20
	movl	%eax, 848876(%rbx)
	.loc	0 563 3 is_stmt 1               # ldecod_src/image.c:563:3
	movq	%rbx, %rdi
	movq	%r13, %rsi
	callq	fmo_init@PLT
.Ltmp566:
	.loc	0 566 26                        # ldecod_src/image.c:566:26
	movq	856656(%rbx), %rdi
	.loc	0 566 41 is_stmt 0              # ldecod_src/image.c:566:41
	movl	1176(%r13), %esi
	.loc	0 566 3                         # ldecod_src/image.c:566:3
	callq	update_ref_list@PLT
.Ltmp567:
	.loc	0 567 28 is_stmt 1              # ldecod_src/image.c:567:28
	movq	856656(%rbx), %rdi
	.loc	0 567 43 is_stmt 0              # ldecod_src/image.c:567:43
	movl	1176(%r13), %esi
	.loc	0 567 3                         # ldecod_src/image.c:567:3
	callq	update_ltref_list@PLT
.Ltmp568:
	.loc	0 568 3 is_stmt 1               # ldecod_src/image.c:568:3
	movq	%r13, %rdi
	callq	update_pic_num@PLT
.Ltmp569:
	#DEBUG_VALUE: init_picture_decoding:i <- undef
	.loc	0 574 31                        # ldecod_src/image.c:574:31
	movl	128(%r13), %esi
	.loc	0 574 3 is_stmt 0               # ldecod_src/image.c:574:3
	movq	%rbx, %rdi
	callq	init_Deblock@PLT
.Ltmp570:
	#DEBUG_VALUE: init_picture_decoding:j <- 0
	.loc	0 0 3                           # ldecod_src/image.c:0:3
	movslq	848720(%rbx), %rax
	testq	%rax, %rax
	#DEBUG_VALUE: init_picture_decoding:iDeblockMode <- 1
.Ltmp571:
	.loc	0 577 3 is_stmt 1               # ldecod_src/image.c:577:3
	jle	.LBB5_59
.Ltmp572:
# %bb.57:                               # %for.body.lr.ph.i300
	#DEBUG_VALUE: decode_one_frame:pDecoder <- [DW_OP_LLVM_entry_value 1] $rdi
	#DEBUG_VALUE: decode_one_frame:p_Vid <- $rbx
	#DEBUG_VALUE: decode_one_frame:ppSliceList <- $r14
	#DEBUG_VALUE: decode_one_frame:current_header <- $r12d
	#DEBUG_VALUE: decode_one_frame:iRet <- $r12d
	#DEBUG_VALUE: init_picture_decoding:p_Vid <- $rbx
	#DEBUG_VALUE: init_picture_decoding:pSlice <- $r13
	#DEBUG_VALUE: init_picture_decoding:iDeblockMode <- 1
	#DEBUG_VALUE: init_picture_decoding:j <- 0
	.loc	0 0 3 is_stmt 0                 # ldecod_src/image.c:0:3
	movq	848736(%rbx), %rcx
	.loc	0 577 3                         # ldecod_src/image.c:577:3
	cmpl	$4, %eax
	jae	.LBB5_60
.Ltmp573:
# %bb.58:
	#DEBUG_VALUE: decode_one_frame:pDecoder <- [DW_OP_LLVM_entry_value 1] $rdi
	#DEBUG_VALUE: decode_one_frame:p_Vid <- $rbx
	#DEBUG_VALUE: decode_one_frame:ppSliceList <- $r14
	#DEBUG_VALUE: decode_one_frame:current_header <- $r12d
	#DEBUG_VALUE: decode_one_frame:iRet <- $r12d
	#DEBUG_VALUE: init_picture_decoding:p_Vid <- $rbx
	#DEBUG_VALUE: init_picture_decoding:pSlice <- $r13
	#DEBUG_VALUE: init_picture_decoding:iDeblockMode <- 1
	#DEBUG_VALUE: init_picture_decoding:j <- 0
	.loc	0 0 3                           # ldecod_src/image.c:0:3
	movl	$1, %esi
	xorl	%r10d, %r10d
	.loc	0 577 3                         # ldecod_src/image.c:577:3
	jmp	.LBB5_63
.Ltmp574:
.LBB5_59:                               # %init_picture_decoding.exit.thread317
	#DEBUG_VALUE: decode_one_frame:pDecoder <- [DW_OP_LLVM_entry_value 1] $rdi
	#DEBUG_VALUE: decode_one_frame:p_Vid <- $rbx
	#DEBUG_VALUE: decode_one_frame:ppSliceList <- $r14
	#DEBUG_VALUE: decode_one_frame:current_header <- $r12d
	#DEBUG_VALUE: decode_one_frame:iRet <- $r12d
	#DEBUG_VALUE: init_picture_decoding:p_Vid <- $rbx
	#DEBUG_VALUE: init_picture_decoding:pSlice <- $r13
	#DEBUG_VALUE: init_picture_decoding:iDeblockMode <- 1
	#DEBUG_VALUE: init_picture_decoding:j <- 0
	.loc	0 585 23 is_stmt 1              # ldecod_src/image.c:585:23
	movl	$1, 856824(%rbx)
.Ltmp575:
	#DEBUG_VALUE: init_picture_decoding:j <- 0
	#DEBUG_VALUE: decode_one_frame:iSliceNo <- 0
	.loc	0 878 4                         # ldecod_src/image.c:878:4
	jmp	.LBB5_82
.Ltmp576:
.LBB5_60:                               # %vector.ph
	#DEBUG_VALUE: decode_one_frame:pDecoder <- [DW_OP_LLVM_entry_value 1] $rdi
	#DEBUG_VALUE: decode_one_frame:p_Vid <- $rbx
	#DEBUG_VALUE: decode_one_frame:ppSliceList <- $r14
	#DEBUG_VALUE: decode_one_frame:current_header <- $r12d
	#DEBUG_VALUE: decode_one_frame:iRet <- $r12d
	#DEBUG_VALUE: init_picture_decoding:p_Vid <- $rbx
	#DEBUG_VALUE: init_picture_decoding:pSlice <- $r13
	#DEBUG_VALUE: init_picture_decoding:iDeblockMode <- 1
	#DEBUG_VALUE: init_picture_decoding:j <- 0
	.loc	0 577 3                         # ldecod_src/image.c:577:3
	movl	%eax, %edx
	andl	$2147483644, %edx               # imm = 0x7FFFFFFC
	movq	%rdx, (%rsp)                    # 8-byte Spill
	movl	%eax, %esi
	shrl	$2, %esi
	andl	$536870911, %esi                # imm = 0x1FFFFFFF
	shlq	$5, %rsi
	xorl	%r9d, %r9d
	xorl	%r11d, %r11d
	xorl	%r10d, %r10d
	xorl	%r8d, %r8d
	xorl	%edi, %edi
.Ltmp577:
	.p2align	4, 0x90
.LBB5_61:                               # %vector.body
                                        # =>This Inner Loop Header: Depth=1
	#DEBUG_VALUE: decode_one_frame:pDecoder <- [DW_OP_LLVM_entry_value 1] $rdi
	#DEBUG_VALUE: decode_one_frame:p_Vid <- $rbx
	#DEBUG_VALUE: decode_one_frame:ppSliceList <- $r14
	#DEBUG_VALUE: decode_one_frame:current_header <- $r12d
	#DEBUG_VALUE: decode_one_frame:iRet <- $r12d
	#DEBUG_VALUE: init_picture_decoding:p_Vid <- $rbx
	#DEBUG_VALUE: init_picture_decoding:iDeblockMode <- 1
	#DEBUG_VALUE: init_picture_decoding:j <- 0
	.loc	0 579 8                         # ldecod_src/image.c:579:8
	movq	(%rcx,%r9), %r15
	.loc	0 579 44 is_stmt 0              # ldecod_src/image.c:579:44
	cmpw	$0, 1220(%r15)
	.loc	0 579 8                         # ldecod_src/image.c:579:8
	movq	8(%rcx,%r9), %r15
	.loc	0 579 44                        # ldecod_src/image.c:579:44
	sete	%bpl
	cmpw	$0, 1220(%r15)
	.loc	0 579 8                         # ldecod_src/image.c:579:8
	movq	16(%rcx,%r9), %r15
	.loc	0 579 44                        # ldecod_src/image.c:579:44
	sete	%r13b
	cmpw	$0, 1220(%r15)
	.loc	0 579 8                         # ldecod_src/image.c:579:8
	movq	24(%rcx,%r9), %r15
	.loc	0 579 44                        # ldecod_src/image.c:579:44
	sete	%dl
	cmpw	$0, 1220(%r15)
	sete	%r15b
	orb	%bpl, %r11b
	orb	%r13b, %r10b
	orb	%dl, %r8b
	orb	%r15b, %dil
.Ltmp578:
	.loc	0 577 42 is_stmt 1              # ldecod_src/image.c:577:42
	addq	$32, %r9
	cmpq	%r9, %rsi
	jne	.LBB5_61
.Ltmp579:
# %bb.62:                               # %middle.block
	#DEBUG_VALUE: decode_one_frame:pDecoder <- [DW_OP_LLVM_entry_value 1] $rdi
	#DEBUG_VALUE: decode_one_frame:p_Vid <- $rbx
	#DEBUG_VALUE: decode_one_frame:ppSliceList <- $r14
	#DEBUG_VALUE: decode_one_frame:current_header <- $r12d
	#DEBUG_VALUE: decode_one_frame:iRet <- $r12d
	#DEBUG_VALUE: init_picture_decoding:p_Vid <- $rbx
	#DEBUG_VALUE: init_picture_decoding:iDeblockMode <- 1
	#DEBUG_VALUE: init_picture_decoding:j <- 0
	.loc	0 577 3 is_stmt 0               # ldecod_src/image.c:577:3
	orb	%r11b, %r10b
	orb	%r10b, %r8b
	orb	%r8b, %dil
	notb	%dil
	movzbl	%dil, %esi
	andl	$1, %esi
	movq	(%rsp), %r10                    # 8-byte Reload
	cmpq	%rax, %r10
	je	.LBB5_70
.Ltmp580:
.LBB5_63:                               # %for.body.i301.preheader
	#DEBUG_VALUE: decode_one_frame:pDecoder <- [DW_OP_LLVM_entry_value 1] $rdi
	#DEBUG_VALUE: decode_one_frame:p_Vid <- $rbx
	#DEBUG_VALUE: decode_one_frame:ppSliceList <- $r14
	#DEBUG_VALUE: decode_one_frame:current_header <- $r12d
	#DEBUG_VALUE: decode_one_frame:iRet <- $r12d
	#DEBUG_VALUE: init_picture_decoding:p_Vid <- $rbx
	#DEBUG_VALUE: init_picture_decoding:iDeblockMode <- 1
	#DEBUG_VALUE: init_picture_decoding:j <- 0
	movq	%rax, %r8
	andq	$3, %r8
	je	.LBB5_67
.Ltmp581:
# %bb.64:                               # %for.body.i301.prol.preheader
	#DEBUG_VALUE: decode_one_frame:pDecoder <- [DW_OP_LLVM_entry_value 1] $rdi
	#DEBUG_VALUE: decode_one_frame:p_Vid <- $rbx
	#DEBUG_VALUE: decode_one_frame:ppSliceList <- $r14
	#DEBUG_VALUE: decode_one_frame:current_header <- $r12d
	#DEBUG_VALUE: decode_one_frame:iRet <- $r12d
	#DEBUG_VALUE: init_picture_decoding:p_Vid <- $rbx
	#DEBUG_VALUE: init_picture_decoding:iDeblockMode <- 1
	#DEBUG_VALUE: init_picture_decoding:j <- 0
	.loc	0 0 3                           # ldecod_src/image.c:0:3
	xorl	%r9d, %r9d
	movq	%r10, %rdi
.Ltmp582:
	.p2align	4, 0x90
.LBB5_65:                               # %for.body.i301.prol
                                        # =>This Inner Loop Header: Depth=1
	#DEBUG_VALUE: decode_one_frame:pDecoder <- [DW_OP_LLVM_entry_value 1] $rdi
	#DEBUG_VALUE: decode_one_frame:p_Vid <- $rbx
	#DEBUG_VALUE: decode_one_frame:ppSliceList <- $r14
	#DEBUG_VALUE: decode_one_frame:current_header <- $r12d
	#DEBUG_VALUE: decode_one_frame:iRet <- $r12d
	#DEBUG_VALUE: init_picture_decoding:p_Vid <- $rbx
	#DEBUG_VALUE: init_picture_decoding:iDeblockMode <- $esi
	#DEBUG_VALUE: init_picture_decoding:j <- $rdi
	.loc	0 579 8 is_stmt 1               # ldecod_src/image.c:579:8
	movq	(%rcx,%rdi,8), %rdx
	.loc	0 579 44 is_stmt 0              # ldecod_src/image.c:579:44
	cmpw	$0, 1220(%rdx)
.Ltmp583:
	.loc	0 579 8                         # ldecod_src/image.c:579:8
	cmovel	%r9d, %esi
.Ltmp584:
	#DEBUG_VALUE: init_picture_decoding:iDeblockMode <- $esi
	.loc	0 577 42 is_stmt 1              # ldecod_src/image.c:577:42
	incq	%rdi
.Ltmp585:
	#DEBUG_VALUE: init_picture_decoding:j <- $rdi
	.loc	0 577 3 is_stmt 0               # ldecod_src/image.c:577:3
	decq	%r8
	jne	.LBB5_65
.Ltmp586:
# %bb.66:                               # %for.body.i301.prol.loopexit
	#DEBUG_VALUE: decode_one_frame:pDecoder <- [DW_OP_LLVM_entry_value 1] $rdi
	#DEBUG_VALUE: decode_one_frame:p_Vid <- $rbx
	#DEBUG_VALUE: decode_one_frame:ppSliceList <- $r14
	#DEBUG_VALUE: decode_one_frame:current_header <- $r12d
	#DEBUG_VALUE: decode_one_frame:iRet <- $r12d
	#DEBUG_VALUE: init_picture_decoding:p_Vid <- $rbx
	#DEBUG_VALUE: init_picture_decoding:iDeblockMode <- $esi
	#DEBUG_VALUE: init_picture_decoding:j <- $rdi
	subq	%rax, %r10
	cmpq	$-4, %r10
	jbe	.LBB5_68
	jmp	.LBB5_70
.Ltmp587:
.LBB5_67:
	#DEBUG_VALUE: decode_one_frame:pDecoder <- [DW_OP_LLVM_entry_value 1] $rdi
	#DEBUG_VALUE: decode_one_frame:p_Vid <- $rbx
	#DEBUG_VALUE: decode_one_frame:ppSliceList <- $r14
	#DEBUG_VALUE: decode_one_frame:current_header <- $r12d
	#DEBUG_VALUE: decode_one_frame:iRet <- $r12d
	#DEBUG_VALUE: init_picture_decoding:p_Vid <- $rbx
	#DEBUG_VALUE: init_picture_decoding:iDeblockMode <- 1
	#DEBUG_VALUE: init_picture_decoding:j <- 0
	.loc	0 0 3                           # ldecod_src/image.c:0:3
	movq	%r10, %rdi
	.loc	0 577 3                         # ldecod_src/image.c:577:3
	subq	%rax, %r10
	cmpq	$-4, %r10
	ja	.LBB5_70
.Ltmp588:
.LBB5_68:                               # %for.body.i301.preheader.new
	#DEBUG_VALUE: decode_one_frame:pDecoder <- [DW_OP_LLVM_entry_value 1] $rdi
	#DEBUG_VALUE: decode_one_frame:p_Vid <- $rbx
	#DEBUG_VALUE: decode_one_frame:ppSliceList <- $r14
	#DEBUG_VALUE: decode_one_frame:current_header <- $r12d
	#DEBUG_VALUE: decode_one_frame:iRet <- $r12d
	#DEBUG_VALUE: init_picture_decoding:p_Vid <- $rbx
	.loc	0 0 3                           # ldecod_src/image.c:0:3
	xorl	%edx, %edx
.Ltmp589:
	.p2align	4, 0x90
.LBB5_69:                               # %for.body.i301
                                        # =>This Inner Loop Header: Depth=1
	#DEBUG_VALUE: decode_one_frame:pDecoder <- [DW_OP_LLVM_entry_value 1] $rdi
	#DEBUG_VALUE: decode_one_frame:p_Vid <- $rbx
	#DEBUG_VALUE: decode_one_frame:ppSliceList <- $r14
	#DEBUG_VALUE: decode_one_frame:current_header <- $r12d
	#DEBUG_VALUE: decode_one_frame:iRet <- $r12d
	#DEBUG_VALUE: init_picture_decoding:p_Vid <- $rbx
	#DEBUG_VALUE: init_picture_decoding:iDeblockMode <- $esi
	#DEBUG_VALUE: init_picture_decoding:j <- $rdi
	.loc	0 579 8 is_stmt 1               # ldecod_src/image.c:579:8
	movq	(%rcx,%rdi,8), %r8
.Ltmp590:
	#DEBUG_VALUE: init_picture_decoding:iDeblockMode <- undef
	#DEBUG_VALUE: init_picture_decoding:j <- [DW_OP_plus_uconst 1, DW_OP_stack_value] $rdi
	movq	8(%rcx,%rdi,8), %r9
	.loc	0 579 44 is_stmt 0              # ldecod_src/image.c:579:44
	cmpw	$0, 1220(%r8)
.Ltmp591:
	.loc	0 579 8                         # ldecod_src/image.c:579:8
	cmovel	%edx, %esi
.Ltmp592:
	.loc	0 579 44                        # ldecod_src/image.c:579:44
	cmpw	$0, 1220(%r9)
.Ltmp593:
	#DEBUG_VALUE: init_picture_decoding:j <- [DW_OP_plus_uconst 2, DW_OP_stack_value] $rdi
	.loc	0 579 8                         # ldecod_src/image.c:579:8
	cmovel	%edx, %esi
.Ltmp594:
	.loc	0 579 8                         # ldecod_src/image.c:579:8
	movq	16(%rcx,%rdi,8), %r8
	.loc	0 579 44                        # ldecod_src/image.c:579:44
	cmpw	$0, 1220(%r8)
.Ltmp595:
	#DEBUG_VALUE: init_picture_decoding:j <- [DW_OP_plus_uconst 3, DW_OP_stack_value] $rdi
	.loc	0 579 8                         # ldecod_src/image.c:579:8
	movq	24(%rcx,%rdi,8), %r8
.Ltmp596:
	.loc	0 579 8                         # ldecod_src/image.c:579:8
	cmovel	%edx, %esi
.Ltmp597:
	.loc	0 579 44                        # ldecod_src/image.c:579:44
	cmpw	$0, 1220(%r8)
.Ltmp598:
	.loc	0 579 8                         # ldecod_src/image.c:579:8
	cmovel	%edx, %esi
.Ltmp599:
	#DEBUG_VALUE: init_picture_decoding:iDeblockMode <- $esi
	.loc	0 577 42 is_stmt 1              # ldecod_src/image.c:577:42
	addq	$4, %rdi
.Ltmp600:
	#DEBUG_VALUE: init_picture_decoding:j <- $rdi
	.loc	0 577 13 is_stmt 0              # ldecod_src/image.c:577:13
	cmpq	%rdi, %rax
.Ltmp601:
	.loc	0 577 3                         # ldecod_src/image.c:577:3
	jne	.LBB5_69
.Ltmp602:
.LBB5_70:                               # %for.end.i
	#DEBUG_VALUE: decode_one_frame:pDecoder <- [DW_OP_LLVM_entry_value 1] $rdi
	#DEBUG_VALUE: decode_one_frame:p_Vid <- $rbx
	#DEBUG_VALUE: decode_one_frame:ppSliceList <- $r14
	#DEBUG_VALUE: decode_one_frame:current_header <- $r12d
	#DEBUG_VALUE: decode_one_frame:iRet <- $r12d
	#DEBUG_VALUE: init_picture_decoding:p_Vid <- $rbx
	.loc	0 585 23 is_stmt 1              # ldecod_src/image.c:585:23
	movl	%esi, 856824(%rbx)
.Ltmp603:
	.loc	0 587 26                        # ldecod_src/image.c:587:26
	cmpl	$1, %esi
.Ltmp604:
	.loc	0 587 6 is_stmt 0               # ldecod_src/image.c:587:6
	jne	.LBB5_80
.Ltmp605:
# %bb.71:                               # %for.body40.lr.ph.i
	#DEBUG_VALUE: decode_one_frame:pDecoder <- [DW_OP_LLVM_entry_value 1] $rdi
	#DEBUG_VALUE: decode_one_frame:p_Vid <- $rbx
	#DEBUG_VALUE: decode_one_frame:ppSliceList <- $r14
	#DEBUG_VALUE: decode_one_frame:current_header <- $r12d
	#DEBUG_VALUE: decode_one_frame:iRet <- $r12d
	#DEBUG_VALUE: init_picture_decoding:p_Vid <- $rbx
	.loc	0 0 6                           # ldecod_src/image.c:0:6
	leaq	848896(%rbx), %rcx
	leaq	848888(%rbx), %rdx
	xorl	%esi, %esi
	jmp	.LBB5_73
.Ltmp606:
	.p2align	4, 0x90
.LBB5_72:                               # %for.inc67.i
                                        #   in Loop: Header=BB5_73 Depth=1
	#DEBUG_VALUE: decode_one_frame:pDecoder <- [DW_OP_LLVM_entry_value 1] $rdi
	#DEBUG_VALUE: decode_one_frame:p_Vid <- $rbx
	#DEBUG_VALUE: decode_one_frame:ppSliceList <- $r14
	#DEBUG_VALUE: decode_one_frame:current_header <- $r12d
	#DEBUG_VALUE: decode_one_frame:iRet <- $r12d
	#DEBUG_VALUE: init_picture_decoding:p_Vid <- $rbx
	#DEBUG_VALUE: init_picture_decoding:pSlice <- $rdi
	#DEBUG_VALUE: init_picture_decoding:j <- $rsi
	.loc	0 589 44 is_stmt 1              # ldecod_src/image.c:589:44
	incq	%rsi
.Ltmp607:
	#DEBUG_VALUE: init_picture_decoding:j <- $rsi
	.loc	0 589 15 is_stmt 0              # ldecod_src/image.c:589:15
	movslq	%eax, %rdi
.Ltmp608:
	cmpq	%rdi, %rsi
.Ltmp609:
	.loc	0 589 5                         # ldecod_src/image.c:589:5
	jge	.LBB5_79
.Ltmp610:
.LBB5_73:                               # %for.body40.i
                                        # =>This Loop Header: Depth=1
                                        #     Child Loop BB5_77 Depth 2
	#DEBUG_VALUE: decode_one_frame:pDecoder <- [DW_OP_LLVM_entry_value 1] $rdi
	#DEBUG_VALUE: decode_one_frame:p_Vid <- $rbx
	#DEBUG_VALUE: decode_one_frame:ppSliceList <- $r14
	#DEBUG_VALUE: decode_one_frame:current_header <- $r12d
	#DEBUG_VALUE: decode_one_frame:iRet <- $r12d
	#DEBUG_VALUE: init_picture_decoding:p_Vid <- $rbx
	#DEBUG_VALUE: init_picture_decoding:j <- $rsi
	.loc	0 591 23 is_stmt 1              # ldecod_src/image.c:591:23
	movq	848736(%rbx), %rdi
	.loc	0 591 16 is_stmt 0              # ldecod_src/image.c:591:16
	movq	(%rdi,%rsi,8), %rdi
.Ltmp611:
	#DEBUG_VALUE: init_picture_decoding:pSlice <- $rdi
	#DEBUG_VALUE: init_picture_decoding:iSliceNo <- [DW_OP_LLVM_convert 16 5, DW_OP_LLVM_convert 32 5, DW_OP_stack_value] undef
	.loc	0 593 45 is_stmt 1              # ldecod_src/image.c:593:45
	cmpl	$0, 849280(%rbx)
	movq	%rdx, %r9
.Ltmp612:
	.loc	0 593 10 is_stmt 0              # ldecod_src/image.c:593:10
	je	.LBB5_75
.Ltmp613:
# %bb.74:                               # %if.then47.i
                                        #   in Loop: Header=BB5_73 Depth=1
	#DEBUG_VALUE: decode_one_frame:pDecoder <- [DW_OP_LLVM_entry_value 1] $rdi
	#DEBUG_VALUE: decode_one_frame:p_Vid <- $rbx
	#DEBUG_VALUE: decode_one_frame:ppSliceList <- $r14
	#DEBUG_VALUE: decode_one_frame:current_header <- $r12d
	#DEBUG_VALUE: decode_one_frame:iRet <- $r12d
	#DEBUG_VALUE: init_picture_decoding:p_Vid <- $rbx
	#DEBUG_VALUE: init_picture_decoding:pSlice <- $rdi
	#DEBUG_VALUE: init_picture_decoding:j <- $rsi
	.loc	0 594 45 is_stmt 1              # ldecod_src/image.c:594:45
	movslq	216(%rdi), %r8
	.loc	0 594 19 is_stmt 0              # ldecod_src/image.c:594:19
	leaq	(%rcx,%r8,8), %r9
.Ltmp614:
	#DEBUG_VALUE: init_picture_decoding:pMBData <- undef
.LBB5_75:                               # %if.end50.i
                                        #   in Loop: Header=BB5_73 Depth=1
	#DEBUG_VALUE: decode_one_frame:pDecoder <- [DW_OP_LLVM_entry_value 1] $rdi
	#DEBUG_VALUE: decode_one_frame:p_Vid <- $rbx
	#DEBUG_VALUE: decode_one_frame:ppSliceList <- $r14
	#DEBUG_VALUE: decode_one_frame:current_header <- $r12d
	#DEBUG_VALUE: decode_one_frame:iRet <- $r12d
	#DEBUG_VALUE: init_picture_decoding:p_Vid <- $rbx
	#DEBUG_VALUE: init_picture_decoding:pSlice <- $rdi
	#DEBUG_VALUE: init_picture_decoding:j <- $rsi
	#DEBUG_VALUE: init_picture_decoding:pMBData <- undef
	.loc	0 597 23 is_stmt 1              # ldecod_src/image.c:597:23
	movslq	188(%rdi), %r10
	.loc	0 597 50 is_stmt 0              # ldecod_src/image.c:597:50
	movslq	128(%rdi), %r8
	.loc	0 597 40                        # ldecod_src/image.c:597:40
	incq	%r8
.Ltmp615:
	#DEBUG_VALUE: init_picture_decoding:i <- undef
	.loc	0 0 40                          # ldecod_src/image.c:0:40
	movl	192(%rdi), %r11d
.Ltmp616:
	.loc	0 597 98                        # ldecod_src/image.c:597:98
	imull	%r8d, %r11d
.Ltmp617:
	.loc	0 597 35                        # ldecod_src/image.c:597:35
	imulq	%r10, %r8
.Ltmp618:
	#DEBUG_VALUE: init_picture_decoding:i <- $r8d
	.loc	0 597 72                        # ldecod_src/image.c:597:72
	cmpl	%r11d, %r8d
.Ltmp619:
	.loc	0 597 7                         # ldecod_src/image.c:597:7
	jge	.LBB5_72
.Ltmp620:
# %bb.76:                               # %for.body60.preheader.i
                                        #   in Loop: Header=BB5_73 Depth=1
	#DEBUG_VALUE: decode_one_frame:pDecoder <- [DW_OP_LLVM_entry_value 1] $rdi
	#DEBUG_VALUE: decode_one_frame:p_Vid <- $rbx
	#DEBUG_VALUE: decode_one_frame:ppSliceList <- $r14
	#DEBUG_VALUE: decode_one_frame:current_header <- $r12d
	#DEBUG_VALUE: decode_one_frame:iRet <- $r12d
	#DEBUG_VALUE: init_picture_decoding:p_Vid <- $rbx
	#DEBUG_VALUE: init_picture_decoding:pSlice <- $rdi
	#DEBUG_VALUE: init_picture_decoding:i <- $r8d
	#DEBUG_VALUE: init_picture_decoding:j <- $rsi
	.loc	0 0 0                           # ldecod_src/image.c:0:0
	movzwl	116(%rdi), %eax
.Ltmp621:
	#DEBUG_VALUE: init_picture_decoding:iSliceNo <- [DW_OP_LLVM_convert 16 5, DW_OP_LLVM_convert 32 5, DW_OP_stack_value] $ax
	movq	(%r9), %r9
.Ltmp622:
	#DEBUG_VALUE: init_picture_decoding:pMBData <- $r9
	.loc	0 597 7                         # ldecod_src/image.c:597:7
	imulq	$480, %r8, %r10                 # imm = 0x1E0
	addq	%r10, %r9
.Ltmp623:
	addq	$108, %r9
.Ltmp624:
	.p2align	4, 0x90
.LBB5_77:                               # %for.body60.i
                                        #   Parent Loop BB5_73 Depth=1
                                        # =>  This Inner Loop Header: Depth=2
	#DEBUG_VALUE: decode_one_frame:pDecoder <- [DW_OP_LLVM_entry_value 1] $rdi
	#DEBUG_VALUE: decode_one_frame:p_Vid <- $rbx
	#DEBUG_VALUE: decode_one_frame:ppSliceList <- $r14
	#DEBUG_VALUE: decode_one_frame:current_header <- $r12d
	#DEBUG_VALUE: decode_one_frame:iRet <- $r12d
	#DEBUG_VALUE: init_picture_decoding:p_Vid <- $rbx
	#DEBUG_VALUE: init_picture_decoding:pSlice <- $rdi
	#DEBUG_VALUE: init_picture_decoding:j <- $rsi
	#DEBUG_VALUE: init_picture_decoding:iSliceNo <- [DW_OP_LLVM_convert 16 5, DW_OP_LLVM_convert 32 5, DW_OP_stack_value] $ax
	#DEBUG_VALUE: init_picture_decoding:i <- $r8
	.loc	0 598 29 is_stmt 1              # ldecod_src/image.c:598:29
	movw	%ax, (%r9)
	.loc	0 597 134                       # ldecod_src/image.c:597:134
	incq	%r8
.Ltmp625:
	#DEBUG_VALUE: init_picture_decoding:i <- $r8
	.loc	0 597 82 is_stmt 0              # ldecod_src/image.c:597:82
	movslq	192(%rdi), %r10
	.loc	0 597 113                       # ldecod_src/image.c:597:113
	movslq	128(%rdi), %r11
	.loc	0 597 103                       # ldecod_src/image.c:597:103
	incq	%r11
	.loc	0 597 98                        # ldecod_src/image.c:597:98
	imulq	%r10, %r11
	.loc	0 597 72                        # ldecod_src/image.c:597:72
	addq	$480, %r9                       # imm = 0x1E0
	cmpq	%r11, %r8
.Ltmp626:
	.loc	0 597 7                         # ldecod_src/image.c:597:7
	jl	.LBB5_77
.Ltmp627:
# %bb.78:                               # %for.inc67.loopexit.i
                                        #   in Loop: Header=BB5_73 Depth=1
	#DEBUG_VALUE: decode_one_frame:pDecoder <- [DW_OP_LLVM_entry_value 1] $rdi
	#DEBUG_VALUE: decode_one_frame:p_Vid <- $rbx
	#DEBUG_VALUE: decode_one_frame:ppSliceList <- $r14
	#DEBUG_VALUE: decode_one_frame:current_header <- $r12d
	#DEBUG_VALUE: decode_one_frame:iRet <- $r12d
	#DEBUG_VALUE: init_picture_decoding:p_Vid <- $rbx
	#DEBUG_VALUE: init_picture_decoding:pSlice <- $rdi
	#DEBUG_VALUE: init_picture_decoding:i <- $r8
	#DEBUG_VALUE: init_picture_decoding:j <- $rsi
	#DEBUG_VALUE: init_picture_decoding:iSliceNo <- [DW_OP_LLVM_convert 16 5, DW_OP_LLVM_convert 32 5, DW_OP_stack_value] $ax
	.loc	0 589 23 is_stmt 1              # ldecod_src/image.c:589:23
	movl	848720(%rbx), %eax
.Ltmp628:
	.loc	0 0 23 is_stmt 0                # ldecod_src/image.c:0:23
	jmp	.LBB5_72
.Ltmp629:
.LBB5_79:                               # %init_picture_decoding.exit
	#DEBUG_VALUE: decode_one_frame:pDecoder <- [DW_OP_LLVM_entry_value 1] $rdi
	#DEBUG_VALUE: decode_one_frame:p_Vid <- $rbx
	#DEBUG_VALUE: decode_one_frame:ppSliceList <- $r14
	#DEBUG_VALUE: decode_one_frame:current_header <- $r12d
	#DEBUG_VALUE: decode_one_frame:iRet <- $r12d
	.loc	0 878 28 is_stmt 1              # ldecod_src/image.c:878:28
	testl	%eax, %eax
.Ltmp630:
	#DEBUG_VALUE: decode_one_frame:iSliceNo <- 0
	.loc	0 878 4 is_stmt 0               # ldecod_src/image.c:878:4
	jle	.LBB5_82
.Ltmp631:
.LBB5_80:                               # %for.body.lr.ph
	#DEBUG_VALUE: decode_one_frame:pDecoder <- [DW_OP_LLVM_entry_value 1] $rdi
	#DEBUG_VALUE: decode_one_frame:p_Vid <- $rbx
	#DEBUG_VALUE: decode_one_frame:ppSliceList <- $r14
	#DEBUG_VALUE: decode_one_frame:current_header <- $r12d
	#DEBUG_VALUE: decode_one_frame:iRet <- $r12d
	#DEBUG_VALUE: init_picture_decoding:p_Vid <- $rbx
	.loc	0 0 4                           # ldecod_src/image.c:0:4
	xorl	%r13d, %r13d
.Ltmp632:
	.p2align	4, 0x90
.LBB5_81:                               # %for.body
                                        # =>This Inner Loop Header: Depth=1
	#DEBUG_VALUE: decode_one_frame:pDecoder <- [DW_OP_LLVM_entry_value 1] $rdi
	#DEBUG_VALUE: decode_one_frame:p_Vid <- $rbx
	#DEBUG_VALUE: decode_one_frame:ppSliceList <- $r14
	#DEBUG_VALUE: decode_one_frame:iRet <- $r12d
	#DEBUG_VALUE: decode_one_frame:iSliceNo <- $r13
	.loc	0 880 17 is_stmt 1              # ldecod_src/image.c:880:17
	movq	(%r14,%r13,8), %r15
.Ltmp633:
	#DEBUG_VALUE: decode_one_frame:currSlice <- $r15
	.loc	0 881 33                        # ldecod_src/image.c:881:33
	movl	204(%r15), %ebp
.Ltmp634:
	#DEBUG_VALUE: decode_one_frame:current_header <- $ebp
	.loc	0 887 5                         # ldecod_src/image.c:887:5
	movq	%rbx, %rdi
	movq	%r15, %rsi
	callq	init_slice
.Ltmp635:
	.loc	0 888 5                         # ldecod_src/image.c:888:5
	movq	%r15, %rdi
	movl	%ebp, %esi
	callq	decode_slice
.Ltmp636:
	.loc	0 890 31                        # ldecod_src/image.c:890:31
	incl	848728(%rbx)
	.loc	0 891 37                        # ldecod_src/image.c:891:37
	movl	112(%r15), %eax
	.loc	0 891 23 is_stmt 0              # ldecod_src/image.c:891:23
	addl	%eax, 848716(%rbx)
	.loc	0 892 38 is_stmt 1              # ldecod_src/image.c:892:38
	movl	13504(%r15), %eax
	.loc	0 892 24 is_stmt 0              # ldecod_src/image.c:892:24
	addl	%eax, 856512(%rbx)
.Ltmp637:
	.loc	0 878 64 is_stmt 1              # ldecod_src/image.c:878:64
	incq	%r13
.Ltmp638:
	#DEBUG_VALUE: decode_one_frame:iSliceNo <- $r13
	.loc	0 878 36 is_stmt 0              # ldecod_src/image.c:878:36
	movslq	848720(%rbx), %rax
	.loc	0 878 28                        # ldecod_src/image.c:878:28
	cmpq	%rax, %r13
.Ltmp639:
	.loc	0 878 4                         # ldecod_src/image.c:878:4
	jl	.LBB5_81
.Ltmp640:
.LBB5_82:                               # %for.end
	#DEBUG_VALUE: decode_one_frame:pDecoder <- [DW_OP_LLVM_entry_value 1] $rdi
	#DEBUG_VALUE: decode_one_frame:p_Vid <- $rbx
	#DEBUG_VALUE: decode_one_frame:ppSliceList <- $r14
	#DEBUG_VALUE: decode_one_frame:iRet <- $r12d
	.loc	0 895 4 is_stmt 1               # ldecod_src/image.c:895:4
	movq	%rbx, %rdi
	movq	8(%rsp), %rsi                   # 8-byte Reload
	callq	exit_picture
.Ltmp641:
	.loc	0 896 31                        # ldecod_src/image.c:896:31
	movq	(%r14), %rax
	.loc	0 896 47 is_stmt 0              # ldecod_src/image.c:896:47
	movl	172(%rax), %eax
	.loc	0 896 29                        # ldecod_src/image.c:896:29
	movl	%eax, 851864(%rbx)
	.loc	0 897 3 is_stmt 1               # ldecod_src/image.c:897:3
	movl	%r12d, %eax
	.loc	0 897 3 epilogue_begin is_stmt 0 # ldecod_src/image.c:897:3
	addq	$2232, %rsp                     # imm = 0x8B8
	.cfi_def_cfa_offset 56
	popq	%rbx
.Ltmp642:
	.cfi_def_cfa_offset 48
	popq	%r12
.Ltmp643:
	#DEBUG_VALUE: decode_one_frame:iRet <- $eax
	.cfi_def_cfa_offset 40
	popq	%r13
	.cfi_def_cfa_offset 32
	popq	%r14
.Ltmp644:
	.cfi_def_cfa_offset 24
	popq	%r15
	.cfi_def_cfa_offset 16
	popq	%rbp
	.cfi_def_cfa_offset 8
	retq
.Ltmp645:
.Lfunc_end5:
	.size	decode_one_frame, .Lfunc_end5-decode_one_frame
	.cfi_endproc
	.file	26 "ldecod_src/inc" "parset.h" md5 0xe1b4400c3096806a6f80ce4d1614e45c
	.file	27 "/home/yjs/workspace" "GPUISel-llvm/build/lib/clang/19/include/__stddef_size_t.h" md5 0x2c44e821a2b1951cde2eb0fb2e656867
	.file	28 "ldecod_src/inc" "fmo.h" md5 0xe523ba0e56927122224f6df7d246a7ea
                                        # -- End function
	.p2align	4, 0x90                         # -- Begin function init_picture
	.type	init_picture,@function
init_picture:                           # @init_picture
.Lfunc_begin6:
	.loc	0 109 0 is_stmt 1               # ldecod_src/image.c:109:0
	.cfi_startproc
# %bb.0:                                # %entry
	#DEBUG_VALUE: init_picture:p_Vid <- $rdi
	#DEBUG_VALUE: init_picture:currSlice <- $rsi
	#DEBUG_VALUE: init_picture:p_Inp <- $rdx
	pushq	%r15
	.cfi_def_cfa_offset 16
	pushq	%r14
	.cfi_def_cfa_offset 24
	pushq	%r13
	.cfi_def_cfa_offset 32
	pushq	%r12
	.cfi_def_cfa_offset 40
	pushq	%rbx
	.cfi_def_cfa_offset 48
	.cfi_offset %rbx, -48
	.cfi_offset %r12, -40
	.cfi_offset %r13, -32
	.cfi_offset %r14, -24
	.cfi_offset %r15, -16
	movq	%rdx, %r15
	movq	%rsi, %r14
	movq	%rdi, %rbx
.Ltmp646:
	#DEBUG_VALUE: init_picture:dec_picture <- 0
	.loc	0 113 49 prologue_end           # ldecod_src/image.c:113:49
	movq	16(%rdi), %r13
.Ltmp647:
	#DEBUG_VALUE: init_picture:active_sps <- $r13
	.loc	0 114 44                        # ldecod_src/image.c:114:44
	movq	40(%rsi), %r12
.Ltmp648:
	#DEBUG_VALUE: init_picture:p_Dpb <- $r12
	.loc	0 116 21                        # ldecod_src/image.c:116:21
	movl	$1, 856864(%rdi)
.Ltmp649:
	.loc	0 117 7                         # ldecod_src/image.c:117:7
	cmpq	$0, 856456(%rdi)
.Ltmp650:
	.loc	0 117 7 is_stmt 0               # ldecod_src/image.c:117:7
	je	.LBB6_2
.Ltmp651:
# %bb.1:                                # %if.then
	#DEBUG_VALUE: init_picture:p_Vid <- $rbx
	#DEBUG_VALUE: init_picture:currSlice <- $r14
	#DEBUG_VALUE: init_picture:p_Inp <- $r15
	#DEBUG_VALUE: init_picture:dec_picture <- 0
	#DEBUG_VALUE: init_picture:active_sps <- $r13
	#DEBUG_VALUE: init_picture:p_Dpb <- $r12
	.loc	0 0 0                           # ldecod_src/image.c:0:0
	leaq	856456(%rbx), %rsi
.Ltmp652:
	.loc	0 120 5 is_stmt 1               # ldecod_src/image.c:120:5
	movq	%rbx, %rdi
	callq	exit_picture
.Ltmp653:
.LBB6_2:                                # %if.end
	#DEBUG_VALUE: init_picture:p_Vid <- $rbx
	#DEBUG_VALUE: init_picture:currSlice <- $r14
	#DEBUG_VALUE: init_picture:p_Inp <- $r15
	#DEBUG_VALUE: init_picture:dec_picture <- 0
	#DEBUG_VALUE: init_picture:active_sps <- $r13
	#DEBUG_VALUE: init_picture:p_Dpb <- $r12
	.loc	0 122 14                        # ldecod_src/image.c:122:14
	movl	849260(%rbx), %ecx
	.loc	0 122 7 is_stmt 0               # ldecod_src/image.c:122:7
	testl	%ecx, %ecx
.Ltmp654:
	.loc	0 122 7                         # ldecod_src/image.c:122:7
	je	.LBB6_4
.Ltmp655:
# %bb.3:                                # %if.then6
	#DEBUG_VALUE: init_picture:p_Vid <- $rbx
	#DEBUG_VALUE: init_picture:currSlice <- $r14
