	.text
	.file	"input.c"
	.file	0 "/home/yjs/workspace/x264-test/src" "ldecod_src/input.c" md5 0x80e81f41360cea424cc87a4c31e56ba6
	.file	1 "ldecod_src/inc" "frame.h" md5 0xfd6ca9e1c707932f749220576db72b57
	.file	2 "ldecod_src/inc" "io_video.h" md5 0x1141c07f1801ad27d87214c419749431
	.file	3 "ldecod_src/inc" "types.h" md5 0x64f87bd13f2911471c7313b4ac17e90c
	.file	4 "ldecod_src/inc" "typedefs.h" md5 0xe1393d024b72e653f4e6dbeffdb0b154
	.globl	initInput                       # -- Begin function initInput
	.p2align	4, 0x90
	.type	initInput,@function
initInput:                              # @initInput
.Lfunc_begin0:
	.cfi_startproc
# %bb.0:                                # %entry
	#DEBUG_VALUE: initInput:p_Vid <- $rdi
	#DEBUG_VALUE: initInput:source <- $rsi
	#DEBUG_VALUE: initInput:output <- $rdx
	.loc	0 42 7 prologue_end             # ldecod_src/input.c:42:7
	movl	88(%rsi), %eax
	.loc	0 42 28 is_stmt 0               # ldecod_src/input.c:42:28
	cmpl	88(%rdx), %eax
	.loc	0 42 52                         # ldecod_src/input.c:42:52
	jne	.LBB0_2
.Ltmp0:
# %bb.1:                                # %land.lhs.true
	#DEBUG_VALUE: initInput:p_Vid <- $rdi
	#DEBUG_VALUE: initInput:source <- $rsi
	#DEBUG_VALUE: initInput:output <- $rdx
	.loc	0 42 55                         # ldecod_src/input.c:42:55
	movl	92(%rsi), %ecx
	movl	$buf2img_basic, %eax
	.loc	0 42 76                         # ldecod_src/input.c:42:76
	cmpl	92(%rdx), %ecx
.Ltmp1:
	.loc	0 42 7                          # ldecod_src/input.c:42:7
	je	.LBB0_3
.Ltmp2:
.LBB0_2:                                # %if.else10
	#DEBUG_VALUE: initInput:p_Vid <- $rdi
	#DEBUG_VALUE: initInput:source <- $rsi
	#DEBUG_VALUE: initInput:output <- $rdx
	.loc	0 0 7                           # ldecod_src/input.c:0:7
	movl	$buf2img_bitshift, %eax
.Ltmp3:
.LBB0_3:                                # %if.end12
	#DEBUG_VALUE: initInput:p_Vid <- $rdi
	#DEBUG_VALUE: initInput:source <- $rsi
	#DEBUG_VALUE: initInput:output <- $rdx
	movq	%rax, 856736(%rdi)
.Ltmp4:
	.loc	0 51 1 is_stmt 1                # ldecod_src/input.c:51:1
	retq
.Ltmp5:
.Lfunc_end0:
	.size	initInput, .Lfunc_end0-initInput
	.cfi_endproc
                                        # -- End function
	.globl	testEndian                      # -- Begin function testEndian
	.p2align	4, 0x90
	.type	testEndian,@function
testEndian:                             # @testEndian
.Lfunc_begin1:
	.cfi_startproc
# %bb.0:                                # %entry
	#DEBUG_VALUE: testEndian:s <- [DW_OP_LLVM_fragment 0 8] 1
	#DEBUG_VALUE: testEndian:s <- [DW_OP_LLVM_fragment 8 8] 0
	.loc	0 72 3 prologue_end             # ldecod_src/input.c:72:3
	xorl	%eax, %eax
	retq
.Ltmp6:
.Lfunc_end1:
	.size	testEndian, .Lfunc_end1-testEndian
	.cfi_endproc
                                        # -- End function
	.globl	buf2img_endian                  # -- Begin function buf2img_endian
	.p2align	4, 0x90
	.type	buf2img_endian,@function
buf2img_endian:                         # @buf2img_endian
.Lfunc_begin2:
	.loc	0 473 0                         # ldecod_src/input.c:473:0
	.cfi_startproc
# %bb.0:                                # %entry
	#DEBUG_VALUE: buf2img_endian:imgX <- $rdi
	#DEBUG_VALUE: buf2img_endian:buf <- $rsi
	#DEBUG_VALUE: buf2img_endian:size_x <- $edx
	#DEBUG_VALUE: buf2img_endian:size_y <- $ecx
	#DEBUG_VALUE: buf2img_endian:o_size_x <- $r8d
	#DEBUG_VALUE: buf2img_endian:o_size_y <- $r9d
	pushq	%rbp
	.cfi_def_cfa_offset 16
	pushq	%r15
	.cfi_def_cfa_offset 24
	pushq	%r14
	.cfi_def_cfa_offset 32
	pushq	%r13
	.cfi_def_cfa_offset 40
	pushq	%r12
	.cfi_def_cfa_offset 48
	pushq	%rbx
	.cfi_def_cfa_offset 56
	pushq	%rax
	.cfi_def_cfa_offset 64
	.cfi_offset %rbx, -56
	.cfi_offset %r12, -48
	.cfi_offset %r13, -40
	.cfi_offset %r14, -32
	.cfi_offset %r15, -24
	.cfi_offset %rbp, -16
.Ltmp7:
	#DEBUG_VALUE: buf2img_endian:symbol_size_in_bytes <- [DW_OP_plus_uconst 64] [$rsp+0]
	#DEBUG_VALUE: buf2img_endian:dummy <- [DW_OP_plus_uconst 72] [$rsp+0]
	movl	%r9d, %r12d
	movl	%r8d, %r13d
	movl	%edx, %ebx
	movq	%rsi, %r14
	movq	%rdi, %r15
	movl	64(%rsp), %ebp
.Ltmp8:
	.loc	0 479 28 prologue_end           # ldecod_src/input.c:479:28
	cmpl	$3, %ebp
.Ltmp9:
	.loc	0 479 7 is_stmt 0               # ldecod_src/input.c:479:7
	jge	.LBB2_1
.Ltmp10:
# %bb.2:                                # %if.end
	#DEBUG_VALUE: buf2img_endian:imgX <- $r15
	#DEBUG_VALUE: buf2img_endian:buf <- $r14
	#DEBUG_VALUE: buf2img_endian:size_x <- $ebx
	#DEBUG_VALUE: buf2img_endian:size_y <- $ecx
	#DEBUG_VALUE: buf2img_endian:o_size_x <- $r13d
	#DEBUG_VALUE: buf2img_endian:o_size_y <- $r12d
	#DEBUG_VALUE: buf2img_endian:symbol_size_in_bytes <- [DW_OP_plus_uconst 64] [$rsp+0]
	#DEBUG_VALUE: buf2img_endian:dummy <- [DW_OP_plus_uconst 72] [$rsp+0]
	.loc	0 484 14 is_stmt 1              # ldecod_src/input.c:484:14
	xorl	%ebx, %r13d
.Ltmp11:
	#DEBUG_VALUE: buf2img_endian:o_size_x <- $r8d
	.loc	0 0 14 is_stmt 0                # ldecod_src/input.c:0:14
	xorl	%ecx, %r12d
.Ltmp12:
	#DEBUG_VALUE: buf2img_endian:o_size_y <- $r9d
	.loc	0 484 26                        # ldecod_src/input.c:484:26
	orl	%r13d, %r12d
	jne	.LBB2_3
.Ltmp13:
.LBB2_4:                                # %if.end4
	#DEBUG_VALUE: buf2img_endian:imgX <- $r15
	#DEBUG_VALUE: buf2img_endian:buf <- $r14
	#DEBUG_VALUE: buf2img_endian:size_x <- $ebx
	#DEBUG_VALUE: buf2img_endian:size_y <- [DW_OP_LLVM_entry_value 1] $ecx
	#DEBUG_VALUE: buf2img_endian:o_size_x <- [DW_OP_LLVM_entry_value 1] $r8d
	#DEBUG_VALUE: buf2img_endian:o_size_y <- [DW_OP_LLVM_entry_value 1] $r9d
	#DEBUG_VALUE: buf2img_endian:symbol_size_in_bytes <- [DW_OP_plus_uconst 64] [$rsp+0]
	#DEBUG_VALUE: buf2img_endian:dummy <- [DW_OP_plus_uconst 72] [$rsp+0]
	.loc	0 490 3 is_stmt 1               # ldecod_src/input.c:490:3
	cmpl	$1, %ebp
	je	.LBB2_23
.Ltmp14:
.LBB2_5:                                # %if.end4
	#DEBUG_VALUE: buf2img_endian:imgX <- $r15
	#DEBUG_VALUE: buf2img_endian:buf <- $r14
	#DEBUG_VALUE: buf2img_endian:size_x <- $ebx
	#DEBUG_VALUE: buf2img_endian:size_y <- [DW_OP_LLVM_entry_value 1] $ecx
	#DEBUG_VALUE: buf2img_endian:o_size_x <- [DW_OP_LLVM_entry_value 1] $r8d
	#DEBUG_VALUE: buf2img_endian:o_size_y <- [DW_OP_LLVM_entry_value 1] $r9d
	#DEBUG_VALUE: buf2img_endian:symbol_size_in_bytes <- [DW_OP_plus_uconst 64] [$rsp+0]
	#DEBUG_VALUE: buf2img_endian:dummy <- [DW_OP_plus_uconst 72] [$rsp+0]
	cmpl	$2, %ebp
	je	.LBB2_16
.Ltmp15:
# %bb.6:                                # %if.end4
	#DEBUG_VALUE: buf2img_endian:imgX <- $r15
	#DEBUG_VALUE: buf2img_endian:buf <- $r14
	#DEBUG_VALUE: buf2img_endian:size_x <- $ebx
	#DEBUG_VALUE: buf2img_endian:size_y <- [DW_OP_LLVM_entry_value 1] $ecx
	#DEBUG_VALUE: buf2img_endian:o_size_x <- [DW_OP_LLVM_entry_value 1] $r8d
	#DEBUG_VALUE: buf2img_endian:o_size_y <- [DW_OP_LLVM_entry_value 1] $r9d
	#DEBUG_VALUE: buf2img_endian:symbol_size_in_bytes <- [DW_OP_plus_uconst 64] [$rsp+0]
	#DEBUG_VALUE: buf2img_endian:dummy <- [DW_OP_plus_uconst 72] [$rsp+0]
	cmpl	$4, %ebp
	jne	.LBB2_32
.Ltmp16:
# %bb.7:                                # %for.cond42.preheader
	#DEBUG_VALUE: buf2img_endian:imgX <- $r15
	#DEBUG_VALUE: buf2img_endian:buf <- $r14
	#DEBUG_VALUE: buf2img_endian:size_x <- $ebx
	#DEBUG_VALUE: buf2img_endian:size_y <- [DW_OP_LLVM_entry_value 1] $ecx
	#DEBUG_VALUE: buf2img_endian:o_size_x <- [DW_OP_LLVM_entry_value 1] $r8d
	#DEBUG_VALUE: buf2img_endian:o_size_y <- [DW_OP_LLVM_entry_value 1] $r9d
	#DEBUG_VALUE: buf2img_endian:symbol_size_in_bytes <- [DW_OP_plus_uconst 64] [$rsp+0]
	#DEBUG_VALUE: buf2img_endian:dummy <- [DW_OP_plus_uconst 72] [$rsp+0]
	#DEBUG_VALUE: buf2img_endian:tmp32 <- undef
	#DEBUG_VALUE: buf2img_endian:j <- 0
	.loc	0 518 16                        # ldecod_src/input.c:518:16
	testl	%ecx, %ecx
	setle	%al
	testl	%ebx, %ebx
	setle	%dl
.Ltmp17:
	.loc	0 518 7 is_stmt 0               # ldecod_src/input.c:518:7
	orb	%al, %dl
	jne	.LBB2_31
.Ltmp18:
# %bb.8:                                # %for.cond46.preheader.us.preheader
	#DEBUG_VALUE: buf2img_endian:imgX <- $r15
	#DEBUG_VALUE: buf2img_endian:buf <- $r14
	#DEBUG_VALUE: buf2img_endian:size_x <- $ebx
	#DEBUG_VALUE: buf2img_endian:size_y <- [DW_OP_LLVM_entry_value 1] $ecx
	#DEBUG_VALUE: buf2img_endian:o_size_x <- [DW_OP_LLVM_entry_value 1] $r8d
	#DEBUG_VALUE: buf2img_endian:o_size_y <- [DW_OP_LLVM_entry_value 1] $r9d
	#DEBUG_VALUE: buf2img_endian:symbol_size_in_bytes <- [DW_OP_plus_uconst 64] [$rsp+0]
	#DEBUG_VALUE: buf2img_endian:dummy <- [DW_OP_plus_uconst 72] [$rsp+0]
	#DEBUG_VALUE: buf2img_endian:j <- 0
	movl	%ebx, %eax
.Ltmp19:
	.loc	0 518 16                        # ldecod_src/input.c:518:16
	movl	%ecx, %ecx
	movl	%eax, %edx
	andl	$2147483646, %edx               # imm = 0x7FFFFFFE
.Ltmp20:
	.loc	0 518 7                         # ldecod_src/input.c:518:7
	leaq	(,%rax,4), %rsi
	movl	$4, %edi
	xorl	%r8d, %r8d
	jmp	.LBB2_9
.Ltmp21:
	.p2align	4, 0x90
.LBB2_15:                               # %for.cond46.for.inc74_crit_edge.us
                                        #   in Loop: Header=BB2_9 Depth=1
	#DEBUG_VALUE: buf2img_endian:imgX <- $r15
	#DEBUG_VALUE: buf2img_endian:buf <- $r14
	#DEBUG_VALUE: buf2img_endian:size_x <- $ebx
	#DEBUG_VALUE: buf2img_endian:size_y <- [DW_OP_LLVM_entry_value 1] $ecx
	#DEBUG_VALUE: buf2img_endian:o_size_x <- [DW_OP_LLVM_entry_value 1] $r8d
	#DEBUG_VALUE: buf2img_endian:o_size_y <- [DW_OP_LLVM_entry_value 1] $r9d
	#DEBUG_VALUE: buf2img_endian:symbol_size_in_bytes <- [DW_OP_plus_uconst 64] [$rsp+0]
	#DEBUG_VALUE: buf2img_endian:dummy <- [DW_OP_plus_uconst 72] [$rsp+0]
	#DEBUG_VALUE: buf2img_endian:j <- $r8
	.loc	0 518 25                        # ldecod_src/input.c:518:25
	incq	%r8
.Ltmp22:
	#DEBUG_VALUE: buf2img_endian:j <- $r8
	#DEBUG_VALUE: buf2img_endian:tmp32 <- undef
	.loc	0 518 7                         # ldecod_src/input.c:518:7
	addq	%rsi, %rdi
.Ltmp23:
	.loc	0 518 16                        # ldecod_src/input.c:518:16
	cmpq	%rcx, %r8
.Ltmp24:
	.loc	0 518 7                         # ldecod_src/input.c:518:7
	je	.LBB2_31
.Ltmp25:
.LBB2_9:                                # %for.cond46.preheader.us
                                        # =>This Loop Header: Depth=1
                                        #     Child Loop BB2_12 Depth 2
	#DEBUG_VALUE: buf2img_endian:imgX <- $r15
	#DEBUG_VALUE: buf2img_endian:buf <- $r14
	#DEBUG_VALUE: buf2img_endian:size_x <- $ebx
	#DEBUG_VALUE: buf2img_endian:size_y <- [DW_OP_LLVM_entry_value 1] $ecx
	#DEBUG_VALUE: buf2img_endian:o_size_x <- [DW_OP_LLVM_entry_value 1] $r8d
	#DEBUG_VALUE: buf2img_endian:o_size_y <- [DW_OP_LLVM_entry_value 1] $r9d
	#DEBUG_VALUE: buf2img_endian:symbol_size_in_bytes <- [DW_OP_plus_uconst 64] [$rsp+0]
	#DEBUG_VALUE: buf2img_endian:dummy <- [DW_OP_plus_uconst 72] [$rsp+0]
	#DEBUG_VALUE: buf2img_endian:j <- $r8
	#DEBUG_VALUE: buf2img_endian:i <- 0
	#DEBUG_VALUE: buf2img_endian:tmp32 <- undef
	.loc	0 0 7                           # ldecod_src/input.c:0:7
	cmpl	$1, %ebx
.Ltmp26:
	.loc	0 520 9 is_stmt 1               # ldecod_src/input.c:520:9
	jne	.LBB2_11
.Ltmp27:
# %bb.10:                               #   in Loop: Header=BB2_9 Depth=1
	#DEBUG_VALUE: buf2img_endian:imgX <- $r15
	#DEBUG_VALUE: buf2img_endian:buf <- $r14
	#DEBUG_VALUE: buf2img_endian:size_x <- $ebx
	#DEBUG_VALUE: buf2img_endian:size_y <- [DW_OP_LLVM_entry_value 1] $ecx
	#DEBUG_VALUE: buf2img_endian:o_size_x <- [DW_OP_LLVM_entry_value 1] $r8d
	#DEBUG_VALUE: buf2img_endian:o_size_y <- [DW_OP_LLVM_entry_value 1] $r9d
	#DEBUG_VALUE: buf2img_endian:symbol_size_in_bytes <- [DW_OP_plus_uconst 64] [$rsp+0]
	#DEBUG_VALUE: buf2img_endian:dummy <- [DW_OP_plus_uconst 72] [$rsp+0]
	#DEBUG_VALUE: buf2img_endian:j <- $r8
	#DEBUG_VALUE: buf2img_endian:i <- 0
	.loc	0 0 9 is_stmt 0                 # ldecod_src/input.c:0:9
	xorl	%r9d, %r9d
	.loc	0 520 9                         # ldecod_src/input.c:520:9
	jmp	.LBB2_13
.Ltmp28:
	.p2align	4, 0x90
.LBB2_11:                               # %for.body49.us.preheader
                                        #   in Loop: Header=BB2_9 Depth=1
	#DEBUG_VALUE: buf2img_endian:imgX <- $r15
	#DEBUG_VALUE: buf2img_endian:buf <- $r14
	#DEBUG_VALUE: buf2img_endian:size_x <- $ebx
	#DEBUG_VALUE: buf2img_endian:size_y <- [DW_OP_LLVM_entry_value 1] $ecx
	#DEBUG_VALUE: buf2img_endian:o_size_x <- [DW_OP_LLVM_entry_value 1] $r8d
	#DEBUG_VALUE: buf2img_endian:o_size_y <- [DW_OP_LLVM_entry_value 1] $r9d
	#DEBUG_VALUE: buf2img_endian:symbol_size_in_bytes <- [DW_OP_plus_uconst 64] [$rsp+0]
	#DEBUG_VALUE: buf2img_endian:dummy <- [DW_OP_plus_uconst 72] [$rsp+0]
	#DEBUG_VALUE: buf2img_endian:j <- $r8
	#DEBUG_VALUE: buf2img_endian:i <- 0
	.loc	0 0 9                           # ldecod_src/input.c:0:9
	movq	%rdi, %r10
	xorl	%r9d, %r9d
.Ltmp29:
	.p2align	4, 0x90
.LBB2_12:                               # %for.body49.us
                                        #   Parent Loop BB2_9 Depth=1
                                        # =>  This Inner Loop Header: Depth=2
	#DEBUG_VALUE: buf2img_endian:imgX <- $r15
	#DEBUG_VALUE: buf2img_endian:buf <- $r14
	#DEBUG_VALUE: buf2img_endian:size_x <- $ebx
	#DEBUG_VALUE: buf2img_endian:size_y <- [DW_OP_LLVM_entry_value 1] $ecx
	#DEBUG_VALUE: buf2img_endian:o_size_x <- [DW_OP_LLVM_entry_value 1] $r8d
	#DEBUG_VALUE: buf2img_endian:o_size_y <- [DW_OP_LLVM_entry_value 1] $r9d
	#DEBUG_VALUE: buf2img_endian:symbol_size_in_bytes <- [DW_OP_plus_uconst 64] [$rsp+0]
	#DEBUG_VALUE: buf2img_endian:dummy <- [DW_OP_plus_uconst 72] [$rsp+0]
	#DEBUG_VALUE: buf2img_endian:j <- $r8
	#DEBUG_VALUE: buf2img_endian:i <- $r9
	#DEBUG_VALUE: buf2img_endian:tmp32 <- undef
	.loc	0 522 29 is_stmt 1              # ldecod_src/input.c:522:29
	leal	-4(%r10), %r11d
	andl	$-4, %r11d
	.loc	0 522 11 is_stmt 0              # ldecod_src/input.c:522:11
	movl	(%r14,%r11), %r11d
.Ltmp30:
	#DEBUG_VALUE: buf2img_endian:tmp32 <- [DW_OP_LLVM_fragment 0 32] undef
	.loc	0 0 11                          # ldecod_src/input.c:0:11
	bswapl	%r11d
.Ltmp31:
	#DEBUG_VALUE: buf2img_endian:ui32 <- [DW_OP_LLVM_convert 16 7, DW_OP_LLVM_convert 64 7, DW_OP_stack_value] $r11w
	.loc	0 524 11 is_stmt 1              # ldecod_src/input.c:524:11
	movq	(%r15,%r8,8), %r12
	.loc	0 524 22 is_stmt 0              # ldecod_src/input.c:524:22
	movw	%r11w, (%r12,%r9,2)
.Ltmp32:
	#DEBUG_VALUE: buf2img_endian:i <- [DW_OP_constu 1, DW_OP_or, DW_OP_stack_value] $r9
	#DEBUG_VALUE: buf2img_endian:tmp32 <- undef
	.loc	0 522 29 is_stmt 1              # ldecod_src/input.c:522:29
	movl	%r10d, %r11d
.Ltmp33:
	andl	$-4, %r11d
	.loc	0 522 11 is_stmt 0              # ldecod_src/input.c:522:11
	movl	(%r14,%r11), %r11d
.Ltmp34:
	#DEBUG_VALUE: buf2img_endian:tmp32 <- [DW_OP_LLVM_fragment 0 32] undef
	.loc	0 0 11                          # ldecod_src/input.c:0:11
	bswapl	%r11d
.Ltmp35:
	#DEBUG_VALUE: buf2img_endian:ui32 <- [DW_OP_LLVM_convert 16 7, DW_OP_LLVM_convert 64 7, DW_OP_stack_value] $r11w
	.loc	0 524 11 is_stmt 1              # ldecod_src/input.c:524:11
	movq	(%r15,%r8,8), %r12
	.loc	0 524 22 is_stmt 0              # ldecod_src/input.c:524:22
	movw	%r11w, 2(%r12,%r9,2)
.Ltmp36:
	.loc	0 520 27 is_stmt 1              # ldecod_src/input.c:520:27
	addq	$2, %r9
.Ltmp37:
	#DEBUG_VALUE: buf2img_endian:i <- $r9
	#DEBUG_VALUE: buf2img_endian:tmp32 <- undef
	.loc	0 520 9 is_stmt 0               # ldecod_src/input.c:520:9
	addq	$8, %r10
	cmpq	%r9, %rdx
	jne	.LBB2_12
.Ltmp38:
.LBB2_13:                               # %for.cond46.for.inc74_crit_edge.us.unr-lcssa
                                        #   in Loop: Header=BB2_9 Depth=1
	#DEBUG_VALUE: buf2img_endian:imgX <- $r15
	#DEBUG_VALUE: buf2img_endian:buf <- $r14
	#DEBUG_VALUE: buf2img_endian:size_x <- $ebx
	#DEBUG_VALUE: buf2img_endian:size_y <- [DW_OP_LLVM_entry_value 1] $ecx
	#DEBUG_VALUE: buf2img_endian:o_size_x <- [DW_OP_LLVM_entry_value 1] $r8d
	#DEBUG_VALUE: buf2img_endian:o_size_y <- [DW_OP_LLVM_entry_value 1] $r9d
	#DEBUG_VALUE: buf2img_endian:symbol_size_in_bytes <- [DW_OP_plus_uconst 64] [$rsp+0]
	#DEBUG_VALUE: buf2img_endian:dummy <- [DW_OP_plus_uconst 72] [$rsp+0]
	#DEBUG_VALUE: buf2img_endian:j <- $r8
	.loc	0 0 9                           # ldecod_src/input.c:0:9
	testb	$1, %al
	.loc	0 520 9                         # ldecod_src/input.c:520:9
	je	.LBB2_15
.Ltmp39:
# %bb.14:                               # %for.body49.us.epil
                                        #   in Loop: Header=BB2_9 Depth=1
	#DEBUG_VALUE: buf2img_endian:imgX <- $r15
	#DEBUG_VALUE: buf2img_endian:buf <- $r14
	#DEBUG_VALUE: buf2img_endian:size_x <- $ebx
	#DEBUG_VALUE: buf2img_endian:size_y <- [DW_OP_LLVM_entry_value 1] $ecx
	#DEBUG_VALUE: buf2img_endian:o_size_x <- [DW_OP_LLVM_entry_value 1] $r8d
	#DEBUG_VALUE: buf2img_endian:o_size_y <- [DW_OP_LLVM_entry_value 1] $r9d
	#DEBUG_VALUE: buf2img_endian:symbol_size_in_bytes <- [DW_OP_plus_uconst 64] [$rsp+0]
	#DEBUG_VALUE: buf2img_endian:dummy <- [DW_OP_plus_uconst 72] [$rsp+0]
	#DEBUG_VALUE: buf2img_endian:j <- $r8
	.loc	0 0 9                           # ldecod_src/input.c:0:9
	movq	%r8, %r10
	imulq	%rax, %r10
.Ltmp40:
	#DEBUG_VALUE: buf2img_endian:i <- $r9
	#DEBUG_VALUE: buf2img_endian:tmp32 <- undef
	.loc	0 522 33 is_stmt 1              # ldecod_src/input.c:522:33
	addl	%r9d, %r10d
	.loc	0 522 43 is_stmt 0              # ldecod_src/input.c:522:43
	shll	$2, %r10d
	.loc	0 522 11                        # ldecod_src/input.c:522:11
	movl	(%r14,%r10), %r10d
.Ltmp41:
	#DEBUG_VALUE: buf2img_endian:tmp32 <- [DW_OP_LLVM_fragment 0 32] undef
	.loc	0 0 11                          # ldecod_src/input.c:0:11
	bswapl	%r10d
.Ltmp42:
	#DEBUG_VALUE: buf2img_endian:ui32 <- [DW_OP_LLVM_convert 16 7, DW_OP_LLVM_convert 64 7, DW_OP_stack_value] $r10w
	.loc	0 524 11 is_stmt 1              # ldecod_src/input.c:524:11
	movq	(%r15,%r8,8), %r11
	.loc	0 524 22 is_stmt 0              # ldecod_src/input.c:524:22
	movw	%r10w, (%r11,%r9,2)
.Ltmp43:
	#DEBUG_VALUE: buf2img_endian:i <- [DW_OP_plus_uconst 1, DW_OP_stack_value] $r9
	#DEBUG_VALUE: buf2img_endian:tmp32 <- undef
	.loc	0 0 22                          # ldecod_src/input.c:0:22
	jmp	.LBB2_15
.Ltmp44:
.LBB2_1:                                # %if.then
	#DEBUG_VALUE: buf2img_endian:imgX <- $r15
	#DEBUG_VALUE: buf2img_endian:buf <- $r14
	#DEBUG_VALUE: buf2img_endian:size_x <- $ebx
	#DEBUG_VALUE: buf2img_endian:size_y <- $ecx
	#DEBUG_VALUE: buf2img_endian:o_size_x <- $r13d
	#DEBUG_VALUE: buf2img_endian:o_size_y <- $r12d
	#DEBUG_VALUE: buf2img_endian:symbol_size_in_bytes <- [DW_OP_plus_uconst 64] [$rsp+0]
	#DEBUG_VALUE: buf2img_endian:dummy <- [DW_OP_plus_uconst 72] [$rsp+0]
	.loc	0 481 5 is_stmt 1               # ldecod_src/input.c:481:5
	movl	$.L.str, %edi
	movl	$500, %esi                      # imm = 0x1F4
	movl	%ecx, 4(%rsp)                   # 4-byte Spill
.Ltmp45:
	#DEBUG_VALUE: buf2img_endian:size_y <- [DW_OP_plus_uconst 4] [$rsp+0]
	callq	error@PLT
.Ltmp46:
	.loc	0 0 5 is_stmt 0                 # ldecod_src/input.c:0:5
	movl	4(%rsp), %ecx                   # 4-byte Reload
.Ltmp47:
	.loc	0 484 14 is_stmt 1              # ldecod_src/input.c:484:14
	xorl	%ebx, %r13d
.Ltmp48:
	#DEBUG_VALUE: buf2img_endian:o_size_x <- [DW_OP_LLVM_entry_value 1] $r8d
	.loc	0 0 14 is_stmt 0                # ldecod_src/input.c:0:14
	xorl	%ecx, %r12d
.Ltmp49:
	#DEBUG_VALUE: buf2img_endian:o_size_y <- [DW_OP_LLVM_entry_value 1] $r9d
	.loc	0 484 26                        # ldecod_src/input.c:484:26
	orl	%r13d, %r12d
	je	.LBB2_4
.Ltmp50:
.LBB2_3:                                # %if.then3
	#DEBUG_VALUE: buf2img_endian:imgX <- $r15
	#DEBUG_VALUE: buf2img_endian:buf <- $r14
	#DEBUG_VALUE: buf2img_endian:size_x <- $ebx
	#DEBUG_VALUE: buf2img_endian:size_y <- [DW_OP_LLVM_entry_value 1] $ecx
	#DEBUG_VALUE: buf2img_endian:o_size_x <- [DW_OP_LLVM_entry_value 1] $r8d
	#DEBUG_VALUE: buf2img_endian:o_size_y <- [DW_OP_LLVM_entry_value 1] $r9d
	#DEBUG_VALUE: buf2img_endian:symbol_size_in_bytes <- [DW_OP_plus_uconst 64] [$rsp+0]
	#DEBUG_VALUE: buf2img_endian:dummy <- [DW_OP_plus_uconst 72] [$rsp+0]
	.loc	0 486 5 is_stmt 1               # ldecod_src/input.c:486:5
	movl	$.L.str.1, %edi
	movl	$500, %esi                      # imm = 0x1F4
	movl	%ecx, %r12d
	callq	error@PLT
.Ltmp51:
	.loc	0 0 5 is_stmt 0                 # ldecod_src/input.c:0:5
	movl	%r12d, %ecx
.Ltmp52:
	.loc	0 490 3 is_stmt 1               # ldecod_src/input.c:490:3
	cmpl	$1, %ebp
	jne	.LBB2_5
.Ltmp53:
.LBB2_23:                               # %for.cond.preheader
	#DEBUG_VALUE: buf2img_endian:imgX <- $r15
	#DEBUG_VALUE: buf2img_endian:buf <- $r14
	#DEBUG_VALUE: buf2img_endian:size_x <- $ebx
	#DEBUG_VALUE: buf2img_endian:size_y <- [DW_OP_LLVM_entry_value 1] $ecx
	#DEBUG_VALUE: buf2img_endian:o_size_x <- [DW_OP_LLVM_entry_value 1] $r8d
	#DEBUG_VALUE: buf2img_endian:o_size_y <- [DW_OP_LLVM_entry_value 1] $r9d
	#DEBUG_VALUE: buf2img_endian:symbol_size_in_bytes <- [DW_OP_plus_uconst 64] [$rsp+0]
	#DEBUG_VALUE: buf2img_endian:dummy <- [DW_OP_plus_uconst 72] [$rsp+0]
	#DEBUG_VALUE: buf2img_endian:j <- 0
	.loc	0 494 16                        # ldecod_src/input.c:494:16
	testl	%ecx, %ecx
	setle	%al
	testl	%ebx, %ebx
	setle	%dl
.Ltmp54:
	.loc	0 494 7 is_stmt 0               # ldecod_src/input.c:494:7
	orb	%al, %dl
	jne	.LBB2_31
.Ltmp55:
# %bb.24:                               # %for.cond6.preheader.us.preheader
	#DEBUG_VALUE: buf2img_endian:imgX <- $r15
	#DEBUG_VALUE: buf2img_endian:buf <- $r14
	#DEBUG_VALUE: buf2img_endian:size_x <- $ebx
	#DEBUG_VALUE: buf2img_endian:size_y <- [DW_OP_LLVM_entry_value 1] $ecx
	#DEBUG_VALUE: buf2img_endian:o_size_x <- [DW_OP_LLVM_entry_value 1] $r8d
	#DEBUG_VALUE: buf2img_endian:o_size_y <- [DW_OP_LLVM_entry_value 1] $r9d
	#DEBUG_VALUE: buf2img_endian:symbol_size_in_bytes <- [DW_OP_plus_uconst 64] [$rsp+0]
	#DEBUG_VALUE: buf2img_endian:dummy <- [DW_OP_plus_uconst 72] [$rsp+0]
	#DEBUG_VALUE: buf2img_endian:j <- 0
	movl	%ebx, %eax
.Ltmp56:
	.loc	0 494 16                        # ldecod_src/input.c:494:16
	movl	%ecx, %ecx
	movl	%eax, %edx
	andl	$3, %edx
	movl	%eax, %esi
	andl	$2147483644, %esi               # imm = 0x7FFFFFFC
.Ltmp57:
	.loc	0 494 7                         # ldecod_src/input.c:494:7
	leaq	3(%r14), %rdi
	xorl	%r8d, %r8d
	jmp	.LBB2_25
.Ltmp58:
	.p2align	4, 0x90
.LBB2_30:                               # %for.cond6.for.inc13_crit_edge.us
                                        #   in Loop: Header=BB2_25 Depth=1
	#DEBUG_VALUE: buf2img_endian:imgX <- $r15
	#DEBUG_VALUE: buf2img_endian:buf <- [DW_OP_LLVM_entry_value 1] $rsi
	#DEBUG_VALUE: buf2img_endian:size_x <- $ebx
	#DEBUG_VALUE: buf2img_endian:size_y <- [DW_OP_LLVM_entry_value 1] $ecx
	#DEBUG_VALUE: buf2img_endian:o_size_x <- [DW_OP_LLVM_entry_value 1] $r8d
	#DEBUG_VALUE: buf2img_endian:o_size_y <- [DW_OP_LLVM_entry_value 1] $r9d
	#DEBUG_VALUE: buf2img_endian:symbol_size_in_bytes <- [DW_OP_plus_uconst 64] [$rsp+0]
	#DEBUG_VALUE: buf2img_endian:dummy <- [DW_OP_plus_uconst 72] [$rsp+0]
	#DEBUG_VALUE: buf2img_endian:j <- $r8
	.loc	0 494 25                        # ldecod_src/input.c:494:25
	incq	%r8
.Ltmp59:
	#DEBUG_VALUE: buf2img_endian:j <- $r8
	.loc	0 494 7                         # ldecod_src/input.c:494:7
	addq	%rax, %rdi
	addq	%rax, %r14
.Ltmp60:
	.loc	0 494 16                        # ldecod_src/input.c:494:16
	cmpq	%rcx, %r8
.Ltmp61:
	.loc	0 494 7                         # ldecod_src/input.c:494:7
	je	.LBB2_31
.Ltmp62:
.LBB2_25:                               # %for.cond6.preheader.us
                                        # =>This Loop Header: Depth=1
                                        #     Child Loop BB2_26 Depth 2
                                        #     Child Loop BB2_29 Depth 2
	#DEBUG_VALUE: buf2img_endian:imgX <- $r15
	#DEBUG_VALUE: buf2img_endian:buf <- [DW_OP_LLVM_entry_value 1] $rsi
	#DEBUG_VALUE: buf2img_endian:size_x <- $ebx
	#DEBUG_VALUE: buf2img_endian:size_y <- [DW_OP_LLVM_entry_value 1] $ecx
	#DEBUG_VALUE: buf2img_endian:o_size_x <- [DW_OP_LLVM_entry_value 1] $r8d
	#DEBUG_VALUE: buf2img_endian:o_size_y <- [DW_OP_LLVM_entry_value 1] $r9d
	#DEBUG_VALUE: buf2img_endian:symbol_size_in_bytes <- [DW_OP_plus_uconst 64] [$rsp+0]
	#DEBUG_VALUE: buf2img_endian:dummy <- [DW_OP_plus_uconst 72] [$rsp+0]
	.loc	0 0 7                           # ldecod_src/input.c:0:7
	xorl	%r9d, %r9d
	cmpl	$4, %ebx
.Ltmp63:
	#DEBUG_VALUE: buf2img_endian:j <- $r8
	#DEBUG_VALUE: buf2img_endian:i <- 0
	.loc	0 496 9 is_stmt 1               # ldecod_src/input.c:496:9
	jb	.LBB2_27
.Ltmp64:
	.p2align	4, 0x90
.LBB2_26:                               # %for.body8.us
                                        #   Parent Loop BB2_25 Depth=1
                                        # =>  This Inner Loop Header: Depth=2
	#DEBUG_VALUE: buf2img_endian:imgX <- $r15
	#DEBUG_VALUE: buf2img_endian:buf <- [DW_OP_LLVM_entry_value 1] $rsi
	#DEBUG_VALUE: buf2img_endian:size_x <- $ebx
	#DEBUG_VALUE: buf2img_endian:size_y <- [DW_OP_LLVM_entry_value 1] $ecx
	#DEBUG_VALUE: buf2img_endian:o_size_x <- [DW_OP_LLVM_entry_value 1] $r8d
	#DEBUG_VALUE: buf2img_endian:o_size_y <- [DW_OP_LLVM_entry_value 1] $r9d
	#DEBUG_VALUE: buf2img_endian:symbol_size_in_bytes <- [DW_OP_plus_uconst 64] [$rsp+0]
	#DEBUG_VALUE: buf2img_endian:dummy <- [DW_OP_plus_uconst 72] [$rsp+0]
	#DEBUG_VALUE: buf2img_endian:j <- $r8
	#DEBUG_VALUE: buf2img_endian:i <- $r9
	.loc	0 498 32                        # ldecod_src/input.c:498:32
	movzbl	-3(%rdi,%r9), %r10d
	.loc	0 498 11 is_stmt 0              # ldecod_src/input.c:498:11
	movq	(%r15,%r8,8), %r11
	.loc	0 498 21                        # ldecod_src/input.c:498:21
	movw	%r10w, (%r11,%r9,2)
.Ltmp65:
	#DEBUG_VALUE: buf2img_endian:i <- [DW_OP_constu 1, DW_OP_or, DW_OP_stack_value] $r9
	.loc	0 498 32                        # ldecod_src/input.c:498:32
	movzbl	-2(%rdi,%r9), %r10d
	.loc	0 498 11                        # ldecod_src/input.c:498:11
	movq	(%r15,%r8,8), %r11
	.loc	0 498 21                        # ldecod_src/input.c:498:21
	movw	%r10w, 2(%r11,%r9,2)
.Ltmp66:
	#DEBUG_VALUE: buf2img_endian:i <- [DW_OP_constu 2, DW_OP_or, DW_OP_stack_value] $r9
	.loc	0 498 32                        # ldecod_src/input.c:498:32
	movzbl	-1(%rdi,%r9), %r10d
	.loc	0 498 11                        # ldecod_src/input.c:498:11
	movq	(%r15,%r8,8), %r11
	.loc	0 498 21                        # ldecod_src/input.c:498:21
	movw	%r10w, 4(%r11,%r9,2)
.Ltmp67:
	#DEBUG_VALUE: buf2img_endian:i <- [DW_OP_constu 3, DW_OP_or, DW_OP_stack_value] $r9
	.loc	0 498 32                        # ldecod_src/input.c:498:32
	movzbl	(%rdi,%r9), %r10d
	.loc	0 498 11                        # ldecod_src/input.c:498:11
	movq	(%r15,%r8,8), %r11
	.loc	0 498 21                        # ldecod_src/input.c:498:21
	movw	%r10w, 6(%r11,%r9,2)
.Ltmp68:
	.loc	0 496 27 is_stmt 1              # ldecod_src/input.c:496:27
	addq	$4, %r9
.Ltmp69:
	#DEBUG_VALUE: buf2img_endian:i <- $r9
	.loc	0 496 9 is_stmt 0               # ldecod_src/input.c:496:9
	cmpq	%r9, %rsi
	jne	.LBB2_26
.Ltmp70:
.LBB2_27:                               # %for.cond6.for.inc13_crit_edge.us.unr-lcssa
                                        #   in Loop: Header=BB2_25 Depth=1
	#DEBUG_VALUE: buf2img_endian:imgX <- $r15
	#DEBUG_VALUE: buf2img_endian:buf <- [DW_OP_LLVM_entry_value 1] $rsi
	#DEBUG_VALUE: buf2img_endian:size_x <- $ebx
	#DEBUG_VALUE: buf2img_endian:size_y <- [DW_OP_LLVM_entry_value 1] $ecx
	#DEBUG_VALUE: buf2img_endian:o_size_x <- [DW_OP_LLVM_entry_value 1] $r8d
	#DEBUG_VALUE: buf2img_endian:o_size_y <- [DW_OP_LLVM_entry_value 1] $r9d
	#DEBUG_VALUE: buf2img_endian:symbol_size_in_bytes <- [DW_OP_plus_uconst 64] [$rsp+0]
	#DEBUG_VALUE: buf2img_endian:dummy <- [DW_OP_plus_uconst 72] [$rsp+0]
	#DEBUG_VALUE: buf2img_endian:j <- $r8
	.loc	0 0 9                           # ldecod_src/input.c:0:9
	testq	%rdx, %rdx
	.loc	0 496 9                         # ldecod_src/input.c:496:9
	je	.LBB2_30
.Ltmp71:
# %bb.28:                               # %for.body8.us.epil.preheader
                                        #   in Loop: Header=BB2_25 Depth=1
	#DEBUG_VALUE: buf2img_endian:imgX <- $r15
	#DEBUG_VALUE: buf2img_endian:buf <- [DW_OP_LLVM_entry_value 1] $rsi
	#DEBUG_VALUE: buf2img_endian:size_x <- $ebx
	#DEBUG_VALUE: buf2img_endian:size_y <- [DW_OP_LLVM_entry_value 1] $ecx
	#DEBUG_VALUE: buf2img_endian:o_size_x <- [DW_OP_LLVM_entry_value 1] $r8d
	#DEBUG_VALUE: buf2img_endian:o_size_y <- [DW_OP_LLVM_entry_value 1] $r9d
	#DEBUG_VALUE: buf2img_endian:symbol_size_in_bytes <- [DW_OP_plus_uconst 64] [$rsp+0]
	#DEBUG_VALUE: buf2img_endian:dummy <- [DW_OP_plus_uconst 72] [$rsp+0]
	#DEBUG_VALUE: buf2img_endian:j <- $r8
	.loc	0 0 9                           # ldecod_src/input.c:0:9
	movq	%rdx, %r10
.Ltmp72:
	.p2align	4, 0x90
.LBB2_29:                               # %for.body8.us.epil
                                        #   Parent Loop BB2_25 Depth=1
                                        # =>  This Inner Loop Header: Depth=2
	#DEBUG_VALUE: buf2img_endian:imgX <- $r15
	#DEBUG_VALUE: buf2img_endian:buf <- [DW_OP_LLVM_entry_value 1] $rsi
	#DEBUG_VALUE: buf2img_endian:size_x <- $ebx
	#DEBUG_VALUE: buf2img_endian:size_y <- [DW_OP_LLVM_entry_value 1] $ecx
	#DEBUG_VALUE: buf2img_endian:o_size_x <- [DW_OP_LLVM_entry_value 1] $r8d
	#DEBUG_VALUE: buf2img_endian:o_size_y <- [DW_OP_LLVM_entry_value 1] $r9d
	#DEBUG_VALUE: buf2img_endian:symbol_size_in_bytes <- [DW_OP_plus_uconst 64] [$rsp+0]
	#DEBUG_VALUE: buf2img_endian:dummy <- [DW_OP_plus_uconst 72] [$rsp+0]
	#DEBUG_VALUE: buf2img_endian:j <- $r8
	#DEBUG_VALUE: buf2img_endian:i <- $r9
	.loc	0 498 32 is_stmt 1              # ldecod_src/input.c:498:32
	movzbl	(%r14,%r9), %r11d
	.loc	0 498 11 is_stmt 0              # ldecod_src/input.c:498:11
	movq	(%r15,%r8,8), %r12
	.loc	0 498 21                        # ldecod_src/input.c:498:21
	movw	%r11w, (%r12,%r9,2)
.Ltmp73:
	.loc	0 496 27 is_stmt 1              # ldecod_src/input.c:496:27
	incq	%r9
.Ltmp74:
	#DEBUG_VALUE: buf2img_endian:i <- $r9
	.loc	0 496 9 is_stmt 0               # ldecod_src/input.c:496:9
	decq	%r10
	jne	.LBB2_29
	jmp	.LBB2_30
.Ltmp75:
.LBB2_16:                               # %for.cond17.preheader
	#DEBUG_VALUE: buf2img_endian:imgX <- $r15
	#DEBUG_VALUE: buf2img_endian:buf <- $r14
	#DEBUG_VALUE: buf2img_endian:size_x <- $ebx
	#DEBUG_VALUE: buf2img_endian:size_y <- [DW_OP_LLVM_entry_value 1] $ecx
	#DEBUG_VALUE: buf2img_endian:o_size_x <- [DW_OP_LLVM_entry_value 1] $r8d
	#DEBUG_VALUE: buf2img_endian:o_size_y <- [DW_OP_LLVM_entry_value 1] $r9d
	#DEBUG_VALUE: buf2img_endian:symbol_size_in_bytes <- [DW_OP_plus_uconst 64] [$rsp+0]
	#DEBUG_VALUE: buf2img_endian:dummy <- [DW_OP_plus_uconst 72] [$rsp+0]
	#DEBUG_VALUE: buf2img_endian:j <- 0
	.loc	0 505 16 is_stmt 1              # ldecod_src/input.c:505:16
	testl	%ecx, %ecx
	setle	%al
	testl	%ebx, %ebx
	setle	%dl
.Ltmp76:
	.loc	0 505 7 is_stmt 0               # ldecod_src/input.c:505:7
	orb	%al, %dl
	jne	.LBB2_31
.Ltmp77:
# %bb.17:                               # %for.cond21.preheader.us.preheader
	#DEBUG_VALUE: buf2img_endian:imgX <- $r15
	#DEBUG_VALUE: buf2img_endian:buf <- $r14
	#DEBUG_VALUE: buf2img_endian:size_x <- $ebx
	#DEBUG_VALUE: buf2img_endian:size_y <- [DW_OP_LLVM_entry_value 1] $ecx
	#DEBUG_VALUE: buf2img_endian:o_size_x <- [DW_OP_LLVM_entry_value 1] $r8d
	#DEBUG_VALUE: buf2img_endian:o_size_y <- [DW_OP_LLVM_entry_value 1] $r9d
	#DEBUG_VALUE: buf2img_endian:symbol_size_in_bytes <- [DW_OP_plus_uconst 64] [$rsp+0]
	#DEBUG_VALUE: buf2img_endian:dummy <- [DW_OP_plus_uconst 72] [$rsp+0]
	#DEBUG_VALUE: buf2img_endian:j <- 0
	movl	%ebx, %eax
.Ltmp78:
	.loc	0 505 16                        # ldecod_src/input.c:505:16
	movl	%ecx, %ecx
	movl	%eax, %edx
	andl	$2147483646, %edx               # imm = 0x7FFFFFFE
.Ltmp79:
	.loc	0 505 7                         # ldecod_src/input.c:505:7
	leaq	2(%r14), %rsi
	leaq	(%rax,%rax), %rdi
	xorl	%r8d, %r8d
	jmp	.LBB2_18
.Ltmp80:
	.p2align	4, 0x90
.LBB2_22:                               # %for.cond21.for.inc38_crit_edge.us
                                        #   in Loop: Header=BB2_18 Depth=1
	#DEBUG_VALUE: buf2img_endian:imgX <- $r15
	#DEBUG_VALUE: buf2img_endian:buf <- $r14
	#DEBUG_VALUE: buf2img_endian:size_x <- $ebx
	#DEBUG_VALUE: buf2img_endian:size_y <- [DW_OP_LLVM_entry_value 1] $ecx
	#DEBUG_VALUE: buf2img_endian:o_size_x <- [DW_OP_LLVM_entry_value 1] $r8d
	#DEBUG_VALUE: buf2img_endian:o_size_y <- [DW_OP_LLVM_entry_value 1] $r9d
	#DEBUG_VALUE: buf2img_endian:symbol_size_in_bytes <- [DW_OP_plus_uconst 64] [$rsp+0]
	#DEBUG_VALUE: buf2img_endian:dummy <- [DW_OP_plus_uconst 72] [$rsp+0]
	#DEBUG_VALUE: buf2img_endian:j <- $r8
	.loc	0 505 25                        # ldecod_src/input.c:505:25
	incq	%r8
.Ltmp81:
	#DEBUG_VALUE: buf2img_endian:j <- $r8
	.loc	0 505 7                         # ldecod_src/input.c:505:7
	addq	%rdi, %rsi
.Ltmp82:
	.loc	0 505 16                        # ldecod_src/input.c:505:16
	cmpq	%rcx, %r8
.Ltmp83:
	.loc	0 505 7                         # ldecod_src/input.c:505:7
	je	.LBB2_31
.Ltmp84:
.LBB2_18:                               # %for.cond21.preheader.us
                                        # =>This Loop Header: Depth=1
                                        #     Child Loop BB2_19 Depth 2
	#DEBUG_VALUE: buf2img_endian:imgX <- $r15
	#DEBUG_VALUE: buf2img_endian:buf <- $r14
	#DEBUG_VALUE: buf2img_endian:size_x <- $ebx
	#DEBUG_VALUE: buf2img_endian:size_y <- [DW_OP_LLVM_entry_value 1] $ecx
	#DEBUG_VALUE: buf2img_endian:o_size_x <- [DW_OP_LLVM_entry_value 1] $r8d
	#DEBUG_VALUE: buf2img_endian:o_size_y <- [DW_OP_LLVM_entry_value 1] $r9d
	#DEBUG_VALUE: buf2img_endian:symbol_size_in_bytes <- [DW_OP_plus_uconst 64] [$rsp+0]
	#DEBUG_VALUE: buf2img_endian:dummy <- [DW_OP_plus_uconst 72] [$rsp+0]
	#DEBUG_VALUE: buf2img_endian:j <- $r8
	#DEBUG_VALUE: buf2img_endian:i <- 0
	.loc	0 0 7                           # ldecod_src/input.c:0:7
	xorl	%r9d, %r9d
	cmpl	$1, %ebx
.Ltmp85:
	.loc	0 507 9 is_stmt 1               # ldecod_src/input.c:507:9
	je	.LBB2_20
.Ltmp86:
	.p2align	4, 0x90
.LBB2_19:                               # %for.body24.us
                                        #   Parent Loop BB2_18 Depth=1
                                        # =>  This Inner Loop Header: Depth=2
	#DEBUG_VALUE: buf2img_endian:imgX <- $r15
	#DEBUG_VALUE: buf2img_endian:buf <- $r14
	#DEBUG_VALUE: buf2img_endian:size_x <- $ebx
	#DEBUG_VALUE: buf2img_endian:size_y <- [DW_OP_LLVM_entry_value 1] $ecx
	#DEBUG_VALUE: buf2img_endian:o_size_x <- [DW_OP_LLVM_entry_value 1] $r8d
	#DEBUG_VALUE: buf2img_endian:o_size_y <- [DW_OP_LLVM_entry_value 1] $r9d
	#DEBUG_VALUE: buf2img_endian:symbol_size_in_bytes <- [DW_OP_plus_uconst 64] [$rsp+0]
	#DEBUG_VALUE: buf2img_endian:dummy <- [DW_OP_plus_uconst 72] [$rsp+0]
	#DEBUG_VALUE: buf2img_endian:j <- $r8
	#DEBUG_VALUE: buf2img_endian:i <- $r9
	.loc	0 509 11                        # ldecod_src/input.c:509:11
	movzwl	-2(%rsi,%r9,2), %r10d
.Ltmp87:
	#DEBUG_VALUE: buf2img_endian:tmp16 <- $r10w
	.loc	0 0 11 is_stmt 0                # ldecod_src/input.c:0:11
	rolw	$8, %r10w
.Ltmp88:
	#DEBUG_VALUE: buf2img_endian:ui16 <- $r10w
	.loc	0 511 11 is_stmt 1              # ldecod_src/input.c:511:11
	movq	(%r15,%r8,8), %r11
	.loc	0 511 22 is_stmt 0              # ldecod_src/input.c:511:22
	movw	%r10w, (%r11,%r9,2)
.Ltmp89:
	#DEBUG_VALUE: buf2img_endian:i <- [DW_OP_constu 1, DW_OP_or, DW_OP_stack_value] $r9
	.loc	0 509 11 is_stmt 1              # ldecod_src/input.c:509:11
	movzwl	(%rsi,%r9,2), %r10d
.Ltmp90:
	#DEBUG_VALUE: buf2img_endian:tmp16 <- $r10w
	.loc	0 0 11 is_stmt 0                # ldecod_src/input.c:0:11
	rolw	$8, %r10w
.Ltmp91:
	#DEBUG_VALUE: buf2img_endian:ui16 <- $r10w
	.loc	0 511 11 is_stmt 1              # ldecod_src/input.c:511:11
	movq	(%r15,%r8,8), %r11
	.loc	0 511 22 is_stmt 0              # ldecod_src/input.c:511:22
	movw	%r10w, 2(%r11,%r9,2)
.Ltmp92:
	.loc	0 507 27 is_stmt 1              # ldecod_src/input.c:507:27
	addq	$2, %r9
.Ltmp93:
	#DEBUG_VALUE: buf2img_endian:i <- $r9
	.loc	0 507 9 is_stmt 0               # ldecod_src/input.c:507:9
	cmpq	%r9, %rdx
	jne	.LBB2_19
.Ltmp94:
.LBB2_20:                               # %for.cond21.for.inc38_crit_edge.us.unr-lcssa
                                        #   in Loop: Header=BB2_18 Depth=1
	#DEBUG_VALUE: buf2img_endian:imgX <- $r15
	#DEBUG_VALUE: buf2img_endian:buf <- $r14
	#DEBUG_VALUE: buf2img_endian:size_x <- $ebx
	#DEBUG_VALUE: buf2img_endian:size_y <- [DW_OP_LLVM_entry_value 1] $ecx
	#DEBUG_VALUE: buf2img_endian:o_size_x <- [DW_OP_LLVM_entry_value 1] $r8d
	#DEBUG_VALUE: buf2img_endian:o_size_y <- [DW_OP_LLVM_entry_value 1] $r9d
	#DEBUG_VALUE: buf2img_endian:symbol_size_in_bytes <- [DW_OP_plus_uconst 64] [$rsp+0]
	#DEBUG_VALUE: buf2img_endian:dummy <- [DW_OP_plus_uconst 72] [$rsp+0]
	#DEBUG_VALUE: buf2img_endian:j <- $r8
	.loc	0 0 9                           # ldecod_src/input.c:0:9
	testb	$1, %al
	.loc	0 507 9                         # ldecod_src/input.c:507:9
	je	.LBB2_22
.Ltmp95:
# %bb.21:                               # %for.body24.us.epil
                                        #   in Loop: Header=BB2_18 Depth=1
	#DEBUG_VALUE: buf2img_endian:imgX <- $r15
	#DEBUG_VALUE: buf2img_endian:buf <- $r14
	#DEBUG_VALUE: buf2img_endian:size_x <- $ebx
	#DEBUG_VALUE: buf2img_endian:size_y <- [DW_OP_LLVM_entry_value 1] $ecx
	#DEBUG_VALUE: buf2img_endian:o_size_x <- [DW_OP_LLVM_entry_value 1] $r8d
	#DEBUG_VALUE: buf2img_endian:o_size_y <- [DW_OP_LLVM_entry_value 1] $r9d
	#DEBUG_VALUE: buf2img_endian:symbol_size_in_bytes <- [DW_OP_plus_uconst 64] [$rsp+0]
	#DEBUG_VALUE: buf2img_endian:dummy <- [DW_OP_plus_uconst 72] [$rsp+0]
	#DEBUG_VALUE: buf2img_endian:j <- $r8
	.loc	0 0 9                           # ldecod_src/input.c:0:9
	movq	%r8, %r10
	imulq	%rax, %r10
.Ltmp96:
	#DEBUG_VALUE: buf2img_endian:i <- $r9
	.loc	0 509 33 is_stmt 1              # ldecod_src/input.c:509:33
	addq	%r9, %r10
	.loc	0 509 11 is_stmt 0              # ldecod_src/input.c:509:11
	movzwl	(%r14,%r10,2), %r10d
.Ltmp97:
	#DEBUG_VALUE: buf2img_endian:tmp16 <- $r10w
	.loc	0 0 11                          # ldecod_src/input.c:0:11
	rolw	$8, %r10w
.Ltmp98:
	#DEBUG_VALUE: buf2img_endian:ui16 <- $r10w
	.loc	0 511 11 is_stmt 1              # ldecod_src/input.c:511:11
	movq	(%r15,%r8,8), %r11
	.loc	0 511 22 is_stmt 0              # ldecod_src/input.c:511:22
	movw	%r10w, (%r11,%r9,2)
.Ltmp99:
	#DEBUG_VALUE: buf2img_endian:i <- [DW_OP_plus_uconst 1, DW_OP_stack_value] $r9
	.loc	0 0 22                          # ldecod_src/input.c:0:22
	jmp	.LBB2_22
.Ltmp100:
.LBB2_31:                               # %sw.epilog
	#DEBUG_VALUE: buf2img_endian:imgX <- $r15
	#DEBUG_VALUE: buf2img_endian:buf <- [DW_OP_LLVM_entry_value 1] $rsi
	#DEBUG_VALUE: buf2img_endian:size_x <- $ebx
	#DEBUG_VALUE: buf2img_endian:size_y <- [DW_OP_LLVM_entry_value 1] $ecx
	#DEBUG_VALUE: buf2img_endian:o_size_x <- [DW_OP_LLVM_entry_value 1] $r8d
	#DEBUG_VALUE: buf2img_endian:o_size_y <- [DW_OP_LLVM_entry_value 1] $r9d
	#DEBUG_VALUE: buf2img_endian:symbol_size_in_bytes <- [DW_OP_plus_uconst 64] [$rsp+0]
	#DEBUG_VALUE: buf2img_endian:dummy <- [DW_OP_plus_uconst 72] [$rsp+0]
	.loc	0 535 1 epilogue_begin is_stmt 1 # ldecod_src/input.c:535:1
	addq	$8, %rsp
	.cfi_def_cfa_offset 56
	popq	%rbx
.Ltmp101:
	#DEBUG_VALUE: buf2img_endian:size_x <- [DW_OP_LLVM_entry_value 1] $edx
	.cfi_def_cfa_offset 48
	popq	%r12
	.cfi_def_cfa_offset 40
	popq	%r13
	.cfi_def_cfa_offset 32
	popq	%r14
	.cfi_def_cfa_offset 24
	popq	%r15
.Ltmp102:
	#DEBUG_VALUE: buf2img_endian:imgX <- [DW_OP_LLVM_entry_value 1] $rdi
	.cfi_def_cfa_offset 16
	popq	%rbp
	.cfi_def_cfa_offset 8
	retq
.Ltmp103:
.LBB2_32:                               # %sw.default
	.cfi_def_cfa_offset 64
	#DEBUG_VALUE: buf2img_endian:imgX <- $r15
	#DEBUG_VALUE: buf2img_endian:buf <- $r14
	#DEBUG_VALUE: buf2img_endian:size_x <- $ebx
	#DEBUG_VALUE: buf2img_endian:size_y <- [DW_OP_LLVM_entry_value 1] $ecx
	#DEBUG_VALUE: buf2img_endian:o_size_x <- [DW_OP_LLVM_entry_value 1] $r8d
	#DEBUG_VALUE: buf2img_endian:o_size_y <- [DW_OP_LLVM_entry_value 1] $r9d
	#DEBUG_VALUE: buf2img_endian:symbol_size_in_bytes <- [DW_OP_plus_uconst 64] [$rsp+0]
	#DEBUG_VALUE: buf2img_endian:dummy <- [DW_OP_plus_uconst 72] [$rsp+0]
	.loc	0 531 7                         # ldecod_src/input.c:531:7
	movl	$.L.str.2, %edi
	movl	$500, %esi                      # imm = 0x1F4
	.loc	0 531 7 epilogue_begin is_stmt 0 # ldecod_src/input.c:531:7
	addq	$8, %rsp
	.cfi_def_cfa_offset 56
	popq	%rbx
.Ltmp104:
	#DEBUG_VALUE: buf2img_endian:size_x <- [DW_OP_LLVM_entry_value 1] $edx
	.cfi_def_cfa_offset 48
	popq	%r12
	.cfi_def_cfa_offset 40
	popq	%r13
	.cfi_def_cfa_offset 32
	popq	%r14
.Ltmp105:
	#DEBUG_VALUE: buf2img_endian:buf <- [DW_OP_LLVM_entry_value 1] $rsi
	.cfi_def_cfa_offset 24
	popq	%r15
.Ltmp106:
	#DEBUG_VALUE: buf2img_endian:imgX <- [DW_OP_LLVM_entry_value 1] $rdi
	.cfi_def_cfa_offset 16
	popq	%rbp
	.cfi_def_cfa_offset 8
.Ltmp107:
	jmp	error@PLT                       # TAILCALL
.Ltmp108:
.Lfunc_end2:
	.size	buf2img_endian, .Lfunc_end2-buf2img_endian
	.cfi_endproc
	.file	5 "ldecod_src/inc" "global.h" md5 0xc4ca3c417c5616a2ff6b6266e7376fc1
                                        # -- End function
	.globl	buf2img_basic                   # -- Begin function buf2img_basic
	.p2align	4, 0x90
	.type	buf2img_basic,@function
buf2img_basic:                          # @buf2img_basic
.Lfunc_begin3:
	.loc	0 361 0 is_stmt 1               # ldecod_src/input.c:361:0
	.cfi_startproc
# %bb.0:                                # %entry
	#DEBUG_VALUE: buf2img_basic:imgX <- $rdi
	#DEBUG_VALUE: buf2img_basic:buf <- $rsi
	#DEBUG_VALUE: buf2img_basic:size_x <- $edx
	#DEBUG_VALUE: buf2img_basic:size_y <- $ecx
	#DEBUG_VALUE: buf2img_basic:o_size_x <- $r8d
	#DEBUG_VALUE: buf2img_basic:o_size_y <- $r9d
	pushq	%rbp
	.cfi_def_cfa_offset 16
	pushq	%r15
	.cfi_def_cfa_offset 24
	pushq	%r14
	.cfi_def_cfa_offset 32
	pushq	%r13
	.cfi_def_cfa_offset 40
	pushq	%r12
	.cfi_def_cfa_offset 48
	pushq	%rbx
	.cfi_def_cfa_offset 56
	subq	$136, %rsp
	.cfi_def_cfa_offset 192
	.cfi_offset %rbx, -56
	.cfi_offset %r12, -48
	.cfi_offset %r13, -40
	.cfi_offset %r14, -32
	.cfi_offset %r15, -24
	.cfi_offset %rbp, -16
.Ltmp109:
	#DEBUG_VALUE: buf2img_basic:symbol_size_in_bytes <- [DW_OP_plus_uconst 192] [$rsp+0]
	movl	%r9d, %r13d
	movl	%r8d, %r12d
	movl	%ecx, %ebx
	movl	%edx, %ebp
	movq	%rsi, 16(%rsp)                  # 8-byte Spill
.Ltmp110:
	#DEBUG_VALUE: buf2img_basic:buf <- [DW_OP_plus_uconst 16] [$rsp+0]
	movl	192(%rsp), %r14d
	#DEBUG_VALUE: ui16 <- [DW_OP_plus_uconst 14, DW_OP_deref] $rsp
.Ltmp111:
	#DEBUG_VALUE: buf2img_basic:temp_buf <- undef
	.loc	0 365 27 prologue_end           # ldecod_src/input.c:365:27
	cmpl	$3, %r14d
	movq	%rdi, 56(%rsp)                  # 8-byte Spill
.Ltmp112:
	#DEBUG_VALUE: buf2img_basic:imgX <- [DW_OP_plus_uconst 56] [$rsp+0]
	.loc	0 365 7 is_stmt 0               # ldecod_src/input.c:365:7
	jl	.LBB3_7
.Ltmp113:
# %bb.1:                                # %if.end.thread
	#DEBUG_VALUE: buf2img_basic:imgX <- [DW_OP_plus_uconst 56] [$rsp+0]
	#DEBUG_VALUE: buf2img_basic:buf <- [DW_OP_plus_uconst 16] [$rsp+0]
	#DEBUG_VALUE: buf2img_basic:size_x <- $ebp
	#DEBUG_VALUE: buf2img_basic:size_y <- $ebx
	#DEBUG_VALUE: buf2img_basic:o_size_x <- $r12d
	#DEBUG_VALUE: buf2img_basic:o_size_y <- $r13d
	#DEBUG_VALUE: buf2img_basic:symbol_size_in_bytes <- [DW_OP_plus_uconst 192] [$rsp+0]
	.loc	0 367 5 is_stmt 1               # ldecod_src/input.c:367:5
	movl	$.L.str, %edi
	movl	$500, %esi                      # imm = 0x1F4
	callq	error@PLT
.Ltmp114:
	.loc	0 370 28                        # ldecod_src/input.c:370:28
	movl	%r14d, %eax
	jmp	.LBB3_2
.Ltmp115:
.LBB3_7:                                # %if.end
	#DEBUG_VALUE: buf2img_basic:imgX <- [DW_OP_plus_uconst 56] [$rsp+0]
	#DEBUG_VALUE: buf2img_basic:buf <- [DW_OP_plus_uconst 16] [$rsp+0]
	#DEBUG_VALUE: buf2img_basic:size_x <- $ebp
	#DEBUG_VALUE: buf2img_basic:size_y <- $ebx
	#DEBUG_VALUE: buf2img_basic:o_size_x <- $r12d
	#DEBUG_VALUE: buf2img_basic:o_size_y <- $r13d
	#DEBUG_VALUE: buf2img_basic:symbol_size_in_bytes <- [DW_OP_plus_uconst 192] [$rsp+0]
	.loc	0 370 25 is_stmt 0              # ldecod_src/input.c:370:25
	cmpl	$2, %r14d
.Ltmp116:
	.loc	0 370 7                         # ldecod_src/input.c:370:7
	jne	.LBB3_8
.Ltmp117:
# %bb.9:                                # %if.then3
	#DEBUG_VALUE: buf2img_basic:imgX <- [DW_OP_plus_uconst 56] [$rsp+0]
	#DEBUG_VALUE: buf2img_basic:buf <- [DW_OP_plus_uconst 16] [$rsp+0]
	#DEBUG_VALUE: buf2img_basic:size_x <- $ebp
	#DEBUG_VALUE: buf2img_basic:size_y <- $ebx
	#DEBUG_VALUE: buf2img_basic:o_size_x <- $r12d
	#DEBUG_VALUE: buf2img_basic:o_size_y <- $r13d
	#DEBUG_VALUE: buf2img_basic:symbol_size_in_bytes <- [DW_OP_plus_uconst 192] [$rsp+0]
	.loc	0 373 16 is_stmt 1              # ldecod_src/input.c:373:16
	movl	%r12d, %eax
	xorl	%ebp, %eax
	movl	%r13d, %ecx
	xorl	%ebx, %ecx
	.loc	0 373 28 is_stmt 0              # ldecod_src/input.c:373:28
	orl	%eax, %ecx
	jne	.LBB3_12
.Ltmp118:
# %bb.10:                               # %if.then8
	#DEBUG_VALUE: buf2img_basic:imgX <- [DW_OP_plus_uconst 56] [$rsp+0]
	#DEBUG_VALUE: buf2img_basic:buf <- [DW_OP_plus_uconst 16] [$rsp+0]
	#DEBUG_VALUE: buf2img_basic:size_x <- $ebp
	#DEBUG_VALUE: buf2img_basic:size_y <- $ebx
	#DEBUG_VALUE: buf2img_basic:o_size_x <- $r12d
	#DEBUG_VALUE: buf2img_basic:o_size_y <- $r13d
	#DEBUG_VALUE: buf2img_basic:symbol_size_in_bytes <- [DW_OP_plus_uconst 192] [$rsp+0]
	.loc	0 374 15 is_stmt 1              # ldecod_src/input.c:374:15
	movq	(%rdi), %rdi
	.loc	0 374 44 is_stmt 0              # ldecod_src/input.c:374:44
	imull	%ebp, %ebx
.Ltmp119:
	#DEBUG_VALUE: buf2img_basic:size_y <- [DW_OP_LLVM_entry_value 1] $ecx
	.loc	0 374 37                        # ldecod_src/input.c:374:37
	movslq	%ebx, %rdx
	.loc	0 374 53                        # ldecod_src/input.c:374:53
	addq	%rdx, %rdx
	movq	16(%rsp), %rsi                  # 8-byte Reload
	jmp	.LBB3_11
.Ltmp120:
.LBB3_8:
	#DEBUG_VALUE: buf2img_basic:imgX <- [DW_OP_plus_uconst 56] [$rsp+0]
	#DEBUG_VALUE: buf2img_basic:buf <- [DW_OP_plus_uconst 16] [$rsp+0]
	#DEBUG_VALUE: buf2img_basic:size_x <- $ebp
	#DEBUG_VALUE: buf2img_basic:size_y <- $ebx
	#DEBUG_VALUE: buf2img_basic:o_size_x <- $r12d
	#DEBUG_VALUE: buf2img_basic:o_size_y <- $r13d
	#DEBUG_VALUE: buf2img_basic:symbol_size_in_bytes <- [DW_OP_plus_uconst 192] [$rsp+0]
	.loc	0 370 0 is_stmt 1               # ldecod_src/input.c:370:0
	movslq	%r14d, %rax
.Ltmp121:
.LBB3_2:                                # %if.else64
	#DEBUG_VALUE: buf2img_basic:imgX <- [DW_OP_plus_uconst 56] [$rsp+0]
	#DEBUG_VALUE: buf2img_basic:buf <- [DW_OP_plus_uconst 16] [$rsp+0]
	#DEBUG_VALUE: buf2img_basic:size_x <- $ebp
	#DEBUG_VALUE: buf2img_basic:size_y <- $ebx
	#DEBUG_VALUE: buf2img_basic:o_size_x <- $r12d
	#DEBUG_VALUE: buf2img_basic:o_size_y <- $r13d
	#DEBUG_VALUE: buf2img_basic:symbol_size_in_bytes <- [DW_OP_plus_uconst 192] [$rsp+0]
	.loc	0 0 0 is_stmt 0                 # ldecod_src/input.c:0:0
	movl	%r14d, 24(%rsp)                 # 4-byte Spill
	movq	%rax, 72(%rsp)                  # 8-byte Spill
.Ltmp122:
	.loc	0 406 16 is_stmt 1              # ldecod_src/input.c:406:16
	movl	%r12d, %eax
	xorl	%ebp, %eax
	movl	%r13d, %ecx
	xorl	%ebx, %ecx
	.loc	0 406 28 is_stmt 0              # ldecod_src/input.c:406:28
	orl	%eax, %ecx
	jne	.LBB3_23
.Ltmp123:
# %bb.3:                                # %for.cond71.preheader
	#DEBUG_VALUE: buf2img_basic:imgX <- [DW_OP_plus_uconst 56] [$rsp+0]
	#DEBUG_VALUE: buf2img_basic:buf <- [DW_OP_plus_uconst 16] [$rsp+0]
	#DEBUG_VALUE: buf2img_basic:size_x <- $ebp
	#DEBUG_VALUE: buf2img_basic:size_y <- $ebx
	#DEBUG_VALUE: buf2img_basic:o_size_x <- $r12d
	#DEBUG_VALUE: buf2img_basic:o_size_y <- $r13d
	#DEBUG_VALUE: buf2img_basic:symbol_size_in_bytes <- [DW_OP_plus_uconst 192] [$rsp+0]
	#DEBUG_VALUE: buf2img_basic:j <- 0
	.loc	0 408 19 is_stmt 1              # ldecod_src/input.c:408:19
	testl	%ebx, %ebx
	setle	%al
	testl	%ebp, %ebp
	setle	%cl
.Ltmp124:
	.loc	0 408 7 is_stmt 0               # ldecod_src/input.c:408:7
	orb	%al, %cl
	jne	.LBB3_39
.Ltmp125:
# %bb.4:                                # %for.body74.us.preheader
	#DEBUG_VALUE: buf2img_basic:imgX <- [DW_OP_plus_uconst 56] [$rsp+0]
	#DEBUG_VALUE: buf2img_basic:buf <- [DW_OP_plus_uconst 16] [$rsp+0]
	#DEBUG_VALUE: buf2img_basic:size_x <- $ebp
	#DEBUG_VALUE: buf2img_basic:size_y <- $ebx
	#DEBUG_VALUE: buf2img_basic:o_size_x <- $r12d
	#DEBUG_VALUE: buf2img_basic:o_size_y <- $r13d
	#DEBUG_VALUE: buf2img_basic:symbol_size_in_bytes <- [DW_OP_plus_uconst 192] [$rsp+0]
	#DEBUG_VALUE: buf2img_basic:j <- 0
	movslq	24(%rsp), %r15                  # 4-byte Folded Reload
	movl	%ebp, %eax
.Ltmp126:
	.loc	0 408 19                        # ldecod_src/input.c:408:19
	movl	%ebx, %ecx
	movq	%rcx, 80(%rsp)                  # 8-byte Spill
	movl	%eax, %ecx
	andl	$2147483646, %ecx               # imm = 0x7FFFFFFE
	movq	%rcx, 40(%rsp)                  # 8-byte Spill
.Ltmp127:
	.loc	0 408 7                         # ldecod_src/input.c:408:7
	movq	%r15, %rcx
	movq	%rax, 64(%rsp)                  # 8-byte Spill
	imulq	%rax, %rcx
	movq	%rcx, 96(%rsp)                  # 8-byte Spill
	leaq	(%r15,%r15), %rax
	movq	%rax, 32(%rsp)                  # 8-byte Spill
	xorl	%ebx, %ebx
.Ltmp128:
	#DEBUG_VALUE: buf2img_basic:size_y <- [DW_OP_plus_uconst 80] [$rsp+0]
	.loc	0 0 7                           # ldecod_src/input.c:0:7
	leaq	14(%rsp), %r13
.Ltmp129:
	#DEBUG_VALUE: buf2img_basic:o_size_y <- [DW_OP_LLVM_entry_value 1] $r9d
	movq	16(%rsp), %r12                  # 8-byte Reload
.Ltmp130:
	movl	%ebp, 104(%rsp)                 # 4-byte Spill
.Ltmp131:
	#DEBUG_VALUE: buf2img_basic:size_x <- [DW_OP_plus_uconst 104] [$rsp+0]
	movq	%r15, 48(%rsp)                  # 8-byte Spill
	jmp	.LBB3_5
.Ltmp132:
	.p2align	4, 0x90
.LBB3_22:                               # %for.cond76.for.inc90_crit_edge.us
                                        #   in Loop: Header=BB3_5 Depth=1
	#DEBUG_VALUE: buf2img_basic:imgX <- [DW_OP_plus_uconst 56] [$rsp+0]
	#DEBUG_VALUE: buf2img_basic:buf <- [DW_OP_plus_uconst 16] [$rsp+0]
	#DEBUG_VALUE: buf2img_basic:size_x <- [DW_OP_plus_uconst 64] [$rsp+0]
	#DEBUG_VALUE: buf2img_basic:size_y <- [DW_OP_plus_uconst 80] [$rsp+0]
	#DEBUG_VALUE: buf2img_basic:o_size_x <- [DW_OP_LLVM_entry_value 1] $r8d
	#DEBUG_VALUE: buf2img_basic:o_size_y <- [DW_OP_LLVM_entry_value 1] $r9d
	#DEBUG_VALUE: buf2img_basic:symbol_size_in_bytes <- [DW_OP_plus_uconst 192] [$rsp+0]
	#DEBUG_VALUE: buf2img_basic:j <- $rbx
	.loc	0 408 32                        # ldecod_src/input.c:408:32
	incq	%rbx
.Ltmp133:
	#DEBUG_VALUE: buf2img_basic:j <- $rbx
	.loc	0 0 32                          # ldecod_src/input.c:0:32
	movq	24(%rsp), %r12                  # 8-byte Reload
.Ltmp134:
	.loc	0 408 7                         # ldecod_src/input.c:408:7
	addq	96(%rsp), %r12                  # 8-byte Folded Reload
.Ltmp135:
	.loc	0 408 19                        # ldecod_src/input.c:408:19
	cmpq	80(%rsp), %rbx                  # 8-byte Folded Reload
	movl	104(%rsp), %ebp                 # 4-byte Reload
.Ltmp136:
	.loc	0 408 7                         # ldecod_src/input.c:408:7
	je	.LBB3_39
.Ltmp137:
.LBB3_5:                                # %for.body74.us
                                        # =>This Loop Header: Depth=1
                                        #     Child Loop BB3_19 Depth 2
	#DEBUG_VALUE: buf2img_basic:imgX <- [DW_OP_plus_uconst 56] [$rsp+0]
	#DEBUG_VALUE: buf2img_basic:buf <- [DW_OP_plus_uconst 16] [$rsp+0]
	#DEBUG_VALUE: buf2img_basic:size_x <- [DW_OP_plus_uconst 64] [$rsp+0]
	#DEBUG_VALUE: buf2img_basic:size_y <- [DW_OP_plus_uconst 80] [$rsp+0]
	#DEBUG_VALUE: buf2img_basic:o_size_x <- [DW_OP_LLVM_entry_value 1] $r8d
	#DEBUG_VALUE: buf2img_basic:o_size_y <- [DW_OP_LLVM_entry_value 1] $r9d
	#DEBUG_VALUE: buf2img_basic:symbol_size_in_bytes <- [DW_OP_plus_uconst 192] [$rsp+0]
	#DEBUG_VALUE: buf2img_basic:j <- $rbx
	#DEBUG_VALUE: j_pos <- undef
	.loc	0 0 7                           # ldecod_src/input.c:0:7
	cmpl	$1, %ebp
.Ltmp138:
	#DEBUG_VALUE: buf2img_basic:i <- 0
	movq	%r12, 24(%rsp)                  # 8-byte Spill
.Ltmp139:
	.loc	0 411 9 is_stmt 1               # ldecod_src/input.c:411:9
	jne	.LBB3_18
.Ltmp140:
# %bb.6:                                #   in Loop: Header=BB3_5 Depth=1
	#DEBUG_VALUE: buf2img_basic:imgX <- [DW_OP_plus_uconst 56] [$rsp+0]
	#DEBUG_VALUE: buf2img_basic:buf <- [DW_OP_plus_uconst 16] [$rsp+0]
	#DEBUG_VALUE: buf2img_basic:size_x <- [DW_OP_plus_uconst 64] [$rsp+0]
	#DEBUG_VALUE: buf2img_basic:size_y <- [DW_OP_plus_uconst 80] [$rsp+0]
	#DEBUG_VALUE: buf2img_basic:o_size_x <- [DW_OP_LLVM_entry_value 1] $r8d
	#DEBUG_VALUE: buf2img_basic:o_size_y <- [DW_OP_LLVM_entry_value 1] $r9d
	#DEBUG_VALUE: buf2img_basic:symbol_size_in_bytes <- [DW_OP_plus_uconst 192] [$rsp+0]
	#DEBUG_VALUE: buf2img_basic:i <- 0
	#DEBUG_VALUE: buf2img_basic:j <- $rbx
	.loc	0 0 9 is_stmt 0                 # ldecod_src/input.c:0:9
	xorl	%r14d, %r14d
	.loc	0 411 9                         # ldecod_src/input.c:411:9
	jmp	.LBB3_20
.Ltmp141:
	.p2align	4, 0x90
.LBB3_18:                               # %for.body79.us.preheader
                                        #   in Loop: Header=BB3_5 Depth=1
	#DEBUG_VALUE: buf2img_basic:imgX <- [DW_OP_plus_uconst 56] [$rsp+0]
	#DEBUG_VALUE: buf2img_basic:buf <- [DW_OP_plus_uconst 16] [$rsp+0]
	#DEBUG_VALUE: buf2img_basic:size_x <- [DW_OP_plus_uconst 64] [$rsp+0]
	#DEBUG_VALUE: buf2img_basic:size_y <- [DW_OP_plus_uconst 80] [$rsp+0]
	#DEBUG_VALUE: buf2img_basic:o_size_x <- [DW_OP_LLVM_entry_value 1] $r8d
	#DEBUG_VALUE: buf2img_basic:o_size_y <- [DW_OP_LLVM_entry_value 1] $r9d
	#DEBUG_VALUE: buf2img_basic:symbol_size_in_bytes <- [DW_OP_plus_uconst 192] [$rsp+0]
	#DEBUG_VALUE: buf2img_basic:i <- 0
	#DEBUG_VALUE: buf2img_basic:j <- $rbx
	.loc	0 0 9                           # ldecod_src/input.c:0:9
	xorl	%r14d, %r14d
	movq	72(%rsp), %rbp                  # 8-byte Reload
	movq	56(%rsp), %r15                  # 8-byte Reload
.Ltmp142:
	.p2align	4, 0x90
.LBB3_19:                               # %for.body79.us
                                        #   Parent Loop BB3_5 Depth=1
                                        # =>  This Inner Loop Header: Depth=2
	#DEBUG_VALUE: buf2img_basic:imgX <- [DW_OP_plus_uconst 56] [$rsp+0]
	#DEBUG_VALUE: buf2img_basic:buf <- [DW_OP_plus_uconst 16] [$rsp+0]
	#DEBUG_VALUE: buf2img_basic:size_x <- [DW_OP_plus_uconst 64] [$rsp+0]
	#DEBUG_VALUE: buf2img_basic:size_y <- [DW_OP_plus_uconst 80] [$rsp+0]
	#DEBUG_VALUE: buf2img_basic:o_size_x <- [DW_OP_LLVM_entry_value 1] $r8d
	#DEBUG_VALUE: buf2img_basic:o_size_y <- [DW_OP_LLVM_entry_value 1] $r9d
	#DEBUG_VALUE: buf2img_basic:symbol_size_in_bytes <- [DW_OP_plus_uconst 192] [$rsp+0]
	#DEBUG_VALUE: buf2img_basic:j <- $rbx
	#DEBUG_VALUE: buf2img_basic:i <- $r14
	.loc	0 413 15 is_stmt 1              # ldecod_src/input.c:413:15
	movw	$0, 14(%rsp)
.Ltmp143:
	#DEBUG_VALUE: ui16 <- 0
	.loc	0 414 11                        # ldecod_src/input.c:414:11
	movq	%r13, %rdi
	movq	%r12, %rsi
	movq	%rbp, %rdx
	callq	memcpy@PLT
.Ltmp144:
	.loc	0 415 32                        # ldecod_src/input.c:415:32
	movzwl	14(%rsp), %eax
	.loc	0 415 11 is_stmt 0              # ldecod_src/input.c:415:11
	movq	(%r15,%rbx,8), %rcx
	.loc	0 415 21                        # ldecod_src/input.c:415:21
	movw	%ax, (%rcx,%r14,2)
.Ltmp145:
	#DEBUG_VALUE: buf2img_basic:i <- [DW_OP_constu 1, DW_OP_or, DW_OP_stack_value] $r14
	.loc	0 413 15 is_stmt 1              # ldecod_src/input.c:413:15
	movw	$0, 14(%rsp)
.Ltmp146:
	#DEBUG_VALUE: ui16 <- [DW_OP_plus_uconst 14, DW_OP_deref] $rsp
	.loc	0 0 15 is_stmt 0                # ldecod_src/input.c:0:15
	movq	48(%rsp), %rax                  # 8-byte Reload
	.loc	0 414 11 is_stmt 1              # ldecod_src/input.c:414:11
	leaq	(%r12,%rax), %rsi
	movq	%r13, %rdi
	movq	%rbp, %rdx
	callq	memcpy@PLT
.Ltmp147:
	.loc	0 415 32                        # ldecod_src/input.c:415:32
	movzwl	14(%rsp), %eax
	.loc	0 415 11 is_stmt 0              # ldecod_src/input.c:415:11
	movq	(%r15,%rbx,8), %rcx
	.loc	0 415 21                        # ldecod_src/input.c:415:21
	movw	%ax, 2(%rcx,%r14,2)
.Ltmp148:
	.loc	0 411 34 is_stmt 1              # ldecod_src/input.c:411:34
	addq	$2, %r14
.Ltmp149:
	#DEBUG_VALUE: buf2img_basic:i <- $r14
	.loc	0 411 9 is_stmt 0               # ldecod_src/input.c:411:9
	addq	32(%rsp), %r12                  # 8-byte Folded Reload
	cmpq	%r14, 40(%rsp)                  # 8-byte Folded Reload
	jne	.LBB3_19
.Ltmp150:
.LBB3_20:                               # %for.cond76.for.inc90_crit_edge.us.unr-lcssa
                                        #   in Loop: Header=BB3_5 Depth=1
	#DEBUG_VALUE: buf2img_basic:imgX <- [DW_OP_plus_uconst 56] [$rsp+0]
	#DEBUG_VALUE: buf2img_basic:buf <- [DW_OP_plus_uconst 16] [$rsp+0]
	#DEBUG_VALUE: buf2img_basic:size_x <- [DW_OP_plus_uconst 64] [$rsp+0]
	#DEBUG_VALUE: buf2img_basic:size_y <- [DW_OP_plus_uconst 80] [$rsp+0]
	#DEBUG_VALUE: buf2img_basic:o_size_x <- [DW_OP_LLVM_entry_value 1] $r8d
	#DEBUG_VALUE: buf2img_basic:o_size_y <- [DW_OP_LLVM_entry_value 1] $r9d
	#DEBUG_VALUE: buf2img_basic:symbol_size_in_bytes <- [DW_OP_plus_uconst 192] [$rsp+0]
	#DEBUG_VALUE: buf2img_basic:j <- $rbx
	.loc	0 0 9                           # ldecod_src/input.c:0:9
	testb	$1, 64(%rsp)                    # 1-byte Folded Reload
	movq	48(%rsp), %r15                  # 8-byte Reload
	.loc	0 411 9                         # ldecod_src/input.c:411:9
	je	.LBB3_22
.Ltmp151:
# %bb.21:                               # %for.body79.us.epil
                                        #   in Loop: Header=BB3_5 Depth=1
	#DEBUG_VALUE: buf2img_basic:imgX <- [DW_OP_plus_uconst 56] [$rsp+0]
	#DEBUG_VALUE: buf2img_basic:buf <- [DW_OP_plus_uconst 16] [$rsp+0]
	#DEBUG_VALUE: buf2img_basic:size_x <- [DW_OP_plus_uconst 64] [$rsp+0]
	#DEBUG_VALUE: buf2img_basic:size_y <- [DW_OP_plus_uconst 80] [$rsp+0]
	#DEBUG_VALUE: buf2img_basic:o_size_x <- [DW_OP_LLVM_entry_value 1] $r8d
	#DEBUG_VALUE: buf2img_basic:o_size_y <- [DW_OP_LLVM_entry_value 1] $r9d
	#DEBUG_VALUE: buf2img_basic:symbol_size_in_bytes <- [DW_OP_plus_uconst 192] [$rsp+0]
	#DEBUG_VALUE: buf2img_basic:j <- $rbx
	.loc	0 0 9                           # ldecod_src/input.c:0:9
	movq	%rbx, %rsi
	imulq	64(%rsp), %rsi                  # 8-byte Folded Reload
.Ltmp152:
	#DEBUG_VALUE: j_pos <- $rsi
	#DEBUG_VALUE: buf2img_basic:i <- $r14
	.loc	0 413 15 is_stmt 1              # ldecod_src/input.c:413:15
	movw	$0, 14(%rsp)
.Ltmp153:
	#DEBUG_VALUE: ui16 <- 0
	.loc	0 414 37                        # ldecod_src/input.c:414:37
	addq	%r14, %rsi
.Ltmp154:
	.loc	0 414 46 is_stmt 0              # ldecod_src/input.c:414:46
	imulq	%r15, %rsi
	.loc	0 414 31                        # ldecod_src/input.c:414:31
	addq	16(%rsp), %rsi                  # 8-byte Folded Reload
	.loc	0 414 11                        # ldecod_src/input.c:414:11
	movq	%r13, %rdi
	movq	72(%rsp), %rdx                  # 8-byte Reload
	callq	memcpy@PLT
.Ltmp155:
	.loc	0 415 32 is_stmt 1              # ldecod_src/input.c:415:32
	movzwl	14(%rsp), %eax
	movq	56(%rsp), %rcx                  # 8-byte Reload
	.loc	0 415 11 is_stmt 0              # ldecod_src/input.c:415:11
	movq	(%rcx,%rbx,8), %rcx
	.loc	0 415 21                        # ldecod_src/input.c:415:21
	movw	%ax, (%rcx,%r14,2)
.Ltmp156:
	#DEBUG_VALUE: buf2img_basic:i <- [DW_OP_plus_uconst 1, DW_OP_stack_value] $r14
	.loc	0 0 21                          # ldecod_src/input.c:0:21
	jmp	.LBB3_22
.Ltmp157:
.LBB3_23:                               # %if.else93
	#DEBUG_VALUE: buf2img_basic:imgX <- [DW_OP_plus_uconst 56] [$rsp+0]
	#DEBUG_VALUE: buf2img_basic:buf <- [DW_OP_plus_uconst 16] [$rsp+0]
	#DEBUG_VALUE: buf2img_basic:size_x <- $ebp
	#DEBUG_VALUE: buf2img_basic:size_y <- $ebx
	#DEBUG_VALUE: buf2img_basic:o_size_x <- $r12d
	#DEBUG_VALUE: buf2img_basic:o_size_y <- $r13d
	#DEBUG_VALUE: buf2img_basic:symbol_size_in_bytes <- [DW_OP_plus_uconst 192] [$rsp+0]
	#DEBUG_VALUE: imin:a <- $ebp
	#DEBUG_VALUE: imin:b <- $r12d
	.file	6 "ldecod_src/inc" "ifunctions.h" md5 0x279401589ed56df99e287ad9e5fc564b
	.loc	6 44 10 is_stmt 1               # ldecod_src/inc/ifunctions.h:44:10
	movl	%ebp, %eax
	subl	%r12d, %eax
	movl	%r12d, %edx
	cmovll	%ebp, %edx
.Ltmp158:
	#DEBUG_VALUE: iminwidth <- $edx
	negl	%eax
.Ltmp159:
	#DEBUG_VALUE: imin:a <- $ebx
	#DEBUG_VALUE: imin:b <- $r13d
	.loc	6 44 10 is_stmt 0               # ldecod_src/inc/ifunctions.h:44:10
	movl	%ebx, %ecx
	subl	%r13d, %ecx
	movl	%r13d, %esi
	cmovll	%ebx, %esi
.Ltmp160:
	#DEBUG_VALUE: iminheight <- $esi
	negl	%ecx
.Ltmp161:
	.loc	0 427 12 is_stmt 1              # ldecod_src/input.c:427:12
	sarl	%eax
	xorl	%edi, %edi
.Ltmp162:
	#DEBUG_VALUE: dst_offset_x <- 0
	#DEBUG_VALUE: dst_offset_y <- 0
	#DEBUG_VALUE: offset_x <- 0
	#DEBUG_VALUE: offset_y <- 0
	.loc	0 427 21 is_stmt 0              # ldecod_src/input.c:427:21
	cmpl	%ebp, %r12d
.Ltmp163:
	.loc	0 427 12                        # ldecod_src/input.c:427:12
	cmovll	%edi, %eax
.Ltmp164:
	#DEBUG_VALUE: dst_offset_x <- $eax
	.loc	0 430 11 is_stmt 1              # ldecod_src/input.c:430:11
	sarl	%ecx
.Ltmp165:
	.loc	0 430 20 is_stmt 0              # ldecod_src/input.c:430:20
	cmpl	%ebx, %r13d
.Ltmp166:
	.loc	0 430 11                        # ldecod_src/input.c:430:11
	cmovll	%edi, %ecx
.Ltmp167:
	#DEBUG_VALUE: dst_offset_y <- $ecx
	.loc	0 438 37 is_stmt 1              # ldecod_src/input.c:438:37
	leal	(%rax,%rdx), %edi
	.loc	0 438 21 is_stmt 0              # ldecod_src/input.c:438:21
	movl	%r12d, %r8d
	subl	%eax, %r8d
	.loc	0 438 51                        # ldecod_src/input.c:438:51
	cmpl	%r12d, %edi
	.loc	0 438 21                        # ldecod_src/input.c:438:21
	cmovlel	%edx, %r8d
.Ltmp168:
	#DEBUG_VALUE: iminwidth <- $r8d
	.loc	0 439 37 is_stmt 1              # ldecod_src/input.c:439:37
	leal	(%rcx,%rsi), %edx
	.loc	0 439 21 is_stmt 0              # ldecod_src/input.c:439:21
	movl	%r13d, %edi
	subl	%ecx, %edi
	.loc	0 439 51                        # ldecod_src/input.c:439:51
	cmpl	%r13d, %edx
	.loc	0 439 21                        # ldecod_src/input.c:439:21
	cmovlel	%esi, %edi
.Ltmp169:
	#DEBUG_VALUE: iminheight <- $edi
	#DEBUG_VALUE: buf2img_basic:j <- 0
	.loc	0 441 21 is_stmt 1              # ldecod_src/input.c:441:21
	testl	%edi, %edi
.Ltmp170:
	.loc	0 441 7 is_stmt 0               # ldecod_src/input.c:441:7
	jle	.LBB3_39
.Ltmp171:
# %bb.24:                               # %for.body149.lr.ph
	#DEBUG_VALUE: buf2img_basic:imgX <- [DW_OP_plus_uconst 56] [$rsp+0]
	#DEBUG_VALUE: buf2img_basic:buf <- [DW_OP_plus_uconst 16] [$rsp+0]
	#DEBUG_VALUE: buf2img_basic:size_x <- $ebp
	#DEBUG_VALUE: buf2img_basic:size_y <- $ebx
	#DEBUG_VALUE: buf2img_basic:o_size_x <- $r12d
	#DEBUG_VALUE: buf2img_basic:o_size_y <- $r13d
	#DEBUG_VALUE: buf2img_basic:symbol_size_in_bytes <- [DW_OP_plus_uconst 192] [$rsp+0]
	#DEBUG_VALUE: iminwidth <- $r8d
	#DEBUG_VALUE: iminheight <- $edi
	#DEBUG_VALUE: dst_offset_x <- $eax
	#DEBUG_VALUE: dst_offset_y <- $ecx
	#DEBUG_VALUE: offset_x <- 0
	#DEBUG_VALUE: offset_y <- 0
	#DEBUG_VALUE: buf2img_basic:j <- 0
	.loc	0 0 7                           # ldecod_src/input.c:0:7
	movslq	%eax, %rdx
	movl	%r8d, 80(%rsp)                  # 4-byte Spill
.Ltmp172:
	#DEBUG_VALUE: iminwidth <- [DW_OP_plus_uconst 80, DW_OP_deref] $rsp
	movslq	%r8d, %rbx
.Ltmp173:
	#DEBUG_VALUE: buf2img_basic:size_y <- [DW_OP_LLVM_entry_value 1] $ecx
	addq	%rbx, %rbx
	.loc	0 441 7                         # ldecod_src/input.c:441:7
	movslq	%ecx, %rcx
.Ltmp174:
	movslq	%ebp, %r15
	movl	%edi, %eax
.Ltmp175:
	.loc	0 0 7                           # ldecod_src/input.c:0:7
	movl	%edi, 64(%rsp)                  # 4-byte Spill
.Ltmp176:
	#DEBUG_VALUE: iminheight <- [DW_OP_plus_uconst 64, DW_OP_deref] $rsp
	.loc	0 441 7                         # ldecod_src/input.c:441:7
	cmpl	$1, %edi
	movq	%rdx, 120(%rsp)                 # 8-byte Spill
	movq	%rax, 112(%rsp)                 # 8-byte Spill
	movq	%rcx, 32(%rsp)                  # 8-byte Spill
	jne	.LBB3_40
.Ltmp177:
# %bb.25:
	#DEBUG_VALUE: buf2img_basic:imgX <- [DW_OP_plus_uconst 56] [$rsp+0]
	#DEBUG_VALUE: buf2img_basic:buf <- [DW_OP_plus_uconst 16] [$rsp+0]
	#DEBUG_VALUE: buf2img_basic:size_x <- $ebp
	#DEBUG_VALUE: buf2img_basic:size_y <- [DW_OP_LLVM_entry_value 1] $ecx
	#DEBUG_VALUE: buf2img_basic:o_size_x <- $r12d
	#DEBUG_VALUE: buf2img_basic:o_size_y <- $r13d
	#DEBUG_VALUE: buf2img_basic:symbol_size_in_bytes <- [DW_OP_plus_uconst 192] [$rsp+0]
	#DEBUG_VALUE: iminwidth <- [DW_OP_plus_uconst 80, DW_OP_deref] $rsp
	#DEBUG_VALUE: iminheight <- [DW_OP_plus_uconst 64, DW_OP_deref] $rsp
	#DEBUG_VALUE: offset_x <- 0
	#DEBUG_VALUE: offset_y <- 0
	#DEBUG_VALUE: buf2img_basic:j <- 0
	.loc	0 0 7                           # ldecod_src/input.c:0:7
	xorl	%r12d, %r12d
.Ltmp178:
	#DEBUG_VALUE: buf2img_basic:o_size_x <- [DW_OP_LLVM_entry_value 1] $r8d
	jmp	.LBB3_26
.Ltmp179:
.LBB3_12:                               # %if.else
	#DEBUG_VALUE: buf2img_basic:imgX <- [DW_OP_plus_uconst 56] [$rsp+0]
	#DEBUG_VALUE: buf2img_basic:buf <- [DW_OP_plus_uconst 16] [$rsp+0]
	#DEBUG_VALUE: buf2img_basic:size_x <- $ebp
	#DEBUG_VALUE: buf2img_basic:size_y <- $ebx
	#DEBUG_VALUE: buf2img_basic:o_size_x <- $r12d
	#DEBUG_VALUE: buf2img_basic:o_size_y <- $r13d
	#DEBUG_VALUE: buf2img_basic:symbol_size_in_bytes <- [DW_OP_plus_uconst 192] [$rsp+0]
	#DEBUG_VALUE: imin:a <- $ebp
	#DEBUG_VALUE: imin:b <- $r12d
	#DEBUG_VALUE: iminwidth <- undef
	#DEBUG_VALUE: imin:a <- $ebx
	#DEBUG_VALUE: imin:b <- $r13d
	.loc	6 44 10 is_stmt 1               # ldecod_src/inc/ifunctions.h:44:10
	movl	%ebx, %eax
	subl	%r13d, %eax
	movl	%r13d, %edx
	cmovll	%ebx, %edx
.Ltmp180:
	#DEBUG_VALUE: iminheight <- $edx
	negl	%eax
.Ltmp181:
	.loc	0 386 11                        # ldecod_src/input.c:386:11
	sarl	%eax
	xorl	%r14d, %r14d
.Ltmp182:
	#DEBUG_VALUE: dst_offset_y <- 0
	#DEBUG_VALUE: offset_x <- 0
	#DEBUG_VALUE: offset_y <- 0
	#DEBUG_VALUE: dst_offset_x <- undef
	.loc	0 386 20 is_stmt 0              # ldecod_src/input.c:386:20
	cmpl	%ebx, %r13d
.Ltmp183:
	.loc	0 386 11                        # ldecod_src/input.c:386:11
	cmovll	%r14d, %eax
.Ltmp184:
	#DEBUG_VALUE: dst_offset_y <- $eax
	.loc	0 395 37 is_stmt 1              # ldecod_src/input.c:395:37
	leal	(%rax,%rdx), %esi
	.loc	0 395 21 is_stmt 0              # ldecod_src/input.c:395:21
	movl	%r13d, %ecx
	subl	%eax, %ecx
	.loc	0 395 51                        # ldecod_src/input.c:395:51
	cmpl	%r13d, %esi
	.loc	0 395 21                        # ldecod_src/input.c:395:21
	cmovlel	%edx, %ecx
.Ltmp185:
	#DEBUG_VALUE: iminheight <- $ecx
	#DEBUG_VALUE: buf2img_basic:i <- 0
	.loc	0 397 18 is_stmt 1              # ldecod_src/input.c:397:18
	testl	%ecx, %ecx
.Ltmp186:
	.loc	0 397 7 is_stmt 0               # ldecod_src/input.c:397:7
	jle	.LBB3_39
.Ltmp187:
# %bb.13:                               # %for.body.lr.ph
	#DEBUG_VALUE: buf2img_basic:imgX <- [DW_OP_plus_uconst 56] [$rsp+0]
	#DEBUG_VALUE: buf2img_basic:buf <- [DW_OP_plus_uconst 16] [$rsp+0]
	#DEBUG_VALUE: buf2img_basic:size_x <- $ebp
	#DEBUG_VALUE: buf2img_basic:size_y <- $ebx
	#DEBUG_VALUE: buf2img_basic:o_size_x <- $r12d
	#DEBUG_VALUE: buf2img_basic:o_size_y <- $r13d
	#DEBUG_VALUE: buf2img_basic:symbol_size_in_bytes <- [DW_OP_plus_uconst 192] [$rsp+0]
	#DEBUG_VALUE: imin:a <- $ebp
	#DEBUG_VALUE: imin:b <- $r12d
	#DEBUG_VALUE: iminheight <- $ecx
	#DEBUG_VALUE: dst_offset_y <- $eax
	#DEBUG_VALUE: offset_x <- 0
	#DEBUG_VALUE: offset_y <- 0
	#DEBUG_VALUE: buf2img_basic:i <- 0
	.loc	6 44 10 is_stmt 1               # ldecod_src/inc/ifunctions.h:44:10
	movl	%ebp, %edx
	subl	%r12d, %edx
	movl	%r12d, %esi
	cmovll	%ebp, %esi
.Ltmp188:
	#DEBUG_VALUE: iminwidth <- $esi
	negl	%edx
.Ltmp189:
	.loc	0 383 12                        # ldecod_src/input.c:383:12
	sarl	%edx
.Ltmp190:
	.loc	0 383 21 is_stmt 0              # ldecod_src/input.c:383:21
	cmpl	%ebp, %r12d
.Ltmp191:
	.loc	0 383 12                        # ldecod_src/input.c:383:12
	cmovll	%r14d, %edx
.Ltmp192:
	#DEBUG_VALUE: dst_offset_x <- $edx
	.loc	0 394 37 is_stmt 1              # ldecod_src/input.c:394:37
	leal	(%rdx,%rsi), %r9d
	.loc	0 394 21 is_stmt 0              # ldecod_src/input.c:394:21
	movl	%r12d, %r8d
	subl	%edx, %r8d
	.loc	0 394 51                        # ldecod_src/input.c:394:51
	cmpl	%r12d, %r9d
	.loc	0 394 21                        # ldecod_src/input.c:394:21
	cmovlel	%esi, %r8d
.Ltmp193:
	#DEBUG_VALUE: iminwidth <- $r8d
	.loc	0 0 21                          # ldecod_src/input.c:0:21
	movslq	%edx, %rdx
.Ltmp194:
	movslq	%r8d, %rbx
.Ltmp195:
	#DEBUG_VALUE: buf2img_basic:size_y <- [DW_OP_LLVM_entry_value 1] $ecx
	addq	%rbx, %rbx
.Ltmp196:
	.loc	0 397 7 is_stmt 1               # ldecod_src/input.c:397:7
	cltq
.Ltmp197:
	movslq	%ebp, %rbp
.Ltmp198:
	#DEBUG_VALUE: buf2img_basic:size_x <- [DW_OP_LLVM_entry_value 1] $edx
	movl	%ecx, %esi
	cmpl	$1, %ecx
	movq	%rdx, 72(%rsp)                  # 8-byte Spill
	movq	%rax, 24(%rsp)                  # 8-byte Spill
	movq	%rsi, 32(%rsp)                  # 8-byte Spill
	je	.LBB3_16
.Ltmp199:
# %bb.14:                               # %for.body.lr.ph.new
	#DEBUG_VALUE: buf2img_basic:imgX <- [DW_OP_plus_uconst 56] [$rsp+0]
	#DEBUG_VALUE: buf2img_basic:buf <- [DW_OP_plus_uconst 16] [$rsp+0]
	#DEBUG_VALUE: buf2img_basic:size_x <- [DW_OP_LLVM_entry_value 1] $edx
	#DEBUG_VALUE: buf2img_basic:size_y <- [DW_OP_LLVM_entry_value 1] $ecx
	#DEBUG_VALUE: buf2img_basic:o_size_x <- $r12d
	#DEBUG_VALUE: buf2img_basic:o_size_y <- $r13d
	#DEBUG_VALUE: buf2img_basic:symbol_size_in_bytes <- [DW_OP_plus_uconst 192] [$rsp+0]
	#DEBUG_VALUE: iminwidth <- $r8d
	#DEBUG_VALUE: iminheight <- [DW_OP_plus_uconst 32, DW_OP_deref] $rsp
	#DEBUG_VALUE: offset_x <- 0
	#DEBUG_VALUE: offset_y <- 0
	#DEBUG_VALUE: buf2img_basic:i <- 0
                                        # kill: def $esi killed $esi killed $rsi def $rsi
	andl	$2147483646, %esi               # imm = 0x7FFFFFFE
	movq	%rsi, 48(%rsp)                  # 8-byte Spill
	leaq	(,%rbp,2), %rcx
	movq	%rcx, 40(%rsp)                  # 8-byte Spill
	leaq	(%rdi,%rax,8), %r15
	addq	$8, %r15
	xorl	%r14d, %r14d
	leaq	(%rdx,%rdx), %r13
.Ltmp200:
	#DEBUG_VALUE: buf2img_basic:o_size_y <- [DW_OP_LLVM_entry_value 1] $r9d
	.loc	0 0 7 is_stmt 0                 # ldecod_src/input.c:0:7
	movq	16(%rsp), %r12                  # 8-byte Reload
.Ltmp201:
	.p2align	4, 0x90
.LBB3_15:                               # %for.body
                                        # =>This Inner Loop Header: Depth=1
	#DEBUG_VALUE: buf2img_basic:imgX <- [DW_OP_plus_uconst 56] [$rsp+0]
	#DEBUG_VALUE: buf2img_basic:buf <- [DW_OP_plus_uconst 16] [$rsp+0]
	#DEBUG_VALUE: buf2img_basic:size_x <- [DW_OP_LLVM_entry_value 1] $edx
	#DEBUG_VALUE: buf2img_basic:size_y <- [DW_OP_LLVM_entry_value 1] $ecx
	#DEBUG_VALUE: buf2img_basic:o_size_x <- [DW_OP_LLVM_entry_value 1] $r8d
	#DEBUG_VALUE: buf2img_basic:o_size_y <- [DW_OP_LLVM_entry_value 1] $r9d
	#DEBUG_VALUE: buf2img_basic:symbol_size_in_bytes <- [DW_OP_plus_uconst 192] [$rsp+0]
	#DEBUG_VALUE: iminheight <- [DW_OP_plus_uconst 32, DW_OP_deref] $rsp
	#DEBUG_VALUE: offset_x <- 0
	#DEBUG_VALUE: offset_y <- 0
	#DEBUG_VALUE: buf2img_basic:i <- $r14
	movq	-8(%r15,%r14,8), %rdi
.Ltmp202:
	.loc	0 398 17 is_stmt 1              # ldecod_src/input.c:398:17
	addq	%r13, %rdi
	.loc	0 398 9 is_stmt 0               # ldecod_src/input.c:398:9
	movq	%r12, %rsi
	movq	%rbx, %rdx
	callq	memcpy@PLT
.Ltmp203:
	#DEBUG_VALUE: buf2img_basic:i <- [DW_OP_constu 1, DW_OP_or, DW_OP_stack_value] $r14
	.loc	0 0 9                           # ldecod_src/input.c:0:9
	movq	(%r15,%r14,8), %rdi
	.loc	0 398 17                        # ldecod_src/input.c:398:17
	addq	%r13, %rdi
	.loc	0 398 9                         # ldecod_src/input.c:398:9
	leaq	(%r12,%rbp), %rsi
	movq	%rbx, %rdx
	callq	memcpy@PLT
.Ltmp204:
	.loc	0 397 31 is_stmt 1              # ldecod_src/input.c:397:31
	addq	$2, %r14
.Ltmp205:
	#DEBUG_VALUE: buf2img_basic:i <- $r14
	.loc	0 397 7 is_stmt 0               # ldecod_src/input.c:397:7
	addq	40(%rsp), %r12                  # 8-byte Folded Reload
	cmpq	%r14, 48(%rsp)                  # 8-byte Folded Reload
	jne	.LBB3_15
.Ltmp206:
.LBB3_16:                               # %if.end194.loopexit.unr-lcssa
	#DEBUG_VALUE: buf2img_basic:imgX <- [DW_OP_plus_uconst 56] [$rsp+0]
	#DEBUG_VALUE: buf2img_basic:buf <- [DW_OP_plus_uconst 16] [$rsp+0]
	#DEBUG_VALUE: buf2img_basic:size_x <- [DW_OP_LLVM_entry_value 1] $edx
	#DEBUG_VALUE: buf2img_basic:size_y <- [DW_OP_LLVM_entry_value 1] $ecx
	#DEBUG_VALUE: buf2img_basic:o_size_x <- [DW_OP_LLVM_entry_value 1] $r8d
	#DEBUG_VALUE: buf2img_basic:o_size_y <- [DW_OP_LLVM_entry_value 1] $r9d
	#DEBUG_VALUE: buf2img_basic:symbol_size_in_bytes <- [DW_OP_plus_uconst 192] [$rsp+0]
	#DEBUG_VALUE: iminheight <- [DW_OP_plus_uconst 32, DW_OP_deref] $rsp
	#DEBUG_VALUE: offset_x <- 0
	#DEBUG_VALUE: offset_y <- 0
	testb	$1, 32(%rsp)                    # 1-byte Folded Reload
	movq	56(%rsp), %rax                  # 8-byte Reload
	je	.LBB3_39
.Ltmp207:
# %bb.17:                               # %for.body.epil
	#DEBUG_VALUE: buf2img_basic:imgX <- [DW_OP_plus_uconst 56] [$rsp+0]
	#DEBUG_VALUE: buf2img_basic:buf <- [DW_OP_plus_uconst 16] [$rsp+0]
	#DEBUG_VALUE: buf2img_basic:size_x <- [DW_OP_LLVM_entry_value 1] $edx
	#DEBUG_VALUE: buf2img_basic:size_y <- [DW_OP_LLVM_entry_value 1] $ecx
	#DEBUG_VALUE: buf2img_basic:o_size_x <- [DW_OP_LLVM_entry_value 1] $r8d
	#DEBUG_VALUE: buf2img_basic:o_size_y <- [DW_OP_LLVM_entry_value 1] $r9d
	#DEBUG_VALUE: buf2img_basic:symbol_size_in_bytes <- [DW_OP_plus_uconst 192] [$rsp+0]
	#DEBUG_VALUE: iminheight <- [DW_OP_plus_uconst 32, DW_OP_deref] $rsp
	#DEBUG_VALUE: offset_x <- 0
	#DEBUG_VALUE: offset_y <- 0
	.loc	0 0 7                           # ldecod_src/input.c:0:7
	movq	24(%rsp), %rcx                  # 8-byte Reload
	leaq	(%rax,%rcx,8), %rax
.Ltmp208:
	#DEBUG_VALUE: buf2img_basic:i <- $r14
	movq	72(%rsp), %rdi                  # 8-byte Reload
.Ltmp209:
	.loc	0 398 17 is_stmt 1              # ldecod_src/input.c:398:17
	addq	%rdi, %rdi
	addq	(%rax,%r14,8), %rdi
	.loc	0 398 81 is_stmt 0              # ldecod_src/input.c:398:81
	imulq	%r14, %rbp
	movq	16(%rsp), %rsi                  # 8-byte Reload
	.loc	0 398 57                        # ldecod_src/input.c:398:57
	addq	%rbp, %rsi
	.loc	0 398 9                         # ldecod_src/input.c:398:9
	movq	%rbx, %rdx
.Ltmp210:
.LBB3_11:                               # %if.then8
	#DEBUG_VALUE: buf2img_basic:imgX <- [DW_OP_plus_uconst 56] [$rsp+0]
	#DEBUG_VALUE: buf2img_basic:buf <- [DW_OP_plus_uconst 16] [$rsp+0]
	#DEBUG_VALUE: buf2img_basic:size_x <- [DW_OP_LLVM_entry_value 1] $edx
	#DEBUG_VALUE: buf2img_basic:size_y <- [DW_OP_LLVM_entry_value 1] $ecx
	#DEBUG_VALUE: buf2img_basic:o_size_x <- [DW_OP_LLVM_entry_value 1] $r8d
	#DEBUG_VALUE: buf2img_basic:o_size_y <- [DW_OP_LLVM_entry_value 1] $r9d
	#DEBUG_VALUE: buf2img_basic:symbol_size_in_bytes <- [DW_OP_plus_uconst 192] [$rsp+0]
	.loc	0 0 0 epilogue_begin            # ldecod_src/input.c:0:0
	addq	$136, %rsp
	.cfi_def_cfa_offset 56
	popq	%rbx
	.cfi_def_cfa_offset 48
	popq	%r12
	.cfi_def_cfa_offset 40
	popq	%r13
	.cfi_def_cfa_offset 32
	popq	%r14
	.cfi_def_cfa_offset 24
	popq	%r15
	.cfi_def_cfa_offset 16
	popq	%rbp
	.cfi_def_cfa_offset 8
.Ltmp211:
	jmp	memcpy@PLT                      # TAILCALL
.Ltmp212:
.LBB3_40:                               # %for.body149.lr.ph.new
	.cfi_def_cfa_offset 192
	#DEBUG_VALUE: buf2img_basic:imgX <- [DW_OP_plus_uconst 56] [$rsp+0]
	#DEBUG_VALUE: buf2img_basic:buf <- [DW_OP_plus_uconst 16] [$rsp+0]
	#DEBUG_VALUE: buf2img_basic:size_x <- $ebp
	#DEBUG_VALUE: buf2img_basic:size_y <- [DW_OP_LLVM_entry_value 1] $ecx
	#DEBUG_VALUE: buf2img_basic:o_size_x <- $r12d
	#DEBUG_VALUE: buf2img_basic:o_size_y <- $r13d
	#DEBUG_VALUE: buf2img_basic:symbol_size_in_bytes <- [DW_OP_plus_uconst 192] [$rsp+0]
	#DEBUG_VALUE: iminwidth <- [DW_OP_plus_uconst 80, DW_OP_deref] $rsp
	#DEBUG_VALUE: iminheight <- [DW_OP_plus_uconst 64, DW_OP_deref] $rsp
	#DEBUG_VALUE: offset_x <- 0
	#DEBUG_VALUE: offset_y <- 0
	#DEBUG_VALUE: buf2img_basic:j <- 0
                                        # kill: def $eax killed $eax killed $rax def $rax
	.loc	0 441 7 is_stmt 1               # ldecod_src/input.c:441:7
	andl	$2147483646, %eax               # imm = 0x7FFFFFFE
	movq	%rax, 48(%rsp)                  # 8-byte Spill
	leaq	(%r15,%r15), %rax
	movq	%rax, 40(%rsp)                  # 8-byte Spill
	movq	56(%rsp), %rax                  # 8-byte Reload
	leaq	(%rax,%rcx,8), %rbp
.Ltmp213:
	#DEBUG_VALUE: buf2img_basic:size_x <- [DW_OP_LLVM_entry_value 1] $edx
	addq	$8, %rbp
	xorl	%r12d, %r12d
.Ltmp214:
	#DEBUG_VALUE: buf2img_basic:o_size_x <- [DW_OP_LLVM_entry_value 1] $r8d
	.loc	0 0 7 is_stmt 0                 # ldecod_src/input.c:0:7
	leaq	(%rdx,%rdx), %r14
	movq	16(%rsp), %r13                  # 8-byte Reload
.Ltmp215:
	.p2align	4, 0x90
.LBB3_41:                               # %for.body149
                                        # =>This Inner Loop Header: Depth=1
	#DEBUG_VALUE: buf2img_basic:imgX <- [DW_OP_plus_uconst 56] [$rsp+0]
	#DEBUG_VALUE: buf2img_basic:buf <- [DW_OP_plus_uconst 16] [$rsp+0]
	#DEBUG_VALUE: buf2img_basic:size_x <- [DW_OP_LLVM_entry_value 1] $edx
	#DEBUG_VALUE: buf2img_basic:size_y <- [DW_OP_LLVM_entry_value 1] $ecx
	#DEBUG_VALUE: buf2img_basic:o_size_x <- [DW_OP_LLVM_entry_value 1] $r8d
	#DEBUG_VALUE: buf2img_basic:o_size_y <- [DW_OP_LLVM_entry_value 1] $r9d
	#DEBUG_VALUE: buf2img_basic:symbol_size_in_bytes <- [DW_OP_plus_uconst 192] [$rsp+0]
	#DEBUG_VALUE: iminwidth <- [DW_OP_plus_uconst 80, DW_OP_deref] $rsp
	#DEBUG_VALUE: iminheight <- [DW_OP_plus_uconst 64, DW_OP_deref] $rsp
	#DEBUG_VALUE: offset_x <- 0
	#DEBUG_VALUE: offset_y <- 0
	#DEBUG_VALUE: buf2img_basic:j <- $r12
	movq	-8(%rbp,%r12,8), %rdi
.Ltmp216:
	.loc	0 442 17 is_stmt 1              # ldecod_src/input.c:442:17
	addq	%r14, %rdi
	.loc	0 442 9 is_stmt 0               # ldecod_src/input.c:442:9
	movq	%r13, %rsi
	movq	%rbx, %rdx
	callq	memcpy@PLT
.Ltmp217:
	#DEBUG_VALUE: buf2img_basic:j <- [DW_OP_constu 1, DW_OP_or, DW_OP_stack_value] $r12
	.loc	0 0 9                           # ldecod_src/input.c:0:9
	movq	(%rbp,%r12,8), %rdi
	.loc	0 442 17                        # ldecod_src/input.c:442:17
	addq	%r14, %rdi
	.loc	0 442 9                         # ldecod_src/input.c:442:9
	leaq	(%r15,%r13), %rsi
	movq	%rbx, %rdx
	callq	memcpy@PLT
.Ltmp218:
	.loc	0 441 36 is_stmt 1              # ldecod_src/input.c:441:36
	addq	$2, %r12
.Ltmp219:
	#DEBUG_VALUE: buf2img_basic:j <- $r12
	.loc	0 441 7 is_stmt 0               # ldecod_src/input.c:441:7
	addq	40(%rsp), %r13                  # 8-byte Folded Reload
	cmpq	%r12, 48(%rsp)                  # 8-byte Folded Reload
	jne	.LBB3_41
.Ltmp220:
.LBB3_26:                               # %for.cond165.preheader.unr-lcssa
	#DEBUG_VALUE: buf2img_basic:imgX <- [DW_OP_plus_uconst 56] [$rsp+0]
	#DEBUG_VALUE: buf2img_basic:buf <- [DW_OP_plus_uconst 16] [$rsp+0]
	#DEBUG_VALUE: buf2img_basic:size_x <- [DW_OP_LLVM_entry_value 1] $edx
	#DEBUG_VALUE: buf2img_basic:size_y <- [DW_OP_LLVM_entry_value 1] $ecx
	#DEBUG_VALUE: buf2img_basic:o_size_x <- [DW_OP_LLVM_entry_value 1] $r8d
	#DEBUG_VALUE: buf2img_basic:o_size_y <- [DW_OP_LLVM_entry_value 1] $r9d
	#DEBUG_VALUE: buf2img_basic:symbol_size_in_bytes <- [DW_OP_plus_uconst 192] [$rsp+0]
	#DEBUG_VALUE: iminwidth <- [DW_OP_plus_uconst 80, DW_OP_deref] $rsp
	#DEBUG_VALUE: iminheight <- [DW_OP_plus_uconst 64, DW_OP_deref] $rsp
	#DEBUG_VALUE: offset_x <- 0
	#DEBUG_VALUE: offset_y <- 0
	.loc	0 0 7                           # ldecod_src/input.c:0:7
	movq	%r15, 88(%rsp)                  # 8-byte Spill
	movq	56(%rsp), %rax                  # 8-byte Reload
	movq	32(%rsp), %rcx                  # 8-byte Reload
	.loc	0 441 7                         # ldecod_src/input.c:441:7
	leaq	(%rax,%rcx,8), %r13
	movq	112(%rsp), %rbp                 # 8-byte Reload
	testb	$1, %bpl
	movq	120(%rsp), %r14                 # 8-byte Reload
	je	.LBB3_28
.Ltmp221:
# %bb.27:                               # %for.body149.epil
	#DEBUG_VALUE: buf2img_basic:imgX <- [DW_OP_plus_uconst 56] [$rsp+0]
	#DEBUG_VALUE: buf2img_basic:buf <- [DW_OP_plus_uconst 16] [$rsp+0]
	#DEBUG_VALUE: buf2img_basic:size_x <- [DW_OP_LLVM_entry_value 1] $edx
	#DEBUG_VALUE: buf2img_basic:size_y <- [DW_OP_LLVM_entry_value 1] $ecx
	#DEBUG_VALUE: buf2img_basic:o_size_x <- [DW_OP_LLVM_entry_value 1] $r8d
	#DEBUG_VALUE: buf2img_basic:o_size_y <- [DW_OP_LLVM_entry_value 1] $r9d
	#DEBUG_VALUE: buf2img_basic:symbol_size_in_bytes <- [DW_OP_plus_uconst 192] [$rsp+0]
	#DEBUG_VALUE: iminwidth <- [DW_OP_plus_uconst 80, DW_OP_deref] $rsp
	#DEBUG_VALUE: iminheight <- [DW_OP_plus_uconst 64, DW_OP_deref] $rsp
	#DEBUG_VALUE: offset_x <- 0
	#DEBUG_VALUE: offset_y <- 0
	#DEBUG_VALUE: buf2img_basic:j <- $r12
	.loc	0 442 17 is_stmt 1              # ldecod_src/input.c:442:17
	leaq	(%r14,%r14), %rdi
	addq	(%r13,%r12,8), %rdi
	.loc	0 442 81 is_stmt 0              # ldecod_src/input.c:442:81
	imulq	88(%rsp), %r12                  # 8-byte Folded Reload
.Ltmp222:
	.loc	0 442 57                        # ldecod_src/input.c:442:57
	addq	16(%rsp), %r12                  # 8-byte Folded Reload
	.loc	0 442 9                         # ldecod_src/input.c:442:9
	movq	%r12, %rsi
	movq	%rbx, %rdx
	callq	memcpy@PLT
.Ltmp223:
	#DEBUG_VALUE: buf2img_basic:j <- [DW_OP_plus_uconst 1, DW_OP_stack_value] undef
.LBB3_28:                               # %for.cond165.preheader
	#DEBUG_VALUE: buf2img_basic:imgX <- [DW_OP_plus_uconst 56] [$rsp+0]
	#DEBUG_VALUE: buf2img_basic:buf <- [DW_OP_plus_uconst 16] [$rsp+0]
	#DEBUG_VALUE: buf2img_basic:size_x <- [DW_OP_LLVM_entry_value 1] $edx
	#DEBUG_VALUE: buf2img_basic:size_y <- [DW_OP_LLVM_entry_value 1] $ecx
	#DEBUG_VALUE: buf2img_basic:o_size_x <- [DW_OP_LLVM_entry_value 1] $r8d
	#DEBUG_VALUE: buf2img_basic:o_size_y <- [DW_OP_LLVM_entry_value 1] $r9d
	#DEBUG_VALUE: buf2img_basic:symbol_size_in_bytes <- [DW_OP_plus_uconst 192] [$rsp+0]
	#DEBUG_VALUE: iminwidth <- [DW_OP_plus_uconst 80, DW_OP_deref] $rsp
	#DEBUG_VALUE: iminheight <- [DW_OP_plus_uconst 64, DW_OP_deref] $rsp
	#DEBUG_VALUE: offset_x <- 0
	#DEBUG_VALUE: offset_y <- 0
	.loc	0 0 9                           # ldecod_src/input.c:0:9
	movq	%r13, 32(%rsp)                  # 8-byte Spill
	.loc	0 441 21 is_stmt 1              # ldecod_src/input.c:441:21
	cmpl	$0, 64(%rsp)                    # 4-byte Folded Reload
.Ltmp224:
	#DEBUG_VALUE: buf2img_basic:j <- 0
	.loc	0 0 21 is_stmt 0                # ldecod_src/input.c:0:21
	movl	80(%rsp), %esi                  # 4-byte Reload
.Ltmp225:
	.loc	0 444 7 is_stmt 1               # ldecod_src/input.c:444:7
	jle	.LBB3_39
.Ltmp226:
# %bb.29:                               # %for.cond165.preheader
	#DEBUG_VALUE: buf2img_basic:imgX <- [DW_OP_plus_uconst 56] [$rsp+0]
	#DEBUG_VALUE: buf2img_basic:buf <- [DW_OP_plus_uconst 16] [$rsp+0]
	#DEBUG_VALUE: buf2img_basic:size_x <- [DW_OP_LLVM_entry_value 1] $edx
	#DEBUG_VALUE: buf2img_basic:size_y <- [DW_OP_LLVM_entry_value 1] $ecx
	#DEBUG_VALUE: buf2img_basic:o_size_x <- [DW_OP_LLVM_entry_value 1] $r8d
	#DEBUG_VALUE: buf2img_basic:o_size_y <- [DW_OP_LLVM_entry_value 1] $r9d
	#DEBUG_VALUE: buf2img_basic:symbol_size_in_bytes <- [DW_OP_plus_uconst 192] [$rsp+0]
	#DEBUG_VALUE: iminwidth <- [DW_OP_plus_uconst 80, DW_OP_deref] $rsp
	#DEBUG_VALUE: iminheight <- [DW_OP_plus_uconst 64, DW_OP_deref] $rsp
	#DEBUG_VALUE: offset_x <- 0
	#DEBUG_VALUE: offset_y <- 0
	#DEBUG_VALUE: buf2img_basic:j <- 0
	testl	%esi, %esi
	jle	.LBB3_39
.Ltmp227:
# %bb.30:                               # %for.body168.us.preheader
	#DEBUG_VALUE: buf2img_basic:imgX <- [DW_OP_plus_uconst 56] [$rsp+0]
	#DEBUG_VALUE: buf2img_basic:buf <- [DW_OP_plus_uconst 16] [$rsp+0]
	#DEBUG_VALUE: buf2img_basic:size_x <- [DW_OP_LLVM_entry_value 1] $edx
	#DEBUG_VALUE: buf2img_basic:size_y <- [DW_OP_LLVM_entry_value 1] $ecx
	#DEBUG_VALUE: buf2img_basic:o_size_x <- [DW_OP_LLVM_entry_value 1] $r8d
	#DEBUG_VALUE: buf2img_basic:o_size_y <- [DW_OP_LLVM_entry_value 1] $r9d
	#DEBUG_VALUE: buf2img_basic:symbol_size_in_bytes <- [DW_OP_plus_uconst 192] [$rsp+0]
	#DEBUG_VALUE: iminwidth <- [DW_OP_plus_uconst 80, DW_OP_deref] $rsp
	#DEBUG_VALUE: iminheight <- [DW_OP_plus_uconst 64, DW_OP_deref] $rsp
	#DEBUG_VALUE: offset_x <- 0
	#DEBUG_VALUE: offset_y <- 0
	#DEBUG_VALUE: buf2img_basic:j <- 0
	movslq	24(%rsp), %rax                  # 4-byte Folded Reload
	movl	%esi, %ecx
	movq	%rcx, 104(%rsp)                 # 8-byte Spill
	movq	%rax, %rcx
	imulq	88(%rsp), %rcx                  # 8-byte Folded Reload
	movq	%rcx, 96(%rsp)                  # 8-byte Spill
	leaq	(%rax,%rax), %rcx
	movq	%rcx, 64(%rsp)                  # 8-byte Spill
.Ltmp228:
	#DEBUG_VALUE: iminheight <- [DW_OP_plus_uconst 112, DW_OP_deref] $rsp
	movl	%esi, %ecx
	andl	$2147483646, %ecx               # imm = 0x7FFFFFFE
	negq	%rcx
	movq	%rcx, 56(%rsp)                  # 8-byte Spill
.Ltmp229:
	#DEBUG_VALUE: buf2img_basic:imgX <- undef
	.loc	0 0 7 is_stmt 0                 # ldecod_src/input.c:0:7
	xorl	%ecx, %ecx
	leaq	14(%rsp), %rdi
	movq	16(%rsp), %rdx                  # 8-byte Reload
	movq	%rax, 24(%rsp)                  # 8-byte Spill
	jmp	.LBB3_31
.Ltmp230:
	.p2align	4, 0x90
.LBB3_38:                               # %for.cond172.for.inc190_crit_edge.us
                                        #   in Loop: Header=BB3_31 Depth=1
	#DEBUG_VALUE: buf2img_basic:imgX <- [DW_OP_LLVM_entry_value 1] $rdi
	#DEBUG_VALUE: buf2img_basic:buf <- [DW_OP_plus_uconst 16] [$rsp+0]
	#DEBUG_VALUE: buf2img_basic:size_x <- [DW_OP_LLVM_entry_value 1] $edx
	#DEBUG_VALUE: buf2img_basic:size_y <- [DW_OP_LLVM_entry_value 1] $ecx
	#DEBUG_VALUE: buf2img_basic:o_size_x <- [DW_OP_LLVM_entry_value 1] $r8d
	#DEBUG_VALUE: buf2img_basic:o_size_y <- [DW_OP_LLVM_entry_value 1] $r9d
	#DEBUG_VALUE: buf2img_basic:symbol_size_in_bytes <- [DW_OP_plus_uconst 192] [$rsp+0]
	#DEBUG_VALUE: iminwidth <- [DW_OP_plus_uconst 80, DW_OP_deref] $rsp
	#DEBUG_VALUE: iminheight <- [DW_OP_plus_uconst 112, DW_OP_deref] $rsp
	#DEBUG_VALUE: offset_x <- 0
	#DEBUG_VALUE: offset_y <- 0
	.loc	0 444 34                        # ldecod_src/input.c:444:34
	incq	%rcx
.Ltmp231:
	#DEBUG_VALUE: buf2img_basic:j <- $rcx
	.loc	0 444 7                         # ldecod_src/input.c:444:7
	addq	96(%rsp), %rdx                  # 8-byte Folded Reload
.Ltmp232:
	.loc	0 444 19                        # ldecod_src/input.c:444:19
	cmpq	%rbp, %rcx
.Ltmp233:
	.loc	0 444 7                         # ldecod_src/input.c:444:7
	jae	.LBB3_39
.Ltmp234:
.LBB3_31:                               # %for.body168.us
                                        # =>This Loop Header: Depth=1
                                        #     Child Loop BB3_34 Depth 2
	#DEBUG_VALUE: buf2img_basic:imgX <- [DW_OP_LLVM_entry_value 1] $rdi
	#DEBUG_VALUE: buf2img_basic:buf <- [DW_OP_plus_uconst 16] [$rsp+0]
	#DEBUG_VALUE: buf2img_basic:size_x <- [DW_OP_LLVM_entry_value 1] $edx
	#DEBUG_VALUE: buf2img_basic:size_y <- [DW_OP_LLVM_entry_value 1] $ecx
	#DEBUG_VALUE: buf2img_basic:o_size_x <- [DW_OP_LLVM_entry_value 1] $r8d
	#DEBUG_VALUE: buf2img_basic:o_size_y <- [DW_OP_LLVM_entry_value 1] $r9d
	#DEBUG_VALUE: buf2img_basic:symbol_size_in_bytes <- [DW_OP_plus_uconst 192] [$rsp+0]
	#DEBUG_VALUE: iminwidth <- [DW_OP_plus_uconst 80, DW_OP_deref] $rsp
	#DEBUG_VALUE: iminheight <- [DW_OP_plus_uconst 112, DW_OP_deref] $rsp
	#DEBUG_VALUE: offset_x <- 0
	#DEBUG_VALUE: offset_y <- 0
	#DEBUG_VALUE: buf2img_basic:j <- $rcx
	#DEBUG_VALUE: j_pos <- undef
	.loc	0 0 7                           # ldecod_src/input.c:0:7
	cmpl	$1, %esi
.Ltmp235:
	#DEBUG_VALUE: buf2img_basic:i <- 0
	.loc	0 447 9 is_stmt 1               # ldecod_src/input.c:447:9
	jne	.LBB3_33
.Ltmp236:
# %bb.32:                               #   in Loop: Header=BB3_31 Depth=1
	#DEBUG_VALUE: buf2img_basic:imgX <- [DW_OP_LLVM_entry_value 1] $rdi
	#DEBUG_VALUE: buf2img_basic:buf <- [DW_OP_plus_uconst 16] [$rsp+0]
	#DEBUG_VALUE: buf2img_basic:size_x <- [DW_OP_LLVM_entry_value 1] $edx
	#DEBUG_VALUE: buf2img_basic:size_y <- [DW_OP_LLVM_entry_value 1] $ecx
	#DEBUG_VALUE: buf2img_basic:o_size_x <- [DW_OP_LLVM_entry_value 1] $r8d
	#DEBUG_VALUE: buf2img_basic:o_size_y <- [DW_OP_LLVM_entry_value 1] $r9d
	#DEBUG_VALUE: buf2img_basic:symbol_size_in_bytes <- [DW_OP_plus_uconst 192] [$rsp+0]
	#DEBUG_VALUE: buf2img_basic:i <- 0
	#DEBUG_VALUE: iminwidth <- [DW_OP_plus_uconst 80, DW_OP_deref] $rsp
	#DEBUG_VALUE: iminheight <- [DW_OP_plus_uconst 112, DW_OP_deref] $rsp
	#DEBUG_VALUE: offset_x <- 0
	#DEBUG_VALUE: offset_y <- 0
	#DEBUG_VALUE: buf2img_basic:j <- $rcx
	.loc	0 0 9 is_stmt 0                 # ldecod_src/input.c:0:9
	xorl	%r12d, %r12d
	testb	$1, 104(%rsp)                   # 1-byte Folded Reload
	.loc	0 447 9                         # ldecod_src/input.c:447:9
	je	.LBB3_38
	jmp	.LBB3_37
.Ltmp237:
	.p2align	4, 0x90
.LBB3_33:                               # %for.body175.us.preheader
                                        #   in Loop: Header=BB3_31 Depth=1
	#DEBUG_VALUE: buf2img_basic:imgX <- [DW_OP_LLVM_entry_value 1] $rdi
	#DEBUG_VALUE: buf2img_basic:buf <- [DW_OP_plus_uconst 16] [$rsp+0]
	#DEBUG_VALUE: buf2img_basic:size_x <- [DW_OP_LLVM_entry_value 1] $edx
	#DEBUG_VALUE: buf2img_basic:size_y <- [DW_OP_LLVM_entry_value 1] $ecx
	#DEBUG_VALUE: buf2img_basic:o_size_x <- [DW_OP_LLVM_entry_value 1] $r8d
	#DEBUG_VALUE: buf2img_basic:o_size_y <- [DW_OP_LLVM_entry_value 1] $r9d
	#DEBUG_VALUE: buf2img_basic:symbol_size_in_bytes <- [DW_OP_plus_uconst 192] [$rsp+0]
	#DEBUG_VALUE: buf2img_basic:i <- 0
	#DEBUG_VALUE: iminwidth <- [DW_OP_plus_uconst 80, DW_OP_deref] $rsp
	#DEBUG_VALUE: iminheight <- [DW_OP_plus_uconst 112, DW_OP_deref] $rsp
	#DEBUG_VALUE: offset_x <- 0
	#DEBUG_VALUE: offset_y <- 0
	#DEBUG_VALUE: buf2img_basic:j <- $rcx
	.loc	0 0 9                           # ldecod_src/input.c:0:9
	movq	%rdx, 128(%rsp)                 # 8-byte Spill
	movq	%rdx, %rbx
	xorl	%r12d, %r12d
	movq	%rcx, 40(%rsp)                  # 8-byte Spill
.Ltmp238:
	#DEBUG_VALUE: buf2img_basic:j <- [DW_OP_plus_uconst 40, DW_OP_deref_size 8, DW_OP_stack_value] $rsp
	.p2align	4, 0x90
.LBB3_34:                               # %for.body175.us
                                        #   Parent Loop BB3_31 Depth=1
                                        # =>  This Inner Loop Header: Depth=2
	#DEBUG_VALUE: buf2img_basic:imgX <- [DW_OP_LLVM_entry_value 1] $rdi
	#DEBUG_VALUE: buf2img_basic:buf <- [DW_OP_plus_uconst 16] [$rsp+0]
	#DEBUG_VALUE: buf2img_basic:size_x <- [DW_OP_LLVM_entry_value 1] $edx
	#DEBUG_VALUE: buf2img_basic:size_y <- [DW_OP_LLVM_entry_value 1] $ecx
	#DEBUG_VALUE: buf2img_basic:o_size_x <- [DW_OP_LLVM_entry_value 1] $r8d
	#DEBUG_VALUE: buf2img_basic:o_size_y <- [DW_OP_LLVM_entry_value 1] $r9d
	#DEBUG_VALUE: buf2img_basic:symbol_size_in_bytes <- [DW_OP_plus_uconst 192] [$rsp+0]
	#DEBUG_VALUE: iminwidth <- [DW_OP_plus_uconst 80, DW_OP_deref] $rsp
	#DEBUG_VALUE: iminheight <- [DW_OP_plus_uconst 112, DW_OP_deref] $rsp
	#DEBUG_VALUE: offset_x <- 0
	#DEBUG_VALUE: offset_y <- 0
	#DEBUG_VALUE: buf2img_basic:j <- [DW_OP_plus_uconst 40, DW_OP_deref_size 8, DW_OP_stack_value] $rsp
	#DEBUG_VALUE: buf2img_basic:i <- [DW_OP_consts 18446744073709551614, DW_OP_div, DW_OP_consts 2, DW_OP_mul, DW_OP_stack_value] $r12
	movq	%r12, 48(%rsp)                  # 8-byte Spill
.Ltmp239:
	#DEBUG_VALUE: buf2img_basic:i <- [DW_OP_plus_uconst 48, DW_OP_deref_size 8, DW_OP_consts 18446744073709551614, DW_OP_div, DW_OP_consts 2, DW_OP_mul, DW_OP_stack_value] $rsp
	.loc	0 449 16 is_stmt 1              # ldecod_src/input.c:449:16
	movw	$0, 14(%rsp)
.Ltmp240:
	#DEBUG_VALUE: ui16 <- 0
	.loc	0 0 16 is_stmt 0                # ldecod_src/input.c:0:16
	leaq	14(%rsp), %rbp
	.loc	0 450 11 is_stmt 1              # ldecod_src/input.c:450:11
	movq	%rbp, %rdi
	movq	%rbx, %rsi
	movq	72(%rsp), %r13                  # 8-byte Reload
	movq	%r13, %rdx
	callq	memcpy@PLT
.Ltmp241:
	.loc	0 451 62                        # ldecod_src/input.c:451:62
	movzwl	14(%rsp), %eax
	movq	40(%rsp), %r15                  # 8-byte Reload
	movq	32(%rsp), %r12                  # 8-byte Reload
	.loc	0 451 11 is_stmt 0              # ldecod_src/input.c:451:11
	movq	(%r12,%r15,8), %rcx
	.loc	0 451 51                        # ldecod_src/input.c:451:51
	movw	%ax, (%rcx,%r14,2)
.Ltmp242:
	#DEBUG_VALUE: buf2img_basic:i <- [DW_OP_plus_uconst 48, DW_OP_deref_size 8, DW_OP_consts 18446744073709551614, DW_OP_div, DW_OP_consts 2, DW_OP_mul, DW_OP_consts 1, DW_OP_plus, DW_OP_stack_value] $rsp
	.loc	0 449 16 is_stmt 1              # ldecod_src/input.c:449:16
	movw	$0, 14(%rsp)
.Ltmp243:
	#DEBUG_VALUE: ui16 <- [DW_OP_plus_uconst 14, DW_OP_deref] $rsp
	.loc	0 0 16 is_stmt 0                # ldecod_src/input.c:0:16
	movq	24(%rsp), %rax                  # 8-byte Reload
	.loc	0 450 11 is_stmt 1              # ldecod_src/input.c:450:11
	leaq	(%rbx,%rax), %rsi
	movq	%rbp, %rdi
	movq	%r13, %rdx
	callq	memcpy@PLT
.Ltmp244:
	.loc	0 451 62                        # ldecod_src/input.c:451:62
	movzwl	14(%rsp), %eax
	.loc	0 451 11 is_stmt 0              # ldecod_src/input.c:451:11
	movq	(%r12,%r15,8), %rcx
	movq	48(%rsp), %r12                  # 8-byte Reload
	.loc	0 451 51                        # ldecod_src/input.c:451:51
	movw	%ax, 2(%rcx,%r14,2)
.Ltmp245:
	#DEBUG_VALUE: buf2img_basic:i <- [DW_OP_plus_uconst 48, DW_OP_deref_size 8, DW_OP_consts 18446744073709551614, DW_OP_div, DW_OP_consts 2, DW_OP_mul, DW_OP_consts 2, DW_OP_plus, DW_OP_stack_value] $rsp
	.loc	0 447 9 is_stmt 1               # ldecod_src/input.c:447:9
	addq	$-2, %r12
	addq	$2, %r14
	addq	64(%rsp), %rbx                  # 8-byte Folded Reload
	cmpq	%r12, 56(%rsp)                  # 8-byte Folded Reload
	jne	.LBB3_34
.Ltmp246:
# %bb.35:                               # %for.cond172.for.inc190_crit_edge.us.unr-lcssa.loopexit
                                        #   in Loop: Header=BB3_31 Depth=1
	#DEBUG_VALUE: buf2img_basic:imgX <- [DW_OP_LLVM_entry_value 1] $rdi
	#DEBUG_VALUE: buf2img_basic:buf <- [DW_OP_plus_uconst 16] [$rsp+0]
	#DEBUG_VALUE: buf2img_basic:size_x <- [DW_OP_LLVM_entry_value 1] $edx
	#DEBUG_VALUE: buf2img_basic:size_y <- [DW_OP_LLVM_entry_value 1] $ecx
	#DEBUG_VALUE: buf2img_basic:o_size_x <- [DW_OP_LLVM_entry_value 1] $r8d
	#DEBUG_VALUE: buf2img_basic:o_size_y <- [DW_OP_LLVM_entry_value 1] $r9d
	#DEBUG_VALUE: buf2img_basic:symbol_size_in_bytes <- [DW_OP_plus_uconst 192] [$rsp+0]
	#DEBUG_VALUE: ui16 <- [DW_OP_plus_uconst 14, DW_OP_deref] $rsp
	#DEBUG_VALUE: buf2img_basic:i <- [DW_OP_plus_uconst 48, DW_OP_deref_size 8, DW_OP_consts 18446744073709551614, DW_OP_div, DW_OP_consts 2, DW_OP_mul, DW_OP_consts 2, DW_OP_plus, DW_OP_stack_value] $rsp
	#DEBUG_VALUE: iminwidth <- [DW_OP_plus_uconst 80, DW_OP_deref] $rsp
	#DEBUG_VALUE: iminheight <- [DW_OP_plus_uconst 112, DW_OP_deref] $rsp
	#DEBUG_VALUE: offset_x <- 0
	#DEBUG_VALUE: offset_y <- 0
	#DEBUG_VALUE: buf2img_basic:j <- [DW_OP_plus_uconst 40, DW_OP_deref_size 8, DW_OP_stack_value] $rsp
	negq	%r12
	movl	80(%rsp), %esi                  # 4-byte Reload
	movq	120(%rsp), %r14                 # 8-byte Reload
	movq	112(%rsp), %rbp                 # 8-byte Reload
	movq	24(%rsp), %rax                  # 8-byte Reload
	leaq	14(%rsp), %rdi
	movq	40(%rsp), %rcx                  # 8-byte Reload
	movq	128(%rsp), %rdx                 # 8-byte Reload
	testb	$1, 104(%rsp)                   # 1-byte Folded Reload
	je	.LBB3_38
.Ltmp247:
.LBB3_37:                               # %for.body175.us.epil
                                        #   in Loop: Header=BB3_31 Depth=1
	#DEBUG_VALUE: buf2img_basic:imgX <- [DW_OP_LLVM_entry_value 1] $rdi
	#DEBUG_VALUE: buf2img_basic:buf <- [DW_OP_plus_uconst 16] [$rsp+0]
	#DEBUG_VALUE: buf2img_basic:size_x <- [DW_OP_LLVM_entry_value 1] $edx
	#DEBUG_VALUE: buf2img_basic:size_y <- [DW_OP_LLVM_entry_value 1] $ecx
	#DEBUG_VALUE: buf2img_basic:o_size_x <- [DW_OP_LLVM_entry_value 1] $r8d
	#DEBUG_VALUE: buf2img_basic:o_size_y <- [DW_OP_LLVM_entry_value 1] $r9d
	#DEBUG_VALUE: buf2img_basic:symbol_size_in_bytes <- [DW_OP_plus_uconst 192] [$rsp+0]
	#DEBUG_VALUE: iminwidth <- [DW_OP_plus_uconst 80, DW_OP_deref] $rsp
	#DEBUG_VALUE: iminheight <- [DW_OP_plus_uconst 112, DW_OP_deref] $rsp
	#DEBUG_VALUE: offset_x <- 0
	#DEBUG_VALUE: offset_y <- 0
	#DEBUG_VALUE: buf2img_basic:j <- $rcx
	.loc	0 0 9 is_stmt 0                 # ldecod_src/input.c:0:9
	movq	%rcx, %rsi
	imulq	88(%rsp), %rsi                  # 8-byte Folded Reload
.Ltmp248:
	#DEBUG_VALUE: j_pos <- $rsi
	#DEBUG_VALUE: buf2img_basic:i <- $r12
	.loc	0 449 16 is_stmt 1              # ldecod_src/input.c:449:16
	movw	$0, 14(%rsp)
.Ltmp249:
	#DEBUG_VALUE: ui16 <- 0
	.loc	0 450 37                        # ldecod_src/input.c:450:37
	addq	%r12, %rsi
.Ltmp250:
	.loc	0 450 46 is_stmt 0              # ldecod_src/input.c:450:46
	imulq	%rax, %rsi
	.loc	0 450 31                        # ldecod_src/input.c:450:31
	addq	16(%rsp), %rsi                  # 8-byte Folded Reload
	movq	%rdx, %r15
	movq	72(%rsp), %rdx                  # 8-byte Reload
	movq	%rax, %r13
	movq	%r14, %rbx
	movq	%rcx, %r14
.Ltmp251:
	#DEBUG_VALUE: buf2img_basic:j <- $r14
	.loc	0 450 11                        # ldecod_src/input.c:450:11
	callq	memcpy@PLT
.Ltmp252:
	.loc	0 0 11                          # ldecod_src/input.c:0:11
	movl	80(%rsp), %esi                  # 4-byte Reload
	movq	%r15, %rdx
	.loc	0 451 62 is_stmt 1              # ldecod_src/input.c:451:62
	movzwl	14(%rsp), %eax
	.loc	0 451 11 is_stmt 0              # ldecod_src/input.c:451:11
	addq	%r12, %r12
.Ltmp253:
	.loc	0 0 11                          # ldecod_src/input.c:0:11
	movq	32(%rsp), %rcx                  # 8-byte Reload
	.loc	0 451 11                        # ldecod_src/input.c:451:11
	addq	(%rcx,%r14,8), %r12
	movq	%r14, %rcx
	movq	%rbx, %r14
.Ltmp254:
	#DEBUG_VALUE: buf2img_basic:j <- $rcx
	.loc	0 451 51                        # ldecod_src/input.c:451:51
	movw	%ax, (%r12,%rbx,2)
.Ltmp255:
	#DEBUG_VALUE: buf2img_basic:i <- [DW_OP_plus_uconst 1, DW_OP_stack_value] undef
	.loc	0 0 51                          # ldecod_src/input.c:0:51
	movq	%r13, %rax
	leaq	14(%rsp), %rdi
	jmp	.LBB3_38
.Ltmp256:
.LBB3_39:                               # %if.end194
	#DEBUG_VALUE: buf2img_basic:imgX <- [DW_OP_LLVM_entry_value 1] $rdi
	#DEBUG_VALUE: buf2img_basic:buf <- [DW_OP_plus_uconst 16] [$rsp+0]
	#DEBUG_VALUE: buf2img_basic:size_x <- [DW_OP_LLVM_entry_value 1] $edx
	#DEBUG_VALUE: buf2img_basic:size_y <- [DW_OP_LLVM_entry_value 1] $ecx
	#DEBUG_VALUE: buf2img_basic:o_size_x <- [DW_OP_LLVM_entry_value 1] $r8d
	#DEBUG_VALUE: buf2img_basic:o_size_y <- [DW_OP_LLVM_entry_value 1] $r9d
	#DEBUG_VALUE: buf2img_basic:symbol_size_in_bytes <- [DW_OP_plus_uconst 192] [$rsp+0]
	.loc	0 456 1 epilogue_begin is_stmt 1 # ldecod_src/input.c:456:1
	addq	$136, %rsp
	.cfi_def_cfa_offset 56
	popq	%rbx
	.cfi_def_cfa_offset 48
	popq	%r12
	.cfi_def_cfa_offset 40
	popq	%r13
	.cfi_def_cfa_offset 32
	popq	%r14
	.cfi_def_cfa_offset 24
	popq	%r15
	.cfi_def_cfa_offset 16
	popq	%rbp
	.cfi_def_cfa_offset 8
	retq
.Ltmp257:
.Lfunc_end3:
	.size	buf2img_basic, .Lfunc_end3-buf2img_basic
	.cfi_endproc
                                        # -- End function
	.globl	buf2img_bitshift                # -- Begin function buf2img_bitshift
	.p2align	4, 0x90
	.type	buf2img_bitshift,@function
buf2img_bitshift:                       # @buf2img_bitshift
.Lfunc_begin4:
	.loc	0 234 0                         # ldecod_src/input.c:234:0
	.cfi_startproc
# %bb.0:                                # %entry
	#DEBUG_VALUE: buf2img_bitshift:imgX <- $rdi
	#DEBUG_VALUE: buf2img_bitshift:buf <- $rsi
	#DEBUG_VALUE: buf2img_bitshift:size_x <- $edx
	#DEBUG_VALUE: buf2img_bitshift:size_y <- $ecx
	#DEBUG_VALUE: buf2img_bitshift:o_size_x <- $r8d
	#DEBUG_VALUE: buf2img_bitshift:o_size_y <- $r9d
	pushq	%rbp
	.cfi_def_cfa_offset 16
	pushq	%r15
	.cfi_def_cfa_offset 24
	pushq	%r14
	.cfi_def_cfa_offset 32
	pushq	%r13
	.cfi_def_cfa_offset 40
	pushq	%r12
	.cfi_def_cfa_offset 48
	pushq	%rbx
	.cfi_def_cfa_offset 56
	subq	$136, %rsp
	.cfi_def_cfa_offset 192
	.cfi_offset %rbx, -56
	.cfi_offset %r12, -48
	.cfi_offset %r13, -40
	.cfi_offset %r14, -32
	.cfi_offset %r15, -24
	.cfi_offset %rbp, -16
.Ltmp258:
	#DEBUG_VALUE: buf2img_bitshift:symbol_size_in_bytes <- [DW_OP_plus_uconst 192] [$rsp+0]
	#DEBUG_VALUE: buf2img_bitshift:bitshift <- [DW_OP_plus_uconst 200] [$rsp+0]
	movl	%r9d, %r12d
	movl	%r8d, %ebp
	movl	%ecx, %r13d
	movq	%rsi, 32(%rsp)                  # 8-byte Spill
.Ltmp259:
	#DEBUG_VALUE: buf2img_bitshift:buf <- [DW_OP_plus_uconst 32] [$rsp+0]
	movq	%rdi, %r14
	movl	200(%rsp), %ecx
.Ltmp260:
	#DEBUG_VALUE: buf2img_bitshift:size_y <- $r13d
	movl	192(%rsp), %ebx
.Ltmp261:
	#DEBUG_VALUE: buf2img_bitshift:ui16 <- [DW_OP_plus_uconst 14, DW_OP_deref] $rsp
	.loc	0 240 30 prologue_end           # ldecod_src/input.c:240:30
	leal	(,%rbx,8), %eax
	.loc	0 240 36 is_stmt 0              # ldecod_src/input.c:240:36
	subl	%ecx, %eax
	.loc	0 240 48                        # ldecod_src/input.c:240:48
	cmpl	$17, %eax
.Ltmp262:
	.loc	0 240 7                         # ldecod_src/input.c:240:7
	jl	.LBB4_2
.Ltmp263:
# %bb.1:                                # %if.then
	#DEBUG_VALUE: buf2img_bitshift:imgX <- $r14
	#DEBUG_VALUE: buf2img_bitshift:buf <- [DW_OP_plus_uconst 32] [$rsp+0]
	#DEBUG_VALUE: buf2img_bitshift:size_x <- $edx
	#DEBUG_VALUE: buf2img_bitshift:size_y <- $r13d
	#DEBUG_VALUE: buf2img_bitshift:o_size_x <- $ebp
	#DEBUG_VALUE: buf2img_bitshift:o_size_y <- $r12d
	#DEBUG_VALUE: buf2img_bitshift:symbol_size_in_bytes <- [DW_OP_plus_uconst 192] [$rsp+0]
	#DEBUG_VALUE: buf2img_bitshift:bitshift <- [DW_OP_plus_uconst 200] [$rsp+0]
	#DEBUG_VALUE: buf2img_bitshift:ui16 <- [DW_OP_plus_uconst 14, DW_OP_deref] $rsp
	.loc	0 242 5 is_stmt 1               # ldecod_src/input.c:242:5
	movl	$.L.str, %edi
	movl	$500, %esi                      # imm = 0x1F4
	movl	%edx, %r15d
.Ltmp264:
	#DEBUG_VALUE: buf2img_bitshift:size_x <- $r15d
	callq	error@PLT
.Ltmp265:
	.loc	0 0 5 is_stmt 0                 # ldecod_src/input.c:0:5
	movl	%r15d, %edx
.Ltmp266:
.LBB4_2:                                # %if.end
	#DEBUG_VALUE: buf2img_bitshift:imgX <- $r14
	#DEBUG_VALUE: buf2img_bitshift:buf <- [DW_OP_plus_uconst 32] [$rsp+0]
	#DEBUG_VALUE: buf2img_bitshift:size_x <- [DW_OP_LLVM_entry_value 1] $edx
	#DEBUG_VALUE: buf2img_bitshift:size_y <- $r13d
	#DEBUG_VALUE: buf2img_bitshift:o_size_x <- $ebp
	#DEBUG_VALUE: buf2img_bitshift:o_size_y <- $r12d
	#DEBUG_VALUE: buf2img_bitshift:symbol_size_in_bytes <- [DW_OP_plus_uconst 192] [$rsp+0]
	#DEBUG_VALUE: buf2img_bitshift:bitshift <- [DW_OP_plus_uconst 200] [$rsp+0]
	#DEBUG_VALUE: buf2img_bitshift:ui16 <- [DW_OP_plus_uconst 14, DW_OP_deref] $rsp
	movq	%r14, 24(%rsp)                  # 8-byte Spill
.Ltmp267:
	#DEBUG_VALUE: buf2img_bitshift:imgX <- [DW_OP_plus_uconst 24] [$rsp+0]
	.loc	0 296 18 is_stmt 1              # ldecod_src/input.c:296:18
	movl	%ebp, %eax
	xorl	%edx, %eax
	movl	%r12d, %ecx
	xorl	%r13d, %ecx
	.loc	0 296 30 is_stmt 0              # ldecod_src/input.c:296:30
	orl	%eax, %ecx
	jne	.LBB4_18
.Ltmp268:
# %bb.3:                                # %for.cond91.preheader
	#DEBUG_VALUE: buf2img_bitshift:imgX <- [DW_OP_plus_uconst 24] [$rsp+0]
	#DEBUG_VALUE: buf2img_bitshift:buf <- [DW_OP_plus_uconst 32] [$rsp+0]
	#DEBUG_VALUE: buf2img_bitshift:size_x <- [DW_OP_LLVM_entry_value 1] $edx
	#DEBUG_VALUE: buf2img_bitshift:size_y <- $r13d
	#DEBUG_VALUE: buf2img_bitshift:o_size_x <- $ebp
	#DEBUG_VALUE: buf2img_bitshift:o_size_y <- $r12d
	#DEBUG_VALUE: buf2img_bitshift:symbol_size_in_bytes <- [DW_OP_plus_uconst 192] [$rsp+0]
	#DEBUG_VALUE: buf2img_bitshift:bitshift <- [DW_OP_plus_uconst 200] [$rsp+0]
	#DEBUG_VALUE: buf2img_bitshift:ui16 <- [DW_OP_plus_uconst 14, DW_OP_deref] $rsp
	#DEBUG_VALUE: buf2img_bitshift:j <- 0
	.loc	0 298 23 is_stmt 1              # ldecod_src/input.c:298:23
	testl	%r13d, %r13d
.Ltmp269:
	.loc	0 298 9 is_stmt 0               # ldecod_src/input.c:298:9
	jle	.LBB4_34
.Ltmp270:
# %bb.4:                                # %for.body94.lr.ph
	#DEBUG_VALUE: buf2img_bitshift:imgX <- [DW_OP_plus_uconst 24] [$rsp+0]
	#DEBUG_VALUE: buf2img_bitshift:buf <- [DW_OP_plus_uconst 32] [$rsp+0]
	#DEBUG_VALUE: buf2img_bitshift:size_x <- [DW_OP_LLVM_entry_value 1] $edx
	#DEBUG_VALUE: buf2img_bitshift:size_y <- $r13d
	#DEBUG_VALUE: buf2img_bitshift:o_size_x <- $ebp
	#DEBUG_VALUE: buf2img_bitshift:o_size_y <- $r12d
	#DEBUG_VALUE: buf2img_bitshift:symbol_size_in_bytes <- [DW_OP_plus_uconst 192] [$rsp+0]
	#DEBUG_VALUE: buf2img_bitshift:bitshift <- [DW_OP_plus_uconst 200] [$rsp+0]
	#DEBUG_VALUE: buf2img_bitshift:ui16 <- [DW_OP_plus_uconst 14, DW_OP_deref] $rsp
	#DEBUG_VALUE: buf2img_bitshift:j <- 0
	.loc	0 0 9                           # ldecod_src/input.c:0:9
	movl	200(%rsp), %eax
	leal	-1(%rax), %ecx
	movl	$1, %r12d
.Ltmp271:
	#DEBUG_VALUE: buf2img_bitshift:o_size_y <- [DW_OP_LLVM_entry_value 1] $r9d
                                        # kill: def $cl killed $cl killed $ecx
	shll	%cl, %r12d
	testl	%edx, %edx
	jle	.LBB4_34
.Ltmp272:
# %bb.5:                                # %for.body94.lr.ph.split.us
	#DEBUG_VALUE: buf2img_bitshift:imgX <- [DW_OP_plus_uconst 24] [$rsp+0]
	#DEBUG_VALUE: buf2img_bitshift:buf <- [DW_OP_plus_uconst 32] [$rsp+0]
	#DEBUG_VALUE: buf2img_bitshift:size_x <- [DW_OP_LLVM_entry_value 1] $edx
	#DEBUG_VALUE: buf2img_bitshift:size_y <- $r13d
	#DEBUG_VALUE: buf2img_bitshift:o_size_x <- $ebp
	#DEBUG_VALUE: buf2img_bitshift:o_size_y <- [DW_OP_LLVM_entry_value 1] $r9d
	#DEBUG_VALUE: buf2img_bitshift:symbol_size_in_bytes <- [DW_OP_plus_uconst 192] [$rsp+0]
	#DEBUG_VALUE: buf2img_bitshift:bitshift <- [DW_OP_plus_uconst 200] [$rsp+0]
	#DEBUG_VALUE: buf2img_bitshift:ui16 <- [DW_OP_plus_uconst 14, DW_OP_deref] $rsp
	#DEBUG_VALUE: buf2img_bitshift:j <- 0
	movslq	%ebx, %rdi
	.loc	0 298 9                         # ldecod_src/input.c:298:9
	movl	%edx, %ecx
.Ltmp273:
	.loc	0 298 23                        # ldecod_src/input.c:298:23
	movl	%r13d, %eax
	movq	%rax, 96(%rsp)                  # 8-byte Spill
	movl	200(%rsp), %r14d
	movq	%r14, %rax
	testl	%eax, %eax
	movq	%rcx, 56(%rsp)                  # 8-byte Spill
	movq	%rdi, 40(%rsp)                  # 8-byte Spill
	jle	.LBB4_10
.Ltmp274:
# %bb.6:                                # %for.body94.us.us.preheader
	#DEBUG_VALUE: buf2img_bitshift:imgX <- [DW_OP_plus_uconst 24] [$rsp+0]
	#DEBUG_VALUE: buf2img_bitshift:buf <- [DW_OP_plus_uconst 32] [$rsp+0]
	#DEBUG_VALUE: buf2img_bitshift:size_x <- [DW_OP_LLVM_entry_value 1] $edx
	#DEBUG_VALUE: buf2img_bitshift:size_y <- [DW_OP_plus_uconst 96] [$rsp+0]
	#DEBUG_VALUE: buf2img_bitshift:o_size_x <- $ebp
	#DEBUG_VALUE: buf2img_bitshift:o_size_y <- [DW_OP_LLVM_entry_value 1] $r9d
	#DEBUG_VALUE: buf2img_bitshift:symbol_size_in_bytes <- [DW_OP_plus_uconst 192] [$rsp+0]
	#DEBUG_VALUE: buf2img_bitshift:bitshift <- [DW_OP_plus_uconst 200] [$rsp+0]
	#DEBUG_VALUE: buf2img_bitshift:ui16 <- [DW_OP_plus_uconst 14, DW_OP_deref] $rsp
	#DEBUG_VALUE: buf2img_bitshift:j <- 0
	.loc	0 298 9                         # ldecod_src/input.c:298:9
	imulq	%rcx, %rdi
	movq	%rdi, 16(%rsp)                  # 8-byte Spill
	xorl	%r13d, %r13d
	leaq	14(%rsp), %r15
	movq	40(%rsp), %r14                  # 8-byte Reload
.Ltmp275:
	.p2align	4, 0x90
.LBB4_7:                                # %for.body94.us.us
                                        # =>This Loop Header: Depth=1
                                        #     Child Loop BB4_8 Depth 2
	#DEBUG_VALUE: buf2img_bitshift:imgX <- [DW_OP_plus_uconst 24] [$rsp+0]
	#DEBUG_VALUE: buf2img_bitshift:buf <- [DW_OP_LLVM_entry_value 1] $rsi
	#DEBUG_VALUE: buf2img_bitshift:size_x <- [DW_OP_LLVM_entry_value 1] $edx
	#DEBUG_VALUE: buf2img_bitshift:size_y <- [DW_OP_plus_uconst 96] [$rsp+0]
	#DEBUG_VALUE: buf2img_bitshift:o_size_x <- [DW_OP_LLVM_entry_value 1] $r8d
	#DEBUG_VALUE: buf2img_bitshift:o_size_y <- [DW_OP_LLVM_entry_value 1] $r9d
	#DEBUG_VALUE: buf2img_bitshift:symbol_size_in_bytes <- [DW_OP_plus_uconst 192] [$rsp+0]
	#DEBUG_VALUE: buf2img_bitshift:bitshift <- [DW_OP_plus_uconst 200] [$rsp+0]
	#DEBUG_VALUE: buf2img_bitshift:ui16 <- [DW_OP_plus_uconst 14, DW_OP_deref] $rsp
	#DEBUG_VALUE: buf2img_bitshift:j <- $r13
	#DEBUG_VALUE: j_pos <- [DW_OP_LLVM_arg 0, DW_OP_LLVM_arg 1, DW_OP_mul, DW_OP_stack_value] undef, undef
	#DEBUG_VALUE: buf2img_bitshift:i <- 0
	.loc	0 0 9                           # ldecod_src/input.c:0:9
	movq	32(%rsp), %rbp                  # 8-byte Reload
	xorl	%ebx, %ebx
.Ltmp276:
	.p2align	4, 0x90
.LBB4_8:                                # %for.body99.us.us.us
                                        #   Parent Loop BB4_7 Depth=1
                                        # =>  This Inner Loop Header: Depth=2
	#DEBUG_VALUE: buf2img_bitshift:imgX <- [DW_OP_plus_uconst 24] [$rsp+0]
	#DEBUG_VALUE: buf2img_bitshift:buf <- [DW_OP_LLVM_entry_value 1] $rsi
	#DEBUG_VALUE: buf2img_bitshift:size_x <- [DW_OP_LLVM_entry_value 1] $edx
	#DEBUG_VALUE: buf2img_bitshift:size_y <- [DW_OP_plus_uconst 96] [$rsp+0]
	#DEBUG_VALUE: buf2img_bitshift:o_size_x <- [DW_OP_LLVM_entry_value 1] $r8d
	#DEBUG_VALUE: buf2img_bitshift:o_size_y <- [DW_OP_LLVM_entry_value 1] $r9d
	#DEBUG_VALUE: buf2img_bitshift:symbol_size_in_bytes <- [DW_OP_plus_uconst 192] [$rsp+0]
	#DEBUG_VALUE: buf2img_bitshift:bitshift <- [DW_OP_plus_uconst 200] [$rsp+0]
	#DEBUG_VALUE: buf2img_bitshift:ui16 <- [DW_OP_plus_uconst 14, DW_OP_deref] $rsp
	#DEBUG_VALUE: buf2img_bitshift:j <- $r13
	#DEBUG_VALUE: buf2img_bitshift:i <- $rbx
	.loc	0 303 17 is_stmt 1              # ldecod_src/input.c:303:17
	movw	$0, 14(%rsp)
	#DEBUG_VALUE: buf2img_bitshift:ui16 <- [DW_OP_plus_uconst 14, DW_OP_deref] $rsp
	.loc	0 304 13                        # ldecod_src/input.c:304:13
	movq	%r15, %rdi
	movq	%rbp, %rsi
	movq	%r14, %rdx
	callq	memcpy@PLT
.Ltmp277:
	.loc	0 305 46                        # ldecod_src/input.c:305:46
	movzwl	14(%rsp), %eax
.Ltmp278:
	#DEBUG_VALUE: rshift_rnd:a <- undef
	#DEBUG_VALUE: rshift_rnd:x <- $eax
	.loc	6 162 24                        # ldecod_src/inc/ifunctions.h:162:24
	addl	%r12d, %eax
.Ltmp279:
	.loc	6 162 41 is_stmt 0              # ldecod_src/inc/ifunctions.h:162:41
	movl	200(%rsp), %ecx
                                        # kill: def $cl killed $cl killed $rcx
	sarl	%cl, %eax
	movq	24(%rsp), %rcx                  # 8-byte Reload
.Ltmp280:
	.loc	0 305 13 is_stmt 1              # ldecod_src/input.c:305:13
	movq	(%rcx,%r13,8), %rcx
	.loc	0 305 24 is_stmt 0              # ldecod_src/input.c:305:24
	movw	%ax, (%rcx,%rbx,2)
.Ltmp281:
	.loc	0 301 38 is_stmt 1              # ldecod_src/input.c:301:38
	incq	%rbx
.Ltmp282:
	#DEBUG_VALUE: buf2img_bitshift:i <- $rbx
	.loc	0 301 25 is_stmt 0              # ldecod_src/input.c:301:25
	addq	%r14, %rbp
	cmpq	%rbx, 56(%rsp)                  # 8-byte Folded Reload
.Ltmp283:
	.loc	0 301 11                        # ldecod_src/input.c:301:11
	jne	.LBB4_8
.Ltmp284:
# %bb.9:                                # %for.cond96.for.inc115_crit_edge.split.us.us.us
                                        #   in Loop: Header=BB4_7 Depth=1
	#DEBUG_VALUE: buf2img_bitshift:imgX <- [DW_OP_plus_uconst 24] [$rsp+0]
	#DEBUG_VALUE: buf2img_bitshift:buf <- [DW_OP_LLVM_entry_value 1] $rsi
	#DEBUG_VALUE: buf2img_bitshift:size_x <- [DW_OP_LLVM_entry_value 1] $edx
	#DEBUG_VALUE: buf2img_bitshift:size_y <- [DW_OP_plus_uconst 96] [$rsp+0]
	#DEBUG_VALUE: buf2img_bitshift:o_size_x <- [DW_OP_LLVM_entry_value 1] $r8d
	#DEBUG_VALUE: buf2img_bitshift:o_size_y <- [DW_OP_LLVM_entry_value 1] $r9d
	#DEBUG_VALUE: buf2img_bitshift:symbol_size_in_bytes <- [DW_OP_plus_uconst 192] [$rsp+0]
	#DEBUG_VALUE: buf2img_bitshift:bitshift <- [DW_OP_plus_uconst 200] [$rsp+0]
	#DEBUG_VALUE: buf2img_bitshift:ui16 <- [DW_OP_plus_uconst 14, DW_OP_deref] $rsp
	#DEBUG_VALUE: buf2img_bitshift:j <- $r13
	#DEBUG_VALUE: buf2img_bitshift:i <- $rbx
	.loc	0 298 36 is_stmt 1              # ldecod_src/input.c:298:36
	incq	%r13
.Ltmp285:
	#DEBUG_VALUE: buf2img_bitshift:j <- $r13
	.loc	0 0 36 is_stmt 0                # ldecod_src/input.c:0:36
	movq	16(%rsp), %rax                  # 8-byte Reload
.Ltmp286:
	.loc	0 298 9                         # ldecod_src/input.c:298:9
	addq	%rax, 32(%rsp)                  # 8-byte Folded Spill
.Ltmp287:
	.loc	0 298 23                        # ldecod_src/input.c:298:23
	cmpq	96(%rsp), %r13                  # 8-byte Folded Reload
.Ltmp288:
	.loc	0 298 9                         # ldecod_src/input.c:298:9
	jne	.LBB4_7
	jmp	.LBB4_34
.Ltmp289:
.LBB4_18:                               # %if.else118
	#DEBUG_VALUE: buf2img_bitshift:imgX <- [DW_OP_plus_uconst 24] [$rsp+0]
	#DEBUG_VALUE: buf2img_bitshift:buf <- [DW_OP_plus_uconst 32] [$rsp+0]
	#DEBUG_VALUE: buf2img_bitshift:size_x <- [DW_OP_LLVM_entry_value 1] $edx
	#DEBUG_VALUE: buf2img_bitshift:size_y <- $r13d
	#DEBUG_VALUE: buf2img_bitshift:o_size_x <- $ebp
	#DEBUG_VALUE: buf2img_bitshift:o_size_y <- $r12d
	#DEBUG_VALUE: buf2img_bitshift:symbol_size_in_bytes <- [DW_OP_plus_uconst 192] [$rsp+0]
	#DEBUG_VALUE: buf2img_bitshift:bitshift <- [DW_OP_plus_uconst 200] [$rsp+0]
	#DEBUG_VALUE: buf2img_bitshift:ui16 <- [DW_OP_plus_uconst 14, DW_OP_deref] $rsp
	#DEBUG_VALUE: imin:a <- undef
	#DEBUG_VALUE: imin:b <- $ebp
	.loc	6 44 10 is_stmt 1               # ldecod_src/inc/ifunctions.h:44:10
	movl	%edx, %r8d
	subl	%ebp, %r8d
	movl	%ebp, %ecx
	cmovll	%edx, %ecx
.Ltmp290:
	#DEBUG_VALUE: iminwidth <- $ecx
	negl	%r8d
.Ltmp291:
	#DEBUG_VALUE: imin:a <- $r13d
	#DEBUG_VALUE: imin:b <- $r12d
	.loc	6 44 10 is_stmt 0               # ldecod_src/inc/ifunctions.h:44:10
	movl	%r13d, %eax
	subl	%r12d, %eax
	movl	%r12d, %edi
	cmovll	%r13d, %edi
.Ltmp292:
	#DEBUG_VALUE: iminheight <- $edi
	negl	%eax
.Ltmp293:
	.loc	0 317 14 is_stmt 1              # ldecod_src/input.c:317:14
	sarl	%r8d
	xorl	%esi, %esi
.Ltmp294:
	#DEBUG_VALUE: dst_offset_x <- 0
	#DEBUG_VALUE: dst_offset_y <- 0
	#DEBUG_VALUE: offset_x <- 0
	#DEBUG_VALUE: offset_y <- 0
	.loc	0 317 23 is_stmt 0              # ldecod_src/input.c:317:23
	cmpl	%edx, %ebp
.Ltmp295:
	.loc	0 317 14                        # ldecod_src/input.c:317:14
	cmovll	%esi, %r8d
.Ltmp296:
	#DEBUG_VALUE: dst_offset_x <- $r8d
	.loc	0 320 13 is_stmt 1              # ldecod_src/input.c:320:13
	sarl	%eax
.Ltmp297:
	.loc	0 320 22 is_stmt 0              # ldecod_src/input.c:320:22
	cmpl	%r13d, %r12d
.Ltmp298:
	.loc	0 320 13                        # ldecod_src/input.c:320:13
	cmovll	%esi, %eax
.Ltmp299:
	#DEBUG_VALUE: dst_offset_y <- $eax
	.loc	0 328 39 is_stmt 1              # ldecod_src/input.c:328:39
	leal	(%r8,%rcx), %esi
	.loc	0 328 23 is_stmt 0              # ldecod_src/input.c:328:23
	movl	%ebp, %r9d
	subl	%r8d, %r9d
	.loc	0 328 53                        # ldecod_src/input.c:328:53
	cmpl	%ebp, %esi
	.loc	0 328 23                        # ldecod_src/input.c:328:23
	cmovlel	%ecx, %r9d
.Ltmp300:
	#DEBUG_VALUE: iminwidth <- $r9d
	.loc	0 329 39 is_stmt 1              # ldecod_src/input.c:329:39
	leal	(%rax,%rdi), %ecx
	.loc	0 329 23 is_stmt 0              # ldecod_src/input.c:329:23
	movl	%r12d, %esi
	subl	%eax, %esi
	.loc	0 329 53                        # ldecod_src/input.c:329:53
	cmpl	%r12d, %ecx
	.loc	0 329 23                        # ldecod_src/input.c:329:23
	cmovlel	%edi, %esi
.Ltmp301:
	#DEBUG_VALUE: iminheight <- $esi
	#DEBUG_VALUE: buf2img_bitshift:j <- 0
	.loc	0 331 21 is_stmt 1              # ldecod_src/input.c:331:21
	testl	%esi, %esi
.Ltmp302:
	.loc	0 331 9 is_stmt 0               # ldecod_src/input.c:331:9
	jle	.LBB4_34
.Ltmp303:
# %bb.19:                               # %for.body164.lr.ph
	#DEBUG_VALUE: buf2img_bitshift:imgX <- [DW_OP_plus_uconst 24] [$rsp+0]
	#DEBUG_VALUE: buf2img_bitshift:buf <- [DW_OP_plus_uconst 32] [$rsp+0]
	#DEBUG_VALUE: buf2img_bitshift:size_x <- [DW_OP_LLVM_entry_value 1] $edx
	#DEBUG_VALUE: buf2img_bitshift:size_y <- $r13d
	#DEBUG_VALUE: buf2img_bitshift:o_size_x <- $ebp
	#DEBUG_VALUE: buf2img_bitshift:o_size_y <- $r12d
	#DEBUG_VALUE: buf2img_bitshift:symbol_size_in_bytes <- [DW_OP_plus_uconst 192] [$rsp+0]
	#DEBUG_VALUE: buf2img_bitshift:bitshift <- [DW_OP_plus_uconst 200] [$rsp+0]
	#DEBUG_VALUE: buf2img_bitshift:ui16 <- [DW_OP_plus_uconst 14, DW_OP_deref] $rsp
	#DEBUG_VALUE: imin:b <- $ebp
	#DEBUG_VALUE: iminwidth <- $r9d
	#DEBUG_VALUE: imin:a <- $r13d
	#DEBUG_VALUE: imin:b <- $r12d
	#DEBUG_VALUE: iminheight <- $esi
	#DEBUG_VALUE: dst_offset_x <- $r8d
	#DEBUG_VALUE: dst_offset_y <- $eax
	#DEBUG_VALUE: offset_x <- 0
	#DEBUG_VALUE: offset_y <- 0
	#DEBUG_VALUE: buf2img_bitshift:j <- 0
	.loc	0 0 9                           # ldecod_src/input.c:0:9
	movl	200(%rsp), %ecx
	decl	%ecx
	movl	$1, %r11d
                                        # kill: def $cl killed $cl killed $ecx
	shll	%cl, %r11d
	testl	%r9d, %r9d
	jle	.LBB4_34
.Ltmp304:
# %bb.20:                               # %for.body164.lr.ph.split.us
	#DEBUG_VALUE: buf2img_bitshift:imgX <- [DW_OP_plus_uconst 24] [$rsp+0]
	#DEBUG_VALUE: buf2img_bitshift:buf <- [DW_OP_plus_uconst 32] [$rsp+0]
	#DEBUG_VALUE: buf2img_bitshift:size_x <- [DW_OP_LLVM_entry_value 1] $edx
	#DEBUG_VALUE: buf2img_bitshift:size_y <- $r13d
	#DEBUG_VALUE: buf2img_bitshift:o_size_x <- $ebp
	#DEBUG_VALUE: buf2img_bitshift:o_size_y <- $r12d
	#DEBUG_VALUE: buf2img_bitshift:symbol_size_in_bytes <- [DW_OP_plus_uconst 192] [$rsp+0]
	#DEBUG_VALUE: buf2img_bitshift:bitshift <- [DW_OP_plus_uconst 200] [$rsp+0]
	#DEBUG_VALUE: buf2img_bitshift:ui16 <- [DW_OP_plus_uconst 14, DW_OP_deref] $rsp
	#DEBUG_VALUE: iminwidth <- $r9d
	#DEBUG_VALUE: iminheight <- $esi
	#DEBUG_VALUE: dst_offset_x <- $r8d
	#DEBUG_VALUE: dst_offset_y <- $eax
	#DEBUG_VALUE: offset_x <- 0
	#DEBUG_VALUE: offset_y <- 0
	#DEBUG_VALUE: buf2img_bitshift:j <- 0
	movslq	%ebx, %rbx
	.loc	0 331 9                         # ldecod_src/input.c:331:9
	movslq	%r8d, %rbp
.Ltmp305:
	#DEBUG_VALUE: buf2img_bitshift:o_size_x <- [DW_OP_LLVM_entry_value 1] $r8d
	movl	%r9d, %r8d
.Ltmp306:
	movslq	%edx, %r13
.Ltmp307:
	#DEBUG_VALUE: buf2img_bitshift:size_y <- [DW_OP_LLVM_entry_value 1] $ecx
	.loc	0 0 9                           # ldecod_src/input.c:0:9
	movl	200(%rsp), %ecx
	testl	%ecx, %ecx
	movq	%r8, 40(%rsp)                   # 8-byte Spill
	movq	%rbx, 56(%rsp)                  # 8-byte Spill
	jle	.LBB4_21
.Ltmp308:
# %bb.24:                               # %for.body164.us.us.preheader
	#DEBUG_VALUE: buf2img_bitshift:imgX <- [DW_OP_plus_uconst 24] [$rsp+0]
	#DEBUG_VALUE: buf2img_bitshift:buf <- [DW_OP_plus_uconst 32] [$rsp+0]
	#DEBUG_VALUE: buf2img_bitshift:size_x <- [DW_OP_LLVM_entry_value 1] $edx
	#DEBUG_VALUE: buf2img_bitshift:size_y <- [DW_OP_LLVM_entry_value 1] $ecx
	#DEBUG_VALUE: buf2img_bitshift:o_size_x <- [DW_OP_LLVM_entry_value 1] $r8d
	#DEBUG_VALUE: buf2img_bitshift:o_size_y <- $r12d
	#DEBUG_VALUE: buf2img_bitshift:symbol_size_in_bytes <- [DW_OP_plus_uconst 192] [$rsp+0]
	#DEBUG_VALUE: buf2img_bitshift:bitshift <- [DW_OP_plus_uconst 200] [$rsp+0]
	#DEBUG_VALUE: buf2img_bitshift:ui16 <- [DW_OP_plus_uconst 14, DW_OP_deref] $rsp
	#DEBUG_VALUE: iminwidth <- [DW_OP_plus_uconst 40, DW_OP_deref] $rsp
	#DEBUG_VALUE: iminheight <- $esi
	#DEBUG_VALUE: dst_offset_y <- $eax
	#DEBUG_VALUE: offset_x <- 0
	#DEBUG_VALUE: offset_y <- 0
	#DEBUG_VALUE: buf2img_bitshift:j <- 0
	.loc	0 331 9                         # ldecod_src/input.c:331:9
	cltq
.Ltmp309:
	movl	%esi, %ecx
	movq	%rcx, 48(%rsp)                  # 8-byte Spill
	movq	24(%rsp), %rcx                  # 8-byte Reload
	leaq	(%rcx,%rax,8), %r12
.Ltmp310:
	#DEBUG_VALUE: buf2img_bitshift:o_size_y <- [DW_OP_LLVM_entry_value 1] $r9d
	addq	%rbp, %rbp
	imulq	%rbx, %r13
	xorl	%r14d, %r14d
	leaq	14(%rsp), %rdi
	movq	%r13, 64(%rsp)                  # 8-byte Spill
	movl	%r11d, 16(%rsp)                 # 4-byte Spill
	movq	56(%rsp), %rbx                  # 8-byte Reload
.Ltmp311:
	.p2align	4, 0x90
.LBB4_25:                               # %for.body164.us.us
                                        # =>This Loop Header: Depth=1
                                        #     Child Loop BB4_26 Depth 2
	#DEBUG_VALUE: buf2img_bitshift:imgX <- [DW_OP_plus_uconst 24] [$rsp+0]
	#DEBUG_VALUE: buf2img_bitshift:buf <- [DW_OP_LLVM_entry_value 1] $rsi
	#DEBUG_VALUE: buf2img_bitshift:size_x <- [DW_OP_LLVM_entry_value 1] $edx
	#DEBUG_VALUE: buf2img_bitshift:size_y <- [DW_OP_LLVM_entry_value 1] $ecx
	#DEBUG_VALUE: buf2img_bitshift:o_size_x <- [DW_OP_LLVM_entry_value 1] $r8d
	#DEBUG_VALUE: buf2img_bitshift:o_size_y <- [DW_OP_LLVM_entry_value 1] $r9d
	#DEBUG_VALUE: buf2img_bitshift:symbol_size_in_bytes <- [DW_OP_plus_uconst 192] [$rsp+0]
	#DEBUG_VALUE: buf2img_bitshift:bitshift <- [DW_OP_plus_uconst 200] [$rsp+0]
	#DEBUG_VALUE: buf2img_bitshift:ui16 <- [DW_OP_plus_uconst 14, DW_OP_deref] $rsp
	#DEBUG_VALUE: iminwidth <- [DW_OP_plus_uconst 40, DW_OP_deref] $rsp
	#DEBUG_VALUE: iminheight <- [DW_OP_plus_uconst 48, DW_OP_deref] $rsp
	#DEBUG_VALUE: offset_x <- 0
	#DEBUG_VALUE: offset_y <- 0
	#DEBUG_VALUE: buf2img_bitshift:j <- $r14
	#DEBUG_VALUE: j_pos <- [DW_OP_LLVM_arg 0, DW_OP_LLVM_arg 1, DW_OP_mul, DW_OP_stack_value] undef, undef
	#DEBUG_VALUE: buf2img_bitshift:i <- 0
	.loc	0 0 9                           # ldecod_src/input.c:0:9
	movq	32(%rsp), %r13                  # 8-byte Reload
	xorl	%r15d, %r15d
.Ltmp312:
	.p2align	4, 0x90
.LBB4_26:                               # %for.body171.us.us.us
                                        #   Parent Loop BB4_25 Depth=1
                                        # =>  This Inner Loop Header: Depth=2
	#DEBUG_VALUE: buf2img_bitshift:imgX <- [DW_OP_plus_uconst 24] [$rsp+0]
	#DEBUG_VALUE: buf2img_bitshift:buf <- [DW_OP_LLVM_entry_value 1] $rsi
	#DEBUG_VALUE: buf2img_bitshift:size_x <- [DW_OP_LLVM_entry_value 1] $edx
	#DEBUG_VALUE: buf2img_bitshift:size_y <- [DW_OP_LLVM_entry_value 1] $ecx
	#DEBUG_VALUE: buf2img_bitshift:o_size_x <- [DW_OP_LLVM_entry_value 1] $r8d
	#DEBUG_VALUE: buf2img_bitshift:o_size_y <- [DW_OP_LLVM_entry_value 1] $r9d
	#DEBUG_VALUE: buf2img_bitshift:symbol_size_in_bytes <- [DW_OP_plus_uconst 192] [$rsp+0]
	#DEBUG_VALUE: buf2img_bitshift:bitshift <- [DW_OP_plus_uconst 200] [$rsp+0]
	#DEBUG_VALUE: buf2img_bitshift:ui16 <- [DW_OP_plus_uconst 14, DW_OP_deref] $rsp
	#DEBUG_VALUE: iminwidth <- [DW_OP_plus_uconst 40, DW_OP_deref] $rsp
	#DEBUG_VALUE: iminheight <- [DW_OP_plus_uconst 48, DW_OP_deref] $rsp
	#DEBUG_VALUE: offset_x <- 0
	#DEBUG_VALUE: offset_y <- 0
	#DEBUG_VALUE: buf2img_bitshift:j <- $r14
	#DEBUG_VALUE: buf2img_bitshift:i <- $r15
	.loc	0 336 17 is_stmt 1              # ldecod_src/input.c:336:17
	movw	$0, 14(%rsp)
	#DEBUG_VALUE: buf2img_bitshift:ui16 <- [DW_OP_plus_uconst 14, DW_OP_deref] $rsp
	.loc	0 337 13                        # ldecod_src/input.c:337:13
	movq	%r13, %rsi
	movq	%rbx, %rdx
	callq	memcpy@PLT
.Ltmp313:
	.loc	0 0 13 is_stmt 0                # ldecod_src/input.c:0:13
	movl	16(%rsp), %r11d                 # 4-byte Reload
	.loc	0 338 76 is_stmt 1              # ldecod_src/input.c:338:76
	movzwl	14(%rsp), %eax
.Ltmp314:
	#DEBUG_VALUE: rshift_rnd:a <- undef
	#DEBUG_VALUE: rshift_rnd:x <- $eax
	.loc	6 162 24                        # ldecod_src/inc/ifunctions.h:162:24
	addl	%r11d, %eax
.Ltmp315:
	.loc	6 162 41 is_stmt 0              # ldecod_src/inc/ifunctions.h:162:41
	movl	200(%rsp), %ecx
                                        # kill: def $cl killed $cl killed $rcx
	sarl	%cl, %eax
	movq	(%r12,%r14,8), %rcx
.Ltmp316:
	.loc	0 338 54 is_stmt 1              # ldecod_src/input.c:338:54
	addq	%rbp, %rcx
	movw	%ax, (%rcx,%r15,2)
	leaq	14(%rsp), %rdi
.Ltmp317:
	.loc	0 334 37                        # ldecod_src/input.c:334:37
	incq	%r15
.Ltmp318:
	#DEBUG_VALUE: buf2img_bitshift:i <- $r15
	.loc	0 334 23 is_stmt 0              # ldecod_src/input.c:334:23
	addq	%rbx, %r13
	cmpq	40(%rsp), %r15                  # 8-byte Folded Reload
.Ltmp319:
	.loc	0 334 11                        # ldecod_src/input.c:334:11
	jb	.LBB4_26
.Ltmp320:
# %bb.27:                               # %for.cond168.for.inc189_crit_edge.split.us.us.us
                                        #   in Loop: Header=BB4_25 Depth=1
	#DEBUG_VALUE: buf2img_bitshift:imgX <- [DW_OP_plus_uconst 24] [$rsp+0]
	#DEBUG_VALUE: buf2img_bitshift:buf <- [DW_OP_LLVM_entry_value 1] $rsi
	#DEBUG_VALUE: buf2img_bitshift:size_x <- [DW_OP_LLVM_entry_value 1] $edx
	#DEBUG_VALUE: buf2img_bitshift:size_y <- [DW_OP_LLVM_entry_value 1] $ecx
	#DEBUG_VALUE: buf2img_bitshift:o_size_x <- [DW_OP_LLVM_entry_value 1] $r8d
	#DEBUG_VALUE: buf2img_bitshift:o_size_y <- [DW_OP_LLVM_entry_value 1] $r9d
	#DEBUG_VALUE: buf2img_bitshift:symbol_size_in_bytes <- [DW_OP_plus_uconst 192] [$rsp+0]
	#DEBUG_VALUE: buf2img_bitshift:bitshift <- [DW_OP_plus_uconst 200] [$rsp+0]
	#DEBUG_VALUE: buf2img_bitshift:ui16 <- [DW_OP_plus_uconst 14, DW_OP_deref] $rsp
	#DEBUG_VALUE: iminwidth <- [DW_OP_plus_uconst 40, DW_OP_deref] $rsp
	#DEBUG_VALUE: iminheight <- [DW_OP_plus_uconst 48, DW_OP_deref] $rsp
	#DEBUG_VALUE: offset_x <- 0
	#DEBUG_VALUE: offset_y <- 0
	#DEBUG_VALUE: buf2img_bitshift:j <- $r14
	#DEBUG_VALUE: buf2img_bitshift:i <- $r15
	.loc	0 331 36 is_stmt 1              # ldecod_src/input.c:331:36
	incq	%r14
.Ltmp321:
	#DEBUG_VALUE: buf2img_bitshift:j <- $r14
	.loc	0 0 36 is_stmt 0                # ldecod_src/input.c:0:36
	movq	64(%rsp), %r13                  # 8-byte Reload
.Ltmp322:
	.loc	0 331 9                         # ldecod_src/input.c:331:9
	addq	%r13, 32(%rsp)                  # 8-byte Folded Spill
.Ltmp323:
	.loc	0 331 21                        # ldecod_src/input.c:331:21
	cmpq	48(%rsp), %r14                  # 8-byte Folded Reload
.Ltmp324:
	.loc	0 331 9                         # ldecod_src/input.c:331:9
	jb	.LBB4_25
.Ltmp325:
.LBB4_34:                               # %if.end193
	#DEBUG_VALUE: buf2img_bitshift:imgX <- [DW_OP_LLVM_entry_value 1] $rdi
	#DEBUG_VALUE: buf2img_bitshift:buf <- [DW_OP_LLVM_entry_value 1] $rsi
	#DEBUG_VALUE: buf2img_bitshift:size_x <- [DW_OP_LLVM_entry_value 1] $edx
	#DEBUG_VALUE: buf2img_bitshift:size_y <- [DW_OP_LLVM_entry_value 1] $ecx
	#DEBUG_VALUE: buf2img_bitshift:o_size_x <- [DW_OP_LLVM_entry_value 1] $r8d
	#DEBUG_VALUE: buf2img_bitshift:o_size_y <- [DW_OP_LLVM_entry_value 1] $r9d
	#DEBUG_VALUE: buf2img_bitshift:symbol_size_in_bytes <- [DW_OP_plus_uconst 192] [$rsp+0]
	#DEBUG_VALUE: buf2img_bitshift:bitshift <- [DW_OP_plus_uconst 200] [$rsp+0]
	.loc	0 343 1 epilogue_begin is_stmt 1 # ldecod_src/input.c:343:1
	addq	$136, %rsp
	.cfi_def_cfa_offset 56
	popq	%rbx
	.cfi_def_cfa_offset 48
	popq	%r12
	.cfi_def_cfa_offset 40
	popq	%r13
	.cfi_def_cfa_offset 32
	popq	%r14
	.cfi_def_cfa_offset 24
	popq	%r15
	.cfi_def_cfa_offset 16
	popq	%rbp
	.cfi_def_cfa_offset 8
	retq
.Ltmp326:
.LBB4_10:                               # %for.body94.us.preheader
	.cfi_def_cfa_offset 192
	#DEBUG_VALUE: buf2img_bitshift:imgX <- [DW_OP_plus_uconst 24] [$rsp+0]
	#DEBUG_VALUE: buf2img_bitshift:buf <- [DW_OP_plus_uconst 32] [$rsp+0]
	#DEBUG_VALUE: buf2img_bitshift:size_x <- [DW_OP_LLVM_entry_value 1] $edx
	#DEBUG_VALUE: buf2img_bitshift:size_y <- [DW_OP_plus_uconst 96] [$rsp+0]
	#DEBUG_VALUE: buf2img_bitshift:o_size_x <- $ebp
	#DEBUG_VALUE: buf2img_bitshift:o_size_y <- [DW_OP_LLVM_entry_value 1] $r9d
	#DEBUG_VALUE: buf2img_bitshift:symbol_size_in_bytes <- [DW_OP_plus_uconst 192] [$rsp+0]
	#DEBUG_VALUE: buf2img_bitshift:bitshift <- [DW_OP_plus_uconst 200] [$rsp+0]
	#DEBUG_VALUE: buf2img_bitshift:ui16 <- [DW_OP_plus_uconst 14, DW_OP_deref] $rsp
	#DEBUG_VALUE: buf2img_bitshift:j <- 0
	.loc	0 0 1 is_stmt 0                 # ldecod_src/input.c:0:1
	negl	%eax
	movq	%rax, 16(%rsp)                  # 8-byte Spill
	movl	%ecx, %eax
	andl	$2147483646, %eax               # imm = 0x7FFFFFFE
	movq	%rax, 104(%rsp)                 # 8-byte Spill
.Ltmp327:
	.loc	0 298 9 is_stmt 1               # ldecod_src/input.c:298:9
	movq	%rdi, %rax
	imulq	%rcx, %rax
	movq	%rax, 80(%rsp)                  # 8-byte Spill
	leaq	(%rdi,%rdi), %rax
	movq	%rax, 112(%rsp)                 # 8-byte Spill
	xorl	%ebx, %ebx
	movq	32(%rsp), %rbp                  # 8-byte Reload
.Ltmp328:
	.loc	0 0 9 is_stmt 0                 # ldecod_src/input.c:0:9
	movl	%edx, 88(%rsp)                  # 4-byte Spill
	movq	24(%rsp), %r13                  # 8-byte Reload
	jmp	.LBB4_11
.Ltmp329:
	.p2align	4, 0x90
.LBB4_17:                               # %for.cond96.for.inc115_crit_edge.split.us361
                                        #   in Loop: Header=BB4_11 Depth=1
	#DEBUG_VALUE: buf2img_bitshift:imgX <- [DW_OP_plus_uconst 24] [$rsp+0]
	#DEBUG_VALUE: buf2img_bitshift:buf <- [DW_OP_plus_uconst 32] [$rsp+0]
	#DEBUG_VALUE: buf2img_bitshift:size_x <- [DW_OP_LLVM_entry_value 1] $edx
	#DEBUG_VALUE: buf2img_bitshift:size_y <- [DW_OP_plus_uconst 96] [$rsp+0]
	#DEBUG_VALUE: buf2img_bitshift:o_size_x <- [DW_OP_LLVM_entry_value 1] $r8d
	#DEBUG_VALUE: buf2img_bitshift:o_size_y <- [DW_OP_LLVM_entry_value 1] $r9d
	#DEBUG_VALUE: buf2img_bitshift:symbol_size_in_bytes <- [DW_OP_plus_uconst 192] [$rsp+0]
	#DEBUG_VALUE: buf2img_bitshift:bitshift <- [DW_OP_plus_uconst 200] [$rsp+0]
	#DEBUG_VALUE: buf2img_bitshift:j <- [DW_OP_plus_uconst 48, DW_OP_deref_size 8, DW_OP_stack_value] $rsp
	.loc	0 298 36                        # ldecod_src/input.c:298:36
	incq	%rbx
.Ltmp330:
	#DEBUG_VALUE: buf2img_bitshift:j <- $rbx
	.loc	0 0 36                          # ldecod_src/input.c:0:36
	movq	64(%rsp), %rbp                  # 8-byte Reload
.Ltmp331:
	.loc	0 298 9                         # ldecod_src/input.c:298:9
	addq	80(%rsp), %rbp                  # 8-byte Folded Reload
.Ltmp332:
	.loc	0 298 23                        # ldecod_src/input.c:298:23
	cmpq	96(%rsp), %rbx                  # 8-byte Folded Reload
	movl	88(%rsp), %edx                  # 4-byte Reload
.Ltmp333:
	.loc	0 298 9                         # ldecod_src/input.c:298:9
	je	.LBB4_34
.Ltmp334:
.LBB4_11:                               # %for.body94.us
                                        # =>This Loop Header: Depth=1
                                        #     Child Loop BB4_14 Depth 2
	#DEBUG_VALUE: buf2img_bitshift:imgX <- [DW_OP_plus_uconst 24] [$rsp+0]
	#DEBUG_VALUE: buf2img_bitshift:buf <- [DW_OP_plus_uconst 32] [$rsp+0]
	#DEBUG_VALUE: buf2img_bitshift:size_x <- [DW_OP_LLVM_entry_value 1] $edx
	#DEBUG_VALUE: buf2img_bitshift:size_y <- [DW_OP_plus_uconst 96] [$rsp+0]
	#DEBUG_VALUE: buf2img_bitshift:o_size_x <- [DW_OP_LLVM_entry_value 1] $r8d
	#DEBUG_VALUE: buf2img_bitshift:o_size_y <- [DW_OP_LLVM_entry_value 1] $r9d
	#DEBUG_VALUE: buf2img_bitshift:symbol_size_in_bytes <- [DW_OP_plus_uconst 192] [$rsp+0]
	#DEBUG_VALUE: buf2img_bitshift:bitshift <- [DW_OP_plus_uconst 200] [$rsp+0]
	#DEBUG_VALUE: buf2img_bitshift:j <- $rbx
	#DEBUG_VALUE: j_pos <- undef
	.loc	0 0 9                           # ldecod_src/input.c:0:9
	cmpl	$1, %edx
.Ltmp335:
	#DEBUG_VALUE: buf2img_bitshift:i <- 0
	movq	%rbp, 64(%rsp)                  # 8-byte Spill
	movq	%rbx, 48(%rsp)                  # 8-byte Spill
.Ltmp336:
	#DEBUG_VALUE: buf2img_bitshift:j <- [DW_OP_plus_uconst 48, DW_OP_deref_size 8, DW_OP_stack_value] $rsp
	.loc	0 301 11 is_stmt 1              # ldecod_src/input.c:301:11
	jne	.LBB4_13
.Ltmp337:
# %bb.12:                               #   in Loop: Header=BB4_11 Depth=1
	#DEBUG_VALUE: buf2img_bitshift:imgX <- [DW_OP_plus_uconst 24] [$rsp+0]
	#DEBUG_VALUE: buf2img_bitshift:buf <- [DW_OP_plus_uconst 32] [$rsp+0]
	#DEBUG_VALUE: buf2img_bitshift:size_x <- [DW_OP_LLVM_entry_value 1] $edx
	#DEBUG_VALUE: buf2img_bitshift:size_y <- [DW_OP_plus_uconst 96] [$rsp+0]
	#DEBUG_VALUE: buf2img_bitshift:o_size_x <- [DW_OP_LLVM_entry_value 1] $r8d
	#DEBUG_VALUE: buf2img_bitshift:o_size_y <- [DW_OP_LLVM_entry_value 1] $r9d
	#DEBUG_VALUE: buf2img_bitshift:symbol_size_in_bytes <- [DW_OP_plus_uconst 192] [$rsp+0]
	#DEBUG_VALUE: buf2img_bitshift:bitshift <- [DW_OP_plus_uconst 200] [$rsp+0]
	#DEBUG_VALUE: buf2img_bitshift:j <- [DW_OP_plus_uconst 48, DW_OP_deref_size 8, DW_OP_stack_value] $rsp
	#DEBUG_VALUE: buf2img_bitshift:i <- 0
	.loc	0 0 11 is_stmt 0                # ldecod_src/input.c:0:11
	xorl	%r15d, %r15d
	movq	16(%rsp), %r14                  # 8-byte Reload
	.loc	0 301 11                        # ldecod_src/input.c:301:11
	jmp	.LBB4_15
.Ltmp338:
	.p2align	4, 0x90
.LBB4_13:                               # %for.body99.us348.preheader
                                        #   in Loop: Header=BB4_11 Depth=1
	#DEBUG_VALUE: buf2img_bitshift:imgX <- [DW_OP_plus_uconst 24] [$rsp+0]
	#DEBUG_VALUE: buf2img_bitshift:buf <- [DW_OP_plus_uconst 32] [$rsp+0]
	#DEBUG_VALUE: buf2img_bitshift:size_x <- [DW_OP_LLVM_entry_value 1] $edx
	#DEBUG_VALUE: buf2img_bitshift:size_y <- [DW_OP_plus_uconst 96] [$rsp+0]
	#DEBUG_VALUE: buf2img_bitshift:o_size_x <- [DW_OP_LLVM_entry_value 1] $r8d
	#DEBUG_VALUE: buf2img_bitshift:o_size_y <- [DW_OP_LLVM_entry_value 1] $r9d
	#DEBUG_VALUE: buf2img_bitshift:symbol_size_in_bytes <- [DW_OP_plus_uconst 192] [$rsp+0]
	#DEBUG_VALUE: buf2img_bitshift:bitshift <- [DW_OP_plus_uconst 200] [$rsp+0]
	#DEBUG_VALUE: buf2img_bitshift:j <- [DW_OP_plus_uconst 48, DW_OP_deref_size 8, DW_OP_stack_value] $rsp
	#DEBUG_VALUE: buf2img_bitshift:i <- 0
	.loc	0 0 11                          # ldecod_src/input.c:0:11
	xorl	%r15d, %r15d
.Ltmp339:
	.p2align	4, 0x90
.LBB4_14:                               # %for.body99.us348
                                        #   Parent Loop BB4_11 Depth=1
                                        # =>  This Inner Loop Header: Depth=2
	#DEBUG_VALUE: buf2img_bitshift:imgX <- [DW_OP_plus_uconst 24] [$rsp+0]
	#DEBUG_VALUE: buf2img_bitshift:buf <- [DW_OP_plus_uconst 32] [$rsp+0]
	#DEBUG_VALUE: buf2img_bitshift:size_x <- [DW_OP_LLVM_entry_value 1] $edx
	#DEBUG_VALUE: buf2img_bitshift:size_y <- [DW_OP_plus_uconst 96] [$rsp+0]
	#DEBUG_VALUE: buf2img_bitshift:o_size_x <- [DW_OP_LLVM_entry_value 1] $r8d
	#DEBUG_VALUE: buf2img_bitshift:o_size_y <- [DW_OP_LLVM_entry_value 1] $r9d
	#DEBUG_VALUE: buf2img_bitshift:symbol_size_in_bytes <- [DW_OP_plus_uconst 192] [$rsp+0]
	#DEBUG_VALUE: buf2img_bitshift:bitshift <- [DW_OP_plus_uconst 200] [$rsp+0]
	#DEBUG_VALUE: buf2img_bitshift:j <- [DW_OP_plus_uconst 48, DW_OP_deref_size 8, DW_OP_stack_value] $rsp
	#DEBUG_VALUE: buf2img_bitshift:i <- $r15
	.loc	0 303 17 is_stmt 1              # ldecod_src/input.c:303:17
	movw	$0, 14(%rsp)
.Ltmp340:
	#DEBUG_VALUE: buf2img_bitshift:ui16 <- 0
	.loc	0 0 17 is_stmt 0                # ldecod_src/input.c:0:17
	leaq	14(%rsp), %r12
	.loc	0 304 13 is_stmt 1              # ldecod_src/input.c:304:13
	movq	%r12, %rdi
	movq	%rbp, %rsi
	movq	40(%rsp), %r14                  # 8-byte Reload
	movq	%r14, %rdx
	callq	memcpy@PLT
.Ltmp341:
	.loc	0 305 46                        # ldecod_src/input.c:305:46
	movzwl	14(%rsp), %eax
.Ltmp342:
	#DEBUG_VALUE: rshift_rnd:x <- $eax
	#DEBUG_VALUE: rshift_rnd:a <- undef
	.loc	0 0 46 is_stmt 0                # ldecod_src/input.c:0:46
	movq	16(%rsp), %rcx                  # 8-byte Reload
                                        # kill: def $cl killed $cl killed $rcx
.Ltmp343:
	.loc	6 162 52 is_stmt 1              # ldecod_src/inc/ifunctions.h:162:52
	shll	%cl, %eax
.Ltmp344:
	.loc	6 0 52 is_stmt 0                # ldecod_src/inc/ifunctions.h:0:52
	movq	48(%rsp), %rbx                  # 8-byte Reload
.Ltmp345:
	.loc	0 305 13 is_stmt 1              # ldecod_src/input.c:305:13
	movq	(%r13,%rbx,8), %rcx
	.loc	0 305 24 is_stmt 0              # ldecod_src/input.c:305:24
	movw	%ax, (%rcx,%r15,2)
.Ltmp346:
	#DEBUG_VALUE: buf2img_bitshift:i <- [DW_OP_constu 1, DW_OP_or, DW_OP_stack_value] $r15
	.loc	0 303 17 is_stmt 1              # ldecod_src/input.c:303:17
	movw	$0, 14(%rsp)
	.loc	0 304 13                        # ldecod_src/input.c:304:13
	leaq	(%r14,%rbp), %rsi
	movq	%r12, %rdi
	movq	%r14, %rdx
	callq	memcpy@PLT
.Ltmp347:
	.loc	0 0 13 is_stmt 0                # ldecod_src/input.c:0:13
	movq	16(%rsp), %r14                  # 8-byte Reload
	.loc	0 305 46 is_stmt 1              # ldecod_src/input.c:305:46
	movzwl	14(%rsp), %eax
.Ltmp348:
	#DEBUG_VALUE: rshift_rnd:x <- $eax
	.loc	6 162 52                        # ldecod_src/inc/ifunctions.h:162:52
	movl	%r14d, %ecx
	shll	%cl, %eax
.Ltmp349:
	.loc	0 305 13                        # ldecod_src/input.c:305:13
	movq	(%r13,%rbx,8), %rdx
	.loc	0 305 24 is_stmt 0              # ldecod_src/input.c:305:24
	movw	%ax, 2(%rdx,%r15,2)
.Ltmp350:
	.loc	0 301 38 is_stmt 1              # ldecod_src/input.c:301:38
	addq	$2, %r15
.Ltmp351:
	#DEBUG_VALUE: buf2img_bitshift:i <- $r15
	.loc	0 301 11 is_stmt 0              # ldecod_src/input.c:301:11
	addq	112(%rsp), %rbp                 # 8-byte Folded Reload
	cmpq	%r15, 104(%rsp)                 # 8-byte Folded Reload
	jne	.LBB4_14
.Ltmp352:
.LBB4_15:                               # %for.cond96.for.inc115_crit_edge.split.us361.unr-lcssa
                                        #   in Loop: Header=BB4_11 Depth=1
	#DEBUG_VALUE: buf2img_bitshift:imgX <- [DW_OP_plus_uconst 24] [$rsp+0]
	#DEBUG_VALUE: buf2img_bitshift:buf <- [DW_OP_plus_uconst 32] [$rsp+0]
	#DEBUG_VALUE: buf2img_bitshift:size_x <- [DW_OP_LLVM_entry_value 1] $edx
	#DEBUG_VALUE: buf2img_bitshift:size_y <- [DW_OP_plus_uconst 96] [$rsp+0]
	#DEBUG_VALUE: buf2img_bitshift:o_size_x <- [DW_OP_LLVM_entry_value 1] $r8d
	#DEBUG_VALUE: buf2img_bitshift:o_size_y <- [DW_OP_LLVM_entry_value 1] $r9d
	#DEBUG_VALUE: buf2img_bitshift:symbol_size_in_bytes <- [DW_OP_plus_uconst 192] [$rsp+0]
	#DEBUG_VALUE: buf2img_bitshift:bitshift <- [DW_OP_plus_uconst 200] [$rsp+0]
	#DEBUG_VALUE: buf2img_bitshift:j <- [DW_OP_plus_uconst 48, DW_OP_deref_size 8, DW_OP_stack_value] $rsp
	.loc	0 0 11                          # ldecod_src/input.c:0:11
	movq	56(%rsp), %rax                  # 8-byte Reload
	testb	$1, %al
	leaq	14(%rsp), %rdi
	movq	48(%rsp), %rbx                  # 8-byte Reload
	.loc	0 301 11                        # ldecod_src/input.c:301:11
	je	.LBB4_17
.Ltmp353:
# %bb.16:                               # %for.body99.us348.epil
                                        #   in Loop: Header=BB4_11 Depth=1
	#DEBUG_VALUE: buf2img_bitshift:imgX <- [DW_OP_plus_uconst 24] [$rsp+0]
	#DEBUG_VALUE: buf2img_bitshift:buf <- [DW_OP_plus_uconst 32] [$rsp+0]
	#DEBUG_VALUE: buf2img_bitshift:size_x <- [DW_OP_LLVM_entry_value 1] $edx
	#DEBUG_VALUE: buf2img_bitshift:size_y <- [DW_OP_plus_uconst 96] [$rsp+0]
	#DEBUG_VALUE: buf2img_bitshift:o_size_x <- [DW_OP_LLVM_entry_value 1] $r8d
	#DEBUG_VALUE: buf2img_bitshift:o_size_y <- [DW_OP_LLVM_entry_value 1] $r9d
	#DEBUG_VALUE: buf2img_bitshift:symbol_size_in_bytes <- [DW_OP_plus_uconst 192] [$rsp+0]
	#DEBUG_VALUE: buf2img_bitshift:bitshift <- [DW_OP_plus_uconst 200] [$rsp+0]
	#DEBUG_VALUE: buf2img_bitshift:j <- [DW_OP_plus_uconst 48, DW_OP_deref_size 8, DW_OP_stack_value] $rsp
	.loc	0 0 11                          # ldecod_src/input.c:0:11
	movq	%rbx, %rsi
	imulq	%rax, %rsi
.Ltmp354:
	#DEBUG_VALUE: j_pos <- $rsi
	#DEBUG_VALUE: buf2img_bitshift:i <- $r15
	.loc	0 303 17 is_stmt 1              # ldecod_src/input.c:303:17
	movw	$0, 14(%rsp)
.Ltmp355:
	#DEBUG_VALUE: buf2img_bitshift:ui16 <- 0
	.loc	0 304 39                        # ldecod_src/input.c:304:39
	addq	%r15, %rsi
.Ltmp356:
	.loc	0 0 39 is_stmt 0                # ldecod_src/input.c:0:39
	movq	40(%rsp), %rdx                  # 8-byte Reload
	.loc	0 304 48                        # ldecod_src/input.c:304:48
	imulq	%rdx, %rsi
	.loc	0 304 33                        # ldecod_src/input.c:304:33
	addq	32(%rsp), %rsi                  # 8-byte Folded Reload
	.loc	0 304 13                        # ldecod_src/input.c:304:13
	callq	memcpy@PLT
.Ltmp357:
	.loc	0 305 46 is_stmt 1              # ldecod_src/input.c:305:46
	movzwl	14(%rsp), %eax
.Ltmp358:
	#DEBUG_VALUE: rshift_rnd:x <- $eax
	#DEBUG_VALUE: rshift_rnd:a <- undef
	.loc	6 162 52                        # ldecod_src/inc/ifunctions.h:162:52
	movl	%r14d, %ecx
	shll	%cl, %eax
.Ltmp359:
	.loc	6 0 52 is_stmt 0                # ldecod_src/inc/ifunctions.h:0:52
	movq	24(%rsp), %rcx                  # 8-byte Reload
.Ltmp360:
	.loc	0 305 13 is_stmt 1              # ldecod_src/input.c:305:13
	movq	(%rcx,%rbx,8), %rcx
	.loc	0 305 24 is_stmt 0              # ldecod_src/input.c:305:24
	movw	%ax, (%rcx,%r15,2)
.Ltmp361:
	#DEBUG_VALUE: buf2img_bitshift:i <- [DW_OP_plus_uconst 1, DW_OP_stack_value] $r15
	.loc	0 0 24                          # ldecod_src/input.c:0:24
	jmp	.LBB4_17
.Ltmp362:
.LBB4_21:                               # %for.body164.us.preheader
	#DEBUG_VALUE: buf2img_bitshift:imgX <- [DW_OP_plus_uconst 24] [$rsp+0]
	#DEBUG_VALUE: buf2img_bitshift:buf <- [DW_OP_plus_uconst 32] [$rsp+0]
	#DEBUG_VALUE: buf2img_bitshift:size_x <- [DW_OP_LLVM_entry_value 1] $edx
	#DEBUG_VALUE: buf2img_bitshift:size_y <- [DW_OP_LLVM_entry_value 1] $ecx
	#DEBUG_VALUE: buf2img_bitshift:o_size_x <- [DW_OP_LLVM_entry_value 1] $r8d
	#DEBUG_VALUE: buf2img_bitshift:o_size_y <- $r12d
	#DEBUG_VALUE: buf2img_bitshift:symbol_size_in_bytes <- [DW_OP_plus_uconst 192] [$rsp+0]
	#DEBUG_VALUE: buf2img_bitshift:bitshift <- [DW_OP_plus_uconst 200] [$rsp+0]
	#DEBUG_VALUE: buf2img_bitshift:ui16 <- [DW_OP_plus_uconst 14, DW_OP_deref] $rsp
	#DEBUG_VALUE: iminwidth <- [DW_OP_plus_uconst 40, DW_OP_deref] $rsp
	#DEBUG_VALUE: iminheight <- $esi
	#DEBUG_VALUE: dst_offset_y <- $eax
	#DEBUG_VALUE: offset_x <- 0
	#DEBUG_VALUE: offset_y <- 0
	#DEBUG_VALUE: buf2img_bitshift:j <- 0
	negl	%ecx
	movq	%rcx, 16(%rsp)                  # 8-byte Spill
.Ltmp363:
	.loc	0 331 9 is_stmt 1               # ldecod_src/input.c:331:9
	movl	%esi, %r15d
.Ltmp364:
	#DEBUG_VALUE: iminheight <- $r15d
	cltq
.Ltmp365:
	.loc	0 0 9 is_stmt 0                 # ldecod_src/input.c:0:9
	movq	24(%rsp), %rcx                  # 8-byte Reload
	.loc	0 331 9                         # ldecod_src/input.c:331:9
	leaq	(%rcx,%rax,8), %rcx
	movq	%rbx, %rax
	imulq	%r13, %rax
	movq	%rax, 128(%rsp)                 # 8-byte Spill
	leaq	(%rbx,%rbx), %rax
	movq	%rax, 112(%rsp)                 # 8-byte Spill
	movl	%r8d, %eax
.Ltmp366:
	#DEBUG_VALUE: dst_offset_y <- [DW_OP_plus_uconst 112, DW_OP_deref] $rsp
	andl	$2147483646, %eax               # imm = 0x7FFFFFFE
	negq	%rax
	movq	%rax, 96(%rsp)                  # 8-byte Spill
	xorl	%r14d, %r14d
	leaq	14(%rsp), %rdi
	movq	32(%rsp), %rax                  # 8-byte Reload
	movq	%rbp, 80(%rsp)                  # 8-byte Spill
	movl	%r9d, 76(%rsp)                  # 4-byte Spill
	movq	%r13, 64(%rsp)                  # 8-byte Spill
	movq	%r15, 120(%rsp)                 # 8-byte Spill
.Ltmp367:
	#DEBUG_VALUE: iminheight <- [DW_OP_plus_uconst 120, DW_OP_deref] $rsp
	.loc	0 0 9                           # ldecod_src/input.c:0:9
	movq	%rcx, 104(%rsp)                 # 8-byte Spill
	jmp	.LBB4_22
.Ltmp368:
	.p2align	4, 0x90
.LBB4_33:                               # %for.cond168.for.inc189_crit_edge.split.us342
                                        #   in Loop: Header=BB4_22 Depth=1
	#DEBUG_VALUE: buf2img_bitshift:imgX <- [DW_OP_LLVM_entry_value 1] $rdi
	#DEBUG_VALUE: buf2img_bitshift:buf <- [DW_OP_plus_uconst 32] [$rsp+0]
	#DEBUG_VALUE: buf2img_bitshift:size_x <- [DW_OP_LLVM_entry_value 1] $edx
	#DEBUG_VALUE: buf2img_bitshift:size_y <- [DW_OP_LLVM_entry_value 1] $ecx
	#DEBUG_VALUE: buf2img_bitshift:o_size_x <- [DW_OP_LLVM_entry_value 1] $r8d
	#DEBUG_VALUE: buf2img_bitshift:o_size_y <- [DW_OP_LLVM_entry_value 1] $r9d
	#DEBUG_VALUE: buf2img_bitshift:symbol_size_in_bytes <- [DW_OP_plus_uconst 192] [$rsp+0]
	#DEBUG_VALUE: buf2img_bitshift:bitshift <- [DW_OP_plus_uconst 200] [$rsp+0]
	#DEBUG_VALUE: iminwidth <- [DW_OP_plus_uconst 40, DW_OP_deref] $rsp
	#DEBUG_VALUE: iminheight <- [DW_OP_plus_uconst 120, DW_OP_deref] $rsp
	#DEBUG_VALUE: offset_x <- 0
	#DEBUG_VALUE: offset_y <- 0
	#DEBUG_VALUE: buf2img_bitshift:j <- [DW_OP_plus_uconst 24, DW_OP_deref_size 8, DW_OP_stack_value] $rsp
	.loc	0 331 36                        # ldecod_src/input.c:331:36
	incq	%r14
.Ltmp369:
	#DEBUG_VALUE: buf2img_bitshift:j <- $r14
	.loc	0 331 9                         # ldecod_src/input.c:331:9
	addq	128(%rsp), %rax                 # 8-byte Folded Reload
.Ltmp370:
	.loc	0 331 21                        # ldecod_src/input.c:331:21
	cmpq	%r15, %r14
.Ltmp371:
	.loc	0 331 9                         # ldecod_src/input.c:331:9
	jae	.LBB4_34
.Ltmp372:
.LBB4_22:                               # %for.body164.us
                                        # =>This Loop Header: Depth=1
                                        #     Child Loop BB4_29 Depth 2
	#DEBUG_VALUE: buf2img_bitshift:imgX <- [DW_OP_LLVM_entry_value 1] $rdi
	#DEBUG_VALUE: buf2img_bitshift:buf <- [DW_OP_plus_uconst 32] [$rsp+0]
	#DEBUG_VALUE: buf2img_bitshift:size_x <- [DW_OP_LLVM_entry_value 1] $edx
	#DEBUG_VALUE: buf2img_bitshift:size_y <- [DW_OP_LLVM_entry_value 1] $ecx
	#DEBUG_VALUE: buf2img_bitshift:o_size_x <- [DW_OP_LLVM_entry_value 1] $r8d
	#DEBUG_VALUE: buf2img_bitshift:o_size_y <- [DW_OP_LLVM_entry_value 1] $r9d
	#DEBUG_VALUE: buf2img_bitshift:symbol_size_in_bytes <- [DW_OP_plus_uconst 192] [$rsp+0]
	#DEBUG_VALUE: buf2img_bitshift:bitshift <- [DW_OP_plus_uconst 200] [$rsp+0]
	#DEBUG_VALUE: iminwidth <- [DW_OP_plus_uconst 40, DW_OP_deref] $rsp
	#DEBUG_VALUE: iminheight <- [DW_OP_plus_uconst 120, DW_OP_deref] $rsp
	#DEBUG_VALUE: offset_x <- 0
	#DEBUG_VALUE: offset_y <- 0
	#DEBUG_VALUE: buf2img_bitshift:j <- $r14
	#DEBUG_VALUE: j_pos <- undef
	.loc	0 0 9                           # ldecod_src/input.c:0:9
	cmpl	$1, %r9d
.Ltmp373:
	#DEBUG_VALUE: buf2img_bitshift:i <- 0
	movq	%rax, 88(%rsp)                  # 8-byte Spill
	movq	%r14, 24(%rsp)                  # 8-byte Spill
.Ltmp374:
	#DEBUG_VALUE: buf2img_bitshift:j <- [DW_OP_plus_uconst 24, DW_OP_deref_size 8, DW_OP_stack_value] $rsp
	.loc	0 334 11 is_stmt 1              # ldecod_src/input.c:334:11
	jne	.LBB4_28
.Ltmp375:
# %bb.23:                               #   in Loop: Header=BB4_22 Depth=1
	#DEBUG_VALUE: buf2img_bitshift:imgX <- [DW_OP_LLVM_entry_value 1] $rdi
	#DEBUG_VALUE: buf2img_bitshift:buf <- [DW_OP_plus_uconst 32] [$rsp+0]
	#DEBUG_VALUE: buf2img_bitshift:size_x <- [DW_OP_LLVM_entry_value 1] $edx
	#DEBUG_VALUE: buf2img_bitshift:size_y <- [DW_OP_LLVM_entry_value 1] $ecx
	#DEBUG_VALUE: buf2img_bitshift:o_size_x <- [DW_OP_LLVM_entry_value 1] $r8d
	#DEBUG_VALUE: buf2img_bitshift:o_size_y <- [DW_OP_LLVM_entry_value 1] $r9d
	#DEBUG_VALUE: buf2img_bitshift:symbol_size_in_bytes <- [DW_OP_plus_uconst 192] [$rsp+0]
	#DEBUG_VALUE: buf2img_bitshift:bitshift <- [DW_OP_plus_uconst 200] [$rsp+0]
	#DEBUG_VALUE: iminwidth <- [DW_OP_plus_uconst 40, DW_OP_deref] $rsp
	#DEBUG_VALUE: iminheight <- [DW_OP_plus_uconst 120, DW_OP_deref] $rsp
	#DEBUG_VALUE: offset_x <- 0
	#DEBUG_VALUE: offset_y <- 0
	#DEBUG_VALUE: buf2img_bitshift:j <- [DW_OP_plus_uconst 24, DW_OP_deref_size 8, DW_OP_stack_value] $rsp
	#DEBUG_VALUE: buf2img_bitshift:i <- 0
	.loc	0 0 11 is_stmt 0                # ldecod_src/input.c:0:11
	xorl	%r12d, %r12d
	movq	16(%rsp), %rbx                  # 8-byte Reload
	testb	$1, %r8b
	.loc	0 334 11                        # ldecod_src/input.c:334:11
	je	.LBB4_33
	jmp	.LBB4_32
.Ltmp376:
	.p2align	4, 0x90
.LBB4_28:                               # %for.body171.us328.preheader
                                        #   in Loop: Header=BB4_22 Depth=1
	#DEBUG_VALUE: buf2img_bitshift:imgX <- [DW_OP_LLVM_entry_value 1] $rdi
	#DEBUG_VALUE: buf2img_bitshift:buf <- [DW_OP_plus_uconst 32] [$rsp+0]
	#DEBUG_VALUE: buf2img_bitshift:size_x <- [DW_OP_LLVM_entry_value 1] $edx
	#DEBUG_VALUE: buf2img_bitshift:size_y <- [DW_OP_LLVM_entry_value 1] $ecx
	#DEBUG_VALUE: buf2img_bitshift:o_size_x <- [DW_OP_LLVM_entry_value 1] $r8d
	#DEBUG_VALUE: buf2img_bitshift:o_size_y <- [DW_OP_LLVM_entry_value 1] $r9d
	#DEBUG_VALUE: buf2img_bitshift:symbol_size_in_bytes <- [DW_OP_plus_uconst 192] [$rsp+0]
	#DEBUG_VALUE: buf2img_bitshift:bitshift <- [DW_OP_plus_uconst 200] [$rsp+0]
	#DEBUG_VALUE: iminwidth <- [DW_OP_plus_uconst 40, DW_OP_deref] $rsp
	#DEBUG_VALUE: iminheight <- [DW_OP_plus_uconst 120, DW_OP_deref] $rsp
	#DEBUG_VALUE: offset_x <- 0
	#DEBUG_VALUE: offset_y <- 0
	#DEBUG_VALUE: buf2img_bitshift:j <- [DW_OP_plus_uconst 24, DW_OP_deref_size 8, DW_OP_stack_value] $rsp
	#DEBUG_VALUE: buf2img_bitshift:i <- 0
	.loc	0 0 11                          # ldecod_src/input.c:0:11
	movq	%rax, %r13
	movq	%rbp, %rbx
	xorl	%r12d, %r12d
.Ltmp377:
	.p2align	4, 0x90
.LBB4_29:                               # %for.body171.us328
                                        #   Parent Loop BB4_22 Depth=1
                                        # =>  This Inner Loop Header: Depth=2
	#DEBUG_VALUE: buf2img_bitshift:imgX <- [DW_OP_LLVM_entry_value 1] $rdi
	#DEBUG_VALUE: buf2img_bitshift:buf <- [DW_OP_plus_uconst 32] [$rsp+0]
	#DEBUG_VALUE: buf2img_bitshift:size_x <- [DW_OP_LLVM_entry_value 1] $edx
	#DEBUG_VALUE: buf2img_bitshift:size_y <- [DW_OP_LLVM_entry_value 1] $ecx
	#DEBUG_VALUE: buf2img_bitshift:o_size_x <- [DW_OP_LLVM_entry_value 1] $r8d
	#DEBUG_VALUE: buf2img_bitshift:o_size_y <- [DW_OP_LLVM_entry_value 1] $r9d
	#DEBUG_VALUE: buf2img_bitshift:symbol_size_in_bytes <- [DW_OP_plus_uconst 192] [$rsp+0]
	#DEBUG_VALUE: buf2img_bitshift:bitshift <- [DW_OP_plus_uconst 200] [$rsp+0]
	#DEBUG_VALUE: iminwidth <- [DW_OP_plus_uconst 40, DW_OP_deref] $rsp
	#DEBUG_VALUE: iminheight <- [DW_OP_plus_uconst 120, DW_OP_deref] $rsp
	#DEBUG_VALUE: offset_x <- 0
	#DEBUG_VALUE: offset_y <- 0
	#DEBUG_VALUE: buf2img_bitshift:j <- [DW_OP_plus_uconst 24, DW_OP_deref_size 8, DW_OP_stack_value] $rsp
	#DEBUG_VALUE: buf2img_bitshift:i <- [DW_OP_consts 18446744073709551614, DW_OP_div, DW_OP_consts 2, DW_OP_mul, DW_OP_stack_value] $r12
	movq	%r12, 48(%rsp)                  # 8-byte Spill
.Ltmp378:
	#DEBUG_VALUE: buf2img_bitshift:i <- [DW_OP_plus_uconst 48, DW_OP_deref_size 8, DW_OP_consts 18446744073709551614, DW_OP_div, DW_OP_consts 2, DW_OP_mul, DW_OP_stack_value] $rsp
	.loc	0 336 17 is_stmt 1              # ldecod_src/input.c:336:17
	movw	$0, 14(%rsp)
.Ltmp379:
	#DEBUG_VALUE: buf2img_bitshift:ui16 <- 0
	.loc	0 0 17 is_stmt 0                # ldecod_src/input.c:0:17
	leaq	14(%rsp), %r12
	.loc	0 337 13 is_stmt 1              # ldecod_src/input.c:337:13
	movq	%r12, %rdi
	movq	%r13, %rsi
	movq	56(%rsp), %r14                  # 8-byte Reload
	movq	%r14, %rdx
	callq	memcpy@PLT
.Ltmp380:
	.loc	0 338 76                        # ldecod_src/input.c:338:76
	movzwl	14(%rsp), %eax
.Ltmp381:
	#DEBUG_VALUE: rshift_rnd:x <- $eax
	#DEBUG_VALUE: rshift_rnd:a <- undef
	.loc	0 0 76 is_stmt 0                # ldecod_src/input.c:0:76
	movq	16(%rsp), %r15                  # 8-byte Reload
.Ltmp382:
	.loc	6 162 52 is_stmt 1              # ldecod_src/inc/ifunctions.h:162:52
	movl	%r15d, %ecx
	shll	%cl, %eax
.Ltmp383:
	.loc	6 0 52 is_stmt 0                # ldecod_src/inc/ifunctions.h:0:52
	movq	104(%rsp), %rbp                 # 8-byte Reload
	movq	24(%rsp), %rcx                  # 8-byte Reload
.Ltmp384:
	.loc	0 338 13 is_stmt 1              # ldecod_src/input.c:338:13
	movq	(%rbp,%rcx,8), %rcx
	.loc	0 338 54 is_stmt 0              # ldecod_src/input.c:338:54
	movw	%ax, (%rcx,%rbx,2)
.Ltmp385:
	#DEBUG_VALUE: buf2img_bitshift:i <- [DW_OP_plus_uconst 48, DW_OP_deref_size 8, DW_OP_consts 18446744073709551614, DW_OP_div, DW_OP_consts 2, DW_OP_mul, DW_OP_consts 1, DW_OP_plus, DW_OP_stack_value] $rsp
	.loc	0 336 17 is_stmt 1              # ldecod_src/input.c:336:17
	movw	$0, 14(%rsp)
	.loc	0 337 13                        # ldecod_src/input.c:337:13
	leaq	(%r13,%r14), %rsi
	movq	%r12, %rdi
	movq	48(%rsp), %r12                  # 8-byte Reload
	movq	%r14, %rdx
	callq	memcpy@PLT
.Ltmp386:
	.loc	0 338 76                        # ldecod_src/input.c:338:76
	movzwl	14(%rsp), %eax
.Ltmp387:
	#DEBUG_VALUE: rshift_rnd:x <- $eax
	.loc	6 162 52                        # ldecod_src/inc/ifunctions.h:162:52
	movl	%r15d, %ecx
	shll	%cl, %eax
.Ltmp388:
	.loc	6 0 52 is_stmt 0                # ldecod_src/inc/ifunctions.h:0:52
	movq	24(%rsp), %rcx                  # 8-byte Reload
.Ltmp389:
	.loc	0 338 13 is_stmt 1              # ldecod_src/input.c:338:13
	movq	(%rbp,%rcx,8), %rcx
	.loc	0 338 54 is_stmt 0              # ldecod_src/input.c:338:54
	movw	%ax, 2(%rcx,%rbx,2)
.Ltmp390:
	#DEBUG_VALUE: buf2img_bitshift:i <- [DW_OP_plus_uconst 48, DW_OP_deref_size 8, DW_OP_consts 18446744073709551614, DW_OP_div, DW_OP_consts 2, DW_OP_mul, DW_OP_consts 2, DW_OP_plus, DW_OP_stack_value] $rsp
	.loc	0 334 11 is_stmt 1              # ldecod_src/input.c:334:11
	addq	$-2, %r12
	addq	$2, %rbx
	addq	112(%rsp), %r13                 # 8-byte Folded Reload
	cmpq	%r12, 96(%rsp)                  # 8-byte Folded Reload
	jne	.LBB4_29
.Ltmp391:
# %bb.30:                               # %for.cond168.for.inc189_crit_edge.split.us342.unr-lcssa.loopexit
                                        #   in Loop: Header=BB4_22 Depth=1
	#DEBUG_VALUE: buf2img_bitshift:imgX <- [DW_OP_LLVM_entry_value 1] $rdi
	#DEBUG_VALUE: buf2img_bitshift:buf <- [DW_OP_plus_uconst 32] [$rsp+0]
	#DEBUG_VALUE: buf2img_bitshift:size_x <- [DW_OP_LLVM_entry_value 1] $edx
	#DEBUG_VALUE: buf2img_bitshift:size_y <- [DW_OP_LLVM_entry_value 1] $ecx
	#DEBUG_VALUE: buf2img_bitshift:o_size_x <- [DW_OP_LLVM_entry_value 1] $r8d
	#DEBUG_VALUE: buf2img_bitshift:o_size_y <- [DW_OP_LLVM_entry_value 1] $r9d
	#DEBUG_VALUE: buf2img_bitshift:symbol_size_in_bytes <- [DW_OP_plus_uconst 192] [$rsp+0]
	#DEBUG_VALUE: buf2img_bitshift:bitshift <- [DW_OP_plus_uconst 200] [$rsp+0]
	#DEBUG_VALUE: buf2img_bitshift:ui16 <- 0
	#DEBUG_VALUE: iminwidth <- [DW_OP_plus_uconst 40, DW_OP_deref] $rsp
	#DEBUG_VALUE: iminheight <- [DW_OP_plus_uconst 120, DW_OP_deref] $rsp
	#DEBUG_VALUE: offset_x <- 0
	#DEBUG_VALUE: offset_y <- 0
	#DEBUG_VALUE: buf2img_bitshift:j <- [DW_OP_plus_uconst 24, DW_OP_deref_size 8, DW_OP_stack_value] $rsp
	#DEBUG_VALUE: buf2img_bitshift:i <- [DW_OP_plus_uconst 48, DW_OP_deref_size 8, DW_OP_consts 18446744073709551614, DW_OP_div, DW_OP_consts 2, DW_OP_mul, DW_OP_consts 2, DW_OP_plus, DW_OP_stack_value] $rsp
	negq	%r12
	movq	80(%rsp), %rbp                  # 8-byte Reload
	movq	40(%rsp), %r8                   # 8-byte Reload
	movq	64(%rsp), %r13                  # 8-byte Reload
	movl	76(%rsp), %r9d                  # 4-byte Reload
	movq	120(%rsp), %r15                 # 8-byte Reload
	movq	104(%rsp), %rcx                 # 8-byte Reload
	movq	24(%rsp), %r14                  # 8-byte Reload
	leaq	14(%rsp), %rdi
	movq	88(%rsp), %rax                  # 8-byte Reload
	movq	16(%rsp), %rbx                  # 8-byte Reload
	testb	$1, %r8b
	je	.LBB4_33
.Ltmp392:
.LBB4_32:                               # %for.body171.us328.epil
                                        #   in Loop: Header=BB4_22 Depth=1
	#DEBUG_VALUE: buf2img_bitshift:imgX <- [DW_OP_LLVM_entry_value 1] $rdi
	#DEBUG_VALUE: buf2img_bitshift:buf <- [DW_OP_plus_uconst 32] [$rsp+0]
	#DEBUG_VALUE: buf2img_bitshift:size_x <- [DW_OP_LLVM_entry_value 1] $edx
	#DEBUG_VALUE: buf2img_bitshift:size_y <- [DW_OP_LLVM_entry_value 1] $ecx
	#DEBUG_VALUE: buf2img_bitshift:o_size_x <- [DW_OP_LLVM_entry_value 1] $r8d
	#DEBUG_VALUE: buf2img_bitshift:o_size_y <- [DW_OP_LLVM_entry_value 1] $r9d
	#DEBUG_VALUE: buf2img_bitshift:symbol_size_in_bytes <- [DW_OP_plus_uconst 192] [$rsp+0]
	#DEBUG_VALUE: buf2img_bitshift:bitshift <- [DW_OP_plus_uconst 200] [$rsp+0]
	#DEBUG_VALUE: iminwidth <- [DW_OP_plus_uconst 40, DW_OP_deref] $rsp
	#DEBUG_VALUE: iminheight <- [DW_OP_plus_uconst 120, DW_OP_deref] $rsp
	#DEBUG_VALUE: offset_x <- 0
	#DEBUG_VALUE: offset_y <- 0
	#DEBUG_VALUE: buf2img_bitshift:j <- [DW_OP_plus_uconst 24, DW_OP_deref_size 8, DW_OP_stack_value] $rsp
	.loc	0 0 11 is_stmt 0                # ldecod_src/input.c:0:11
	movq	%r14, %rsi
	imulq	%r13, %rsi
.Ltmp393:
	#DEBUG_VALUE: j_pos <- $rsi
	#DEBUG_VALUE: buf2img_bitshift:i <- $r12
	.loc	0 336 17 is_stmt 1              # ldecod_src/input.c:336:17
	movw	$0, 14(%rsp)
.Ltmp394:
	#DEBUG_VALUE: buf2img_bitshift:ui16 <- 0
	.loc	0 337 39                        # ldecod_src/input.c:337:39
	addq	%r12, %rsi
.Ltmp395:
	.loc	0 0 39 is_stmt 0                # ldecod_src/input.c:0:39
	movq	56(%rsp), %rdx                  # 8-byte Reload
	.loc	0 337 48                        # ldecod_src/input.c:337:48
	imulq	%rdx, %rsi
	.loc	0 337 33                        # ldecod_src/input.c:337:33
	addq	32(%rsp), %rsi                  # 8-byte Folded Reload
	movq	%rcx, %r14
	.loc	0 337 13                        # ldecod_src/input.c:337:13
	callq	memcpy@PLT
.Ltmp396:
	.loc	0 0 13                          # ldecod_src/input.c:0:13
	movl	76(%rsp), %r9d                  # 4-byte Reload
	movq	40(%rsp), %r8                   # 8-byte Reload
	movq	80(%rsp), %rbp                  # 8-byte Reload
	.loc	0 338 76 is_stmt 1              # ldecod_src/input.c:338:76
	movzwl	14(%rsp), %eax
.Ltmp397:
	#DEBUG_VALUE: rshift_rnd:x <- $eax
	#DEBUG_VALUE: rshift_rnd:a <- undef
	.loc	6 162 52                        # ldecod_src/inc/ifunctions.h:162:52
	movl	%ebx, %ecx
	shll	%cl, %eax
.Ltmp398:
	.loc	6 0 52 is_stmt 0                # ldecod_src/inc/ifunctions.h:0:52
	movq	%r14, %rcx
	leaq	14(%rsp), %rdi
	movq	24(%rsp), %r14                  # 8-byte Reload
.Ltmp399:
	.loc	0 338 13 is_stmt 1              # ldecod_src/input.c:338:13
	addq	%r12, %r12
.Ltmp400:
	addq	(%rcx,%r14,8), %r12
	.loc	0 338 54 is_stmt 0              # ldecod_src/input.c:338:54
	movw	%ax, (%r12,%rbp,2)
.Ltmp401:
	#DEBUG_VALUE: buf2img_bitshift:i <- [DW_OP_plus_uconst 1, DW_OP_stack_value] undef
	.loc	0 0 54                          # ldecod_src/input.c:0:54
	movq	88(%rsp), %rax                  # 8-byte Reload
	jmp	.LBB4_33
.Ltmp402:
.Lfunc_end4:
	.size	buf2img_bitshift, .Lfunc_end4-buf2img_bitshift
	.cfi_endproc
                                        # -- End function
	.globl	fillPlane                       # -- Begin function fillPlane
	.p2align	4, 0x90
	.type	fillPlane,@function
fillPlane:                              # @fillPlane
.Lfunc_begin5:
	.cfi_startproc
# %bb.0:                                # %entry
	#DEBUG_VALUE: fillPlane:imgX <- $rdi
	#DEBUG_VALUE: fillPlane:nVal <- $esi
	#DEBUG_VALUE: fillPlane:size_x <- $edx
	#DEBUG_VALUE: fillPlane:size_y <- $ecx
	#DEBUG_VALUE: fillPlane:j <- 0
	.loc	0 116 19 prologue_end is_stmt 1 # ldecod_src/input.c:116:19
	testl	%ecx, %ecx
.Ltmp403:
	.loc	0 116 5 is_stmt 0               # ldecod_src/input.c:116:5
	jle	.LBB5_10
.Ltmp404:
# %bb.1:                                # %for.cond1.preheader.lr.ph
	#DEBUG_VALUE: fillPlane:imgX <- $rdi
	#DEBUG_VALUE: fillPlane:nVal <- $esi
	#DEBUG_VALUE: fillPlane:size_x <- $edx
	#DEBUG_VALUE: fillPlane:size_y <- $ecx
	#DEBUG_VALUE: fillPlane:j <- 0
	.loc	0 0 5                           # ldecod_src/input.c:0:5
	testl	%edx, %edx
	jle	.LBB5_10
.Ltmp405:
# %bb.2:                                # %for.cond1.preheader.us.preheader
	#DEBUG_VALUE: fillPlane:imgX <- $rdi
	#DEBUG_VALUE: fillPlane:nVal <- $esi
	#DEBUG_VALUE: fillPlane:size_x <- $edx
	#DEBUG_VALUE: fillPlane:size_y <- $ecx
	#DEBUG_VALUE: fillPlane:j <- 0
	pushq	%rbx
	.cfi_def_cfa_offset 16
	.cfi_offset %rbx, -16
	.loc	0 116 19                        # ldecod_src/input.c:116:19
	movl	%ecx, %eax
	movl	%edx, %ecx
.Ltmp406:
	#DEBUG_VALUE: fillPlane:size_y <- $eax
	.loc	0 0 19                          # ldecod_src/input.c:0:19
	movl	%ecx, %r8d
	andl	$3, %r8d
	andl	$2147483644, %ecx               # imm = 0x7FFFFFFC
	xorl	%r9d, %r9d
	jmp	.LBB5_3
.Ltmp407:
	.p2align	4, 0x90
.LBB5_8:                                # %for.cond1.for.inc6_crit_edge.us
                                        #   in Loop: Header=BB5_3 Depth=1
	#DEBUG_VALUE: fillPlane:imgX <- $rdi
	#DEBUG_VALUE: fillPlane:nVal <- $esi
	#DEBUG_VALUE: fillPlane:size_x <- $edx
	#DEBUG_VALUE: fillPlane:size_y <- $eax
	#DEBUG_VALUE: fillPlane:j <- $r9
	.loc	0 116 30                        # ldecod_src/input.c:116:30
	incq	%r9
.Ltmp408:
	#DEBUG_VALUE: fillPlane:j <- $r9
	.loc	0 116 19                        # ldecod_src/input.c:116:19
	cmpq	%rax, %r9
.Ltmp409:
	.loc	0 116 5                         # ldecod_src/input.c:116:5
	je	.LBB5_9
.Ltmp410:
.LBB5_3:                                # %for.cond1.preheader.us
                                        # =>This Loop Header: Depth=1
                                        #     Child Loop BB5_4 Depth 2
                                        #     Child Loop BB5_7 Depth 2
	#DEBUG_VALUE: fillPlane:imgX <- $rdi
	#DEBUG_VALUE: fillPlane:nVal <- $esi
	#DEBUG_VALUE: fillPlane:size_x <- $edx
	#DEBUG_VALUE: fillPlane:size_y <- $eax
	.loc	0 0 5                           # ldecod_src/input.c:0:5
	xorl	%r10d, %r10d
	cmpl	$4, %edx
.Ltmp411:
	#DEBUG_VALUE: fillPlane:j <- $r9
	#DEBUG_VALUE: fillPlane:i <- 0
	.loc	0 118 7 is_stmt 1               # ldecod_src/input.c:118:7
	jb	.LBB5_5
.Ltmp412:
	.p2align	4, 0x90
.LBB5_4:                                # %for.body3.us
                                        #   Parent Loop BB5_3 Depth=1
                                        # =>  This Inner Loop Header: Depth=2
	#DEBUG_VALUE: fillPlane:imgX <- $rdi
	#DEBUG_VALUE: fillPlane:nVal <- $esi
	#DEBUG_VALUE: fillPlane:size_x <- $edx
	#DEBUG_VALUE: fillPlane:size_y <- $eax
	#DEBUG_VALUE: fillPlane:j <- $r9
	#DEBUG_VALUE: fillPlane:i <- $r10
	.loc	0 120 9                         # ldecod_src/input.c:120:9
	movq	(%rdi,%r9,8), %r11
	.loc	0 120 20 is_stmt 0              # ldecod_src/input.c:120:20
	movw	%si, (%r11,%r10,2)
.Ltmp413:
	#DEBUG_VALUE: fillPlane:i <- [DW_OP_constu 1, DW_OP_or, DW_OP_stack_value] $r10
	.loc	0 120 9                         # ldecod_src/input.c:120:9
	movq	(%rdi,%r9,8), %r11
	.loc	0 120 20                        # ldecod_src/input.c:120:20
	movw	%si, 2(%r11,%r10,2)
.Ltmp414:
	#DEBUG_VALUE: fillPlane:i <- [DW_OP_constu 2, DW_OP_or, DW_OP_stack_value] $r10
	.loc	0 120 9                         # ldecod_src/input.c:120:9
	movq	(%rdi,%r9,8), %r11
	.loc	0 120 20                        # ldecod_src/input.c:120:20
	movw	%si, 4(%r11,%r10,2)
.Ltmp415:
	#DEBUG_VALUE: fillPlane:i <- [DW_OP_constu 3, DW_OP_or, DW_OP_stack_value] $r10
	.loc	0 120 9                         # ldecod_src/input.c:120:9
	movq	(%rdi,%r9,8), %r11
	.loc	0 120 20                        # ldecod_src/input.c:120:20
	movw	%si, 6(%r11,%r10,2)
.Ltmp416:
	.loc	0 118 32 is_stmt 1              # ldecod_src/input.c:118:32
	addq	$4, %r10
.Ltmp417:
	#DEBUG_VALUE: fillPlane:i <- $r10
	.loc	0 118 7 is_stmt 0               # ldecod_src/input.c:118:7
	cmpq	%r10, %rcx
	jne	.LBB5_4
.Ltmp418:
.LBB5_5:                                # %for.cond1.for.inc6_crit_edge.us.unr-lcssa
                                        #   in Loop: Header=BB5_3 Depth=1
	#DEBUG_VALUE: fillPlane:imgX <- $rdi
	#DEBUG_VALUE: fillPlane:nVal <- $esi
	#DEBUG_VALUE: fillPlane:size_x <- $edx
	#DEBUG_VALUE: fillPlane:size_y <- $eax
	#DEBUG_VALUE: fillPlane:j <- $r9
	.loc	0 0 7                           # ldecod_src/input.c:0:7
	testq	%r8, %r8
	.loc	0 118 7                         # ldecod_src/input.c:118:7
	je	.LBB5_8
.Ltmp419:
# %bb.6:                                # %for.body3.us.epil.preheader
                                        #   in Loop: Header=BB5_3 Depth=1
	#DEBUG_VALUE: fillPlane:imgX <- $rdi
	#DEBUG_VALUE: fillPlane:nVal <- $esi
	#DEBUG_VALUE: fillPlane:size_x <- $edx
	#DEBUG_VALUE: fillPlane:size_y <- $eax
	#DEBUG_VALUE: fillPlane:j <- $r9
	.loc	0 0 7                           # ldecod_src/input.c:0:7
	movq	%r8, %r11
.Ltmp420:
	.p2align	4, 0x90
.LBB5_7:                                # %for.body3.us.epil
                                        #   Parent Loop BB5_3 Depth=1
                                        # =>  This Inner Loop Header: Depth=2
	#DEBUG_VALUE: fillPlane:imgX <- $rdi
	#DEBUG_VALUE: fillPlane:nVal <- $esi
	#DEBUG_VALUE: fillPlane:size_x <- $edx
	#DEBUG_VALUE: fillPlane:size_y <- $eax
	#DEBUG_VALUE: fillPlane:j <- $r9
	#DEBUG_VALUE: fillPlane:i <- $r10
	.loc	0 120 9 is_stmt 1               # ldecod_src/input.c:120:9
	movq	(%rdi,%r9,8), %rbx
	.loc	0 120 20 is_stmt 0              # ldecod_src/input.c:120:20
	movw	%si, (%rbx,%r10,2)
.Ltmp421:
	.loc	0 118 32 is_stmt 1              # ldecod_src/input.c:118:32
	incq	%r10
.Ltmp422:
	#DEBUG_VALUE: fillPlane:i <- $r10
	.loc	0 118 7 is_stmt 0               # ldecod_src/input.c:118:7
	decq	%r11
	jne	.LBB5_7
	jmp	.LBB5_8
.Ltmp423:
.LBB5_9:
	#DEBUG_VALUE: fillPlane:imgX <- $rdi
	#DEBUG_VALUE: fillPlane:nVal <- $esi
	#DEBUG_VALUE: fillPlane:size_x <- $edx
	#DEBUG_VALUE: fillPlane:size_y <- $eax
	#DEBUG_VALUE: fillPlane:j <- $r9
	.loc	0 0 7                           # ldecod_src/input.c:0:7
	popq	%rbx
	.cfi_def_cfa_offset 8
	.cfi_restore %rbx
.Ltmp424:
.LBB5_10:                               # %for.end8
	#DEBUG_VALUE: fillPlane:imgX <- $rdi
	#DEBUG_VALUE: fillPlane:nVal <- $esi
	#DEBUG_VALUE: fillPlane:size_x <- $edx
	#DEBUG_VALUE: fillPlane:size_y <- [DW_OP_LLVM_entry_value 1] $ecx
	.loc	0 124 1 is_stmt 1               # ldecod_src/input.c:124:1
	retq
.Ltmp425:
.Lfunc_end5:
	.size	fillPlane, .Lfunc_end5-fillPlane
	.cfi_endproc
                                        # -- End function
	.globl	AllocateFrameMemory             # -- Begin function AllocateFrameMemory
	.p2align	4, 0x90
	.type	AllocateFrameMemory,@function
AllocateFrameMemory:                    # @AllocateFrameMemory
.Lfunc_begin6:
	.loc	0 545 0                         # ldecod_src/input.c:545:0
	.cfi_startproc
# %bb.0:                                # %entry
	#DEBUG_VALUE: AllocateFrameMemory:p_Vid <- $rdi
	#DEBUG_VALUE: AllocateFrameMemory:p_Inp <- $rsi
	#DEBUG_VALUE: AllocateFrameMemory:source <- $rdx
	pushq	%r15
	.cfi_def_cfa_offset 16
	pushq	%r14
	.cfi_def_cfa_offset 24
	pushq	%rbx
	.cfi_def_cfa_offset 32
	.cfi_offset %rbx, -32
	.cfi_offset %r14, -24
	.cfi_offset %r15, -16
	movq	%rdx, %r14
	movq	%rsi, %r15
	movq	%rdi, %rbx
.Ltmp426:
	.loc	0 546 45 prologue_end           # ldecod_src/input.c:546:45
	movslq	84(%rdx), %rax
	.loc	0 546 60 is_stmt 0              # ldecod_src/input.c:546:60
	movslq	128(%rdx), %rdi
.Ltmp427:
	#DEBUG_VALUE: AllocateFrameMemory:p_Vid <- $rbx
	.loc	0 546 50                        # ldecod_src/input.c:546:50
	imulq	%rax, %rdi
	.loc	0 546 29                        # ldecod_src/input.c:546:29
	callq	malloc@PLT
.Ltmp428:
	#DEBUG_VALUE: AllocateFrameMemory:source <- $r14
	#DEBUG_VALUE: AllocateFrameMemory:p_Inp <- $r15
	.loc	0 546 27                        # ldecod_src/input.c:546:27
	movq	%rax, 849288(%rbx)
	.loc	0 546 12                        # ldecod_src/input.c:546:12
	testq	%rax, %rax
.Ltmp429:
	.loc	0 546 7                         # ldecod_src/input.c:546:7
	je	.LBB6_1
.Ltmp430:
# %bb.2:                                # %if.end
	#DEBUG_VALUE: AllocateFrameMemory:p_Vid <- $rbx
	#DEBUG_VALUE: AllocateFrameMemory:p_Inp <- $r15
	#DEBUG_VALUE: AllocateFrameMemory:source <- $r14
	.loc	0 548 7 is_stmt 1               # ldecod_src/input.c:548:7
	cmpl	$0, 1988(%r15)
.Ltmp431:
	.loc	0 548 7 is_stmt 0               # ldecod_src/input.c:548:7
	jne	.LBB6_3
	jmp	.LBB6_4
.Ltmp432:
.LBB6_1:                                # %if.then
	#DEBUG_VALUE: AllocateFrameMemory:p_Vid <- $rbx
	#DEBUG_VALUE: AllocateFrameMemory:p_Inp <- $r15
	#DEBUG_VALUE: AllocateFrameMemory:source <- $r14
	.loc	0 547 5 is_stmt 1               # ldecod_src/input.c:547:5
	movl	$.L.str.3, %edi
	callq	no_mem_exit@PLT
.Ltmp433:
	.loc	0 548 7                         # ldecod_src/input.c:548:7
	cmpl	$0, 1988(%r15)
.Ltmp434:
	.loc	0 548 7 is_stmt 0               # ldecod_src/input.c:548:7
	je	.LBB6_4
.Ltmp435:
.LBB6_3:                                # %if.then2
	#DEBUG_VALUE: AllocateFrameMemory:p_Vid <- $rbx
	#DEBUG_VALUE: AllocateFrameMemory:p_Inp <- $r15
	#DEBUG_VALUE: AllocateFrameMemory:source <- $r14
	.loc	0 550 48 is_stmt 1              # ldecod_src/input.c:550:48
	movslq	84(%r14), %rax
	.loc	0 550 63 is_stmt 0              # ldecod_src/input.c:550:63
	movslq	128(%r14), %rdi
	.loc	0 550 53                        # ldecod_src/input.c:550:53
	imulq	%rax, %rdi
	.loc	0 550 32                        # ldecod_src/input.c:550:32
	callq	malloc@PLT
.Ltmp436:
	.loc	0 550 30                        # ldecod_src/input.c:550:30
	movq	%rax, 849296(%rbx)
	.loc	0 550 14                        # ldecod_src/input.c:550:14
	testq	%rax, %rax
.Ltmp437:
	.loc	0 550 9                         # ldecod_src/input.c:550:9
	je	.LBB6_5
.Ltmp438:
.LBB6_4:                                # %if.end12
	#DEBUG_VALUE: AllocateFrameMemory:p_Vid <- $rbx
	#DEBUG_VALUE: AllocateFrameMemory:p_Inp <- $r15
	#DEBUG_VALUE: AllocateFrameMemory:source <- $r14
	.loc	0 553 1 epilogue_begin is_stmt 1 # ldecod_src/input.c:553:1
	popq	%rbx
.Ltmp439:
	#DEBUG_VALUE: AllocateFrameMemory:p_Vid <- [DW_OP_LLVM_entry_value 1] $rdi
	.cfi_def_cfa_offset 24
	popq	%r14
.Ltmp440:
	#DEBUG_VALUE: AllocateFrameMemory:source <- [DW_OP_LLVM_entry_value 1] $rdx
	.cfi_def_cfa_offset 16
	popq	%r15
.Ltmp441:
	#DEBUG_VALUE: AllocateFrameMemory:p_Inp <- [DW_OP_LLVM_entry_value 1] $rsi
	.cfi_def_cfa_offset 8
	retq
.Ltmp442:
.LBB6_5:                                # %if.then10
	.cfi_def_cfa_offset 32
	#DEBUG_VALUE: AllocateFrameMemory:p_Vid <- $rbx
	#DEBUG_VALUE: AllocateFrameMemory:p_Inp <- $r15
	#DEBUG_VALUE: AllocateFrameMemory:source <- $r14
	.loc	0 551 7                         # ldecod_src/input.c:551:7
	movl	$.L.str.4, %edi
	.loc	0 551 7 epilogue_begin is_stmt 0 # ldecod_src/input.c:551:7
	popq	%rbx
.Ltmp443:
	#DEBUG_VALUE: AllocateFrameMemory:p_Vid <- [DW_OP_LLVM_entry_value 1] $rdi
	.cfi_def_cfa_offset 24
	popq	%r14
.Ltmp444:
	#DEBUG_VALUE: AllocateFrameMemory:source <- [DW_OP_LLVM_entry_value 1] $rdx
	.cfi_def_cfa_offset 16
	popq	%r15
.Ltmp445:
	#DEBUG_VALUE: AllocateFrameMemory:p_Inp <- [DW_OP_LLVM_entry_value 1] $rsi
	.cfi_def_cfa_offset 8
	jmp	no_mem_exit@PLT                 # TAILCALL
.Ltmp446:
.Lfunc_end6:
	.size	AllocateFrameMemory, .Lfunc_end6-AllocateFrameMemory
	.cfi_endproc
	.file	7 "/usr/include" "stdlib.h" md5 0x02258fad21adf111bb9df9825e61954a
	.file	8 "/home/yjs/workspace" "GPUISel-llvm/build/lib/clang/19/include/__stddef_size_t.h" md5 0x2c44e821a2b1951cde2eb0fb2e656867
	.file	9 "ldecod_src/inc" "memalloc.h" md5 0x88776e97a131c37d03036121c7c9e0ac
                                        # -- End function
	.globl	DeleteFrameMemory               # -- Begin function DeleteFrameMemory
	.p2align	4, 0x90
	.type	DeleteFrameMemory,@function
DeleteFrameMemory:                      # @DeleteFrameMemory
.Lfunc_begin7:
	.loc	0 563 0 is_stmt 1               # ldecod_src/input.c:563:0
	.cfi_startproc
# %bb.0:                                # %entry
	#DEBUG_VALUE: DeleteFrameMemory:p_Vid <- $rdi
	pushq	%rbx
	.cfi_def_cfa_offset 16
	.cfi_offset %rbx, -16
	movq	%rdi, %rbx
.Ltmp447:
	.loc	0 564 14 prologue_end           # ldecod_src/input.c:564:14
	movq	849288(%rdi), %rdi
.Ltmp448:
	#DEBUG_VALUE: DeleteFrameMemory:p_Vid <- $rbx
	.loc	0 564 18 is_stmt 0              # ldecod_src/input.c:564:18
	testq	%rdi, %rdi
.Ltmp449:
	.loc	0 564 7                         # ldecod_src/input.c:564:7
	je	.LBB7_2
.Ltmp450:
# %bb.1:                                # %if.then
	#DEBUG_VALUE: DeleteFrameMemory:p_Vid <- $rbx
	.loc	0 565 5 is_stmt 1               # ldecod_src/input.c:565:5
	callq	free@PLT
.Ltmp451:
.LBB7_2:                                # %if.end
	#DEBUG_VALUE: DeleteFrameMemory:p_Vid <- $rbx
	.loc	0 566 14                        # ldecod_src/input.c:566:14
	movq	849296(%rbx), %rdi
	.loc	0 566 19 is_stmt 0              # ldecod_src/input.c:566:19
	testq	%rdi, %rdi
.Ltmp452:
	.loc	0 566 7                         # ldecod_src/input.c:566:7
	je	.LBB7_3
.Ltmp453:
# %bb.4:                                # %if.then3
	#DEBUG_VALUE: DeleteFrameMemory:p_Vid <- $rbx
	.loc	0 567 5 epilogue_begin is_stmt 1 # ldecod_src/input.c:567:5
	popq	%rbx
.Ltmp454:
	#DEBUG_VALUE: DeleteFrameMemory:p_Vid <- [DW_OP_LLVM_entry_value 1] $rdi
	.cfi_def_cfa_offset 8
	jmp	free@PLT                        # TAILCALL
.Ltmp455:
.LBB7_3:                                # %if.end5
	.cfi_def_cfa_offset 16
	#DEBUG_VALUE: DeleteFrameMemory:p_Vid <- $rbx
	.loc	0 568 1 epilogue_begin          # ldecod_src/input.c:568:1
	popq	%rbx
.Ltmp456:
	#DEBUG_VALUE: DeleteFrameMemory:p_Vid <- [DW_OP_LLVM_entry_value 1] $rdi
	.cfi_def_cfa_offset 8
	retq
.Ltmp457:
.Lfunc_end7:
	.size	DeleteFrameMemory, .Lfunc_end7-DeleteFrameMemory
	.cfi_endproc
                                        # -- End function
	.globl	read_one_frame                  # -- Begin function read_one_frame
	.p2align	4, 0x90
	.type	read_one_frame,@function
read_one_frame:                         # @read_one_frame
.Lfunc_begin8:
	.loc	0 590 0                         # ldecod_src/input.c:590:0
	.cfi_startproc
# %bb.0:                                # %entry
	#DEBUG_VALUE: read_one_frame:p_Vid <- $rdi
	#DEBUG_VALUE: read_one_frame:input_file <- $rsi
	#DEBUG_VALUE: read_one_frame:FrameNoInFile <- $edx
	#DEBUG_VALUE: read_one_frame:HeaderSize <- $ecx
	#DEBUG_VALUE: read_one_frame:source <- $r8
	#DEBUG_VALUE: read_one_frame:output <- $r9
	pushq	%rbp
	.cfi_def_cfa_offset 16
	pushq	%r15
	.cfi_def_cfa_offset 24
	pushq	%r14
	.cfi_def_cfa_offset 32
	pushq	%r13
	.cfi_def_cfa_offset 40
	pushq	%r12
	.cfi_def_cfa_offset 48
	pushq	%rbx
	.cfi_def_cfa_offset 56
	subq	$152, %rsp
	.cfi_def_cfa_offset 208
	.cfi_offset %rbx, -56
	.cfi_offset %r12, -48
	.cfi_offset %r13, -40
	.cfi_offset %r14, -32
	.cfi_offset %r15, -24
	.cfi_offset %rbp, -16
.Ltmp458:
	#DEBUG_VALUE: read_one_frame:pImage <- [DW_OP_plus_uconst 208] [$rsp+0]
	movq	%r9, %rbp
	movq	%r8, %rbx
	movq	%rsi, %r13
	movq	%rdi, %r12
.Ltmp459:
	#DEBUG_VALUE: read_one_frame:p_Inp <- undef
	#DEBUG_VALUE: read_one_frame:file_read <- 0
	.loc	0 593 46 prologue_end           # ldecod_src/input.c:593:46
	movslq	128(%r8), %r14
.Ltmp460:
	#DEBUG_VALUE: read_one_frame:symbol_size_in_bytes <- $r14d
	#DEBUG_VALUE: read_one_frame:bytes_y <- undef
	#DEBUG_VALUE: read_one_frame:bytes_uv <- undef
	.loc	0 599 53                        # ldecod_src/input.c:599:53
	cmpl	$1, 4(%r8)
	.loc	0 599 63 is_stmt 0              # ldecod_src/input.c:599:63
	jne	.LBB8_1
.Ltmp461:
# %bb.2:                                # %land.rhs
	#DEBUG_VALUE: read_one_frame:p_Vid <- $r12
	#DEBUG_VALUE: read_one_frame:input_file <- $r13
	#DEBUG_VALUE: read_one_frame:FrameNoInFile <- $edx
	#DEBUG_VALUE: read_one_frame:HeaderSize <- $ecx
	#DEBUG_VALUE: read_one_frame:source <- $rbx
	#DEBUG_VALUE: read_one_frame:output <- $rbp
	#DEBUG_VALUE: read_one_frame:pImage <- [DW_OP_plus_uconst 208] [$rsp+0]
	#DEBUG_VALUE: read_one_frame:file_read <- 0
	#DEBUG_VALUE: read_one_frame:symbol_size_in_bytes <- $r14d
	.loc	0 599 85                        # ldecod_src/input.c:599:85
	cmpl	$3, (%rbx)
	sete	%r15b
	jmp	.LBB8_3
.Ltmp462:
.LBB8_1:
	#DEBUG_VALUE: read_one_frame:p_Vid <- $r12
	#DEBUG_VALUE: read_one_frame:input_file <- $r13
	#DEBUG_VALUE: read_one_frame:FrameNoInFile <- $edx
	#DEBUG_VALUE: read_one_frame:HeaderSize <- $ecx
	#DEBUG_VALUE: read_one_frame:source <- $rbx
	#DEBUG_VALUE: read_one_frame:output <- $rbp
	#DEBUG_VALUE: read_one_frame:pImage <- [DW_OP_plus_uconst 208] [$rsp+0]
	#DEBUG_VALUE: read_one_frame:file_read <- 0
	#DEBUG_VALUE: read_one_frame:symbol_size_in_bytes <- $r14d
	.loc	0 0 85                          # ldecod_src/input.c:0:85
	xorl	%r15d, %r15d
.Ltmp463:
.LBB8_3:                                # %land.end
	#DEBUG_VALUE: read_one_frame:p_Vid <- $r12
	#DEBUG_VALUE: read_one_frame:input_file <- $r13
	#DEBUG_VALUE: read_one_frame:FrameNoInFile <- $edx
	#DEBUG_VALUE: read_one_frame:HeaderSize <- $ecx
	#DEBUG_VALUE: read_one_frame:source <- $rbx
	#DEBUG_VALUE: read_one_frame:output <- $rbp
	#DEBUG_VALUE: read_one_frame:pImage <- [DW_OP_plus_uconst 208] [$rsp+0]
	#DEBUG_VALUE: read_one_frame:file_read <- 0
	#DEBUG_VALUE: read_one_frame:symbol_size_in_bytes <- $r14d
	movq	(%r12), %rdi
.Ltmp464:
	#DEBUG_VALUE: read_one_frame:p_Inp <- $rdi
	movl	72(%rbx), %eax
	imull	%r14d, %eax
	movl	%eax, 28(%rsp)                  # 4-byte Spill
	movl	76(%rbx), %eax
	imull	%r14d, %eax
.Ltmp465:
	#DEBUG_VALUE: read_one_frame:rgb_input <- [DW_OP_LLVM_convert 1 7, DW_OP_LLVM_convert 32 7, DW_OP_stack_value] $r15b
	movl	%eax, 24(%rsp)                  # 4-byte Spill
.Ltmp466:
	.loc	0 601 34 is_stmt 1              # ldecod_src/input.c:601:34
	cmpl	$0, 912(%r13)
.Ltmp467:
	.loc	0 601 6 is_stmt 0               # ldecod_src/input.c:601:6
	je	.LBB8_4
.Ltmp468:
# %bb.7:                                # %if.else11
	#DEBUG_VALUE: read_one_frame:p_Vid <- $r12
	#DEBUG_VALUE: read_one_frame:input_file <- $r13
	#DEBUG_VALUE: read_one_frame:FrameNoInFile <- $edx
	#DEBUG_VALUE: read_one_frame:HeaderSize <- $ecx
	#DEBUG_VALUE: read_one_frame:source <- $rbx
	#DEBUG_VALUE: read_one_frame:output <- $rbp
	#DEBUG_VALUE: read_one_frame:pImage <- [DW_OP_plus_uconst 208] [$rsp+0]
	#DEBUG_VALUE: read_one_frame:p_Inp <- $rdi
	#DEBUG_VALUE: read_one_frame:file_read <- 0
	#DEBUG_VALUE: read_one_frame:symbol_size_in_bytes <- $r14d
	#DEBUG_VALUE: read_one_frame:rgb_input <- [DW_OP_LLVM_convert 1 7, DW_OP_LLVM_convert 32 7, DW_OP_stack_value] $r15b
	.loc	0 614 99 is_stmt 1              # ldecod_src/input.c:614:99
	movq	849288(%r12), %r9
	.loc	0 614 15 is_stmt 0              # ldecod_src/input.c:614:15
	movq	%r13, %rsi
	movq	%rbx, %r8
	callq	ReadFrameConcatenated@PLT
.Ltmp469:
	#DEBUG_VALUE: read_one_frame:HeaderSize <- [DW_OP_LLVM_entry_value 1] $ecx
	#DEBUG_VALUE: read_one_frame:FrameNoInFile <- [DW_OP_LLVM_entry_value 1] $edx
	#DEBUG_VALUE: read_one_frame:file_read <- $eax
	#DEBUG_VALUE: read_one_frame:file_read <- $eax
	.loc	0 0 15                          # ldecod_src/input.c:0:15
	movl	%eax, 100(%rsp)                 # 4-byte Spill
.Ltmp470:
	#DEBUG_VALUE: read_one_frame:file_read <- [DW_OP_plus_uconst 100, DW_OP_deref] $rsp
	.loc	0 616 9 is_stmt 1               # ldecod_src/input.c:616:9
	testl	%eax, %eax
.Ltmp471:
	.loc	0 616 8 is_stmt 0               # ldecod_src/input.c:616:8
	jne	.LBB8_9
	jmp	.LBB8_34
.Ltmp472:
.LBB8_4:                                # %if.then
	#DEBUG_VALUE: read_one_frame:p_Vid <- $r12
	#DEBUG_VALUE: read_one_frame:input_file <- $r13
	#DEBUG_VALUE: read_one_frame:FrameNoInFile <- $edx
	#DEBUG_VALUE: read_one_frame:HeaderSize <- $ecx
	#DEBUG_VALUE: read_one_frame:source <- $rbx
	#DEBUG_VALUE: read_one_frame:output <- $rbp
	#DEBUG_VALUE: read_one_frame:pImage <- [DW_OP_plus_uconst 208] [$rsp+0]
	#DEBUG_VALUE: read_one_frame:p_Inp <- $rdi
	#DEBUG_VALUE: read_one_frame:file_read <- 0
	#DEBUG_VALUE: read_one_frame:symbol_size_in_bytes <- $r14d
	#DEBUG_VALUE: read_one_frame:rgb_input <- [DW_OP_LLVM_convert 1 7, DW_OP_LLVM_convert 32 7, DW_OP_stack_value] $r15b
	.loc	0 603 26 is_stmt 1              # ldecod_src/input.c:603:26
	cmpl	$3, 772(%r13)
	.loc	0 0 0 is_stmt 0                 # ldecod_src/input.c:0:0
	movq	849288(%r12), %r9
.Ltmp473:
	.loc	0 609 16 is_stmt 1              # ldecod_src/input.c:609:16
	movq	%r13, %rsi
.Ltmp474:
	.loc	0 603 7                         # ldecod_src/input.c:603:7
	jne	.LBB8_6
.Ltmp475:
# %bb.5:                                # %if.then8
	#DEBUG_VALUE: read_one_frame:p_Vid <- $r12
	#DEBUG_VALUE: read_one_frame:input_file <- $r13
	#DEBUG_VALUE: read_one_frame:FrameNoInFile <- $edx
	#DEBUG_VALUE: read_one_frame:HeaderSize <- $ecx
	#DEBUG_VALUE: read_one_frame:source <- $rbx
	#DEBUG_VALUE: read_one_frame:output <- $rbp
	#DEBUG_VALUE: read_one_frame:pImage <- [DW_OP_plus_uconst 208] [$rsp+0]
	#DEBUG_VALUE: read_one_frame:p_Inp <- $rdi
	#DEBUG_VALUE: read_one_frame:file_read <- 0
	#DEBUG_VALUE: read_one_frame:symbol_size_in_bytes <- $r14d
	#DEBUG_VALUE: read_one_frame:rgb_input <- [DW_OP_LLVM_convert 1 7, DW_OP_LLVM_convert 32 7, DW_OP_stack_value] $r15b
	.loc	0 605 16                        # ldecod_src/input.c:605:16
	movq	%rbx, %rcx
.Ltmp476:
	#DEBUG_VALUE: read_one_frame:HeaderSize <- [DW_OP_LLVM_entry_value 1] $ecx
	movq	%r9, %r8
	callq	ReadTIFFImage@PLT
.Ltmp477:
	#DEBUG_VALUE: read_one_frame:FrameNoInFile <- [DW_OP_LLVM_entry_value 1] $edx
	#DEBUG_VALUE: read_one_frame:file_read <- $eax
	#DEBUG_VALUE: read_one_frame:file_read <- $eax
	.loc	0 0 16 is_stmt 0                # ldecod_src/input.c:0:16
	movl	%eax, 100(%rsp)                 # 4-byte Spill
.Ltmp478:
	#DEBUG_VALUE: read_one_frame:file_read <- [DW_OP_plus_uconst 100, DW_OP_deref] $rsp
	.loc	0 616 9 is_stmt 1               # ldecod_src/input.c:616:9
	testl	%eax, %eax
.Ltmp479:
	.loc	0 616 8 is_stmt 0               # ldecod_src/input.c:616:8
	jne	.LBB8_9
	jmp	.LBB8_34
.Ltmp480:
.LBB8_6:                                # %if.else
	#DEBUG_VALUE: read_one_frame:p_Vid <- $r12
	#DEBUG_VALUE: read_one_frame:input_file <- $r13
	#DEBUG_VALUE: read_one_frame:FrameNoInFile <- $edx
	#DEBUG_VALUE: read_one_frame:HeaderSize <- $ecx
	#DEBUG_VALUE: read_one_frame:source <- $rbx
	#DEBUG_VALUE: read_one_frame:output <- $rbp
	#DEBUG_VALUE: read_one_frame:pImage <- [DW_OP_plus_uconst 208] [$rsp+0]
	#DEBUG_VALUE: read_one_frame:p_Inp <- $rdi
	#DEBUG_VALUE: read_one_frame:file_read <- 0
	#DEBUG_VALUE: read_one_frame:symbol_size_in_bytes <- $r14d
	#DEBUG_VALUE: read_one_frame:rgb_input <- [DW_OP_LLVM_convert 1 7, DW_OP_LLVM_convert 32 7, DW_OP_stack_value] $r15b
	.loc	0 609 16 is_stmt 1              # ldecod_src/input.c:609:16
	movq	%rbx, %r8
	callq	ReadFrameSeparate@PLT
.Ltmp481:
	#DEBUG_VALUE: read_one_frame:HeaderSize <- [DW_OP_LLVM_entry_value 1] $ecx
	#DEBUG_VALUE: read_one_frame:FrameNoInFile <- [DW_OP_LLVM_entry_value 1] $edx
	#DEBUG_VALUE: read_one_frame:file_read <- $eax
	#DEBUG_VALUE: read_one_frame:file_read <- $eax
	.loc	0 0 16 is_stmt 0                # ldecod_src/input.c:0:16
	movl	%eax, 100(%rsp)                 # 4-byte Spill
.Ltmp482:
	#DEBUG_VALUE: read_one_frame:file_read <- [DW_OP_plus_uconst 100, DW_OP_deref] $rsp
	.loc	0 616 9 is_stmt 1               # ldecod_src/input.c:616:9
	testl	%eax, %eax
.Ltmp483:
	.loc	0 616 8 is_stmt 0               # ldecod_src/input.c:616:8
	je	.LBB8_34
.Ltmp484:
.LBB8_9:                                # %if.end16
	#DEBUG_VALUE: read_one_frame:p_Vid <- $r12
	#DEBUG_VALUE: read_one_frame:input_file <- $r13
	#DEBUG_VALUE: read_one_frame:FrameNoInFile <- [DW_OP_LLVM_entry_value 1] $edx
	#DEBUG_VALUE: read_one_frame:HeaderSize <- [DW_OP_LLVM_entry_value 1] $ecx
	#DEBUG_VALUE: read_one_frame:source <- $rbx
	#DEBUG_VALUE: read_one_frame:output <- $rbp
	#DEBUG_VALUE: read_one_frame:pImage <- [DW_OP_plus_uconst 208] [$rsp+0]
	#DEBUG_VALUE: read_one_frame:file_read <- $eax
	#DEBUG_VALUE: read_one_frame:symbol_size_in_bytes <- $r14d
	#DEBUG_VALUE: read_one_frame:rgb_input <- [DW_OP_LLVM_convert 1 7, DW_OP_LLVM_convert 32 7, DW_OP_stack_value] $r15b
	.loc	0 0 8                           # ldecod_src/input.c:0:8
	movl	%r15d, 96(%rsp)                 # 4-byte Spill
.Ltmp485:
	#DEBUG_VALUE: read_one_frame:rgb_input <- [DW_OP_plus_uconst 96, DW_OP_deref_size 1, DW_OP_LLVM_convert 1 7, DW_OP_LLVM_convert 32 7, DW_OP_stack_value] $rsp
	movq	%rbx, 8(%rsp)                   # 8-byte Spill
.Ltmp486:
	#DEBUG_VALUE: read_one_frame:source <- [DW_OP_plus_uconst 8] [$rsp+0]
	.loc	0 622 6 is_stmt 1               # ldecod_src/input.c:622:6
	cmpl	$0, 916(%r13)
.Ltmp487:
	.loc	0 622 6 is_stmt 0               # ldecod_src/input.c:622:6
	je	.LBB8_28
.Ltmp488:
# %bb.10:                               # %if.then18
	#DEBUG_VALUE: read_one_frame:p_Vid <- $r12
	#DEBUG_VALUE: read_one_frame:input_file <- $r13
	#DEBUG_VALUE: read_one_frame:FrameNoInFile <- [DW_OP_LLVM_entry_value 1] $edx
	#DEBUG_VALUE: read_one_frame:HeaderSize <- [DW_OP_LLVM_entry_value 1] $ecx
	#DEBUG_VALUE: read_one_frame:source <- [DW_OP_plus_uconst 8] [$rsp+0]
	#DEBUG_VALUE: read_one_frame:output <- $rbp
	#DEBUG_VALUE: read_one_frame:pImage <- [DW_OP_plus_uconst 208] [$rsp+0]
	#DEBUG_VALUE: read_one_frame:file_read <- $eax
	#DEBUG_VALUE: read_one_frame:symbol_size_in_bytes <- $r14d
	#DEBUG_VALUE: read_one_frame:rgb_input <- [DW_OP_plus_uconst 96, DW_OP_deref_size 1, DW_OP_LLVM_convert 1 7, DW_OP_LLVM_convert 32 7, DW_OP_stack_value] $rsp
	#DEBUG_VALUE: deinterleave:source <- [DW_OP_plus_uconst 8, DW_OP_deref] $rsp
	#DEBUG_VALUE: deinterleave:input <- [DW_OP_plus_uconst 849288, DW_OP_stack_value] $r12
	#DEBUG_VALUE: deinterleave:output <- [DW_OP_plus_uconst 849296, DW_OP_stack_value] $r12
	.loc	0 139 26 is_stmt 1              # ldecod_src/input.c:139:26
	movq	849288(%r12), %r10
.Ltmp489:
	#DEBUG_VALUE: deinterleave:icmp0 <- $r10
	.loc	0 141 26                        # ldecod_src/input.c:141:26
	movq	849296(%r12), %rsi
.Ltmp490:
	#DEBUG_VALUE: deinterleave:ocmp0 <- $rsi
	.loc	0 0 26 is_stmt 0                # ldecod_src/input.c:0:26
	movq	8(%rsp), %rcx                   # 8-byte Reload
	movl	72(%rcx), %eax
.Ltmp491:
	.loc	0 143 55 is_stmt 1              # ldecod_src/input.c:143:55
	imull	%r14d, %eax
	.loc	0 143 32 is_stmt 0              # ldecod_src/input.c:143:32
	movslq	%eax, %r8
	leaq	(%rsi,%r8), %rdi
.Ltmp492:
	#DEBUG_VALUE: deinterleave:ocmp1 <- $rdi
	.loc	0 148 15 is_stmt 1              # ldecod_src/input.c:148:15
	movl	(%rcx), %eax
.Ltmp493:
	.loc	0 144 57                        # ldecod_src/input.c:144:57
	movl	76(%rcx), %ecx
	.loc	0 144 55 is_stmt 0              # ldecod_src/input.c:144:55
	movl	%ecx, %edx
	movq	%r14, 48(%rsp)                  # 8-byte Spill
.Ltmp494:
	#DEBUG_VALUE: read_one_frame:symbol_size_in_bytes <- [DW_OP_plus_uconst 48, DW_OP_deref] $rsp
	imull	%r14d, %edx
	.loc	0 144 32                        # ldecod_src/input.c:144:32
	movslq	%edx, %r9
	leaq	(%rdi,%r9), %rdx
.Ltmp495:
	#DEBUG_VALUE: deinterleave:ocmp2 <- $rdx
	.loc	0 148 26 is_stmt 1              # ldecod_src/input.c:148:26
	cmpl	$1, %eax
.Ltmp496:
	#DEBUG_VALUE: deinterleave:symbol_size_in_bytes <- undef
	.loc	0 148 7 is_stmt 0               # ldecod_src/input.c:148:7
	jne	.LBB8_11
.Ltmp497:
# %bb.12:                               # %for.cond.preheader.i
	#DEBUG_VALUE: read_one_frame:p_Vid <- $r12
	#DEBUG_VALUE: read_one_frame:input_file <- $r13
	#DEBUG_VALUE: read_one_frame:FrameNoInFile <- [DW_OP_LLVM_entry_value 1] $edx
	#DEBUG_VALUE: read_one_frame:HeaderSize <- [DW_OP_LLVM_entry_value 1] $ecx
	#DEBUG_VALUE: read_one_frame:source <- [DW_OP_plus_uconst 8] [$rsp+0]
	#DEBUG_VALUE: read_one_frame:output <- $rbp
	#DEBUG_VALUE: read_one_frame:pImage <- [DW_OP_plus_uconst 208] [$rsp+0]
	#DEBUG_VALUE: read_one_frame:symbol_size_in_bytes <- [DW_OP_plus_uconst 48, DW_OP_deref] $rsp
	#DEBUG_VALUE: read_one_frame:rgb_input <- [DW_OP_plus_uconst 96, DW_OP_deref_size 1, DW_OP_LLVM_convert 1 7, DW_OP_LLVM_convert 32 7, DW_OP_stack_value] $rsp
	#DEBUG_VALUE: deinterleave:source <- [DW_OP_plus_uconst 8, DW_OP_deref] $rsp
	#DEBUG_VALUE: deinterleave:input <- [DW_OP_plus_uconst 849288, DW_OP_stack_value] $r12
	#DEBUG_VALUE: deinterleave:output <- [DW_OP_plus_uconst 849296, DW_OP_stack_value] $r12
	#DEBUG_VALUE: deinterleave:icmp0 <- $r10
	#DEBUG_VALUE: deinterleave:ocmp0 <- $rsi
	#DEBUG_VALUE: deinterleave:ocmp1 <- $rdi
	#DEBUG_VALUE: deinterleave:ocmp2 <- $rdx
	#DEBUG_VALUE: deinterleave:i <- 0
	#DEBUG_VALUE: deinterleave:ocmp2 <- $rdx
	#DEBUG_VALUE: deinterleave:ocmp1 <- $rdi
	#DEBUG_VALUE: deinterleave:ocmp0 <- $rsi
	#DEBUG_VALUE: deinterleave:icmp0 <- $r10
	.loc	0 150 19 is_stmt 1              # ldecod_src/input.c:150:19
	testl	%ecx, %ecx
.Ltmp498:
	.loc	0 150 5 is_stmt 0               # ldecod_src/input.c:150:5
	jle	.LBB8_13
.Ltmp499:
# %bb.14:                               # %for.body.lr.ph.i
	#DEBUG_VALUE: read_one_frame:p_Vid <- $r12
	#DEBUG_VALUE: read_one_frame:input_file <- $r13
	#DEBUG_VALUE: read_one_frame:FrameNoInFile <- [DW_OP_LLVM_entry_value 1] $edx
	#DEBUG_VALUE: read_one_frame:HeaderSize <- [DW_OP_LLVM_entry_value 1] $ecx
	#DEBUG_VALUE: read_one_frame:source <- [DW_OP_plus_uconst 8] [$rsp+0]
	#DEBUG_VALUE: read_one_frame:output <- $rbp
	#DEBUG_VALUE: read_one_frame:pImage <- [DW_OP_plus_uconst 208] [$rsp+0]
	#DEBUG_VALUE: read_one_frame:symbol_size_in_bytes <- [DW_OP_plus_uconst 48, DW_OP_deref] $rsp
	#DEBUG_VALUE: read_one_frame:rgb_input <- [DW_OP_plus_uconst 96, DW_OP_deref_size 1, DW_OP_LLVM_convert 1 7, DW_OP_LLVM_convert 32 7, DW_OP_stack_value] $rsp
	#DEBUG_VALUE: deinterleave:source <- [DW_OP_plus_uconst 8, DW_OP_deref] $rsp
	#DEBUG_VALUE: deinterleave:input <- [DW_OP_plus_uconst 849288, DW_OP_stack_value] $r12
	#DEBUG_VALUE: deinterleave:output <- [DW_OP_plus_uconst 849296, DW_OP_stack_value] $r12
	#DEBUG_VALUE: deinterleave:icmp0 <- $r10
	#DEBUG_VALUE: deinterleave:ocmp0 <- $rsi
	#DEBUG_VALUE: deinterleave:ocmp1 <- $rdi
	#DEBUG_VALUE: deinterleave:ocmp2 <- $rdx
	#DEBUG_VALUE: deinterleave:i <- 0
	.loc	0 0 5                           # ldecod_src/input.c:0:5
	movq	%rbp, 32(%rsp)                  # 8-byte Spill
.Ltmp500:
	#DEBUG_VALUE: read_one_frame:output <- [DW_OP_plus_uconst 32] [$rsp+0]
	movq	%r12, 40(%rsp)                  # 8-byte Spill
.Ltmp501:
	#DEBUG_VALUE: deinterleave:output <- [DW_OP_plus_uconst 40, DW_OP_deref, DW_OP_plus_uconst 849296, DW_OP_stack_value] $rsp
	#DEBUG_VALUE: deinterleave:input <- [DW_OP_plus_uconst 40, DW_OP_deref, DW_OP_plus_uconst 849288, DW_OP_stack_value] $rsp
	#DEBUG_VALUE: read_one_frame:p_Vid <- [DW_OP_plus_uconst 40] [$rsp+0]
	movq	48(%rsp), %rcx                  # 8-byte Reload
	leal	(%rcx,%rcx), %eax
	movslq	%eax, %rbx
	.loc	0 150 5                         # ldecod_src/input.c:150:5
	addq	%r8, %r9
	leaq	(%rbx,%rbx), %rax
	movq	%rax, 128(%rsp)                 # 8-byte Spill
	leaq	(%rbx,%rcx,2), %rax
	movq	%rax, 120(%rsp)                 # 8-byte Spill
	leaq	(%rcx,%rbx), %rax
	movq	%rax, 112(%rsp)                 # 8-byte Spill
	xorl	%ecx, %ecx
	movq	%rsi, 104(%rsp)                 # 8-byte Spill
.Ltmp502:
	#DEBUG_VALUE: deinterleave:ocmp0 <- [DW_OP_plus_uconst 104, DW_OP_deref] $rsp
	.loc	0 0 5                           # ldecod_src/input.c:0:5
	movq	%rbx, 136(%rsp)                 # 8-byte Spill
	movq	%rbx, 16(%rsp)                  # 8-byte Spill
	xorl	%edx, %edx
.Ltmp503:
	movq	48(%rsp), %r14                  # 8-byte Reload
.Ltmp504:
	.p2align	4, 0x90
.LBB8_15:                               # %for.body.i
                                        # =>This Inner Loop Header: Depth=1
	#DEBUG_VALUE: read_one_frame:p_Vid <- [DW_OP_plus_uconst 40] [$rsp+0]
	#DEBUG_VALUE: read_one_frame:input_file <- [DW_OP_LLVM_entry_value 1] $rsi
	#DEBUG_VALUE: read_one_frame:FrameNoInFile <- [DW_OP_LLVM_entry_value 1] $edx
	#DEBUG_VALUE: read_one_frame:HeaderSize <- [DW_OP_LLVM_entry_value 1] $ecx
	#DEBUG_VALUE: read_one_frame:source <- [DW_OP_plus_uconst 8] [$rsp+0]
	#DEBUG_VALUE: read_one_frame:output <- [DW_OP_plus_uconst 32] [$rsp+0]
	#DEBUG_VALUE: read_one_frame:pImage <- [DW_OP_plus_uconst 208] [$rsp+0]
	#DEBUG_VALUE: read_one_frame:symbol_size_in_bytes <- [DW_OP_plus_uconst 48, DW_OP_deref] $rsp
	#DEBUG_VALUE: read_one_frame:rgb_input <- [DW_OP_plus_uconst 96, DW_OP_deref_size 1, DW_OP_LLVM_convert 1 7, DW_OP_LLVM_convert 32 7, DW_OP_stack_value] $rsp
	#DEBUG_VALUE: deinterleave:source <- [DW_OP_plus_uconst 8, DW_OP_deref] $rsp
	#DEBUG_VALUE: deinterleave:input <- [DW_OP_plus_uconst 40, DW_OP_deref, DW_OP_plus_uconst 849288, DW_OP_stack_value] $rsp
	#DEBUG_VALUE: deinterleave:output <- [DW_OP_plus_uconst 40, DW_OP_deref, DW_OP_plus_uconst 849296, DW_OP_stack_value] $rsp
	#DEBUG_VALUE: deinterleave:icmp0 <- $r10
	#DEBUG_VALUE: deinterleave:ocmp2 <- [DW_OP_LLVM_arg 0, DW_OP_LLVM_arg 0, DW_OP_LLVM_arg 0, DW_OP_mul, DW_OP_LLVM_convert 64 5, DW_OP_LLVM_arg 0, DW_OP_LLVM_arg 0, DW_OP_mul, DW_OP_LLVM_convert 64 5, DW_OP_plus, DW_OP_minus, DW_OP_LLVM_arg 0, DW_OP_LLVM_convert 64 5, DW_OP_div, DW_OP_LLVM_arg 0, DW_OP_LLVM_convert 64 5, DW_OP_mul, DW_OP_LLVM_arg 0, DW_OP_LLVM_arg 0, DW_OP_mul, DW_OP_LLVM_convert 64 5, DW_OP_LLVM_arg 0, DW_OP_LLVM_arg 0, DW_OP_mul, DW_OP_LLVM_convert 64 5, DW_OP_plus, DW_OP_LLVM_arg 0, DW_OP_plus, DW_OP_plus, DW_OP_stack_value] undef
	#DEBUG_VALUE: deinterleave:ocmp1 <- [DW_OP_LLVM_arg 0, DW_OP_LLVM_arg 0, DW_OP_LLVM_arg 0, DW_OP_mul, DW_OP_LLVM_convert 64 5, DW_OP_LLVM_arg 0, DW_OP_LLVM_arg 0, DW_OP_mul, DW_OP_LLVM_convert 64 5, DW_OP_plus, DW_OP_minus, DW_OP_LLVM_arg 0, DW_OP_LLVM_convert 64 5, DW_OP_div, DW_OP_LLVM_arg 0, DW_OP_LLVM_convert 64 5, DW_OP_mul, DW_OP_LLVM_arg 0, DW_OP_LLVM_arg 0, DW_OP_mul, DW_OP_LLVM_convert 64 5, DW_OP_LLVM_arg 0, DW_OP_plus, DW_OP_plus, DW_OP_stack_value] undef
	#DEBUG_VALUE: deinterleave:ocmp0 <- [DW_OP_LLVM_arg 0, DW_OP_LLVM_arg 0, DW_OP_LLVM_arg 0, DW_OP_mul, DW_OP_LLVM_convert 64 5, DW_OP_LLVM_arg 0, DW_OP_LLVM_arg 0, DW_OP_mul, DW_OP_LLVM_convert 64 5, DW_OP_plus, DW_OP_minus, DW_OP_LLVM_arg 0, DW_OP_LLVM_convert 64 5, DW_OP_div, DW_OP_consts 2, DW_OP_consts 2, DW_OP_LLVM_arg 0, DW_OP_mul, DW_OP_LLVM_convert 64 5, DW_OP_mul, DW_OP_mul, DW_OP_LLVM_arg 0, DW_OP_plus, DW_OP_stack_value] undef
	#DEBUG_VALUE: deinterleave:i <- $edx
	#DEBUG_VALUE: deinterleave:icmp0 <- $r10
	movl	%edx, 80(%rsp)                  # 4-byte Spill
.Ltmp505:
	#DEBUG_VALUE: deinterleave:i <- [DW_OP_plus_uconst 80, DW_OP_deref] $rsp
	movq	%r9, 88(%rsp)                   # 8-byte Spill
	movq	%r8, 56(%rsp)                   # 8-byte Spill
	movq	%rcx, 64(%rsp)                  # 8-byte Spill
	movq	104(%rsp), %r12                 # 8-byte Reload
.Ltmp506:
	.loc	0 152 7 is_stmt 1               # ldecod_src/input.c:152:7
	leaq	(%r12,%r9), %rax
	movq	%rax, 72(%rsp)                  # 8-byte Spill
	leaq	(%r12,%r8), %rdi
	leaq	(%r12,%rcx), %rbx
	movq	%r10, %rsi
	movq	%r14, %rdx
	movq	%r10, %r13
.Ltmp507:
	#DEBUG_VALUE: deinterleave:icmp0 <- $r13
	callq	memcpy@PLT
.Ltmp508:
	#DEBUG_VALUE: deinterleave:ocmp1 <- [DW_OP_LLVM_arg 0, DW_OP_LLVM_arg 0, DW_OP_LLVM_arg 0, DW_OP_mul, DW_OP_LLVM_convert 64 5, DW_OP_LLVM_arg 0, DW_OP_LLVM_arg 0, DW_OP_mul, DW_OP_LLVM_convert 64 5, DW_OP_plus, DW_OP_minus, DW_OP_LLVM_arg 0, DW_OP_LLVM_convert 64 5, DW_OP_div, DW_OP_LLVM_arg 0, DW_OP_LLVM_convert 64 5, DW_OP_mul, DW_OP_LLVM_arg 0, DW_OP_LLVM_arg 0, DW_OP_mul, DW_OP_LLVM_convert 64 5, DW_OP_LLVM_arg 0, DW_OP_LLVM_convert 64 5, DW_OP_plus, DW_OP_LLVM_arg 0, DW_OP_plus, DW_OP_plus, DW_OP_stack_value] undef
	.loc	0 154 13                        # ldecod_src/input.c:154:13
	leaq	(%r14,%r13), %rbp
.Ltmp509:
	#DEBUG_VALUE: deinterleave:icmp0 <- $rbp
	.loc	0 155 7                         # ldecod_src/input.c:155:7
	movq	%rbx, %rdi
	movq	%rbp, %rsi
	movq	136(%rsp), %rbx                 # 8-byte Reload
	movq	%rbx, %rdx
	callq	memcpy@PLT
.Ltmp510:
	#DEBUG_VALUE: deinterleave:ocmp0 <- [DW_OP_LLVM_arg 0, DW_OP_LLVM_arg 0, DW_OP_LLVM_arg 0, DW_OP_mul, DW_OP_LLVM_convert 64 5, DW_OP_LLVM_arg 0, DW_OP_LLVM_arg 0, DW_OP_mul, DW_OP_LLVM_convert 64 5, DW_OP_plus, DW_OP_minus, DW_OP_LLVM_arg 0, DW_OP_LLVM_convert 64 5, DW_OP_div, DW_OP_consts 2, DW_OP_consts 2, DW_OP_LLVM_arg 0, DW_OP_mul, DW_OP_LLVM_convert 64 5, DW_OP_mul, DW_OP_mul, DW_OP_consts 2, DW_OP_LLVM_arg 0, DW_OP_mul, DW_OP_LLVM_convert 64 5, DW_OP_LLVM_arg 0, DW_OP_plus, DW_OP_plus, DW_OP_stack_value] undef
	.loc	0 0 7 is_stmt 0                 # ldecod_src/input.c:0:7
	movq	16(%rsp), %r15                  # 8-byte Reload
	.loc	0 157 13 is_stmt 1              # ldecod_src/input.c:157:13
	leaq	(%r12,%r15), %rax
	movq	%rax, 144(%rsp)                 # 8-byte Spill
	addq	%rbx, %rbp
.Ltmp511:
	#DEBUG_VALUE: deinterleave:icmp0 <- $rbp
	.loc	0 0 13 is_stmt 0                # ldecod_src/input.c:0:13
	movq	112(%rsp), %r12                 # 8-byte Reload
	.loc	0 158 7 is_stmt 1               # ldecod_src/input.c:158:7
	leaq	(%r12,%r13), %rsi
	movq	72(%rsp), %rdi                  # 8-byte Reload
	movq	%r14, %rdx
	callq	memcpy@PLT
.Ltmp512:
	#DEBUG_VALUE: deinterleave:ocmp2 <- [DW_OP_LLVM_arg 0, DW_OP_LLVM_arg 0, DW_OP_LLVM_arg 0, DW_OP_mul, DW_OP_LLVM_convert 64 5, DW_OP_LLVM_arg 0, DW_OP_LLVM_arg 0, DW_OP_mul, DW_OP_LLVM_convert 64 5, DW_OP_plus, DW_OP_minus, DW_OP_LLVM_arg 0, DW_OP_LLVM_convert 64 5, DW_OP_div, DW_OP_LLVM_arg 0, DW_OP_LLVM_convert 64 5, DW_OP_mul, DW_OP_LLVM_arg 0, DW_OP_LLVM_arg 0, DW_OP_mul, DW_OP_LLVM_convert 64 5, DW_OP_LLVM_arg 0, DW_OP_LLVM_arg 0, DW_OP_mul, DW_OP_LLVM_convert 64 5, DW_OP_plus, DW_OP_LLVM_arg 0, DW_OP_LLVM_convert 64 5, DW_OP_plus, DW_OP_LLVM_arg 0, DW_OP_plus, DW_OP_plus, DW_OP_stack_value] undef
	#DEBUG_VALUE: deinterleave:icmp0 <- undef
	.loc	0 161 7                         # ldecod_src/input.c:161:7
	addq	120(%rsp), %r13                 # 8-byte Folded Reload
	movq	144(%rsp), %rdi                 # 8-byte Reload
	movq	%r13, %rsi
	movq	%rbx, %rdx
	callq	memcpy@PLT
.Ltmp513:
	.loc	0 0 7 is_stmt 0                 # ldecod_src/input.c:0:7
	movl	80(%rsp), %edx                  # 4-byte Reload
	movq	88(%rsp), %r9                   # 8-byte Reload
	movq	56(%rsp), %r8                   # 8-byte Reload
	movq	64(%rsp), %rcx                  # 8-byte Reload
.Ltmp514:
	#DEBUG_VALUE: deinterleave:ocmp0 <- [DW_OP_LLVM_arg 0, DW_OP_LLVM_arg 0, DW_OP_LLVM_arg 0, DW_OP_mul, DW_OP_LLVM_convert 64 5, DW_OP_LLVM_arg 0, DW_OP_LLVM_arg 0, DW_OP_mul, DW_OP_LLVM_convert 64 5, DW_OP_plus, DW_OP_minus, DW_OP_LLVM_arg 0, DW_OP_LLVM_convert 64 5, DW_OP_div, DW_OP_consts 2, DW_OP_consts 2, DW_OP_LLVM_arg 0, DW_OP_mul, DW_OP_LLVM_convert 64 5, DW_OP_mul, DW_OP_mul, DW_OP_consts 2, DW_OP_consts 2, DW_OP_LLVM_arg 0, DW_OP_mul, DW_OP_LLVM_convert 64 5, DW_OP_mul, DW_OP_LLVM_arg 0, DW_OP_plus, DW_OP_plus, DW_OP_stack_value] undef
	.loc	0 163 13 is_stmt 1              # ldecod_src/input.c:163:13
	addq	%r12, %rbp
.Ltmp515:
	#DEBUG_VALUE: deinterleave:icmp0 <- $rbp
	.loc	0 150 43                        # ldecod_src/input.c:150:43
	incl	%edx
.Ltmp516:
	#DEBUG_VALUE: deinterleave:i <- $edx
	.loc	0 150 19 is_stmt 0              # ldecod_src/input.c:150:19
	addq	%r14, %r9
	addq	%r14, %r8
	movq	128(%rsp), %rax                 # 8-byte Reload
	addq	%rax, %rcx
	addq	%rax, %r15
	movq	%r15, 16(%rsp)                  # 8-byte Spill
	movq	%rbp, %r10
	movq	8(%rsp), %rax                   # 8-byte Reload
	cmpl	76(%rax), %edx
.Ltmp517:
	.loc	0 150 5                         # ldecod_src/input.c:150:5
	jl	.LBB8_15
.Ltmp518:
# %bb.16:                               # %for.end.loopexit.i
	#DEBUG_VALUE: read_one_frame:p_Vid <- [DW_OP_plus_uconst 40] [$rsp+0]
	#DEBUG_VALUE: read_one_frame:input_file <- [DW_OP_LLVM_entry_value 1] $rsi
	#DEBUG_VALUE: read_one_frame:FrameNoInFile <- [DW_OP_LLVM_entry_value 1] $edx
	#DEBUG_VALUE: read_one_frame:HeaderSize <- [DW_OP_LLVM_entry_value 1] $ecx
	#DEBUG_VALUE: read_one_frame:source <- [DW_OP_plus_uconst 8] [$rsp+0]
	#DEBUG_VALUE: read_one_frame:output <- [DW_OP_plus_uconst 32] [$rsp+0]
	#DEBUG_VALUE: read_one_frame:pImage <- [DW_OP_plus_uconst 208] [$rsp+0]
	#DEBUG_VALUE: read_one_frame:symbol_size_in_bytes <- [DW_OP_plus_uconst 48, DW_OP_deref] $rsp
	#DEBUG_VALUE: read_one_frame:rgb_input <- [DW_OP_plus_uconst 96, DW_OP_deref_size 1, DW_OP_LLVM_convert 1 7, DW_OP_LLVM_convert 32 7, DW_OP_stack_value] $rsp
	#DEBUG_VALUE: deinterleave:source <- [DW_OP_plus_uconst 8, DW_OP_deref] $rsp
	#DEBUG_VALUE: deinterleave:input <- [DW_OP_plus_uconst 40, DW_OP_deref, DW_OP_plus_uconst 849288, DW_OP_stack_value] $rsp
	#DEBUG_VALUE: deinterleave:output <- [DW_OP_plus_uconst 40, DW_OP_deref, DW_OP_plus_uconst 849296, DW_OP_stack_value] $rsp
	#DEBUG_VALUE: deinterleave:icmp0 <- $rbp
	#DEBUG_VALUE: deinterleave:i <- $edx
	.loc	0 0 5                           # ldecod_src/input.c:0:5
	movq	40(%rsp), %r12                  # 8-byte Reload
	.loc	0 167 14 is_stmt 1              # ldecod_src/input.c:167:14
	movq	849288(%r12), %r10
	movq	104(%rsp), %rax                 # 8-byte Reload
	addq	%rax, %r9
	addq	%rax, %r8
	addq	%rax, %rcx
	.loc	0 168 15                        # ldecod_src/input.c:168:15
	movq	849296(%r12), %rsi
	movq	%r8, %rdi
	movq	%r9, %rdx
.Ltmp519:
	.loc	0 0 15 is_stmt 0                # ldecod_src/input.c:0:15
	movq	32(%rsp), %rbp                  # 8-byte Reload
.Ltmp520:
	jmp	.LBB8_17
.Ltmp521:
.LBB8_11:
	#DEBUG_VALUE: read_one_frame:p_Vid <- $r12
	#DEBUG_VALUE: read_one_frame:input_file <- $r13
	#DEBUG_VALUE: read_one_frame:FrameNoInFile <- [DW_OP_LLVM_entry_value 1] $edx
	#DEBUG_VALUE: read_one_frame:HeaderSize <- [DW_OP_LLVM_entry_value 1] $ecx
	#DEBUG_VALUE: read_one_frame:source <- [DW_OP_plus_uconst 8] [$rsp+0]
	#DEBUG_VALUE: read_one_frame:output <- $rbp
	#DEBUG_VALUE: read_one_frame:pImage <- [DW_OP_plus_uconst 208] [$rsp+0]
	#DEBUG_VALUE: read_one_frame:symbol_size_in_bytes <- [DW_OP_plus_uconst 48, DW_OP_deref] $rsp
	#DEBUG_VALUE: read_one_frame:rgb_input <- [DW_OP_plus_uconst 96, DW_OP_deref_size 1, DW_OP_LLVM_convert 1 7, DW_OP_LLVM_convert 32 7, DW_OP_stack_value] $rsp
	#DEBUG_VALUE: deinterleave:source <- [DW_OP_plus_uconst 8, DW_OP_deref] $rsp
	#DEBUG_VALUE: deinterleave:input <- [DW_OP_plus_uconst 849288, DW_OP_stack_value] $r12
	#DEBUG_VALUE: deinterleave:output <- [DW_OP_plus_uconst 849296, DW_OP_stack_value] $r12
	#DEBUG_VALUE: deinterleave:icmp0 <- $r10
	#DEBUG_VALUE: deinterleave:ocmp0 <- $rsi
	#DEBUG_VALUE: deinterleave:ocmp1 <- $rdi
	#DEBUG_VALUE: deinterleave:ocmp2 <- $rdx
	movq	%r10, %r13
.Ltmp522:
	#DEBUG_VALUE: read_one_frame:input_file <- [DW_OP_LLVM_entry_value 1] $rsi
	movq	%rsi, %rcx
	jmp	.LBB8_18
.Ltmp523:
.LBB8_13:
	#DEBUG_VALUE: read_one_frame:p_Vid <- $r12
	#DEBUG_VALUE: read_one_frame:input_file <- $r13
	#DEBUG_VALUE: read_one_frame:FrameNoInFile <- [DW_OP_LLVM_entry_value 1] $edx
	#DEBUG_VALUE: read_one_frame:HeaderSize <- [DW_OP_LLVM_entry_value 1] $ecx
	#DEBUG_VALUE: read_one_frame:source <- [DW_OP_plus_uconst 8] [$rsp+0]
	#DEBUG_VALUE: read_one_frame:output <- $rbp
	#DEBUG_VALUE: read_one_frame:pImage <- [DW_OP_plus_uconst 208] [$rsp+0]
	#DEBUG_VALUE: read_one_frame:symbol_size_in_bytes <- [DW_OP_plus_uconst 48, DW_OP_deref] $rsp
	#DEBUG_VALUE: read_one_frame:rgb_input <- [DW_OP_plus_uconst 96, DW_OP_deref_size 1, DW_OP_LLVM_convert 1 7, DW_OP_LLVM_convert 32 7, DW_OP_stack_value] $rsp
	#DEBUG_VALUE: deinterleave:source <- [DW_OP_plus_uconst 8, DW_OP_deref] $rsp
	#DEBUG_VALUE: deinterleave:input <- [DW_OP_plus_uconst 849288, DW_OP_stack_value] $r12
	#DEBUG_VALUE: deinterleave:output <- [DW_OP_plus_uconst 849296, DW_OP_stack_value] $r12
	#DEBUG_VALUE: deinterleave:icmp0 <- $r10
	#DEBUG_VALUE: deinterleave:ocmp0 <- $rsi
	#DEBUG_VALUE: deinterleave:ocmp1 <- $rdi
	#DEBUG_VALUE: deinterleave:ocmp2 <- $rdx
	#DEBUG_VALUE: deinterleave:i <- 0
	movq	%rsi, %rcx
.Ltmp524:
.LBB8_17:                               # %for.end.i
	#DEBUG_VALUE: read_one_frame:p_Vid <- $r12
	#DEBUG_VALUE: read_one_frame:input_file <- [DW_OP_LLVM_entry_value 1] $rsi
	#DEBUG_VALUE: read_one_frame:FrameNoInFile <- [DW_OP_LLVM_entry_value 1] $edx
	#DEBUG_VALUE: read_one_frame:HeaderSize <- [DW_OP_LLVM_entry_value 1] $ecx
	#DEBUG_VALUE: read_one_frame:source <- [DW_OP_plus_uconst 8] [$rsp+0]
	#DEBUG_VALUE: read_one_frame:output <- $rbp
	#DEBUG_VALUE: read_one_frame:pImage <- [DW_OP_plus_uconst 208] [$rsp+0]
	#DEBUG_VALUE: read_one_frame:symbol_size_in_bytes <- [DW_OP_plus_uconst 48, DW_OP_deref] $rsp
	#DEBUG_VALUE: read_one_frame:rgb_input <- [DW_OP_plus_uconst 96, DW_OP_deref_size 1, DW_OP_LLVM_convert 1 7, DW_OP_LLVM_convert 32 7, DW_OP_stack_value] $rsp
	#DEBUG_VALUE: deinterleave:source <- [DW_OP_plus_uconst 8, DW_OP_deref] $rsp
	#DEBUG_VALUE: deinterleave:input <- [DW_OP_plus_uconst 849288, DW_OP_stack_value] $r12
	#DEBUG_VALUE: deinterleave:output <- [DW_OP_plus_uconst 849296, DW_OP_stack_value] $r12
	.loc	0 167 14 is_stmt 1              # ldecod_src/input.c:167:14
	movq	%r10, %r13
.Ltmp525:
	#DEBUG_VALUE: deinterleave:icmp0 <- $r13
	.loc	0 168 13                        # ldecod_src/input.c:168:13
	movq	%rsi, 849288(%r12)
	.loc	0 169 13                        # ldecod_src/input.c:169:13
	movq	%r10, 849296(%r12)
	movq	8(%rsp), %rax                   # 8-byte Reload
.Ltmp526:
	.loc	0 171 15                        # ldecod_src/input.c:171:15
	movl	(%rax), %eax
	movq	%rsi, %r10
	movq	%r13, %rsi
.Ltmp527:
.LBB8_18:                               # %if.end.i
	#DEBUG_VALUE: read_one_frame:p_Vid <- $r12
	#DEBUG_VALUE: read_one_frame:input_file <- [DW_OP_LLVM_entry_value 1] $rsi
	#DEBUG_VALUE: read_one_frame:FrameNoInFile <- [DW_OP_LLVM_entry_value 1] $edx
	#DEBUG_VALUE: read_one_frame:HeaderSize <- [DW_OP_LLVM_entry_value 1] $ecx
	#DEBUG_VALUE: read_one_frame:source <- [DW_OP_plus_uconst 8] [$rsp+0]
	#DEBUG_VALUE: read_one_frame:output <- $rbp
	#DEBUG_VALUE: read_one_frame:pImage <- [DW_OP_plus_uconst 208] [$rsp+0]
	#DEBUG_VALUE: read_one_frame:symbol_size_in_bytes <- [DW_OP_plus_uconst 48, DW_OP_deref] $rsp
	#DEBUG_VALUE: read_one_frame:rgb_input <- [DW_OP_plus_uconst 96, DW_OP_deref_size 1, DW_OP_LLVM_convert 1 7, DW_OP_LLVM_convert 32 7, DW_OP_stack_value] $rsp
	#DEBUG_VALUE: deinterleave:source <- [DW_OP_plus_uconst 8, DW_OP_deref] $rsp
	#DEBUG_VALUE: deinterleave:input <- [DW_OP_plus_uconst 849288, DW_OP_stack_value] $r12
	#DEBUG_VALUE: deinterleave:output <- [DW_OP_plus_uconst 849296, DW_OP_stack_value] $r12
	#DEBUG_VALUE: deinterleave:icmp0 <- $r13
	.loc	0 0 15 is_stmt 0                # ldecod_src/input.c:0:15
	movq	48(%rsp), %r14                  # 8-byte Reload
.Ltmp528:
	#DEBUG_VALUE: deinterleave:ocmp2 <- $rdx
	#DEBUG_VALUE: deinterleave:ocmp1 <- $rdi
	#DEBUG_VALUE: deinterleave:ocmp0 <- $rcx
	#DEBUG_VALUE: deinterleave:icmp0 <- $r13
	.loc	0 171 7                         # ldecod_src/input.c:171:7
	cmpl	$2, %eax
	movq	%rcx, 64(%rsp)                  # 8-byte Spill
.Ltmp529:
	#DEBUG_VALUE: deinterleave:ocmp0 <- [DW_OP_plus_uconst 64, DW_OP_deref] $rsp
	.loc	0 0 7                           # ldecod_src/input.c:0:7
	movq	%rdi, 16(%rsp)                  # 8-byte Spill
.Ltmp530:
	#DEBUG_VALUE: deinterleave:ocmp1 <- [DW_OP_plus_uconst 16, DW_OP_deref] $rsp
	movq	%rdx, 56(%rsp)                  # 8-byte Spill
.Ltmp531:
	#DEBUG_VALUE: deinterleave:ocmp2 <- [DW_OP_plus_uconst 56, DW_OP_deref] $rsp
	.loc	0 171 7                         # ldecod_src/input.c:171:7
	je	.LBB8_23
.Ltmp532:
# %bb.19:                               # %if.end.i
	#DEBUG_VALUE: read_one_frame:p_Vid <- $r12
	#DEBUG_VALUE: read_one_frame:input_file <- [DW_OP_LLVM_entry_value 1] $rsi
	#DEBUG_VALUE: read_one_frame:FrameNoInFile <- [DW_OP_LLVM_entry_value 1] $edx
	#DEBUG_VALUE: read_one_frame:HeaderSize <- [DW_OP_LLVM_entry_value 1] $ecx
	#DEBUG_VALUE: read_one_frame:source <- [DW_OP_plus_uconst 8] [$rsp+0]
	#DEBUG_VALUE: read_one_frame:output <- $rbp
	#DEBUG_VALUE: read_one_frame:pImage <- [DW_OP_plus_uconst 208] [$rsp+0]
	#DEBUG_VALUE: read_one_frame:symbol_size_in_bytes <- [DW_OP_plus_uconst 48, DW_OP_deref] $rsp
	#DEBUG_VALUE: read_one_frame:rgb_input <- [DW_OP_plus_uconst 96, DW_OP_deref_size 1, DW_OP_LLVM_convert 1 7, DW_OP_LLVM_convert 32 7, DW_OP_stack_value] $rsp
	#DEBUG_VALUE: deinterleave:source <- [DW_OP_plus_uconst 8, DW_OP_deref] $rsp
	#DEBUG_VALUE: deinterleave:input <- [DW_OP_plus_uconst 849288, DW_OP_stack_value] $r12
	#DEBUG_VALUE: deinterleave:output <- [DW_OP_plus_uconst 849296, DW_OP_stack_value] $r12
	#DEBUG_VALUE: deinterleave:icmp0 <- $r13
	#DEBUG_VALUE: deinterleave:ocmp0 <- [DW_OP_plus_uconst 64, DW_OP_deref] $rsp
	#DEBUG_VALUE: deinterleave:ocmp1 <- [DW_OP_plus_uconst 16, DW_OP_deref] $rsp
	#DEBUG_VALUE: deinterleave:ocmp2 <- [DW_OP_plus_uconst 56, DW_OP_deref] $rsp
	cmpl	$3, %eax
	jne	.LBB8_28
.Ltmp533:
# %bb.20:                               # %for.cond71.preheader.i
	#DEBUG_VALUE: read_one_frame:p_Vid <- $r12
	#DEBUG_VALUE: read_one_frame:input_file <- [DW_OP_LLVM_entry_value 1] $rsi
	#DEBUG_VALUE: read_one_frame:FrameNoInFile <- [DW_OP_LLVM_entry_value 1] $edx
	#DEBUG_VALUE: read_one_frame:HeaderSize <- [DW_OP_LLVM_entry_value 1] $ecx
	#DEBUG_VALUE: read_one_frame:source <- [DW_OP_plus_uconst 8] [$rsp+0]
	#DEBUG_VALUE: read_one_frame:output <- $rbp
	#DEBUG_VALUE: read_one_frame:pImage <- [DW_OP_plus_uconst 208] [$rsp+0]
	#DEBUG_VALUE: read_one_frame:symbol_size_in_bytes <- [DW_OP_plus_uconst 48, DW_OP_deref] $rsp
	#DEBUG_VALUE: read_one_frame:rgb_input <- [DW_OP_plus_uconst 96, DW_OP_deref_size 1, DW_OP_LLVM_convert 1 7, DW_OP_LLVM_convert 32 7, DW_OP_stack_value] $rsp
	#DEBUG_VALUE: deinterleave:source <- [DW_OP_plus_uconst 8, DW_OP_deref] $rsp
	#DEBUG_VALUE: deinterleave:input <- [DW_OP_plus_uconst 849288, DW_OP_stack_value] $r12
	#DEBUG_VALUE: deinterleave:output <- [DW_OP_plus_uconst 849296, DW_OP_stack_value] $r12
	#DEBUG_VALUE: deinterleave:icmp0 <- $r13
	#DEBUG_VALUE: deinterleave:ocmp0 <- [DW_OP_plus_uconst 64, DW_OP_deref] $rsp
	#DEBUG_VALUE: deinterleave:ocmp1 <- [DW_OP_plus_uconst 16, DW_OP_deref] $rsp
	#DEBUG_VALUE: deinterleave:ocmp2 <- [DW_OP_plus_uconst 56, DW_OP_deref] $rsp
	#DEBUG_VALUE: deinterleave:i <- 0
	#DEBUG_VALUE: deinterleave:ocmp2 <- [DW_OP_plus_uconst 56, DW_OP_deref] $rsp
	#DEBUG_VALUE: deinterleave:ocmp1 <- [DW_OP_plus_uconst 16, DW_OP_deref] $rsp
	#DEBUG_VALUE: deinterleave:ocmp0 <- [DW_OP_plus_uconst 64, DW_OP_deref] $rsp
	#DEBUG_VALUE: deinterleave:icmp0 <- $r13
	.loc	0 0 7                           # ldecod_src/input.c:0:7
	movq	8(%rsp), %rax                   # 8-byte Reload
.Ltmp534:
	.loc	0 200 19 is_stmt 1              # ldecod_src/input.c:200:19
	cmpl	$0, 72(%rax)
.Ltmp535:
	.loc	0 200 5 is_stmt 0               # ldecod_src/input.c:200:5
	jle	.LBB8_27
.Ltmp536:
# %bb.21:                               # %for.body76.lr.ph.i
	#DEBUG_VALUE: read_one_frame:p_Vid <- $r12
	#DEBUG_VALUE: read_one_frame:input_file <- [DW_OP_LLVM_entry_value 1] $rsi
	#DEBUG_VALUE: read_one_frame:FrameNoInFile <- [DW_OP_LLVM_entry_value 1] $edx
	#DEBUG_VALUE: read_one_frame:HeaderSize <- [DW_OP_LLVM_entry_value 1] $ecx
	#DEBUG_VALUE: read_one_frame:source <- [DW_OP_plus_uconst 8] [$rsp+0]
	#DEBUG_VALUE: read_one_frame:output <- $rbp
	#DEBUG_VALUE: read_one_frame:pImage <- [DW_OP_plus_uconst 208] [$rsp+0]
	#DEBUG_VALUE: read_one_frame:symbol_size_in_bytes <- [DW_OP_plus_uconst 48, DW_OP_deref] $rsp
	#DEBUG_VALUE: read_one_frame:rgb_input <- [DW_OP_plus_uconst 96, DW_OP_deref_size 1, DW_OP_LLVM_convert 1 7, DW_OP_LLVM_convert 32 7, DW_OP_stack_value] $rsp
	#DEBUG_VALUE: deinterleave:source <- [DW_OP_plus_uconst 8, DW_OP_deref] $rsp
	#DEBUG_VALUE: deinterleave:input <- [DW_OP_plus_uconst 849288, DW_OP_stack_value] $r12
	#DEBUG_VALUE: deinterleave:output <- [DW_OP_plus_uconst 849296, DW_OP_stack_value] $r12
	#DEBUG_VALUE: deinterleave:icmp0 <- $r13
	#DEBUG_VALUE: deinterleave:ocmp0 <- [DW_OP_plus_uconst 64, DW_OP_deref] $rsp
	#DEBUG_VALUE: deinterleave:ocmp1 <- [DW_OP_plus_uconst 16, DW_OP_deref] $rsp
	#DEBUG_VALUE: deinterleave:ocmp2 <- [DW_OP_plus_uconst 56, DW_OP_deref] $rsp
	#DEBUG_VALUE: deinterleave:i <- 0
	.loc	0 0 5                           # ldecod_src/input.c:0:5
	movq	%rbp, 32(%rsp)                  # 8-byte Spill
.Ltmp537:
	#DEBUG_VALUE: read_one_frame:output <- [DW_OP_plus_uconst 32] [$rsp+0]
	movq	%r12, 40(%rsp)                  # 8-byte Spill
.Ltmp538:
	#DEBUG_VALUE: deinterleave:output <- [DW_OP_plus_uconst 40, DW_OP_deref, DW_OP_plus_uconst 849296, DW_OP_stack_value] $rsp
	#DEBUG_VALUE: deinterleave:input <- [DW_OP_plus_uconst 40, DW_OP_deref, DW_OP_plus_uconst 849288, DW_OP_stack_value] $rsp
	#DEBUG_VALUE: read_one_frame:p_Vid <- [DW_OP_plus_uconst 40] [$rsp+0]
	movq	%r14, %rbx
	xorl	%r14d, %r14d
	xorl	%ebp, %ebp
.Ltmp539:
	.p2align	4, 0x90
.LBB8_22:                               # %for.body76.i
                                        # =>This Inner Loop Header: Depth=1
	#DEBUG_VALUE: read_one_frame:p_Vid <- [DW_OP_plus_uconst 40] [$rsp+0]
	#DEBUG_VALUE: read_one_frame:input_file <- [DW_OP_LLVM_entry_value 1] $rsi
	#DEBUG_VALUE: read_one_frame:FrameNoInFile <- [DW_OP_LLVM_entry_value 1] $edx
	#DEBUG_VALUE: read_one_frame:HeaderSize <- [DW_OP_LLVM_entry_value 1] $ecx
	#DEBUG_VALUE: read_one_frame:source <- [DW_OP_plus_uconst 8] [$rsp+0]
	#DEBUG_VALUE: read_one_frame:output <- [DW_OP_plus_uconst 32] [$rsp+0]
	#DEBUG_VALUE: read_one_frame:pImage <- [DW_OP_plus_uconst 208] [$rsp+0]
	#DEBUG_VALUE: read_one_frame:symbol_size_in_bytes <- [DW_OP_plus_uconst 48, DW_OP_deref] $rsp
	#DEBUG_VALUE: read_one_frame:rgb_input <- [DW_OP_plus_uconst 96, DW_OP_deref_size 1, DW_OP_LLVM_convert 1 7, DW_OP_LLVM_convert 32 7, DW_OP_stack_value] $rsp
	#DEBUG_VALUE: deinterleave:source <- [DW_OP_plus_uconst 8, DW_OP_deref] $rsp
	#DEBUG_VALUE: deinterleave:input <- [DW_OP_plus_uconst 40, DW_OP_deref, DW_OP_plus_uconst 849288, DW_OP_stack_value] $rsp
	#DEBUG_VALUE: deinterleave:output <- [DW_OP_plus_uconst 40, DW_OP_deref, DW_OP_plus_uconst 849296, DW_OP_stack_value] $rsp
	#DEBUG_VALUE: deinterleave:icmp0 <- $r13
	#DEBUG_VALUE: deinterleave:ocmp2 <- [DW_OP_LLVM_arg 0, DW_OP_LLVM_arg 0, DW_OP_LLVM_convert 64 5, DW_OP_div, DW_OP_LLVM_arg 0, DW_OP_LLVM_convert 64 5, DW_OP_mul, DW_OP_LLVM_arg 0, DW_OP_plus, DW_OP_stack_value] undef
	#DEBUG_VALUE: deinterleave:ocmp1 <- [DW_OP_LLVM_arg 0, DW_OP_LLVM_arg 0, DW_OP_LLVM_convert 64 5, DW_OP_div, DW_OP_LLVM_arg 0, DW_OP_LLVM_convert 64 5, DW_OP_mul, DW_OP_LLVM_arg 0, DW_OP_plus, DW_OP_stack_value] undef
	#DEBUG_VALUE: deinterleave:ocmp0 <- [DW_OP_LLVM_arg 0, DW_OP_LLVM_arg 0, DW_OP_LLVM_convert 64 5, DW_OP_div, DW_OP_LLVM_arg 0, DW_OP_LLVM_convert 64 5, DW_OP_mul, DW_OP_LLVM_arg 0, DW_OP_plus, DW_OP_stack_value] undef
	#DEBUG_VALUE: deinterleave:i <- $ebp
	#DEBUG_VALUE: deinterleave:icmp0 <- $r13
	.loc	0 202 7 is_stmt 1               # ldecod_src/input.c:202:7
	leaq	(%rdx,%r14), %r12
	leaq	(%rdi,%r14), %r15
	leaq	(%rcx,%r14), %rdi
	movq	%r13, %rsi
	movq	%rbx, %rdx
	callq	memcpy@PLT
.Ltmp540:
	#DEBUG_VALUE: deinterleave:ocmp0 <- [DW_OP_LLVM_arg 0, DW_OP_LLVM_arg 0, DW_OP_LLVM_convert 64 5, DW_OP_div, DW_OP_LLVM_arg 0, DW_OP_LLVM_convert 64 5, DW_OP_mul, DW_OP_LLVM_arg 0, DW_OP_LLVM_convert 64 5, DW_OP_LLVM_arg 0, DW_OP_plus, DW_OP_plus, DW_OP_stack_value] undef
	.loc	0 204 13                        # ldecod_src/input.c:204:13
	addq	%rbx, %r13
.Ltmp541:
	#DEBUG_VALUE: deinterleave:icmp0 <- $r13
	.loc	0 205 7                         # ldecod_src/input.c:205:7
	movq	%r15, %rdi
	movq	%r13, %rsi
	movq	%rbx, %rdx
	callq	memcpy@PLT
.Ltmp542:
	#DEBUG_VALUE: deinterleave:ocmp1 <- [DW_OP_LLVM_arg 0, DW_OP_LLVM_arg 0, DW_OP_LLVM_convert 64 5, DW_OP_div, DW_OP_LLVM_arg 0, DW_OP_LLVM_convert 64 5, DW_OP_mul, DW_OP_LLVM_arg 0, DW_OP_LLVM_convert 64 5, DW_OP_LLVM_arg 0, DW_OP_plus, DW_OP_plus, DW_OP_stack_value] undef
	.loc	0 207 13                        # ldecod_src/input.c:207:13
	addq	%rbx, %r13
.Ltmp543:
	#DEBUG_VALUE: deinterleave:icmp0 <- $r13
	.loc	0 208 7                         # ldecod_src/input.c:208:7
	movq	%r12, %rdi
	movq	%r13, %rsi
	movq	%rbx, %rdx
	callq	memcpy@PLT
.Ltmp544:
	.loc	0 0 7 is_stmt 0                 # ldecod_src/input.c:0:7
	movq	56(%rsp), %rdx                  # 8-byte Reload
	movq	16(%rsp), %rdi                  # 8-byte Reload
	movq	64(%rsp), %rcx                  # 8-byte Reload
.Ltmp545:
	#DEBUG_VALUE: deinterleave:ocmp2 <- [DW_OP_LLVM_arg 0, DW_OP_LLVM_arg 0, DW_OP_LLVM_convert 64 5, DW_OP_div, DW_OP_LLVM_arg 0, DW_OP_LLVM_convert 64 5, DW_OP_mul, DW_OP_LLVM_arg 0, DW_OP_LLVM_convert 64 5, DW_OP_LLVM_arg 0, DW_OP_plus, DW_OP_plus, DW_OP_stack_value] undef
	.loc	0 210 13 is_stmt 1              # ldecod_src/input.c:210:13
	addq	%rbx, %r13
.Ltmp546:
	#DEBUG_VALUE: deinterleave:icmp0 <- $r13
	.loc	0 200 43                        # ldecod_src/input.c:200:43
	incl	%ebp
.Ltmp547:
	#DEBUG_VALUE: deinterleave:i <- $ebp
	.loc	0 200 19 is_stmt 0              # ldecod_src/input.c:200:19
	addq	%rbx, %r14
	movq	8(%rsp), %rax                   # 8-byte Reload
	cmpl	72(%rax), %ebp
	jl	.LBB8_22
	jmp	.LBB8_26
.Ltmp548:
.LBB8_23:                               # %for.cond38.preheader.i
	#DEBUG_VALUE: read_one_frame:p_Vid <- $r12
	#DEBUG_VALUE: read_one_frame:input_file <- [DW_OP_LLVM_entry_value 1] $rsi
	#DEBUG_VALUE: read_one_frame:FrameNoInFile <- [DW_OP_LLVM_entry_value 1] $edx
	#DEBUG_VALUE: read_one_frame:HeaderSize <- [DW_OP_LLVM_entry_value 1] $ecx
	#DEBUG_VALUE: read_one_frame:source <- [DW_OP_plus_uconst 8] [$rsp+0]
	#DEBUG_VALUE: read_one_frame:output <- $rbp
	#DEBUG_VALUE: read_one_frame:pImage <- [DW_OP_plus_uconst 208] [$rsp+0]
	#DEBUG_VALUE: read_one_frame:symbol_size_in_bytes <- [DW_OP_plus_uconst 48, DW_OP_deref] $rsp
	#DEBUG_VALUE: read_one_frame:rgb_input <- [DW_OP_plus_uconst 96, DW_OP_deref_size 1, DW_OP_LLVM_convert 1 7, DW_OP_LLVM_convert 32 7, DW_OP_stack_value] $rsp
	#DEBUG_VALUE: deinterleave:source <- [DW_OP_plus_uconst 8, DW_OP_deref] $rsp
	#DEBUG_VALUE: deinterleave:input <- [DW_OP_plus_uconst 849288, DW_OP_stack_value] $r12
	#DEBUG_VALUE: deinterleave:output <- [DW_OP_plus_uconst 849296, DW_OP_stack_value] $r12
	#DEBUG_VALUE: deinterleave:icmp0 <- $r13
	#DEBUG_VALUE: deinterleave:ocmp0 <- [DW_OP_plus_uconst 64, DW_OP_deref] $rsp
	#DEBUG_VALUE: deinterleave:ocmp1 <- [DW_OP_plus_uconst 16, DW_OP_deref] $rsp
	#DEBUG_VALUE: deinterleave:ocmp2 <- [DW_OP_plus_uconst 56, DW_OP_deref] $rsp
	#DEBUG_VALUE: deinterleave:i <- 0
	#DEBUG_VALUE: deinterleave:ocmp2 <- [DW_OP_plus_uconst 56, DW_OP_deref] $rsp
	#DEBUG_VALUE: deinterleave:ocmp1 <- [DW_OP_plus_uconst 16, DW_OP_deref] $rsp
	#DEBUG_VALUE: deinterleave:ocmp0 <- [DW_OP_plus_uconst 64, DW_OP_deref] $rsp
	#DEBUG_VALUE: deinterleave:icmp0 <- $r13
	.loc	0 0 19                          # ldecod_src/input.c:0:19
	movq	8(%rsp), %rax                   # 8-byte Reload
.Ltmp549:
	.loc	0 173 19 is_stmt 1              # ldecod_src/input.c:173:19
	cmpl	$0, 76(%rax)
.Ltmp550:
	.loc	0 173 5 is_stmt 0               # ldecod_src/input.c:173:5
	jle	.LBB8_27
.Ltmp551:
# %bb.24:                               # %for.body43.lr.ph.i
	#DEBUG_VALUE: read_one_frame:p_Vid <- $r12
	#DEBUG_VALUE: read_one_frame:input_file <- [DW_OP_LLVM_entry_value 1] $rsi
	#DEBUG_VALUE: read_one_frame:FrameNoInFile <- [DW_OP_LLVM_entry_value 1] $edx
	#DEBUG_VALUE: read_one_frame:HeaderSize <- [DW_OP_LLVM_entry_value 1] $ecx
	#DEBUG_VALUE: read_one_frame:source <- [DW_OP_plus_uconst 8] [$rsp+0]
	#DEBUG_VALUE: read_one_frame:output <- $rbp
	#DEBUG_VALUE: read_one_frame:pImage <- [DW_OP_plus_uconst 208] [$rsp+0]
	#DEBUG_VALUE: read_one_frame:symbol_size_in_bytes <- [DW_OP_plus_uconst 48, DW_OP_deref] $rsp
	#DEBUG_VALUE: read_one_frame:rgb_input <- [DW_OP_plus_uconst 96, DW_OP_deref_size 1, DW_OP_LLVM_convert 1 7, DW_OP_LLVM_convert 32 7, DW_OP_stack_value] $rsp
	#DEBUG_VALUE: deinterleave:source <- [DW_OP_plus_uconst 8, DW_OP_deref] $rsp
	#DEBUG_VALUE: deinterleave:input <- [DW_OP_plus_uconst 849288, DW_OP_stack_value] $r12
	#DEBUG_VALUE: deinterleave:output <- [DW_OP_plus_uconst 849296, DW_OP_stack_value] $r12
	#DEBUG_VALUE: deinterleave:icmp0 <- $r13
	#DEBUG_VALUE: deinterleave:ocmp0 <- [DW_OP_plus_uconst 64, DW_OP_deref] $rsp
	#DEBUG_VALUE: deinterleave:ocmp1 <- [DW_OP_plus_uconst 16, DW_OP_deref] $rsp
	#DEBUG_VALUE: deinterleave:ocmp2 <- [DW_OP_plus_uconst 56, DW_OP_deref] $rsp
	#DEBUG_VALUE: deinterleave:i <- 0
	.loc	0 0 5                           # ldecod_src/input.c:0:5
	movq	%rbp, 32(%rsp)                  # 8-byte Spill
.Ltmp552:
	#DEBUG_VALUE: read_one_frame:output <- [DW_OP_plus_uconst 32] [$rsp+0]
	movq	%r12, 40(%rsp)                  # 8-byte Spill
.Ltmp553:
	#DEBUG_VALUE: deinterleave:output <- [DW_OP_plus_uconst 40, DW_OP_deref, DW_OP_plus_uconst 849296, DW_OP_stack_value] $rsp
	#DEBUG_VALUE: deinterleave:input <- [DW_OP_plus_uconst 40, DW_OP_deref, DW_OP_plus_uconst 849288, DW_OP_stack_value] $rsp
	#DEBUG_VALUE: read_one_frame:p_Vid <- [DW_OP_plus_uconst 40] [$rsp+0]
	.loc	0 173 5                         # ldecod_src/input.c:173:5
	leaq	(%rcx,%r14), %rax
	movq	%rax, 72(%rsp)                  # 8-byte Spill
	movq	%r14, %rbx
	xorl	%r14d, %r14d
	xorl	%r15d, %r15d
.Ltmp554:
	.p2align	4, 0x90
.LBB8_25:                               # %for.body43.i
                                        # =>This Inner Loop Header: Depth=1
	#DEBUG_VALUE: read_one_frame:p_Vid <- [DW_OP_plus_uconst 40] [$rsp+0]
	#DEBUG_VALUE: read_one_frame:input_file <- [DW_OP_LLVM_entry_value 1] $rsi
	#DEBUG_VALUE: read_one_frame:FrameNoInFile <- [DW_OP_LLVM_entry_value 1] $edx
	#DEBUG_VALUE: read_one_frame:HeaderSize <- [DW_OP_LLVM_entry_value 1] $ecx
	#DEBUG_VALUE: read_one_frame:source <- [DW_OP_plus_uconst 8] [$rsp+0]
	#DEBUG_VALUE: read_one_frame:output <- [DW_OP_plus_uconst 32] [$rsp+0]
	#DEBUG_VALUE: read_one_frame:pImage <- [DW_OP_plus_uconst 208] [$rsp+0]
	#DEBUG_VALUE: read_one_frame:symbol_size_in_bytes <- [DW_OP_plus_uconst 48, DW_OP_deref] $rsp
	#DEBUG_VALUE: read_one_frame:rgb_input <- [DW_OP_plus_uconst 96, DW_OP_deref_size 1, DW_OP_LLVM_convert 1 7, DW_OP_LLVM_convert 32 7, DW_OP_stack_value] $rsp
	#DEBUG_VALUE: deinterleave:source <- [DW_OP_plus_uconst 8, DW_OP_deref] $rsp
	#DEBUG_VALUE: deinterleave:input <- [DW_OP_plus_uconst 40, DW_OP_deref, DW_OP_plus_uconst 849288, DW_OP_stack_value] $rsp
	#DEBUG_VALUE: deinterleave:output <- [DW_OP_plus_uconst 40, DW_OP_deref, DW_OP_plus_uconst 849296, DW_OP_stack_value] $rsp
	#DEBUG_VALUE: deinterleave:ocmp2 <- [DW_OP_LLVM_arg 0, DW_OP_LLVM_arg 0, DW_OP_LLVM_convert 64 5, DW_OP_div, DW_OP_LLVM_arg 0, DW_OP_LLVM_convert 64 5, DW_OP_mul, DW_OP_LLVM_arg 0, DW_OP_plus, DW_OP_stack_value] undef
	#DEBUG_VALUE: deinterleave:ocmp1 <- [DW_OP_LLVM_arg 0, DW_OP_LLVM_arg 0, DW_OP_LLVM_convert 64 5, DW_OP_div, DW_OP_LLVM_arg 0, DW_OP_LLVM_convert 64 5, DW_OP_mul, DW_OP_LLVM_arg 0, DW_OP_plus, DW_OP_stack_value] undef
	#DEBUG_VALUE: deinterleave:ocmp0 <- [DW_OP_LLVM_arg 0, DW_OP_LLVM_arg 0, DW_OP_LLVM_convert 64 5, DW_OP_div, DW_OP_consts 2, DW_OP_LLVM_arg 0, DW_OP_LLVM_convert 64 5, DW_OP_mul, DW_OP_mul, DW_OP_LLVM_arg 0, DW_OP_plus, DW_OP_stack_value] undef
	#DEBUG_VALUE: deinterleave:icmp0 <- [DW_OP_LLVM_arg 0, DW_OP_LLVM_arg 0, DW_OP_LLVM_convert 64 5, DW_OP_div, DW_OP_consts 4, DW_OP_LLVM_arg 0, DW_OP_LLVM_convert 64 5, DW_OP_mul, DW_OP_mul, DW_OP_LLVM_arg 0, DW_OP_plus, DW_OP_stack_value] undef
	#DEBUG_VALUE: deinterleave:i <- $r15d
	.loc	0 176 7 is_stmt 1               # ldecod_src/input.c:176:7
	leaq	(%rdx,%r14), %rax
	movq	%rax, 88(%rsp)                  # 8-byte Spill
	leaq	(%rdi,%r14), %rax
	movq	%rax, 80(%rsp)                  # 8-byte Spill
	leaq	(%rcx,%r14,2), %rdi
	leaq	(,%r14,4), %r12
	addq	%r13, %r12
	movq	%r12, %rsi
	movq	%rbx, %rdx
	callq	memcpy@PLT
.Ltmp555:
	#DEBUG_VALUE: deinterleave:ocmp0 <- [DW_OP_LLVM_arg 0, DW_OP_LLVM_arg 0, DW_OP_LLVM_convert 64 5, DW_OP_div, DW_OP_consts 2, DW_OP_LLVM_arg 0, DW_OP_LLVM_convert 64 5, DW_OP_mul, DW_OP_mul, DW_OP_LLVM_arg 0, DW_OP_LLVM_convert 64 5, DW_OP_LLVM_arg 0, DW_OP_plus, DW_OP_plus, DW_OP_stack_value] undef
	.loc	0 0 7 is_stmt 0                 # ldecod_src/input.c:0:7
	movq	72(%rsp), %rax                  # 8-byte Reload
	.loc	0 178 13 is_stmt 1              # ldecod_src/input.c:178:13
	leaq	(%rax,%r14,2), %rbp
.Ltmp556:
	#DEBUG_VALUE: deinterleave:icmp0 <- [DW_OP_LLVM_arg 0, DW_OP_LLVM_arg 0, DW_OP_LLVM_convert 64 5, DW_OP_div, DW_OP_consts 4, DW_OP_LLVM_arg 0, DW_OP_LLVM_convert 64 5, DW_OP_mul, DW_OP_mul, DW_OP_LLVM_arg 0, DW_OP_LLVM_convert 64 5, DW_OP_LLVM_arg 0, DW_OP_plus, DW_OP_plus, DW_OP_stack_value] undef
	.loc	0 180 7                         # ldecod_src/input.c:180:7
	addq	%rbx, %r12
	movq	80(%rsp), %rdi                  # 8-byte Reload
	movq	%r12, %rsi
	movq	%rbx, %rdx
	callq	memcpy@PLT
.Ltmp557:
	#DEBUG_VALUE: deinterleave:icmp0 <- [DW_OP_LLVM_arg 0, DW_OP_LLVM_arg 0, DW_OP_LLVM_convert 64 5, DW_OP_div, DW_OP_consts 4, DW_OP_LLVM_arg 0, DW_OP_LLVM_convert 64 5, DW_OP_mul, DW_OP_mul, DW_OP_consts 2, DW_OP_LLVM_arg 0, DW_OP_LLVM_convert 64 5, DW_OP_mul, DW_OP_LLVM_arg 0, DW_OP_plus, DW_OP_plus, DW_OP_stack_value] undef
	#DEBUG_VALUE: deinterleave:ocmp1 <- [DW_OP_LLVM_arg 0, DW_OP_LLVM_arg 0, DW_OP_LLVM_convert 64 5, DW_OP_div, DW_OP_LLVM_arg 0, DW_OP_LLVM_convert 64 5, DW_OP_mul, DW_OP_LLVM_arg 0, DW_OP_LLVM_convert 64 5, DW_OP_LLVM_arg 0, DW_OP_plus, DW_OP_plus, DW_OP_stack_value] undef
	.loc	0 184 7                         # ldecod_src/input.c:184:7
	addq	%rbx, %r12
	movq	%rbp, %rdi
	movq	%r12, %rsi
	movq	%rbx, %rdx
	callq	memcpy@PLT
.Ltmp558:
	#DEBUG_VALUE: deinterleave:icmp0 <- [DW_OP_LLVM_arg 0, DW_OP_LLVM_arg 0, DW_OP_LLVM_convert 64 5, DW_OP_div, DW_OP_consts 4, DW_OP_LLVM_arg 0, DW_OP_LLVM_convert 64 5, DW_OP_mul, DW_OP_mul, DW_OP_consts 3, DW_OP_LLVM_arg 0, DW_OP_LLVM_convert 64 5, DW_OP_mul, DW_OP_LLVM_arg 0, DW_OP_plus, DW_OP_plus, DW_OP_stack_value] undef
	#DEBUG_VALUE: deinterleave:ocmp0 <- [DW_OP_LLVM_arg 0, DW_OP_LLVM_arg 0, DW_OP_LLVM_convert 64 5, DW_OP_div, DW_OP_consts 2, DW_OP_LLVM_arg 0, DW_OP_LLVM_convert 64 5, DW_OP_mul, DW_OP_mul, DW_OP_consts 2, DW_OP_LLVM_arg 0, DW_OP_LLVM_convert 64 5, DW_OP_mul, DW_OP_LLVM_arg 0, DW_OP_plus, DW_OP_plus, DW_OP_stack_value] undef
	.loc	0 188 7                         # ldecod_src/input.c:188:7
	addq	%rbx, %r12
	movq	88(%rsp), %rdi                  # 8-byte Reload
	movq	%r12, %rsi
	movq	%rbx, %rdx
	callq	memcpy@PLT
.Ltmp559:
	.loc	0 0 7 is_stmt 0                 # ldecod_src/input.c:0:7
	movq	56(%rsp), %rdx                  # 8-byte Reload
	movq	16(%rsp), %rdi                  # 8-byte Reload
	movq	64(%rsp), %rcx                  # 8-byte Reload
.Ltmp560:
	#DEBUG_VALUE: deinterleave:icmp0 <- [DW_OP_LLVM_arg 0, DW_OP_LLVM_arg 0, DW_OP_LLVM_convert 64 5, DW_OP_div, DW_OP_consts 4, DW_OP_LLVM_arg 0, DW_OP_LLVM_convert 64 5, DW_OP_mul, DW_OP_mul, DW_OP_consts 4, DW_OP_LLVM_arg 0, DW_OP_LLVM_convert 64 5, DW_OP_mul, DW_OP_LLVM_arg 0, DW_OP_plus, DW_OP_plus, DW_OP_stack_value] undef
	#DEBUG_VALUE: deinterleave:ocmp2 <- [DW_OP_LLVM_arg 0, DW_OP_LLVM_arg 0, DW_OP_LLVM_convert 64 5, DW_OP_div, DW_OP_LLVM_arg 0, DW_OP_LLVM_convert 64 5, DW_OP_mul, DW_OP_LLVM_arg 0, DW_OP_LLVM_convert 64 5, DW_OP_LLVM_arg 0, DW_OP_plus, DW_OP_plus, DW_OP_stack_value] undef
	.loc	0 173 43 is_stmt 1              # ldecod_src/input.c:173:43
	incl	%r15d
.Ltmp561:
	#DEBUG_VALUE: deinterleave:i <- $r15d
	.loc	0 173 19 is_stmt 0              # ldecod_src/input.c:173:19
	addq	%rbx, %r14
	movq	8(%rsp), %rax                   # 8-byte Reload
	cmpl	76(%rax), %r15d
.Ltmp562:
	.loc	0 173 5                         # ldecod_src/input.c:173:5
	jl	.LBB8_25
.Ltmp563:
.LBB8_26:                               # %if.end96.sink.split.sink.split.i
	#DEBUG_VALUE: read_one_frame:p_Vid <- [DW_OP_plus_uconst 40] [$rsp+0]
	#DEBUG_VALUE: read_one_frame:input_file <- [DW_OP_LLVM_entry_value 1] $rsi
	#DEBUG_VALUE: read_one_frame:FrameNoInFile <- [DW_OP_LLVM_entry_value 1] $edx
	#DEBUG_VALUE: read_one_frame:HeaderSize <- [DW_OP_LLVM_entry_value 1] $ecx
	#DEBUG_VALUE: read_one_frame:source <- [DW_OP_plus_uconst 8] [$rsp+0]
	#DEBUG_VALUE: read_one_frame:output <- [DW_OP_plus_uconst 32] [$rsp+0]
	#DEBUG_VALUE: read_one_frame:pImage <- [DW_OP_plus_uconst 208] [$rsp+0]
	#DEBUG_VALUE: read_one_frame:symbol_size_in_bytes <- [DW_OP_plus_uconst 48, DW_OP_deref] $rsp
	#DEBUG_VALUE: read_one_frame:rgb_input <- [DW_OP_plus_uconst 96, DW_OP_deref_size 1, DW_OP_LLVM_convert 1 7, DW_OP_LLVM_convert 32 7, DW_OP_stack_value] $rsp
	#DEBUG_VALUE: deinterleave:source <- [DW_OP_plus_uconst 8, DW_OP_deref] $rsp
	#DEBUG_VALUE: deinterleave:input <- [DW_OP_plus_uconst 40, DW_OP_deref, DW_OP_plus_uconst 849288, DW_OP_stack_value] $rsp
	#DEBUG_VALUE: deinterleave:output <- [DW_OP_plus_uconst 40, DW_OP_deref, DW_OP_plus_uconst 849296, DW_OP_stack_value] $rsp
	.loc	0 0 5                           # ldecod_src/input.c:0:5
	movq	40(%rsp), %r12                  # 8-byte Reload
	movq	849288(%r12), %r10
	movq	849296(%r12), %rsi
	movq	%rbx, %r14
	movq	32(%rsp), %rbp                  # 8-byte Reload
.Ltmp564:
.LBB8_27:                               # %if.end96.sink.split.i
	#DEBUG_VALUE: read_one_frame:p_Vid <- $r12
	#DEBUG_VALUE: read_one_frame:input_file <- [DW_OP_LLVM_entry_value 1] $rsi
	#DEBUG_VALUE: read_one_frame:FrameNoInFile <- [DW_OP_LLVM_entry_value 1] $edx
	#DEBUG_VALUE: read_one_frame:HeaderSize <- [DW_OP_LLVM_entry_value 1] $ecx
	#DEBUG_VALUE: read_one_frame:source <- [DW_OP_plus_uconst 8] [$rsp+0]
	#DEBUG_VALUE: read_one_frame:output <- $rbp
	#DEBUG_VALUE: read_one_frame:pImage <- [DW_OP_plus_uconst 208] [$rsp+0]
	#DEBUG_VALUE: read_one_frame:symbol_size_in_bytes <- [DW_OP_plus_uconst 48, DW_OP_deref] $rsp
	#DEBUG_VALUE: read_one_frame:rgb_input <- [DW_OP_plus_uconst 96, DW_OP_deref_size 1, DW_OP_LLVM_convert 1 7, DW_OP_LLVM_convert 32 7, DW_OP_stack_value] $rsp
	#DEBUG_VALUE: deinterleave:source <- [DW_OP_plus_uconst 8, DW_OP_deref] $rsp
	#DEBUG_VALUE: deinterleave:input <- [DW_OP_plus_uconst 849288, DW_OP_stack_value] $r12
	#DEBUG_VALUE: deinterleave:output <- [DW_OP_plus_uconst 849296, DW_OP_stack_value] $r12
	movq	%rsi, 849288(%r12)
	movq	%r10, 849296(%r12)
.Ltmp565:
.LBB8_28:                               # %if.end20
	#DEBUG_VALUE: read_one_frame:p_Vid <- $r12
	#DEBUG_VALUE: read_one_frame:input_file <- [DW_OP_LLVM_entry_value 1] $rsi
	#DEBUG_VALUE: read_one_frame:FrameNoInFile <- [DW_OP_LLVM_entry_value 1] $edx
	#DEBUG_VALUE: read_one_frame:HeaderSize <- [DW_OP_LLVM_entry_value 1] $ecx
	#DEBUG_VALUE: read_one_frame:source <- [DW_OP_plus_uconst 8] [$rsp+0]
	#DEBUG_VALUE: read_one_frame:output <- $rbp
	#DEBUG_VALUE: read_one_frame:pImage <- [DW_OP_plus_uconst 208] [$rsp+0]
	#DEBUG_VALUE: read_one_frame:symbol_size_in_bytes <- $r14d
	#DEBUG_VALUE: read_one_frame:rgb_input <- [DW_OP_plus_uconst 96, DW_OP_deref_size 1, DW_OP_LLVM_convert 1 7, DW_OP_LLVM_convert 32 7, DW_OP_stack_value] $rsp
	movq	8(%rsp), %r15                   # 8-byte Reload
	.loc	0 627 14 is_stmt 1              # ldecod_src/input.c:627:14
	movl	88(%r15), %r10d
	.loc	0 627 35 is_stmt 0              # ldecod_src/input.c:627:35
	subl	88(%rbp), %r10d
.Ltmp566:
	#DEBUG_VALUE: read_one_frame:bit_scale <- $r10d
	.loc	0 0 0                           # ldecod_src/input.c:0:0
	movq	856736(%r12), %rax
	movq	208(%rsp), %r13
	movq	(%r13), %rdi
	movq	849288(%r12), %rsi
.Ltmp567:
	.loc	0 629 5 is_stmt 1               # ldecod_src/input.c:629:5
	cmpb	$0, 96(%rsp)                    # 1-byte Folded Reload
	je	.LBB8_31
.Ltmp568:
# %bb.29:                               # %if.end46
	#DEBUG_VALUE: read_one_frame:p_Vid <- $r12
	#DEBUG_VALUE: read_one_frame:input_file <- [DW_OP_LLVM_entry_value 1] $rsi
	#DEBUG_VALUE: read_one_frame:FrameNoInFile <- [DW_OP_LLVM_entry_value 1] $edx
	#DEBUG_VALUE: read_one_frame:HeaderSize <- [DW_OP_LLVM_entry_value 1] $ecx
	#DEBUG_VALUE: read_one_frame:source <- [DW_OP_plus_uconst 8] [$rsp+0]
	#DEBUG_VALUE: read_one_frame:output <- $rbp
	#DEBUG_VALUE: read_one_frame:pImage <- [DW_OP_plus_uconst 208] [$rsp+0]
	#DEBUG_VALUE: read_one_frame:symbol_size_in_bytes <- $r14d
	#DEBUG_VALUE: read_one_frame:rgb_input <- [DW_OP_plus_uconst 96, DW_OP_deref_size 1, DW_OP_LLVM_convert 1 7, DW_OP_LLVM_convert 32 7, DW_OP_stack_value] $rsp
	#DEBUG_VALUE: read_one_frame:bit_scale <- $r10d
	.loc	0 630 40                        # ldecod_src/input.c:630:40
	movslq	28(%rsp), %rbx                  # 4-byte Folded Reload
	addq	%rbx, %rsi
	.loc	0 630 51 is_stmt 0              # ldecod_src/input.c:630:51
	movl	16(%r15), %edx
	.loc	0 630 69                        # ldecod_src/input.c:630:69
	movl	28(%r15), %ecx
	.loc	0 630 88                        # ldecod_src/input.c:630:88
	movl	16(%rbp), %r8d
	.loc	0 630 106                       # ldecod_src/input.c:630:106
	movl	28(%rbp), %r9d
	.loc	0 630 3                         # ldecod_src/input.c:630:3
	pushq	%r10
.Ltmp569:
	.cfi_adjust_cfa_offset 8
	pushq	%r14
	.cfi_adjust_cfa_offset 8
	callq	*%rax
.Ltmp570:
	addq	$16, %rsp
.Ltmp571:
	.cfi_adjust_cfa_offset -16
	.loc	0 638 24 is_stmt 1              # ldecod_src/input.c:638:24
	cmpl	$0, 849088(%r12)
.Ltmp572:
	.loc	0 638 6 is_stmt 0               # ldecod_src/input.c:638:6
	je	.LBB8_34
.Ltmp573:
# %bb.30:                               # %if.then93
	#DEBUG_VALUE: read_one_frame:p_Vid <- $r12
	#DEBUG_VALUE: read_one_frame:input_file <- [DW_OP_LLVM_entry_value 1] $rsi
	#DEBUG_VALUE: read_one_frame:FrameNoInFile <- [DW_OP_LLVM_entry_value 1] $edx
	#DEBUG_VALUE: read_one_frame:HeaderSize <- [DW_OP_LLVM_entry_value 1] $ecx
	#DEBUG_VALUE: read_one_frame:source <- [DW_OP_plus_uconst 8] [$rsp+0]
	#DEBUG_VALUE: read_one_frame:output <- $rbp
	#DEBUG_VALUE: read_one_frame:symbol_size_in_bytes <- $r14d
	#DEBUG_VALUE: read_one_frame:rgb_input <- [DW_OP_plus_uconst 96, DW_OP_deref_size 1, DW_OP_LLVM_convert 1 7, DW_OP_LLVM_convert 32 7, DW_OP_stack_value] $rsp
	.loc	0 640 15 is_stmt 1              # ldecod_src/input.c:640:15
	movl	92(%r15), %eax
	.loc	0 640 36 is_stmt 0              # ldecod_src/input.c:640:36
	subl	92(%rbp), %eax
.Ltmp574:
	#DEBUG_VALUE: read_one_frame:bit_scale <- $eax
	.loc	0 646 20 is_stmt 1              # ldecod_src/input.c:646:20
	movq	8(%r13), %rdi
	.loc	0 646 42 is_stmt 0              # ldecod_src/input.c:646:42
	addq	849288(%r12), %rbx
	.loc	0 646 52                        # ldecod_src/input.c:646:52
	movslq	24(%rsp), %rsi                  # 4-byte Folded Reload
	addq	%rbx, %rsi
	.loc	0 646 64                        # ldecod_src/input.c:646:64
	movl	20(%r15), %edx
	.loc	0 646 82                        # ldecod_src/input.c:646:82
	movl	32(%r15), %ecx
	.loc	0 646 101                       # ldecod_src/input.c:646:101
	movl	20(%rbp), %r8d
	.loc	0 646 119                       # ldecod_src/input.c:646:119
	movl	32(%rbp), %r9d
	.loc	0 646 5                         # ldecod_src/input.c:646:5
	pushq	%rax
.Ltmp575:
	.cfi_adjust_cfa_offset 8
	pushq	%r14
	.cfi_adjust_cfa_offset 8
	callq	*856736(%r12)
.Ltmp576:
	addq	$16, %rsp
.Ltmp577:
	.cfi_adjust_cfa_offset -16
	.loc	0 650 16 is_stmt 1              # ldecod_src/input.c:650:16
	movl	96(%r15), %eax
	.loc	0 650 37 is_stmt 0              # ldecod_src/input.c:650:37
	subl	96(%rbp), %eax
.Ltmp578:
	#DEBUG_VALUE: read_one_frame:bit_scale <- $eax
	.loc	0 652 20 is_stmt 1              # ldecod_src/input.c:652:20
	movq	16(%r13), %rdi
	.loc	0 652 38 is_stmt 0              # ldecod_src/input.c:652:38
	movq	849288(%r12), %rsi
	.loc	0 652 43                        # ldecod_src/input.c:652:43
	jmp	.LBB8_33
.Ltmp579:
.LBB8_31:                               # %if.end46.thread
	#DEBUG_VALUE: read_one_frame:p_Vid <- $r12
	#DEBUG_VALUE: read_one_frame:input_file <- [DW_OP_LLVM_entry_value 1] $rsi
	#DEBUG_VALUE: read_one_frame:FrameNoInFile <- [DW_OP_LLVM_entry_value 1] $edx
	#DEBUG_VALUE: read_one_frame:HeaderSize <- [DW_OP_LLVM_entry_value 1] $ecx
	#DEBUG_VALUE: read_one_frame:source <- [DW_OP_plus_uconst 8] [$rsp+0]
	#DEBUG_VALUE: read_one_frame:output <- $rbp
	#DEBUG_VALUE: read_one_frame:pImage <- [DW_OP_plus_uconst 208] [$rsp+0]
	#DEBUG_VALUE: read_one_frame:symbol_size_in_bytes <- $r14d
	#DEBUG_VALUE: read_one_frame:rgb_input <- [DW_OP_plus_uconst 96, DW_OP_deref_size 1, DW_OP_LLVM_convert 1 7, DW_OP_LLVM_convert 32 7, DW_OP_stack_value] $rsp
	#DEBUG_VALUE: read_one_frame:bit_scale <- $r10d
	.loc	0 632 41 is_stmt 1              # ldecod_src/input.c:632:41
	movl	16(%r15), %edx
	.loc	0 632 59 is_stmt 0              # ldecod_src/input.c:632:59
	movl	28(%r15), %ecx
	.loc	0 632 78                        # ldecod_src/input.c:632:78
	movl	16(%rbp), %r8d
	.loc	0 632 96                        # ldecod_src/input.c:632:96
	movl	28(%rbp), %r9d
	.loc	0 632 3                         # ldecod_src/input.c:632:3
	pushq	%r10
.Ltmp580:
	.cfi_adjust_cfa_offset 8
	pushq	%r14
	.cfi_adjust_cfa_offset 8
	callq	*%rax
.Ltmp581:
	addq	$16, %rsp
.Ltmp582:
	.cfi_adjust_cfa_offset -16
	.loc	0 638 24 is_stmt 1              # ldecod_src/input.c:638:24
	cmpl	$0, 849088(%r12)
.Ltmp583:
	.loc	0 638 6 is_stmt 0               # ldecod_src/input.c:638:6
	je	.LBB8_34
.Ltmp584:
# %bb.32:                               # %if.else105
	#DEBUG_VALUE: read_one_frame:p_Vid <- $r12
	#DEBUG_VALUE: read_one_frame:input_file <- [DW_OP_LLVM_entry_value 1] $rsi
	#DEBUG_VALUE: read_one_frame:FrameNoInFile <- [DW_OP_LLVM_entry_value 1] $edx
	#DEBUG_VALUE: read_one_frame:HeaderSize <- [DW_OP_LLVM_entry_value 1] $ecx
	#DEBUG_VALUE: read_one_frame:source <- [DW_OP_plus_uconst 8] [$rsp+0]
	#DEBUG_VALUE: read_one_frame:output <- $rbp
	#DEBUG_VALUE: read_one_frame:symbol_size_in_bytes <- $r14d
	#DEBUG_VALUE: read_one_frame:rgb_input <- [DW_OP_plus_uconst 96, DW_OP_deref_size 1, DW_OP_LLVM_convert 1 7, DW_OP_LLVM_convert 32 7, DW_OP_stack_value] $rsp
	.loc	0 640 15 is_stmt 1              # ldecod_src/input.c:640:15
	movl	92(%r15), %eax
	.loc	0 640 36 is_stmt 0              # ldecod_src/input.c:640:36
	subl	92(%rbp), %eax
.Ltmp585:
	#DEBUG_VALUE: read_one_frame:bit_scale <- $eax
	.loc	0 648 20 is_stmt 1              # ldecod_src/input.c:648:20
	movq	8(%r13), %rdi
	.loc	0 648 42 is_stmt 0              # ldecod_src/input.c:648:42
	movslq	28(%rsp), %rbx                  # 4-byte Folded Reload
	movq	849288(%r12), %rsi
	addq	%rbx, %rsi
	.loc	0 648 53                        # ldecod_src/input.c:648:53
	movl	20(%r15), %edx
	.loc	0 648 71                        # ldecod_src/input.c:648:71
	movl	32(%r15), %ecx
	.loc	0 648 90                        # ldecod_src/input.c:648:90
	movl	20(%rbp), %r8d
	.loc	0 648 108                       # ldecod_src/input.c:648:108
	movl	32(%rbp), %r9d
	.loc	0 648 5                         # ldecod_src/input.c:648:5
	pushq	%rax
.Ltmp586:
	.cfi_adjust_cfa_offset 8
	pushq	%r14
	.cfi_adjust_cfa_offset 8
	callq	*856736(%r12)
.Ltmp587:
	addq	$16, %rsp
.Ltmp588:
	.cfi_adjust_cfa_offset -16
	.loc	0 650 16 is_stmt 1              # ldecod_src/input.c:650:16
	movl	96(%r15), %eax
	.loc	0 650 37 is_stmt 0              # ldecod_src/input.c:650:37
	subl	96(%rbp), %eax
.Ltmp589:
	#DEBUG_VALUE: read_one_frame:bit_scale <- $eax
	.loc	0 654 20 is_stmt 1              # ldecod_src/input.c:654:20
	movq	16(%r13), %rdi
	.loc	0 654 42 is_stmt 0              # ldecod_src/input.c:654:42
	addq	849288(%r12), %rbx
	.loc	0 654 52                        # ldecod_src/input.c:654:52
	movslq	24(%rsp), %rsi                  # 4-byte Folded Reload
	addq	%rbx, %rsi
.Ltmp590:
.LBB8_33:                               # %cleanup
	#DEBUG_VALUE: read_one_frame:p_Vid <- $r12
	#DEBUG_VALUE: read_one_frame:input_file <- [DW_OP_LLVM_entry_value 1] $rsi
	#DEBUG_VALUE: read_one_frame:FrameNoInFile <- [DW_OP_LLVM_entry_value 1] $edx
	#DEBUG_VALUE: read_one_frame:HeaderSize <- [DW_OP_LLVM_entry_value 1] $ecx
	#DEBUG_VALUE: read_one_frame:source <- [DW_OP_plus_uconst 8] [$rsp+0]
	#DEBUG_VALUE: read_one_frame:output <- $rbp
	#DEBUG_VALUE: read_one_frame:symbol_size_in_bytes <- $r14d
	#DEBUG_VALUE: read_one_frame:rgb_input <- [DW_OP_plus_uconst 96, DW_OP_deref_size 1, DW_OP_LLVM_convert 1 7, DW_OP_LLVM_convert 32 7, DW_OP_stack_value] $rsp
	#DEBUG_VALUE: read_one_frame:bit_scale <- $eax
	.loc	0 0 0                           # ldecod_src/input.c:0:0
	movl	20(%r15), %edx
	movl	32(%r15), %ecx
	movl	20(%rbp), %r8d
	movl	32(%rbp), %r9d
	pushq	%rax
.Ltmp591:
	.cfi_adjust_cfa_offset 8
	pushq	%r14
	.cfi_adjust_cfa_offset 8
	callq	*856736(%r12)
.Ltmp592:
	addq	$16, %rsp
.Ltmp593:
	.cfi_adjust_cfa_offset -16
.LBB8_34:                               # %cleanup
	#DEBUG_VALUE: read_one_frame:p_Vid <- $r12
	#DEBUG_VALUE: read_one_frame:input_file <- [DW_OP_LLVM_entry_value 1] $rsi
	#DEBUG_VALUE: read_one_frame:FrameNoInFile <- [DW_OP_LLVM_entry_value 1] $edx
	#DEBUG_VALUE: read_one_frame:HeaderSize <- [DW_OP_LLVM_entry_value 1] $ecx
	#DEBUG_VALUE: read_one_frame:source <- [DW_OP_LLVM_entry_value 1] $r8
	#DEBUG_VALUE: read_one_frame:output <- $rbp
	#DEBUG_VALUE: read_one_frame:symbol_size_in_bytes <- $r14d
	movl	100(%rsp), %eax                 # 4-byte Reload
	.loc	0 663 1 epilogue_begin is_stmt 1 # ldecod_src/input.c:663:1
	addq	$152, %rsp
	.cfi_def_cfa_offset 56
	popq	%rbx
	.cfi_def_cfa_offset 48
	popq	%r12
.Ltmp594:
	#DEBUG_VALUE: read_one_frame:p_Vid <- [DW_OP_LLVM_entry_value 1] $rdi
	.cfi_def_cfa_offset 40
	popq	%r13
	.cfi_def_cfa_offset 32
	popq	%r14
.Ltmp595:
	.cfi_def_cfa_offset 24
	popq	%r15
	.cfi_def_cfa_offset 16
	popq	%rbp
.Ltmp596:
	#DEBUG_VALUE: read_one_frame:output <- [DW_OP_LLVM_entry_value 1] $r9
	.cfi_def_cfa_offset 8
	retq
.Ltmp597:
.Lfunc_end8:
	.size	read_one_frame, .Lfunc_end8-read_one_frame
	.cfi_endproc
	.file	10 "ldecod_src/inc" "io_raw.h" md5 0x6c0bd42530e91dc885fc5c7ca18aaed8
	.file	11 "ldecod_src/inc" "io_tiff.h" md5 0xc726d6d360c1b1e8634c71a4a9239237
                                        # -- End function
	.globl	pad_borders                     # -- Begin function pad_borders
	.p2align	4, 0x90
	.type	pad_borders,@function
pad_borders:                            # @pad_borders
.Lfunc_begin9:
	.loc	0 686 0                         # ldecod_src/input.c:686:0
	.cfi_startproc
# %bb.0:                                # %entry
	#DEBUG_VALUE: pad_borders:img_size_x <- $edi
	#DEBUG_VALUE: pad_borders:img_size_y <- $esi
	#DEBUG_VALUE: pad_borders:img_size_x_cr <- $edx
	#DEBUG_VALUE: pad_borders:img_size_y_cr <- $ecx
	#DEBUG_VALUE: pad_borders:pImage <- $r8
	pushq	%rbp
	.cfi_def_cfa_offset 16
	pushq	%r15
	.cfi_def_cfa_offset 24
	pushq	%r14
	.cfi_def_cfa_offset 32
	pushq	%r13
	.cfi_def_cfa_offset 40
	pushq	%r12
	.cfi_def_cfa_offset 48
	pushq	%rbx
	.cfi_def_cfa_offset 56
	subq	$40, %rsp
	.cfi_def_cfa_offset 96
	.cfi_offset %rbx, -56
	.cfi_offset %r12, -48
	.cfi_offset %r13, -40
	.cfi_offset %r14, -32
	.cfi_offset %r15, -24
	.cfi_offset %rbp, -16
	movq	%r8, %rbx
	movl	%ecx, 16(%rsp)                  # 4-byte Spill
.Ltmp598:
	#DEBUG_VALUE: pad_borders:img_size_y_cr <- [DW_OP_plus_uconst 16] [$rsp+0]
	movl	%edx, 8(%rsp)                   # 4-byte Spill
.Ltmp599:
	#DEBUG_VALUE: pad_borders:img_size_x_cr <- [DW_OP_plus_uconst 8] [$rsp+0]
	.loc	0 691 7 prologue_end            # ldecod_src/input.c:691:7
	movslq	112(%rsp), %rax
	.loc	0 691 23 is_stmt 0              # ldecod_src/input.c:691:23
	cmpl	%edi, %eax
	setl	%cl
	movslq	124(%rsp), %r14
	testq	%r14, %r14
	setg	%dl
.Ltmp600:
	#DEBUG_VALUE: pad_borders:y <- 0
	.loc	0 691 7                         # ldecod_src/input.c:691:7
	andb	%cl, %dl
	cmpb	$1, %dl
	jne	.LBB9_8
.Ltmp601:
# %bb.1:                                # %for.cond5.preheader.us.preheader
	#DEBUG_VALUE: pad_borders:img_size_x <- $edi
	#DEBUG_VALUE: pad_borders:img_size_y <- $esi
	#DEBUG_VALUE: pad_borders:img_size_x_cr <- [DW_OP_plus_uconst 8] [$rsp+0]
	#DEBUG_VALUE: pad_borders:img_size_y_cr <- [DW_OP_plus_uconst 16] [$rsp+0]
	#DEBUG_VALUE: pad_borders:pImage <- $rbx
	#DEBUG_VALUE: pad_borders:y <- 0
	.loc	0 0 7                           # ldecod_src/input.c:0:7
	movslq	%edi, %rcx
.Ltmp602:
	.loc	0 692 5 is_stmt 1               # ldecod_src/input.c:692:5
	movl	%edi, %edx
	subl	%eax, %edx
	andl	$3, %edx
	movq	%rax, %r8
	subq	%rcx, %r8
	xorl	%r9d, %r9d
	jmp	.LBB9_2
.Ltmp603:
	.p2align	4, 0x90
.LBB9_7:                                # %for.cond5.for.inc17_crit_edge.us
                                        #   in Loop: Header=BB9_2 Depth=1
	#DEBUG_VALUE: pad_borders:img_size_x <- $edi
	#DEBUG_VALUE: pad_borders:img_size_y <- $esi
	#DEBUG_VALUE: pad_borders:img_size_x_cr <- [DW_OP_plus_uconst 8] [$rsp+0]
	#DEBUG_VALUE: pad_borders:img_size_y_cr <- [DW_OP_plus_uconst 16] [$rsp+0]
	#DEBUG_VALUE: pad_borders:pImage <- $rbx
	#DEBUG_VALUE: pad_borders:y <- $r9
	.loc	0 692 38 is_stmt 0              # ldecod_src/input.c:692:38
	incq	%r9
.Ltmp604:
	#DEBUG_VALUE: pad_borders:y <- $r9
	.loc	0 692 17                        # ldecod_src/input.c:692:17
	cmpq	%r14, %r9
.Ltmp605:
	.loc	0 692 5                         # ldecod_src/input.c:692:5
	je	.LBB9_8
.Ltmp606:
.LBB9_2:                                # %for.cond5.preheader.us
                                        # =>This Loop Header: Depth=1
                                        #     Child Loop BB9_4 Depth 2
                                        #     Child Loop BB9_6 Depth 2
	#DEBUG_VALUE: pad_borders:img_size_x <- $edi
	#DEBUG_VALUE: pad_borders:img_size_y <- $esi
	#DEBUG_VALUE: pad_borders:img_size_x_cr <- [DW_OP_plus_uconst 8] [$rsp+0]
	#DEBUG_VALUE: pad_borders:img_size_y_cr <- [DW_OP_plus_uconst 16] [$rsp+0]
	#DEBUG_VALUE: pad_borders:pImage <- $rbx
	#DEBUG_VALUE: pad_borders:y <- $r9
	#DEBUG_VALUE: pad_borders:x <- undef
	.loc	0 0 5                           # ldecod_src/input.c:0:5
	movq	%rax, %r10
	testq	%rdx, %rdx
.Ltmp607:
	.loc	0 693 7 is_stmt 1               # ldecod_src/input.c:693:7
	je	.LBB9_5
.Ltmp608:
# %bb.3:                                # %for.body7.us.prol.preheader
                                        #   in Loop: Header=BB9_2 Depth=1
	#DEBUG_VALUE: pad_borders:img_size_x <- $edi
	#DEBUG_VALUE: pad_borders:img_size_y <- $esi
	#DEBUG_VALUE: pad_borders:img_size_x_cr <- [DW_OP_plus_uconst 8] [$rsp+0]
	#DEBUG_VALUE: pad_borders:img_size_y_cr <- [DW_OP_plus_uconst 16] [$rsp+0]
	#DEBUG_VALUE: pad_borders:pImage <- $rbx
	#DEBUG_VALUE: pad_borders:y <- $r9
	.loc	0 0 7 is_stmt 0                 # ldecod_src/input.c:0:7
	movq	%rdx, %r11
	movq	%rax, %r10
.Ltmp609:
	.p2align	4, 0x90
.LBB9_4:                                # %for.body7.us.prol
                                        #   Parent Loop BB9_2 Depth=1
                                        # =>  This Inner Loop Header: Depth=2
	#DEBUG_VALUE: pad_borders:img_size_x <- $edi
	#DEBUG_VALUE: pad_borders:img_size_y <- $esi
	#DEBUG_VALUE: pad_borders:img_size_x_cr <- [DW_OP_plus_uconst 8] [$rsp+0]
	#DEBUG_VALUE: pad_borders:img_size_y_cr <- [DW_OP_plus_uconst 16] [$rsp+0]
	#DEBUG_VALUE: pad_borders:pImage <- $rbx
	#DEBUG_VALUE: pad_borders:y <- $r9
	#DEBUG_VALUE: pad_borders:x <- $r10
	.loc	0 694 28 is_stmt 1              # ldecod_src/input.c:694:28
	movq	(%rbx), %r15
	movq	(%r15,%r9,8), %r15
	movzwl	-2(%r15,%r10,2), %ebp
	.loc	0 694 26 is_stmt 0              # ldecod_src/input.c:694:26
	movw	%bp, (%r15,%r10,2)
	.loc	0 693 50 is_stmt 1              # ldecod_src/input.c:693:50
	incq	%r10
.Ltmp610:
	#DEBUG_VALUE: pad_borders:x <- $r10
	.loc	0 693 7 is_stmt 0               # ldecod_src/input.c:693:7
	decq	%r11
	jne	.LBB9_4
.Ltmp611:
.LBB9_5:                                # %for.body7.us.prol.loopexit
                                        #   in Loop: Header=BB9_2 Depth=1
	#DEBUG_VALUE: pad_borders:img_size_x <- $edi
	#DEBUG_VALUE: pad_borders:img_size_y <- $esi
	#DEBUG_VALUE: pad_borders:img_size_x_cr <- [DW_OP_plus_uconst 8] [$rsp+0]
	#DEBUG_VALUE: pad_borders:img_size_y_cr <- [DW_OP_plus_uconst 16] [$rsp+0]
	#DEBUG_VALUE: pad_borders:pImage <- $rbx
	#DEBUG_VALUE: pad_borders:y <- $r9
	.loc	0 0 7                           # ldecod_src/input.c:0:7
	cmpq	$-4, %r8
	.loc	0 693 7                         # ldecod_src/input.c:693:7
	ja	.LBB9_7
.Ltmp612:
	.p2align	4, 0x90
.LBB9_6:                                # %for.body7.us
                                        #   Parent Loop BB9_2 Depth=1
                                        # =>  This Inner Loop Header: Depth=2
	#DEBUG_VALUE: pad_borders:img_size_x <- $edi
	#DEBUG_VALUE: pad_borders:img_size_y <- $esi
	#DEBUG_VALUE: pad_borders:img_size_x_cr <- [DW_OP_plus_uconst 8] [$rsp+0]
	#DEBUG_VALUE: pad_borders:img_size_y_cr <- [DW_OP_plus_uconst 16] [$rsp+0]
	#DEBUG_VALUE: pad_borders:pImage <- $rbx
	#DEBUG_VALUE: pad_borders:y <- $r9
	#DEBUG_VALUE: pad_borders:x <- $r10
	.loc	0 694 28 is_stmt 1              # ldecod_src/input.c:694:28
	movq	(%rbx), %r11
	movq	(%r11,%r9,8), %r11
	movzwl	-2(%r11,%r10,2), %ebp
	.loc	0 694 26 is_stmt 0              # ldecod_src/input.c:694:26
	movw	%bp, (%r11,%r10,2)
.Ltmp613:
	#DEBUG_VALUE: pad_borders:x <- [DW_OP_plus_uconst 1, DW_OP_stack_value] $r10
	.loc	0 694 28                        # ldecod_src/input.c:694:28
	movq	(%rbx), %r11
	movq	(%r11,%r9,8), %r11
	movzwl	(%r11,%r10,2), %ebp
	.loc	0 694 26                        # ldecod_src/input.c:694:26
	movw	%bp, 2(%r11,%r10,2)
.Ltmp614:
	#DEBUG_VALUE: pad_borders:x <- [DW_OP_plus_uconst 2, DW_OP_stack_value] $r10
	.loc	0 694 28                        # ldecod_src/input.c:694:28
	movq	(%rbx), %r11
	movq	(%r11,%r9,8), %r11
	movzwl	2(%r11,%r10,2), %ebp
	.loc	0 694 26                        # ldecod_src/input.c:694:26
	movw	%bp, 4(%r11,%r10,2)
.Ltmp615:
	#DEBUG_VALUE: pad_borders:x <- [DW_OP_plus_uconst 3, DW_OP_stack_value] $r10
	.loc	0 694 28                        # ldecod_src/input.c:694:28
	movq	(%rbx), %r11
	movq	(%r11,%r9,8), %r11
	movzwl	4(%r11,%r10,2), %ebp
	.loc	0 694 26                        # ldecod_src/input.c:694:26
	movw	%bp, 6(%r11,%r10,2)
	.loc	0 693 50 is_stmt 1              # ldecod_src/input.c:693:50
	addq	$4, %r10
.Ltmp616:
	#DEBUG_VALUE: pad_borders:x <- $r10
	.loc	0 693 35 is_stmt 0              # ldecod_src/input.c:693:35
	cmpq	%r10, %rcx
.Ltmp617:
	.loc	0 693 7                         # ldecod_src/input.c:693:7
	jne	.LBB9_6
	jmp	.LBB9_7
.Ltmp618:
.LBB9_8:                                # %if.end
	#DEBUG_VALUE: pad_borders:img_size_x <- $edi
	#DEBUG_VALUE: pad_borders:img_size_y <- $esi
	#DEBUG_VALUE: pad_borders:img_size_x_cr <- [DW_OP_plus_uconst 8] [$rsp+0]
	#DEBUG_VALUE: pad_borders:img_size_y_cr <- [DW_OP_plus_uconst 16] [$rsp+0]
	#DEBUG_VALUE: pad_borders:pImage <- $rbx
	.loc	0 0 7                           # ldecod_src/input.c:0:7
	leaq	96(%rsp), %rbp
.Ltmp619:
	.loc	0 697 24 is_stmt 1              # ldecod_src/input.c:697:24
	cmpl	%esi, %r14d
.Ltmp620:
	.loc	0 697 7 is_stmt 0               # ldecod_src/input.c:697:7
	jge	.LBB9_14
.Ltmp621:
# %bb.9:                                # %for.cond26.preheader
	#DEBUG_VALUE: pad_borders:img_size_x <- $edi
	#DEBUG_VALUE: pad_borders:img_size_y <- $esi
	#DEBUG_VALUE: pad_borders:img_size_x_cr <- [DW_OP_plus_uconst 8] [$rsp+0]
	#DEBUG_VALUE: pad_borders:img_size_y_cr <- [DW_OP_plus_uconst 16] [$rsp+0]
	#DEBUG_VALUE: pad_borders:pImage <- $rbx
	.loc	0 0 7                           # ldecod_src/input.c:0:7
	movslq	%edi, %r15
	addq	%r15, %r15
.Ltmp622:
	.loc	0 698 33 is_stmt 1              # ldecod_src/input.c:698:33
	movslq	%esi, %r13
.Ltmp623:
	.loc	0 698 5 is_stmt 0               # ldecod_src/input.c:698:5
	subl	%r14d, %esi
.Ltmp624:
	#DEBUG_VALUE: pad_borders:img_size_y <- [DW_OP_LLVM_entry_value 1] $esi
	testb	$1, %sil
.Ltmp625:
	#DEBUG_VALUE: pad_borders:y <- undef
	jne	.LBB9_11
.Ltmp626:
# %bb.10:
	#DEBUG_VALUE: pad_borders:img_size_x <- $edi
	#DEBUG_VALUE: pad_borders:img_size_y <- [DW_OP_LLVM_entry_value 1] $esi
	#DEBUG_VALUE: pad_borders:img_size_x_cr <- [DW_OP_plus_uconst 8] [$rsp+0]
	#DEBUG_VALUE: pad_borders:img_size_y_cr <- [DW_OP_plus_uconst 16] [$rsp+0]
	#DEBUG_VALUE: pad_borders:pImage <- $rbx
	.loc	0 0 5                           # ldecod_src/input.c:0:5
	movq	%r14, %r12
	.loc	0 698 5                         # ldecod_src/input.c:698:5
	leaq	-1(%r13), %rax
	cmpq	%r14, %rax
	jne	.LBB9_13
	jmp	.LBB9_14
.Ltmp627:
.LBB9_11:                               # %for.body28.prol
	#DEBUG_VALUE: pad_borders:img_size_x <- $edi
	#DEBUG_VALUE: pad_borders:img_size_y <- [DW_OP_LLVM_entry_value 1] $esi
	#DEBUG_VALUE: pad_borders:img_size_x_cr <- [DW_OP_plus_uconst 8] [$rsp+0]
	#DEBUG_VALUE: pad_borders:img_size_y_cr <- [DW_OP_plus_uconst 16] [$rsp+0]
	#DEBUG_VALUE: pad_borders:pImage <- $rbx
	#DEBUG_VALUE: pad_borders:y <- $r14
	.loc	0 699 14 is_stmt 1              # ldecod_src/input.c:699:14
	movq	(%rbx), %rax
	.loc	0 699 28 is_stmt 0              # ldecod_src/input.c:699:28
	movq	-8(%rax,%r14,8), %rsi
	.loc	0 699 14                        # ldecod_src/input.c:699:14
	movq	(%rax,%r14,8), %rdi
.Ltmp628:
	#DEBUG_VALUE: pad_borders:img_size_x <- [DW_OP_LLVM_entry_value 1] $edi
	.loc	0 699 7                         # ldecod_src/input.c:699:7
	movq	%r15, %rdx
	callq	memcpy@PLT
.Ltmp629:
	.loc	0 698 47 is_stmt 1              # ldecod_src/input.c:698:47
	leaq	1(%r14), %r12
.Ltmp630:
	#DEBUG_VALUE: pad_borders:y <- $r12
