	.text
	.file	"intra4x4_pred_mbaff.c"
	.file	0 "/home/yjs/workspace/x264-test/src" "ldecod_src/intra4x4_pred_mbaff.c" md5 0xed4464895787987d92bac9ac5d503e4f
	.file	1 "ldecod_src/inc" "frame.h" md5 0xfd6ca9e1c707932f749220576db72b57
	.file	2 "ldecod_src/inc" "io_video.h" md5 0x1141c07f1801ad27d87214c419749431
	.file	3 "ldecod_src/inc" "types.h" md5 0x64f87bd13f2911471c7313b4ac17e90c
	.file	4 "ldecod_src/inc" "defines.h" md5 0xf06de374c735b286d10ba4ea0c8c0a5d
	.file	5 "ldecod_src/inc" "typedefs.h" md5 0xe1393d024b72e653f4e6dbeffdb0b154
	.globl	intra4x4_pred_mbaff             # -- Begin function intra4x4_pred_mbaff
	.p2align	4, 0x90
	.type	intra4x4_pred_mbaff,@function
intra4x4_pred_mbaff:                    # @intra4x4_pred_mbaff
.Lfunc_begin0:
	.loc	0 781 0                         # ldecod_src/intra4x4_pred_mbaff.c:781:0
	.cfi_startproc
# %bb.0:                                # %entry
	#DEBUG_VALUE: intra4x4_pred_mbaff:currMB <- $rdi
	#DEBUG_VALUE: intra4x4_pred_mbaff:pl <- $esi
	#DEBUG_VALUE: intra4x4_pred_mbaff:ioff <- $edx
	#DEBUG_VALUE: intra4x4_pred_mbaff:joff <- $ecx
	#DEBUG_VALUE: intra4x4_pred_mbaff:img_block_x <- $r8d
	#DEBUG_VALUE: intra4x4_pred_mbaff:img_block_y <- $r9d
	pushq	%rbp
	.cfi_def_cfa_offset 16
	pushq	%r15
	.cfi_def_cfa_offset 24
	pushq	%r14
	.cfi_def_cfa_offset 32
	pushq	%r13
	.cfi_def_cfa_offset 40
	pushq	%r12
	.cfi_def_cfa_offset 48
	pushq	%rbx
	.cfi_def_cfa_offset 56
	subq	$152, %rsp
	.cfi_def_cfa_offset 208
	.cfi_offset %rbx, -56
	.cfi_offset %r12, -48
	.cfi_offset %r13, -40
	.cfi_offset %r14, -32
	.cfi_offset %r15, -24
	.cfi_offset %rbp, -16
	movl	%ecx, %r13d
	movl	%esi, %r15d
.Ltmp0:
	.loc	0 782 36 prologue_end           # ldecod_src/intra4x4_pred_mbaff.c:782:36
	movq	8(%rdi), %rbx
.Ltmp1:
	#DEBUG_VALUE: intra4x4_pred_mbaff:p_Vid <- $rbx
	.loc	0 783 26                        # ldecod_src/intra4x4_pred_mbaff.c:783:26
	movq	848800(%rbx), %rax
	.loc	0 783 19 is_stmt 0              # ldecod_src/intra4x4_pred_mbaff.c:783:19
	movslq	%r9d, %rcx
.Ltmp2:
	#DEBUG_VALUE: intra4x4_pred_mbaff:joff <- $r13d
	movq	(%rax,%rcx,8), %rax
	movslq	%r8d, %rcx
	movzbl	(%rax,%rcx), %esi
.Ltmp3:
	#DEBUG_VALUE: intra4x4_pred_mbaff:pl <- $r15d
	#DEBUG_VALUE: intra4x4_pred_mbaff:predmode <- [DW_OP_LLVM_convert 64 7, DW_OP_LLVM_convert 8 7] $esi
	.loc	0 784 23 is_stmt 1              # ldecod_src/intra4x4_pred_mbaff.c:784:23
	movb	%sil, 372(%rdi)
	.loc	0 783 19                        # ldecod_src/intra4x4_pred_mbaff.c:783:19
	cmpq	$8, %rsi
	.loc	0 786 3                         # ldecod_src/intra4x4_pred_mbaff.c:786:3
	ja	.LBB0_24
.Ltmp4:
# %bb.1:                                # %entry
	#DEBUG_VALUE: intra4x4_pred_mbaff:currMB <- $rdi
	#DEBUG_VALUE: intra4x4_pred_mbaff:pl <- $r15d
	#DEBUG_VALUE: intra4x4_pred_mbaff:ioff <- $edx
	#DEBUG_VALUE: intra4x4_pred_mbaff:joff <- $r13d
	#DEBUG_VALUE: intra4x4_pred_mbaff:img_block_x <- $r8d
	#DEBUG_VALUE: intra4x4_pred_mbaff:img_block_y <- $r9d
	#DEBUG_VALUE: intra4x4_pred_mbaff:p_Vid <- $rbx
	#DEBUG_VALUE: intra4x4_pred_mbaff:predmode <- [DW_OP_LLVM_convert 64 7, DW_OP_LLVM_convert 8 7] $esi
	.loc	0 0 3 is_stmt 0                 # ldecod_src/intra4x4_pred_mbaff.c:0:3
	movl	%edx, %r12d
	.loc	0 786 3                         # ldecod_src/intra4x4_pred_mbaff.c:786:3
	jmpq	*.LJTI0_0(,%rsi,8)
.Ltmp5:
.LBB0_2:                                # %sw.bb4
	#DEBUG_VALUE: intra4x4_pred_mbaff:currMB <- $rdi
	#DEBUG_VALUE: intra4x4_pred_mbaff:pl <- $r15d
	#DEBUG_VALUE: intra4x4_pred_mbaff:ioff <- $r12d
	#DEBUG_VALUE: intra4x4_pred_mbaff:joff <- $r13d
	#DEBUG_VALUE: intra4x4_pred_mbaff:img_block_x <- $r8d
	#DEBUG_VALUE: intra4x4_pred_mbaff:img_block_y <- $r9d
	#DEBUG_VALUE: intra4x4_pred_mbaff:p_Vid <- $rbx
	#DEBUG_VALUE: intra4x4_pred_mbaff:predmode <- [DW_OP_LLVM_convert 64 7, DW_OP_LLVM_convert 8 7] $esi
	#DEBUG_VALUE: intra4x4_vert_pred_mbaff:pix_b <- [DW_OP_plus_uconst 48, DW_OP_deref] $rsp
	#DEBUG_VALUE: intra4x4_vert_pred_mbaff:currMB <- $rdi
	#DEBUG_VALUE: intra4x4_vert_pred_mbaff:pl <- $r15d
	#DEBUG_VALUE: intra4x4_vert_pred_mbaff:ioff <- $r12d
	#DEBUG_VALUE: intra4x4_vert_pred_mbaff:joff <- $r13d
	.loc	0 150 30 is_stmt 1              # ldecod_src/intra4x4_pred_mbaff.c:150:30
	movq	(%rdi), %r14
.Ltmp6:
	#DEBUG_VALUE: intra4x4_vert_pred_mbaff:currSlice <- $r14
	#DEBUG_VALUE: intra4x4_vert_pred_mbaff:p_Vid <- $rbx
	.loc	0 156 38                        # ldecod_src/intra4x4_pred_mbaff.c:156:38
	leal	-1(%r13), %edx
	.loc	0 156 51 is_stmt 0              # ldecod_src/intra4x4_pred_mbaff.c:156:51
	leaq	849124(%rbx), %rcx
	leaq	48(%rsp), %r8
.Ltmp7:
	#DEBUG_VALUE: intra4x4_pred_mbaff:img_block_x <- [DW_OP_LLVM_entry_value 1] $r8d
	.loc	0 156 3                         # ldecod_src/intra4x4_pred_mbaff.c:156:3
	movl	%r12d, %esi
.Ltmp8:
	callq	getAffNeighbour@PLT
.Ltmp9:
	#DEBUG_VALUE: intra4x4_pred_mbaff:img_block_y <- [DW_OP_LLVM_entry_value 1] $r9d
	#DEBUG_VALUE: intra4x4_pred_mbaff:currMB <- [DW_OP_LLVM_entry_value 1] $rdi
	.loc	0 158 14 is_stmt 1              # ldecod_src/intra4x4_pred_mbaff.c:158:14
	movq	8(%rbx), %rax
	.loc	0 158 7 is_stmt 0               # ldecod_src/intra4x4_pred_mbaff.c:158:7
	cmpl	$0, 2204(%rax)
	.loc	0 0 0                           # ldecod_src/intra4x4_pred_mbaff.c:0:0
	movl	48(%rsp), %eax
.Ltmp10:
	.loc	0 158 7                         # ldecod_src/intra4x4_pred_mbaff.c:158:7
	je	.LBB0_5
.Ltmp11:
# %bb.3:                                # %if.then.i
	#DEBUG_VALUE: intra4x4_pred_mbaff:currMB <- [DW_OP_LLVM_entry_value 1] $rdi
	#DEBUG_VALUE: intra4x4_pred_mbaff:pl <- $r15d
	#DEBUG_VALUE: intra4x4_pred_mbaff:ioff <- $r12d
	#DEBUG_VALUE: intra4x4_pred_mbaff:joff <- $r13d
	#DEBUG_VALUE: intra4x4_pred_mbaff:img_block_x <- [DW_OP_LLVM_entry_value 1] $r8d
	#DEBUG_VALUE: intra4x4_pred_mbaff:img_block_y <- [DW_OP_LLVM_entry_value 1] $r9d
	#DEBUG_VALUE: intra4x4_pred_mbaff:p_Vid <- $rbx
	#DEBUG_VALUE: intra4x4_vert_pred_mbaff:pix_b <- [DW_OP_plus_uconst 48, DW_OP_deref] $rsp
	#DEBUG_VALUE: intra4x4_vert_pred_mbaff:pl <- $r15d
	#DEBUG_VALUE: intra4x4_vert_pred_mbaff:ioff <- $r12d
	#DEBUG_VALUE: intra4x4_vert_pred_mbaff:joff <- $r13d
	#DEBUG_VALUE: intra4x4_vert_pred_mbaff:currSlice <- $r14
	#DEBUG_VALUE: intra4x4_vert_pred_mbaff:p_Vid <- $rbx
	.loc	0 160 26 is_stmt 1              # ldecod_src/intra4x4_pred_mbaff.c:160:26
	testl	%eax, %eax
	je	.LBB0_25
.Ltmp12:
# %bb.4:                                # %cond.true.i66
	#DEBUG_VALUE: intra4x4_pred_mbaff:currMB <- [DW_OP_LLVM_entry_value 1] $rdi
	#DEBUG_VALUE: intra4x4_pred_mbaff:pl <- $r15d
	#DEBUG_VALUE: intra4x4_pred_mbaff:ioff <- $r12d
	#DEBUG_VALUE: intra4x4_pred_mbaff:joff <- $r13d
	#DEBUG_VALUE: intra4x4_pred_mbaff:img_block_x <- [DW_OP_LLVM_entry_value 1] $r8d
	#DEBUG_VALUE: intra4x4_pred_mbaff:img_block_y <- [DW_OP_LLVM_entry_value 1] $r9d
	#DEBUG_VALUE: intra4x4_pred_mbaff:p_Vid <- $rbx
	#DEBUG_VALUE: intra4x4_vert_pred_mbaff:pix_b <- [DW_OP_plus_uconst 48, DW_OP_deref] $rsp
	#DEBUG_VALUE: intra4x4_vert_pred_mbaff:pl <- $r15d
	#DEBUG_VALUE: intra4x4_vert_pred_mbaff:ioff <- $r12d
	#DEBUG_VALUE: intra4x4_vert_pred_mbaff:joff <- $r13d
	#DEBUG_VALUE: intra4x4_vert_pred_mbaff:currSlice <- $r14
	#DEBUG_VALUE: intra4x4_vert_pred_mbaff:p_Vid <- $rbx
	.loc	0 160 55 is_stmt 0              # ldecod_src/intra4x4_pred_mbaff.c:160:55
	movq	13544(%r14), %rax
	.loc	0 160 74                        # ldecod_src/intra4x4_pred_mbaff.c:160:74
	movslq	52(%rsp), %rcx
	.loc	0 160 44                        # ldecod_src/intra4x4_pred_mbaff.c:160:44
	movsbl	(%rax,%rcx), %eax
.Ltmp13:
.LBB0_5:                                # %if.end.i70
	#DEBUG_VALUE: intra4x4_pred_mbaff:currMB <- [DW_OP_LLVM_entry_value 1] $rdi
	#DEBUG_VALUE: intra4x4_pred_mbaff:pl <- $r15d
	#DEBUG_VALUE: intra4x4_pred_mbaff:ioff <- $r12d
	#DEBUG_VALUE: intra4x4_pred_mbaff:joff <- $r13d
	#DEBUG_VALUE: intra4x4_pred_mbaff:img_block_x <- [DW_OP_LLVM_entry_value 1] $r8d
	#DEBUG_VALUE: intra4x4_pred_mbaff:img_block_y <- [DW_OP_LLVM_entry_value 1] $r9d
	#DEBUG_VALUE: intra4x4_pred_mbaff:p_Vid <- $rbx
	#DEBUG_VALUE: intra4x4_vert_pred_mbaff:pix_b <- [DW_OP_plus_uconst 48, DW_OP_deref] $rsp
	#DEBUG_VALUE: intra4x4_vert_pred_mbaff:pl <- $r15d
	#DEBUG_VALUE: intra4x4_vert_pred_mbaff:ioff <- $r12d
	#DEBUG_VALUE: intra4x4_vert_pred_mbaff:joff <- $r13d
	#DEBUG_VALUE: intra4x4_vert_pred_mbaff:currSlice <- $r14
	#DEBUG_VALUE: intra4x4_vert_pred_mbaff:p_Vid <- $rbx
	#DEBUG_VALUE: intra4x4_vert_pred_mbaff:block_available_up <- $eax
	.loc	0 167 8 is_stmt 1               # ldecod_src/intra4x4_pred_mbaff.c:167:8
	testl	%eax, %eax
.Ltmp14:
	.loc	0 167 7 is_stmt 0               # ldecod_src/intra4x4_pred_mbaff.c:167:7
	je	.LBB0_25
.Ltmp15:
# %bb.6:                                # %if.else7.i
	#DEBUG_VALUE: intra4x4_pred_mbaff:currMB <- [DW_OP_LLVM_entry_value 1] $rdi
	#DEBUG_VALUE: intra4x4_pred_mbaff:pl <- $r15d
	#DEBUG_VALUE: intra4x4_pred_mbaff:ioff <- $r12d
	#DEBUG_VALUE: intra4x4_pred_mbaff:joff <- $r13d
	#DEBUG_VALUE: intra4x4_pred_mbaff:img_block_x <- [DW_OP_LLVM_entry_value 1] $r8d
	#DEBUG_VALUE: intra4x4_pred_mbaff:img_block_y <- [DW_OP_LLVM_entry_value 1] $r9d
	#DEBUG_VALUE: intra4x4_pred_mbaff:p_Vid <- $rbx
	#DEBUG_VALUE: intra4x4_vert_pred_mbaff:pix_b <- [DW_OP_plus_uconst 48, DW_OP_deref] $rsp
	#DEBUG_VALUE: intra4x4_vert_pred_mbaff:pl <- $r15d
	#DEBUG_VALUE: intra4x4_vert_pred_mbaff:ioff <- $r12d
	#DEBUG_VALUE: intra4x4_vert_pred_mbaff:joff <- $r13d
	#DEBUG_VALUE: intra4x4_vert_pred_mbaff:currSlice <- $r14
	#DEBUG_VALUE: intra4x4_vert_pred_mbaff:p_Vid <- $rbx
	#DEBUG_VALUE: intra4x4_vert_pred_mbaff:block_available_up <- $eax
	.loc	0 173 35 is_stmt 1              # ldecod_src/intra4x4_pred_mbaff.c:173:35
	movq	1248(%r14), %rax
.Ltmp16:
	.loc	0 173 24 is_stmt 0              # ldecod_src/intra4x4_pred_mbaff.c:173:24
	movl	%r15d, %ecx
	movq	(%rax,%rcx,8), %rax
.Ltmp17:
	#DEBUG_VALUE: mb_pred <- $rax
	.loc	0 174 0 is_stmt 1               # ldecod_src/intra4x4_pred_mbaff.c:174:0
	movq	13520(%r14), %rcx
	.loc	0 174 20 is_stmt 0              # ldecod_src/intra4x4_pred_mbaff.c:174:20
	testl	%r15d, %r15d
	je	.LBB0_169
.Ltmp18:
# %bb.7:                                # %cond.true12.i
	#DEBUG_VALUE: intra4x4_pred_mbaff:currMB <- [DW_OP_LLVM_entry_value 1] $rdi
	#DEBUG_VALUE: intra4x4_pred_mbaff:pl <- $r15d
	#DEBUG_VALUE: intra4x4_pred_mbaff:ioff <- $r12d
	#DEBUG_VALUE: intra4x4_pred_mbaff:joff <- $r13d
	#DEBUG_VALUE: intra4x4_pred_mbaff:img_block_x <- [DW_OP_LLVM_entry_value 1] $r8d
	#DEBUG_VALUE: intra4x4_pred_mbaff:img_block_y <- [DW_OP_LLVM_entry_value 1] $r9d
	#DEBUG_VALUE: intra4x4_pred_mbaff:p_Vid <- $rbx
	#DEBUG_VALUE: intra4x4_vert_pred_mbaff:pix_b <- [DW_OP_plus_uconst 48, DW_OP_deref] $rsp
	#DEBUG_VALUE: intra4x4_vert_pred_mbaff:pl <- $r15d
	#DEBUG_VALUE: intra4x4_vert_pred_mbaff:ioff <- $r12d
	#DEBUG_VALUE: intra4x4_vert_pred_mbaff:joff <- $r13d
	#DEBUG_VALUE: intra4x4_vert_pred_mbaff:currSlice <- $r14
	#DEBUG_VALUE: intra4x4_vert_pred_mbaff:p_Vid <- $rbx
	#DEBUG_VALUE: mb_pred <- $rax
	.loc	0 174 61                        # ldecod_src/intra4x4_pred_mbaff.c:174:61
	decl	%r15d
.Ltmp19:
	#DEBUG_VALUE: intra4x4_pred_mbaff:pl <- [DW_OP_LLVM_entry_value 1] $esi
	.loc	0 174 28                        # ldecod_src/intra4x4_pred_mbaff.c:174:28
	shlq	$3, %r15
	addq	136(%rcx), %r15
	.loc	0 174 20                        # ldecod_src/intra4x4_pred_mbaff.c:174:20
	jmp	.LBB0_170
.Ltmp20:
.LBB0_8:                                # %sw.bb8
	#DEBUG_VALUE: intra4x4_pred_mbaff:currMB <- $rdi
	#DEBUG_VALUE: intra4x4_pred_mbaff:pl <- $r15d
	#DEBUG_VALUE: intra4x4_pred_mbaff:ioff <- $r12d
	#DEBUG_VALUE: intra4x4_pred_mbaff:joff <- $r13d
	#DEBUG_VALUE: intra4x4_pred_mbaff:img_block_x <- $r8d
	#DEBUG_VALUE: intra4x4_pred_mbaff:img_block_y <- $r9d
	#DEBUG_VALUE: intra4x4_pred_mbaff:p_Vid <- $rbx
	#DEBUG_VALUE: intra4x4_pred_mbaff:predmode <- [DW_OP_LLVM_convert 64 7, DW_OP_LLVM_convert 8 7] $esi
	#DEBUG_VALUE: intra4x4_diag_down_right_pred_mbaff:pix_d <- [DW_OP_plus_uconst 136, DW_OP_deref] $rsp
	#DEBUG_VALUE: intra4x4_diag_down_right_pred_mbaff:currMB <- $rdi
	#DEBUG_VALUE: intra4x4_diag_down_right_pred_mbaff:pl <- $r15d
	#DEBUG_VALUE: intra4x4_diag_down_right_pred_mbaff:ioff <- $r12d
	#DEBUG_VALUE: intra4x4_diag_down_right_pred_mbaff:joff <- $r13d
	.loc	0 263 30 is_stmt 1              # ldecod_src/intra4x4_pred_mbaff.c:263:30
	movq	(%rdi), %rdx
.Ltmp21:
	#DEBUG_VALUE: intra4x4_diag_down_right_pred_mbaff:currSlice <- $rdx
	#DEBUG_VALUE: intra4x4_diag_down_right_pred_mbaff:p_Vid <- $rbx
	.loc	0 267 0                         # ldecod_src/intra4x4_pred_mbaff.c:267:0
	movq	13520(%rdx), %rax
	.loc	0 267 19 is_stmt 0              # ldecod_src/intra4x4_pred_mbaff.c:267:19
	testl	%r15d, %r15d
	je	.LBB0_26
.Ltmp22:
# %bb.9:                                # %cond.true.i124
	#DEBUG_VALUE: intra4x4_pred_mbaff:currMB <- $rdi
	#DEBUG_VALUE: intra4x4_pred_mbaff:pl <- $r15d
	#DEBUG_VALUE: intra4x4_pred_mbaff:ioff <- $r12d
	#DEBUG_VALUE: intra4x4_pred_mbaff:joff <- $r13d
	#DEBUG_VALUE: intra4x4_pred_mbaff:img_block_x <- $r8d
	#DEBUG_VALUE: intra4x4_pred_mbaff:img_block_y <- $r9d
	#DEBUG_VALUE: intra4x4_pred_mbaff:p_Vid <- $rbx
	#DEBUG_VALUE: intra4x4_pred_mbaff:predmode <- [DW_OP_LLVM_convert 64 7, DW_OP_LLVM_convert 8 7] $esi
	#DEBUG_VALUE: intra4x4_diag_down_right_pred_mbaff:pix_d <- [DW_OP_plus_uconst 136, DW_OP_deref] $rsp
	#DEBUG_VALUE: intra4x4_diag_down_right_pred_mbaff:currMB <- $rdi
	#DEBUG_VALUE: intra4x4_diag_down_right_pred_mbaff:pl <- $r15d
	#DEBUG_VALUE: intra4x4_diag_down_right_pred_mbaff:ioff <- $r12d
	#DEBUG_VALUE: intra4x4_diag_down_right_pred_mbaff:joff <- $r13d
	#DEBUG_VALUE: intra4x4_diag_down_right_pred_mbaff:currSlice <- $rdx
	#DEBUG_VALUE: intra4x4_diag_down_right_pred_mbaff:p_Vid <- $rbx
	.loc	0 267 59                        # ldecod_src/intra4x4_pred_mbaff.c:267:59
	leal	-1(%r15), %ecx
	.loc	0 267 26                        # ldecod_src/intra4x4_pred_mbaff.c:267:26
	shlq	$3, %rcx
	addq	136(%rax), %rcx
	.loc	0 267 19                        # ldecod_src/intra4x4_pred_mbaff.c:267:19
	jmp	.LBB0_27
.Ltmp23:
.LBB0_10:                               # %sw.bb
	#DEBUG_VALUE: intra4x4_pred_mbaff:currMB <- $rdi
	#DEBUG_VALUE: intra4x4_pred_mbaff:pl <- $r15d
	#DEBUG_VALUE: intra4x4_pred_mbaff:ioff <- $r12d
	#DEBUG_VALUE: intra4x4_pred_mbaff:joff <- $r13d
	#DEBUG_VALUE: intra4x4_pred_mbaff:img_block_x <- $r8d
	#DEBUG_VALUE: intra4x4_pred_mbaff:img_block_y <- $r9d
	#DEBUG_VALUE: intra4x4_pred_mbaff:p_Vid <- $rbx
	#DEBUG_VALUE: intra4x4_pred_mbaff:predmode <- [DW_OP_LLVM_convert 64 7, DW_OP_LLVM_convert 8 7] $esi
	#DEBUG_VALUE: intra4x4_dc_pred_mbaff:pix_b <- [DW_OP_plus_uconst 32, DW_OP_deref] $rsp
	#DEBUG_VALUE: intra4x4_dc_pred_mbaff:currMB <- $rdi
	#DEBUG_VALUE: intra4x4_dc_pred_mbaff:pl <- $r15d
	#DEBUG_VALUE: intra4x4_dc_pred_mbaff:ioff <- $r12d
	#DEBUG_VALUE: intra4x4_dc_pred_mbaff:joff <- $r13d
	.loc	0 54 30 is_stmt 1               # ldecod_src/intra4x4_pred_mbaff.c:54:30
	movq	(%rdi), %rdx
.Ltmp24:
	#DEBUG_VALUE: intra4x4_dc_pred_mbaff:currSlice <- $rdx
	#DEBUG_VALUE: intra4x4_dc_pred_mbaff:p_Vid <- $rbx
	#DEBUG_VALUE: intra4x4_dc_pred_mbaff:s0 <- 0
	.loc	0 59 0                          # ldecod_src/intra4x4_pred_mbaff.c:59:0
	movq	13520(%rdx), %rax
	.loc	0 59 19 is_stmt 0               # ldecod_src/intra4x4_pred_mbaff.c:59:19
	testl	%r15d, %r15d
	je	.LBB0_39
.Ltmp25:
# %bb.11:                               # %cond.true.i
	#DEBUG_VALUE: intra4x4_pred_mbaff:currMB <- $rdi
	#DEBUG_VALUE: intra4x4_pred_mbaff:pl <- $r15d
	#DEBUG_VALUE: intra4x4_pred_mbaff:ioff <- $r12d
	#DEBUG_VALUE: intra4x4_pred_mbaff:joff <- $r13d
	#DEBUG_VALUE: intra4x4_pred_mbaff:img_block_x <- $r8d
	#DEBUG_VALUE: intra4x4_pred_mbaff:img_block_y <- $r9d
	#DEBUG_VALUE: intra4x4_pred_mbaff:p_Vid <- $rbx
	#DEBUG_VALUE: intra4x4_pred_mbaff:predmode <- [DW_OP_LLVM_convert 64 7, DW_OP_LLVM_convert 8 7] $esi
	#DEBUG_VALUE: intra4x4_dc_pred_mbaff:pix_b <- [DW_OP_plus_uconst 32, DW_OP_deref] $rsp
	#DEBUG_VALUE: intra4x4_dc_pred_mbaff:currMB <- $rdi
	#DEBUG_VALUE: intra4x4_dc_pred_mbaff:pl <- $r15d
	#DEBUG_VALUE: intra4x4_dc_pred_mbaff:ioff <- $r12d
	#DEBUG_VALUE: intra4x4_dc_pred_mbaff:joff <- $r13d
	#DEBUG_VALUE: intra4x4_dc_pred_mbaff:currSlice <- $rdx
	#DEBUG_VALUE: intra4x4_dc_pred_mbaff:p_Vid <- $rbx
	#DEBUG_VALUE: intra4x4_dc_pred_mbaff:s0 <- 0
	.loc	0 59 59                         # ldecod_src/intra4x4_pred_mbaff.c:59:59
	leal	-1(%r15), %ecx
	.loc	0 59 26                         # ldecod_src/intra4x4_pred_mbaff.c:59:26
	shlq	$3, %rcx
	addq	136(%rax), %rcx
	.loc	0 59 19                         # ldecod_src/intra4x4_pred_mbaff.c:59:19
	jmp	.LBB0_40
.Ltmp26:
.LBB0_12:                               # %sw.bb10
	#DEBUG_VALUE: intra4x4_pred_mbaff:currMB <- $rdi
	#DEBUG_VALUE: intra4x4_pred_mbaff:pl <- $r15d
	#DEBUG_VALUE: intra4x4_pred_mbaff:ioff <- $r12d
	#DEBUG_VALUE: intra4x4_pred_mbaff:joff <- $r13d
	#DEBUG_VALUE: intra4x4_pred_mbaff:img_block_x <- $r8d
	#DEBUG_VALUE: intra4x4_pred_mbaff:img_block_y <- $r9d
	#DEBUG_VALUE: intra4x4_pred_mbaff:p_Vid <- $rbx
	#DEBUG_VALUE: intra4x4_pred_mbaff:predmode <- [DW_OP_LLVM_convert 64 7, DW_OP_LLVM_convert 8 7] $esi
	#DEBUG_VALUE: intra4x4_diag_down_left_pred_mbaff:pix_c <- [DW_OP_plus_uconst 32, DW_OP_deref] $rsp
	#DEBUG_VALUE: intra4x4_diag_down_left_pred_mbaff:currMB <- $rdi
	#DEBUG_VALUE: intra4x4_diag_down_left_pred_mbaff:pl <- $r15d
	#DEBUG_VALUE: intra4x4_diag_down_left_pred_mbaff:ioff <- $r12d
	#DEBUG_VALUE: intra4x4_diag_down_left_pred_mbaff:joff <- $r13d
	.loc	0 351 30 is_stmt 1              # ldecod_src/intra4x4_pred_mbaff.c:351:30
	movq	(%rdi), %rax
.Ltmp27:
	#DEBUG_VALUE: intra4x4_diag_down_left_pred_mbaff:currSlice <- $rax
	#DEBUG_VALUE: intra4x4_diag_down_left_pred_mbaff:p_Vid <- $rbx
	.loc	0 0 30 is_stmt 0                # ldecod_src/intra4x4_pred_mbaff.c:0:30
	movq	%rax, 16(%rsp)                  # 8-byte Spill
.Ltmp28:
	#DEBUG_VALUE: intra4x4_diag_down_left_pred_mbaff:currSlice <- [DW_OP_plus_uconst 16, DW_OP_deref] $rsp
	movq	%r12, %r14
	.loc	0 359 46 is_stmt 1              # ldecod_src/intra4x4_pred_mbaff.c:359:46
	leal	-1(%r13), %ebp
	.loc	0 359 58 is_stmt 0              # ldecod_src/intra4x4_pred_mbaff.c:359:58
	leaq	849124(%rbx), %r12
.Ltmp29:
	#DEBUG_VALUE: intra4x4_diag_down_left_pred_mbaff:ioff <- $r14d
	#DEBUG_VALUE: intra4x4_pred_mbaff:ioff <- $r14d
	.loc	0 0 58                          # ldecod_src/intra4x4_pred_mbaff.c:0:58
	leaq	48(%rsp), %r8
.Ltmp30:
	#DEBUG_VALUE: intra4x4_pred_mbaff:img_block_x <- [DW_OP_LLVM_entry_value 1] $r8d
	movq	%r13, 8(%rsp)                   # 8-byte Spill
.Ltmp31:
	#DEBUG_VALUE: intra4x4_diag_down_left_pred_mbaff:joff <- [DW_OP_plus_uconst 8, DW_OP_deref] $rsp
	#DEBUG_VALUE: intra4x4_pred_mbaff:joff <- [DW_OP_plus_uconst 8] [$rsp+0]
	movq	%rdi, %r13
	.loc	0 359 3                         # ldecod_src/intra4x4_pred_mbaff.c:359:3
	movl	%r14d, %esi
.Ltmp32:
	movl	%ebp, %edx
	movq	%r12, %rcx
	callq	*856744(%rbx)
.Ltmp33:
	#DEBUG_VALUE: intra4x4_pred_mbaff:img_block_y <- [DW_OP_LLVM_entry_value 1] $r9d
	#DEBUG_VALUE: intra4x4_diag_down_left_pred_mbaff:currMB <- $r13
	#DEBUG_VALUE: intra4x4_pred_mbaff:currMB <- $r13
	.loc	0 360 36 is_stmt 1              # ldecod_src/intra4x4_pred_mbaff.c:360:36
	leal	4(%r14), %esi
	leaq	32(%rsp), %r8
	.loc	0 360 3 is_stmt 0               # ldecod_src/intra4x4_pred_mbaff.c:360:3
	movq	%r13, %rdi
	movl	%ebp, %edx
	movq	%r12, %rcx
	callq	*856744(%rbx)
.Ltmp34:
	.loc	0 362 21 is_stmt 1              # ldecod_src/intra4x4_pred_mbaff.c:362:21
	cmpl	$0, 32(%rsp)
	.loc	0 362 37 is_stmt 0              # ldecod_src/intra4x4_pred_mbaff.c:362:37
	je	.LBB0_58
.Ltmp35:
# %bb.13:                               # %land.rhs.i
	#DEBUG_VALUE: intra4x4_pred_mbaff:currMB <- $r13
	#DEBUG_VALUE: intra4x4_pred_mbaff:pl <- $r15d
	#DEBUG_VALUE: intra4x4_pred_mbaff:ioff <- $r14d
	#DEBUG_VALUE: intra4x4_pred_mbaff:joff <- [DW_OP_plus_uconst 8] [$rsp+0]
	#DEBUG_VALUE: intra4x4_pred_mbaff:img_block_x <- [DW_OP_LLVM_entry_value 1] $r8d
	#DEBUG_VALUE: intra4x4_pred_mbaff:img_block_y <- [DW_OP_LLVM_entry_value 1] $r9d
	#DEBUG_VALUE: intra4x4_pred_mbaff:p_Vid <- $rbx
	#DEBUG_VALUE: intra4x4_diag_down_left_pred_mbaff:pix_c <- [DW_OP_plus_uconst 32, DW_OP_deref] $rsp
	#DEBUG_VALUE: intra4x4_diag_down_left_pred_mbaff:currMB <- $r13
	#DEBUG_VALUE: intra4x4_diag_down_left_pred_mbaff:pl <- $r15d
	#DEBUG_VALUE: intra4x4_diag_down_left_pred_mbaff:ioff <- $r14d
	#DEBUG_VALUE: intra4x4_diag_down_left_pred_mbaff:joff <- [DW_OP_plus_uconst 8, DW_OP_deref] $rsp
	#DEBUG_VALUE: intra4x4_diag_down_left_pred_mbaff:currSlice <- [DW_OP_plus_uconst 16, DW_OP_deref] $rsp
	#DEBUG_VALUE: intra4x4_diag_down_left_pred_mbaff:p_Vid <- $rbx
	.loc	0 362 47                        # ldecod_src/intra4x4_pred_mbaff.c:362:47
	movl	%r14d, %eax
	xorl	$4, %eax
	movq	8(%rsp), %r13                   # 8-byte Reload
.Ltmp36:
	.loc	0 362 52                        # ldecod_src/intra4x4_pred_mbaff.c:362:52
	movl	%r13d, %edx
	andl	$-9, %edx
	xorl	$4, %edx
	xorl	%ecx, %ecx
	orl	%eax, %edx
	setne	%cl
	jmp	.LBB0_59
.Ltmp37:
.LBB0_14:                               # %sw.bb14
	#DEBUG_VALUE: intra4x4_pred_mbaff:currMB <- $rdi
	#DEBUG_VALUE: intra4x4_pred_mbaff:pl <- $r15d
	#DEBUG_VALUE: intra4x4_pred_mbaff:ioff <- $r12d
	#DEBUG_VALUE: intra4x4_pred_mbaff:joff <- $r13d
	#DEBUG_VALUE: intra4x4_pred_mbaff:img_block_x <- $r8d
	#DEBUG_VALUE: intra4x4_pred_mbaff:img_block_y <- $r9d
	#DEBUG_VALUE: intra4x4_pred_mbaff:p_Vid <- $rbx
	#DEBUG_VALUE: intra4x4_pred_mbaff:predmode <- [DW_OP_LLVM_convert 64 7, DW_OP_LLVM_convert 8 7] $esi
	#DEBUG_VALUE: intra4x4_vert_left_pred_mbaff:pix_c <- [DW_OP_plus_uconst 32, DW_OP_deref] $rsp
	#DEBUG_VALUE: intra4x4_vert_left_pred_mbaff:currMB <- $rdi
	#DEBUG_VALUE: intra4x4_vert_left_pred_mbaff:pl <- $r15d
	#DEBUG_VALUE: intra4x4_vert_left_pred_mbaff:ioff <- $r12d
	#DEBUG_VALUE: intra4x4_vert_left_pred_mbaff:joff <- $r13d
	.loc	0 529 30 is_stmt 1              # ldecod_src/intra4x4_pred_mbaff.c:529:30
	movq	(%rdi), %rax
.Ltmp38:
	#DEBUG_VALUE: intra4x4_vert_left_pred_mbaff:currSlice <- $rax
	#DEBUG_VALUE: intra4x4_vert_left_pred_mbaff:p_Vid <- $rbx
	.loc	0 0 30 is_stmt 0                # ldecod_src/intra4x4_pred_mbaff.c:0:30
	movq	%rax, 16(%rsp)                  # 8-byte Spill
.Ltmp39:
	#DEBUG_VALUE: intra4x4_vert_left_pred_mbaff:currSlice <- [DW_OP_plus_uconst 16, DW_OP_deref] $rsp
	.loc	0 537 46 is_stmt 1              # ldecod_src/intra4x4_pred_mbaff.c:537:46
	leal	-1(%r13), %ebp
	.loc	0 537 58 is_stmt 0              # ldecod_src/intra4x4_pred_mbaff.c:537:58
	leaq	849124(%rbx), %r14
	leaq	48(%rsp), %r8
.Ltmp40:
	#DEBUG_VALUE: intra4x4_pred_mbaff:img_block_x <- [DW_OP_LLVM_entry_value 1] $r8d
	.loc	0 0 58                          # ldecod_src/intra4x4_pred_mbaff.c:0:58
	movq	%r13, 8(%rsp)                   # 8-byte Spill
.Ltmp41:
	#DEBUG_VALUE: intra4x4_vert_left_pred_mbaff:joff <- [DW_OP_plus_uconst 8, DW_OP_deref] $rsp
	#DEBUG_VALUE: intra4x4_pred_mbaff:joff <- [DW_OP_plus_uconst 8] [$rsp+0]
	movq	%rdi, %r13
	.loc	0 537 3                         # ldecod_src/intra4x4_pred_mbaff.c:537:3
	movl	%r12d, %esi
.Ltmp42:
	movl	%ebp, %edx
	movq	%r14, %rcx
	callq	*856744(%rbx)
.Ltmp43:
	#DEBUG_VALUE: intra4x4_pred_mbaff:img_block_y <- [DW_OP_LLVM_entry_value 1] $r9d
	#DEBUG_VALUE: intra4x4_vert_left_pred_mbaff:currMB <- $r13
	#DEBUG_VALUE: intra4x4_pred_mbaff:currMB <- $r13
	.loc	0 538 36 is_stmt 1              # ldecod_src/intra4x4_pred_mbaff.c:538:36
	leal	4(%r12), %esi
	leaq	32(%rsp), %r8
	.loc	0 538 3 is_stmt 0               # ldecod_src/intra4x4_pred_mbaff.c:538:3
	movq	%r13, %rdi
	movl	%ebp, %edx
	movq	%r14, %rcx
	callq	*856744(%rbx)
.Ltmp44:
	.loc	0 540 21 is_stmt 1              # ldecod_src/intra4x4_pred_mbaff.c:540:21
	cmpl	$0, 32(%rsp)
	movq	%r12, 24(%rsp)                  # 8-byte Spill
.Ltmp45:
	#DEBUG_VALUE: intra4x4_vert_left_pred_mbaff:ioff <- [DW_OP_plus_uconst 24, DW_OP_deref] $rsp
	#DEBUG_VALUE: intra4x4_pred_mbaff:ioff <- [DW_OP_plus_uconst 24] [$rsp+0]
	.loc	0 540 37 is_stmt 0              # ldecod_src/intra4x4_pred_mbaff.c:540:37
	je	.LBB0_67
.Ltmp46:
# %bb.15:                               # %land.rhs.i376
	#DEBUG_VALUE: intra4x4_pred_mbaff:currMB <- $r13
	#DEBUG_VALUE: intra4x4_pred_mbaff:pl <- $r15d
	#DEBUG_VALUE: intra4x4_pred_mbaff:ioff <- [DW_OP_plus_uconst 24] [$rsp+0]
	#DEBUG_VALUE: intra4x4_pred_mbaff:joff <- [DW_OP_plus_uconst 8] [$rsp+0]
	#DEBUG_VALUE: intra4x4_pred_mbaff:img_block_x <- [DW_OP_LLVM_entry_value 1] $r8d
	#DEBUG_VALUE: intra4x4_pred_mbaff:img_block_y <- [DW_OP_LLVM_entry_value 1] $r9d
	#DEBUG_VALUE: intra4x4_pred_mbaff:p_Vid <- $rbx
	#DEBUG_VALUE: intra4x4_vert_left_pred_mbaff:pix_c <- [DW_OP_plus_uconst 32, DW_OP_deref] $rsp
	#DEBUG_VALUE: intra4x4_vert_left_pred_mbaff:currMB <- $r13
	#DEBUG_VALUE: intra4x4_vert_left_pred_mbaff:pl <- $r15d
	#DEBUG_VALUE: intra4x4_vert_left_pred_mbaff:ioff <- [DW_OP_plus_uconst 24, DW_OP_deref] $rsp
	#DEBUG_VALUE: intra4x4_vert_left_pred_mbaff:joff <- [DW_OP_plus_uconst 8, DW_OP_deref] $rsp
	#DEBUG_VALUE: intra4x4_vert_left_pred_mbaff:currSlice <- [DW_OP_plus_uconst 16, DW_OP_deref] $rsp
	#DEBUG_VALUE: intra4x4_vert_left_pred_mbaff:p_Vid <- $rbx
	.loc	0 540 47                        # ldecod_src/intra4x4_pred_mbaff.c:540:47
	movl	%r12d, %eax
	xorl	$4, %eax
	movq	8(%rsp), %rcx                   # 8-byte Reload
	movq	%rcx, %r13
.Ltmp47:
	#DEBUG_VALUE: intra4x4_pred_mbaff:currMB <- [DW_OP_LLVM_entry_value 1] $rdi
                                        # kill: def $ecx killed $ecx killed $rcx
	.loc	0 540 52                        # ldecod_src/intra4x4_pred_mbaff.c:540:52
	andl	$-9, %ecx
	xorl	$4, %ecx
	xorl	%ebp, %ebp
	orl	%eax, %ecx
	setne	%bpl
	jmp	.LBB0_68
.Ltmp48:
.LBB0_16:                               # %sw.bb6
	#DEBUG_VALUE: intra4x4_pred_mbaff:currMB <- $rdi
	#DEBUG_VALUE: intra4x4_pred_mbaff:pl <- $r15d
	#DEBUG_VALUE: intra4x4_pred_mbaff:ioff <- $r12d
	#DEBUG_VALUE: intra4x4_pred_mbaff:joff <- $r13d
	#DEBUG_VALUE: intra4x4_pred_mbaff:img_block_x <- $r8d
	#DEBUG_VALUE: intra4x4_pred_mbaff:img_block_y <- $r9d
	#DEBUG_VALUE: intra4x4_pred_mbaff:p_Vid <- $rbx
	#DEBUG_VALUE: intra4x4_pred_mbaff:predmode <- [DW_OP_LLVM_convert 64 7, DW_OP_LLVM_convert 8 7] $esi
	#DEBUG_VALUE: intra4x4_hor_pred_mbaff:pix_a <- [DW_OP_plus_uconst 48, DW_OP_deref] $rsp
	#DEBUG_VALUE: intra4x4_hor_pred_mbaff:currMB <- $rdi
	#DEBUG_VALUE: intra4x4_hor_pred_mbaff:pl <- $r15d
	#DEBUG_VALUE: intra4x4_hor_pred_mbaff:ioff <- $r12d
	#DEBUG_VALUE: intra4x4_hor_pred_mbaff:joff <- $r13d
	#DEBUG_VALUE: intra4x4_hor_pred_mbaff:p_Vid <- $rbx
	.loc	0 208 30 is_stmt 1              # ldecod_src/intra4x4_pred_mbaff.c:208:30
	movq	(%rdi), %r14
.Ltmp49:
	#DEBUG_VALUE: intra4x4_hor_pred_mbaff:currSlice <- $r14
	.loc	0 211 0                         # ldecod_src/intra4x4_pred_mbaff.c:211:0
	movq	13520(%r14), %rax
	.loc	0 211 19 is_stmt 0              # ldecod_src/intra4x4_pred_mbaff.c:211:19
	testl	%r15d, %r15d
	je	.LBB0_81
.Ltmp50:
# %bb.17:                               # %cond.true.i78
	#DEBUG_VALUE: intra4x4_pred_mbaff:currMB <- $rdi
	#DEBUG_VALUE: intra4x4_pred_mbaff:pl <- $r15d
	#DEBUG_VALUE: intra4x4_pred_mbaff:ioff <- $r12d
	#DEBUG_VALUE: intra4x4_pred_mbaff:joff <- $r13d
	#DEBUG_VALUE: intra4x4_pred_mbaff:img_block_x <- $r8d
	#DEBUG_VALUE: intra4x4_pred_mbaff:img_block_y <- $r9d
	#DEBUG_VALUE: intra4x4_pred_mbaff:p_Vid <- $rbx
	#DEBUG_VALUE: intra4x4_pred_mbaff:predmode <- [DW_OP_LLVM_convert 64 7, DW_OP_LLVM_convert 8 7] $esi
	#DEBUG_VALUE: intra4x4_hor_pred_mbaff:pix_a <- [DW_OP_plus_uconst 48, DW_OP_deref] $rsp
	#DEBUG_VALUE: intra4x4_hor_pred_mbaff:currMB <- $rdi
	#DEBUG_VALUE: intra4x4_hor_pred_mbaff:pl <- $r15d
	#DEBUG_VALUE: intra4x4_hor_pred_mbaff:ioff <- $r12d
	#DEBUG_VALUE: intra4x4_hor_pred_mbaff:joff <- $r13d
	#DEBUG_VALUE: intra4x4_hor_pred_mbaff:p_Vid <- $rbx
	#DEBUG_VALUE: intra4x4_hor_pred_mbaff:currSlice <- $r14
	.loc	0 211 59                        # ldecod_src/intra4x4_pred_mbaff.c:211:59
	leal	-1(%r15), %ecx
	.loc	0 211 26                        # ldecod_src/intra4x4_pred_mbaff.c:211:26
	shlq	$3, %rcx
	addq	136(%rax), %rcx
	.loc	0 211 19                        # ldecod_src/intra4x4_pred_mbaff.c:211:19
	jmp	.LBB0_82
.Ltmp51:
.LBB0_18:                               # %sw.bb12
	#DEBUG_VALUE: intra4x4_pred_mbaff:currMB <- $rdi
	#DEBUG_VALUE: intra4x4_pred_mbaff:pl <- $r15d
	#DEBUG_VALUE: intra4x4_pred_mbaff:ioff <- $r12d
	#DEBUG_VALUE: intra4x4_pred_mbaff:joff <- $r13d
	#DEBUG_VALUE: intra4x4_pred_mbaff:img_block_x <- $r8d
	#DEBUG_VALUE: intra4x4_pred_mbaff:img_block_y <- $r9d
	#DEBUG_VALUE: intra4x4_pred_mbaff:p_Vid <- $rbx
	#DEBUG_VALUE: intra4x4_pred_mbaff:predmode <- [DW_OP_LLVM_convert 64 7, DW_OP_LLVM_convert 8 7] $esi
	#DEBUG_VALUE: intra4x4_vert_right_pred_mbaff:pix_d <- [DW_OP_plus_uconst 136, DW_OP_deref] $rsp
	#DEBUG_VALUE: intra4x4_vert_right_pred_mbaff:currMB <- $rdi
	#DEBUG_VALUE: intra4x4_vert_right_pred_mbaff:pl <- $r15d
	#DEBUG_VALUE: intra4x4_vert_right_pred_mbaff:ioff <- $r12d
	#DEBUG_VALUE: intra4x4_vert_right_pred_mbaff:joff <- $r13d
	.loc	0 437 30 is_stmt 1              # ldecod_src/intra4x4_pred_mbaff.c:437:30
	movq	(%rdi), %rdx
.Ltmp52:
	#DEBUG_VALUE: intra4x4_vert_right_pred_mbaff:currSlice <- $rdx
	#DEBUG_VALUE: intra4x4_vert_right_pred_mbaff:p_Vid <- $rbx
	.loc	0 441 0                         # ldecod_src/intra4x4_pred_mbaff.c:441:0
	movq	13520(%rdx), %rax
	.loc	0 441 19 is_stmt 0              # ldecod_src/intra4x4_pred_mbaff.c:441:19
	testl	%r15d, %r15d
	je	.LBB0_95
.Ltmp53:
# %bb.19:                               # %cond.true.i218
	#DEBUG_VALUE: intra4x4_pred_mbaff:currMB <- $rdi
	#DEBUG_VALUE: intra4x4_pred_mbaff:pl <- $r15d
	#DEBUG_VALUE: intra4x4_pred_mbaff:ioff <- $r12d
	#DEBUG_VALUE: intra4x4_pred_mbaff:joff <- $r13d
	#DEBUG_VALUE: intra4x4_pred_mbaff:img_block_x <- $r8d
	#DEBUG_VALUE: intra4x4_pred_mbaff:img_block_y <- $r9d
	#DEBUG_VALUE: intra4x4_pred_mbaff:p_Vid <- $rbx
	#DEBUG_VALUE: intra4x4_pred_mbaff:predmode <- [DW_OP_LLVM_convert 64 7, DW_OP_LLVM_convert 8 7] $esi
	#DEBUG_VALUE: intra4x4_vert_right_pred_mbaff:pix_d <- [DW_OP_plus_uconst 136, DW_OP_deref] $rsp
	#DEBUG_VALUE: intra4x4_vert_right_pred_mbaff:currMB <- $rdi
	#DEBUG_VALUE: intra4x4_vert_right_pred_mbaff:pl <- $r15d
	#DEBUG_VALUE: intra4x4_vert_right_pred_mbaff:ioff <- $r12d
	#DEBUG_VALUE: intra4x4_vert_right_pred_mbaff:joff <- $r13d
	#DEBUG_VALUE: intra4x4_vert_right_pred_mbaff:currSlice <- $rdx
	#DEBUG_VALUE: intra4x4_vert_right_pred_mbaff:p_Vid <- $rbx
	.loc	0 441 59                        # ldecod_src/intra4x4_pred_mbaff.c:441:59
	leal	-1(%r15), %ecx
	.loc	0 441 26                        # ldecod_src/intra4x4_pred_mbaff.c:441:26
	shlq	$3, %rcx
	addq	136(%rax), %rcx
	.loc	0 441 19                        # ldecod_src/intra4x4_pred_mbaff.c:441:19
	jmp	.LBB0_96
.Ltmp54:
.LBB0_20:                               # %sw.bb18
	#DEBUG_VALUE: intra4x4_pred_mbaff:currMB <- $rdi
	#DEBUG_VALUE: intra4x4_pred_mbaff:pl <- $r15d
	#DEBUG_VALUE: intra4x4_pred_mbaff:ioff <- $r12d
	#DEBUG_VALUE: intra4x4_pred_mbaff:joff <- $r13d
	#DEBUG_VALUE: intra4x4_pred_mbaff:img_block_x <- $r8d
	#DEBUG_VALUE: intra4x4_pred_mbaff:img_block_y <- $r9d
	#DEBUG_VALUE: intra4x4_pred_mbaff:p_Vid <- $rbx
	#DEBUG_VALUE: intra4x4_pred_mbaff:predmode <- [DW_OP_LLVM_convert 64 7, DW_OP_LLVM_convert 8 7] $esi
	#DEBUG_VALUE: intra4x4_hor_down_pred_mbaff:pix_d <- [DW_OP_plus_uconst 136, DW_OP_deref] $rsp
	#DEBUG_VALUE: intra4x4_hor_down_pred_mbaff:currMB <- $rdi
	#DEBUG_VALUE: intra4x4_hor_down_pred_mbaff:pl <- $r15d
	#DEBUG_VALUE: intra4x4_hor_down_pred_mbaff:ioff <- $r12d
	#DEBUG_VALUE: intra4x4_hor_down_pred_mbaff:joff <- $r13d
	.loc	0 689 30 is_stmt 1              # ldecod_src/intra4x4_pred_mbaff.c:689:30
	movq	(%rdi), %rdx
.Ltmp55:
	#DEBUG_VALUE: intra4x4_hor_down_pred_mbaff:currSlice <- $rdx
	#DEBUG_VALUE: intra4x4_hor_down_pred_mbaff:p_Vid <- $rbx
	.loc	0 693 0                         # ldecod_src/intra4x4_pred_mbaff.c:693:0
	movq	13520(%rdx), %rax
	.loc	0 693 19 is_stmt 0              # ldecod_src/intra4x4_pred_mbaff.c:693:19
	testl	%r15d, %r15d
	je	.LBB0_108
.Ltmp56:
# %bb.21:                               # %cond.true.i562
	#DEBUG_VALUE: intra4x4_pred_mbaff:currMB <- $rdi
	#DEBUG_VALUE: intra4x4_pred_mbaff:pl <- $r15d
	#DEBUG_VALUE: intra4x4_pred_mbaff:ioff <- $r12d
	#DEBUG_VALUE: intra4x4_pred_mbaff:joff <- $r13d
	#DEBUG_VALUE: intra4x4_pred_mbaff:img_block_x <- $r8d
	#DEBUG_VALUE: intra4x4_pred_mbaff:img_block_y <- $r9d
	#DEBUG_VALUE: intra4x4_pred_mbaff:p_Vid <- $rbx
	#DEBUG_VALUE: intra4x4_pred_mbaff:predmode <- [DW_OP_LLVM_convert 64 7, DW_OP_LLVM_convert 8 7] $esi
	#DEBUG_VALUE: intra4x4_hor_down_pred_mbaff:pix_d <- [DW_OP_plus_uconst 136, DW_OP_deref] $rsp
	#DEBUG_VALUE: intra4x4_hor_down_pred_mbaff:currMB <- $rdi
	#DEBUG_VALUE: intra4x4_hor_down_pred_mbaff:pl <- $r15d
	#DEBUG_VALUE: intra4x4_hor_down_pred_mbaff:ioff <- $r12d
	#DEBUG_VALUE: intra4x4_hor_down_pred_mbaff:joff <- $r13d
	#DEBUG_VALUE: intra4x4_hor_down_pred_mbaff:currSlice <- $rdx
	#DEBUG_VALUE: intra4x4_hor_down_pred_mbaff:p_Vid <- $rbx
	.loc	0 693 59                        # ldecod_src/intra4x4_pred_mbaff.c:693:59
	leal	-1(%r15), %ecx
	.loc	0 693 26                        # ldecod_src/intra4x4_pred_mbaff.c:693:26
	shlq	$3, %rcx
	addq	136(%rax), %rcx
	.loc	0 693 19                        # ldecod_src/intra4x4_pred_mbaff.c:693:19
	jmp	.LBB0_109
.Ltmp57:
.LBB0_22:                               # %sw.bb16
	#DEBUG_VALUE: intra4x4_pred_mbaff:currMB <- $rdi
	#DEBUG_VALUE: intra4x4_pred_mbaff:pl <- $r15d
	#DEBUG_VALUE: intra4x4_pred_mbaff:ioff <- $r12d
	#DEBUG_VALUE: intra4x4_pred_mbaff:joff <- $r13d
	#DEBUG_VALUE: intra4x4_pred_mbaff:img_block_x <- $r8d
	#DEBUG_VALUE: intra4x4_pred_mbaff:img_block_y <- $r9d
	#DEBUG_VALUE: intra4x4_pred_mbaff:p_Vid <- $rbx
	#DEBUG_VALUE: intra4x4_pred_mbaff:predmode <- [DW_OP_LLVM_convert 64 7, DW_OP_LLVM_convert 8 7] $esi
	#DEBUG_VALUE: intra4x4_hor_up_pred_mbaff:pix_a <- [DW_OP_plus_uconst 48, DW_OP_deref] $rsp
	#DEBUG_VALUE: intra4x4_hor_up_pred_mbaff:currMB <- $rdi
	#DEBUG_VALUE: intra4x4_hor_up_pred_mbaff:pl <- $r15d
	#DEBUG_VALUE: intra4x4_hor_up_pred_mbaff:ioff <- $r12d
	#DEBUG_VALUE: intra4x4_hor_up_pred_mbaff:joff <- $r13d
	.loc	0 0 19                          # ldecod_src/intra4x4_pred_mbaff.c:0:19
	movq	%r13, 8(%rsp)                   # 8-byte Spill
.Ltmp58:
	#DEBUG_VALUE: intra4x4_hor_up_pred_mbaff:joff <- [DW_OP_plus_uconst 8, DW_OP_deref] $rsp
	#DEBUG_VALUE: intra4x4_pred_mbaff:joff <- [DW_OP_plus_uconst 8] [$rsp+0]
	.loc	0 615 30 is_stmt 1              # ldecod_src/intra4x4_pred_mbaff.c:615:30
	movq	(%rdi), %r13
.Ltmp59:
	#DEBUG_VALUE: intra4x4_hor_up_pred_mbaff:currSlice <- $r13
	#DEBUG_VALUE: intra4x4_hor_up_pred_mbaff:p_Vid <- $rbx
	.loc	0 619 0                         # ldecod_src/intra4x4_pred_mbaff.c:619:0
	movq	13520(%r13), %rax
	.loc	0 619 19 is_stmt 0              # ldecod_src/intra4x4_pred_mbaff.c:619:19
	testl	%r15d, %r15d
	je	.LBB0_121
.Ltmp60:
# %bb.23:                               # %cond.true.i467
	#DEBUG_VALUE: intra4x4_pred_mbaff:currMB <- $rdi
	#DEBUG_VALUE: intra4x4_pred_mbaff:pl <- $r15d
	#DEBUG_VALUE: intra4x4_pred_mbaff:ioff <- $r12d
	#DEBUG_VALUE: intra4x4_pred_mbaff:joff <- [DW_OP_plus_uconst 8] [$rsp+0]
	#DEBUG_VALUE: intra4x4_pred_mbaff:img_block_x <- $r8d
	#DEBUG_VALUE: intra4x4_pred_mbaff:img_block_y <- $r9d
	#DEBUG_VALUE: intra4x4_pred_mbaff:p_Vid <- $rbx
	#DEBUG_VALUE: intra4x4_pred_mbaff:predmode <- [DW_OP_LLVM_convert 64 7, DW_OP_LLVM_convert 8 7] $esi
	#DEBUG_VALUE: intra4x4_hor_up_pred_mbaff:pix_a <- [DW_OP_plus_uconst 48, DW_OP_deref] $rsp
	#DEBUG_VALUE: intra4x4_hor_up_pred_mbaff:currMB <- $rdi
	#DEBUG_VALUE: intra4x4_hor_up_pred_mbaff:pl <- $r15d
	#DEBUG_VALUE: intra4x4_hor_up_pred_mbaff:ioff <- $r12d
	#DEBUG_VALUE: intra4x4_hor_up_pred_mbaff:joff <- [DW_OP_plus_uconst 8, DW_OP_deref] $rsp
	#DEBUG_VALUE: intra4x4_hor_up_pred_mbaff:currSlice <- $r13
	#DEBUG_VALUE: intra4x4_hor_up_pred_mbaff:p_Vid <- $rbx
	.loc	0 619 59                        # ldecod_src/intra4x4_pred_mbaff.c:619:59
	leal	-1(%r15), %ecx
	.loc	0 619 26                        # ldecod_src/intra4x4_pred_mbaff.c:619:26
	shlq	$3, %rcx
	addq	136(%rax), %rcx
	.loc	0 619 19                        # ldecod_src/intra4x4_pred_mbaff.c:619:19
	jmp	.LBB0_122
.Ltmp61:
.LBB0_24:                               # %sw.default
	#DEBUG_VALUE: intra4x4_pred_mbaff:currMB <- $rdi
	#DEBUG_VALUE: intra4x4_pred_mbaff:pl <- $r15d
	#DEBUG_VALUE: intra4x4_pred_mbaff:ioff <- $edx
	#DEBUG_VALUE: intra4x4_pred_mbaff:joff <- $r13d
	#DEBUG_VALUE: intra4x4_pred_mbaff:img_block_x <- $r8d
	#DEBUG_VALUE: intra4x4_pred_mbaff:img_block_y <- $r9d
	#DEBUG_VALUE: intra4x4_pred_mbaff:p_Vid <- $rbx
	#DEBUG_VALUE: intra4x4_pred_mbaff:predmode <- [DW_OP_LLVM_convert 64 7, DW_OP_LLVM_convert 8 7] $esi
	.loc	0 815 5 is_stmt 1               # ldecod_src/intra4x4_pred_mbaff.c:815:5
	movl	$.L.str, %edi
.Ltmp62:
	#DEBUG_VALUE: intra4x4_pred_mbaff:currMB <- [DW_OP_LLVM_entry_value 1] $rdi
                                        # kill: def $esi killed $esi killed $rsi
	xorl	%eax, %eax
	callq	printf@PLT
.Ltmp63:
	#DEBUG_VALUE: intra4x4_pred_mbaff:img_block_y <- [DW_OP_LLVM_entry_value 1] $r9d
	#DEBUG_VALUE: intra4x4_pred_mbaff:img_block_x <- [DW_OP_LLVM_entry_value 1] $r8d
	#DEBUG_VALUE: intra4x4_pred_mbaff:ioff <- [DW_OP_LLVM_entry_value 1] $edx
	.loc	0 0 5 is_stmt 0                 # ldecod_src/intra4x4_pred_mbaff.c:0:5
	movl	$1, %eax
	jmp	.LBB0_172
.Ltmp64:
.LBB0_25:                               # %if.then6.i
	#DEBUG_VALUE: intra4x4_pred_mbaff:currMB <- [DW_OP_LLVM_entry_value 1] $rdi
	#DEBUG_VALUE: intra4x4_pred_mbaff:pl <- $r15d
	#DEBUG_VALUE: intra4x4_pred_mbaff:ioff <- $r12d
	#DEBUG_VALUE: intra4x4_pred_mbaff:joff <- $r13d
	#DEBUG_VALUE: intra4x4_pred_mbaff:img_block_x <- [DW_OP_LLVM_entry_value 1] $r8d
	#DEBUG_VALUE: intra4x4_pred_mbaff:img_block_y <- [DW_OP_LLVM_entry_value 1] $r9d
	#DEBUG_VALUE: intra4x4_pred_mbaff:p_Vid <- $rbx
	#DEBUG_VALUE: intra4x4_vert_pred_mbaff:pix_b <- [DW_OP_plus_uconst 48, DW_OP_deref] $rsp
	#DEBUG_VALUE: intra4x4_vert_pred_mbaff:pl <- $r15d
	#DEBUG_VALUE: intra4x4_vert_pred_mbaff:ioff <- $r12d
	#DEBUG_VALUE: intra4x4_vert_pred_mbaff:joff <- $r13d
	#DEBUG_VALUE: intra4x4_vert_pred_mbaff:currSlice <- $r14
	#DEBUG_VALUE: intra4x4_vert_pred_mbaff:p_Vid <- $rbx
	.loc	0 169 100 is_stmt 1             # ldecod_src/intra4x4_pred_mbaff.c:169:100
	movl	108(%r14), %esi
	.loc	0 169 5 is_stmt 0               # ldecod_src/intra4x4_pred_mbaff.c:169:5
	movl	$.L.str.1, %edi
	jmp	.LBB0_166
.Ltmp65:
.LBB0_26:                               # %cond.false.i168
	#DEBUG_VALUE: intra4x4_pred_mbaff:currMB <- $rdi
	#DEBUG_VALUE: intra4x4_pred_mbaff:pl <- $r15d
	#DEBUG_VALUE: intra4x4_pred_mbaff:ioff <- $r12d
	#DEBUG_VALUE: intra4x4_pred_mbaff:joff <- $r13d
	#DEBUG_VALUE: intra4x4_pred_mbaff:img_block_x <- $r8d
	#DEBUG_VALUE: intra4x4_pred_mbaff:img_block_y <- $r9d
	#DEBUG_VALUE: intra4x4_pred_mbaff:p_Vid <- $rbx
	#DEBUG_VALUE: intra4x4_pred_mbaff:predmode <- [DW_OP_LLVM_convert 64 7, DW_OP_LLVM_convert 8 7] $esi
	#DEBUG_VALUE: intra4x4_diag_down_right_pred_mbaff:pix_d <- [DW_OP_plus_uconst 136, DW_OP_deref] $rsp
	#DEBUG_VALUE: intra4x4_diag_down_right_pred_mbaff:currMB <- $rdi
	#DEBUG_VALUE: intra4x4_diag_down_right_pred_mbaff:pl <- $r15d
	#DEBUG_VALUE: intra4x4_diag_down_right_pred_mbaff:ioff <- $r12d
	#DEBUG_VALUE: intra4x4_diag_down_right_pred_mbaff:joff <- $r13d
	#DEBUG_VALUE: intra4x4_diag_down_right_pred_mbaff:currSlice <- $rdx
	#DEBUG_VALUE: intra4x4_diag_down_right_pred_mbaff:p_Vid <- $rbx
	.loc	0 267 90 is_stmt 1              # ldecod_src/intra4x4_pred_mbaff.c:267:90
	subq	$-128, %rax
	movq	%rax, %rcx
.Ltmp66:
.LBB0_27:                               # %cond.end.i129
	#DEBUG_VALUE: intra4x4_pred_mbaff:currMB <- $rdi
	#DEBUG_VALUE: intra4x4_pred_mbaff:pl <- $r15d
	#DEBUG_VALUE: intra4x4_pred_mbaff:ioff <- $r12d
	#DEBUG_VALUE: intra4x4_pred_mbaff:joff <- $r13d
	#DEBUG_VALUE: intra4x4_pred_mbaff:img_block_x <- $r8d
	#DEBUG_VALUE: intra4x4_pred_mbaff:img_block_y <- $r9d
	#DEBUG_VALUE: intra4x4_pred_mbaff:p_Vid <- $rbx
	#DEBUG_VALUE: intra4x4_pred_mbaff:predmode <- [DW_OP_LLVM_convert 64 7, DW_OP_LLVM_convert 8 7] $esi
	#DEBUG_VALUE: intra4x4_diag_down_right_pred_mbaff:pix_d <- [DW_OP_plus_uconst 136, DW_OP_deref] $rsp
	#DEBUG_VALUE: intra4x4_diag_down_right_pred_mbaff:currMB <- $rdi
	#DEBUG_VALUE: intra4x4_diag_down_right_pred_mbaff:pl <- $r15d
	#DEBUG_VALUE: intra4x4_diag_down_right_pred_mbaff:ioff <- $r12d
	#DEBUG_VALUE: intra4x4_diag_down_right_pred_mbaff:joff <- $r13d
	#DEBUG_VALUE: intra4x4_diag_down_right_pred_mbaff:currSlice <- $rdx
	#DEBUG_VALUE: intra4x4_diag_down_right_pred_mbaff:p_Vid <- $rbx
	.loc	0 267 19 is_stmt 0              # ldecod_src/intra4x4_pred_mbaff.c:267:19
	movq	(%rcx), %rax
.Ltmp67:
	#DEBUG_VALUE: intra4x4_diag_down_right_pred_mbaff:imgY <- $rax
	.loc	0 0 19                          # ldecod_src/intra4x4_pred_mbaff.c:0:19
	movq	%rax, 128(%rsp)                 # 8-byte Spill
.Ltmp68:
	#DEBUG_VALUE: intra4x4_diag_down_right_pred_mbaff:imgY <- [DW_OP_plus_uconst 128, DW_OP_deref] $rsp
	movq	%rdx, 16(%rsp)                  # 8-byte Spill
.Ltmp69:
	#DEBUG_VALUE: intra4x4_diag_down_right_pred_mbaff:currSlice <- [DW_OP_plus_uconst 16, DW_OP_deref] $rsp
	.loc	0 276 33 is_stmt 1              # ldecod_src/intra4x4_pred_mbaff.c:276:33
	movq	1248(%rdx), %rax
	.loc	0 276 22 is_stmt 0              # ldecod_src/intra4x4_pred_mbaff.c:276:22
	movl	%r15d, %ecx
	movq	(%rax,%rcx,8), %rax
.Ltmp70:
	#DEBUG_VALUE: intra4x4_diag_down_right_pred_mbaff:mb_pred <- $rax
	#DEBUG_VALUE: intra4x4_diag_down_right_pred_mbaff:i <- 0
	.loc	0 0 22                          # ldecod_src/intra4x4_pred_mbaff.c:0:22
	movq	%rax, 120(%rsp)                 # 8-byte Spill
.Ltmp71:
	#DEBUG_VALUE: intra4x4_diag_down_right_pred_mbaff:mb_pred <- [DW_OP_plus_uconst 120, DW_OP_deref] $rsp
	movq	%r12, %r14
	leal	-1(%r12), %ebp
	leaq	849124(%rbx), %r15
.Ltmp72:
	#DEBUG_VALUE: intra4x4_diag_down_right_pred_mbaff:pl <- $ecx
	#DEBUG_VALUE: intra4x4_pred_mbaff:pl <- $ecx
	#DEBUG_VALUE: intra4x4_diag_down_right_pred_mbaff:i <- 0
	leaq	48(%rsp), %r8
.Ltmp73:
	#DEBUG_VALUE: intra4x4_pred_mbaff:img_block_x <- [DW_OP_LLVM_entry_value 1] $r8d
	movq	%rdi, %r12
.Ltmp74:
	#DEBUG_VALUE: intra4x4_diag_down_right_pred_mbaff:ioff <- $r14d
	#DEBUG_VALUE: intra4x4_pred_mbaff:ioff <- $r14d
	.loc	0 280 5 is_stmt 1               # ldecod_src/intra4x4_pred_mbaff.c:280:5
	movl	%ebp, %esi
.Ltmp75:
	movl	%r13d, %edx
	movq	%r15, %rcx
.Ltmp76:
	#DEBUG_VALUE: intra4x4_pred_mbaff:pl <- [DW_OP_LLVM_entry_value 1] $esi
	callq	*856744(%rbx)
.Ltmp77:
	#DEBUG_VALUE: intra4x4_pred_mbaff:img_block_y <- [DW_OP_LLVM_entry_value 1] $r9d
	#DEBUG_VALUE: intra4x4_diag_down_right_pred_mbaff:currMB <- $r12
	#DEBUG_VALUE: intra4x4_pred_mbaff:currMB <- $r12
	#DEBUG_VALUE: intra4x4_diag_down_right_pred_mbaff:i <- 1
	.loc	0 280 48 is_stmt 0              # ldecod_src/intra4x4_pred_mbaff.c:280:48
	leal	1(%r13), %edx
	.loc	0 280 79                        # ldecod_src/intra4x4_pred_mbaff.c:280:79
	leaq	64(%rsp), %r8
	.loc	0 280 5                         # ldecod_src/intra4x4_pred_mbaff.c:280:5
	movq	%r12, %rdi
	movl	%ebp, %esi
	movq	%r15, %rcx
	callq	*856744(%rbx)
.Ltmp78:
	#DEBUG_VALUE: intra4x4_diag_down_right_pred_mbaff:i <- 2
	.loc	0 280 48                        # ldecod_src/intra4x4_pred_mbaff.c:280:48
	leal	2(%r13), %edx
	.loc	0 280 79                        # ldecod_src/intra4x4_pred_mbaff.c:280:79
	leaq	80(%rsp), %r8
	.loc	0 280 5                         # ldecod_src/intra4x4_pred_mbaff.c:280:5
	movq	%r12, %rdi
	movl	%ebp, %esi
	movq	%r15, %rcx
	callq	*856744(%rbx)
.Ltmp79:
	#DEBUG_VALUE: intra4x4_diag_down_right_pred_mbaff:i <- 3
	.loc	0 280 48                        # ldecod_src/intra4x4_pred_mbaff.c:280:48
	leal	3(%r13), %edx
	.loc	0 280 79                        # ldecod_src/intra4x4_pred_mbaff.c:280:79
	leaq	96(%rsp), %r8
	.loc	0 280 5                         # ldecod_src/intra4x4_pred_mbaff.c:280:5
	movq	%r12, %rdi
	movl	%ebp, %esi
	movq	%r15, %rcx
	callq	*856744(%rbx)
.Ltmp80:
	#DEBUG_VALUE: intra4x4_diag_down_right_pred_mbaff:i <- 4
	.loc	0 0 5                           # ldecod_src/intra4x4_pred_mbaff.c:0:5
	movq	%r13, 8(%rsp)                   # 8-byte Spill
.Ltmp81:
	#DEBUG_VALUE: intra4x4_diag_down_right_pred_mbaff:joff <- [DW_OP_plus_uconst 8, DW_OP_deref] $rsp
	#DEBUG_VALUE: intra4x4_pred_mbaff:joff <- [DW_OP_plus_uconst 8] [$rsp+0]
	.loc	0 283 46 is_stmt 1              # ldecod_src/intra4x4_pred_mbaff.c:283:46
	decl	%r13d
	leaq	32(%rsp), %r8
	.loc	0 283 3 is_stmt 0               # ldecod_src/intra4x4_pred_mbaff.c:283:3
	movq	%r12, %rdi
	movq	%r14, 24(%rsp)                  # 8-byte Spill
.Ltmp82:
	#DEBUG_VALUE: intra4x4_diag_down_right_pred_mbaff:ioff <- [DW_OP_plus_uconst 24, DW_OP_deref] $rsp
	#DEBUG_VALUE: intra4x4_pred_mbaff:ioff <- [DW_OP_plus_uconst 24] [$rsp+0]
	movl	%r14d, %esi
	movl	%r13d, %edx
	movq	%r15, %rcx
	callq	*856744(%rbx)
.Ltmp83:
	.loc	0 0 3                           # ldecod_src/intra4x4_pred_mbaff.c:0:3
	leaq	136(%rsp), %r8
	.loc	0 284 3 is_stmt 1               # ldecod_src/intra4x4_pred_mbaff.c:284:3
	movq	%r12, %rdi
	movl	%ebp, %esi
	movl	%r13d, %edx
	movq	%r15, %rcx
	callq	*856744(%rbx)
.Ltmp84:
	.loc	0 286 14                        # ldecod_src/intra4x4_pred_mbaff.c:286:14
	movq	8(%rbx), %rax
	.loc	0 286 7 is_stmt 0               # ldecod_src/intra4x4_pred_mbaff.c:286:7
	cmpl	$0, 2204(%rax)
.Ltmp85:
	.loc	0 286 7                         # ldecod_src/intra4x4_pred_mbaff.c:286:7
	je	.LBB0_38
.Ltmp86:
# %bb.28:                               # %for.cond23.preheader.i
	#DEBUG_VALUE: intra4x4_pred_mbaff:currMB <- $r12
	#DEBUG_VALUE: intra4x4_pred_mbaff:pl <- [DW_OP_LLVM_entry_value 1] $esi
	#DEBUG_VALUE: intra4x4_pred_mbaff:ioff <- [DW_OP_plus_uconst 24] [$rsp+0]
	#DEBUG_VALUE: intra4x4_pred_mbaff:joff <- [DW_OP_plus_uconst 8] [$rsp+0]
	#DEBUG_VALUE: intra4x4_pred_mbaff:img_block_x <- [DW_OP_LLVM_entry_value 1] $r8d
	#DEBUG_VALUE: intra4x4_pred_mbaff:img_block_y <- [DW_OP_LLVM_entry_value 1] $r9d
	#DEBUG_VALUE: intra4x4_pred_mbaff:p_Vid <- $rbx
	#DEBUG_VALUE: intra4x4_diag_down_right_pred_mbaff:pix_d <- [DW_OP_plus_uconst 136, DW_OP_deref] $rsp
	#DEBUG_VALUE: intra4x4_diag_down_right_pred_mbaff:currMB <- $r12
	#DEBUG_VALUE: intra4x4_diag_down_right_pred_mbaff:ioff <- [DW_OP_plus_uconst 24, DW_OP_deref] $rsp
	#DEBUG_VALUE: intra4x4_diag_down_right_pred_mbaff:joff <- [DW_OP_plus_uconst 8, DW_OP_deref] $rsp
	#DEBUG_VALUE: intra4x4_diag_down_right_pred_mbaff:currSlice <- [DW_OP_plus_uconst 16, DW_OP_deref] $rsp
	#DEBUG_VALUE: intra4x4_diag_down_right_pred_mbaff:p_Vid <- $rbx
	#DEBUG_VALUE: intra4x4_diag_down_right_pred_mbaff:imgY <- [DW_OP_plus_uconst 128, DW_OP_deref] $rsp
	#DEBUG_VALUE: intra4x4_diag_down_right_pred_mbaff:mb_pred <- [DW_OP_plus_uconst 120, DW_OP_deref] $rsp
	#DEBUG_VALUE: intra4x4_diag_down_right_pred_mbaff:i <- 4
	#DEBUG_VALUE: intra4x4_diag_down_right_pred_mbaff:i <- 0
	#DEBUG_VALUE: intra4x4_diag_down_right_pred_mbaff:block_available_left <- 1
	.loc	0 0 7                           # ldecod_src/intra4x4_pred_mbaff.c:0:7
	xorl	%eax, %eax
.Ltmp87:
	.loc	0 289 32 is_stmt 1              # ldecod_src/intra4x4_pred_mbaff.c:289:32
	cmpl	$0, 48(%rsp)
	movl	$0, %ecx
	movq	16(%rsp), %r10                  # 8-byte Reload
	je	.LBB0_30
.Ltmp88:
# %bb.29:                               # %cond.true29.i
	#DEBUG_VALUE: intra4x4_pred_mbaff:currMB <- $r12
	#DEBUG_VALUE: intra4x4_pred_mbaff:pl <- [DW_OP_LLVM_entry_value 1] $esi
	#DEBUG_VALUE: intra4x4_pred_mbaff:ioff <- [DW_OP_plus_uconst 24] [$rsp+0]
	#DEBUG_VALUE: intra4x4_pred_mbaff:joff <- [DW_OP_plus_uconst 8] [$rsp+0]
	#DEBUG_VALUE: intra4x4_pred_mbaff:img_block_x <- [DW_OP_LLVM_entry_value 1] $r8d
	#DEBUG_VALUE: intra4x4_pred_mbaff:img_block_y <- [DW_OP_LLVM_entry_value 1] $r9d
	#DEBUG_VALUE: intra4x4_pred_mbaff:p_Vid <- $rbx
	#DEBUG_VALUE: intra4x4_diag_down_right_pred_mbaff:pix_d <- [DW_OP_plus_uconst 136, DW_OP_deref] $rsp
	#DEBUG_VALUE: intra4x4_diag_down_right_pred_mbaff:currMB <- $r12
	#DEBUG_VALUE: intra4x4_diag_down_right_pred_mbaff:ioff <- [DW_OP_plus_uconst 24, DW_OP_deref] $rsp
	#DEBUG_VALUE: intra4x4_diag_down_right_pred_mbaff:joff <- [DW_OP_plus_uconst 8, DW_OP_deref] $rsp
	#DEBUG_VALUE: intra4x4_diag_down_right_pred_mbaff:currSlice <- [DW_OP_plus_uconst 16, DW_OP_deref] $rsp
	#DEBUG_VALUE: intra4x4_diag_down_right_pred_mbaff:p_Vid <- $rbx
	#DEBUG_VALUE: intra4x4_diag_down_right_pred_mbaff:imgY <- [DW_OP_plus_uconst 128, DW_OP_deref] $rsp
	#DEBUG_VALUE: intra4x4_diag_down_right_pred_mbaff:mb_pred <- [DW_OP_plus_uconst 120, DW_OP_deref] $rsp
	#DEBUG_VALUE: intra4x4_diag_down_right_pred_mbaff:i <- 0
	#DEBUG_VALUE: intra4x4_diag_down_right_pred_mbaff:block_available_left <- 1
	.loc	0 289 64 is_stmt 0              # ldecod_src/intra4x4_pred_mbaff.c:289:64
	movq	13544(%r10), %rcx
	.loc	0 289 85                        # ldecod_src/intra4x4_pred_mbaff.c:289:85
	movslq	52(%rsp), %rdx
	movzbl	(%rcx,%rdx), %ecx
	.loc	0 289 29                        # ldecod_src/intra4x4_pred_mbaff.c:289:29
	andl	$1, %ecx
.Ltmp89:
.LBB0_30:                               # %cond.end35.i
	#DEBUG_VALUE: intra4x4_pred_mbaff:currMB <- $r12
	#DEBUG_VALUE: intra4x4_pred_mbaff:pl <- [DW_OP_LLVM_entry_value 1] $esi
	#DEBUG_VALUE: intra4x4_pred_mbaff:ioff <- [DW_OP_plus_uconst 24] [$rsp+0]
	#DEBUG_VALUE: intra4x4_pred_mbaff:joff <- [DW_OP_plus_uconst 8] [$rsp+0]
	#DEBUG_VALUE: intra4x4_pred_mbaff:img_block_x <- [DW_OP_LLVM_entry_value 1] $r8d
	#DEBUG_VALUE: intra4x4_pred_mbaff:img_block_y <- [DW_OP_LLVM_entry_value 1] $r9d
	#DEBUG_VALUE: intra4x4_pred_mbaff:p_Vid <- $rbx
	#DEBUG_VALUE: intra4x4_diag_down_right_pred_mbaff:pix_d <- [DW_OP_plus_uconst 136, DW_OP_deref] $rsp
	#DEBUG_VALUE: intra4x4_diag_down_right_pred_mbaff:currMB <- $r12
	#DEBUG_VALUE: intra4x4_diag_down_right_pred_mbaff:ioff <- [DW_OP_plus_uconst 24, DW_OP_deref] $rsp
	#DEBUG_VALUE: intra4x4_diag_down_right_pred_mbaff:joff <- [DW_OP_plus_uconst 8, DW_OP_deref] $rsp
	#DEBUG_VALUE: intra4x4_diag_down_right_pred_mbaff:currSlice <- [DW_OP_plus_uconst 16, DW_OP_deref] $rsp
	#DEBUG_VALUE: intra4x4_diag_down_right_pred_mbaff:p_Vid <- $rbx
	#DEBUG_VALUE: intra4x4_diag_down_right_pred_mbaff:imgY <- [DW_OP_plus_uconst 128, DW_OP_deref] $rsp
	#DEBUG_VALUE: intra4x4_diag_down_right_pred_mbaff:mb_pred <- [DW_OP_plus_uconst 120, DW_OP_deref] $rsp
	#DEBUG_VALUE: intra4x4_diag_down_right_pred_mbaff:i <- 0
	#DEBUG_VALUE: intra4x4_diag_down_right_pred_mbaff:block_available_left <- 1
	#DEBUG_VALUE: intra4x4_diag_down_right_pred_mbaff:block_available_left <- $ecx
	#DEBUG_VALUE: intra4x4_diag_down_right_pred_mbaff:i <- 1
	.loc	0 289 32                        # ldecod_src/intra4x4_pred_mbaff.c:289:32
	cmpl	$0, 64(%rsp)
	movq	24(%rsp), %r15                  # 8-byte Reload
	movq	8(%rsp), %r9                    # 8-byte Reload
	je	.LBB0_32
.Ltmp90:
# %bb.31:                               # %cond.true29.1.i
	#DEBUG_VALUE: intra4x4_pred_mbaff:currMB <- $r12
	#DEBUG_VALUE: intra4x4_pred_mbaff:pl <- [DW_OP_LLVM_entry_value 1] $esi
	#DEBUG_VALUE: intra4x4_pred_mbaff:ioff <- [DW_OP_plus_uconst 24] [$rsp+0]
	#DEBUG_VALUE: intra4x4_pred_mbaff:joff <- [DW_OP_plus_uconst 8] [$rsp+0]
	#DEBUG_VALUE: intra4x4_pred_mbaff:img_block_x <- [DW_OP_LLVM_entry_value 1] $r8d
	#DEBUG_VALUE: intra4x4_pred_mbaff:img_block_y <- [DW_OP_LLVM_entry_value 1] $r9d
	#DEBUG_VALUE: intra4x4_pred_mbaff:p_Vid <- $rbx
	#DEBUG_VALUE: intra4x4_diag_down_right_pred_mbaff:pix_d <- [DW_OP_plus_uconst 136, DW_OP_deref] $rsp
	#DEBUG_VALUE: intra4x4_diag_down_right_pred_mbaff:currMB <- $r12
	#DEBUG_VALUE: intra4x4_diag_down_right_pred_mbaff:ioff <- [DW_OP_plus_uconst 24, DW_OP_deref] $rsp
	#DEBUG_VALUE: intra4x4_diag_down_right_pred_mbaff:joff <- [DW_OP_plus_uconst 8, DW_OP_deref] $rsp
	#DEBUG_VALUE: intra4x4_diag_down_right_pred_mbaff:currSlice <- [DW_OP_plus_uconst 16, DW_OP_deref] $rsp
	#DEBUG_VALUE: intra4x4_diag_down_right_pred_mbaff:p_Vid <- $rbx
	#DEBUG_VALUE: intra4x4_diag_down_right_pred_mbaff:imgY <- [DW_OP_plus_uconst 128, DW_OP_deref] $rsp
	#DEBUG_VALUE: intra4x4_diag_down_right_pred_mbaff:mb_pred <- [DW_OP_plus_uconst 120, DW_OP_deref] $rsp
	#DEBUG_VALUE: intra4x4_diag_down_right_pred_mbaff:i <- 1
	#DEBUG_VALUE: intra4x4_diag_down_right_pred_mbaff:block_available_left <- $ecx
	.loc	0 289 64                        # ldecod_src/intra4x4_pred_mbaff.c:289:64
	movq	13544(%r10), %rax
	.loc	0 289 85                        # ldecod_src/intra4x4_pred_mbaff.c:289:85
	movslq	68(%rsp), %rdx
	.loc	0 289 53                        # ldecod_src/intra4x4_pred_mbaff.c:289:53
	movzbl	(%rax,%rdx), %eax
.Ltmp91:
.LBB0_32:                               # %cond.end35.1.i
	#DEBUG_VALUE: intra4x4_pred_mbaff:currMB <- $r12
	#DEBUG_VALUE: intra4x4_pred_mbaff:pl <- [DW_OP_LLVM_entry_value 1] $esi
	#DEBUG_VALUE: intra4x4_pred_mbaff:ioff <- [DW_OP_plus_uconst 24] [$rsp+0]
	#DEBUG_VALUE: intra4x4_pred_mbaff:joff <- [DW_OP_plus_uconst 8] [$rsp+0]
	#DEBUG_VALUE: intra4x4_pred_mbaff:img_block_x <- [DW_OP_LLVM_entry_value 1] $r8d
	#DEBUG_VALUE: intra4x4_pred_mbaff:img_block_y <- [DW_OP_LLVM_entry_value 1] $r9d
	#DEBUG_VALUE: intra4x4_pred_mbaff:p_Vid <- $rbx
	#DEBUG_VALUE: intra4x4_diag_down_right_pred_mbaff:pix_d <- [DW_OP_plus_uconst 136, DW_OP_deref] $rsp
	#DEBUG_VALUE: intra4x4_diag_down_right_pred_mbaff:currMB <- $r12
	#DEBUG_VALUE: intra4x4_diag_down_right_pred_mbaff:ioff <- [DW_OP_plus_uconst 24, DW_OP_deref] $rsp
	#DEBUG_VALUE: intra4x4_diag_down_right_pred_mbaff:joff <- [DW_OP_plus_uconst 8, DW_OP_deref] $rsp
	#DEBUG_VALUE: intra4x4_diag_down_right_pred_mbaff:currSlice <- [DW_OP_plus_uconst 16, DW_OP_deref] $rsp
	#DEBUG_VALUE: intra4x4_diag_down_right_pred_mbaff:p_Vid <- $rbx
	#DEBUG_VALUE: intra4x4_diag_down_right_pred_mbaff:imgY <- [DW_OP_plus_uconst 128, DW_OP_deref] $rsp
	#DEBUG_VALUE: intra4x4_diag_down_right_pred_mbaff:mb_pred <- [DW_OP_plus_uconst 120, DW_OP_deref] $rsp
	#DEBUG_VALUE: intra4x4_diag_down_right_pred_mbaff:i <- 1
	#DEBUG_VALUE: intra4x4_diag_down_right_pred_mbaff:block_available_left <- $ecx
	#DEBUG_VALUE: intra4x4_diag_down_right_pred_mbaff:block_available_left <- undef
	.loc	0 0 53                          # ldecod_src/intra4x4_pred_mbaff.c:0:53
	xorl	%edx, %edx
.Ltmp92:
	#DEBUG_VALUE: intra4x4_diag_down_right_pred_mbaff:i <- 2
	.loc	0 289 32                        # ldecod_src/intra4x4_pred_mbaff.c:289:32
	cmpl	$0, 80(%rsp)
	movl	$0, %esi
	je	.LBB0_34
.Ltmp93:
# %bb.33:                               # %cond.true29.2.i
	#DEBUG_VALUE: intra4x4_pred_mbaff:currMB <- $r12
	#DEBUG_VALUE: intra4x4_pred_mbaff:pl <- [DW_OP_LLVM_entry_value 1] $esi
	#DEBUG_VALUE: intra4x4_pred_mbaff:ioff <- [DW_OP_plus_uconst 24] [$rsp+0]
	#DEBUG_VALUE: intra4x4_pred_mbaff:joff <- [DW_OP_plus_uconst 8] [$rsp+0]
	#DEBUG_VALUE: intra4x4_pred_mbaff:img_block_x <- [DW_OP_LLVM_entry_value 1] $r8d
	#DEBUG_VALUE: intra4x4_pred_mbaff:img_block_y <- [DW_OP_LLVM_entry_value 1] $r9d
	#DEBUG_VALUE: intra4x4_pred_mbaff:p_Vid <- $rbx
	#DEBUG_VALUE: intra4x4_diag_down_right_pred_mbaff:pix_d <- [DW_OP_plus_uconst 136, DW_OP_deref] $rsp
	#DEBUG_VALUE: intra4x4_diag_down_right_pred_mbaff:currMB <- $r12
	#DEBUG_VALUE: intra4x4_diag_down_right_pred_mbaff:ioff <- [DW_OP_plus_uconst 24, DW_OP_deref] $rsp
	#DEBUG_VALUE: intra4x4_diag_down_right_pred_mbaff:joff <- [DW_OP_plus_uconst 8, DW_OP_deref] $rsp
	#DEBUG_VALUE: intra4x4_diag_down_right_pred_mbaff:currSlice <- [DW_OP_plus_uconst 16, DW_OP_deref] $rsp
	#DEBUG_VALUE: intra4x4_diag_down_right_pred_mbaff:p_Vid <- $rbx
	#DEBUG_VALUE: intra4x4_diag_down_right_pred_mbaff:imgY <- [DW_OP_plus_uconst 128, DW_OP_deref] $rsp
	#DEBUG_VALUE: intra4x4_diag_down_right_pred_mbaff:mb_pred <- [DW_OP_plus_uconst 120, DW_OP_deref] $rsp
	#DEBUG_VALUE: intra4x4_diag_down_right_pred_mbaff:i <- 2
	.loc	0 289 64                        # ldecod_src/intra4x4_pred_mbaff.c:289:64
	movq	13544(%r10), %rsi
	.loc	0 289 85                        # ldecod_src/intra4x4_pred_mbaff.c:289:85
	movslq	84(%rsp), %rdi
	.loc	0 289 53                        # ldecod_src/intra4x4_pred_mbaff.c:289:53
	movzbl	(%rsi,%rdi), %esi
.Ltmp94:
.LBB0_34:                               # %cond.end35.2.i
	#DEBUG_VALUE: intra4x4_pred_mbaff:currMB <- $r12
	#DEBUG_VALUE: intra4x4_pred_mbaff:pl <- [DW_OP_LLVM_entry_value 1] $esi
	#DEBUG_VALUE: intra4x4_pred_mbaff:ioff <- [DW_OP_plus_uconst 24] [$rsp+0]
	#DEBUG_VALUE: intra4x4_pred_mbaff:joff <- [DW_OP_plus_uconst 8] [$rsp+0]
	#DEBUG_VALUE: intra4x4_pred_mbaff:img_block_x <- [DW_OP_LLVM_entry_value 1] $r8d
	#DEBUG_VALUE: intra4x4_pred_mbaff:img_block_y <- [DW_OP_LLVM_entry_value 1] $r9d
	#DEBUG_VALUE: intra4x4_pred_mbaff:p_Vid <- $rbx
	#DEBUG_VALUE: intra4x4_diag_down_right_pred_mbaff:pix_d <- [DW_OP_plus_uconst 136, DW_OP_deref] $rsp
	#DEBUG_VALUE: intra4x4_diag_down_right_pred_mbaff:currMB <- $r12
	#DEBUG_VALUE: intra4x4_diag_down_right_pred_mbaff:ioff <- [DW_OP_plus_uconst 24, DW_OP_deref] $rsp
	#DEBUG_VALUE: intra4x4_diag_down_right_pred_mbaff:joff <- [DW_OP_plus_uconst 8, DW_OP_deref] $rsp
	#DEBUG_VALUE: intra4x4_diag_down_right_pred_mbaff:currSlice <- [DW_OP_plus_uconst 16, DW_OP_deref] $rsp
	#DEBUG_VALUE: intra4x4_diag_down_right_pred_mbaff:p_Vid <- $rbx
	#DEBUG_VALUE: intra4x4_diag_down_right_pred_mbaff:imgY <- [DW_OP_plus_uconst 128, DW_OP_deref] $rsp
	#DEBUG_VALUE: intra4x4_diag_down_right_pred_mbaff:mb_pred <- [DW_OP_plus_uconst 120, DW_OP_deref] $rsp
	#DEBUG_VALUE: intra4x4_diag_down_right_pred_mbaff:i <- 2
	#DEBUG_VALUE: intra4x4_diag_down_right_pred_mbaff:block_available_left <- undef
	#DEBUG_VALUE: intra4x4_diag_down_right_pred_mbaff:i <- 3
	.loc	0 289 32                        # ldecod_src/intra4x4_pred_mbaff.c:289:32
	cmpl	$0, 96(%rsp)
	je	.LBB0_36
.Ltmp95:
# %bb.35:                               # %cond.true29.3.i
	#DEBUG_VALUE: intra4x4_pred_mbaff:currMB <- $r12
	#DEBUG_VALUE: intra4x4_pred_mbaff:pl <- [DW_OP_LLVM_entry_value 1] $esi
	#DEBUG_VALUE: intra4x4_pred_mbaff:ioff <- [DW_OP_plus_uconst 24] [$rsp+0]
	#DEBUG_VALUE: intra4x4_pred_mbaff:joff <- [DW_OP_plus_uconst 8] [$rsp+0]
	#DEBUG_VALUE: intra4x4_pred_mbaff:img_block_x <- [DW_OP_LLVM_entry_value 1] $r8d
	#DEBUG_VALUE: intra4x4_pred_mbaff:img_block_y <- [DW_OP_LLVM_entry_value 1] $r9d
	#DEBUG_VALUE: intra4x4_pred_mbaff:p_Vid <- $rbx
	#DEBUG_VALUE: intra4x4_diag_down_right_pred_mbaff:pix_d <- [DW_OP_plus_uconst 136, DW_OP_deref] $rsp
	#DEBUG_VALUE: intra4x4_diag_down_right_pred_mbaff:currMB <- $r12
	#DEBUG_VALUE: intra4x4_diag_down_right_pred_mbaff:ioff <- [DW_OP_plus_uconst 24, DW_OP_deref] $rsp
	#DEBUG_VALUE: intra4x4_diag_down_right_pred_mbaff:joff <- [DW_OP_plus_uconst 8, DW_OP_deref] $rsp
	#DEBUG_VALUE: intra4x4_diag_down_right_pred_mbaff:currSlice <- [DW_OP_plus_uconst 16, DW_OP_deref] $rsp
	#DEBUG_VALUE: intra4x4_diag_down_right_pred_mbaff:p_Vid <- $rbx
	#DEBUG_VALUE: intra4x4_diag_down_right_pred_mbaff:imgY <- [DW_OP_plus_uconst 128, DW_OP_deref] $rsp
	#DEBUG_VALUE: intra4x4_diag_down_right_pred_mbaff:mb_pred <- [DW_OP_plus_uconst 120, DW_OP_deref] $rsp
	#DEBUG_VALUE: intra4x4_diag_down_right_pred_mbaff:i <- 3
	.loc	0 289 64                        # ldecod_src/intra4x4_pred_mbaff.c:289:64
	movq	13544(%r10), %rdx
	.loc	0 289 85                        # ldecod_src/intra4x4_pred_mbaff.c:289:85
	movslq	100(%rsp), %rdi
	.loc	0 289 53                        # ldecod_src/intra4x4_pred_mbaff.c:289:53
	movzbl	(%rdx,%rdi), %edx
.Ltmp96:
.LBB0_36:                               # %cond.end35.3.i
	#DEBUG_VALUE: intra4x4_pred_mbaff:currMB <- $r12
	#DEBUG_VALUE: intra4x4_pred_mbaff:pl <- [DW_OP_LLVM_entry_value 1] $esi
	#DEBUG_VALUE: intra4x4_pred_mbaff:ioff <- [DW_OP_plus_uconst 24] [$rsp+0]
	#DEBUG_VALUE: intra4x4_pred_mbaff:joff <- [DW_OP_plus_uconst 8] [$rsp+0]
	#DEBUG_VALUE: intra4x4_pred_mbaff:img_block_x <- [DW_OP_LLVM_entry_value 1] $r8d
	#DEBUG_VALUE: intra4x4_pred_mbaff:img_block_y <- [DW_OP_LLVM_entry_value 1] $r9d
	#DEBUG_VALUE: intra4x4_pred_mbaff:p_Vid <- $rbx
	#DEBUG_VALUE: intra4x4_diag_down_right_pred_mbaff:pix_d <- [DW_OP_plus_uconst 136, DW_OP_deref] $rsp
	#DEBUG_VALUE: intra4x4_diag_down_right_pred_mbaff:currMB <- $r12
	#DEBUG_VALUE: intra4x4_diag_down_right_pred_mbaff:ioff <- [DW_OP_plus_uconst 24, DW_OP_deref] $rsp
	#DEBUG_VALUE: intra4x4_diag_down_right_pred_mbaff:joff <- [DW_OP_plus_uconst 8, DW_OP_deref] $rsp
	#DEBUG_VALUE: intra4x4_diag_down_right_pred_mbaff:currSlice <- [DW_OP_plus_uconst 16, DW_OP_deref] $rsp
	#DEBUG_VALUE: intra4x4_diag_down_right_pred_mbaff:p_Vid <- $rbx
	#DEBUG_VALUE: intra4x4_diag_down_right_pred_mbaff:imgY <- [DW_OP_plus_uconst 128, DW_OP_deref] $rsp
	#DEBUG_VALUE: intra4x4_diag_down_right_pred_mbaff:mb_pred <- [DW_OP_plus_uconst 120, DW_OP_deref] $rsp
	#DEBUG_VALUE: intra4x4_diag_down_right_pred_mbaff:i <- 3
	#DEBUG_VALUE: intra4x4_diag_down_right_pred_mbaff:block_available_left <- undef
	#DEBUG_VALUE: intra4x4_diag_down_right_pred_mbaff:i <- 4
	.loc	0 290 32 is_stmt 1              # ldecod_src/intra4x4_pred_mbaff.c:290:32
	cmpl	$0, 32(%rsp)
	je	.LBB0_138
.Ltmp97:
# %bb.37:                               # %cond.true42.i
	#DEBUG_VALUE: intra4x4_pred_mbaff:currMB <- $r12
	#DEBUG_VALUE: intra4x4_pred_mbaff:pl <- [DW_OP_LLVM_entry_value 1] $esi
	#DEBUG_VALUE: intra4x4_pred_mbaff:ioff <- [DW_OP_plus_uconst 24] [$rsp+0]
	#DEBUG_VALUE: intra4x4_pred_mbaff:joff <- [DW_OP_plus_uconst 8] [$rsp+0]
	#DEBUG_VALUE: intra4x4_pred_mbaff:img_block_x <- [DW_OP_LLVM_entry_value 1] $r8d
	#DEBUG_VALUE: intra4x4_pred_mbaff:img_block_y <- [DW_OP_LLVM_entry_value 1] $r9d
	#DEBUG_VALUE: intra4x4_pred_mbaff:p_Vid <- $rbx
	#DEBUG_VALUE: intra4x4_diag_down_right_pred_mbaff:pix_d <- [DW_OP_plus_uconst 136, DW_OP_deref] $rsp
	#DEBUG_VALUE: intra4x4_diag_down_right_pred_mbaff:currMB <- $r12
	#DEBUG_VALUE: intra4x4_diag_down_right_pred_mbaff:ioff <- [DW_OP_plus_uconst 24, DW_OP_deref] $rsp
	#DEBUG_VALUE: intra4x4_diag_down_right_pred_mbaff:joff <- [DW_OP_plus_uconst 8, DW_OP_deref] $rsp
	#DEBUG_VALUE: intra4x4_diag_down_right_pred_mbaff:currSlice <- [DW_OP_plus_uconst 16, DW_OP_deref] $rsp
	#DEBUG_VALUE: intra4x4_diag_down_right_pred_mbaff:p_Vid <- $rbx
	#DEBUG_VALUE: intra4x4_diag_down_right_pred_mbaff:imgY <- [DW_OP_plus_uconst 128, DW_OP_deref] $rsp
	#DEBUG_VALUE: intra4x4_diag_down_right_pred_mbaff:mb_pred <- [DW_OP_plus_uconst 120, DW_OP_deref] $rsp
	#DEBUG_VALUE: intra4x4_diag_down_right_pred_mbaff:i <- 4
	.loc	0 290 61 is_stmt 0              # ldecod_src/intra4x4_pred_mbaff.c:290:61
	movq	13544(%r10), %rdi
	.loc	0 290 80                        # ldecod_src/intra4x4_pred_mbaff.c:290:80
	movslq	36(%rsp), %r8
	.loc	0 290 50                        # ldecod_src/intra4x4_pred_mbaff.c:290:50
	movsbl	(%rdi,%r8), %edi
.Ltmp98:
	#DEBUG_VALUE: intra4x4_diag_down_right_pred_mbaff:block_available_up <- $edi
	.loc	0 291 32 is_stmt 1              # ldecod_src/intra4x4_pred_mbaff.c:291:32
	cmpl	$0, 136(%rsp)
	jne	.LBB0_139
	jmp	.LBB0_144
.Ltmp99:
.LBB0_38:                               # %if.else.i167
	#DEBUG_VALUE: intra4x4_pred_mbaff:currMB <- $r12
	#DEBUG_VALUE: intra4x4_pred_mbaff:pl <- [DW_OP_LLVM_entry_value 1] $esi
	#DEBUG_VALUE: intra4x4_pred_mbaff:ioff <- [DW_OP_plus_uconst 24] [$rsp+0]
	#DEBUG_VALUE: intra4x4_pred_mbaff:joff <- [DW_OP_plus_uconst 8] [$rsp+0]
	#DEBUG_VALUE: intra4x4_pred_mbaff:img_block_x <- [DW_OP_LLVM_entry_value 1] $r8d
	#DEBUG_VALUE: intra4x4_pred_mbaff:img_block_y <- [DW_OP_LLVM_entry_value 1] $r9d
	#DEBUG_VALUE: intra4x4_pred_mbaff:p_Vid <- $rbx
	#DEBUG_VALUE: intra4x4_diag_down_right_pred_mbaff:pix_d <- [DW_OP_plus_uconst 136, DW_OP_deref] $rsp
	#DEBUG_VALUE: intra4x4_diag_down_right_pred_mbaff:currMB <- $r12
	#DEBUG_VALUE: intra4x4_diag_down_right_pred_mbaff:ioff <- [DW_OP_plus_uconst 24, DW_OP_deref] $rsp
	#DEBUG_VALUE: intra4x4_diag_down_right_pred_mbaff:joff <- [DW_OP_plus_uconst 8, DW_OP_deref] $rsp
	#DEBUG_VALUE: intra4x4_diag_down_right_pred_mbaff:currSlice <- [DW_OP_plus_uconst 16, DW_OP_deref] $rsp
	#DEBUG_VALUE: intra4x4_diag_down_right_pred_mbaff:p_Vid <- $rbx
	#DEBUG_VALUE: intra4x4_diag_down_right_pred_mbaff:imgY <- [DW_OP_plus_uconst 128, DW_OP_deref] $rsp
	#DEBUG_VALUE: intra4x4_diag_down_right_pred_mbaff:mb_pred <- [DW_OP_plus_uconst 120, DW_OP_deref] $rsp
	#DEBUG_VALUE: intra4x4_diag_down_right_pred_mbaff:i <- 4
	.loc	0 295 41                        # ldecod_src/intra4x4_pred_mbaff.c:295:41
	movl	48(%rsp), %eax
.Ltmp100:
	#DEBUG_VALUE: intra4x4_diag_down_right_pred_mbaff:block_available_left <- $eax
	.loc	0 296 38                        # ldecod_src/intra4x4_pred_mbaff.c:296:38
	movl	32(%rsp), %edi
.Ltmp101:
	#DEBUG_VALUE: intra4x4_diag_down_right_pred_mbaff:block_available_up <- $edi
	.loc	0 297 38                        # ldecod_src/intra4x4_pred_mbaff.c:297:38
	movl	136(%rsp), %ecx
.Ltmp102:
	#DEBUG_VALUE: intra4x4_diag_down_right_pred_mbaff:block_available_up_left <- $ecx
	.loc	0 0 38 is_stmt 0                # ldecod_src/intra4x4_pred_mbaff.c:0:38
	movq	24(%rsp), %r15                  # 8-byte Reload
	movq	8(%rsp), %r9                    # 8-byte Reload
	movq	16(%rsp), %r10                  # 8-byte Reload
	jmp	.LBB0_140
.Ltmp103:
.LBB0_39:                               # %cond.false.i
	#DEBUG_VALUE: intra4x4_pred_mbaff:currMB <- $rdi
	#DEBUG_VALUE: intra4x4_pred_mbaff:pl <- $r15d
	#DEBUG_VALUE: intra4x4_pred_mbaff:ioff <- $r12d
	#DEBUG_VALUE: intra4x4_pred_mbaff:joff <- $r13d
	#DEBUG_VALUE: intra4x4_pred_mbaff:img_block_x <- $r8d
	#DEBUG_VALUE: intra4x4_pred_mbaff:img_block_y <- $r9d
	#DEBUG_VALUE: intra4x4_pred_mbaff:p_Vid <- $rbx
	#DEBUG_VALUE: intra4x4_pred_mbaff:predmode <- [DW_OP_LLVM_convert 64 7, DW_OP_LLVM_convert 8 7] $esi
	#DEBUG_VALUE: intra4x4_dc_pred_mbaff:pix_b <- [DW_OP_plus_uconst 32, DW_OP_deref] $rsp
	#DEBUG_VALUE: intra4x4_dc_pred_mbaff:currMB <- $rdi
	#DEBUG_VALUE: intra4x4_dc_pred_mbaff:pl <- $r15d
	#DEBUG_VALUE: intra4x4_dc_pred_mbaff:ioff <- $r12d
	#DEBUG_VALUE: intra4x4_dc_pred_mbaff:joff <- $r13d
	#DEBUG_VALUE: intra4x4_dc_pred_mbaff:currSlice <- $rdx
	#DEBUG_VALUE: intra4x4_dc_pred_mbaff:p_Vid <- $rbx
	#DEBUG_VALUE: intra4x4_dc_pred_mbaff:s0 <- 0
	.loc	0 59 90 is_stmt 1               # ldecod_src/intra4x4_pred_mbaff.c:59:90
	subq	$-128, %rax
	movq	%rax, %rcx
.Ltmp104:
.LBB0_40:                               # %cond.end.i
	#DEBUG_VALUE: intra4x4_pred_mbaff:currMB <- $rdi
	#DEBUG_VALUE: intra4x4_pred_mbaff:pl <- $r15d
	#DEBUG_VALUE: intra4x4_pred_mbaff:ioff <- $r12d
	#DEBUG_VALUE: intra4x4_pred_mbaff:joff <- $r13d
	#DEBUG_VALUE: intra4x4_pred_mbaff:img_block_x <- $r8d
	#DEBUG_VALUE: intra4x4_pred_mbaff:img_block_y <- $r9d
	#DEBUG_VALUE: intra4x4_pred_mbaff:p_Vid <- $rbx
	#DEBUG_VALUE: intra4x4_pred_mbaff:predmode <- [DW_OP_LLVM_convert 64 7, DW_OP_LLVM_convert 8 7] $esi
	#DEBUG_VALUE: intra4x4_dc_pred_mbaff:pix_b <- [DW_OP_plus_uconst 32, DW_OP_deref] $rsp
	#DEBUG_VALUE: intra4x4_dc_pred_mbaff:currMB <- $rdi
	#DEBUG_VALUE: intra4x4_dc_pred_mbaff:pl <- $r15d
	#DEBUG_VALUE: intra4x4_dc_pred_mbaff:ioff <- $r12d
	#DEBUG_VALUE: intra4x4_dc_pred_mbaff:joff <- $r13d
	#DEBUG_VALUE: intra4x4_dc_pred_mbaff:currSlice <- $rdx
	#DEBUG_VALUE: intra4x4_dc_pred_mbaff:p_Vid <- $rbx
	#DEBUG_VALUE: intra4x4_dc_pred_mbaff:s0 <- 0
	.loc	0 59 19 is_stmt 0               # ldecod_src/intra4x4_pred_mbaff.c:59:19
	movq	(%rcx), %rax
.Ltmp105:
	#DEBUG_VALUE: intra4x4_dc_pred_mbaff:imgY <- $rax
	.loc	0 0 19                          # ldecod_src/intra4x4_pred_mbaff.c:0:19
	movq	%rax, 16(%rsp)                  # 8-byte Spill
.Ltmp106:
	#DEBUG_VALUE: intra4x4_dc_pred_mbaff:imgY <- [DW_OP_plus_uconst 16, DW_OP_deref] $rsp
	movq	%rdx, 120(%rsp)                 # 8-byte Spill
.Ltmp107:
	#DEBUG_VALUE: intra4x4_dc_pred_mbaff:currSlice <- [DW_OP_plus_uconst 120, DW_OP_deref] $rsp
	.loc	0 66 33 is_stmt 1               # ldecod_src/intra4x4_pred_mbaff.c:66:33
	movq	1248(%rdx), %rax
	.loc	0 66 22 is_stmt 0               # ldecod_src/intra4x4_pred_mbaff.c:66:22
	movl	%r15d, %ecx
	movq	%rcx, 128(%rsp)                 # 8-byte Spill
	movq	(%rax,%rcx,8), %rax
.Ltmp108:
	#DEBUG_VALUE: intra4x4_dc_pred_mbaff:mb_pred <- $rax
	#DEBUG_VALUE: intra4x4_dc_pred_mbaff:i <- 0
	.loc	0 0 22                          # ldecod_src/intra4x4_pred_mbaff.c:0:22
	movq	%rax, 8(%rsp)                   # 8-byte Spill
.Ltmp109:
	#DEBUG_VALUE: intra4x4_dc_pred_mbaff:mb_pred <- [DW_OP_plus_uconst 8, DW_OP_deref] $rsp
	movq	%r12, 24(%rsp)                  # 8-byte Spill
.Ltmp110:
	#DEBUG_VALUE: intra4x4_dc_pred_mbaff:ioff <- [DW_OP_plus_uconst 24, DW_OP_deref] $rsp
	#DEBUG_VALUE: intra4x4_pred_mbaff:ioff <- [DW_OP_plus_uconst 24] [$rsp+0]
	movq	24(%rsp), %rax                  # 8-byte Reload
	leal	-1(%rax), %ebp
	leaq	849124(%rbx), %r15
.Ltmp111:
	#DEBUG_VALUE: intra4x4_dc_pred_mbaff:pl <- [DW_OP_plus_uconst 128, DW_OP_deref] $rsp
	#DEBUG_VALUE: intra4x4_pred_mbaff:pl <- [DW_OP_plus_uconst 128] [$rsp+0]
	.loc	0 68 3 is_stmt 1                # ldecod_src/intra4x4_pred_mbaff.c:68:3
	movslq	%r13d, %r14
	#DEBUG_VALUE: intra4x4_dc_pred_mbaff:i <- 0
	leaq	48(%rsp), %r8
.Ltmp112:
	#DEBUG_VALUE: intra4x4_pred_mbaff:img_block_x <- [DW_OP_LLVM_entry_value 1] $r8d
	.loc	0 0 3 is_stmt 0                 # ldecod_src/intra4x4_pred_mbaff.c:0:3
	movq	%rdi, %r12
.Ltmp113:
	.loc	0 70 5 is_stmt 1                # ldecod_src/intra4x4_pred_mbaff.c:70:5
	movl	%ebp, %esi
.Ltmp114:
	movl	%r13d, %edx
	movq	%r15, %rcx
	callq	*856744(%rbx)
.Ltmp115:
	#DEBUG_VALUE: intra4x4_pred_mbaff:img_block_y <- [DW_OP_LLVM_entry_value 1] $r9d
	#DEBUG_VALUE: intra4x4_dc_pred_mbaff:currMB <- $r12
	#DEBUG_VALUE: intra4x4_pred_mbaff:currMB <- $r12
	#DEBUG_VALUE: intra4x4_dc_pred_mbaff:i <- 1
	.loc	0 70 48 is_stmt 0               # ldecod_src/intra4x4_pred_mbaff.c:70:48
	leal	1(%r13), %edx
	.loc	0 70 79                         # ldecod_src/intra4x4_pred_mbaff.c:70:79
	leaq	64(%rsp), %r8
	.loc	0 70 5                          # ldecod_src/intra4x4_pred_mbaff.c:70:5
	movq	%r12, %rdi
	movl	%ebp, %esi
	movq	%r15, %rcx
	callq	*856744(%rbx)
.Ltmp116:
	#DEBUG_VALUE: intra4x4_dc_pred_mbaff:i <- 2
	.loc	0 70 48                         # ldecod_src/intra4x4_pred_mbaff.c:70:48
	leal	2(%r13), %edx
	.loc	0 70 79                         # ldecod_src/intra4x4_pred_mbaff.c:70:79
	leaq	80(%rsp), %r8
	.loc	0 70 5                          # ldecod_src/intra4x4_pred_mbaff.c:70:5
	movq	%r12, %rdi
	movl	%ebp, %esi
	movq	%r15, %rcx
	callq	*856744(%rbx)
.Ltmp117:
	#DEBUG_VALUE: intra4x4_dc_pred_mbaff:i <- 3
	.loc	0 70 48                         # ldecod_src/intra4x4_pred_mbaff.c:70:48
	leal	3(%r13), %edx
	.loc	0 70 79                         # ldecod_src/intra4x4_pred_mbaff.c:70:79
	leaq	96(%rsp), %r8
	.loc	0 70 5                          # ldecod_src/intra4x4_pred_mbaff.c:70:5
	movq	%r12, %rdi
	movl	%ebp, %esi
	movq	24(%rsp), %rbp                  # 8-byte Reload
	movq	%r15, %rcx
	callq	*856744(%rbx)
.Ltmp118:
	#DEBUG_VALUE: intra4x4_dc_pred_mbaff:i <- 4
	.loc	0 72 46 is_stmt 1               # ldecod_src/intra4x4_pred_mbaff.c:72:46
	decl	%r13d
.Ltmp119:
	#DEBUG_VALUE: intra4x4_pred_mbaff:joff <- [DW_OP_LLVM_entry_value 1] $ecx
	.loc	0 0 46 is_stmt 0                # ldecod_src/intra4x4_pred_mbaff.c:0:46
	leaq	32(%rsp), %r8
	.loc	0 72 3                          # ldecod_src/intra4x4_pred_mbaff.c:72:3
	movq	%r12, %rdi
	movl	%ebp, %esi
	movl	%r13d, %edx
	movq	%r15, %rcx
	callq	*856744(%rbx)
.Ltmp120:
	.loc	0 74 14 is_stmt 1               # ldecod_src/intra4x4_pred_mbaff.c:74:14
	movq	8(%rbx), %rax
	.loc	0 74 7 is_stmt 0                # ldecod_src/intra4x4_pred_mbaff.c:74:7
	cmpl	$0, 2204(%rax)
.Ltmp121:
	.loc	0 74 7                          # ldecod_src/intra4x4_pred_mbaff.c:74:7
	je	.LBB0_53
.Ltmp122:
# %bb.41:                               # %for.cond17.preheader.i
	#DEBUG_VALUE: intra4x4_pred_mbaff:currMB <- $r12
	#DEBUG_VALUE: intra4x4_pred_mbaff:pl <- [DW_OP_plus_uconst 128] [$rsp+0]
	#DEBUG_VALUE: intra4x4_pred_mbaff:ioff <- [DW_OP_plus_uconst 24] [$rsp+0]
	#DEBUG_VALUE: intra4x4_pred_mbaff:joff <- [DW_OP_LLVM_entry_value 1] $ecx
	#DEBUG_VALUE: intra4x4_pred_mbaff:img_block_x <- [DW_OP_LLVM_entry_value 1] $r8d
	#DEBUG_VALUE: intra4x4_pred_mbaff:img_block_y <- [DW_OP_LLVM_entry_value 1] $r9d
	#DEBUG_VALUE: intra4x4_pred_mbaff:p_Vid <- $rbx
	#DEBUG_VALUE: intra4x4_dc_pred_mbaff:pix_b <- [DW_OP_plus_uconst 32, DW_OP_deref] $rsp
	#DEBUG_VALUE: intra4x4_dc_pred_mbaff:currMB <- $r12
	#DEBUG_VALUE: intra4x4_dc_pred_mbaff:pl <- [DW_OP_plus_uconst 128, DW_OP_deref] $rsp
	#DEBUG_VALUE: intra4x4_dc_pred_mbaff:ioff <- [DW_OP_plus_uconst 24, DW_OP_deref] $rsp
	#DEBUG_VALUE: intra4x4_dc_pred_mbaff:currSlice <- [DW_OP_plus_uconst 120, DW_OP_deref] $rsp
	#DEBUG_VALUE: intra4x4_dc_pred_mbaff:p_Vid <- $rbx
	#DEBUG_VALUE: intra4x4_dc_pred_mbaff:s0 <- 0
	#DEBUG_VALUE: intra4x4_dc_pred_mbaff:imgY <- [DW_OP_plus_uconst 16, DW_OP_deref] $rsp
	#DEBUG_VALUE: intra4x4_dc_pred_mbaff:mb_pred <- [DW_OP_plus_uconst 8, DW_OP_deref] $rsp
	#DEBUG_VALUE: intra4x4_dc_pred_mbaff:i <- 4
	#DEBUG_VALUE: intra4x4_dc_pred_mbaff:i <- 0
	#DEBUG_VALUE: intra4x4_dc_pred_mbaff:block_available_left <- 1
	.loc	0 0 7                           # ldecod_src/intra4x4_pred_mbaff.c:0:7
	xorl	%eax, %eax
.Ltmp123:
	.loc	0 77 32 is_stmt 1               # ldecod_src/intra4x4_pred_mbaff.c:77:32
	cmpl	$0, 48(%rsp)
	movl	$0, %ecx
	movq	120(%rsp), %rdi                 # 8-byte Reload
	je	.LBB0_43
.Ltmp124:
# %bb.42:                               # %cond.true23.i
	#DEBUG_VALUE: intra4x4_pred_mbaff:currMB <- $r12
	#DEBUG_VALUE: intra4x4_pred_mbaff:pl <- [DW_OP_plus_uconst 128] [$rsp+0]
	#DEBUG_VALUE: intra4x4_pred_mbaff:ioff <- [DW_OP_plus_uconst 24] [$rsp+0]
	#DEBUG_VALUE: intra4x4_pred_mbaff:joff <- [DW_OP_LLVM_entry_value 1] $ecx
	#DEBUG_VALUE: intra4x4_pred_mbaff:img_block_x <- [DW_OP_LLVM_entry_value 1] $r8d
	#DEBUG_VALUE: intra4x4_pred_mbaff:img_block_y <- [DW_OP_LLVM_entry_value 1] $r9d
	#DEBUG_VALUE: intra4x4_pred_mbaff:p_Vid <- $rbx
	#DEBUG_VALUE: intra4x4_dc_pred_mbaff:pix_b <- [DW_OP_plus_uconst 32, DW_OP_deref] $rsp
	#DEBUG_VALUE: intra4x4_dc_pred_mbaff:currMB <- $r12
	#DEBUG_VALUE: intra4x4_dc_pred_mbaff:pl <- [DW_OP_plus_uconst 128, DW_OP_deref] $rsp
	#DEBUG_VALUE: intra4x4_dc_pred_mbaff:ioff <- [DW_OP_plus_uconst 24, DW_OP_deref] $rsp
	#DEBUG_VALUE: intra4x4_dc_pred_mbaff:currSlice <- [DW_OP_plus_uconst 120, DW_OP_deref] $rsp
	#DEBUG_VALUE: intra4x4_dc_pred_mbaff:p_Vid <- $rbx
	#DEBUG_VALUE: intra4x4_dc_pred_mbaff:s0 <- 0
	#DEBUG_VALUE: intra4x4_dc_pred_mbaff:imgY <- [DW_OP_plus_uconst 16, DW_OP_deref] $rsp
	#DEBUG_VALUE: intra4x4_dc_pred_mbaff:mb_pred <- [DW_OP_plus_uconst 8, DW_OP_deref] $rsp
	#DEBUG_VALUE: intra4x4_dc_pred_mbaff:i <- 0
	#DEBUG_VALUE: intra4x4_dc_pred_mbaff:block_available_left <- 1
	.loc	0 77 64 is_stmt 0               # ldecod_src/intra4x4_pred_mbaff.c:77:64
	movq	13544(%rdi), %rcx
	.loc	0 77 85                         # ldecod_src/intra4x4_pred_mbaff.c:77:85
	movslq	52(%rsp), %rdx
	movzbl	(%rcx,%rdx), %ecx
	.loc	0 77 29                         # ldecod_src/intra4x4_pred_mbaff.c:77:29
	andl	$1, %ecx
.Ltmp125:
.LBB0_43:                               # %cond.end29.i
	#DEBUG_VALUE: intra4x4_pred_mbaff:currMB <- $r12
	#DEBUG_VALUE: intra4x4_pred_mbaff:pl <- [DW_OP_plus_uconst 128] [$rsp+0]
	#DEBUG_VALUE: intra4x4_pred_mbaff:ioff <- [DW_OP_plus_uconst 24] [$rsp+0]
	#DEBUG_VALUE: intra4x4_pred_mbaff:joff <- [DW_OP_LLVM_entry_value 1] $ecx
	#DEBUG_VALUE: intra4x4_pred_mbaff:img_block_x <- [DW_OP_LLVM_entry_value 1] $r8d
	#DEBUG_VALUE: intra4x4_pred_mbaff:img_block_y <- [DW_OP_LLVM_entry_value 1] $r9d
	#DEBUG_VALUE: intra4x4_pred_mbaff:p_Vid <- $rbx
	#DEBUG_VALUE: intra4x4_dc_pred_mbaff:pix_b <- [DW_OP_plus_uconst 32, DW_OP_deref] $rsp
	#DEBUG_VALUE: intra4x4_dc_pred_mbaff:currMB <- $r12
	#DEBUG_VALUE: intra4x4_dc_pred_mbaff:pl <- [DW_OP_plus_uconst 128, DW_OP_deref] $rsp
	#DEBUG_VALUE: intra4x4_dc_pred_mbaff:ioff <- [DW_OP_plus_uconst 24, DW_OP_deref] $rsp
	#DEBUG_VALUE: intra4x4_dc_pred_mbaff:currSlice <- [DW_OP_plus_uconst 120, DW_OP_deref] $rsp
	#DEBUG_VALUE: intra4x4_dc_pred_mbaff:p_Vid <- $rbx
	#DEBUG_VALUE: intra4x4_dc_pred_mbaff:s0 <- 0
	#DEBUG_VALUE: intra4x4_dc_pred_mbaff:imgY <- [DW_OP_plus_uconst 16, DW_OP_deref] $rsp
	#DEBUG_VALUE: intra4x4_dc_pred_mbaff:mb_pred <- [DW_OP_plus_uconst 8, DW_OP_deref] $rsp
	#DEBUG_VALUE: intra4x4_dc_pred_mbaff:i <- 0
	#DEBUG_VALUE: intra4x4_dc_pred_mbaff:block_available_left <- 1
	#DEBUG_VALUE: intra4x4_dc_pred_mbaff:block_available_left <- $ecx
	#DEBUG_VALUE: intra4x4_dc_pred_mbaff:i <- 1
	.loc	0 77 32                         # ldecod_src/intra4x4_pred_mbaff.c:77:32
	cmpl	$0, 64(%rsp)
	movq	8(%rsp), %r9                    # 8-byte Reload
	movq	16(%rsp), %r10                  # 8-byte Reload
	je	.LBB0_45
.Ltmp126:
# %bb.44:                               # %cond.true23.1.i
	#DEBUG_VALUE: intra4x4_pred_mbaff:currMB <- $r12
	#DEBUG_VALUE: intra4x4_pred_mbaff:pl <- [DW_OP_plus_uconst 128] [$rsp+0]
	#DEBUG_VALUE: intra4x4_pred_mbaff:ioff <- [DW_OP_plus_uconst 24] [$rsp+0]
	#DEBUG_VALUE: intra4x4_pred_mbaff:joff <- [DW_OP_LLVM_entry_value 1] $ecx
	#DEBUG_VALUE: intra4x4_pred_mbaff:img_block_x <- [DW_OP_LLVM_entry_value 1] $r8d
	#DEBUG_VALUE: intra4x4_pred_mbaff:img_block_y <- [DW_OP_LLVM_entry_value 1] $r9d
	#DEBUG_VALUE: intra4x4_pred_mbaff:p_Vid <- $rbx
	#DEBUG_VALUE: intra4x4_dc_pred_mbaff:pix_b <- [DW_OP_plus_uconst 32, DW_OP_deref] $rsp
	#DEBUG_VALUE: intra4x4_dc_pred_mbaff:currMB <- $r12
	#DEBUG_VALUE: intra4x4_dc_pred_mbaff:pl <- [DW_OP_plus_uconst 128, DW_OP_deref] $rsp
	#DEBUG_VALUE: intra4x4_dc_pred_mbaff:ioff <- [DW_OP_plus_uconst 24, DW_OP_deref] $rsp
	#DEBUG_VALUE: intra4x4_dc_pred_mbaff:currSlice <- [DW_OP_plus_uconst 120, DW_OP_deref] $rsp
	#DEBUG_VALUE: intra4x4_dc_pred_mbaff:p_Vid <- $rbx
	#DEBUG_VALUE: intra4x4_dc_pred_mbaff:s0 <- 0
	#DEBUG_VALUE: intra4x4_dc_pred_mbaff:imgY <- [DW_OP_plus_uconst 16, DW_OP_deref] $rsp
	#DEBUG_VALUE: intra4x4_dc_pred_mbaff:mb_pred <- [DW_OP_plus_uconst 8, DW_OP_deref] $rsp
	#DEBUG_VALUE: intra4x4_dc_pred_mbaff:i <- 1
	#DEBUG_VALUE: intra4x4_dc_pred_mbaff:block_available_left <- $ecx
	.loc	0 77 64                         # ldecod_src/intra4x4_pred_mbaff.c:77:64
	movq	13544(%rdi), %rax
	.loc	0 77 85                         # ldecod_src/intra4x4_pred_mbaff.c:77:85
	movslq	68(%rsp), %rdx
	.loc	0 77 53                         # ldecod_src/intra4x4_pred_mbaff.c:77:53
	movzbl	(%rax,%rdx), %eax
.Ltmp127:
.LBB0_45:                               # %cond.end29.1.i
	#DEBUG_VALUE: intra4x4_pred_mbaff:currMB <- $r12
	#DEBUG_VALUE: intra4x4_pred_mbaff:pl <- [DW_OP_plus_uconst 128] [$rsp+0]
	#DEBUG_VALUE: intra4x4_pred_mbaff:ioff <- [DW_OP_plus_uconst 24] [$rsp+0]
	#DEBUG_VALUE: intra4x4_pred_mbaff:joff <- [DW_OP_LLVM_entry_value 1] $ecx
	#DEBUG_VALUE: intra4x4_pred_mbaff:img_block_x <- [DW_OP_LLVM_entry_value 1] $r8d
	#DEBUG_VALUE: intra4x4_pred_mbaff:img_block_y <- [DW_OP_LLVM_entry_value 1] $r9d
	#DEBUG_VALUE: intra4x4_pred_mbaff:p_Vid <- $rbx
	#DEBUG_VALUE: intra4x4_dc_pred_mbaff:pix_b <- [DW_OP_plus_uconst 32, DW_OP_deref] $rsp
	#DEBUG_VALUE: intra4x4_dc_pred_mbaff:currMB <- $r12
	#DEBUG_VALUE: intra4x4_dc_pred_mbaff:pl <- [DW_OP_plus_uconst 128, DW_OP_deref] $rsp
	#DEBUG_VALUE: intra4x4_dc_pred_mbaff:ioff <- [DW_OP_plus_uconst 24, DW_OP_deref] $rsp
	#DEBUG_VALUE: intra4x4_dc_pred_mbaff:currSlice <- [DW_OP_plus_uconst 120, DW_OP_deref] $rsp
	#DEBUG_VALUE: intra4x4_dc_pred_mbaff:p_Vid <- $rbx
	#DEBUG_VALUE: intra4x4_dc_pred_mbaff:s0 <- 0
	#DEBUG_VALUE: intra4x4_dc_pred_mbaff:imgY <- [DW_OP_plus_uconst 16, DW_OP_deref] $rsp
	#DEBUG_VALUE: intra4x4_dc_pred_mbaff:mb_pred <- [DW_OP_plus_uconst 8, DW_OP_deref] $rsp
	#DEBUG_VALUE: intra4x4_dc_pred_mbaff:i <- 1
	#DEBUG_VALUE: intra4x4_dc_pred_mbaff:block_available_left <- $ecx
	.loc	0 77 29                         # ldecod_src/intra4x4_pred_mbaff.c:77:29
	andl	%ecx, %eax
.Ltmp128:
	#DEBUG_VALUE: intra4x4_dc_pred_mbaff:block_available_left <- $eax
	.loc	0 0 29                          # ldecod_src/intra4x4_pred_mbaff.c:0:29
	xorl	%ecx, %ecx
.Ltmp129:
	#DEBUG_VALUE: intra4x4_dc_pred_mbaff:i <- 2
	.loc	0 77 32                         # ldecod_src/intra4x4_pred_mbaff.c:77:32
	cmpl	$0, 80(%rsp)
	movl	$0, %edx
	je	.LBB0_47
.Ltmp130:
# %bb.46:                               # %cond.true23.2.i
	#DEBUG_VALUE: intra4x4_pred_mbaff:currMB <- $r12
	#DEBUG_VALUE: intra4x4_pred_mbaff:pl <- [DW_OP_plus_uconst 128] [$rsp+0]
	#DEBUG_VALUE: intra4x4_pred_mbaff:ioff <- [DW_OP_plus_uconst 24] [$rsp+0]
	#DEBUG_VALUE: intra4x4_pred_mbaff:joff <- [DW_OP_LLVM_entry_value 1] $ecx
	#DEBUG_VALUE: intra4x4_pred_mbaff:img_block_x <- [DW_OP_LLVM_entry_value 1] $r8d
	#DEBUG_VALUE: intra4x4_pred_mbaff:img_block_y <- [DW_OP_LLVM_entry_value 1] $r9d
	#DEBUG_VALUE: intra4x4_pred_mbaff:p_Vid <- $rbx
	#DEBUG_VALUE: intra4x4_dc_pred_mbaff:pix_b <- [DW_OP_plus_uconst 32, DW_OP_deref] $rsp
	#DEBUG_VALUE: intra4x4_dc_pred_mbaff:currMB <- $r12
	#DEBUG_VALUE: intra4x4_dc_pred_mbaff:pl <- [DW_OP_plus_uconst 128, DW_OP_deref] $rsp
	#DEBUG_VALUE: intra4x4_dc_pred_mbaff:ioff <- [DW_OP_plus_uconst 24, DW_OP_deref] $rsp
	#DEBUG_VALUE: intra4x4_dc_pred_mbaff:currSlice <- [DW_OP_plus_uconst 120, DW_OP_deref] $rsp
	#DEBUG_VALUE: intra4x4_dc_pred_mbaff:p_Vid <- $rbx
	#DEBUG_VALUE: intra4x4_dc_pred_mbaff:s0 <- 0
	#DEBUG_VALUE: intra4x4_dc_pred_mbaff:imgY <- [DW_OP_plus_uconst 16, DW_OP_deref] $rsp
	#DEBUG_VALUE: intra4x4_dc_pred_mbaff:mb_pred <- [DW_OP_plus_uconst 8, DW_OP_deref] $rsp
	#DEBUG_VALUE: intra4x4_dc_pred_mbaff:i <- 2
	#DEBUG_VALUE: intra4x4_dc_pred_mbaff:block_available_left <- $eax
	.loc	0 77 64                         # ldecod_src/intra4x4_pred_mbaff.c:77:64
	movq	13544(%rdi), %rdx
	.loc	0 77 85                         # ldecod_src/intra4x4_pred_mbaff.c:77:85
	movslq	84(%rsp), %rsi
	.loc	0 77 53                         # ldecod_src/intra4x4_pred_mbaff.c:77:53
	movzbl	(%rdx,%rsi), %edx
.Ltmp131:
.LBB0_47:                               # %cond.end29.2.i
	#DEBUG_VALUE: intra4x4_pred_mbaff:currMB <- $r12
	#DEBUG_VALUE: intra4x4_pred_mbaff:pl <- [DW_OP_plus_uconst 128] [$rsp+0]
	#DEBUG_VALUE: intra4x4_pred_mbaff:ioff <- [DW_OP_plus_uconst 24] [$rsp+0]
	#DEBUG_VALUE: intra4x4_pred_mbaff:joff <- [DW_OP_LLVM_entry_value 1] $ecx
	#DEBUG_VALUE: intra4x4_pred_mbaff:img_block_x <- [DW_OP_LLVM_entry_value 1] $r8d
	#DEBUG_VALUE: intra4x4_pred_mbaff:img_block_y <- [DW_OP_LLVM_entry_value 1] $r9d
	#DEBUG_VALUE: intra4x4_pred_mbaff:p_Vid <- $rbx
	#DEBUG_VALUE: intra4x4_dc_pred_mbaff:pix_b <- [DW_OP_plus_uconst 32, DW_OP_deref] $rsp
	#DEBUG_VALUE: intra4x4_dc_pred_mbaff:currMB <- $r12
	#DEBUG_VALUE: intra4x4_dc_pred_mbaff:pl <- [DW_OP_plus_uconst 128, DW_OP_deref] $rsp
	#DEBUG_VALUE: intra4x4_dc_pred_mbaff:ioff <- [DW_OP_plus_uconst 24, DW_OP_deref] $rsp
	#DEBUG_VALUE: intra4x4_dc_pred_mbaff:currSlice <- [DW_OP_plus_uconst 120, DW_OP_deref] $rsp
	#DEBUG_VALUE: intra4x4_dc_pred_mbaff:p_Vid <- $rbx
	#DEBUG_VALUE: intra4x4_dc_pred_mbaff:s0 <- 0
	#DEBUG_VALUE: intra4x4_dc_pred_mbaff:imgY <- [DW_OP_plus_uconst 16, DW_OP_deref] $rsp
	#DEBUG_VALUE: intra4x4_dc_pred_mbaff:mb_pred <- [DW_OP_plus_uconst 8, DW_OP_deref] $rsp
	#DEBUG_VALUE: intra4x4_dc_pred_mbaff:i <- 2
	#DEBUG_VALUE: intra4x4_dc_pred_mbaff:block_available_left <- $eax
	.loc	0 77 29                         # ldecod_src/intra4x4_pred_mbaff.c:77:29
	andl	%edx, %eax
.Ltmp132:
	#DEBUG_VALUE: intra4x4_dc_pred_mbaff:block_available_left <- $eax
	#DEBUG_VALUE: intra4x4_dc_pred_mbaff:i <- 3
	.loc	0 77 32                         # ldecod_src/intra4x4_pred_mbaff.c:77:32
	cmpl	$0, 96(%rsp)
	je	.LBB0_49
.Ltmp133:
# %bb.48:                               # %cond.true23.3.i
	#DEBUG_VALUE: intra4x4_pred_mbaff:currMB <- $r12
	#DEBUG_VALUE: intra4x4_pred_mbaff:pl <- [DW_OP_plus_uconst 128] [$rsp+0]
	#DEBUG_VALUE: intra4x4_pred_mbaff:ioff <- [DW_OP_plus_uconst 24] [$rsp+0]
	#DEBUG_VALUE: intra4x4_pred_mbaff:joff <- [DW_OP_LLVM_entry_value 1] $ecx
	#DEBUG_VALUE: intra4x4_pred_mbaff:img_block_x <- [DW_OP_LLVM_entry_value 1] $r8d
	#DEBUG_VALUE: intra4x4_pred_mbaff:img_block_y <- [DW_OP_LLVM_entry_value 1] $r9d
	#DEBUG_VALUE: intra4x4_pred_mbaff:p_Vid <- $rbx
	#DEBUG_VALUE: intra4x4_dc_pred_mbaff:pix_b <- [DW_OP_plus_uconst 32, DW_OP_deref] $rsp
	#DEBUG_VALUE: intra4x4_dc_pred_mbaff:currMB <- $r12
	#DEBUG_VALUE: intra4x4_dc_pred_mbaff:pl <- [DW_OP_plus_uconst 128, DW_OP_deref] $rsp
	#DEBUG_VALUE: intra4x4_dc_pred_mbaff:ioff <- [DW_OP_plus_uconst 24, DW_OP_deref] $rsp
	#DEBUG_VALUE: intra4x4_dc_pred_mbaff:currSlice <- [DW_OP_plus_uconst 120, DW_OP_deref] $rsp
	#DEBUG_VALUE: intra4x4_dc_pred_mbaff:p_Vid <- $rbx
	#DEBUG_VALUE: intra4x4_dc_pred_mbaff:s0 <- 0
	#DEBUG_VALUE: intra4x4_dc_pred_mbaff:imgY <- [DW_OP_plus_uconst 16, DW_OP_deref] $rsp
	#DEBUG_VALUE: intra4x4_dc_pred_mbaff:mb_pred <- [DW_OP_plus_uconst 8, DW_OP_deref] $rsp
	#DEBUG_VALUE: intra4x4_dc_pred_mbaff:i <- 3
	#DEBUG_VALUE: intra4x4_dc_pred_mbaff:block_available_left <- $eax
	.loc	0 77 64                         # ldecod_src/intra4x4_pred_mbaff.c:77:64
	movq	13544(%rdi), %rcx
	.loc	0 77 85                         # ldecod_src/intra4x4_pred_mbaff.c:77:85
	movslq	100(%rsp), %rdx
	.loc	0 77 53                         # ldecod_src/intra4x4_pred_mbaff.c:77:53
	movzbl	(%rcx,%rdx), %ecx
.Ltmp134:
.LBB0_49:                               # %cond.end29.3.i
	#DEBUG_VALUE: intra4x4_pred_mbaff:currMB <- $r12
	#DEBUG_VALUE: intra4x4_pred_mbaff:pl <- [DW_OP_plus_uconst 128] [$rsp+0]
	#DEBUG_VALUE: intra4x4_pred_mbaff:ioff <- [DW_OP_plus_uconst 24] [$rsp+0]
	#DEBUG_VALUE: intra4x4_pred_mbaff:joff <- [DW_OP_LLVM_entry_value 1] $ecx
	#DEBUG_VALUE: intra4x4_pred_mbaff:img_block_x <- [DW_OP_LLVM_entry_value 1] $r8d
	#DEBUG_VALUE: intra4x4_pred_mbaff:img_block_y <- [DW_OP_LLVM_entry_value 1] $r9d
	#DEBUG_VALUE: intra4x4_pred_mbaff:p_Vid <- $rbx
	#DEBUG_VALUE: intra4x4_dc_pred_mbaff:pix_b <- [DW_OP_plus_uconst 32, DW_OP_deref] $rsp
	#DEBUG_VALUE: intra4x4_dc_pred_mbaff:currMB <- $r12
	#DEBUG_VALUE: intra4x4_dc_pred_mbaff:pl <- [DW_OP_plus_uconst 128, DW_OP_deref] $rsp
	#DEBUG_VALUE: intra4x4_dc_pred_mbaff:ioff <- [DW_OP_plus_uconst 24, DW_OP_deref] $rsp
	#DEBUG_VALUE: intra4x4_dc_pred_mbaff:currSlice <- [DW_OP_plus_uconst 120, DW_OP_deref] $rsp
	#DEBUG_VALUE: intra4x4_dc_pred_mbaff:p_Vid <- $rbx
	#DEBUG_VALUE: intra4x4_dc_pred_mbaff:s0 <- 0
	#DEBUG_VALUE: intra4x4_dc_pred_mbaff:imgY <- [DW_OP_plus_uconst 16, DW_OP_deref] $rsp
	#DEBUG_VALUE: intra4x4_dc_pred_mbaff:mb_pred <- [DW_OP_plus_uconst 8, DW_OP_deref] $rsp
	#DEBUG_VALUE: intra4x4_dc_pred_mbaff:i <- 3
	#DEBUG_VALUE: intra4x4_dc_pred_mbaff:block_available_left <- $eax
	.loc	0 77 29                         # ldecod_src/intra4x4_pred_mbaff.c:77:29
	andl	%ecx, %eax
.Ltmp135:
	#DEBUG_VALUE: intra4x4_dc_pred_mbaff:block_available_left <- $eax
	#DEBUG_VALUE: intra4x4_dc_pred_mbaff:i <- 4
	.loc	0 78 32 is_stmt 1               # ldecod_src/intra4x4_pred_mbaff.c:78:32
	cmpl	$0, 32(%rsp)
	je	.LBB0_54
.Ltmp136:
# %bb.50:                               # %cond.true36.i
	#DEBUG_VALUE: intra4x4_pred_mbaff:currMB <- $r12
	#DEBUG_VALUE: intra4x4_pred_mbaff:pl <- [DW_OP_plus_uconst 128] [$rsp+0]
	#DEBUG_VALUE: intra4x4_pred_mbaff:ioff <- [DW_OP_plus_uconst 24] [$rsp+0]
	#DEBUG_VALUE: intra4x4_pred_mbaff:joff <- [DW_OP_LLVM_entry_value 1] $ecx
	#DEBUG_VALUE: intra4x4_pred_mbaff:img_block_x <- [DW_OP_LLVM_entry_value 1] $r8d
	#DEBUG_VALUE: intra4x4_pred_mbaff:img_block_y <- [DW_OP_LLVM_entry_value 1] $r9d
	#DEBUG_VALUE: intra4x4_pred_mbaff:p_Vid <- $rbx
	#DEBUG_VALUE: intra4x4_dc_pred_mbaff:pix_b <- [DW_OP_plus_uconst 32, DW_OP_deref] $rsp
	#DEBUG_VALUE: intra4x4_dc_pred_mbaff:currMB <- $r12
	#DEBUG_VALUE: intra4x4_dc_pred_mbaff:pl <- [DW_OP_plus_uconst 128, DW_OP_deref] $rsp
	#DEBUG_VALUE: intra4x4_dc_pred_mbaff:ioff <- [DW_OP_plus_uconst 24, DW_OP_deref] $rsp
	#DEBUG_VALUE: intra4x4_dc_pred_mbaff:currSlice <- [DW_OP_plus_uconst 120, DW_OP_deref] $rsp
	#DEBUG_VALUE: intra4x4_dc_pred_mbaff:p_Vid <- $rbx
	#DEBUG_VALUE: intra4x4_dc_pred_mbaff:s0 <- 0
	#DEBUG_VALUE: intra4x4_dc_pred_mbaff:imgY <- [DW_OP_plus_uconst 16, DW_OP_deref] $rsp
	#DEBUG_VALUE: intra4x4_dc_pred_mbaff:mb_pred <- [DW_OP_plus_uconst 8, DW_OP_deref] $rsp
	#DEBUG_VALUE: intra4x4_dc_pred_mbaff:i <- 4
	#DEBUG_VALUE: intra4x4_dc_pred_mbaff:block_available_left <- $eax
	.loc	0 78 61 is_stmt 0               # ldecod_src/intra4x4_pred_mbaff.c:78:61
	movq	13544(%rdi), %rcx
	.loc	0 78 80                         # ldecod_src/intra4x4_pred_mbaff.c:78:80
	movslq	36(%rsp), %rdx
	.loc	0 78 50                         # ldecod_src/intra4x4_pred_mbaff.c:78:50
	movsbl	(%rcx,%rdx), %ecx
.Ltmp137:
	#DEBUG_VALUE: intra4x4_dc_pred_mbaff:block_available_left <- $eax
	#DEBUG_VALUE: intra4x4_dc_pred_mbaff:block_available_up <- $ecx
	.loc	0 87 7 is_stmt 1                # ldecod_src/intra4x4_pred_mbaff.c:87:7
	testl	%ecx, %ecx
.Ltmp138:
	.loc	0 87 7 is_stmt 0                # ldecod_src/intra4x4_pred_mbaff.c:87:7
	je	.LBB0_54
.Ltmp139:
.LBB0_51:                               # %if.end88.thread.i
	#DEBUG_VALUE: intra4x4_pred_mbaff:currMB <- $r12
	#DEBUG_VALUE: intra4x4_pred_mbaff:pl <- [DW_OP_plus_uconst 128] [$rsp+0]
	#DEBUG_VALUE: intra4x4_pred_mbaff:ioff <- [DW_OP_plus_uconst 24] [$rsp+0]
	#DEBUG_VALUE: intra4x4_pred_mbaff:joff <- [DW_OP_LLVM_entry_value 1] $ecx
	#DEBUG_VALUE: intra4x4_pred_mbaff:img_block_x <- [DW_OP_LLVM_entry_value 1] $r8d
	#DEBUG_VALUE: intra4x4_pred_mbaff:img_block_y <- [DW_OP_LLVM_entry_value 1] $r9d
	#DEBUG_VALUE: intra4x4_pred_mbaff:p_Vid <- $rbx
	#DEBUG_VALUE: intra4x4_dc_pred_mbaff:pix_b <- [DW_OP_plus_uconst 32, DW_OP_deref] $rsp
	#DEBUG_VALUE: intra4x4_dc_pred_mbaff:currMB <- $r12
	#DEBUG_VALUE: intra4x4_dc_pred_mbaff:pl <- [DW_OP_plus_uconst 128, DW_OP_deref] $rsp
	#DEBUG_VALUE: intra4x4_dc_pred_mbaff:ioff <- [DW_OP_plus_uconst 24, DW_OP_deref] $rsp
	#DEBUG_VALUE: intra4x4_dc_pred_mbaff:currSlice <- [DW_OP_plus_uconst 120, DW_OP_deref] $rsp
	#DEBUG_VALUE: intra4x4_dc_pred_mbaff:p_Vid <- $rbx
	#DEBUG_VALUE: intra4x4_dc_pred_mbaff:s0 <- 0
	#DEBUG_VALUE: intra4x4_dc_pred_mbaff:imgY <- [DW_OP_plus_uconst 16, DW_OP_deref] $rsp
	#DEBUG_VALUE: intra4x4_dc_pred_mbaff:mb_pred <- [DW_OP_plus_uconst 8, DW_OP_deref] $rsp
	#DEBUG_VALUE: intra4x4_dc_pred_mbaff:i <- 4
	#DEBUG_VALUE: intra4x4_dc_pred_mbaff:block_available_left <- $eax
	#DEBUG_VALUE: intra4x4_dc_pred_mbaff:block_available_up <- $ecx
	.loc	0 89 22 is_stmt 1               # ldecod_src/intra4x4_pred_mbaff.c:89:22
	movswq	46(%rsp), %rcx
.Ltmp140:
	.loc	0 89 11 is_stmt 0               # ldecod_src/intra4x4_pred_mbaff.c:89:11
	movq	(%r10,%rcx,8), %rcx
	.loc	0 89 35                         # ldecod_src/intra4x4_pred_mbaff.c:89:35
	movswq	44(%rsp), %rdx
.Ltmp141:
	#DEBUG_VALUE: intra4x4_dc_pred_mbaff:s0 <- undef
	.loc	0 89 11                         # ldecod_src/intra4x4_pred_mbaff.c:89:11
	movq	(%rcx,%rdx,2), %xmm0            # xmm0 = mem[0],zero
	.loc	0 90 11 is_stmt 1               # ldecod_src/intra4x4_pred_mbaff.c:90:11
	pxor	%xmm1, %xmm1
	punpcklwd	%xmm1, %xmm0            # xmm0 = xmm0[0],xmm1[0],xmm0[1],xmm1[1],xmm0[2],xmm1[2],xmm0[3],xmm1[3]
	.loc	0 92 8                          # ldecod_src/intra4x4_pred_mbaff.c:92:8
	pshufd	$238, %xmm0, %xmm1              # xmm1 = xmm0[2,3,2,3]
	paddd	%xmm0, %xmm1
	pshufd	$85, %xmm1, %xmm0               # xmm0 = xmm1[1,1,1,1]
	paddd	%xmm1, %xmm0
	movd	%xmm0, %ecx
.Ltmp142:
	#DEBUG_VALUE: intra4x4_dc_pred_mbaff:s0 <- $ecx
	.loc	0 95 7                          # ldecod_src/intra4x4_pred_mbaff.c:95:7
	testl	%eax, %eax
.Ltmp143:
	.loc	0 95 7 is_stmt 0                # ldecod_src/intra4x4_pred_mbaff.c:95:7
	je	.LBB0_167
.Ltmp144:
# %bb.52:
	#DEBUG_VALUE: intra4x4_pred_mbaff:currMB <- $r12
	#DEBUG_VALUE: intra4x4_pred_mbaff:pl <- [DW_OP_plus_uconst 128] [$rsp+0]
	#DEBUG_VALUE: intra4x4_pred_mbaff:ioff <- [DW_OP_plus_uconst 24] [$rsp+0]
	#DEBUG_VALUE: intra4x4_pred_mbaff:joff <- [DW_OP_LLVM_entry_value 1] $ecx
	#DEBUG_VALUE: intra4x4_pred_mbaff:img_block_x <- [DW_OP_LLVM_entry_value 1] $r8d
	#DEBUG_VALUE: intra4x4_pred_mbaff:img_block_y <- [DW_OP_LLVM_entry_value 1] $r9d
	#DEBUG_VALUE: intra4x4_pred_mbaff:p_Vid <- $rbx
	#DEBUG_VALUE: intra4x4_dc_pred_mbaff:pix_b <- [DW_OP_plus_uconst 32, DW_OP_deref] $rsp
	#DEBUG_VALUE: intra4x4_dc_pred_mbaff:currMB <- $r12
	#DEBUG_VALUE: intra4x4_dc_pred_mbaff:pl <- [DW_OP_plus_uconst 128, DW_OP_deref] $rsp
	#DEBUG_VALUE: intra4x4_dc_pred_mbaff:ioff <- [DW_OP_plus_uconst 24, DW_OP_deref] $rsp
	#DEBUG_VALUE: intra4x4_dc_pred_mbaff:currSlice <- [DW_OP_plus_uconst 120, DW_OP_deref] $rsp
	#DEBUG_VALUE: intra4x4_dc_pred_mbaff:p_Vid <- $rbx
	#DEBUG_VALUE: intra4x4_dc_pred_mbaff:s0 <- $ecx
	#DEBUG_VALUE: intra4x4_dc_pred_mbaff:imgY <- [DW_OP_plus_uconst 16, DW_OP_deref] $rsp
	#DEBUG_VALUE: intra4x4_dc_pred_mbaff:mb_pred <- [DW_OP_plus_uconst 8, DW_OP_deref] $rsp
	#DEBUG_VALUE: intra4x4_dc_pred_mbaff:i <- 4
	#DEBUG_VALUE: intra4x4_dc_pred_mbaff:block_available_left <- $eax
	.loc	0 0 7                           # ldecod_src/intra4x4_pred_mbaff.c:0:7
	movb	$1, %sil
	xorl	%edx, %edx
	jmp	.LBB0_56
.Ltmp145:
.LBB0_53:                               # %if.else.i
	#DEBUG_VALUE: intra4x4_pred_mbaff:currMB <- $r12
	#DEBUG_VALUE: intra4x4_pred_mbaff:pl <- [DW_OP_plus_uconst 128] [$rsp+0]
	#DEBUG_VALUE: intra4x4_pred_mbaff:ioff <- [DW_OP_plus_uconst 24] [$rsp+0]
	#DEBUG_VALUE: intra4x4_pred_mbaff:joff <- [DW_OP_LLVM_entry_value 1] $ecx
	#DEBUG_VALUE: intra4x4_pred_mbaff:img_block_x <- [DW_OP_LLVM_entry_value 1] $r8d
	#DEBUG_VALUE: intra4x4_pred_mbaff:img_block_y <- [DW_OP_LLVM_entry_value 1] $r9d
	#DEBUG_VALUE: intra4x4_pred_mbaff:p_Vid <- $rbx
	#DEBUG_VALUE: intra4x4_dc_pred_mbaff:pix_b <- [DW_OP_plus_uconst 32, DW_OP_deref] $rsp
	#DEBUG_VALUE: intra4x4_dc_pred_mbaff:currMB <- $r12
	#DEBUG_VALUE: intra4x4_dc_pred_mbaff:pl <- [DW_OP_plus_uconst 128, DW_OP_deref] $rsp
	#DEBUG_VALUE: intra4x4_dc_pred_mbaff:ioff <- [DW_OP_plus_uconst 24, DW_OP_deref] $rsp
	#DEBUG_VALUE: intra4x4_dc_pred_mbaff:currSlice <- [DW_OP_plus_uconst 120, DW_OP_deref] $rsp
	#DEBUG_VALUE: intra4x4_dc_pred_mbaff:p_Vid <- $rbx
	#DEBUG_VALUE: intra4x4_dc_pred_mbaff:s0 <- 0
	#DEBUG_VALUE: intra4x4_dc_pred_mbaff:imgY <- [DW_OP_plus_uconst 16, DW_OP_deref] $rsp
	#DEBUG_VALUE: intra4x4_dc_pred_mbaff:mb_pred <- [DW_OP_plus_uconst 8, DW_OP_deref] $rsp
	#DEBUG_VALUE: intra4x4_dc_pred_mbaff:i <- 4
	.loc	0 82 41 is_stmt 1               # ldecod_src/intra4x4_pred_mbaff.c:82:41
	movl	48(%rsp), %eax
.Ltmp146:
	#DEBUG_VALUE: intra4x4_dc_pred_mbaff:block_available_left <- $eax
	.loc	0 83 38                         # ldecod_src/intra4x4_pred_mbaff.c:83:38
	movl	32(%rsp), %ecx
.Ltmp147:
	#DEBUG_VALUE: intra4x4_dc_pred_mbaff:block_available_up <- $ecx
	.loc	0 0 38 is_stmt 0                # ldecod_src/intra4x4_pred_mbaff.c:0:38
	movq	8(%rsp), %r9                    # 8-byte Reload
	movq	16(%rsp), %r10                  # 8-byte Reload
.Ltmp148:
	#DEBUG_VALUE: intra4x4_dc_pred_mbaff:block_available_left <- $eax
	#DEBUG_VALUE: intra4x4_dc_pred_mbaff:block_available_up <- $ecx
	.loc	0 87 7 is_stmt 1                # ldecod_src/intra4x4_pred_mbaff.c:87:7
	testl	%ecx, %ecx
.Ltmp149:
	.loc	0 87 7 is_stmt 0                # ldecod_src/intra4x4_pred_mbaff.c:87:7
	jne	.LBB0_51
.Ltmp150:
.LBB0_54:                               # %if.end88.i
	#DEBUG_VALUE: intra4x4_pred_mbaff:currMB <- $r12
	#DEBUG_VALUE: intra4x4_pred_mbaff:pl <- [DW_OP_plus_uconst 128] [$rsp+0]
	#DEBUG_VALUE: intra4x4_pred_mbaff:ioff <- [DW_OP_plus_uconst 24] [$rsp+0]
	#DEBUG_VALUE: intra4x4_pred_mbaff:joff <- [DW_OP_LLVM_entry_value 1] $ecx
	#DEBUG_VALUE: intra4x4_pred_mbaff:img_block_x <- [DW_OP_LLVM_entry_value 1] $r8d
	#DEBUG_VALUE: intra4x4_pred_mbaff:img_block_y <- [DW_OP_LLVM_entry_value 1] $r9d
	#DEBUG_VALUE: intra4x4_pred_mbaff:p_Vid <- $rbx
	#DEBUG_VALUE: intra4x4_dc_pred_mbaff:pix_b <- [DW_OP_plus_uconst 32, DW_OP_deref] $rsp
	#DEBUG_VALUE: intra4x4_dc_pred_mbaff:currMB <- $r12
	#DEBUG_VALUE: intra4x4_dc_pred_mbaff:pl <- [DW_OP_plus_uconst 128, DW_OP_deref] $rsp
	#DEBUG_VALUE: intra4x4_dc_pred_mbaff:ioff <- [DW_OP_plus_uconst 24, DW_OP_deref] $rsp
	#DEBUG_VALUE: intra4x4_dc_pred_mbaff:currSlice <- [DW_OP_plus_uconst 120, DW_OP_deref] $rsp
	#DEBUG_VALUE: intra4x4_dc_pred_mbaff:p_Vid <- $rbx
	#DEBUG_VALUE: intra4x4_dc_pred_mbaff:s0 <- 0
	#DEBUG_VALUE: intra4x4_dc_pred_mbaff:imgY <- [DW_OP_plus_uconst 16, DW_OP_deref] $rsp
	#DEBUG_VALUE: intra4x4_dc_pred_mbaff:mb_pred <- [DW_OP_plus_uconst 8, DW_OP_deref] $rsp
	#DEBUG_VALUE: intra4x4_dc_pred_mbaff:i <- 4
	#DEBUG_VALUE: intra4x4_dc_pred_mbaff:block_available_left <- $eax
	#DEBUG_VALUE: intra4x4_dc_pred_mbaff:s0 <- 0
	.loc	0 95 7 is_stmt 1                # ldecod_src/intra4x4_pred_mbaff.c:95:7
	testl	%eax, %eax
.Ltmp151:
	.loc	0 95 7 is_stmt 0                # ldecod_src/intra4x4_pred_mbaff.c:95:7
	je	.LBB0_137
.Ltmp152:
# %bb.55:
	#DEBUG_VALUE: intra4x4_pred_mbaff:currMB <- $r12
	#DEBUG_VALUE: intra4x4_pred_mbaff:pl <- [DW_OP_plus_uconst 128] [$rsp+0]
	#DEBUG_VALUE: intra4x4_pred_mbaff:ioff <- [DW_OP_plus_uconst 24] [$rsp+0]
	#DEBUG_VALUE: intra4x4_pred_mbaff:joff <- [DW_OP_LLVM_entry_value 1] $ecx
	#DEBUG_VALUE: intra4x4_pred_mbaff:img_block_x <- [DW_OP_LLVM_entry_value 1] $r8d
	#DEBUG_VALUE: intra4x4_pred_mbaff:img_block_y <- [DW_OP_LLVM_entry_value 1] $r9d
	#DEBUG_VALUE: intra4x4_pred_mbaff:p_Vid <- $rbx
	#DEBUG_VALUE: intra4x4_dc_pred_mbaff:pix_b <- [DW_OP_plus_uconst 32, DW_OP_deref] $rsp
	#DEBUG_VALUE: intra4x4_dc_pred_mbaff:currMB <- $r12
	#DEBUG_VALUE: intra4x4_dc_pred_mbaff:pl <- [DW_OP_plus_uconst 128, DW_OP_deref] $rsp
	#DEBUG_VALUE: intra4x4_dc_pred_mbaff:ioff <- [DW_OP_plus_uconst 24, DW_OP_deref] $rsp
	#DEBUG_VALUE: intra4x4_dc_pred_mbaff:currSlice <- [DW_OP_plus_uconst 120, DW_OP_deref] $rsp
	#DEBUG_VALUE: intra4x4_dc_pred_mbaff:p_Vid <- $rbx
	#DEBUG_VALUE: intra4x4_dc_pred_mbaff:s0 <- 0
	#DEBUG_VALUE: intra4x4_dc_pred_mbaff:imgY <- [DW_OP_plus_uconst 16, DW_OP_deref] $rsp
	#DEBUG_VALUE: intra4x4_dc_pred_mbaff:mb_pred <- [DW_OP_plus_uconst 8, DW_OP_deref] $rsp
	#DEBUG_VALUE: intra4x4_dc_pred_mbaff:i <- 4
	#DEBUG_VALUE: intra4x4_dc_pred_mbaff:block_available_left <- $eax
	.loc	0 0 7                           # ldecod_src/intra4x4_pred_mbaff.c:0:7
	movb	$1, %dl
	xorl	%ecx, %ecx
	xorl	%esi, %esi
.Ltmp153:
.LBB0_56:                               # %if.end131.i
	#DEBUG_VALUE: intra4x4_pred_mbaff:currMB <- $r12
	#DEBUG_VALUE: intra4x4_pred_mbaff:pl <- [DW_OP_plus_uconst 128] [$rsp+0]
	#DEBUG_VALUE: intra4x4_pred_mbaff:ioff <- [DW_OP_plus_uconst 24] [$rsp+0]
	#DEBUG_VALUE: intra4x4_pred_mbaff:joff <- [DW_OP_LLVM_entry_value 1] $ecx
	#DEBUG_VALUE: intra4x4_pred_mbaff:img_block_x <- [DW_OP_LLVM_entry_value 1] $r8d
	#DEBUG_VALUE: intra4x4_pred_mbaff:img_block_y <- [DW_OP_LLVM_entry_value 1] $r9d
	#DEBUG_VALUE: intra4x4_pred_mbaff:p_Vid <- $rbx
	#DEBUG_VALUE: intra4x4_dc_pred_mbaff:pix_b <- [DW_OP_plus_uconst 32, DW_OP_deref] $rsp
	#DEBUG_VALUE: intra4x4_dc_pred_mbaff:currMB <- $r12
	#DEBUG_VALUE: intra4x4_dc_pred_mbaff:pl <- [DW_OP_plus_uconst 128, DW_OP_deref] $rsp
	#DEBUG_VALUE: intra4x4_dc_pred_mbaff:ioff <- [DW_OP_plus_uconst 24, DW_OP_deref] $rsp
	#DEBUG_VALUE: intra4x4_dc_pred_mbaff:currSlice <- [DW_OP_plus_uconst 120, DW_OP_deref] $rsp
	#DEBUG_VALUE: intra4x4_dc_pred_mbaff:p_Vid <- $rbx
	#DEBUG_VALUE: intra4x4_dc_pred_mbaff:imgY <- [DW_OP_plus_uconst 16, DW_OP_deref] $rsp
	#DEBUG_VALUE: intra4x4_dc_pred_mbaff:mb_pred <- [DW_OP_plus_uconst 8, DW_OP_deref] $rsp
	#DEBUG_VALUE: intra4x4_dc_pred_mbaff:i <- 4
	#DEBUG_VALUE: intra4x4_dc_pred_mbaff:block_available_left <- $eax
	.loc	0 97 25 is_stmt 1               # ldecod_src/intra4x4_pred_mbaff.c:97:25
	movswq	62(%rsp), %rax
.Ltmp154:
	.loc	0 97 11 is_stmt 0               # ldecod_src/intra4x4_pred_mbaff.c:97:11
	movq	(%r10,%rax,8), %rax
	.loc	0 97 41                         # ldecod_src/intra4x4_pred_mbaff.c:97:41
	movswq	60(%rsp), %rdi
	.loc	0 97 11                         # ldecod_src/intra4x4_pred_mbaff.c:97:11
	movzwl	(%rax,%rdi,2), %eax
.Ltmp155:
	#DEBUG_VALUE: intra4x4_dc_pred_mbaff:s0 <- undef
	.loc	0 98 25 is_stmt 1               # ldecod_src/intra4x4_pred_mbaff.c:98:25
	movswq	78(%rsp), %rdi
	.loc	0 98 11 is_stmt 0               # ldecod_src/intra4x4_pred_mbaff.c:98:11
	movq	(%r10,%rdi,8), %rdi
	.loc	0 98 41                         # ldecod_src/intra4x4_pred_mbaff.c:98:41
	movswq	76(%rsp), %r8
	.loc	0 98 11                         # ldecod_src/intra4x4_pred_mbaff.c:98:11
	movzwl	(%rdi,%r8,2), %edi
	.loc	0 97 8 is_stmt 1                # ldecod_src/intra4x4_pred_mbaff.c:97:8
	addl	%eax, %edi
	#DEBUG_VALUE: intra4x4_dc_pred_mbaff:s0 <- undef
	.loc	0 99 25                         # ldecod_src/intra4x4_pred_mbaff.c:99:25
	movswq	94(%rsp), %rax
	.loc	0 99 11 is_stmt 0               # ldecod_src/intra4x4_pred_mbaff.c:99:11
	movq	(%r10,%rax,8), %rax
	.loc	0 99 41                         # ldecod_src/intra4x4_pred_mbaff.c:99:41
	movswq	92(%rsp), %r8
	.loc	0 99 11                         # ldecod_src/intra4x4_pred_mbaff.c:99:11
	movzwl	(%rax,%r8,2), %r8d
	.loc	0 98 8 is_stmt 1                # ldecod_src/intra4x4_pred_mbaff.c:98:8
	addl	%edi, %r8d
	#DEBUG_VALUE: intra4x4_dc_pred_mbaff:s0 <- undef
	.loc	0 100 25                        # ldecod_src/intra4x4_pred_mbaff.c:100:25
	movswq	110(%rsp), %rax
	.loc	0 100 11 is_stmt 0              # ldecod_src/intra4x4_pred_mbaff.c:100:11
	movq	(%r10,%rax,8), %rax
	.loc	0 100 41                        # ldecod_src/intra4x4_pred_mbaff.c:100:41
	movswq	108(%rsp), %rdi
	.loc	0 100 11                        # ldecod_src/intra4x4_pred_mbaff.c:100:11
	movzwl	(%rax,%rdi,2), %eax
	.loc	0 99 8 is_stmt 1                # ldecod_src/intra4x4_pred_mbaff.c:99:8
	addl	%r8d, %eax
	.loc	0 100 8                         # ldecod_src/intra4x4_pred_mbaff.c:100:8
	addl	%ecx, %eax
.Ltmp156:
	#DEBUG_VALUE: intra4x4_dc_pred_mbaff:s0 <- $eax
	.loc	0 103 26                        # ldecod_src/intra4x4_pred_mbaff.c:103:26
	testb	%sil, %sil
	je	.LBB0_135
.Ltmp157:
# %bb.57:                               # %if.then134.i
	#DEBUG_VALUE: intra4x4_pred_mbaff:currMB <- $r12
	#DEBUG_VALUE: intra4x4_pred_mbaff:pl <- [DW_OP_plus_uconst 128] [$rsp+0]
	#DEBUG_VALUE: intra4x4_pred_mbaff:ioff <- [DW_OP_plus_uconst 24] [$rsp+0]
	#DEBUG_VALUE: intra4x4_pred_mbaff:joff <- [DW_OP_LLVM_entry_value 1] $ecx
	#DEBUG_VALUE: intra4x4_pred_mbaff:img_block_x <- [DW_OP_LLVM_entry_value 1] $r8d
	#DEBUG_VALUE: intra4x4_pred_mbaff:img_block_y <- [DW_OP_LLVM_entry_value 1] $r9d
	#DEBUG_VALUE: intra4x4_pred_mbaff:p_Vid <- $rbx
	#DEBUG_VALUE: intra4x4_dc_pred_mbaff:pix_b <- [DW_OP_plus_uconst 32, DW_OP_deref] $rsp
	#DEBUG_VALUE: intra4x4_dc_pred_mbaff:currMB <- $r12
	#DEBUG_VALUE: intra4x4_dc_pred_mbaff:pl <- [DW_OP_plus_uconst 128, DW_OP_deref] $rsp
	#DEBUG_VALUE: intra4x4_dc_pred_mbaff:ioff <- [DW_OP_plus_uconst 24, DW_OP_deref] $rsp
	#DEBUG_VALUE: intra4x4_dc_pred_mbaff:currSlice <- [DW_OP_plus_uconst 120, DW_OP_deref] $rsp
	#DEBUG_VALUE: intra4x4_dc_pred_mbaff:p_Vid <- $rbx
	#DEBUG_VALUE: intra4x4_dc_pred_mbaff:s0 <- $eax
	#DEBUG_VALUE: intra4x4_dc_pred_mbaff:imgY <- [DW_OP_plus_uconst 16, DW_OP_deref] $rsp
	#DEBUG_VALUE: intra4x4_dc_pred_mbaff:mb_pred <- [DW_OP_plus_uconst 8, DW_OP_deref] $rsp
	#DEBUG_VALUE: intra4x4_dc_pred_mbaff:i <- 4
	.loc	0 106 14                        # ldecod_src/intra4x4_pred_mbaff.c:106:14
	addl	$4, %eax
.Ltmp158:
	.loc	0 106 18 is_stmt 0              # ldecod_src/intra4x4_pred_mbaff.c:106:18
	shrl	$3, %eax
.Ltmp159:
	#DEBUG_VALUE: intra4x4_dc_pred_mbaff:s0 <- $eax
	.loc	0 107 3 is_stmt 1               # ldecod_src/intra4x4_pred_mbaff.c:107:3
	jmp	.LBB0_168
.Ltmp160:
.LBB0_58:
	#DEBUG_VALUE: intra4x4_pred_mbaff:currMB <- $r13
	#DEBUG_VALUE: intra4x4_pred_mbaff:pl <- $r15d
	#DEBUG_VALUE: intra4x4_pred_mbaff:ioff <- $r14d
	#DEBUG_VALUE: intra4x4_pred_mbaff:joff <- [DW_OP_plus_uconst 8] [$rsp+0]
	#DEBUG_VALUE: intra4x4_pred_mbaff:img_block_x <- [DW_OP_LLVM_entry_value 1] $r8d
	#DEBUG_VALUE: intra4x4_pred_mbaff:img_block_y <- [DW_OP_LLVM_entry_value 1] $r9d
	#DEBUG_VALUE: intra4x4_pred_mbaff:p_Vid <- $rbx
	#DEBUG_VALUE: intra4x4_diag_down_left_pred_mbaff:pix_c <- [DW_OP_plus_uconst 32, DW_OP_deref] $rsp
	#DEBUG_VALUE: intra4x4_diag_down_left_pred_mbaff:currMB <- $r13
	#DEBUG_VALUE: intra4x4_diag_down_left_pred_mbaff:pl <- $r15d
	#DEBUG_VALUE: intra4x4_diag_down_left_pred_mbaff:ioff <- $r14d
	#DEBUG_VALUE: intra4x4_diag_down_left_pred_mbaff:joff <- [DW_OP_plus_uconst 8, DW_OP_deref] $rsp
	#DEBUG_VALUE: intra4x4_diag_down_left_pred_mbaff:currSlice <- [DW_OP_plus_uconst 16, DW_OP_deref] $rsp
	#DEBUG_VALUE: intra4x4_diag_down_left_pred_mbaff:p_Vid <- $rbx
	.loc	0 0 3 is_stmt 0                 # ldecod_src/intra4x4_pred_mbaff.c:0:3
	xorl	%ecx, %ecx
	movq	8(%rsp), %r13                   # 8-byte Reload
.Ltmp161:
.LBB0_59:                               # %land.end10.i
	#DEBUG_VALUE: intra4x4_pred_mbaff:currMB <- [DW_OP_LLVM_entry_value 1] $rdi
	#DEBUG_VALUE: intra4x4_pred_mbaff:pl <- $r15d
	#DEBUG_VALUE: intra4x4_pred_mbaff:ioff <- $r14d
	#DEBUG_VALUE: intra4x4_pred_mbaff:joff <- [DW_OP_plus_uconst 8] [$rsp+0]
	#DEBUG_VALUE: intra4x4_pred_mbaff:img_block_x <- [DW_OP_LLVM_entry_value 1] $r8d
	#DEBUG_VALUE: intra4x4_pred_mbaff:img_block_y <- [DW_OP_LLVM_entry_value 1] $r9d
	#DEBUG_VALUE: intra4x4_pred_mbaff:p_Vid <- $rbx
	#DEBUG_VALUE: intra4x4_diag_down_left_pred_mbaff:pix_c <- [DW_OP_plus_uconst 32, DW_OP_deref] $rsp
	#DEBUG_VALUE: intra4x4_diag_down_left_pred_mbaff:pl <- $r15d
	#DEBUG_VALUE: intra4x4_diag_down_left_pred_mbaff:ioff <- $r14d
	#DEBUG_VALUE: intra4x4_diag_down_left_pred_mbaff:joff <- [DW_OP_plus_uconst 8, DW_OP_deref] $rsp
	#DEBUG_VALUE: intra4x4_diag_down_left_pred_mbaff:currSlice <- [DW_OP_plus_uconst 16, DW_OP_deref] $rsp
	#DEBUG_VALUE: intra4x4_diag_down_left_pred_mbaff:p_Vid <- $rbx
	.loc	0 362 19 is_stmt 1              # ldecod_src/intra4x4_pred_mbaff.c:362:19
	movl	%ecx, 32(%rsp)
	#DEBUG_VALUE: intra4x4_diag_down_left_pred_mbaff:pix_c <- [DW_OP_plus_uconst 32, DW_OP_deref] $rsp
.Ltmp162:
	.loc	0 364 14                        # ldecod_src/intra4x4_pred_mbaff.c:364:14
	movq	8(%rbx), %rax
	.loc	0 364 7 is_stmt 0               # ldecod_src/intra4x4_pred_mbaff.c:364:7
	cmpl	$0, 2204(%rax)
	.loc	0 0 0                           # ldecod_src/intra4x4_pred_mbaff.c:0:0
	movl	48(%rsp), %eax
.Ltmp163:
	.loc	0 364 7                         # ldecod_src/intra4x4_pred_mbaff.c:364:7
	je	.LBB0_64
.Ltmp164:
# %bb.60:                               # %if.then.i178
	#DEBUG_VALUE: intra4x4_pred_mbaff:currMB <- [DW_OP_LLVM_entry_value 1] $rdi
	#DEBUG_VALUE: intra4x4_pred_mbaff:pl <- $r15d
	#DEBUG_VALUE: intra4x4_pred_mbaff:ioff <- $r14d
	#DEBUG_VALUE: intra4x4_pred_mbaff:joff <- [DW_OP_plus_uconst 8] [$rsp+0]
	#DEBUG_VALUE: intra4x4_pred_mbaff:img_block_x <- [DW_OP_LLVM_entry_value 1] $r8d
	#DEBUG_VALUE: intra4x4_pred_mbaff:img_block_y <- [DW_OP_LLVM_entry_value 1] $r9d
	#DEBUG_VALUE: intra4x4_pred_mbaff:p_Vid <- $rbx
	#DEBUG_VALUE: intra4x4_diag_down_left_pred_mbaff:pix_c <- [DW_OP_plus_uconst 32, DW_OP_deref] $rsp
	#DEBUG_VALUE: intra4x4_diag_down_left_pred_mbaff:pl <- $r15d
	#DEBUG_VALUE: intra4x4_diag_down_left_pred_mbaff:ioff <- $r14d
	#DEBUG_VALUE: intra4x4_diag_down_left_pred_mbaff:joff <- [DW_OP_plus_uconst 8, DW_OP_deref] $rsp
	#DEBUG_VALUE: intra4x4_diag_down_left_pred_mbaff:currSlice <- [DW_OP_plus_uconst 16, DW_OP_deref] $rsp
	#DEBUG_VALUE: intra4x4_diag_down_left_pred_mbaff:p_Vid <- $rbx
	.loc	0 366 32 is_stmt 1              # ldecod_src/intra4x4_pred_mbaff.c:366:32
	testl	%eax, %eax
	movl	$0, %eax
	movq	16(%rsp), %rsi                  # 8-byte Reload
	je	.LBB0_62
.Ltmp165:
# %bb.61:                               # %cond.true.i179
	#DEBUG_VALUE: intra4x4_pred_mbaff:currMB <- [DW_OP_LLVM_entry_value 1] $rdi
	#DEBUG_VALUE: intra4x4_pred_mbaff:pl <- $r15d
	#DEBUG_VALUE: intra4x4_pred_mbaff:ioff <- $r14d
	#DEBUG_VALUE: intra4x4_pred_mbaff:joff <- [DW_OP_plus_uconst 8] [$rsp+0]
	#DEBUG_VALUE: intra4x4_pred_mbaff:img_block_x <- [DW_OP_LLVM_entry_value 1] $r8d
	#DEBUG_VALUE: intra4x4_pred_mbaff:img_block_y <- [DW_OP_LLVM_entry_value 1] $r9d
	#DEBUG_VALUE: intra4x4_pred_mbaff:p_Vid <- $rbx
	#DEBUG_VALUE: intra4x4_diag_down_left_pred_mbaff:pix_c <- [DW_OP_plus_uconst 32, DW_OP_deref] $rsp
	#DEBUG_VALUE: intra4x4_diag_down_left_pred_mbaff:pl <- $r15d
	#DEBUG_VALUE: intra4x4_diag_down_left_pred_mbaff:ioff <- $r14d
	#DEBUG_VALUE: intra4x4_diag_down_left_pred_mbaff:joff <- [DW_OP_plus_uconst 8, DW_OP_deref] $rsp
	#DEBUG_VALUE: intra4x4_diag_down_left_pred_mbaff:currSlice <- [DW_OP_plus_uconst 16, DW_OP_deref] $rsp
	#DEBUG_VALUE: intra4x4_diag_down_left_pred_mbaff:p_Vid <- $rbx
	.loc	0 366 61 is_stmt 0              # ldecod_src/intra4x4_pred_mbaff.c:366:61
	movq	13544(%rsi), %rax
	.loc	0 366 80                        # ldecod_src/intra4x4_pred_mbaff.c:366:80
	movslq	52(%rsp), %rdx
	.loc	0 366 50                        # ldecod_src/intra4x4_pred_mbaff.c:366:50
	movsbl	(%rax,%rdx), %eax
.Ltmp166:
.LBB0_62:                               # %cond.end.i185
	#DEBUG_VALUE: intra4x4_pred_mbaff:currMB <- [DW_OP_LLVM_entry_value 1] $rdi
	#DEBUG_VALUE: intra4x4_pred_mbaff:pl <- $r15d
	#DEBUG_VALUE: intra4x4_pred_mbaff:ioff <- $r14d
	#DEBUG_VALUE: intra4x4_pred_mbaff:joff <- [DW_OP_plus_uconst 8] [$rsp+0]
	#DEBUG_VALUE: intra4x4_pred_mbaff:img_block_x <- [DW_OP_LLVM_entry_value 1] $r8d
	#DEBUG_VALUE: intra4x4_pred_mbaff:img_block_y <- [DW_OP_LLVM_entry_value 1] $r9d
	#DEBUG_VALUE: intra4x4_pred_mbaff:p_Vid <- $rbx
	#DEBUG_VALUE: intra4x4_diag_down_left_pred_mbaff:pix_c <- [DW_OP_plus_uconst 32, DW_OP_deref] $rsp
	#DEBUG_VALUE: intra4x4_diag_down_left_pred_mbaff:pl <- $r15d
	#DEBUG_VALUE: intra4x4_diag_down_left_pred_mbaff:ioff <- $r14d
	#DEBUG_VALUE: intra4x4_diag_down_left_pred_mbaff:joff <- [DW_OP_plus_uconst 8, DW_OP_deref] $rsp
	#DEBUG_VALUE: intra4x4_diag_down_left_pred_mbaff:currSlice <- [DW_OP_plus_uconst 16, DW_OP_deref] $rsp
	#DEBUG_VALUE: intra4x4_diag_down_left_pred_mbaff:p_Vid <- $rbx
	#DEBUG_VALUE: intra4x4_diag_down_left_pred_mbaff:block_available_up <- $eax
	.loc	0 367 32 is_stmt 1              # ldecod_src/intra4x4_pred_mbaff.c:367:32
	testl	%ecx, %ecx
	je	.LBB0_145
.Ltmp167:
# %bb.63:                               # %cond.true18.i188
	#DEBUG_VALUE: intra4x4_pred_mbaff:currMB <- [DW_OP_LLVM_entry_value 1] $rdi
	#DEBUG_VALUE: intra4x4_pred_mbaff:pl <- $r15d
	#DEBUG_VALUE: intra4x4_pred_mbaff:ioff <- $r14d
	#DEBUG_VALUE: intra4x4_pred_mbaff:joff <- [DW_OP_plus_uconst 8] [$rsp+0]
	#DEBUG_VALUE: intra4x4_pred_mbaff:img_block_x <- [DW_OP_LLVM_entry_value 1] $r8d
	#DEBUG_VALUE: intra4x4_pred_mbaff:img_block_y <- [DW_OP_LLVM_entry_value 1] $r9d
	#DEBUG_VALUE: intra4x4_pred_mbaff:p_Vid <- $rbx
	#DEBUG_VALUE: intra4x4_diag_down_left_pred_mbaff:pix_c <- [DW_OP_plus_uconst 32, DW_OP_deref] $rsp
	#DEBUG_VALUE: intra4x4_diag_down_left_pred_mbaff:pl <- $r15d
	#DEBUG_VALUE: intra4x4_diag_down_left_pred_mbaff:ioff <- $r14d
	#DEBUG_VALUE: intra4x4_diag_down_left_pred_mbaff:joff <- [DW_OP_plus_uconst 8, DW_OP_deref] $rsp
	#DEBUG_VALUE: intra4x4_diag_down_left_pred_mbaff:currSlice <- [DW_OP_plus_uconst 16, DW_OP_deref] $rsp
	#DEBUG_VALUE: intra4x4_diag_down_left_pred_mbaff:p_Vid <- $rbx
	#DEBUG_VALUE: intra4x4_diag_down_left_pred_mbaff:block_available_up <- $eax
	.loc	0 367 61 is_stmt 0              # ldecod_src/intra4x4_pred_mbaff.c:367:61
	movq	13544(%rsi), %rcx
	.loc	0 367 80                        # ldecod_src/intra4x4_pred_mbaff.c:367:80
	movslq	36(%rsp), %rdx
	.loc	0 367 50                        # ldecod_src/intra4x4_pred_mbaff.c:367:50
	movsbl	(%rcx,%rdx), %ecx
.Ltmp168:
	#DEBUG_VALUE: intra4x4_diag_down_left_pred_mbaff:block_available_up <- $eax
	#DEBUG_VALUE: intra4x4_diag_down_left_pred_mbaff:block_available_up_right <- $ecx
	.loc	0 375 8 is_stmt 1               # ldecod_src/intra4x4_pred_mbaff.c:375:8
	testl	%eax, %eax
.Ltmp169:
	.loc	0 375 7 is_stmt 0               # ldecod_src/intra4x4_pred_mbaff.c:375:7
	je	.LBB0_146
.Ltmp170:
.LBB0_65:                               # %if.else31.i
	#DEBUG_VALUE: intra4x4_pred_mbaff:currMB <- [DW_OP_LLVM_entry_value 1] $rdi
	#DEBUG_VALUE: intra4x4_pred_mbaff:pl <- $r15d
	#DEBUG_VALUE: intra4x4_pred_mbaff:ioff <- $r14d
	#DEBUG_VALUE: intra4x4_pred_mbaff:joff <- [DW_OP_plus_uconst 8] [$rsp+0]
	#DEBUG_VALUE: intra4x4_pred_mbaff:img_block_x <- [DW_OP_LLVM_entry_value 1] $r8d
	#DEBUG_VALUE: intra4x4_pred_mbaff:img_block_y <- [DW_OP_LLVM_entry_value 1] $r9d
	#DEBUG_VALUE: intra4x4_pred_mbaff:p_Vid <- $rbx
	#DEBUG_VALUE: intra4x4_diag_down_left_pred_mbaff:pix_c <- [DW_OP_plus_uconst 32, DW_OP_deref] $rsp
	#DEBUG_VALUE: intra4x4_diag_down_left_pred_mbaff:pl <- $r15d
	#DEBUG_VALUE: intra4x4_diag_down_left_pred_mbaff:ioff <- $r14d
	#DEBUG_VALUE: intra4x4_diag_down_left_pred_mbaff:joff <- [DW_OP_plus_uconst 8, DW_OP_deref] $rsp
	#DEBUG_VALUE: intra4x4_diag_down_left_pred_mbaff:currSlice <- [DW_OP_plus_uconst 16, DW_OP_deref] $rsp
	#DEBUG_VALUE: intra4x4_diag_down_left_pred_mbaff:p_Vid <- $rbx
	#DEBUG_VALUE: intra4x4_diag_down_left_pred_mbaff:block_available_up <- $eax
	#DEBUG_VALUE: intra4x4_diag_down_left_pred_mbaff:block_available_up_right <- $ecx
	.loc	0 379 0 is_stmt 1               # ldecod_src/intra4x4_pred_mbaff.c:379:0
	movq	13520(%rsi), %rax
.Ltmp171:
	.loc	0 379 21 is_stmt 0              # ldecod_src/intra4x4_pred_mbaff.c:379:21
	testl	%r15d, %r15d
	je	.LBB0_147
.Ltmp172:
# %bb.66:                               # %cond.true33.i
	#DEBUG_VALUE: intra4x4_pred_mbaff:currMB <- [DW_OP_LLVM_entry_value 1] $rdi
	#DEBUG_VALUE: intra4x4_pred_mbaff:pl <- $r15d
	#DEBUG_VALUE: intra4x4_pred_mbaff:ioff <- $r14d
	#DEBUG_VALUE: intra4x4_pred_mbaff:joff <- [DW_OP_plus_uconst 8] [$rsp+0]
	#DEBUG_VALUE: intra4x4_pred_mbaff:img_block_x <- [DW_OP_LLVM_entry_value 1] $r8d
	#DEBUG_VALUE: intra4x4_pred_mbaff:img_block_y <- [DW_OP_LLVM_entry_value 1] $r9d
	#DEBUG_VALUE: intra4x4_pred_mbaff:p_Vid <- $rbx
	#DEBUG_VALUE: intra4x4_diag_down_left_pred_mbaff:pix_c <- [DW_OP_plus_uconst 32, DW_OP_deref] $rsp
	#DEBUG_VALUE: intra4x4_diag_down_left_pred_mbaff:pl <- $r15d
	#DEBUG_VALUE: intra4x4_diag_down_left_pred_mbaff:ioff <- $r14d
	#DEBUG_VALUE: intra4x4_diag_down_left_pred_mbaff:joff <- [DW_OP_plus_uconst 8, DW_OP_deref] $rsp
	#DEBUG_VALUE: intra4x4_diag_down_left_pred_mbaff:currSlice <- [DW_OP_plus_uconst 16, DW_OP_deref] $rsp
	#DEBUG_VALUE: intra4x4_diag_down_left_pred_mbaff:p_Vid <- $rbx
	#DEBUG_VALUE: intra4x4_diag_down_left_pred_mbaff:block_available_up_right <- $ecx
	.loc	0 379 61                        # ldecod_src/intra4x4_pred_mbaff.c:379:61
	leal	-1(%r15), %edx
	.loc	0 379 28                        # ldecod_src/intra4x4_pred_mbaff.c:379:28
	shlq	$3, %rdx
	addq	136(%rax), %rdx
	.loc	0 379 21                        # ldecod_src/intra4x4_pred_mbaff.c:379:21
	jmp	.LBB0_148
.Ltmp173:
.LBB0_64:
	#DEBUG_VALUE: intra4x4_pred_mbaff:currMB <- [DW_OP_LLVM_entry_value 1] $rdi
	#DEBUG_VALUE: intra4x4_pred_mbaff:pl <- $r15d
	#DEBUG_VALUE: intra4x4_pred_mbaff:ioff <- $r14d
	#DEBUG_VALUE: intra4x4_pred_mbaff:joff <- [DW_OP_plus_uconst 8] [$rsp+0]
	#DEBUG_VALUE: intra4x4_pred_mbaff:img_block_x <- [DW_OP_LLVM_entry_value 1] $r8d
	#DEBUG_VALUE: intra4x4_pred_mbaff:img_block_y <- [DW_OP_LLVM_entry_value 1] $r9d
	#DEBUG_VALUE: intra4x4_pred_mbaff:p_Vid <- $rbx
	#DEBUG_VALUE: intra4x4_diag_down_left_pred_mbaff:pix_c <- [DW_OP_plus_uconst 32, DW_OP_deref] $rsp
	#DEBUG_VALUE: intra4x4_diag_down_left_pred_mbaff:pl <- $r15d
	#DEBUG_VALUE: intra4x4_diag_down_left_pred_mbaff:ioff <- $r14d
	#DEBUG_VALUE: intra4x4_diag_down_left_pred_mbaff:joff <- [DW_OP_plus_uconst 8, DW_OP_deref] $rsp
	#DEBUG_VALUE: intra4x4_diag_down_left_pred_mbaff:currSlice <- [DW_OP_plus_uconst 16, DW_OP_deref] $rsp
	#DEBUG_VALUE: intra4x4_diag_down_left_pred_mbaff:p_Vid <- $rbx
	.loc	0 0 21                          # ldecod_src/intra4x4_pred_mbaff.c:0:21
	movq	16(%rsp), %rsi                  # 8-byte Reload
.Ltmp174:
	#DEBUG_VALUE: intra4x4_diag_down_left_pred_mbaff:block_available_up <- $eax
	#DEBUG_VALUE: intra4x4_diag_down_left_pred_mbaff:block_available_up_right <- $ecx
	.loc	0 375 8 is_stmt 1               # ldecod_src/intra4x4_pred_mbaff.c:375:8
	testl	%eax, %eax
.Ltmp175:
	.loc	0 375 7 is_stmt 0               # ldecod_src/intra4x4_pred_mbaff.c:375:7
	jne	.LBB0_65
.Ltmp176:
.LBB0_146:                              # %if.then30.i
	#DEBUG_VALUE: intra4x4_pred_mbaff:currMB <- [DW_OP_LLVM_entry_value 1] $rdi
	#DEBUG_VALUE: intra4x4_pred_mbaff:pl <- $r15d
	#DEBUG_VALUE: intra4x4_pred_mbaff:ioff <- $r14d
	#DEBUG_VALUE: intra4x4_pred_mbaff:joff <- [DW_OP_plus_uconst 8] [$rsp+0]
	#DEBUG_VALUE: intra4x4_pred_mbaff:img_block_x <- [DW_OP_LLVM_entry_value 1] $r8d
	#DEBUG_VALUE: intra4x4_pred_mbaff:img_block_y <- [DW_OP_LLVM_entry_value 1] $r9d
	#DEBUG_VALUE: intra4x4_pred_mbaff:p_Vid <- $rbx
	#DEBUG_VALUE: intra4x4_diag_down_left_pred_mbaff:pix_c <- [DW_OP_plus_uconst 32, DW_OP_deref] $rsp
	#DEBUG_VALUE: intra4x4_diag_down_left_pred_mbaff:pl <- $r15d
	#DEBUG_VALUE: intra4x4_diag_down_left_pred_mbaff:ioff <- $r14d
	#DEBUG_VALUE: intra4x4_diag_down_left_pred_mbaff:joff <- [DW_OP_plus_uconst 8, DW_OP_deref] $rsp
	#DEBUG_VALUE: intra4x4_diag_down_left_pred_mbaff:currSlice <- [DW_OP_plus_uconst 16, DW_OP_deref] $rsp
	#DEBUG_VALUE: intra4x4_diag_down_left_pred_mbaff:p_Vid <- $rbx
	#DEBUG_VALUE: intra4x4_diag_down_left_pred_mbaff:block_available_up <- $eax
	#DEBUG_VALUE: intra4x4_diag_down_left_pred_mbaff:block_available_up_right <- $ecx
	.loc	0 376 110 is_stmt 1             # ldecod_src/intra4x4_pred_mbaff.c:376:110
	movl	108(%rsi), %esi
	.loc	0 376 5 is_stmt 0               # ldecod_src/intra4x4_pred_mbaff.c:376:5
	movl	$.L.str.4, %edi
	jmp	.LBB0_166
.Ltmp177:
.LBB0_67:
	#DEBUG_VALUE: intra4x4_pred_mbaff:currMB <- $r13
	#DEBUG_VALUE: intra4x4_pred_mbaff:pl <- $r15d
	#DEBUG_VALUE: intra4x4_pred_mbaff:ioff <- [DW_OP_plus_uconst 24] [$rsp+0]
	#DEBUG_VALUE: intra4x4_pred_mbaff:joff <- [DW_OP_plus_uconst 8] [$rsp+0]
	#DEBUG_VALUE: intra4x4_pred_mbaff:img_block_x <- [DW_OP_LLVM_entry_value 1] $r8d
	#DEBUG_VALUE: intra4x4_pred_mbaff:img_block_y <- [DW_OP_LLVM_entry_value 1] $r9d
	#DEBUG_VALUE: intra4x4_pred_mbaff:p_Vid <- $rbx
	#DEBUG_VALUE: intra4x4_vert_left_pred_mbaff:pix_c <- [DW_OP_plus_uconst 32, DW_OP_deref] $rsp
	#DEBUG_VALUE: intra4x4_vert_left_pred_mbaff:currMB <- $r13
	#DEBUG_VALUE: intra4x4_vert_left_pred_mbaff:pl <- $r15d
	#DEBUG_VALUE: intra4x4_vert_left_pred_mbaff:ioff <- [DW_OP_plus_uconst 24, DW_OP_deref] $rsp
	#DEBUG_VALUE: intra4x4_vert_left_pred_mbaff:joff <- [DW_OP_plus_uconst 8, DW_OP_deref] $rsp
	#DEBUG_VALUE: intra4x4_vert_left_pred_mbaff:currSlice <- [DW_OP_plus_uconst 16, DW_OP_deref] $rsp
	#DEBUG_VALUE: intra4x4_vert_left_pred_mbaff:p_Vid <- $rbx
	.loc	0 0 5                           # ldecod_src/intra4x4_pred_mbaff.c:0:5
	movq	8(%rsp), %r13                   # 8-byte Reload
.Ltmp178:
	xorl	%ebp, %ebp
.Ltmp179:
.LBB0_68:                               # %land.end10.i380
	#DEBUG_VALUE: intra4x4_pred_mbaff:currMB <- [DW_OP_LLVM_entry_value 1] $rdi
	#DEBUG_VALUE: intra4x4_pred_mbaff:pl <- $r15d
	#DEBUG_VALUE: intra4x4_pred_mbaff:ioff <- [DW_OP_plus_uconst 24] [$rsp+0]
	#DEBUG_VALUE: intra4x4_pred_mbaff:joff <- [DW_OP_plus_uconst 8] [$rsp+0]
	#DEBUG_VALUE: intra4x4_pred_mbaff:img_block_x <- [DW_OP_LLVM_entry_value 1] $r8d
	#DEBUG_VALUE: intra4x4_pred_mbaff:img_block_y <- [DW_OP_LLVM_entry_value 1] $r9d
	#DEBUG_VALUE: intra4x4_pred_mbaff:p_Vid <- $rbx
	#DEBUG_VALUE: intra4x4_vert_left_pred_mbaff:pix_c <- [DW_OP_plus_uconst 32, DW_OP_deref] $rsp
	#DEBUG_VALUE: intra4x4_vert_left_pred_mbaff:pl <- $r15d
	#DEBUG_VALUE: intra4x4_vert_left_pred_mbaff:ioff <- [DW_OP_plus_uconst 24, DW_OP_deref] $rsp
	#DEBUG_VALUE: intra4x4_vert_left_pred_mbaff:joff <- [DW_OP_plus_uconst 8, DW_OP_deref] $rsp
	#DEBUG_VALUE: intra4x4_vert_left_pred_mbaff:currSlice <- [DW_OP_plus_uconst 16, DW_OP_deref] $rsp
	#DEBUG_VALUE: intra4x4_vert_left_pred_mbaff:p_Vid <- $rbx
	.loc	0 540 19 is_stmt 1              # ldecod_src/intra4x4_pred_mbaff.c:540:19
	movl	%ebp, 32(%rsp)
	#DEBUG_VALUE: intra4x4_vert_left_pred_mbaff:pix_c <- [DW_OP_plus_uconst 32, DW_OP_deref] $rsp
.Ltmp180:
	.loc	0 542 14                        # ldecod_src/intra4x4_pred_mbaff.c:542:14
	movq	8(%rbx), %rax
	.loc	0 542 7 is_stmt 0               # ldecod_src/intra4x4_pred_mbaff.c:542:7
	cmpl	$0, 2204(%rax)
	.loc	0 0 0                           # ldecod_src/intra4x4_pred_mbaff.c:0:0
	movl	48(%rsp), %eax
.Ltmp181:
	.loc	0 542 7                         # ldecod_src/intra4x4_pred_mbaff.c:542:7
	je	.LBB0_73
.Ltmp182:
# %bb.69:                               # %if.then.i385
	#DEBUG_VALUE: intra4x4_pred_mbaff:currMB <- [DW_OP_LLVM_entry_value 1] $rdi
	#DEBUG_VALUE: intra4x4_pred_mbaff:pl <- $r15d
	#DEBUG_VALUE: intra4x4_pred_mbaff:ioff <- [DW_OP_plus_uconst 24] [$rsp+0]
	#DEBUG_VALUE: intra4x4_pred_mbaff:joff <- [DW_OP_plus_uconst 8] [$rsp+0]
	#DEBUG_VALUE: intra4x4_pred_mbaff:img_block_x <- [DW_OP_LLVM_entry_value 1] $r8d
	#DEBUG_VALUE: intra4x4_pred_mbaff:img_block_y <- [DW_OP_LLVM_entry_value 1] $r9d
	#DEBUG_VALUE: intra4x4_pred_mbaff:p_Vid <- $rbx
	#DEBUG_VALUE: intra4x4_vert_left_pred_mbaff:pix_c <- [DW_OP_plus_uconst 32, DW_OP_deref] $rsp
	#DEBUG_VALUE: intra4x4_vert_left_pred_mbaff:pl <- $r15d
	#DEBUG_VALUE: intra4x4_vert_left_pred_mbaff:ioff <- [DW_OP_plus_uconst 24, DW_OP_deref] $rsp
	#DEBUG_VALUE: intra4x4_vert_left_pred_mbaff:joff <- [DW_OP_plus_uconst 8, DW_OP_deref] $rsp
	#DEBUG_VALUE: intra4x4_vert_left_pred_mbaff:currSlice <- [DW_OP_plus_uconst 16, DW_OP_deref] $rsp
	#DEBUG_VALUE: intra4x4_vert_left_pred_mbaff:p_Vid <- $rbx
	.loc	0 544 32 is_stmt 1              # ldecod_src/intra4x4_pred_mbaff.c:544:32
	testl	%eax, %eax
	movl	$0, %eax
	movq	16(%rsp), %rbx                  # 8-byte Reload
.Ltmp183:
	je	.LBB0_71
.Ltmp184:
# %bb.70:                               # %cond.true.i387
	#DEBUG_VALUE: intra4x4_pred_mbaff:currMB <- [DW_OP_LLVM_entry_value 1] $rdi
	#DEBUG_VALUE: intra4x4_pred_mbaff:pl <- $r15d
	#DEBUG_VALUE: intra4x4_pred_mbaff:ioff <- [DW_OP_plus_uconst 24] [$rsp+0]
	#DEBUG_VALUE: intra4x4_pred_mbaff:joff <- [DW_OP_plus_uconst 8] [$rsp+0]
	#DEBUG_VALUE: intra4x4_pred_mbaff:img_block_x <- [DW_OP_LLVM_entry_value 1] $r8d
	#DEBUG_VALUE: intra4x4_pred_mbaff:img_block_y <- [DW_OP_LLVM_entry_value 1] $r9d
	#DEBUG_VALUE: intra4x4_vert_left_pred_mbaff:pix_c <- [DW_OP_plus_uconst 32, DW_OP_deref] $rsp
	#DEBUG_VALUE: intra4x4_vert_left_pred_mbaff:pl <- $r15d
	#DEBUG_VALUE: intra4x4_vert_left_pred_mbaff:ioff <- [DW_OP_plus_uconst 24, DW_OP_deref] $rsp
	#DEBUG_VALUE: intra4x4_vert_left_pred_mbaff:joff <- [DW_OP_plus_uconst 8, DW_OP_deref] $rsp
	#DEBUG_VALUE: intra4x4_vert_left_pred_mbaff:currSlice <- [DW_OP_plus_uconst 16, DW_OP_deref] $rsp
	.loc	0 544 61 is_stmt 0              # ldecod_src/intra4x4_pred_mbaff.c:544:61
	movq	13544(%rbx), %rax
	.loc	0 544 80                        # ldecod_src/intra4x4_pred_mbaff.c:544:80
	movslq	52(%rsp), %rcx
	.loc	0 544 50                        # ldecod_src/intra4x4_pred_mbaff.c:544:50
	movsbl	(%rax,%rcx), %eax
.Ltmp185:
.LBB0_71:                               # %cond.end.i393
	#DEBUG_VALUE: intra4x4_pred_mbaff:currMB <- [DW_OP_LLVM_entry_value 1] $rdi
	#DEBUG_VALUE: intra4x4_pred_mbaff:pl <- $r15d
	#DEBUG_VALUE: intra4x4_pred_mbaff:ioff <- [DW_OP_plus_uconst 24] [$rsp+0]
	#DEBUG_VALUE: intra4x4_pred_mbaff:joff <- [DW_OP_plus_uconst 8] [$rsp+0]
	#DEBUG_VALUE: intra4x4_pred_mbaff:img_block_x <- [DW_OP_LLVM_entry_value 1] $r8d
	#DEBUG_VALUE: intra4x4_pred_mbaff:img_block_y <- [DW_OP_LLVM_entry_value 1] $r9d
	#DEBUG_VALUE: intra4x4_vert_left_pred_mbaff:pix_c <- [DW_OP_plus_uconst 32, DW_OP_deref] $rsp
	#DEBUG_VALUE: intra4x4_vert_left_pred_mbaff:pl <- $r15d
	#DEBUG_VALUE: intra4x4_vert_left_pred_mbaff:ioff <- [DW_OP_plus_uconst 24, DW_OP_deref] $rsp
	#DEBUG_VALUE: intra4x4_vert_left_pred_mbaff:joff <- [DW_OP_plus_uconst 8, DW_OP_deref] $rsp
	#DEBUG_VALUE: intra4x4_vert_left_pred_mbaff:currSlice <- [DW_OP_plus_uconst 16, DW_OP_deref] $rsp
	#DEBUG_VALUE: intra4x4_vert_left_pred_mbaff:block_available_up <- $eax
	.loc	0 545 32 is_stmt 1              # ldecod_src/intra4x4_pred_mbaff.c:545:32
	testl	%ebp, %ebp
	je	.LBB0_151
.Ltmp186:
# %bb.72:                               # %cond.true18.i396
	#DEBUG_VALUE: intra4x4_pred_mbaff:currMB <- [DW_OP_LLVM_entry_value 1] $rdi
	#DEBUG_VALUE: intra4x4_pred_mbaff:pl <- $r15d
	#DEBUG_VALUE: intra4x4_pred_mbaff:ioff <- [DW_OP_plus_uconst 24] [$rsp+0]
	#DEBUG_VALUE: intra4x4_pred_mbaff:joff <- [DW_OP_plus_uconst 8] [$rsp+0]
	#DEBUG_VALUE: intra4x4_pred_mbaff:img_block_x <- [DW_OP_LLVM_entry_value 1] $r8d
	#DEBUG_VALUE: intra4x4_pred_mbaff:img_block_y <- [DW_OP_LLVM_entry_value 1] $r9d
	#DEBUG_VALUE: intra4x4_vert_left_pred_mbaff:pix_c <- [DW_OP_plus_uconst 32, DW_OP_deref] $rsp
	#DEBUG_VALUE: intra4x4_vert_left_pred_mbaff:pl <- $r15d
	#DEBUG_VALUE: intra4x4_vert_left_pred_mbaff:ioff <- [DW_OP_plus_uconst 24, DW_OP_deref] $rsp
	#DEBUG_VALUE: intra4x4_vert_left_pred_mbaff:joff <- [DW_OP_plus_uconst 8, DW_OP_deref] $rsp
	#DEBUG_VALUE: intra4x4_vert_left_pred_mbaff:currSlice <- [DW_OP_plus_uconst 16, DW_OP_deref] $rsp
	#DEBUG_VALUE: intra4x4_vert_left_pred_mbaff:block_available_up <- $eax
	.loc	0 545 61 is_stmt 0              # ldecod_src/intra4x4_pred_mbaff.c:545:61
	movq	13544(%rbx), %rcx
	.loc	0 545 80                        # ldecod_src/intra4x4_pred_mbaff.c:545:80
	movslq	36(%rsp), %rdx
	.loc	0 545 50                        # ldecod_src/intra4x4_pred_mbaff.c:545:50
	movsbl	(%rcx,%rdx), %ebp
.Ltmp187:
	#DEBUG_VALUE: intra4x4_vert_left_pred_mbaff:block_available_up <- $eax
	#DEBUG_VALUE: intra4x4_vert_left_pred_mbaff:block_available_up_right <- $ebp
	.loc	0 554 8 is_stmt 1               # ldecod_src/intra4x4_pred_mbaff.c:554:8
	testl	%eax, %eax
.Ltmp188:
	.loc	0 554 7 is_stmt 0               # ldecod_src/intra4x4_pred_mbaff.c:554:7
	jne	.LBB0_75
.Ltmp189:
.LBB0_74:                               # %if.then30.i460
	#DEBUG_VALUE: intra4x4_pred_mbaff:currMB <- [DW_OP_LLVM_entry_value 1] $rdi
	#DEBUG_VALUE: intra4x4_pred_mbaff:pl <- $r15d
	#DEBUG_VALUE: intra4x4_pred_mbaff:ioff <- [DW_OP_plus_uconst 24] [$rsp+0]
	#DEBUG_VALUE: intra4x4_pred_mbaff:joff <- [DW_OP_plus_uconst 8] [$rsp+0]
	#DEBUG_VALUE: intra4x4_pred_mbaff:img_block_x <- [DW_OP_LLVM_entry_value 1] $r8d
	#DEBUG_VALUE: intra4x4_pred_mbaff:img_block_y <- [DW_OP_LLVM_entry_value 1] $r9d
	#DEBUG_VALUE: intra4x4_vert_left_pred_mbaff:pix_c <- [DW_OP_plus_uconst 32, DW_OP_deref] $rsp
	#DEBUG_VALUE: intra4x4_vert_left_pred_mbaff:pl <- $r15d
	#DEBUG_VALUE: intra4x4_vert_left_pred_mbaff:ioff <- [DW_OP_plus_uconst 24, DW_OP_deref] $rsp
	#DEBUG_VALUE: intra4x4_vert_left_pred_mbaff:joff <- [DW_OP_plus_uconst 8, DW_OP_deref] $rsp
	#DEBUG_VALUE: intra4x4_vert_left_pred_mbaff:currSlice <- [DW_OP_plus_uconst 16, DW_OP_deref] $rsp
	#DEBUG_VALUE: intra4x4_vert_left_pred_mbaff:block_available_up <- $eax
	#DEBUG_VALUE: intra4x4_vert_left_pred_mbaff:block_available_up_right <- $ebp
	.loc	0 555 105 is_stmt 1             # ldecod_src/intra4x4_pred_mbaff.c:555:105
	movl	108(%rbx), %esi
	.loc	0 555 5 is_stmt 0               # ldecod_src/intra4x4_pred_mbaff.c:555:5
	movl	$.L.str.6, %edi
	xorl	%eax, %eax
.Ltmp190:
	callq	printf@PLT
.Ltmp191:
.LBB0_75:                               # %if.end31.i
	#DEBUG_VALUE: intra4x4_pred_mbaff:currMB <- [DW_OP_LLVM_entry_value 1] $rdi
	#DEBUG_VALUE: intra4x4_pred_mbaff:pl <- $r15d
	#DEBUG_VALUE: intra4x4_pred_mbaff:ioff <- [DW_OP_plus_uconst 24] [$rsp+0]
	#DEBUG_VALUE: intra4x4_pred_mbaff:joff <- [DW_OP_plus_uconst 8] [$rsp+0]
	#DEBUG_VALUE: intra4x4_pred_mbaff:img_block_x <- [DW_OP_LLVM_entry_value 1] $r8d
	#DEBUG_VALUE: intra4x4_pred_mbaff:img_block_y <- [DW_OP_LLVM_entry_value 1] $r9d
	#DEBUG_VALUE: intra4x4_vert_left_pred_mbaff:pix_c <- [DW_OP_plus_uconst 32, DW_OP_deref] $rsp
	#DEBUG_VALUE: intra4x4_vert_left_pred_mbaff:pl <- $r15d
	#DEBUG_VALUE: intra4x4_vert_left_pred_mbaff:ioff <- [DW_OP_plus_uconst 24, DW_OP_deref] $rsp
	#DEBUG_VALUE: intra4x4_vert_left_pred_mbaff:joff <- [DW_OP_plus_uconst 8, DW_OP_deref] $rsp
	#DEBUG_VALUE: intra4x4_vert_left_pred_mbaff:currSlice <- [DW_OP_plus_uconst 16, DW_OP_deref] $rsp
	#DEBUG_VALUE: intra4x4_vert_left_pred_mbaff:block_available_up_right <- $ebp
	.loc	0 558 0 is_stmt 1               # ldecod_src/intra4x4_pred_mbaff.c:558:0
	movq	13520(%rbx), %rax
	.loc	0 558 21 is_stmt 0              # ldecod_src/intra4x4_pred_mbaff.c:558:21
	testl	%r15d, %r15d
	je	.LBB0_77
.Ltmp192:
# %bb.76:                               # %cond.true33.i408
	#DEBUG_VALUE: intra4x4_pred_mbaff:currMB <- [DW_OP_LLVM_entry_value 1] $rdi
	#DEBUG_VALUE: intra4x4_pred_mbaff:pl <- $r15d
	#DEBUG_VALUE: intra4x4_pred_mbaff:ioff <- [DW_OP_plus_uconst 24] [$rsp+0]
	#DEBUG_VALUE: intra4x4_pred_mbaff:joff <- [DW_OP_plus_uconst 8] [$rsp+0]
	#DEBUG_VALUE: intra4x4_pred_mbaff:img_block_x <- [DW_OP_LLVM_entry_value 1] $r8d
	#DEBUG_VALUE: intra4x4_pred_mbaff:img_block_y <- [DW_OP_LLVM_entry_value 1] $r9d
	#DEBUG_VALUE: intra4x4_vert_left_pred_mbaff:pix_c <- [DW_OP_plus_uconst 32, DW_OP_deref] $rsp
	#DEBUG_VALUE: intra4x4_vert_left_pred_mbaff:pl <- $r15d
	#DEBUG_VALUE: intra4x4_vert_left_pred_mbaff:ioff <- [DW_OP_plus_uconst 24, DW_OP_deref] $rsp
	#DEBUG_VALUE: intra4x4_vert_left_pred_mbaff:joff <- [DW_OP_plus_uconst 8, DW_OP_deref] $rsp
	#DEBUG_VALUE: intra4x4_vert_left_pred_mbaff:currSlice <- [DW_OP_plus_uconst 16, DW_OP_deref] $rsp
	#DEBUG_VALUE: intra4x4_vert_left_pred_mbaff:block_available_up_right <- $ebp
	.loc	0 558 61                        # ldecod_src/intra4x4_pred_mbaff.c:558:61
	leal	-1(%r15), %ecx
	.loc	0 558 28                        # ldecod_src/intra4x4_pred_mbaff.c:558:28
	shlq	$3, %rcx
	addq	136(%rax), %rcx
	.loc	0 558 21                        # ldecod_src/intra4x4_pred_mbaff.c:558:21
	jmp	.LBB0_78
.Ltmp193:
.LBB0_73:
	#DEBUG_VALUE: intra4x4_pred_mbaff:currMB <- [DW_OP_LLVM_entry_value 1] $rdi
	#DEBUG_VALUE: intra4x4_pred_mbaff:pl <- $r15d
	#DEBUG_VALUE: intra4x4_pred_mbaff:ioff <- [DW_OP_plus_uconst 24] [$rsp+0]
	#DEBUG_VALUE: intra4x4_pred_mbaff:joff <- [DW_OP_plus_uconst 8] [$rsp+0]
	#DEBUG_VALUE: intra4x4_pred_mbaff:img_block_x <- [DW_OP_LLVM_entry_value 1] $r8d
	#DEBUG_VALUE: intra4x4_pred_mbaff:img_block_y <- [DW_OP_LLVM_entry_value 1] $r9d
	#DEBUG_VALUE: intra4x4_pred_mbaff:p_Vid <- $rbx
	#DEBUG_VALUE: intra4x4_vert_left_pred_mbaff:pix_c <- [DW_OP_plus_uconst 32, DW_OP_deref] $rsp
	#DEBUG_VALUE: intra4x4_vert_left_pred_mbaff:pl <- $r15d
	#DEBUG_VALUE: intra4x4_vert_left_pred_mbaff:ioff <- [DW_OP_plus_uconst 24, DW_OP_deref] $rsp
	#DEBUG_VALUE: intra4x4_vert_left_pred_mbaff:joff <- [DW_OP_plus_uconst 8, DW_OP_deref] $rsp
	#DEBUG_VALUE: intra4x4_vert_left_pred_mbaff:currSlice <- [DW_OP_plus_uconst 16, DW_OP_deref] $rsp
	#DEBUG_VALUE: intra4x4_vert_left_pred_mbaff:p_Vid <- $rbx
	.loc	0 0 21                          # ldecod_src/intra4x4_pred_mbaff.c:0:21
	movq	16(%rsp), %rbx                  # 8-byte Reload
.Ltmp194:
	#DEBUG_VALUE: intra4x4_vert_left_pred_mbaff:block_available_up <- $eax
	#DEBUG_VALUE: intra4x4_vert_left_pred_mbaff:block_available_up_right <- $ebp
	.loc	0 554 8 is_stmt 1               # ldecod_src/intra4x4_pred_mbaff.c:554:8
	testl	%eax, %eax
.Ltmp195:
	.loc	0 554 7 is_stmt 0               # ldecod_src/intra4x4_pred_mbaff.c:554:7
	jne	.LBB0_75
	jmp	.LBB0_74
.Ltmp196:
.LBB0_77:                               # %cond.false37.i458
	#DEBUG_VALUE: intra4x4_pred_mbaff:currMB <- [DW_OP_LLVM_entry_value 1] $rdi
	#DEBUG_VALUE: intra4x4_pred_mbaff:pl <- $r15d
	#DEBUG_VALUE: intra4x4_pred_mbaff:ioff <- [DW_OP_plus_uconst 24] [$rsp+0]
	#DEBUG_VALUE: intra4x4_pred_mbaff:joff <- [DW_OP_plus_uconst 8] [$rsp+0]
	#DEBUG_VALUE: intra4x4_pred_mbaff:img_block_x <- [DW_OP_LLVM_entry_value 1] $r8d
	#DEBUG_VALUE: intra4x4_pred_mbaff:img_block_y <- [DW_OP_LLVM_entry_value 1] $r9d
	#DEBUG_VALUE: intra4x4_vert_left_pred_mbaff:pix_c <- [DW_OP_plus_uconst 32, DW_OP_deref] $rsp
	#DEBUG_VALUE: intra4x4_vert_left_pred_mbaff:pl <- $r15d
	#DEBUG_VALUE: intra4x4_vert_left_pred_mbaff:ioff <- [DW_OP_plus_uconst 24, DW_OP_deref] $rsp
	#DEBUG_VALUE: intra4x4_vert_left_pred_mbaff:joff <- [DW_OP_plus_uconst 8, DW_OP_deref] $rsp
	#DEBUG_VALUE: intra4x4_vert_left_pred_mbaff:currSlice <- [DW_OP_plus_uconst 16, DW_OP_deref] $rsp
	#DEBUG_VALUE: intra4x4_vert_left_pred_mbaff:block_available_up_right <- $ebp
	.loc	0 558 92 is_stmt 1              # ldecod_src/intra4x4_pred_mbaff.c:558:92
	subq	$-128, %rax
	movq	%rax, %rcx
.Ltmp197:
.LBB0_78:                               # %cond.end40.i413
	#DEBUG_VALUE: intra4x4_pred_mbaff:currMB <- [DW_OP_LLVM_entry_value 1] $rdi
	#DEBUG_VALUE: intra4x4_pred_mbaff:pl <- $r15d
	#DEBUG_VALUE: intra4x4_pred_mbaff:ioff <- [DW_OP_plus_uconst 24] [$rsp+0]
	#DEBUG_VALUE: intra4x4_pred_mbaff:joff <- [DW_OP_plus_uconst 8] [$rsp+0]
	#DEBUG_VALUE: intra4x4_pred_mbaff:img_block_x <- [DW_OP_LLVM_entry_value 1] $r8d
	#DEBUG_VALUE: intra4x4_pred_mbaff:img_block_y <- [DW_OP_LLVM_entry_value 1] $r9d
	#DEBUG_VALUE: intra4x4_vert_left_pred_mbaff:pix_c <- [DW_OP_plus_uconst 32, DW_OP_deref] $rsp
	#DEBUG_VALUE: intra4x4_vert_left_pred_mbaff:pl <- $r15d
	#DEBUG_VALUE: intra4x4_vert_left_pred_mbaff:ioff <- [DW_OP_plus_uconst 24, DW_OP_deref] $rsp
	#DEBUG_VALUE: intra4x4_vert_left_pred_mbaff:joff <- [DW_OP_plus_uconst 8, DW_OP_deref] $rsp
	#DEBUG_VALUE: intra4x4_vert_left_pred_mbaff:currSlice <- [DW_OP_plus_uconst 16, DW_OP_deref] $rsp
	#DEBUG_VALUE: intra4x4_vert_left_pred_mbaff:block_available_up_right <- $ebp
	.loc	0 558 21 is_stmt 0              # ldecod_src/intra4x4_pred_mbaff.c:558:21
	movq	(%rcx), %rdx
.Ltmp198:
	#DEBUG_VALUE: imgY <- $rdx
	.loc	0 559 35 is_stmt 1              # ldecod_src/intra4x4_pred_mbaff.c:559:35
	movq	1248(%rbx), %rax
	.loc	0 559 24 is_stmt 0              # ldecod_src/intra4x4_pred_mbaff.c:559:24
	movl	%r15d, %ecx
	movq	(%rax,%rcx,8), %rax
.Ltmp199:
	#DEBUG_VALUE: mb_pred <- $rax
	.loc	0 560 36 is_stmt 1              # ldecod_src/intra4x4_pred_mbaff.c:560:36
	movswq	62(%rsp), %rcx
	.loc	0 560 25 is_stmt 0              # ldecod_src/intra4x4_pred_mbaff.c:560:25
	movq	(%rdx,%rcx,8), %rcx
	.loc	0 560 49                        # ldecod_src/intra4x4_pred_mbaff.c:560:49
	movswq	60(%rsp), %rdi
.Ltmp200:
	#DEBUG_VALUE: pred_pel <- undef
	.loc	0 563 18 is_stmt 1              # ldecod_src/intra4x4_pred_mbaff.c:563:18
	movzwl	(%rcx,%rdi,2), %ebx
.Ltmp201:
	#DEBUG_VALUE: p_a <- undef
	.loc	0 564 18                        # ldecod_src/intra4x4_pred_mbaff.c:564:18
	movzwl	2(%rcx,%rdi,2), %r10d
.Ltmp202:
	#DEBUG_VALUE: p_b <- undef
	.loc	0 565 18                        # ldecod_src/intra4x4_pred_mbaff.c:565:18
	movzwl	4(%rcx,%rdi,2), %esi
.Ltmp203:
	#DEBUG_VALUE: p_c <- undef
	.loc	0 566 18                        # ldecod_src/intra4x4_pred_mbaff.c:566:18
	movzwl	6(%rcx,%rdi,2), %r11d
	.loc	0 583 37                        # ldecod_src/intra4x4_pred_mbaff.c:583:37
	movzwl	%r11w, %ecx
.Ltmp204:
	#DEBUG_VALUE: p_d <- $r11w
	.loc	0 0 37 is_stmt 0                # ldecod_src/intra4x4_pred_mbaff.c:0:37
	movl	%r11d, %r15d
.Ltmp205:
	#DEBUG_VALUE: intra4x4_pred_mbaff:pl <- [DW_OP_LLVM_entry_value 1] $esi
	movl	%r11d, %edi
.Ltmp206:
	.loc	0 569 9 is_stmt 1               # ldecod_src/intra4x4_pred_mbaff.c:569:9
	testl	%ebp, %ebp
.Ltmp207:
	.loc	0 569 9 is_stmt 0               # ldecod_src/intra4x4_pred_mbaff.c:569:9
	je	.LBB0_80
.Ltmp208:
# %bb.79:                               # %if.then52.i429
	#DEBUG_VALUE: intra4x4_pred_mbaff:currMB <- [DW_OP_LLVM_entry_value 1] $rdi
	#DEBUG_VALUE: intra4x4_pred_mbaff:pl <- [DW_OP_LLVM_entry_value 1] $esi
	#DEBUG_VALUE: intra4x4_pred_mbaff:ioff <- [DW_OP_plus_uconst 24] [$rsp+0]
	#DEBUG_VALUE: intra4x4_pred_mbaff:joff <- [DW_OP_plus_uconst 8] [$rsp+0]
	#DEBUG_VALUE: intra4x4_pred_mbaff:img_block_x <- [DW_OP_LLVM_entry_value 1] $r8d
	#DEBUG_VALUE: intra4x4_pred_mbaff:img_block_y <- [DW_OP_LLVM_entry_value 1] $r9d
	#DEBUG_VALUE: intra4x4_vert_left_pred_mbaff:pix_c <- [DW_OP_plus_uconst 32, DW_OP_deref] $rsp
	#DEBUG_VALUE: intra4x4_vert_left_pred_mbaff:ioff <- [DW_OP_plus_uconst 24, DW_OP_deref] $rsp
	#DEBUG_VALUE: intra4x4_vert_left_pred_mbaff:joff <- [DW_OP_plus_uconst 8, DW_OP_deref] $rsp
	#DEBUG_VALUE: intra4x4_vert_left_pred_mbaff:currSlice <- [DW_OP_plus_uconst 16, DW_OP_deref] $rsp
	#DEBUG_VALUE: intra4x4_vert_left_pred_mbaff:block_available_up_right <- $ebp
	#DEBUG_VALUE: imgY <- $rdx
	#DEBUG_VALUE: mb_pred <- $rax
	#DEBUG_VALUE: p_d <- $r15w
	.loc	0 571 38 is_stmt 1              # ldecod_src/intra4x4_pred_mbaff.c:571:38
	movswq	46(%rsp), %rdi
	.loc	0 571 27 is_stmt 0              # ldecod_src/intra4x4_pred_mbaff.c:571:27
	movq	(%rdx,%rdi,8), %rdx
.Ltmp209:
	.loc	0 571 51                        # ldecod_src/intra4x4_pred_mbaff.c:571:51
	movswq	44(%rsp), %rdi
.Ltmp210:
	#DEBUG_VALUE: pred_pel <- undef
	.loc	0 572 13 is_stmt 1              # ldecod_src/intra4x4_pred_mbaff.c:572:13
	movzwl	(%rdx,%rdi,2), %r11d
.Ltmp211:
	#DEBUG_VALUE: p_e <- $r11w
	.loc	0 573 13                        # ldecod_src/intra4x4_pred_mbaff.c:573:13
	movzwl	2(%rdx,%rdi,2), %r15d
.Ltmp212:
	#DEBUG_VALUE: p_f <- $r15w
	.loc	0 574 13                        # ldecod_src/intra4x4_pred_mbaff.c:574:13
	movzwl	4(%rdx,%rdi,2), %edi
.Ltmp213:
	#DEBUG_VALUE: p_g <- $di
.LBB0_80:                               # %intra4x4_vert_left_pred_mbaff.exit
	#DEBUG_VALUE: intra4x4_pred_mbaff:currMB <- [DW_OP_LLVM_entry_value 1] $rdi
	#DEBUG_VALUE: intra4x4_pred_mbaff:pl <- [DW_OP_LLVM_entry_value 1] $esi
	#DEBUG_VALUE: intra4x4_pred_mbaff:ioff <- [DW_OP_plus_uconst 24] [$rsp+0]
	#DEBUG_VALUE: intra4x4_pred_mbaff:joff <- [DW_OP_plus_uconst 8] [$rsp+0]
	#DEBUG_VALUE: intra4x4_pred_mbaff:img_block_x <- [DW_OP_LLVM_entry_value 1] $r8d
	#DEBUG_VALUE: intra4x4_pred_mbaff:img_block_y <- [DW_OP_LLVM_entry_value 1] $r9d
	#DEBUG_VALUE: intra4x4_vert_left_pred_mbaff:pix_c <- [DW_OP_plus_uconst 32, DW_OP_deref] $rsp
	#DEBUG_VALUE: intra4x4_vert_left_pred_mbaff:ioff <- [DW_OP_plus_uconst 24, DW_OP_deref] $rsp
	#DEBUG_VALUE: intra4x4_vert_left_pred_mbaff:joff <- [DW_OP_plus_uconst 8, DW_OP_deref] $rsp
	#DEBUG_VALUE: intra4x4_vert_left_pred_mbaff:currSlice <- [DW_OP_plus_uconst 16, DW_OP_deref] $rsp
	#DEBUG_VALUE: intra4x4_vert_left_pred_mbaff:block_available_up_right <- $ebp
	#DEBUG_VALUE: mb_pred <- $rax
	#DEBUG_VALUE: p_g <- $di
	#DEBUG_VALUE: p_f <- $r15w
	#DEBUG_VALUE: p_e <- $r11w
	.loc	0 581 46                        # ldecod_src/intra4x4_pred_mbaff.c:581:46
	leal	(%r10,%rbx), %r9d
	incl	%r9d
	shrl	%r9d
.Ltmp214:
	#DEBUG_VALUE: PredPixel <- [DW_OP_LLVM_fragment 0 16] $r9w
	.loc	0 582 46                        # ldecod_src/intra4x4_pred_mbaff.c:582:46
	leal	(%r10,%rsi), %edx
	incl	%edx
	shrl	%edx
.Ltmp215:
	#DEBUG_VALUE: PredPixel <- [DW_OP_LLVM_fragment 16 16] $dx
	.loc	0 583 46                        # ldecod_src/intra4x4_pred_mbaff.c:583:46
	leal	(%rcx,%rsi), %r8d
	incl	%r8d
	shrl	%r8d
.Ltmp216:
	#DEBUG_VALUE: PredPixel <- [DW_OP_LLVM_fragment 32 16] $r8w
	.loc	0 584 37                        # ldecod_src/intra4x4_pred_mbaff.c:584:37
	movzwl	%r11w, %r14d
	.loc	0 584 46 is_stmt 0              # ldecod_src/intra4x4_pred_mbaff.c:584:46
	leal	(%rcx,%r14), %r11d
.Ltmp217:
	incl	%r11d
	shrl	%r11d
.Ltmp218:
	#DEBUG_VALUE: PredPixel <- [DW_OP_LLVM_fragment 48 16] $r11w
	.loc	0 585 37 is_stmt 1              # ldecod_src/intra4x4_pred_mbaff.c:585:37
	movzwl	%r15w, %r15d
.Ltmp219:
	.loc	0 585 46 is_stmt 0              # ldecod_src/intra4x4_pred_mbaff.c:585:46
	leal	(%r14,%r15), %ebp
.Ltmp220:
	incl	%ebp
	shrl	%ebp
.Ltmp221:
	#DEBUG_VALUE: PredPixel <- [DW_OP_LLVM_fragment 64 16] $bp
	.loc	0 586 43 is_stmt 1              # ldecod_src/intra4x4_pred_mbaff.c:586:43
	leal	(%rbx,%r10,2), %ebx
	.loc	0 586 49 is_stmt 0              # ldecod_src/intra4x4_pred_mbaff.c:586:49
	addl	%esi, %ebx
	addl	$2, %ebx
	.loc	0 586 54                        # ldecod_src/intra4x4_pred_mbaff.c:586:54
	shrl	$2, %ebx
.Ltmp222:
	#DEBUG_VALUE: PredPixel <- [DW_OP_LLVM_fragment 80 16] $bx
	.loc	0 587 43 is_stmt 1              # ldecod_src/intra4x4_pred_mbaff.c:587:43
	leal	(%r10,%rsi,2), %r10d
	.loc	0 587 49 is_stmt 0              # ldecod_src/intra4x4_pred_mbaff.c:587:49
	addl	%ecx, %r10d
	addl	$2, %r10d
	.loc	0 587 54                        # ldecod_src/intra4x4_pred_mbaff.c:587:54
	shrl	$2, %r10d
.Ltmp223:
	#DEBUG_VALUE: PredPixel <- [DW_OP_LLVM_fragment 96 16] $r10w
	.loc	0 588 43 is_stmt 1              # ldecod_src/intra4x4_pred_mbaff.c:588:43
	leal	(%rsi,%rcx,2), %esi
	addl	$2, %esi
	.loc	0 588 49 is_stmt 0              # ldecod_src/intra4x4_pred_mbaff.c:588:49
	addl	%r14d, %esi
	.loc	0 588 54                        # ldecod_src/intra4x4_pred_mbaff.c:588:54
	shrl	$2, %esi
.Ltmp224:
	#DEBUG_VALUE: PredPixel <- [DW_OP_LLVM_fragment 112 16] $si
	.loc	0 589 43 is_stmt 1              # ldecod_src/intra4x4_pred_mbaff.c:589:43
	leal	(%rcx,%r14,2), %ecx
	addl	$2, %ecx
	.loc	0 589 49 is_stmt 0              # ldecod_src/intra4x4_pred_mbaff.c:589:49
	addl	%r15d, %ecx
	.loc	0 589 54                        # ldecod_src/intra4x4_pred_mbaff.c:589:54
	shrl	$2, %ecx
.Ltmp225:
	#DEBUG_VALUE: PredPixel <- [DW_OP_LLVM_fragment 128 16] $cx
	.loc	0 590 45 is_stmt 1              # ldecod_src/intra4x4_pred_mbaff.c:590:45
	movzwl	%di, %edi
.Ltmp226:
	.loc	0 590 35 is_stmt 0              # ldecod_src/intra4x4_pred_mbaff.c:590:35
	leal	(%r14,%r15,2), %r14d
	.loc	0 590 49                        # ldecod_src/intra4x4_pred_mbaff.c:590:49
	addl	%r14d, %edi
	addl	$2, %edi
	.loc	0 590 54                        # ldecod_src/intra4x4_pred_mbaff.c:590:54
	shrl	$2, %edi
.Ltmp227:
	#DEBUG_VALUE: PredPixel <- [DW_OP_LLVM_fragment 144 16] $di
	#DEBUG_VALUE: intra4x4_vert_left_pred_mbaff:joff <- [DW_OP_plus_uconst 8, DW_OP_deref, DW_OP_plus_uconst 1, DW_OP_stack_value] $rsp
	.loc	0 592 13 is_stmt 1              # ldecod_src/intra4x4_pred_mbaff.c:592:13
	movslq	%r13d, %r14
	movq	(%rax,%r14,8), %r15
	movslq	24(%rsp), %r12                  # 4-byte Folded Reload
	.loc	0 592 5 is_stmt 0               # ldecod_src/intra4x4_pred_mbaff.c:592:5
	movw	%r9w, (%r15,%r12,2)
	movw	%dx, 2(%r15,%r12,2)
	movw	%r8w, 4(%r15,%r12,2)
	movw	%r11w, 6(%r15,%r12,2)
.Ltmp228:
	#DEBUG_VALUE: intra4x4_vert_left_pred_mbaff:joff <- [DW_OP_plus_uconst 8, DW_OP_deref, DW_OP_plus_uconst 2, DW_OP_stack_value] $rsp
	.loc	0 593 13 is_stmt 1              # ldecod_src/intra4x4_pred_mbaff.c:593:13
	movq	8(%rax,%r14,8), %r9
.Ltmp229:
	.loc	0 593 5 is_stmt 0               # ldecod_src/intra4x4_pred_mbaff.c:593:5
	movw	%bx, (%r9,%r12,2)
	movw	%r10w, 2(%r9,%r12,2)
	movw	%si, 4(%r9,%r12,2)
	movw	%cx, 6(%r9,%r12,2)
.Ltmp230:
	#DEBUG_VALUE: intra4x4_vert_left_pred_mbaff:joff <- [DW_OP_plus_uconst 8, DW_OP_deref, DW_OP_plus_uconst 3, DW_OP_stack_value] $rsp
	.loc	0 594 13 is_stmt 1              # ldecod_src/intra4x4_pred_mbaff.c:594:13
	movq	16(%rax,%r14,8), %r9
	.loc	0 594 5 is_stmt 0               # ldecod_src/intra4x4_pred_mbaff.c:594:5
	movw	%dx, (%r9,%r12,2)
	movw	%r8w, 2(%r9,%r12,2)
	movw	%r11w, 4(%r9,%r12,2)
	movw	%bp, 6(%r9,%r12,2)
	.loc	0 595 13 is_stmt 1              # ldecod_src/intra4x4_pred_mbaff.c:595:13
	movq	24(%rax,%r14,8), %rax
.Ltmp231:
	.loc	0 595 5 is_stmt 0               # ldecod_src/intra4x4_pred_mbaff.c:595:5
	movw	%r10w, (%rax,%r12,2)
	movw	%si, 2(%rax,%r12,2)
	movw	%cx, 4(%rax,%r12,2)
	movw	%di, 6(%rax,%r12,2)
	jmp	.LBB0_171
.Ltmp232:
.LBB0_81:                               # %cond.false.i117
	#DEBUG_VALUE: intra4x4_pred_mbaff:currMB <- $rdi
	#DEBUG_VALUE: intra4x4_pred_mbaff:pl <- $r15d
	#DEBUG_VALUE: intra4x4_pred_mbaff:ioff <- $r12d
	#DEBUG_VALUE: intra4x4_pred_mbaff:joff <- $r13d
	#DEBUG_VALUE: intra4x4_pred_mbaff:img_block_x <- $r8d
	#DEBUG_VALUE: intra4x4_pred_mbaff:img_block_y <- $r9d
	#DEBUG_VALUE: intra4x4_pred_mbaff:p_Vid <- $rbx
	#DEBUG_VALUE: intra4x4_pred_mbaff:predmode <- [DW_OP_LLVM_convert 64 7, DW_OP_LLVM_convert 8 7] $esi
	#DEBUG_VALUE: intra4x4_hor_pred_mbaff:pix_a <- [DW_OP_plus_uconst 48, DW_OP_deref] $rsp
	#DEBUG_VALUE: intra4x4_hor_pred_mbaff:currMB <- $rdi
	#DEBUG_VALUE: intra4x4_hor_pred_mbaff:pl <- $r15d
	#DEBUG_VALUE: intra4x4_hor_pred_mbaff:ioff <- $r12d
	#DEBUG_VALUE: intra4x4_hor_pred_mbaff:joff <- $r13d
	#DEBUG_VALUE: intra4x4_hor_pred_mbaff:p_Vid <- $rbx
	#DEBUG_VALUE: intra4x4_hor_pred_mbaff:currSlice <- $r14
	.loc	0 211 90 is_stmt 1              # ldecod_src/intra4x4_pred_mbaff.c:211:90
	subq	$-128, %rax
	movq	%rax, %rcx
.Ltmp233:
.LBB0_82:                               # %cond.end.i83
	#DEBUG_VALUE: intra4x4_pred_mbaff:currMB <- $rdi
	#DEBUG_VALUE: intra4x4_pred_mbaff:pl <- $r15d
	#DEBUG_VALUE: intra4x4_pred_mbaff:ioff <- $r12d
	#DEBUG_VALUE: intra4x4_pred_mbaff:joff <- $r13d
	#DEBUG_VALUE: intra4x4_pred_mbaff:img_block_x <- $r8d
	#DEBUG_VALUE: intra4x4_pred_mbaff:img_block_y <- $r9d
	#DEBUG_VALUE: intra4x4_pred_mbaff:p_Vid <- $rbx
	#DEBUG_VALUE: intra4x4_pred_mbaff:predmode <- [DW_OP_LLVM_convert 64 7, DW_OP_LLVM_convert 8 7] $esi
	#DEBUG_VALUE: intra4x4_hor_pred_mbaff:pix_a <- [DW_OP_plus_uconst 48, DW_OP_deref] $rsp
	#DEBUG_VALUE: intra4x4_hor_pred_mbaff:currMB <- $rdi
	#DEBUG_VALUE: intra4x4_hor_pred_mbaff:pl <- $r15d
	#DEBUG_VALUE: intra4x4_hor_pred_mbaff:ioff <- $r12d
	#DEBUG_VALUE: intra4x4_hor_pred_mbaff:joff <- $r13d
	#DEBUG_VALUE: intra4x4_hor_pred_mbaff:p_Vid <- $rbx
	#DEBUG_VALUE: intra4x4_hor_pred_mbaff:currSlice <- $r14
	.loc	0 211 19 is_stmt 0              # ldecod_src/intra4x4_pred_mbaff.c:211:19
	movq	(%rcx), %rax
.Ltmp234:
	#DEBUG_VALUE: intra4x4_hor_pred_mbaff:imgY <- $rax
	.loc	0 0 19                          # ldecod_src/intra4x4_pred_mbaff.c:0:19
	movq	%rax, 16(%rsp)                  # 8-byte Spill
.Ltmp235:
	#DEBUG_VALUE: intra4x4_hor_pred_mbaff:imgY <- [DW_OP_plus_uconst 16, DW_OP_deref] $rsp
	.loc	0 217 55 is_stmt 1              # ldecod_src/intra4x4_pred_mbaff.c:217:55
	movq	1248(%r14), %rax
	.loc	0 217 44 is_stmt 0              # ldecod_src/intra4x4_pred_mbaff.c:217:44
	movl	%r15d, %ecx
	movq	(%rax,%rcx,8), %rax
.Ltmp236:
	#DEBUG_VALUE: intra4x4_hor_pred_mbaff:mb_pred <- $rax
	#DEBUG_VALUE: intra4x4_hor_pred_mbaff:i <- 0
	.loc	0 0 44                          # ldecod_src/intra4x4_pred_mbaff.c:0:44
	movq	%rax, 120(%rsp)                 # 8-byte Spill
.Ltmp237:
	#DEBUG_VALUE: intra4x4_hor_pred_mbaff:mb_pred <- [DW_OP_plus_uconst 120, DW_OP_deref] $rsp
	movq	%r12, 24(%rsp)                  # 8-byte Spill
.Ltmp238:
	#DEBUG_VALUE: intra4x4_hor_pred_mbaff:ioff <- [DW_OP_plus_uconst 24, DW_OP_deref] $rsp
	#DEBUG_VALUE: intra4x4_pred_mbaff:ioff <- [DW_OP_plus_uconst 24] [$rsp+0]
	leal	-1(%r12), %ebp
	leaq	849124(%rbx), %r15
.Ltmp239:
	#DEBUG_VALUE: intra4x4_hor_pred_mbaff:pl <- $ecx
	#DEBUG_VALUE: intra4x4_pred_mbaff:pl <- $ecx
	#DEBUG_VALUE: intra4x4_hor_pred_mbaff:i <- 0
	leaq	48(%rsp), %r8
.Ltmp240:
	#DEBUG_VALUE: intra4x4_pred_mbaff:img_block_x <- [DW_OP_LLVM_entry_value 1] $r8d
	movq	%rdi, %r12
.Ltmp241:
	.loc	0 221 5 is_stmt 1               # ldecod_src/intra4x4_pred_mbaff.c:221:5
	movl	%ebp, %esi
.Ltmp242:
	movl	%r13d, %edx
	movq	%r15, %rcx
.Ltmp243:
	#DEBUG_VALUE: intra4x4_pred_mbaff:pl <- [DW_OP_LLVM_entry_value 1] $esi
	callq	*856744(%rbx)
.Ltmp244:
	#DEBUG_VALUE: intra4x4_pred_mbaff:img_block_y <- [DW_OP_LLVM_entry_value 1] $r9d
	#DEBUG_VALUE: intra4x4_hor_pred_mbaff:currMB <- $r12
	#DEBUG_VALUE: intra4x4_pred_mbaff:currMB <- $r12
	#DEBUG_VALUE: intra4x4_hor_pred_mbaff:i <- 1
	.loc	0 221 48 is_stmt 0              # ldecod_src/intra4x4_pred_mbaff.c:221:48
	leal	1(%r13), %edx
	.loc	0 221 79                        # ldecod_src/intra4x4_pred_mbaff.c:221:79
	leaq	64(%rsp), %r8
	.loc	0 221 5                         # ldecod_src/intra4x4_pred_mbaff.c:221:5
	movq	%r12, %rdi
	movl	%ebp, %esi
	movq	%r15, %rcx
	callq	*856744(%rbx)
.Ltmp245:
	#DEBUG_VALUE: intra4x4_hor_pred_mbaff:i <- 2
	.loc	0 221 48                        # ldecod_src/intra4x4_pred_mbaff.c:221:48
	leal	2(%r13), %edx
	.loc	0 221 79                        # ldecod_src/intra4x4_pred_mbaff.c:221:79
	leaq	80(%rsp), %r8
	.loc	0 221 5                         # ldecod_src/intra4x4_pred_mbaff.c:221:5
	movq	%r12, %rdi
	movl	%ebp, %esi
	movq	%r15, %rcx
	callq	*856744(%rbx)
.Ltmp246:
	#DEBUG_VALUE: intra4x4_hor_pred_mbaff:i <- 3
	.loc	0 0 5                           # ldecod_src/intra4x4_pred_mbaff.c:0:5
	movq	%r13, 8(%rsp)                   # 8-byte Spill
.Ltmp247:
	#DEBUG_VALUE: intra4x4_hor_pred_mbaff:joff <- [DW_OP_plus_uconst 8, DW_OP_deref] $rsp
	#DEBUG_VALUE: intra4x4_pred_mbaff:joff <- [DW_OP_plus_uconst 8] [$rsp+0]
	.loc	0 221 48                        # ldecod_src/intra4x4_pred_mbaff.c:221:48
	leal	3(%r13), %edx
	.loc	0 221 79                        # ldecod_src/intra4x4_pred_mbaff.c:221:79
	leaq	96(%rsp), %r8
	.loc	0 221 5                         # ldecod_src/intra4x4_pred_mbaff.c:221:5
	movq	%r12, %rdi
	movl	%ebp, %esi
	movq	%r15, %rcx
	callq	*856744(%rbx)
.Ltmp248:
	#DEBUG_VALUE: intra4x4_hor_pred_mbaff:i <- 4
	.loc	0 224 14 is_stmt 1              # ldecod_src/intra4x4_pred_mbaff.c:224:14
	movq	8(%rbx), %rax
	.loc	0 224 7 is_stmt 0               # ldecod_src/intra4x4_pred_mbaff.c:224:7
	cmpl	$0, 2204(%rax)
.Ltmp249:
	.loc	0 224 7                         # ldecod_src/intra4x4_pred_mbaff.c:224:7
	je	.LBB0_94
.Ltmp250:
# %bb.83:                               # %for.cond12.preheader.i
	#DEBUG_VALUE: intra4x4_pred_mbaff:currMB <- $r12
	#DEBUG_VALUE: intra4x4_pred_mbaff:pl <- [DW_OP_LLVM_entry_value 1] $esi
	#DEBUG_VALUE: intra4x4_pred_mbaff:ioff <- [DW_OP_plus_uconst 24] [$rsp+0]
	#DEBUG_VALUE: intra4x4_pred_mbaff:joff <- [DW_OP_plus_uconst 8] [$rsp+0]
	#DEBUG_VALUE: intra4x4_pred_mbaff:img_block_x <- [DW_OP_LLVM_entry_value 1] $r8d
	#DEBUG_VALUE: intra4x4_pred_mbaff:img_block_y <- [DW_OP_LLVM_entry_value 1] $r9d
	#DEBUG_VALUE: intra4x4_pred_mbaff:p_Vid <- $rbx
	#DEBUG_VALUE: intra4x4_hor_pred_mbaff:pix_a <- [DW_OP_plus_uconst 48, DW_OP_deref] $rsp
	#DEBUG_VALUE: intra4x4_hor_pred_mbaff:currMB <- $r12
	#DEBUG_VALUE: intra4x4_hor_pred_mbaff:ioff <- [DW_OP_plus_uconst 24, DW_OP_deref] $rsp
	#DEBUG_VALUE: intra4x4_hor_pred_mbaff:joff <- [DW_OP_plus_uconst 8, DW_OP_deref] $rsp
	#DEBUG_VALUE: intra4x4_hor_pred_mbaff:p_Vid <- $rbx
	#DEBUG_VALUE: intra4x4_hor_pred_mbaff:currSlice <- $r14
	#DEBUG_VALUE: intra4x4_hor_pred_mbaff:imgY <- [DW_OP_plus_uconst 16, DW_OP_deref] $rsp
	#DEBUG_VALUE: intra4x4_hor_pred_mbaff:mb_pred <- [DW_OP_plus_uconst 120, DW_OP_deref] $rsp
	#DEBUG_VALUE: intra4x4_hor_pred_mbaff:i <- 4
	#DEBUG_VALUE: intra4x4_hor_pred_mbaff:i <- 0
	#DEBUG_VALUE: intra4x4_hor_pred_mbaff:block_available_left <- 1
	.loc	0 0 7                           # ldecod_src/intra4x4_pred_mbaff.c:0:7
	xorl	%eax, %eax
.Ltmp251:
	.loc	0 227 32 is_stmt 1              # ldecod_src/intra4x4_pred_mbaff.c:227:32
	cmpl	$0, 48(%rsp)
	movl	$0, %ecx
	je	.LBB0_85
.Ltmp252:
# %bb.84:                               # %cond.true18.i
	#DEBUG_VALUE: intra4x4_pred_mbaff:currMB <- $r12
	#DEBUG_VALUE: intra4x4_pred_mbaff:pl <- [DW_OP_LLVM_entry_value 1] $esi
	#DEBUG_VALUE: intra4x4_pred_mbaff:ioff <- [DW_OP_plus_uconst 24] [$rsp+0]
	#DEBUG_VALUE: intra4x4_pred_mbaff:joff <- [DW_OP_plus_uconst 8] [$rsp+0]
	#DEBUG_VALUE: intra4x4_pred_mbaff:img_block_x <- [DW_OP_LLVM_entry_value 1] $r8d
	#DEBUG_VALUE: intra4x4_pred_mbaff:img_block_y <- [DW_OP_LLVM_entry_value 1] $r9d
	#DEBUG_VALUE: intra4x4_pred_mbaff:p_Vid <- $rbx
	#DEBUG_VALUE: intra4x4_hor_pred_mbaff:pix_a <- [DW_OP_plus_uconst 48, DW_OP_deref] $rsp
	#DEBUG_VALUE: intra4x4_hor_pred_mbaff:currMB <- $r12
	#DEBUG_VALUE: intra4x4_hor_pred_mbaff:ioff <- [DW_OP_plus_uconst 24, DW_OP_deref] $rsp
	#DEBUG_VALUE: intra4x4_hor_pred_mbaff:joff <- [DW_OP_plus_uconst 8, DW_OP_deref] $rsp
	#DEBUG_VALUE: intra4x4_hor_pred_mbaff:p_Vid <- $rbx
	#DEBUG_VALUE: intra4x4_hor_pred_mbaff:currSlice <- $r14
	#DEBUG_VALUE: intra4x4_hor_pred_mbaff:imgY <- [DW_OP_plus_uconst 16, DW_OP_deref] $rsp
	#DEBUG_VALUE: intra4x4_hor_pred_mbaff:mb_pred <- [DW_OP_plus_uconst 120, DW_OP_deref] $rsp
	#DEBUG_VALUE: intra4x4_hor_pred_mbaff:i <- 0
	#DEBUG_VALUE: intra4x4_hor_pred_mbaff:block_available_left <- 1
	.loc	0 227 64 is_stmt 0              # ldecod_src/intra4x4_pred_mbaff.c:227:64
	movq	13544(%r14), %rcx
	.loc	0 227 85                        # ldecod_src/intra4x4_pred_mbaff.c:227:85
	movslq	52(%rsp), %rdx
	movzbl	(%rcx,%rdx), %ecx
	.loc	0 227 29                        # ldecod_src/intra4x4_pred_mbaff.c:227:29
	andl	$1, %ecx
.Ltmp253:
.LBB0_85:                               # %cond.end24.i
	#DEBUG_VALUE: intra4x4_pred_mbaff:currMB <- $r12
	#DEBUG_VALUE: intra4x4_pred_mbaff:pl <- [DW_OP_LLVM_entry_value 1] $esi
	#DEBUG_VALUE: intra4x4_pred_mbaff:ioff <- [DW_OP_plus_uconst 24] [$rsp+0]
	#DEBUG_VALUE: intra4x4_pred_mbaff:joff <- [DW_OP_plus_uconst 8] [$rsp+0]
	#DEBUG_VALUE: intra4x4_pred_mbaff:img_block_x <- [DW_OP_LLVM_entry_value 1] $r8d
	#DEBUG_VALUE: intra4x4_pred_mbaff:img_block_y <- [DW_OP_LLVM_entry_value 1] $r9d
	#DEBUG_VALUE: intra4x4_pred_mbaff:p_Vid <- $rbx
	#DEBUG_VALUE: intra4x4_hor_pred_mbaff:pix_a <- [DW_OP_plus_uconst 48, DW_OP_deref] $rsp
	#DEBUG_VALUE: intra4x4_hor_pred_mbaff:currMB <- $r12
	#DEBUG_VALUE: intra4x4_hor_pred_mbaff:ioff <- [DW_OP_plus_uconst 24, DW_OP_deref] $rsp
	#DEBUG_VALUE: intra4x4_hor_pred_mbaff:joff <- [DW_OP_plus_uconst 8, DW_OP_deref] $rsp
	#DEBUG_VALUE: intra4x4_hor_pred_mbaff:p_Vid <- $rbx
	#DEBUG_VALUE: intra4x4_hor_pred_mbaff:currSlice <- $r14
	#DEBUG_VALUE: intra4x4_hor_pred_mbaff:imgY <- [DW_OP_plus_uconst 16, DW_OP_deref] $rsp
	#DEBUG_VALUE: intra4x4_hor_pred_mbaff:mb_pred <- [DW_OP_plus_uconst 120, DW_OP_deref] $rsp
	#DEBUG_VALUE: intra4x4_hor_pred_mbaff:i <- 0
	#DEBUG_VALUE: intra4x4_hor_pred_mbaff:block_available_left <- 1
	#DEBUG_VALUE: intra4x4_hor_pred_mbaff:block_available_left <- $ecx
	#DEBUG_VALUE: intra4x4_hor_pred_mbaff:i <- 1
	.loc	0 227 32                        # ldecod_src/intra4x4_pred_mbaff.c:227:32
	cmpl	$0, 64(%rsp)
	movq	24(%rsp), %r15                  # 8-byte Reload
	je	.LBB0_87
.Ltmp254:
# %bb.86:                               # %cond.true18.1.i
	#DEBUG_VALUE: intra4x4_pred_mbaff:currMB <- $r12
	#DEBUG_VALUE: intra4x4_pred_mbaff:pl <- [DW_OP_LLVM_entry_value 1] $esi
	#DEBUG_VALUE: intra4x4_pred_mbaff:ioff <- [DW_OP_plus_uconst 24] [$rsp+0]
	#DEBUG_VALUE: intra4x4_pred_mbaff:joff <- [DW_OP_plus_uconst 8] [$rsp+0]
	#DEBUG_VALUE: intra4x4_pred_mbaff:img_block_x <- [DW_OP_LLVM_entry_value 1] $r8d
	#DEBUG_VALUE: intra4x4_pred_mbaff:img_block_y <- [DW_OP_LLVM_entry_value 1] $r9d
	#DEBUG_VALUE: intra4x4_pred_mbaff:p_Vid <- $rbx
	#DEBUG_VALUE: intra4x4_hor_pred_mbaff:pix_a <- [DW_OP_plus_uconst 48, DW_OP_deref] $rsp
	#DEBUG_VALUE: intra4x4_hor_pred_mbaff:currMB <- $r12
	#DEBUG_VALUE: intra4x4_hor_pred_mbaff:ioff <- [DW_OP_plus_uconst 24, DW_OP_deref] $rsp
	#DEBUG_VALUE: intra4x4_hor_pred_mbaff:joff <- [DW_OP_plus_uconst 8, DW_OP_deref] $rsp
	#DEBUG_VALUE: intra4x4_hor_pred_mbaff:p_Vid <- $rbx
	#DEBUG_VALUE: intra4x4_hor_pred_mbaff:currSlice <- $r14
	#DEBUG_VALUE: intra4x4_hor_pred_mbaff:imgY <- [DW_OP_plus_uconst 16, DW_OP_deref] $rsp
	#DEBUG_VALUE: intra4x4_hor_pred_mbaff:mb_pred <- [DW_OP_plus_uconst 120, DW_OP_deref] $rsp
	#DEBUG_VALUE: intra4x4_hor_pred_mbaff:i <- 1
	#DEBUG_VALUE: intra4x4_hor_pred_mbaff:block_available_left <- $ecx
	.loc	0 227 64                        # ldecod_src/intra4x4_pred_mbaff.c:227:64
	movq	13544(%r14), %rax
	.loc	0 227 85                        # ldecod_src/intra4x4_pred_mbaff.c:227:85
	movslq	68(%rsp), %rdx
	.loc	0 227 53                        # ldecod_src/intra4x4_pred_mbaff.c:227:53
	movzbl	(%rax,%rdx), %eax
.Ltmp255:
.LBB0_87:                               # %cond.end24.1.i
	#DEBUG_VALUE: intra4x4_pred_mbaff:currMB <- $r12
	#DEBUG_VALUE: intra4x4_pred_mbaff:pl <- [DW_OP_LLVM_entry_value 1] $esi
	#DEBUG_VALUE: intra4x4_pred_mbaff:ioff <- [DW_OP_plus_uconst 24] [$rsp+0]
	#DEBUG_VALUE: intra4x4_pred_mbaff:joff <- [DW_OP_plus_uconst 8] [$rsp+0]
	#DEBUG_VALUE: intra4x4_pred_mbaff:img_block_x <- [DW_OP_LLVM_entry_value 1] $r8d
	#DEBUG_VALUE: intra4x4_pred_mbaff:img_block_y <- [DW_OP_LLVM_entry_value 1] $r9d
	#DEBUG_VALUE: intra4x4_pred_mbaff:p_Vid <- $rbx
	#DEBUG_VALUE: intra4x4_hor_pred_mbaff:pix_a <- [DW_OP_plus_uconst 48, DW_OP_deref] $rsp
	#DEBUG_VALUE: intra4x4_hor_pred_mbaff:currMB <- $r12
	#DEBUG_VALUE: intra4x4_hor_pred_mbaff:ioff <- [DW_OP_plus_uconst 24, DW_OP_deref] $rsp
	#DEBUG_VALUE: intra4x4_hor_pred_mbaff:joff <- [DW_OP_plus_uconst 8, DW_OP_deref] $rsp
	#DEBUG_VALUE: intra4x4_hor_pred_mbaff:p_Vid <- $rbx
	#DEBUG_VALUE: intra4x4_hor_pred_mbaff:currSlice <- $r14
	#DEBUG_VALUE: intra4x4_hor_pred_mbaff:imgY <- [DW_OP_plus_uconst 16, DW_OP_deref] $rsp
	#DEBUG_VALUE: intra4x4_hor_pred_mbaff:mb_pred <- [DW_OP_plus_uconst 120, DW_OP_deref] $rsp
	#DEBUG_VALUE: intra4x4_hor_pred_mbaff:i <- 1
	#DEBUG_VALUE: intra4x4_hor_pred_mbaff:block_available_left <- $ecx
	.loc	0 227 29                        # ldecod_src/intra4x4_pred_mbaff.c:227:29
	andl	%ecx, %eax
.Ltmp256:
	#DEBUG_VALUE: intra4x4_hor_pred_mbaff:block_available_left <- $eax
	.loc	0 0 29                          # ldecod_src/intra4x4_pred_mbaff.c:0:29
	xorl	%ecx, %ecx
.Ltmp257:
	#DEBUG_VALUE: intra4x4_hor_pred_mbaff:i <- 2
	.loc	0 227 32                        # ldecod_src/intra4x4_pred_mbaff.c:227:32
	cmpl	$0, 80(%rsp)
	movl	$0, %edx
	je	.LBB0_89
.Ltmp258:
# %bb.88:                               # %cond.true18.2.i
	#DEBUG_VALUE: intra4x4_pred_mbaff:currMB <- $r12
	#DEBUG_VALUE: intra4x4_pred_mbaff:pl <- [DW_OP_LLVM_entry_value 1] $esi
	#DEBUG_VALUE: intra4x4_pred_mbaff:ioff <- [DW_OP_plus_uconst 24] [$rsp+0]
	#DEBUG_VALUE: intra4x4_pred_mbaff:joff <- [DW_OP_plus_uconst 8] [$rsp+0]
	#DEBUG_VALUE: intra4x4_pred_mbaff:img_block_x <- [DW_OP_LLVM_entry_value 1] $r8d
	#DEBUG_VALUE: intra4x4_pred_mbaff:img_block_y <- [DW_OP_LLVM_entry_value 1] $r9d
	#DEBUG_VALUE: intra4x4_pred_mbaff:p_Vid <- $rbx
	#DEBUG_VALUE: intra4x4_hor_pred_mbaff:pix_a <- [DW_OP_plus_uconst 48, DW_OP_deref] $rsp
	#DEBUG_VALUE: intra4x4_hor_pred_mbaff:currMB <- $r12
	#DEBUG_VALUE: intra4x4_hor_pred_mbaff:ioff <- [DW_OP_plus_uconst 24, DW_OP_deref] $rsp
	#DEBUG_VALUE: intra4x4_hor_pred_mbaff:joff <- [DW_OP_plus_uconst 8, DW_OP_deref] $rsp
	#DEBUG_VALUE: intra4x4_hor_pred_mbaff:p_Vid <- $rbx
	#DEBUG_VALUE: intra4x4_hor_pred_mbaff:currSlice <- $r14
	#DEBUG_VALUE: intra4x4_hor_pred_mbaff:imgY <- [DW_OP_plus_uconst 16, DW_OP_deref] $rsp
	#DEBUG_VALUE: intra4x4_hor_pred_mbaff:mb_pred <- [DW_OP_plus_uconst 120, DW_OP_deref] $rsp
	#DEBUG_VALUE: intra4x4_hor_pred_mbaff:i <- 2
	#DEBUG_VALUE: intra4x4_hor_pred_mbaff:block_available_left <- $eax
	.loc	0 227 64                        # ldecod_src/intra4x4_pred_mbaff.c:227:64
	movq	13544(%r14), %rdx
	.loc	0 227 85                        # ldecod_src/intra4x4_pred_mbaff.c:227:85
	movslq	84(%rsp), %rsi
	.loc	0 227 53                        # ldecod_src/intra4x4_pred_mbaff.c:227:53
	movzbl	(%rdx,%rsi), %edx
.Ltmp259:
.LBB0_89:                               # %cond.end24.2.i
	#DEBUG_VALUE: intra4x4_pred_mbaff:currMB <- $r12
	#DEBUG_VALUE: intra4x4_pred_mbaff:pl <- [DW_OP_LLVM_entry_value 1] $esi
	#DEBUG_VALUE: intra4x4_pred_mbaff:ioff <- [DW_OP_plus_uconst 24] [$rsp+0]
	#DEBUG_VALUE: intra4x4_pred_mbaff:joff <- [DW_OP_plus_uconst 8] [$rsp+0]
	#DEBUG_VALUE: intra4x4_pred_mbaff:img_block_x <- [DW_OP_LLVM_entry_value 1] $r8d
	#DEBUG_VALUE: intra4x4_pred_mbaff:img_block_y <- [DW_OP_LLVM_entry_value 1] $r9d
	#DEBUG_VALUE: intra4x4_pred_mbaff:p_Vid <- $rbx
	#DEBUG_VALUE: intra4x4_hor_pred_mbaff:pix_a <- [DW_OP_plus_uconst 48, DW_OP_deref] $rsp
	#DEBUG_VALUE: intra4x4_hor_pred_mbaff:currMB <- $r12
	#DEBUG_VALUE: intra4x4_hor_pred_mbaff:ioff <- [DW_OP_plus_uconst 24, DW_OP_deref] $rsp
	#DEBUG_VALUE: intra4x4_hor_pred_mbaff:joff <- [DW_OP_plus_uconst 8, DW_OP_deref] $rsp
	#DEBUG_VALUE: intra4x4_hor_pred_mbaff:p_Vid <- $rbx
	#DEBUG_VALUE: intra4x4_hor_pred_mbaff:currSlice <- $r14
	#DEBUG_VALUE: intra4x4_hor_pred_mbaff:imgY <- [DW_OP_plus_uconst 16, DW_OP_deref] $rsp
	#DEBUG_VALUE: intra4x4_hor_pred_mbaff:mb_pred <- [DW_OP_plus_uconst 120, DW_OP_deref] $rsp
	#DEBUG_VALUE: intra4x4_hor_pred_mbaff:i <- 2
	#DEBUG_VALUE: intra4x4_hor_pred_mbaff:block_available_left <- $eax
	.loc	0 227 29                        # ldecod_src/intra4x4_pred_mbaff.c:227:29
	andl	%edx, %eax
.Ltmp260:
	#DEBUG_VALUE: intra4x4_hor_pred_mbaff:block_available_left <- $eax
	#DEBUG_VALUE: intra4x4_hor_pred_mbaff:i <- 3
	.loc	0 227 32                        # ldecod_src/intra4x4_pred_mbaff.c:227:32
	cmpl	$0, 96(%rsp)
	je	.LBB0_91
.Ltmp261:
# %bb.90:                               # %cond.true18.3.i
	#DEBUG_VALUE: intra4x4_pred_mbaff:currMB <- $r12
	#DEBUG_VALUE: intra4x4_pred_mbaff:pl <- [DW_OP_LLVM_entry_value 1] $esi
	#DEBUG_VALUE: intra4x4_pred_mbaff:ioff <- [DW_OP_plus_uconst 24] [$rsp+0]
	#DEBUG_VALUE: intra4x4_pred_mbaff:joff <- [DW_OP_plus_uconst 8] [$rsp+0]
	#DEBUG_VALUE: intra4x4_pred_mbaff:img_block_x <- [DW_OP_LLVM_entry_value 1] $r8d
	#DEBUG_VALUE: intra4x4_pred_mbaff:img_block_y <- [DW_OP_LLVM_entry_value 1] $r9d
	#DEBUG_VALUE: intra4x4_pred_mbaff:p_Vid <- $rbx
	#DEBUG_VALUE: intra4x4_hor_pred_mbaff:pix_a <- [DW_OP_plus_uconst 48, DW_OP_deref] $rsp
	#DEBUG_VALUE: intra4x4_hor_pred_mbaff:currMB <- $r12
	#DEBUG_VALUE: intra4x4_hor_pred_mbaff:ioff <- [DW_OP_plus_uconst 24, DW_OP_deref] $rsp
	#DEBUG_VALUE: intra4x4_hor_pred_mbaff:joff <- [DW_OP_plus_uconst 8, DW_OP_deref] $rsp
	#DEBUG_VALUE: intra4x4_hor_pred_mbaff:p_Vid <- $rbx
	#DEBUG_VALUE: intra4x4_hor_pred_mbaff:currSlice <- $r14
	#DEBUG_VALUE: intra4x4_hor_pred_mbaff:imgY <- [DW_OP_plus_uconst 16, DW_OP_deref] $rsp
	#DEBUG_VALUE: intra4x4_hor_pred_mbaff:mb_pred <- [DW_OP_plus_uconst 120, DW_OP_deref] $rsp
	#DEBUG_VALUE: intra4x4_hor_pred_mbaff:i <- 3
	#DEBUG_VALUE: intra4x4_hor_pred_mbaff:block_available_left <- $eax
	.loc	0 227 64                        # ldecod_src/intra4x4_pred_mbaff.c:227:64
	movq	13544(%r14), %rcx
	.loc	0 227 85                        # ldecod_src/intra4x4_pred_mbaff.c:227:85
	movslq	100(%rsp), %rdx
	.loc	0 227 53                        # ldecod_src/intra4x4_pred_mbaff.c:227:53
	movzbl	(%rcx,%rdx), %ecx
.Ltmp262:
.LBB0_91:                               # %cond.end24.3.i
	#DEBUG_VALUE: intra4x4_pred_mbaff:currMB <- $r12
	#DEBUG_VALUE: intra4x4_pred_mbaff:pl <- [DW_OP_LLVM_entry_value 1] $esi
	#DEBUG_VALUE: intra4x4_pred_mbaff:ioff <- [DW_OP_plus_uconst 24] [$rsp+0]
	#DEBUG_VALUE: intra4x4_pred_mbaff:joff <- [DW_OP_plus_uconst 8] [$rsp+0]
	#DEBUG_VALUE: intra4x4_pred_mbaff:img_block_x <- [DW_OP_LLVM_entry_value 1] $r8d
	#DEBUG_VALUE: intra4x4_pred_mbaff:img_block_y <- [DW_OP_LLVM_entry_value 1] $r9d
	#DEBUG_VALUE: intra4x4_pred_mbaff:p_Vid <- $rbx
	#DEBUG_VALUE: intra4x4_hor_pred_mbaff:pix_a <- [DW_OP_plus_uconst 48, DW_OP_deref] $rsp
	#DEBUG_VALUE: intra4x4_hor_pred_mbaff:currMB <- $r12
	#DEBUG_VALUE: intra4x4_hor_pred_mbaff:ioff <- [DW_OP_plus_uconst 24, DW_OP_deref] $rsp
	#DEBUG_VALUE: intra4x4_hor_pred_mbaff:joff <- [DW_OP_plus_uconst 8, DW_OP_deref] $rsp
	#DEBUG_VALUE: intra4x4_hor_pred_mbaff:p_Vid <- $rbx
	#DEBUG_VALUE: intra4x4_hor_pred_mbaff:currSlice <- $r14
	#DEBUG_VALUE: intra4x4_hor_pred_mbaff:imgY <- [DW_OP_plus_uconst 16, DW_OP_deref] $rsp
	#DEBUG_VALUE: intra4x4_hor_pred_mbaff:mb_pred <- [DW_OP_plus_uconst 120, DW_OP_deref] $rsp
	#DEBUG_VALUE: intra4x4_hor_pred_mbaff:i <- 3
	#DEBUG_VALUE: intra4x4_hor_pred_mbaff:block_available_left <- $eax
	.loc	0 227 29                        # ldecod_src/intra4x4_pred_mbaff.c:227:29
	andl	%ecx, %eax
.Ltmp263:
	#DEBUG_VALUE: intra4x4_hor_pred_mbaff:block_available_left <- $eax
	#DEBUG_VALUE: intra4x4_hor_pred_mbaff:i <- 4
	.loc	0 0 0                           # ldecod_src/intra4x4_pred_mbaff.c:0:0
	movslq	8(%rsp), %rbx                   # 4-byte Folded Reload
.Ltmp264:
	#DEBUG_VALUE: intra4x4_hor_pred_mbaff:block_available_left <- $eax
	.loc	0 234 8 is_stmt 1               # ldecod_src/intra4x4_pred_mbaff.c:234:8
	testl	%eax, %eax
.Ltmp265:
	.loc	0 234 7 is_stmt 0               # ldecod_src/intra4x4_pred_mbaff.c:234:7
	jne	.LBB0_93
.Ltmp266:
.LBB0_92:                               # %if.then32.i
	#DEBUG_VALUE: intra4x4_pred_mbaff:currMB <- $r12
	#DEBUG_VALUE: intra4x4_pred_mbaff:pl <- [DW_OP_LLVM_entry_value 1] $esi
	#DEBUG_VALUE: intra4x4_pred_mbaff:ioff <- [DW_OP_plus_uconst 24] [$rsp+0]
	#DEBUG_VALUE: intra4x4_pred_mbaff:joff <- [DW_OP_plus_uconst 8] [$rsp+0]
	#DEBUG_VALUE: intra4x4_pred_mbaff:img_block_x <- [DW_OP_LLVM_entry_value 1] $r8d
	#DEBUG_VALUE: intra4x4_pred_mbaff:img_block_y <- [DW_OP_LLVM_entry_value 1] $r9d
	#DEBUG_VALUE: intra4x4_hor_pred_mbaff:pix_a <- [DW_OP_plus_uconst 48, DW_OP_deref] $rsp
	#DEBUG_VALUE: intra4x4_hor_pred_mbaff:currMB <- $r12
	#DEBUG_VALUE: intra4x4_hor_pred_mbaff:ioff <- [DW_OP_plus_uconst 24, DW_OP_deref] $rsp
	#DEBUG_VALUE: intra4x4_hor_pred_mbaff:joff <- [DW_OP_plus_uconst 8, DW_OP_deref] $rsp
	#DEBUG_VALUE: intra4x4_hor_pred_mbaff:currSlice <- $r14
	#DEBUG_VALUE: intra4x4_hor_pred_mbaff:imgY <- [DW_OP_plus_uconst 16, DW_OP_deref] $rsp
	#DEBUG_VALUE: intra4x4_hor_pred_mbaff:mb_pred <- [DW_OP_plus_uconst 120, DW_OP_deref] $rsp
	#DEBUG_VALUE: intra4x4_hor_pred_mbaff:i <- 4
	#DEBUG_VALUE: intra4x4_hor_pred_mbaff:block_available_left <- $eax
	.loc	0 235 101 is_stmt 1             # ldecod_src/intra4x4_pred_mbaff.c:235:101
	movl	108(%r14), %esi
	.loc	0 235 5 is_stmt 0               # ldecod_src/intra4x4_pred_mbaff.c:235:5
	movl	$.L.str.2, %edi
	xorl	%eax, %eax
.Ltmp267:
	callq	printf@PLT
.Ltmp268:
.LBB0_93:                               # %intra4x4_hor_pred_mbaff.exit
	#DEBUG_VALUE: intra4x4_pred_mbaff:currMB <- $r12
	#DEBUG_VALUE: intra4x4_pred_mbaff:pl <- [DW_OP_LLVM_entry_value 1] $esi
	#DEBUG_VALUE: intra4x4_pred_mbaff:ioff <- [DW_OP_plus_uconst 24] [$rsp+0]
	#DEBUG_VALUE: intra4x4_pred_mbaff:joff <- [DW_OP_plus_uconst 8] [$rsp+0]
	#DEBUG_VALUE: intra4x4_pred_mbaff:img_block_x <- [DW_OP_LLVM_entry_value 1] $r8d
	#DEBUG_VALUE: intra4x4_pred_mbaff:img_block_y <- [DW_OP_LLVM_entry_value 1] $r9d
	#DEBUG_VALUE: intra4x4_hor_pred_mbaff:pix_a <- [DW_OP_plus_uconst 48, DW_OP_deref] $rsp
	#DEBUG_VALUE: intra4x4_hor_pred_mbaff:currMB <- $r12
	#DEBUG_VALUE: intra4x4_hor_pred_mbaff:ioff <- [DW_OP_plus_uconst 24, DW_OP_deref] $rsp
	#DEBUG_VALUE: intra4x4_hor_pred_mbaff:joff <- [DW_OP_plus_uconst 8, DW_OP_deref] $rsp
	#DEBUG_VALUE: intra4x4_hor_pred_mbaff:currSlice <- $r14
	#DEBUG_VALUE: intra4x4_hor_pred_mbaff:imgY <- [DW_OP_plus_uconst 16, DW_OP_deref] $rsp
	#DEBUG_VALUE: intra4x4_hor_pred_mbaff:mb_pred <- [DW_OP_plus_uconst 120, DW_OP_deref] $rsp
	#DEBUG_VALUE: intra4x4_hor_pred_mbaff:i <- 4
	#DEBUG_VALUE: intra4x4_hor_pred_mbaff:j <- 0
	.loc	0 237 3 is_stmt 1               # ldecod_src/intra4x4_pred_mbaff.c:237:3
	movslq	%r15d, %rax
	#DEBUG_VALUE: intra4x4_hor_pred_mbaff:j <- 0
	movq	120(%rsp), %r8                  # 8-byte Reload
.Ltmp269:
	.loc	0 239 15                        # ldecod_src/intra4x4_pred_mbaff.c:239:15
	movq	(%r8,%rbx,8), %rcx
.Ltmp270:
	#DEBUG_VALUE: intra4x4_hor_pred_mbaff:predrow <- $rcx
	.loc	0 240 32                        # ldecod_src/intra4x4_pred_mbaff.c:240:32
	movswq	62(%rsp), %rdx
	movq	16(%rsp), %rdi                  # 8-byte Reload
	.loc	0 240 18 is_stmt 0              # ldecod_src/intra4x4_pred_mbaff.c:240:18
	movq	(%rdi,%rdx,8), %rdx
	.loc	0 240 48                        # ldecod_src/intra4x4_pred_mbaff.c:240:48
	movswq	60(%rsp), %rsi
.Ltmp271:
	#DEBUG_VALUE: intra4x4_hor_pred_mbaff:prediction <- undef
	#DEBUG_VALUE: intra4x4_hor_pred_mbaff:i <- $rax
	#DEBUG_VALUE: intra4x4_hor_pred_mbaff:i <- [DW_OP_plus_uconst 3, DW_OP_stack_value] $rax
	.loc	0 242 17 is_stmt 1              # ldecod_src/intra4x4_pred_mbaff.c:242:17
	movzwl	(%rdx,%rsi,2), %edx
	movd	%edx, %xmm0
	pshuflw	$0, %xmm0, %xmm0                # xmm0 = xmm0[0,0,0,0,4,5,6,7]
	movq	%xmm0, (%rcx,%rax,2)
.Ltmp272:
	#DEBUG_VALUE: intra4x4_hor_pred_mbaff:i <- [DW_OP_plus_uconst 4, DW_OP_stack_value] $rax
	#DEBUG_VALUE: intra4x4_hor_pred_mbaff:j <- 1
	.loc	0 239 15                        # ldecod_src/intra4x4_pred_mbaff.c:239:15
	movq	8(%r8,%rbx,8), %rcx
.Ltmp273:
	#DEBUG_VALUE: intra4x4_hor_pred_mbaff:predrow <- $rcx
	.loc	0 240 32                        # ldecod_src/intra4x4_pred_mbaff.c:240:32
	movswq	78(%rsp), %rdx
	.loc	0 240 18 is_stmt 0              # ldecod_src/intra4x4_pred_mbaff.c:240:18
	movq	(%rdi,%rdx,8), %rdx
	.loc	0 240 48                        # ldecod_src/intra4x4_pred_mbaff.c:240:48
	movswq	76(%rsp), %rsi
.Ltmp274:
	#DEBUG_VALUE: intra4x4_hor_pred_mbaff:i <- $rax
	#DEBUG_VALUE: intra4x4_hor_pred_mbaff:i <- [DW_OP_plus_uconst 3, DW_OP_stack_value] $rax
	.loc	0 242 17 is_stmt 1              # ldecod_src/intra4x4_pred_mbaff.c:242:17
	movzwl	(%rdx,%rsi,2), %edx
	movd	%edx, %xmm0
	pshuflw	$0, %xmm0, %xmm0                # xmm0 = xmm0[0,0,0,0,4,5,6,7]
	movq	%xmm0, (%rcx,%rax,2)
.Ltmp275:
	#DEBUG_VALUE: intra4x4_hor_pred_mbaff:i <- [DW_OP_plus_uconst 4, DW_OP_stack_value] $rax
	#DEBUG_VALUE: intra4x4_hor_pred_mbaff:j <- 2
	.loc	0 239 15                        # ldecod_src/intra4x4_pred_mbaff.c:239:15
	movq	16(%r8,%rbx,8), %rcx
.Ltmp276:
	#DEBUG_VALUE: intra4x4_hor_pred_mbaff:predrow <- $rcx
	.loc	0 240 32                        # ldecod_src/intra4x4_pred_mbaff.c:240:32
	movswq	94(%rsp), %rdx
	.loc	0 240 18 is_stmt 0              # ldecod_src/intra4x4_pred_mbaff.c:240:18
	movq	(%rdi,%rdx,8), %rdx
	.loc	0 240 48                        # ldecod_src/intra4x4_pred_mbaff.c:240:48
	movswq	92(%rsp), %rsi
.Ltmp277:
	#DEBUG_VALUE: intra4x4_hor_pred_mbaff:i <- $rax
	#DEBUG_VALUE: intra4x4_hor_pred_mbaff:i <- [DW_OP_plus_uconst 3, DW_OP_stack_value] $rax
	.loc	0 242 17 is_stmt 1              # ldecod_src/intra4x4_pred_mbaff.c:242:17
	movzwl	(%rdx,%rsi,2), %edx
	movd	%edx, %xmm0
	pshuflw	$0, %xmm0, %xmm0                # xmm0 = xmm0[0,0,0,0,4,5,6,7]
	movq	%xmm0, (%rcx,%rax,2)
.Ltmp278:
	#DEBUG_VALUE: intra4x4_hor_pred_mbaff:i <- [DW_OP_plus_uconst 4, DW_OP_stack_value] $rax
	#DEBUG_VALUE: intra4x4_hor_pred_mbaff:j <- 3
	.loc	0 239 15                        # ldecod_src/intra4x4_pred_mbaff.c:239:15
	movq	24(%r8,%rbx,8), %rcx
.Ltmp279:
	#DEBUG_VALUE: intra4x4_hor_pred_mbaff:predrow <- $rcx
	.loc	0 240 32                        # ldecod_src/intra4x4_pred_mbaff.c:240:32
	movswq	110(%rsp), %rdx
	.loc	0 240 18 is_stmt 0              # ldecod_src/intra4x4_pred_mbaff.c:240:18
	movq	(%rdi,%rdx,8), %rdx
	.loc	0 240 48                        # ldecod_src/intra4x4_pred_mbaff.c:240:48
	movswq	108(%rsp), %rsi
.Ltmp280:
	#DEBUG_VALUE: intra4x4_hor_pred_mbaff:i <- $rax
	#DEBUG_VALUE: intra4x4_hor_pred_mbaff:i <- [DW_OP_plus_uconst 3, DW_OP_stack_value] $rax
	.loc	0 242 17 is_stmt 1              # ldecod_src/intra4x4_pred_mbaff.c:242:17
	movzwl	(%rdx,%rsi,2), %edx
	movd	%edx, %xmm0
	pshuflw	$0, %xmm0, %xmm0                # xmm0 = xmm0[0,0,0,0,4,5,6,7]
	movq	%xmm0, (%rcx,%rax,2)
.Ltmp281:
	#DEBUG_VALUE: intra4x4_hor_pred_mbaff:i <- [DW_OP_plus_uconst 4, DW_OP_stack_value] $rax
	#DEBUG_VALUE: intra4x4_hor_pred_mbaff:j <- 4
	.loc	0 0 17 is_stmt 0                # ldecod_src/intra4x4_pred_mbaff.c:0:17
	jmp	.LBB0_171
.Ltmp282:
.LBB0_94:                               # %if.else.i116
	#DEBUG_VALUE: intra4x4_pred_mbaff:currMB <- $r12
	#DEBUG_VALUE: intra4x4_pred_mbaff:pl <- [DW_OP_LLVM_entry_value 1] $esi
	#DEBUG_VALUE: intra4x4_pred_mbaff:ioff <- [DW_OP_plus_uconst 24] [$rsp+0]
	#DEBUG_VALUE: intra4x4_pred_mbaff:joff <- [DW_OP_plus_uconst 8] [$rsp+0]
	#DEBUG_VALUE: intra4x4_pred_mbaff:img_block_x <- [DW_OP_LLVM_entry_value 1] $r8d
	#DEBUG_VALUE: intra4x4_pred_mbaff:img_block_y <- [DW_OP_LLVM_entry_value 1] $r9d
	#DEBUG_VALUE: intra4x4_pred_mbaff:p_Vid <- $rbx
	#DEBUG_VALUE: intra4x4_hor_pred_mbaff:pix_a <- [DW_OP_plus_uconst 48, DW_OP_deref] $rsp
	#DEBUG_VALUE: intra4x4_hor_pred_mbaff:currMB <- $r12
	#DEBUG_VALUE: intra4x4_hor_pred_mbaff:ioff <- [DW_OP_plus_uconst 24, DW_OP_deref] $rsp
	#DEBUG_VALUE: intra4x4_hor_pred_mbaff:joff <- [DW_OP_plus_uconst 8, DW_OP_deref] $rsp
	#DEBUG_VALUE: intra4x4_hor_pred_mbaff:p_Vid <- $rbx
	#DEBUG_VALUE: intra4x4_hor_pred_mbaff:currSlice <- $r14
	#DEBUG_VALUE: intra4x4_hor_pred_mbaff:imgY <- [DW_OP_plus_uconst 16, DW_OP_deref] $rsp
	#DEBUG_VALUE: intra4x4_hor_pred_mbaff:mb_pred <- [DW_OP_plus_uconst 120, DW_OP_deref] $rsp
	#DEBUG_VALUE: intra4x4_hor_pred_mbaff:i <- 4
	.loc	0 231 41 is_stmt 1              # ldecod_src/intra4x4_pred_mbaff.c:231:41
	movl	48(%rsp), %eax
.Ltmp283:
	#DEBUG_VALUE: intra4x4_hor_pred_mbaff:block_available_left <- $eax
	.loc	0 0 41 is_stmt 0                # ldecod_src/intra4x4_pred_mbaff.c:0:41
	movq	24(%rsp), %r15                  # 8-byte Reload
.Ltmp284:
	movslq	8(%rsp), %rbx                   # 4-byte Folded Reload
.Ltmp285:
	#DEBUG_VALUE: intra4x4_hor_pred_mbaff:block_available_left <- $eax
	.loc	0 234 8 is_stmt 1               # ldecod_src/intra4x4_pred_mbaff.c:234:8
	testl	%eax, %eax
	jne	.LBB0_93
	jmp	.LBB0_92
.Ltmp286:
.LBB0_95:                               # %cond.false.i366
	#DEBUG_VALUE: intra4x4_pred_mbaff:currMB <- $rdi
	#DEBUG_VALUE: intra4x4_pred_mbaff:pl <- $r15d
	#DEBUG_VALUE: intra4x4_pred_mbaff:ioff <- $r12d
	#DEBUG_VALUE: intra4x4_pred_mbaff:joff <- $r13d
	#DEBUG_VALUE: intra4x4_pred_mbaff:img_block_x <- $r8d
	#DEBUG_VALUE: intra4x4_pred_mbaff:img_block_y <- $r9d
	#DEBUG_VALUE: intra4x4_pred_mbaff:p_Vid <- $rbx
	#DEBUG_VALUE: intra4x4_pred_mbaff:predmode <- [DW_OP_LLVM_convert 64 7, DW_OP_LLVM_convert 8 7] $esi
	#DEBUG_VALUE: intra4x4_vert_right_pred_mbaff:pix_d <- [DW_OP_plus_uconst 136, DW_OP_deref] $rsp
	#DEBUG_VALUE: intra4x4_vert_right_pred_mbaff:currMB <- $rdi
	#DEBUG_VALUE: intra4x4_vert_right_pred_mbaff:pl <- $r15d
	#DEBUG_VALUE: intra4x4_vert_right_pred_mbaff:ioff <- $r12d
	#DEBUG_VALUE: intra4x4_vert_right_pred_mbaff:joff <- $r13d
	#DEBUG_VALUE: intra4x4_vert_right_pred_mbaff:currSlice <- $rdx
	#DEBUG_VALUE: intra4x4_vert_right_pred_mbaff:p_Vid <- $rbx
	.loc	0 441 90                        # ldecod_src/intra4x4_pred_mbaff.c:441:90
	subq	$-128, %rax
	movq	%rax, %rcx
.Ltmp287:
.LBB0_96:                               # %cond.end.i223
	#DEBUG_VALUE: intra4x4_pred_mbaff:currMB <- $rdi
	#DEBUG_VALUE: intra4x4_pred_mbaff:pl <- $r15d
	#DEBUG_VALUE: intra4x4_pred_mbaff:ioff <- $r12d
	#DEBUG_VALUE: intra4x4_pred_mbaff:joff <- $r13d
	#DEBUG_VALUE: intra4x4_pred_mbaff:img_block_x <- $r8d
	#DEBUG_VALUE: intra4x4_pred_mbaff:img_block_y <- $r9d
	#DEBUG_VALUE: intra4x4_pred_mbaff:p_Vid <- $rbx
	#DEBUG_VALUE: intra4x4_pred_mbaff:predmode <- [DW_OP_LLVM_convert 64 7, DW_OP_LLVM_convert 8 7] $esi
	#DEBUG_VALUE: intra4x4_vert_right_pred_mbaff:pix_d <- [DW_OP_plus_uconst 136, DW_OP_deref] $rsp
	#DEBUG_VALUE: intra4x4_vert_right_pred_mbaff:currMB <- $rdi
	#DEBUG_VALUE: intra4x4_vert_right_pred_mbaff:pl <- $r15d
	#DEBUG_VALUE: intra4x4_vert_right_pred_mbaff:ioff <- $r12d
	#DEBUG_VALUE: intra4x4_vert_right_pred_mbaff:joff <- $r13d
	#DEBUG_VALUE: intra4x4_vert_right_pred_mbaff:currSlice <- $rdx
	#DEBUG_VALUE: intra4x4_vert_right_pred_mbaff:p_Vid <- $rbx
	.loc	0 441 19 is_stmt 0              # ldecod_src/intra4x4_pred_mbaff.c:441:19
	movq	(%rcx), %rax
.Ltmp288:
	#DEBUG_VALUE: intra4x4_vert_right_pred_mbaff:imgY <- $rax
	.loc	0 0 19                          # ldecod_src/intra4x4_pred_mbaff.c:0:19
	movq	%rax, 120(%rsp)                 # 8-byte Spill
.Ltmp289:
	#DEBUG_VALUE: intra4x4_vert_right_pred_mbaff:imgY <- [DW_OP_plus_uconst 120, DW_OP_deref] $rsp
	movq	%rdx, 128(%rsp)                 # 8-byte Spill
.Ltmp290:
	#DEBUG_VALUE: intra4x4_vert_right_pred_mbaff:currSlice <- [DW_OP_plus_uconst 128, DW_OP_deref] $rsp
	.loc	0 450 33 is_stmt 1              # ldecod_src/intra4x4_pred_mbaff.c:450:33
	movq	1248(%rdx), %rax
	.loc	0 450 22 is_stmt 0              # ldecod_src/intra4x4_pred_mbaff.c:450:22
	movl	%r15d, %ecx
	movq	(%rax,%rcx,8), %rax
.Ltmp291:
	#DEBUG_VALUE: intra4x4_vert_right_pred_mbaff:mb_pred <- $rax
	#DEBUG_VALUE: intra4x4_vert_right_pred_mbaff:i <- 0
	.loc	0 0 22                          # ldecod_src/intra4x4_pred_mbaff.c:0:22
	movq	%rax, 16(%rsp)                  # 8-byte Spill
.Ltmp292:
	#DEBUG_VALUE: intra4x4_vert_right_pred_mbaff:mb_pred <- [DW_OP_plus_uconst 16, DW_OP_deref] $rsp
	movq	%r12, %r14
	leal	-1(%r12), %ebp
	leaq	849124(%rbx), %r15
.Ltmp293:
	#DEBUG_VALUE: intra4x4_vert_right_pred_mbaff:pl <- $ecx
	#DEBUG_VALUE: intra4x4_pred_mbaff:pl <- $ecx
	#DEBUG_VALUE: intra4x4_vert_right_pred_mbaff:i <- 0
	leaq	48(%rsp), %r8
.Ltmp294:
	#DEBUG_VALUE: intra4x4_pred_mbaff:img_block_x <- [DW_OP_LLVM_entry_value 1] $r8d
	movq	%rdi, %r12
.Ltmp295:
	#DEBUG_VALUE: intra4x4_vert_right_pred_mbaff:ioff <- $r14d
	#DEBUG_VALUE: intra4x4_pred_mbaff:ioff <- $r14d
	.loc	0 454 5 is_stmt 1               # ldecod_src/intra4x4_pred_mbaff.c:454:5
	movl	%ebp, %esi
.Ltmp296:
	movl	%r13d, %edx
	movq	%r15, %rcx
.Ltmp297:
	#DEBUG_VALUE: intra4x4_pred_mbaff:pl <- [DW_OP_LLVM_entry_value 1] $esi
	callq	*856744(%rbx)
.Ltmp298:
	#DEBUG_VALUE: intra4x4_pred_mbaff:img_block_y <- [DW_OP_LLVM_entry_value 1] $r9d
	#DEBUG_VALUE: intra4x4_vert_right_pred_mbaff:currMB <- $r12
	#DEBUG_VALUE: intra4x4_pred_mbaff:currMB <- $r12
	#DEBUG_VALUE: intra4x4_vert_right_pred_mbaff:i <- 1
	.loc	0 454 48 is_stmt 0              # ldecod_src/intra4x4_pred_mbaff.c:454:48
	leal	1(%r13), %edx
	.loc	0 454 79                        # ldecod_src/intra4x4_pred_mbaff.c:454:79
	leaq	64(%rsp), %r8
	.loc	0 454 5                         # ldecod_src/intra4x4_pred_mbaff.c:454:5
	movq	%r12, %rdi
	movl	%ebp, %esi
	movq	%r15, %rcx
	callq	*856744(%rbx)
.Ltmp299:
	#DEBUG_VALUE: intra4x4_vert_right_pred_mbaff:i <- 2
	.loc	0 454 48                        # ldecod_src/intra4x4_pred_mbaff.c:454:48
	leal	2(%r13), %edx
	.loc	0 454 79                        # ldecod_src/intra4x4_pred_mbaff.c:454:79
	leaq	80(%rsp), %r8
	.loc	0 454 5                         # ldecod_src/intra4x4_pred_mbaff.c:454:5
	movq	%r12, %rdi
	movl	%ebp, %esi
	movq	%r15, %rcx
	callq	*856744(%rbx)
.Ltmp300:
	#DEBUG_VALUE: intra4x4_vert_right_pred_mbaff:i <- 3
	.loc	0 454 48                        # ldecod_src/intra4x4_pred_mbaff.c:454:48
	leal	3(%r13), %edx
	.loc	0 454 79                        # ldecod_src/intra4x4_pred_mbaff.c:454:79
	leaq	96(%rsp), %r8
	.loc	0 454 5                         # ldecod_src/intra4x4_pred_mbaff.c:454:5
	movq	%r12, %rdi
	movl	%ebp, %esi
	movq	%r15, %rcx
	callq	*856744(%rbx)
.Ltmp301:
	#DEBUG_VALUE: intra4x4_vert_right_pred_mbaff:i <- 4
	.loc	0 0 5                           # ldecod_src/intra4x4_pred_mbaff.c:0:5
	movq	%r13, 8(%rsp)                   # 8-byte Spill
.Ltmp302:
	#DEBUG_VALUE: intra4x4_vert_right_pred_mbaff:joff <- [DW_OP_plus_uconst 8, DW_OP_deref] $rsp
	#DEBUG_VALUE: intra4x4_pred_mbaff:joff <- [DW_OP_plus_uconst 8] [$rsp+0]
	.loc	0 457 46 is_stmt 1              # ldecod_src/intra4x4_pred_mbaff.c:457:46
	decl	%r13d
	leaq	32(%rsp), %r8
	.loc	0 457 3 is_stmt 0               # ldecod_src/intra4x4_pred_mbaff.c:457:3
	movq	%r12, %rdi
	movq	%r14, 24(%rsp)                  # 8-byte Spill
.Ltmp303:
	#DEBUG_VALUE: intra4x4_vert_right_pred_mbaff:ioff <- [DW_OP_plus_uconst 24, DW_OP_deref] $rsp
	#DEBUG_VALUE: intra4x4_pred_mbaff:ioff <- [DW_OP_plus_uconst 24] [$rsp+0]
	movl	%r14d, %esi
	movl	%r13d, %edx
	movq	%r15, %rcx
	callq	*856744(%rbx)
.Ltmp304:
	.loc	0 0 3                           # ldecod_src/intra4x4_pred_mbaff.c:0:3
	leaq	136(%rsp), %r8
	.loc	0 458 3 is_stmt 1               # ldecod_src/intra4x4_pred_mbaff.c:458:3
	movq	%r12, %rdi
	movl	%ebp, %esi
	movl	%r13d, %edx
	movq	%r15, %rcx
	callq	*856744(%rbx)
.Ltmp305:
	.loc	0 460 14                        # ldecod_src/intra4x4_pred_mbaff.c:460:14
	movq	8(%rbx), %rax
	.loc	0 460 7 is_stmt 0               # ldecod_src/intra4x4_pred_mbaff.c:460:7
	cmpl	$0, 2204(%rax)
.Ltmp306:
	.loc	0 460 7                         # ldecod_src/intra4x4_pred_mbaff.c:460:7
	je	.LBB0_107
.Ltmp307:
# %bb.97:                               # %for.cond23.preheader.i239
	#DEBUG_VALUE: intra4x4_pred_mbaff:currMB <- $r12
	#DEBUG_VALUE: intra4x4_pred_mbaff:pl <- [DW_OP_LLVM_entry_value 1] $esi
	#DEBUG_VALUE: intra4x4_pred_mbaff:ioff <- [DW_OP_plus_uconst 24] [$rsp+0]
	#DEBUG_VALUE: intra4x4_pred_mbaff:joff <- [DW_OP_plus_uconst 8] [$rsp+0]
	#DEBUG_VALUE: intra4x4_pred_mbaff:img_block_x <- [DW_OP_LLVM_entry_value 1] $r8d
	#DEBUG_VALUE: intra4x4_pred_mbaff:img_block_y <- [DW_OP_LLVM_entry_value 1] $r9d
	#DEBUG_VALUE: intra4x4_pred_mbaff:p_Vid <- $rbx
	#DEBUG_VALUE: intra4x4_vert_right_pred_mbaff:pix_d <- [DW_OP_plus_uconst 136, DW_OP_deref] $rsp
	#DEBUG_VALUE: intra4x4_vert_right_pred_mbaff:currMB <- $r12
	#DEBUG_VALUE: intra4x4_vert_right_pred_mbaff:ioff <- [DW_OP_plus_uconst 24, DW_OP_deref] $rsp
	#DEBUG_VALUE: intra4x4_vert_right_pred_mbaff:joff <- [DW_OP_plus_uconst 8, DW_OP_deref] $rsp
	#DEBUG_VALUE: intra4x4_vert_right_pred_mbaff:currSlice <- [DW_OP_plus_uconst 128, DW_OP_deref] $rsp
	#DEBUG_VALUE: intra4x4_vert_right_pred_mbaff:p_Vid <- $rbx
	#DEBUG_VALUE: intra4x4_vert_right_pred_mbaff:imgY <- [DW_OP_plus_uconst 120, DW_OP_deref] $rsp
	#DEBUG_VALUE: intra4x4_vert_right_pred_mbaff:mb_pred <- [DW_OP_plus_uconst 16, DW_OP_deref] $rsp
	#DEBUG_VALUE: intra4x4_vert_right_pred_mbaff:i <- 4
	#DEBUG_VALUE: intra4x4_vert_right_pred_mbaff:i <- 0
	#DEBUG_VALUE: intra4x4_vert_right_pred_mbaff:block_available_left <- 1
	.loc	0 0 7                           # ldecod_src/intra4x4_pred_mbaff.c:0:7
	xorl	%eax, %eax
.Ltmp308:
	.loc	0 463 32 is_stmt 1              # ldecod_src/intra4x4_pred_mbaff.c:463:32
	cmpl	$0, 48(%rsp)
	movl	$0, %ecx
	movq	128(%rsp), %r9                  # 8-byte Reload
	je	.LBB0_99
.Ltmp309:
# %bb.98:                               # %cond.true29.i242
	#DEBUG_VALUE: intra4x4_pred_mbaff:currMB <- $r12
	#DEBUG_VALUE: intra4x4_pred_mbaff:pl <- [DW_OP_LLVM_entry_value 1] $esi
	#DEBUG_VALUE: intra4x4_pred_mbaff:ioff <- [DW_OP_plus_uconst 24] [$rsp+0]
	#DEBUG_VALUE: intra4x4_pred_mbaff:joff <- [DW_OP_plus_uconst 8] [$rsp+0]
	#DEBUG_VALUE: intra4x4_pred_mbaff:img_block_x <- [DW_OP_LLVM_entry_value 1] $r8d
	#DEBUG_VALUE: intra4x4_pred_mbaff:img_block_y <- [DW_OP_LLVM_entry_value 1] $r9d
	#DEBUG_VALUE: intra4x4_pred_mbaff:p_Vid <- $rbx
	#DEBUG_VALUE: intra4x4_vert_right_pred_mbaff:pix_d <- [DW_OP_plus_uconst 136, DW_OP_deref] $rsp
	#DEBUG_VALUE: intra4x4_vert_right_pred_mbaff:currMB <- $r12
	#DEBUG_VALUE: intra4x4_vert_right_pred_mbaff:ioff <- [DW_OP_plus_uconst 24, DW_OP_deref] $rsp
	#DEBUG_VALUE: intra4x4_vert_right_pred_mbaff:joff <- [DW_OP_plus_uconst 8, DW_OP_deref] $rsp
	#DEBUG_VALUE: intra4x4_vert_right_pred_mbaff:currSlice <- [DW_OP_plus_uconst 128, DW_OP_deref] $rsp
	#DEBUG_VALUE: intra4x4_vert_right_pred_mbaff:p_Vid <- $rbx
	#DEBUG_VALUE: intra4x4_vert_right_pred_mbaff:imgY <- [DW_OP_plus_uconst 120, DW_OP_deref] $rsp
	#DEBUG_VALUE: intra4x4_vert_right_pred_mbaff:mb_pred <- [DW_OP_plus_uconst 16, DW_OP_deref] $rsp
	#DEBUG_VALUE: intra4x4_vert_right_pred_mbaff:i <- 0
	#DEBUG_VALUE: intra4x4_vert_right_pred_mbaff:block_available_left <- 1
	.loc	0 463 64 is_stmt 0              # ldecod_src/intra4x4_pred_mbaff.c:463:64
	movq	13544(%r9), %rcx
	.loc	0 463 85                        # ldecod_src/intra4x4_pred_mbaff.c:463:85
	movslq	52(%rsp), %rdx
	movzbl	(%rcx,%rdx), %ecx
	.loc	0 463 29                        # ldecod_src/intra4x4_pred_mbaff.c:463:29
	andl	$1, %ecx
.Ltmp310:
.LBB0_99:                               # %cond.end35.i246
	#DEBUG_VALUE: intra4x4_pred_mbaff:currMB <- $r12
	#DEBUG_VALUE: intra4x4_pred_mbaff:pl <- [DW_OP_LLVM_entry_value 1] $esi
	#DEBUG_VALUE: intra4x4_pred_mbaff:ioff <- [DW_OP_plus_uconst 24] [$rsp+0]
	#DEBUG_VALUE: intra4x4_pred_mbaff:joff <- [DW_OP_plus_uconst 8] [$rsp+0]
	#DEBUG_VALUE: intra4x4_pred_mbaff:img_block_x <- [DW_OP_LLVM_entry_value 1] $r8d
	#DEBUG_VALUE: intra4x4_pred_mbaff:img_block_y <- [DW_OP_LLVM_entry_value 1] $r9d
	#DEBUG_VALUE: intra4x4_pred_mbaff:p_Vid <- $rbx
	#DEBUG_VALUE: intra4x4_vert_right_pred_mbaff:pix_d <- [DW_OP_plus_uconst 136, DW_OP_deref] $rsp
	#DEBUG_VALUE: intra4x4_vert_right_pred_mbaff:currMB <- $r12
	#DEBUG_VALUE: intra4x4_vert_right_pred_mbaff:ioff <- [DW_OP_plus_uconst 24, DW_OP_deref] $rsp
	#DEBUG_VALUE: intra4x4_vert_right_pred_mbaff:joff <- [DW_OP_plus_uconst 8, DW_OP_deref] $rsp
	#DEBUG_VALUE: intra4x4_vert_right_pred_mbaff:currSlice <- [DW_OP_plus_uconst 128, DW_OP_deref] $rsp
	#DEBUG_VALUE: intra4x4_vert_right_pred_mbaff:p_Vid <- $rbx
	#DEBUG_VALUE: intra4x4_vert_right_pred_mbaff:imgY <- [DW_OP_plus_uconst 120, DW_OP_deref] $rsp
	#DEBUG_VALUE: intra4x4_vert_right_pred_mbaff:mb_pred <- [DW_OP_plus_uconst 16, DW_OP_deref] $rsp
	#DEBUG_VALUE: intra4x4_vert_right_pred_mbaff:i <- 0
	#DEBUG_VALUE: intra4x4_vert_right_pred_mbaff:block_available_left <- 1
	#DEBUG_VALUE: intra4x4_vert_right_pred_mbaff:block_available_left <- $ecx
	#DEBUG_VALUE: intra4x4_vert_right_pred_mbaff:i <- 1
	.loc	0 463 32                        # ldecod_src/intra4x4_pred_mbaff.c:463:32
	cmpl	$0, 64(%rsp)
	movq	8(%rsp), %rbx                   # 8-byte Reload
.Ltmp311:
	je	.LBB0_101
.Ltmp312:
# %bb.100:                              # %cond.true29.1.i249
	#DEBUG_VALUE: intra4x4_pred_mbaff:currMB <- $r12
	#DEBUG_VALUE: intra4x4_pred_mbaff:pl <- [DW_OP_LLVM_entry_value 1] $esi
	#DEBUG_VALUE: intra4x4_pred_mbaff:ioff <- [DW_OP_plus_uconst 24] [$rsp+0]
	#DEBUG_VALUE: intra4x4_pred_mbaff:joff <- [DW_OP_plus_uconst 8] [$rsp+0]
	#DEBUG_VALUE: intra4x4_pred_mbaff:img_block_x <- [DW_OP_LLVM_entry_value 1] $r8d
	#DEBUG_VALUE: intra4x4_pred_mbaff:img_block_y <- [DW_OP_LLVM_entry_value 1] $r9d
	#DEBUG_VALUE: intra4x4_vert_right_pred_mbaff:pix_d <- [DW_OP_plus_uconst 136, DW_OP_deref] $rsp
	#DEBUG_VALUE: intra4x4_vert_right_pred_mbaff:currMB <- $r12
	#DEBUG_VALUE: intra4x4_vert_right_pred_mbaff:ioff <- [DW_OP_plus_uconst 24, DW_OP_deref] $rsp
	#DEBUG_VALUE: intra4x4_vert_right_pred_mbaff:joff <- [DW_OP_plus_uconst 8, DW_OP_deref] $rsp
	#DEBUG_VALUE: intra4x4_vert_right_pred_mbaff:currSlice <- [DW_OP_plus_uconst 128, DW_OP_deref] $rsp
	#DEBUG_VALUE: intra4x4_vert_right_pred_mbaff:imgY <- [DW_OP_plus_uconst 120, DW_OP_deref] $rsp
	#DEBUG_VALUE: intra4x4_vert_right_pred_mbaff:mb_pred <- [DW_OP_plus_uconst 16, DW_OP_deref] $rsp
	#DEBUG_VALUE: intra4x4_vert_right_pred_mbaff:i <- 1
	#DEBUG_VALUE: intra4x4_vert_right_pred_mbaff:block_available_left <- $ecx
	.loc	0 463 64                        # ldecod_src/intra4x4_pred_mbaff.c:463:64
	movq	13544(%r9), %rax
	.loc	0 463 85                        # ldecod_src/intra4x4_pred_mbaff.c:463:85
	movslq	68(%rsp), %rdx
	.loc	0 463 53                        # ldecod_src/intra4x4_pred_mbaff.c:463:53
	movzbl	(%rax,%rdx), %eax
.Ltmp313:
.LBB0_101:                              # %cond.end35.1.i253
	#DEBUG_VALUE: intra4x4_pred_mbaff:currMB <- $r12
	#DEBUG_VALUE: intra4x4_pred_mbaff:pl <- [DW_OP_LLVM_entry_value 1] $esi
	#DEBUG_VALUE: intra4x4_pred_mbaff:ioff <- [DW_OP_plus_uconst 24] [$rsp+0]
	#DEBUG_VALUE: intra4x4_pred_mbaff:joff <- [DW_OP_plus_uconst 8] [$rsp+0]
	#DEBUG_VALUE: intra4x4_pred_mbaff:img_block_x <- [DW_OP_LLVM_entry_value 1] $r8d
	#DEBUG_VALUE: intra4x4_pred_mbaff:img_block_y <- [DW_OP_LLVM_entry_value 1] $r9d
	#DEBUG_VALUE: intra4x4_vert_right_pred_mbaff:pix_d <- [DW_OP_plus_uconst 136, DW_OP_deref] $rsp
	#DEBUG_VALUE: intra4x4_vert_right_pred_mbaff:currMB <- $r12
	#DEBUG_VALUE: intra4x4_vert_right_pred_mbaff:ioff <- [DW_OP_plus_uconst 24, DW_OP_deref] $rsp
	#DEBUG_VALUE: intra4x4_vert_right_pred_mbaff:joff <- [DW_OP_plus_uconst 8, DW_OP_deref] $rsp
	#DEBUG_VALUE: intra4x4_vert_right_pred_mbaff:currSlice <- [DW_OP_plus_uconst 128, DW_OP_deref] $rsp
	#DEBUG_VALUE: intra4x4_vert_right_pred_mbaff:imgY <- [DW_OP_plus_uconst 120, DW_OP_deref] $rsp
	#DEBUG_VALUE: intra4x4_vert_right_pred_mbaff:mb_pred <- [DW_OP_plus_uconst 16, DW_OP_deref] $rsp
	#DEBUG_VALUE: intra4x4_vert_right_pred_mbaff:i <- 1
	#DEBUG_VALUE: intra4x4_vert_right_pred_mbaff:block_available_left <- $ecx
	#DEBUG_VALUE: intra4x4_vert_right_pred_mbaff:block_available_left <- undef
	.loc	0 0 53                          # ldecod_src/intra4x4_pred_mbaff.c:0:53
	xorl	%edx, %edx
.Ltmp314:
	#DEBUG_VALUE: intra4x4_vert_right_pred_mbaff:i <- 2
	.loc	0 463 32                        # ldecod_src/intra4x4_pred_mbaff.c:463:32
	cmpl	$0, 80(%rsp)
	movl	$0, %esi
	je	.LBB0_103
.Ltmp315:
# %bb.102:                              # %cond.true29.2.i257
	#DEBUG_VALUE: intra4x4_pred_mbaff:currMB <- $r12
	#DEBUG_VALUE: intra4x4_pred_mbaff:pl <- [DW_OP_LLVM_entry_value 1] $esi
	#DEBUG_VALUE: intra4x4_pred_mbaff:ioff <- [DW_OP_plus_uconst 24] [$rsp+0]
	#DEBUG_VALUE: intra4x4_pred_mbaff:joff <- [DW_OP_plus_uconst 8] [$rsp+0]
	#DEBUG_VALUE: intra4x4_pred_mbaff:img_block_x <- [DW_OP_LLVM_entry_value 1] $r8d
	#DEBUG_VALUE: intra4x4_pred_mbaff:img_block_y <- [DW_OP_LLVM_entry_value 1] $r9d
	#DEBUG_VALUE: intra4x4_vert_right_pred_mbaff:pix_d <- [DW_OP_plus_uconst 136, DW_OP_deref] $rsp
	#DEBUG_VALUE: intra4x4_vert_right_pred_mbaff:currMB <- $r12
	#DEBUG_VALUE: intra4x4_vert_right_pred_mbaff:ioff <- [DW_OP_plus_uconst 24, DW_OP_deref] $rsp
	#DEBUG_VALUE: intra4x4_vert_right_pred_mbaff:joff <- [DW_OP_plus_uconst 8, DW_OP_deref] $rsp
	#DEBUG_VALUE: intra4x4_vert_right_pred_mbaff:currSlice <- [DW_OP_plus_uconst 128, DW_OP_deref] $rsp
	#DEBUG_VALUE: intra4x4_vert_right_pred_mbaff:imgY <- [DW_OP_plus_uconst 120, DW_OP_deref] $rsp
	#DEBUG_VALUE: intra4x4_vert_right_pred_mbaff:mb_pred <- [DW_OP_plus_uconst 16, DW_OP_deref] $rsp
	#DEBUG_VALUE: intra4x4_vert_right_pred_mbaff:i <- 2
	.loc	0 463 64                        # ldecod_src/intra4x4_pred_mbaff.c:463:64
	movq	13544(%r9), %rsi
	.loc	0 463 85                        # ldecod_src/intra4x4_pred_mbaff.c:463:85
	movslq	84(%rsp), %rdi
	.loc	0 463 53                        # ldecod_src/intra4x4_pred_mbaff.c:463:53
	movzbl	(%rsi,%rdi), %esi
.Ltmp316:
.LBB0_103:                              # %cond.end35.2.i261
	#DEBUG_VALUE: intra4x4_pred_mbaff:currMB <- $r12
	#DEBUG_VALUE: intra4x4_pred_mbaff:pl <- [DW_OP_LLVM_entry_value 1] $esi
	#DEBUG_VALUE: intra4x4_pred_mbaff:ioff <- [DW_OP_plus_uconst 24] [$rsp+0]
	#DEBUG_VALUE: intra4x4_pred_mbaff:joff <- [DW_OP_plus_uconst 8] [$rsp+0]
	#DEBUG_VALUE: intra4x4_pred_mbaff:img_block_x <- [DW_OP_LLVM_entry_value 1] $r8d
	#DEBUG_VALUE: intra4x4_pred_mbaff:img_block_y <- [DW_OP_LLVM_entry_value 1] $r9d
	#DEBUG_VALUE: intra4x4_vert_right_pred_mbaff:pix_d <- [DW_OP_plus_uconst 136, DW_OP_deref] $rsp
	#DEBUG_VALUE: intra4x4_vert_right_pred_mbaff:currMB <- $r12
	#DEBUG_VALUE: intra4x4_vert_right_pred_mbaff:ioff <- [DW_OP_plus_uconst 24, DW_OP_deref] $rsp
	#DEBUG_VALUE: intra4x4_vert_right_pred_mbaff:joff <- [DW_OP_plus_uconst 8, DW_OP_deref] $rsp
	#DEBUG_VALUE: intra4x4_vert_right_pred_mbaff:currSlice <- [DW_OP_plus_uconst 128, DW_OP_deref] $rsp
	#DEBUG_VALUE: intra4x4_vert_right_pred_mbaff:imgY <- [DW_OP_plus_uconst 120, DW_OP_deref] $rsp
	#DEBUG_VALUE: intra4x4_vert_right_pred_mbaff:mb_pred <- [DW_OP_plus_uconst 16, DW_OP_deref] $rsp
	#DEBUG_VALUE: intra4x4_vert_right_pred_mbaff:i <- 2
	#DEBUG_VALUE: intra4x4_vert_right_pred_mbaff:block_available_left <- undef
	#DEBUG_VALUE: intra4x4_vert_right_pred_mbaff:i <- 3
	.loc	0 463 32                        # ldecod_src/intra4x4_pred_mbaff.c:463:32
	cmpl	$0, 96(%rsp)
	je	.LBB0_105
.Ltmp317:
# %bb.104:                              # %cond.true29.3.i265
	#DEBUG_VALUE: intra4x4_pred_mbaff:currMB <- $r12
	#DEBUG_VALUE: intra4x4_pred_mbaff:pl <- [DW_OP_LLVM_entry_value 1] $esi
	#DEBUG_VALUE: intra4x4_pred_mbaff:ioff <- [DW_OP_plus_uconst 24] [$rsp+0]
	#DEBUG_VALUE: intra4x4_pred_mbaff:joff <- [DW_OP_plus_uconst 8] [$rsp+0]
	#DEBUG_VALUE: intra4x4_pred_mbaff:img_block_x <- [DW_OP_LLVM_entry_value 1] $r8d
	#DEBUG_VALUE: intra4x4_pred_mbaff:img_block_y <- [DW_OP_LLVM_entry_value 1] $r9d
	#DEBUG_VALUE: intra4x4_vert_right_pred_mbaff:pix_d <- [DW_OP_plus_uconst 136, DW_OP_deref] $rsp
	#DEBUG_VALUE: intra4x4_vert_right_pred_mbaff:currMB <- $r12
	#DEBUG_VALUE: intra4x4_vert_right_pred_mbaff:ioff <- [DW_OP_plus_uconst 24, DW_OP_deref] $rsp
	#DEBUG_VALUE: intra4x4_vert_right_pred_mbaff:joff <- [DW_OP_plus_uconst 8, DW_OP_deref] $rsp
	#DEBUG_VALUE: intra4x4_vert_right_pred_mbaff:currSlice <- [DW_OP_plus_uconst 128, DW_OP_deref] $rsp
	#DEBUG_VALUE: intra4x4_vert_right_pred_mbaff:imgY <- [DW_OP_plus_uconst 120, DW_OP_deref] $rsp
	#DEBUG_VALUE: intra4x4_vert_right_pred_mbaff:mb_pred <- [DW_OP_plus_uconst 16, DW_OP_deref] $rsp
	#DEBUG_VALUE: intra4x4_vert_right_pred_mbaff:i <- 3
	.loc	0 463 64                        # ldecod_src/intra4x4_pred_mbaff.c:463:64
	movq	13544(%r9), %rdx
	.loc	0 463 85                        # ldecod_src/intra4x4_pred_mbaff.c:463:85
	movslq	100(%rsp), %rdi
	.loc	0 463 53                        # ldecod_src/intra4x4_pred_mbaff.c:463:53
	movzbl	(%rdx,%rdi), %edx
.Ltmp318:
.LBB0_105:                              # %cond.end35.3.i269
	#DEBUG_VALUE: intra4x4_pred_mbaff:currMB <- $r12
	#DEBUG_VALUE: intra4x4_pred_mbaff:pl <- [DW_OP_LLVM_entry_value 1] $esi
	#DEBUG_VALUE: intra4x4_pred_mbaff:ioff <- [DW_OP_plus_uconst 24] [$rsp+0]
	#DEBUG_VALUE: intra4x4_pred_mbaff:joff <- [DW_OP_plus_uconst 8] [$rsp+0]
	#DEBUG_VALUE: intra4x4_pred_mbaff:img_block_x <- [DW_OP_LLVM_entry_value 1] $r8d
	#DEBUG_VALUE: intra4x4_pred_mbaff:img_block_y <- [DW_OP_LLVM_entry_value 1] $r9d
	#DEBUG_VALUE: intra4x4_vert_right_pred_mbaff:pix_d <- [DW_OP_plus_uconst 136, DW_OP_deref] $rsp
	#DEBUG_VALUE: intra4x4_vert_right_pred_mbaff:currMB <- $r12
	#DEBUG_VALUE: intra4x4_vert_right_pred_mbaff:ioff <- [DW_OP_plus_uconst 24, DW_OP_deref] $rsp
	#DEBUG_VALUE: intra4x4_vert_right_pred_mbaff:joff <- [DW_OP_plus_uconst 8, DW_OP_deref] $rsp
	#DEBUG_VALUE: intra4x4_vert_right_pred_mbaff:currSlice <- [DW_OP_plus_uconst 128, DW_OP_deref] $rsp
	#DEBUG_VALUE: intra4x4_vert_right_pred_mbaff:imgY <- [DW_OP_plus_uconst 120, DW_OP_deref] $rsp
	#DEBUG_VALUE: intra4x4_vert_right_pred_mbaff:mb_pred <- [DW_OP_plus_uconst 16, DW_OP_deref] $rsp
	#DEBUG_VALUE: intra4x4_vert_right_pred_mbaff:i <- 3
	#DEBUG_VALUE: intra4x4_vert_right_pred_mbaff:block_available_left <- undef
	#DEBUG_VALUE: intra4x4_vert_right_pred_mbaff:i <- 4
	.loc	0 464 32 is_stmt 1              # ldecod_src/intra4x4_pred_mbaff.c:464:32
	cmpl	$0, 32(%rsp)
	je	.LBB0_152
.Ltmp319:
# %bb.106:                              # %cond.true42.i273
	#DEBUG_VALUE: intra4x4_pred_mbaff:currMB <- $r12
	#DEBUG_VALUE: intra4x4_pred_mbaff:pl <- [DW_OP_LLVM_entry_value 1] $esi
	#DEBUG_VALUE: intra4x4_pred_mbaff:ioff <- [DW_OP_plus_uconst 24] [$rsp+0]
	#DEBUG_VALUE: intra4x4_pred_mbaff:joff <- [DW_OP_plus_uconst 8] [$rsp+0]
	#DEBUG_VALUE: intra4x4_pred_mbaff:img_block_x <- [DW_OP_LLVM_entry_value 1] $r8d
	#DEBUG_VALUE: intra4x4_pred_mbaff:img_block_y <- [DW_OP_LLVM_entry_value 1] $r9d
	#DEBUG_VALUE: intra4x4_vert_right_pred_mbaff:pix_d <- [DW_OP_plus_uconst 136, DW_OP_deref] $rsp
	#DEBUG_VALUE: intra4x4_vert_right_pred_mbaff:currMB <- $r12
	#DEBUG_VALUE: intra4x4_vert_right_pred_mbaff:ioff <- [DW_OP_plus_uconst 24, DW_OP_deref] $rsp
	#DEBUG_VALUE: intra4x4_vert_right_pred_mbaff:joff <- [DW_OP_plus_uconst 8, DW_OP_deref] $rsp
	#DEBUG_VALUE: intra4x4_vert_right_pred_mbaff:currSlice <- [DW_OP_plus_uconst 128, DW_OP_deref] $rsp
	#DEBUG_VALUE: intra4x4_vert_right_pred_mbaff:imgY <- [DW_OP_plus_uconst 120, DW_OP_deref] $rsp
	#DEBUG_VALUE: intra4x4_vert_right_pred_mbaff:mb_pred <- [DW_OP_plus_uconst 16, DW_OP_deref] $rsp
	#DEBUG_VALUE: intra4x4_vert_right_pred_mbaff:i <- 4
	.loc	0 464 61 is_stmt 0              # ldecod_src/intra4x4_pred_mbaff.c:464:61
	movq	13544(%r9), %rdi
	.loc	0 464 80                        # ldecod_src/intra4x4_pred_mbaff.c:464:80
	movslq	36(%rsp), %r8
	.loc	0 464 50                        # ldecod_src/intra4x4_pred_mbaff.c:464:50
	movsbl	(%rdi,%r8), %edi
.Ltmp320:
	#DEBUG_VALUE: intra4x4_vert_right_pred_mbaff:block_available_up <- $edi
	.loc	0 465 32 is_stmt 1              # ldecod_src/intra4x4_pred_mbaff.c:465:32
	cmpl	$0, 136(%rsp)
	jne	.LBB0_153
	jmp	.LBB0_157
.Ltmp321:
.LBB0_107:                              # %if.else.i365
	#DEBUG_VALUE: intra4x4_pred_mbaff:currMB <- $r12
	#DEBUG_VALUE: intra4x4_pred_mbaff:pl <- [DW_OP_LLVM_entry_value 1] $esi
	#DEBUG_VALUE: intra4x4_pred_mbaff:ioff <- [DW_OP_plus_uconst 24] [$rsp+0]
	#DEBUG_VALUE: intra4x4_pred_mbaff:joff <- [DW_OP_plus_uconst 8] [$rsp+0]
	#DEBUG_VALUE: intra4x4_pred_mbaff:img_block_x <- [DW_OP_LLVM_entry_value 1] $r8d
	#DEBUG_VALUE: intra4x4_pred_mbaff:img_block_y <- [DW_OP_LLVM_entry_value 1] $r9d
	#DEBUG_VALUE: intra4x4_pred_mbaff:p_Vid <- $rbx
	#DEBUG_VALUE: intra4x4_vert_right_pred_mbaff:pix_d <- [DW_OP_plus_uconst 136, DW_OP_deref] $rsp
	#DEBUG_VALUE: intra4x4_vert_right_pred_mbaff:currMB <- $r12
	#DEBUG_VALUE: intra4x4_vert_right_pred_mbaff:ioff <- [DW_OP_plus_uconst 24, DW_OP_deref] $rsp
	#DEBUG_VALUE: intra4x4_vert_right_pred_mbaff:joff <- [DW_OP_plus_uconst 8, DW_OP_deref] $rsp
	#DEBUG_VALUE: intra4x4_vert_right_pred_mbaff:currSlice <- [DW_OP_plus_uconst 128, DW_OP_deref] $rsp
	#DEBUG_VALUE: intra4x4_vert_right_pred_mbaff:p_Vid <- $rbx
	#DEBUG_VALUE: intra4x4_vert_right_pred_mbaff:imgY <- [DW_OP_plus_uconst 120, DW_OP_deref] $rsp
	#DEBUG_VALUE: intra4x4_vert_right_pred_mbaff:mb_pred <- [DW_OP_plus_uconst 16, DW_OP_deref] $rsp
	#DEBUG_VALUE: intra4x4_vert_right_pred_mbaff:i <- 4
	.loc	0 469 41                        # ldecod_src/intra4x4_pred_mbaff.c:469:41
	movl	48(%rsp), %eax
.Ltmp322:
	#DEBUG_VALUE: intra4x4_vert_right_pred_mbaff:block_available_left <- $eax
	.loc	0 470 38                        # ldecod_src/intra4x4_pred_mbaff.c:470:38
	movl	32(%rsp), %edi
.Ltmp323:
	#DEBUG_VALUE: intra4x4_vert_right_pred_mbaff:block_available_up <- $edi
	.loc	0 471 38                        # ldecod_src/intra4x4_pred_mbaff.c:471:38
	movl	136(%rsp), %ecx
.Ltmp324:
	#DEBUG_VALUE: intra4x4_vert_right_pred_mbaff:block_available_up_left <- $ecx
	.loc	0 0 38 is_stmt 0                # ldecod_src/intra4x4_pred_mbaff.c:0:38
	movq	8(%rsp), %rbx                   # 8-byte Reload
.Ltmp325:
	movq	128(%rsp), %r9                  # 8-byte Reload
	jmp	.LBB0_154
.Ltmp326:
.LBB0_108:                              # %cond.false.i708
	#DEBUG_VALUE: intra4x4_pred_mbaff:currMB <- $rdi
	#DEBUG_VALUE: intra4x4_pred_mbaff:pl <- $r15d
	#DEBUG_VALUE: intra4x4_pred_mbaff:ioff <- $r12d
	#DEBUG_VALUE: intra4x4_pred_mbaff:joff <- $r13d
	#DEBUG_VALUE: intra4x4_pred_mbaff:img_block_x <- $r8d
	#DEBUG_VALUE: intra4x4_pred_mbaff:img_block_y <- $r9d
	#DEBUG_VALUE: intra4x4_pred_mbaff:p_Vid <- $rbx
	#DEBUG_VALUE: intra4x4_pred_mbaff:predmode <- [DW_OP_LLVM_convert 64 7, DW_OP_LLVM_convert 8 7] $esi
	#DEBUG_VALUE: intra4x4_hor_down_pred_mbaff:pix_d <- [DW_OP_plus_uconst 136, DW_OP_deref] $rsp
	#DEBUG_VALUE: intra4x4_hor_down_pred_mbaff:currMB <- $rdi
	#DEBUG_VALUE: intra4x4_hor_down_pred_mbaff:pl <- $r15d
	#DEBUG_VALUE: intra4x4_hor_down_pred_mbaff:ioff <- $r12d
	#DEBUG_VALUE: intra4x4_hor_down_pred_mbaff:joff <- $r13d
	#DEBUG_VALUE: intra4x4_hor_down_pred_mbaff:currSlice <- $rdx
	#DEBUG_VALUE: intra4x4_hor_down_pred_mbaff:p_Vid <- $rbx
	.loc	0 693 90 is_stmt 1              # ldecod_src/intra4x4_pred_mbaff.c:693:90
	subq	$-128, %rax
	movq	%rax, %rcx
.Ltmp327:
.LBB0_109:                              # %cond.end.i567
	#DEBUG_VALUE: intra4x4_pred_mbaff:currMB <- $rdi
	#DEBUG_VALUE: intra4x4_pred_mbaff:pl <- $r15d
	#DEBUG_VALUE: intra4x4_pred_mbaff:ioff <- $r12d
	#DEBUG_VALUE: intra4x4_pred_mbaff:joff <- $r13d
	#DEBUG_VALUE: intra4x4_pred_mbaff:img_block_x <- $r8d
	#DEBUG_VALUE: intra4x4_pred_mbaff:img_block_y <- $r9d
	#DEBUG_VALUE: intra4x4_pred_mbaff:p_Vid <- $rbx
	#DEBUG_VALUE: intra4x4_pred_mbaff:predmode <- [DW_OP_LLVM_convert 64 7, DW_OP_LLVM_convert 8 7] $esi
	#DEBUG_VALUE: intra4x4_hor_down_pred_mbaff:pix_d <- [DW_OP_plus_uconst 136, DW_OP_deref] $rsp
	#DEBUG_VALUE: intra4x4_hor_down_pred_mbaff:currMB <- $rdi
	#DEBUG_VALUE: intra4x4_hor_down_pred_mbaff:pl <- $r15d
	#DEBUG_VALUE: intra4x4_hor_down_pred_mbaff:ioff <- $r12d
	#DEBUG_VALUE: intra4x4_hor_down_pred_mbaff:joff <- $r13d
	#DEBUG_VALUE: intra4x4_hor_down_pred_mbaff:currSlice <- $rdx
	#DEBUG_VALUE: intra4x4_hor_down_pred_mbaff:p_Vid <- $rbx
	.loc	0 693 19 is_stmt 0              # ldecod_src/intra4x4_pred_mbaff.c:693:19
	movq	(%rcx), %rax
.Ltmp328:
	#DEBUG_VALUE: intra4x4_hor_down_pred_mbaff:imgY <- $rax
	.loc	0 0 19                          # ldecod_src/intra4x4_pred_mbaff.c:0:19
	movq	%rax, 128(%rsp)                 # 8-byte Spill
.Ltmp329:
	#DEBUG_VALUE: intra4x4_hor_down_pred_mbaff:imgY <- [DW_OP_plus_uconst 128, DW_OP_deref] $rsp
	movq	%rdx, 16(%rsp)                  # 8-byte Spill
.Ltmp330:
	#DEBUG_VALUE: intra4x4_hor_down_pred_mbaff:currSlice <- [DW_OP_plus_uconst 16, DW_OP_deref] $rsp
	.loc	0 702 33 is_stmt 1              # ldecod_src/intra4x4_pred_mbaff.c:702:33
	movq	1248(%rdx), %rax
	.loc	0 702 22 is_stmt 0              # ldecod_src/intra4x4_pred_mbaff.c:702:22
	movl	%r15d, %ecx
	movq	(%rax,%rcx,8), %rax
.Ltmp331:
	#DEBUG_VALUE: intra4x4_hor_down_pred_mbaff:mb_pred <- $rax
	#DEBUG_VALUE: intra4x4_hor_down_pred_mbaff:i <- 0
	.loc	0 0 22                          # ldecod_src/intra4x4_pred_mbaff.c:0:22
	movq	%rax, 120(%rsp)                 # 8-byte Spill
.Ltmp332:
	#DEBUG_VALUE: intra4x4_hor_down_pred_mbaff:mb_pred <- [DW_OP_plus_uconst 120, DW_OP_deref] $rsp
	movq	%r12, %r14
	leal	-1(%r12), %ebp
	leaq	849124(%rbx), %r15
.Ltmp333:
	#DEBUG_VALUE: intra4x4_hor_down_pred_mbaff:pl <- $ecx
	#DEBUG_VALUE: intra4x4_pred_mbaff:pl <- $ecx
	#DEBUG_VALUE: intra4x4_hor_down_pred_mbaff:i <- 0
	leaq	48(%rsp), %r8
.Ltmp334:
	#DEBUG_VALUE: intra4x4_pred_mbaff:img_block_x <- [DW_OP_LLVM_entry_value 1] $r8d
	movq	%rdi, %r12
.Ltmp335:
	#DEBUG_VALUE: intra4x4_hor_down_pred_mbaff:ioff <- $r14d
	#DEBUG_VALUE: intra4x4_pred_mbaff:ioff <- $r14d
	.loc	0 706 5 is_stmt 1               # ldecod_src/intra4x4_pred_mbaff.c:706:5
	movl	%ebp, %esi
.Ltmp336:
	movl	%r13d, %edx
	movq	%r15, %rcx
.Ltmp337:
	#DEBUG_VALUE: intra4x4_pred_mbaff:pl <- [DW_OP_LLVM_entry_value 1] $esi
	callq	*856744(%rbx)
.Ltmp338:
	#DEBUG_VALUE: intra4x4_pred_mbaff:img_block_y <- [DW_OP_LLVM_entry_value 1] $r9d
	#DEBUG_VALUE: intra4x4_hor_down_pred_mbaff:currMB <- $r12
	#DEBUG_VALUE: intra4x4_pred_mbaff:currMB <- $r12
	#DEBUG_VALUE: intra4x4_hor_down_pred_mbaff:i <- 1
	.loc	0 706 48 is_stmt 0              # ldecod_src/intra4x4_pred_mbaff.c:706:48
	leal	1(%r13), %edx
	.loc	0 706 79                        # ldecod_src/intra4x4_pred_mbaff.c:706:79
	leaq	64(%rsp), %r8
	.loc	0 706 5                         # ldecod_src/intra4x4_pred_mbaff.c:706:5
	movq	%r12, %rdi
	movl	%ebp, %esi
	movq	%r15, %rcx
	callq	*856744(%rbx)
.Ltmp339:
	#DEBUG_VALUE: intra4x4_hor_down_pred_mbaff:i <- 2
	.loc	0 706 48                        # ldecod_src/intra4x4_pred_mbaff.c:706:48
	leal	2(%r13), %edx
	.loc	0 706 79                        # ldecod_src/intra4x4_pred_mbaff.c:706:79
	leaq	80(%rsp), %r8
	.loc	0 706 5                         # ldecod_src/intra4x4_pred_mbaff.c:706:5
	movq	%r12, %rdi
	movl	%ebp, %esi
	movq	%r15, %rcx
	callq	*856744(%rbx)
.Ltmp340:
	#DEBUG_VALUE: intra4x4_hor_down_pred_mbaff:i <- 3
	.loc	0 706 48                        # ldecod_src/intra4x4_pred_mbaff.c:706:48
	leal	3(%r13), %edx
	.loc	0 706 79                        # ldecod_src/intra4x4_pred_mbaff.c:706:79
	leaq	96(%rsp), %r8
	.loc	0 706 5                         # ldecod_src/intra4x4_pred_mbaff.c:706:5
	movq	%r12, %rdi
	movl	%ebp, %esi
	movq	%r15, %rcx
	callq	*856744(%rbx)
.Ltmp341:
	#DEBUG_VALUE: intra4x4_hor_down_pred_mbaff:i <- 4
	.loc	0 0 5                           # ldecod_src/intra4x4_pred_mbaff.c:0:5
	movq	%r13, 8(%rsp)                   # 8-byte Spill
.Ltmp342:
	#DEBUG_VALUE: intra4x4_hor_down_pred_mbaff:joff <- [DW_OP_plus_uconst 8, DW_OP_deref] $rsp
	#DEBUG_VALUE: intra4x4_pred_mbaff:joff <- [DW_OP_plus_uconst 8] [$rsp+0]
	.loc	0 709 46 is_stmt 1              # ldecod_src/intra4x4_pred_mbaff.c:709:46
	decl	%r13d
	leaq	32(%rsp), %r8
	.loc	0 709 3 is_stmt 0               # ldecod_src/intra4x4_pred_mbaff.c:709:3
	movq	%r12, %rdi
	movq	%r14, 24(%rsp)                  # 8-byte Spill
.Ltmp343:
	#DEBUG_VALUE: intra4x4_hor_down_pred_mbaff:ioff <- [DW_OP_plus_uconst 24, DW_OP_deref] $rsp
	#DEBUG_VALUE: intra4x4_pred_mbaff:ioff <- [DW_OP_plus_uconst 24] [$rsp+0]
	movl	%r14d, %esi
	movl	%r13d, %edx
	movq	%r15, %rcx
	callq	*856744(%rbx)
.Ltmp344:
	.loc	0 0 3                           # ldecod_src/intra4x4_pred_mbaff.c:0:3
	leaq	136(%rsp), %r8
	.loc	0 710 3 is_stmt 1               # ldecod_src/intra4x4_pred_mbaff.c:710:3
	movq	%r12, %rdi
	movl	%ebp, %esi
	movl	%r13d, %edx
	movq	%r15, %rcx
	callq	*856744(%rbx)
.Ltmp345:
	.loc	0 712 14                        # ldecod_src/intra4x4_pred_mbaff.c:712:14
	movq	8(%rbx), %rax
	.loc	0 712 7 is_stmt 0               # ldecod_src/intra4x4_pred_mbaff.c:712:7
	cmpl	$0, 2204(%rax)
.Ltmp346:
	.loc	0 712 7                         # ldecod_src/intra4x4_pred_mbaff.c:712:7
	je	.LBB0_120
.Ltmp347:
# %bb.110:                              # %for.cond23.preheader.i583
	#DEBUG_VALUE: intra4x4_pred_mbaff:currMB <- $r12
	#DEBUG_VALUE: intra4x4_pred_mbaff:pl <- [DW_OP_LLVM_entry_value 1] $esi
	#DEBUG_VALUE: intra4x4_pred_mbaff:ioff <- [DW_OP_plus_uconst 24] [$rsp+0]
	#DEBUG_VALUE: intra4x4_pred_mbaff:joff <- [DW_OP_plus_uconst 8] [$rsp+0]
	#DEBUG_VALUE: intra4x4_pred_mbaff:img_block_x <- [DW_OP_LLVM_entry_value 1] $r8d
	#DEBUG_VALUE: intra4x4_pred_mbaff:img_block_y <- [DW_OP_LLVM_entry_value 1] $r9d
	#DEBUG_VALUE: intra4x4_pred_mbaff:p_Vid <- $rbx
	#DEBUG_VALUE: intra4x4_hor_down_pred_mbaff:pix_d <- [DW_OP_plus_uconst 136, DW_OP_deref] $rsp
	#DEBUG_VALUE: intra4x4_hor_down_pred_mbaff:currMB <- $r12
	#DEBUG_VALUE: intra4x4_hor_down_pred_mbaff:ioff <- [DW_OP_plus_uconst 24, DW_OP_deref] $rsp
	#DEBUG_VALUE: intra4x4_hor_down_pred_mbaff:joff <- [DW_OP_plus_uconst 8, DW_OP_deref] $rsp
	#DEBUG_VALUE: intra4x4_hor_down_pred_mbaff:currSlice <- [DW_OP_plus_uconst 16, DW_OP_deref] $rsp
	#DEBUG_VALUE: intra4x4_hor_down_pred_mbaff:p_Vid <- $rbx
	#DEBUG_VALUE: intra4x4_hor_down_pred_mbaff:imgY <- [DW_OP_plus_uconst 128, DW_OP_deref] $rsp
	#DEBUG_VALUE: intra4x4_hor_down_pred_mbaff:mb_pred <- [DW_OP_plus_uconst 120, DW_OP_deref] $rsp
	#DEBUG_VALUE: intra4x4_hor_down_pred_mbaff:i <- 4
	#DEBUG_VALUE: intra4x4_hor_down_pred_mbaff:i <- 0
	#DEBUG_VALUE: intra4x4_hor_down_pred_mbaff:block_available_left <- 1
	.loc	0 0 7                           # ldecod_src/intra4x4_pred_mbaff.c:0:7
	xorl	%eax, %eax
.Ltmp348:
	.loc	0 715 32 is_stmt 1              # ldecod_src/intra4x4_pred_mbaff.c:715:32
	cmpl	$0, 48(%rsp)
	movl	$0, %ecx
	movq	16(%rsp), %r10                  # 8-byte Reload
	je	.LBB0_112
.Ltmp349:
# %bb.111:                              # %cond.true29.i586
	#DEBUG_VALUE: intra4x4_pred_mbaff:currMB <- $r12
	#DEBUG_VALUE: intra4x4_pred_mbaff:pl <- [DW_OP_LLVM_entry_value 1] $esi
	#DEBUG_VALUE: intra4x4_pred_mbaff:ioff <- [DW_OP_plus_uconst 24] [$rsp+0]
	#DEBUG_VALUE: intra4x4_pred_mbaff:joff <- [DW_OP_plus_uconst 8] [$rsp+0]
	#DEBUG_VALUE: intra4x4_pred_mbaff:img_block_x <- [DW_OP_LLVM_entry_value 1] $r8d
	#DEBUG_VALUE: intra4x4_pred_mbaff:img_block_y <- [DW_OP_LLVM_entry_value 1] $r9d
	#DEBUG_VALUE: intra4x4_pred_mbaff:p_Vid <- $rbx
	#DEBUG_VALUE: intra4x4_hor_down_pred_mbaff:pix_d <- [DW_OP_plus_uconst 136, DW_OP_deref] $rsp
	#DEBUG_VALUE: intra4x4_hor_down_pred_mbaff:currMB <- $r12
	#DEBUG_VALUE: intra4x4_hor_down_pred_mbaff:ioff <- [DW_OP_plus_uconst 24, DW_OP_deref] $rsp
	#DEBUG_VALUE: intra4x4_hor_down_pred_mbaff:joff <- [DW_OP_plus_uconst 8, DW_OP_deref] $rsp
	#DEBUG_VALUE: intra4x4_hor_down_pred_mbaff:currSlice <- [DW_OP_plus_uconst 16, DW_OP_deref] $rsp
	#DEBUG_VALUE: intra4x4_hor_down_pred_mbaff:p_Vid <- $rbx
	#DEBUG_VALUE: intra4x4_hor_down_pred_mbaff:imgY <- [DW_OP_plus_uconst 128, DW_OP_deref] $rsp
	#DEBUG_VALUE: intra4x4_hor_down_pred_mbaff:mb_pred <- [DW_OP_plus_uconst 120, DW_OP_deref] $rsp
	#DEBUG_VALUE: intra4x4_hor_down_pred_mbaff:i <- 0
	#DEBUG_VALUE: intra4x4_hor_down_pred_mbaff:block_available_left <- 1
	.loc	0 715 64 is_stmt 0              # ldecod_src/intra4x4_pred_mbaff.c:715:64
	movq	13544(%r10), %rcx
	.loc	0 715 85                        # ldecod_src/intra4x4_pred_mbaff.c:715:85
	movslq	52(%rsp), %rdx
	movzbl	(%rcx,%rdx), %ecx
	.loc	0 715 29                        # ldecod_src/intra4x4_pred_mbaff.c:715:29
	andl	$1, %ecx
.Ltmp350:
.LBB0_112:                              # %cond.end35.i590
	#DEBUG_VALUE: intra4x4_pred_mbaff:currMB <- $r12
	#DEBUG_VALUE: intra4x4_pred_mbaff:pl <- [DW_OP_LLVM_entry_value 1] $esi
	#DEBUG_VALUE: intra4x4_pred_mbaff:ioff <- [DW_OP_plus_uconst 24] [$rsp+0]
	#DEBUG_VALUE: intra4x4_pred_mbaff:joff <- [DW_OP_plus_uconst 8] [$rsp+0]
	#DEBUG_VALUE: intra4x4_pred_mbaff:img_block_x <- [DW_OP_LLVM_entry_value 1] $r8d
	#DEBUG_VALUE: intra4x4_pred_mbaff:img_block_y <- [DW_OP_LLVM_entry_value 1] $r9d
	#DEBUG_VALUE: intra4x4_pred_mbaff:p_Vid <- $rbx
	#DEBUG_VALUE: intra4x4_hor_down_pred_mbaff:pix_d <- [DW_OP_plus_uconst 136, DW_OP_deref] $rsp
	#DEBUG_VALUE: intra4x4_hor_down_pred_mbaff:currMB <- $r12
	#DEBUG_VALUE: intra4x4_hor_down_pred_mbaff:ioff <- [DW_OP_plus_uconst 24, DW_OP_deref] $rsp
	#DEBUG_VALUE: intra4x4_hor_down_pred_mbaff:joff <- [DW_OP_plus_uconst 8, DW_OP_deref] $rsp
	#DEBUG_VALUE: intra4x4_hor_down_pred_mbaff:currSlice <- [DW_OP_plus_uconst 16, DW_OP_deref] $rsp
	#DEBUG_VALUE: intra4x4_hor_down_pred_mbaff:p_Vid <- $rbx
	#DEBUG_VALUE: intra4x4_hor_down_pred_mbaff:imgY <- [DW_OP_plus_uconst 128, DW_OP_deref] $rsp
	#DEBUG_VALUE: intra4x4_hor_down_pred_mbaff:mb_pred <- [DW_OP_plus_uconst 120, DW_OP_deref] $rsp
	#DEBUG_VALUE: intra4x4_hor_down_pred_mbaff:i <- 0
	#DEBUG_VALUE: intra4x4_hor_down_pred_mbaff:block_available_left <- 1
	#DEBUG_VALUE: intra4x4_hor_down_pred_mbaff:block_available_left <- $ecx
	#DEBUG_VALUE: intra4x4_hor_down_pred_mbaff:i <- 1
	.loc	0 715 32                        # ldecod_src/intra4x4_pred_mbaff.c:715:32
	cmpl	$0, 64(%rsp)
	movq	8(%rsp), %r9                    # 8-byte Reload
	je	.LBB0_114
.Ltmp351:
# %bb.113:                              # %cond.true29.1.i593
	#DEBUG_VALUE: intra4x4_pred_mbaff:currMB <- $r12
	#DEBUG_VALUE: intra4x4_pred_mbaff:pl <- [DW_OP_LLVM_entry_value 1] $esi
	#DEBUG_VALUE: intra4x4_pred_mbaff:ioff <- [DW_OP_plus_uconst 24] [$rsp+0]
	#DEBUG_VALUE: intra4x4_pred_mbaff:joff <- [DW_OP_plus_uconst 8] [$rsp+0]
	#DEBUG_VALUE: intra4x4_pred_mbaff:img_block_x <- [DW_OP_LLVM_entry_value 1] $r8d
	#DEBUG_VALUE: intra4x4_pred_mbaff:img_block_y <- [DW_OP_LLVM_entry_value 1] $r9d
	#DEBUG_VALUE: intra4x4_pred_mbaff:p_Vid <- $rbx
	#DEBUG_VALUE: intra4x4_hor_down_pred_mbaff:pix_d <- [DW_OP_plus_uconst 136, DW_OP_deref] $rsp
	#DEBUG_VALUE: intra4x4_hor_down_pred_mbaff:currMB <- $r12
	#DEBUG_VALUE: intra4x4_hor_down_pred_mbaff:ioff <- [DW_OP_plus_uconst 24, DW_OP_deref] $rsp
	#DEBUG_VALUE: intra4x4_hor_down_pred_mbaff:joff <- [DW_OP_plus_uconst 8, DW_OP_deref] $rsp
	#DEBUG_VALUE: intra4x4_hor_down_pred_mbaff:currSlice <- [DW_OP_plus_uconst 16, DW_OP_deref] $rsp
	#DEBUG_VALUE: intra4x4_hor_down_pred_mbaff:p_Vid <- $rbx
	#DEBUG_VALUE: intra4x4_hor_down_pred_mbaff:imgY <- [DW_OP_plus_uconst 128, DW_OP_deref] $rsp
	#DEBUG_VALUE: intra4x4_hor_down_pred_mbaff:mb_pred <- [DW_OP_plus_uconst 120, DW_OP_deref] $rsp
	#DEBUG_VALUE: intra4x4_hor_down_pred_mbaff:i <- 1
	#DEBUG_VALUE: intra4x4_hor_down_pred_mbaff:block_available_left <- $ecx
	.loc	0 715 64                        # ldecod_src/intra4x4_pred_mbaff.c:715:64
	movq	13544(%r10), %rax
	.loc	0 715 85                        # ldecod_src/intra4x4_pred_mbaff.c:715:85
	movslq	68(%rsp), %rdx
	.loc	0 715 53                        # ldecod_src/intra4x4_pred_mbaff.c:715:53
	movzbl	(%rax,%rdx), %eax
.Ltmp352:
.LBB0_114:                              # %cond.end35.1.i597
	#DEBUG_VALUE: intra4x4_pred_mbaff:currMB <- $r12
	#DEBUG_VALUE: intra4x4_pred_mbaff:pl <- [DW_OP_LLVM_entry_value 1] $esi
	#DEBUG_VALUE: intra4x4_pred_mbaff:ioff <- [DW_OP_plus_uconst 24] [$rsp+0]
	#DEBUG_VALUE: intra4x4_pred_mbaff:joff <- [DW_OP_plus_uconst 8] [$rsp+0]
	#DEBUG_VALUE: intra4x4_pred_mbaff:img_block_x <- [DW_OP_LLVM_entry_value 1] $r8d
	#DEBUG_VALUE: intra4x4_pred_mbaff:img_block_y <- [DW_OP_LLVM_entry_value 1] $r9d
	#DEBUG_VALUE: intra4x4_pred_mbaff:p_Vid <- $rbx
	#DEBUG_VALUE: intra4x4_hor_down_pred_mbaff:pix_d <- [DW_OP_plus_uconst 136, DW_OP_deref] $rsp
	#DEBUG_VALUE: intra4x4_hor_down_pred_mbaff:currMB <- $r12
	#DEBUG_VALUE: intra4x4_hor_down_pred_mbaff:ioff <- [DW_OP_plus_uconst 24, DW_OP_deref] $rsp
	#DEBUG_VALUE: intra4x4_hor_down_pred_mbaff:joff <- [DW_OP_plus_uconst 8, DW_OP_deref] $rsp
	#DEBUG_VALUE: intra4x4_hor_down_pred_mbaff:currSlice <- [DW_OP_plus_uconst 16, DW_OP_deref] $rsp
	#DEBUG_VALUE: intra4x4_hor_down_pred_mbaff:p_Vid <- $rbx
	#DEBUG_VALUE: intra4x4_hor_down_pred_mbaff:imgY <- [DW_OP_plus_uconst 128, DW_OP_deref] $rsp
	#DEBUG_VALUE: intra4x4_hor_down_pred_mbaff:mb_pred <- [DW_OP_plus_uconst 120, DW_OP_deref] $rsp
	#DEBUG_VALUE: intra4x4_hor_down_pred_mbaff:i <- 1
	#DEBUG_VALUE: intra4x4_hor_down_pred_mbaff:block_available_left <- $ecx
	#DEBUG_VALUE: intra4x4_hor_down_pred_mbaff:block_available_left <- undef
	.loc	0 0 53                          # ldecod_src/intra4x4_pred_mbaff.c:0:53
	xorl	%edx, %edx
.Ltmp353:
	#DEBUG_VALUE: intra4x4_hor_down_pred_mbaff:i <- 2
	.loc	0 715 32                        # ldecod_src/intra4x4_pred_mbaff.c:715:32
	cmpl	$0, 80(%rsp)
	movl	$0, %esi
	je	.LBB0_116
.Ltmp354:
# %bb.115:                              # %cond.true29.2.i601
	#DEBUG_VALUE: intra4x4_pred_mbaff:currMB <- $r12
	#DEBUG_VALUE: intra4x4_pred_mbaff:pl <- [DW_OP_LLVM_entry_value 1] $esi
	#DEBUG_VALUE: intra4x4_pred_mbaff:ioff <- [DW_OP_plus_uconst 24] [$rsp+0]
	#DEBUG_VALUE: intra4x4_pred_mbaff:joff <- [DW_OP_plus_uconst 8] [$rsp+0]
	#DEBUG_VALUE: intra4x4_pred_mbaff:img_block_x <- [DW_OP_LLVM_entry_value 1] $r8d
	#DEBUG_VALUE: intra4x4_pred_mbaff:img_block_y <- [DW_OP_LLVM_entry_value 1] $r9d
	#DEBUG_VALUE: intra4x4_pred_mbaff:p_Vid <- $rbx
	#DEBUG_VALUE: intra4x4_hor_down_pred_mbaff:pix_d <- [DW_OP_plus_uconst 136, DW_OP_deref] $rsp
	#DEBUG_VALUE: intra4x4_hor_down_pred_mbaff:currMB <- $r12
	#DEBUG_VALUE: intra4x4_hor_down_pred_mbaff:ioff <- [DW_OP_plus_uconst 24, DW_OP_deref] $rsp
	#DEBUG_VALUE: intra4x4_hor_down_pred_mbaff:joff <- [DW_OP_plus_uconst 8, DW_OP_deref] $rsp
	#DEBUG_VALUE: intra4x4_hor_down_pred_mbaff:currSlice <- [DW_OP_plus_uconst 16, DW_OP_deref] $rsp
	#DEBUG_VALUE: intra4x4_hor_down_pred_mbaff:p_Vid <- $rbx
	#DEBUG_VALUE: intra4x4_hor_down_pred_mbaff:imgY <- [DW_OP_plus_uconst 128, DW_OP_deref] $rsp
	#DEBUG_VALUE: intra4x4_hor_down_pred_mbaff:mb_pred <- [DW_OP_plus_uconst 120, DW_OP_deref] $rsp
	#DEBUG_VALUE: intra4x4_hor_down_pred_mbaff:i <- 2
	.loc	0 715 64                        # ldecod_src/intra4x4_pred_mbaff.c:715:64
	movq	13544(%r10), %rsi
	.loc	0 715 85                        # ldecod_src/intra4x4_pred_mbaff.c:715:85
	movslq	84(%rsp), %rdi
	.loc	0 715 53                        # ldecod_src/intra4x4_pred_mbaff.c:715:53
	movzbl	(%rsi,%rdi), %esi
.Ltmp355:
.LBB0_116:                              # %cond.end35.2.i605
	#DEBUG_VALUE: intra4x4_pred_mbaff:currMB <- $r12
	#DEBUG_VALUE: intra4x4_pred_mbaff:pl <- [DW_OP_LLVM_entry_value 1] $esi
	#DEBUG_VALUE: intra4x4_pred_mbaff:ioff <- [DW_OP_plus_uconst 24] [$rsp+0]
	#DEBUG_VALUE: intra4x4_pred_mbaff:joff <- [DW_OP_plus_uconst 8] [$rsp+0]
	#DEBUG_VALUE: intra4x4_pred_mbaff:img_block_x <- [DW_OP_LLVM_entry_value 1] $r8d
	#DEBUG_VALUE: intra4x4_pred_mbaff:img_block_y <- [DW_OP_LLVM_entry_value 1] $r9d
	#DEBUG_VALUE: intra4x4_pred_mbaff:p_Vid <- $rbx
	#DEBUG_VALUE: intra4x4_hor_down_pred_mbaff:pix_d <- [DW_OP_plus_uconst 136, DW_OP_deref] $rsp
	#DEBUG_VALUE: intra4x4_hor_down_pred_mbaff:currMB <- $r12
	#DEBUG_VALUE: intra4x4_hor_down_pred_mbaff:ioff <- [DW_OP_plus_uconst 24, DW_OP_deref] $rsp
	#DEBUG_VALUE: intra4x4_hor_down_pred_mbaff:joff <- [DW_OP_plus_uconst 8, DW_OP_deref] $rsp
	#DEBUG_VALUE: intra4x4_hor_down_pred_mbaff:currSlice <- [DW_OP_plus_uconst 16, DW_OP_deref] $rsp
	#DEBUG_VALUE: intra4x4_hor_down_pred_mbaff:p_Vid <- $rbx
	#DEBUG_VALUE: intra4x4_hor_down_pred_mbaff:imgY <- [DW_OP_plus_uconst 128, DW_OP_deref] $rsp
	#DEBUG_VALUE: intra4x4_hor_down_pred_mbaff:mb_pred <- [DW_OP_plus_uconst 120, DW_OP_deref] $rsp
	#DEBUG_VALUE: intra4x4_hor_down_pred_mbaff:i <- 2
	#DEBUG_VALUE: intra4x4_hor_down_pred_mbaff:block_available_left <- undef
	#DEBUG_VALUE: intra4x4_hor_down_pred_mbaff:i <- 3
	.loc	0 715 32                        # ldecod_src/intra4x4_pred_mbaff.c:715:32
	cmpl	$0, 96(%rsp)
	je	.LBB0_118
.Ltmp356:
# %bb.117:                              # %cond.true29.3.i609
	#DEBUG_VALUE: intra4x4_pred_mbaff:currMB <- $r12
	#DEBUG_VALUE: intra4x4_pred_mbaff:pl <- [DW_OP_LLVM_entry_value 1] $esi
	#DEBUG_VALUE: intra4x4_pred_mbaff:ioff <- [DW_OP_plus_uconst 24] [$rsp+0]
	#DEBUG_VALUE: intra4x4_pred_mbaff:joff <- [DW_OP_plus_uconst 8] [$rsp+0]
	#DEBUG_VALUE: intra4x4_pred_mbaff:img_block_x <- [DW_OP_LLVM_entry_value 1] $r8d
	#DEBUG_VALUE: intra4x4_pred_mbaff:img_block_y <- [DW_OP_LLVM_entry_value 1] $r9d
	#DEBUG_VALUE: intra4x4_pred_mbaff:p_Vid <- $rbx
	#DEBUG_VALUE: intra4x4_hor_down_pred_mbaff:pix_d <- [DW_OP_plus_uconst 136, DW_OP_deref] $rsp
	#DEBUG_VALUE: intra4x4_hor_down_pred_mbaff:currMB <- $r12
	#DEBUG_VALUE: intra4x4_hor_down_pred_mbaff:ioff <- [DW_OP_plus_uconst 24, DW_OP_deref] $rsp
	#DEBUG_VALUE: intra4x4_hor_down_pred_mbaff:joff <- [DW_OP_plus_uconst 8, DW_OP_deref] $rsp
	#DEBUG_VALUE: intra4x4_hor_down_pred_mbaff:currSlice <- [DW_OP_plus_uconst 16, DW_OP_deref] $rsp
	#DEBUG_VALUE: intra4x4_hor_down_pred_mbaff:p_Vid <- $rbx
	#DEBUG_VALUE: intra4x4_hor_down_pred_mbaff:imgY <- [DW_OP_plus_uconst 128, DW_OP_deref] $rsp
	#DEBUG_VALUE: intra4x4_hor_down_pred_mbaff:mb_pred <- [DW_OP_plus_uconst 120, DW_OP_deref] $rsp
	#DEBUG_VALUE: intra4x4_hor_down_pred_mbaff:i <- 3
	.loc	0 715 64                        # ldecod_src/intra4x4_pred_mbaff.c:715:64
	movq	13544(%r10), %rdx
	.loc	0 715 85                        # ldecod_src/intra4x4_pred_mbaff.c:715:85
	movslq	100(%rsp), %rdi
	.loc	0 715 53                        # ldecod_src/intra4x4_pred_mbaff.c:715:53
	movzbl	(%rdx,%rdi), %edx
.Ltmp357:
.LBB0_118:                              # %cond.end35.3.i613
	#DEBUG_VALUE: intra4x4_pred_mbaff:currMB <- $r12
	#DEBUG_VALUE: intra4x4_pred_mbaff:pl <- [DW_OP_LLVM_entry_value 1] $esi
	#DEBUG_VALUE: intra4x4_pred_mbaff:ioff <- [DW_OP_plus_uconst 24] [$rsp+0]
	#DEBUG_VALUE: intra4x4_pred_mbaff:joff <- [DW_OP_plus_uconst 8] [$rsp+0]
	#DEBUG_VALUE: intra4x4_pred_mbaff:img_block_x <- [DW_OP_LLVM_entry_value 1] $r8d
	#DEBUG_VALUE: intra4x4_pred_mbaff:img_block_y <- [DW_OP_LLVM_entry_value 1] $r9d
	#DEBUG_VALUE: intra4x4_pred_mbaff:p_Vid <- $rbx
	#DEBUG_VALUE: intra4x4_hor_down_pred_mbaff:pix_d <- [DW_OP_plus_uconst 136, DW_OP_deref] $rsp
	#DEBUG_VALUE: intra4x4_hor_down_pred_mbaff:currMB <- $r12
	#DEBUG_VALUE: intra4x4_hor_down_pred_mbaff:ioff <- [DW_OP_plus_uconst 24, DW_OP_deref] $rsp
	#DEBUG_VALUE: intra4x4_hor_down_pred_mbaff:joff <- [DW_OP_plus_uconst 8, DW_OP_deref] $rsp
	#DEBUG_VALUE: intra4x4_hor_down_pred_mbaff:currSlice <- [DW_OP_plus_uconst 16, DW_OP_deref] $rsp
	#DEBUG_VALUE: intra4x4_hor_down_pred_mbaff:p_Vid <- $rbx
	#DEBUG_VALUE: intra4x4_hor_down_pred_mbaff:imgY <- [DW_OP_plus_uconst 128, DW_OP_deref] $rsp
	#DEBUG_VALUE: intra4x4_hor_down_pred_mbaff:mb_pred <- [DW_OP_plus_uconst 120, DW_OP_deref] $rsp
	#DEBUG_VALUE: intra4x4_hor_down_pred_mbaff:i <- 3
	#DEBUG_VALUE: intra4x4_hor_down_pred_mbaff:block_available_left <- undef
	#DEBUG_VALUE: intra4x4_hor_down_pred_mbaff:i <- 4
	.loc	0 716 32 is_stmt 1              # ldecod_src/intra4x4_pred_mbaff.c:716:32
	cmpl	$0, 32(%rsp)
	je	.LBB0_159
.Ltmp358:
# %bb.119:                              # %cond.true42.i617
	#DEBUG_VALUE: intra4x4_pred_mbaff:currMB <- $r12
	#DEBUG_VALUE: intra4x4_pred_mbaff:pl <- [DW_OP_LLVM_entry_value 1] $esi
	#DEBUG_VALUE: intra4x4_pred_mbaff:ioff <- [DW_OP_plus_uconst 24] [$rsp+0]
	#DEBUG_VALUE: intra4x4_pred_mbaff:joff <- [DW_OP_plus_uconst 8] [$rsp+0]
	#DEBUG_VALUE: intra4x4_pred_mbaff:img_block_x <- [DW_OP_LLVM_entry_value 1] $r8d
	#DEBUG_VALUE: intra4x4_pred_mbaff:img_block_y <- [DW_OP_LLVM_entry_value 1] $r9d
	#DEBUG_VALUE: intra4x4_pred_mbaff:p_Vid <- $rbx
	#DEBUG_VALUE: intra4x4_hor_down_pred_mbaff:pix_d <- [DW_OP_plus_uconst 136, DW_OP_deref] $rsp
	#DEBUG_VALUE: intra4x4_hor_down_pred_mbaff:currMB <- $r12
	#DEBUG_VALUE: intra4x4_hor_down_pred_mbaff:ioff <- [DW_OP_plus_uconst 24, DW_OP_deref] $rsp
	#DEBUG_VALUE: intra4x4_hor_down_pred_mbaff:joff <- [DW_OP_plus_uconst 8, DW_OP_deref] $rsp
	#DEBUG_VALUE: intra4x4_hor_down_pred_mbaff:currSlice <- [DW_OP_plus_uconst 16, DW_OP_deref] $rsp
	#DEBUG_VALUE: intra4x4_hor_down_pred_mbaff:p_Vid <- $rbx
	#DEBUG_VALUE: intra4x4_hor_down_pred_mbaff:imgY <- [DW_OP_plus_uconst 128, DW_OP_deref] $rsp
	#DEBUG_VALUE: intra4x4_hor_down_pred_mbaff:mb_pred <- [DW_OP_plus_uconst 120, DW_OP_deref] $rsp
	#DEBUG_VALUE: intra4x4_hor_down_pred_mbaff:i <- 4
	.loc	0 716 61 is_stmt 0              # ldecod_src/intra4x4_pred_mbaff.c:716:61
	movq	13544(%r10), %rdi
	.loc	0 716 80                        # ldecod_src/intra4x4_pred_mbaff.c:716:80
	movslq	36(%rsp), %r8
	.loc	0 716 50                        # ldecod_src/intra4x4_pred_mbaff.c:716:50
	movsbl	(%rdi,%r8), %edi
.Ltmp359:
	#DEBUG_VALUE: intra4x4_hor_down_pred_mbaff:block_available_up <- $edi
	.loc	0 717 32 is_stmt 1              # ldecod_src/intra4x4_pred_mbaff.c:717:32
	cmpl	$0, 136(%rsp)
	jne	.LBB0_160
	jmp	.LBB0_165
.Ltmp360:
.LBB0_120:                              # %if.else.i707
	#DEBUG_VALUE: intra4x4_pred_mbaff:currMB <- $r12
	#DEBUG_VALUE: intra4x4_pred_mbaff:pl <- [DW_OP_LLVM_entry_value 1] $esi
	#DEBUG_VALUE: intra4x4_pred_mbaff:ioff <- [DW_OP_plus_uconst 24] [$rsp+0]
	#DEBUG_VALUE: intra4x4_pred_mbaff:joff <- [DW_OP_plus_uconst 8] [$rsp+0]
	#DEBUG_VALUE: intra4x4_pred_mbaff:img_block_x <- [DW_OP_LLVM_entry_value 1] $r8d
	#DEBUG_VALUE: intra4x4_pred_mbaff:img_block_y <- [DW_OP_LLVM_entry_value 1] $r9d
	#DEBUG_VALUE: intra4x4_pred_mbaff:p_Vid <- $rbx
	#DEBUG_VALUE: intra4x4_hor_down_pred_mbaff:pix_d <- [DW_OP_plus_uconst 136, DW_OP_deref] $rsp
	#DEBUG_VALUE: intra4x4_hor_down_pred_mbaff:currMB <- $r12
	#DEBUG_VALUE: intra4x4_hor_down_pred_mbaff:ioff <- [DW_OP_plus_uconst 24, DW_OP_deref] $rsp
	#DEBUG_VALUE: intra4x4_hor_down_pred_mbaff:joff <- [DW_OP_plus_uconst 8, DW_OP_deref] $rsp
	#DEBUG_VALUE: intra4x4_hor_down_pred_mbaff:currSlice <- [DW_OP_plus_uconst 16, DW_OP_deref] $rsp
	#DEBUG_VALUE: intra4x4_hor_down_pred_mbaff:p_Vid <- $rbx
	#DEBUG_VALUE: intra4x4_hor_down_pred_mbaff:imgY <- [DW_OP_plus_uconst 128, DW_OP_deref] $rsp
	#DEBUG_VALUE: intra4x4_hor_down_pred_mbaff:mb_pred <- [DW_OP_plus_uconst 120, DW_OP_deref] $rsp
	#DEBUG_VALUE: intra4x4_hor_down_pred_mbaff:i <- 4
	.loc	0 721 41                        # ldecod_src/intra4x4_pred_mbaff.c:721:41
	movl	48(%rsp), %eax
.Ltmp361:
	#DEBUG_VALUE: intra4x4_hor_down_pred_mbaff:block_available_left <- $eax
	.loc	0 722 38                        # ldecod_src/intra4x4_pred_mbaff.c:722:38
	movl	32(%rsp), %edi
.Ltmp362:
	#DEBUG_VALUE: intra4x4_hor_down_pred_mbaff:block_available_up <- $edi
	.loc	0 723 38                        # ldecod_src/intra4x4_pred_mbaff.c:723:38
	movl	136(%rsp), %ecx
.Ltmp363:
	#DEBUG_VALUE: intra4x4_hor_down_pred_mbaff:block_available_up_left <- $ecx
	.loc	0 0 38 is_stmt 0                # ldecod_src/intra4x4_pred_mbaff.c:0:38
	movq	8(%rsp), %r9                    # 8-byte Reload
	movq	16(%rsp), %r10                  # 8-byte Reload
	jmp	.LBB0_161
.Ltmp364:
.LBB0_121:                              # %cond.false.i554
	#DEBUG_VALUE: intra4x4_pred_mbaff:currMB <- $rdi
	#DEBUG_VALUE: intra4x4_pred_mbaff:pl <- $r15d
	#DEBUG_VALUE: intra4x4_pred_mbaff:ioff <- $r12d
	#DEBUG_VALUE: intra4x4_pred_mbaff:joff <- [DW_OP_plus_uconst 8] [$rsp+0]
	#DEBUG_VALUE: intra4x4_pred_mbaff:img_block_x <- $r8d
	#DEBUG_VALUE: intra4x4_pred_mbaff:img_block_y <- $r9d
	#DEBUG_VALUE: intra4x4_pred_mbaff:p_Vid <- $rbx
	#DEBUG_VALUE: intra4x4_pred_mbaff:predmode <- [DW_OP_LLVM_convert 64 7, DW_OP_LLVM_convert 8 7] $esi
	#DEBUG_VALUE: intra4x4_hor_up_pred_mbaff:pix_a <- [DW_OP_plus_uconst 48, DW_OP_deref] $rsp
	#DEBUG_VALUE: intra4x4_hor_up_pred_mbaff:currMB <- $rdi
	#DEBUG_VALUE: intra4x4_hor_up_pred_mbaff:pl <- $r15d
	#DEBUG_VALUE: intra4x4_hor_up_pred_mbaff:ioff <- $r12d
	#DEBUG_VALUE: intra4x4_hor_up_pred_mbaff:joff <- [DW_OP_plus_uconst 8, DW_OP_deref] $rsp
	#DEBUG_VALUE: intra4x4_hor_up_pred_mbaff:currSlice <- $r13
	#DEBUG_VALUE: intra4x4_hor_up_pred_mbaff:p_Vid <- $rbx
	.loc	0 619 90 is_stmt 1              # ldecod_src/intra4x4_pred_mbaff.c:619:90
	subq	$-128, %rax
	movq	%rax, %rcx
.Ltmp365:
.LBB0_122:                              # %cond.end.i472
	#DEBUG_VALUE: intra4x4_pred_mbaff:currMB <- $rdi
	#DEBUG_VALUE: intra4x4_pred_mbaff:pl <- $r15d
	#DEBUG_VALUE: intra4x4_pred_mbaff:ioff <- $r12d
	#DEBUG_VALUE: intra4x4_pred_mbaff:joff <- [DW_OP_plus_uconst 8] [$rsp+0]
	#DEBUG_VALUE: intra4x4_pred_mbaff:img_block_x <- $r8d
	#DEBUG_VALUE: intra4x4_pred_mbaff:img_block_y <- $r9d
	#DEBUG_VALUE: intra4x4_pred_mbaff:p_Vid <- $rbx
	#DEBUG_VALUE: intra4x4_pred_mbaff:predmode <- [DW_OP_LLVM_convert 64 7, DW_OP_LLVM_convert 8 7] $esi
	#DEBUG_VALUE: intra4x4_hor_up_pred_mbaff:pix_a <- [DW_OP_plus_uconst 48, DW_OP_deref] $rsp
	#DEBUG_VALUE: intra4x4_hor_up_pred_mbaff:currMB <- $rdi
	#DEBUG_VALUE: intra4x4_hor_up_pred_mbaff:pl <- $r15d
	#DEBUG_VALUE: intra4x4_hor_up_pred_mbaff:ioff <- $r12d
	#DEBUG_VALUE: intra4x4_hor_up_pred_mbaff:joff <- [DW_OP_plus_uconst 8, DW_OP_deref] $rsp
	#DEBUG_VALUE: intra4x4_hor_up_pred_mbaff:currSlice <- $r13
	#DEBUG_VALUE: intra4x4_hor_up_pred_mbaff:p_Vid <- $rbx
	.loc	0 619 19 is_stmt 0              # ldecod_src/intra4x4_pred_mbaff.c:619:19
	movq	(%rcx), %rax
.Ltmp366:
	#DEBUG_VALUE: intra4x4_hor_up_pred_mbaff:imgY <- $rax
	.loc	0 0 19                          # ldecod_src/intra4x4_pred_mbaff.c:0:19
	movq	%rax, 120(%rsp)                 # 8-byte Spill
.Ltmp367:
	#DEBUG_VALUE: intra4x4_hor_up_pred_mbaff:imgY <- [DW_OP_plus_uconst 120, DW_OP_deref] $rsp
	.loc	0 625 33 is_stmt 1              # ldecod_src/intra4x4_pred_mbaff.c:625:33
	movq	1248(%r13), %rax
	.loc	0 625 22 is_stmt 0              # ldecod_src/intra4x4_pred_mbaff.c:625:22
	movl	%r15d, %ecx
	movq	(%rax,%rcx,8), %rax
.Ltmp368:
	#DEBUG_VALUE: intra4x4_hor_up_pred_mbaff:mb_pred <- $rax
	#DEBUG_VALUE: intra4x4_hor_up_pred_mbaff:i <- 0
	.loc	0 0 22                          # ldecod_src/intra4x4_pred_mbaff.c:0:22
	movq	%rax, 16(%rsp)                  # 8-byte Spill
.Ltmp369:
	#DEBUG_VALUE: intra4x4_hor_up_pred_mbaff:mb_pred <- [DW_OP_plus_uconst 16, DW_OP_deref] $rsp
	movq	%r12, 24(%rsp)                  # 8-byte Spill
.Ltmp370:
	#DEBUG_VALUE: intra4x4_hor_up_pred_mbaff:ioff <- [DW_OP_plus_uconst 24, DW_OP_deref] $rsp
	#DEBUG_VALUE: intra4x4_pred_mbaff:ioff <- [DW_OP_plus_uconst 24] [$rsp+0]
	leal	-1(%r12), %ebp
	leaq	849124(%rbx), %r15
.Ltmp371:
	#DEBUG_VALUE: intra4x4_hor_up_pred_mbaff:pl <- $ecx
	#DEBUG_VALUE: intra4x4_pred_mbaff:pl <- $ecx
	#DEBUG_VALUE: intra4x4_hor_up_pred_mbaff:i <- 0
	leaq	48(%rsp), %r8
.Ltmp372:
	#DEBUG_VALUE: intra4x4_pred_mbaff:img_block_x <- [DW_OP_LLVM_entry_value 1] $r8d
	movq	%rdi, %r12
.Ltmp373:
	.loc	0 629 5 is_stmt 1               # ldecod_src/intra4x4_pred_mbaff.c:629:5
	movl	%ebp, %esi
.Ltmp374:
	.loc	0 0 5 is_stmt 0                 # ldecod_src/intra4x4_pred_mbaff.c:0:5
	movq	8(%rsp), %r14                   # 8-byte Reload
	.loc	0 629 5                         # ldecod_src/intra4x4_pred_mbaff.c:629:5
	movl	%r14d, %edx
	movq	%r15, %rcx
.Ltmp375:
	#DEBUG_VALUE: intra4x4_pred_mbaff:pl <- [DW_OP_LLVM_entry_value 1] $esi
	callq	*856744(%rbx)
.Ltmp376:
	#DEBUG_VALUE: intra4x4_pred_mbaff:img_block_y <- [DW_OP_LLVM_entry_value 1] $r9d
	#DEBUG_VALUE: intra4x4_hor_up_pred_mbaff:currMB <- $r12
	#DEBUG_VALUE: intra4x4_pred_mbaff:currMB <- $r12
	#DEBUG_VALUE: intra4x4_hor_up_pred_mbaff:i <- 1
	.loc	0 629 48                        # ldecod_src/intra4x4_pred_mbaff.c:629:48
	leal	1(%r14), %edx
	.loc	0 629 79                        # ldecod_src/intra4x4_pred_mbaff.c:629:79
	leaq	64(%rsp), %r8
	.loc	0 629 5                         # ldecod_src/intra4x4_pred_mbaff.c:629:5
	movq	%r12, %rdi
	movl	%ebp, %esi
	movq	%r15, %rcx
	callq	*856744(%rbx)
.Ltmp377:
	#DEBUG_VALUE: intra4x4_hor_up_pred_mbaff:i <- 2
	.loc	0 629 48                        # ldecod_src/intra4x4_pred_mbaff.c:629:48
	leal	2(%r14), %edx
	.loc	0 629 79                        # ldecod_src/intra4x4_pred_mbaff.c:629:79
	leaq	80(%rsp), %r8
	.loc	0 629 5                         # ldecod_src/intra4x4_pred_mbaff.c:629:5
	movq	%r12, %rdi
	movl	%ebp, %esi
	movq	%r15, %rcx
	callq	*856744(%rbx)
.Ltmp378:
	#DEBUG_VALUE: intra4x4_hor_up_pred_mbaff:i <- 3
	.loc	0 629 48                        # ldecod_src/intra4x4_pred_mbaff.c:629:48
	leal	3(%r14), %edx
	.loc	0 629 79                        # ldecod_src/intra4x4_pred_mbaff.c:629:79
	leaq	96(%rsp), %r8
	.loc	0 629 5                         # ldecod_src/intra4x4_pred_mbaff.c:629:5
	movq	%r12, %rdi
	movl	%ebp, %esi
	movq	%r15, %rcx
	callq	*856744(%rbx)
.Ltmp379:
	#DEBUG_VALUE: intra4x4_hor_up_pred_mbaff:i <- 4
	.loc	0 632 14 is_stmt 1              # ldecod_src/intra4x4_pred_mbaff.c:632:14
	movq	8(%rbx), %rax
	.loc	0 632 7 is_stmt 0               # ldecod_src/intra4x4_pred_mbaff.c:632:7
	cmpl	$0, 2204(%rax)
.Ltmp380:
	.loc	0 632 7                         # ldecod_src/intra4x4_pred_mbaff.c:632:7
	je	.LBB0_133
.Ltmp381:
# %bb.123:                              # %for.cond12.preheader.i487
	#DEBUG_VALUE: intra4x4_pred_mbaff:currMB <- $r12
	#DEBUG_VALUE: intra4x4_pred_mbaff:pl <- [DW_OP_LLVM_entry_value 1] $esi
	#DEBUG_VALUE: intra4x4_pred_mbaff:ioff <- [DW_OP_plus_uconst 24] [$rsp+0]
	#DEBUG_VALUE: intra4x4_pred_mbaff:joff <- [DW_OP_plus_uconst 8] [$rsp+0]
	#DEBUG_VALUE: intra4x4_pred_mbaff:img_block_x <- [DW_OP_LLVM_entry_value 1] $r8d
	#DEBUG_VALUE: intra4x4_pred_mbaff:img_block_y <- [DW_OP_LLVM_entry_value 1] $r9d
	#DEBUG_VALUE: intra4x4_pred_mbaff:p_Vid <- $rbx
	#DEBUG_VALUE: intra4x4_hor_up_pred_mbaff:pix_a <- [DW_OP_plus_uconst 48, DW_OP_deref] $rsp
	#DEBUG_VALUE: intra4x4_hor_up_pred_mbaff:currMB <- $r12
	#DEBUG_VALUE: intra4x4_hor_up_pred_mbaff:ioff <- [DW_OP_plus_uconst 24, DW_OP_deref] $rsp
	#DEBUG_VALUE: intra4x4_hor_up_pred_mbaff:joff <- [DW_OP_plus_uconst 8, DW_OP_deref] $rsp
	#DEBUG_VALUE: intra4x4_hor_up_pred_mbaff:currSlice <- $r13
	#DEBUG_VALUE: intra4x4_hor_up_pred_mbaff:p_Vid <- $rbx
	#DEBUG_VALUE: intra4x4_hor_up_pred_mbaff:imgY <- [DW_OP_plus_uconst 120, DW_OP_deref] $rsp
	#DEBUG_VALUE: intra4x4_hor_up_pred_mbaff:mb_pred <- [DW_OP_plus_uconst 16, DW_OP_deref] $rsp
	#DEBUG_VALUE: intra4x4_hor_up_pred_mbaff:i <- 4
	#DEBUG_VALUE: intra4x4_hor_up_pred_mbaff:i <- 0
	#DEBUG_VALUE: intra4x4_hor_up_pred_mbaff:block_available_left <- 1
	.loc	0 0 7                           # ldecod_src/intra4x4_pred_mbaff.c:0:7
	xorl	%eax, %eax
.Ltmp382:
	.loc	0 635 32 is_stmt 1              # ldecod_src/intra4x4_pred_mbaff.c:635:32
	cmpl	$0, 48(%rsp)
	movl	$0, %ecx
	je	.LBB0_125
.Ltmp383:
# %bb.124:                              # %cond.true18.i490
	#DEBUG_VALUE: intra4x4_pred_mbaff:currMB <- $r12
	#DEBUG_VALUE: intra4x4_pred_mbaff:pl <- [DW_OP_LLVM_entry_value 1] $esi
	#DEBUG_VALUE: intra4x4_pred_mbaff:ioff <- [DW_OP_plus_uconst 24] [$rsp+0]
	#DEBUG_VALUE: intra4x4_pred_mbaff:joff <- [DW_OP_plus_uconst 8] [$rsp+0]
	#DEBUG_VALUE: intra4x4_pred_mbaff:img_block_x <- [DW_OP_LLVM_entry_value 1] $r8d
	#DEBUG_VALUE: intra4x4_pred_mbaff:img_block_y <- [DW_OP_LLVM_entry_value 1] $r9d
	#DEBUG_VALUE: intra4x4_pred_mbaff:p_Vid <- $rbx
	#DEBUG_VALUE: intra4x4_hor_up_pred_mbaff:pix_a <- [DW_OP_plus_uconst 48, DW_OP_deref] $rsp
	#DEBUG_VALUE: intra4x4_hor_up_pred_mbaff:currMB <- $r12
	#DEBUG_VALUE: intra4x4_hor_up_pred_mbaff:ioff <- [DW_OP_plus_uconst 24, DW_OP_deref] $rsp
	#DEBUG_VALUE: intra4x4_hor_up_pred_mbaff:joff <- [DW_OP_plus_uconst 8, DW_OP_deref] $rsp
	#DEBUG_VALUE: intra4x4_hor_up_pred_mbaff:currSlice <- $r13
	#DEBUG_VALUE: intra4x4_hor_up_pred_mbaff:p_Vid <- $rbx
	#DEBUG_VALUE: intra4x4_hor_up_pred_mbaff:imgY <- [DW_OP_plus_uconst 120, DW_OP_deref] $rsp
	#DEBUG_VALUE: intra4x4_hor_up_pred_mbaff:mb_pred <- [DW_OP_plus_uconst 16, DW_OP_deref] $rsp
	#DEBUG_VALUE: intra4x4_hor_up_pred_mbaff:i <- 0
	#DEBUG_VALUE: intra4x4_hor_up_pred_mbaff:block_available_left <- 1
	.loc	0 635 64 is_stmt 0              # ldecod_src/intra4x4_pred_mbaff.c:635:64
	movq	13544(%r13), %rcx
	.loc	0 635 85                        # ldecod_src/intra4x4_pred_mbaff.c:635:85
	movslq	52(%rsp), %rdx
	movzbl	(%rcx,%rdx), %ecx
	.loc	0 635 29                        # ldecod_src/intra4x4_pred_mbaff.c:635:29
	andl	$1, %ecx
.Ltmp384:
.LBB0_125:                              # %cond.end24.i494
	#DEBUG_VALUE: intra4x4_pred_mbaff:currMB <- $r12
	#DEBUG_VALUE: intra4x4_pred_mbaff:pl <- [DW_OP_LLVM_entry_value 1] $esi
	#DEBUG_VALUE: intra4x4_pred_mbaff:ioff <- [DW_OP_plus_uconst 24] [$rsp+0]
	#DEBUG_VALUE: intra4x4_pred_mbaff:joff <- [DW_OP_plus_uconst 8] [$rsp+0]
	#DEBUG_VALUE: intra4x4_pred_mbaff:img_block_x <- [DW_OP_LLVM_entry_value 1] $r8d
	#DEBUG_VALUE: intra4x4_pred_mbaff:img_block_y <- [DW_OP_LLVM_entry_value 1] $r9d
	#DEBUG_VALUE: intra4x4_pred_mbaff:p_Vid <- $rbx
	#DEBUG_VALUE: intra4x4_hor_up_pred_mbaff:pix_a <- [DW_OP_plus_uconst 48, DW_OP_deref] $rsp
	#DEBUG_VALUE: intra4x4_hor_up_pred_mbaff:currMB <- $r12
	#DEBUG_VALUE: intra4x4_hor_up_pred_mbaff:ioff <- [DW_OP_plus_uconst 24, DW_OP_deref] $rsp
	#DEBUG_VALUE: intra4x4_hor_up_pred_mbaff:joff <- [DW_OP_plus_uconst 8, DW_OP_deref] $rsp
	#DEBUG_VALUE: intra4x4_hor_up_pred_mbaff:currSlice <- $r13
	#DEBUG_VALUE: intra4x4_hor_up_pred_mbaff:p_Vid <- $rbx
	#DEBUG_VALUE: intra4x4_hor_up_pred_mbaff:imgY <- [DW_OP_plus_uconst 120, DW_OP_deref] $rsp
	#DEBUG_VALUE: intra4x4_hor_up_pred_mbaff:mb_pred <- [DW_OP_plus_uconst 16, DW_OP_deref] $rsp
	#DEBUG_VALUE: intra4x4_hor_up_pred_mbaff:i <- 0
	#DEBUG_VALUE: intra4x4_hor_up_pred_mbaff:block_available_left <- 1
	#DEBUG_VALUE: intra4x4_hor_up_pred_mbaff:block_available_left <- $ecx
	#DEBUG_VALUE: intra4x4_hor_up_pred_mbaff:i <- 1
	.loc	0 635 32                        # ldecod_src/intra4x4_pred_mbaff.c:635:32
	cmpl	$0, 64(%rsp)
	movq	24(%rsp), %rbx                  # 8-byte Reload
.Ltmp385:
	je	.LBB0_127
.Ltmp386:
# %bb.126:                              # %cond.true18.1.i497
	#DEBUG_VALUE: intra4x4_pred_mbaff:currMB <- $r12
	#DEBUG_VALUE: intra4x4_pred_mbaff:pl <- [DW_OP_LLVM_entry_value 1] $esi
	#DEBUG_VALUE: intra4x4_pred_mbaff:ioff <- [DW_OP_plus_uconst 24] [$rsp+0]
	#DEBUG_VALUE: intra4x4_pred_mbaff:joff <- [DW_OP_plus_uconst 8] [$rsp+0]
	#DEBUG_VALUE: intra4x4_pred_mbaff:img_block_x <- [DW_OP_LLVM_entry_value 1] $r8d
	#DEBUG_VALUE: intra4x4_pred_mbaff:img_block_y <- [DW_OP_LLVM_entry_value 1] $r9d
	#DEBUG_VALUE: intra4x4_hor_up_pred_mbaff:pix_a <- [DW_OP_plus_uconst 48, DW_OP_deref] $rsp
	#DEBUG_VALUE: intra4x4_hor_up_pred_mbaff:currMB <- $r12
	#DEBUG_VALUE: intra4x4_hor_up_pred_mbaff:ioff <- [DW_OP_plus_uconst 24, DW_OP_deref] $rsp
	#DEBUG_VALUE: intra4x4_hor_up_pred_mbaff:joff <- [DW_OP_plus_uconst 8, DW_OP_deref] $rsp
	#DEBUG_VALUE: intra4x4_hor_up_pred_mbaff:currSlice <- $r13
	#DEBUG_VALUE: intra4x4_hor_up_pred_mbaff:imgY <- [DW_OP_plus_uconst 120, DW_OP_deref] $rsp
	#DEBUG_VALUE: intra4x4_hor_up_pred_mbaff:mb_pred <- [DW_OP_plus_uconst 16, DW_OP_deref] $rsp
	#DEBUG_VALUE: intra4x4_hor_up_pred_mbaff:i <- 1
	#DEBUG_VALUE: intra4x4_hor_up_pred_mbaff:block_available_left <- $ecx
	.loc	0 635 64                        # ldecod_src/intra4x4_pred_mbaff.c:635:64
	movq	13544(%r13), %rax
	.loc	0 635 85                        # ldecod_src/intra4x4_pred_mbaff.c:635:85
	movslq	68(%rsp), %rdx
	.loc	0 635 53                        # ldecod_src/intra4x4_pred_mbaff.c:635:53
	movzbl	(%rax,%rdx), %eax
.Ltmp387:
.LBB0_127:                              # %cond.end24.1.i501
	#DEBUG_VALUE: intra4x4_pred_mbaff:currMB <- $r12
	#DEBUG_VALUE: intra4x4_pred_mbaff:pl <- [DW_OP_LLVM_entry_value 1] $esi
	#DEBUG_VALUE: intra4x4_pred_mbaff:ioff <- [DW_OP_plus_uconst 24] [$rsp+0]
	#DEBUG_VALUE: intra4x4_pred_mbaff:joff <- [DW_OP_plus_uconst 8] [$rsp+0]
	#DEBUG_VALUE: intra4x4_pred_mbaff:img_block_x <- [DW_OP_LLVM_entry_value 1] $r8d
	#DEBUG_VALUE: intra4x4_pred_mbaff:img_block_y <- [DW_OP_LLVM_entry_value 1] $r9d
	#DEBUG_VALUE: intra4x4_hor_up_pred_mbaff:pix_a <- [DW_OP_plus_uconst 48, DW_OP_deref] $rsp
	#DEBUG_VALUE: intra4x4_hor_up_pred_mbaff:currMB <- $r12
	#DEBUG_VALUE: intra4x4_hor_up_pred_mbaff:ioff <- [DW_OP_plus_uconst 24, DW_OP_deref] $rsp
	#DEBUG_VALUE: intra4x4_hor_up_pred_mbaff:joff <- [DW_OP_plus_uconst 8, DW_OP_deref] $rsp
	#DEBUG_VALUE: intra4x4_hor_up_pred_mbaff:currSlice <- $r13
	#DEBUG_VALUE: intra4x4_hor_up_pred_mbaff:imgY <- [DW_OP_plus_uconst 120, DW_OP_deref] $rsp
	#DEBUG_VALUE: intra4x4_hor_up_pred_mbaff:mb_pred <- [DW_OP_plus_uconst 16, DW_OP_deref] $rsp
	#DEBUG_VALUE: intra4x4_hor_up_pred_mbaff:i <- 1
	#DEBUG_VALUE: intra4x4_hor_up_pred_mbaff:block_available_left <- $ecx
	.loc	0 635 29                        # ldecod_src/intra4x4_pred_mbaff.c:635:29
	andl	%ecx, %eax
.Ltmp388:
	#DEBUG_VALUE: intra4x4_hor_up_pred_mbaff:block_available_left <- $eax
	.loc	0 0 29                          # ldecod_src/intra4x4_pred_mbaff.c:0:29
	xorl	%ecx, %ecx
.Ltmp389:
	#DEBUG_VALUE: intra4x4_hor_up_pred_mbaff:i <- 2
	.loc	0 635 32                        # ldecod_src/intra4x4_pred_mbaff.c:635:32
	cmpl	$0, 80(%rsp)
	movl	$0, %edx
	je	.LBB0_129
.Ltmp390:
# %bb.128:                              # %cond.true18.2.i505
	#DEBUG_VALUE: intra4x4_pred_mbaff:currMB <- $r12
	#DEBUG_VALUE: intra4x4_pred_mbaff:pl <- [DW_OP_LLVM_entry_value 1] $esi
	#DEBUG_VALUE: intra4x4_pred_mbaff:ioff <- [DW_OP_plus_uconst 24] [$rsp+0]
	#DEBUG_VALUE: intra4x4_pred_mbaff:joff <- [DW_OP_plus_uconst 8] [$rsp+0]
	#DEBUG_VALUE: intra4x4_pred_mbaff:img_block_x <- [DW_OP_LLVM_entry_value 1] $r8d
	#DEBUG_VALUE: intra4x4_pred_mbaff:img_block_y <- [DW_OP_LLVM_entry_value 1] $r9d
	#DEBUG_VALUE: intra4x4_hor_up_pred_mbaff:pix_a <- [DW_OP_plus_uconst 48, DW_OP_deref] $rsp
	#DEBUG_VALUE: intra4x4_hor_up_pred_mbaff:currMB <- $r12
	#DEBUG_VALUE: intra4x4_hor_up_pred_mbaff:ioff <- [DW_OP_plus_uconst 24, DW_OP_deref] $rsp
	#DEBUG_VALUE: intra4x4_hor_up_pred_mbaff:joff <- [DW_OP_plus_uconst 8, DW_OP_deref] $rsp
	#DEBUG_VALUE: intra4x4_hor_up_pred_mbaff:currSlice <- $r13
	#DEBUG_VALUE: intra4x4_hor_up_pred_mbaff:imgY <- [DW_OP_plus_uconst 120, DW_OP_deref] $rsp
	#DEBUG_VALUE: intra4x4_hor_up_pred_mbaff:mb_pred <- [DW_OP_plus_uconst 16, DW_OP_deref] $rsp
	#DEBUG_VALUE: intra4x4_hor_up_pred_mbaff:i <- 2
	#DEBUG_VALUE: intra4x4_hor_up_pred_mbaff:block_available_left <- $eax
	.loc	0 635 64                        # ldecod_src/intra4x4_pred_mbaff.c:635:64
	movq	13544(%r13), %rdx
	.loc	0 635 85                        # ldecod_src/intra4x4_pred_mbaff.c:635:85
	movslq	84(%rsp), %rsi
	.loc	0 635 53                        # ldecod_src/intra4x4_pred_mbaff.c:635:53
	movzbl	(%rdx,%rsi), %edx
.Ltmp391:
.LBB0_129:                              # %cond.end24.2.i509
	#DEBUG_VALUE: intra4x4_pred_mbaff:currMB <- $r12
	#DEBUG_VALUE: intra4x4_pred_mbaff:pl <- [DW_OP_LLVM_entry_value 1] $esi
	#DEBUG_VALUE: intra4x4_pred_mbaff:ioff <- [DW_OP_plus_uconst 24] [$rsp+0]
	#DEBUG_VALUE: intra4x4_pred_mbaff:joff <- [DW_OP_plus_uconst 8] [$rsp+0]
	#DEBUG_VALUE: intra4x4_pred_mbaff:img_block_x <- [DW_OP_LLVM_entry_value 1] $r8d
	#DEBUG_VALUE: intra4x4_pred_mbaff:img_block_y <- [DW_OP_LLVM_entry_value 1] $r9d
	#DEBUG_VALUE: intra4x4_hor_up_pred_mbaff:pix_a <- [DW_OP_plus_uconst 48, DW_OP_deref] $rsp
	#DEBUG_VALUE: intra4x4_hor_up_pred_mbaff:currMB <- $r12
	#DEBUG_VALUE: intra4x4_hor_up_pred_mbaff:ioff <- [DW_OP_plus_uconst 24, DW_OP_deref] $rsp
	#DEBUG_VALUE: intra4x4_hor_up_pred_mbaff:joff <- [DW_OP_plus_uconst 8, DW_OP_deref] $rsp
	#DEBUG_VALUE: intra4x4_hor_up_pred_mbaff:currSlice <- $r13
	#DEBUG_VALUE: intra4x4_hor_up_pred_mbaff:imgY <- [DW_OP_plus_uconst 120, DW_OP_deref] $rsp
	#DEBUG_VALUE: intra4x4_hor_up_pred_mbaff:mb_pred <- [DW_OP_plus_uconst 16, DW_OP_deref] $rsp
	#DEBUG_VALUE: intra4x4_hor_up_pred_mbaff:i <- 2
	#DEBUG_VALUE: intra4x4_hor_up_pred_mbaff:block_available_left <- $eax
	.loc	0 635 29                        # ldecod_src/intra4x4_pred_mbaff.c:635:29
	andl	%edx, %eax
.Ltmp392:
	#DEBUG_VALUE: intra4x4_hor_up_pred_mbaff:block_available_left <- $eax
	#DEBUG_VALUE: intra4x4_hor_up_pred_mbaff:i <- 3
	.loc	0 635 32                        # ldecod_src/intra4x4_pred_mbaff.c:635:32
	cmpl	$0, 96(%rsp)
	je	.LBB0_131
.Ltmp393:
# %bb.130:                              # %cond.true18.3.i513
	#DEBUG_VALUE: intra4x4_pred_mbaff:currMB <- $r12
	#DEBUG_VALUE: intra4x4_pred_mbaff:pl <- [DW_OP_LLVM_entry_value 1] $esi
	#DEBUG_VALUE: intra4x4_pred_mbaff:ioff <- [DW_OP_plus_uconst 24] [$rsp+0]
	#DEBUG_VALUE: intra4x4_pred_mbaff:joff <- [DW_OP_plus_uconst 8] [$rsp+0]
	#DEBUG_VALUE: intra4x4_pred_mbaff:img_block_x <- [DW_OP_LLVM_entry_value 1] $r8d
	#DEBUG_VALUE: intra4x4_pred_mbaff:img_block_y <- [DW_OP_LLVM_entry_value 1] $r9d
	#DEBUG_VALUE: intra4x4_hor_up_pred_mbaff:pix_a <- [DW_OP_plus_uconst 48, DW_OP_deref] $rsp
	#DEBUG_VALUE: intra4x4_hor_up_pred_mbaff:currMB <- $r12
	#DEBUG_VALUE: intra4x4_hor_up_pred_mbaff:ioff <- [DW_OP_plus_uconst 24, DW_OP_deref] $rsp
	#DEBUG_VALUE: intra4x4_hor_up_pred_mbaff:joff <- [DW_OP_plus_uconst 8, DW_OP_deref] $rsp
	#DEBUG_VALUE: intra4x4_hor_up_pred_mbaff:currSlice <- $r13
	#DEBUG_VALUE: intra4x4_hor_up_pred_mbaff:imgY <- [DW_OP_plus_uconst 120, DW_OP_deref] $rsp
	#DEBUG_VALUE: intra4x4_hor_up_pred_mbaff:mb_pred <- [DW_OP_plus_uconst 16, DW_OP_deref] $rsp
	#DEBUG_VALUE: intra4x4_hor_up_pred_mbaff:i <- 3
	#DEBUG_VALUE: intra4x4_hor_up_pred_mbaff:block_available_left <- $eax
	.loc	0 635 64                        # ldecod_src/intra4x4_pred_mbaff.c:635:64
	movq	13544(%r13), %rcx
	.loc	0 635 85                        # ldecod_src/intra4x4_pred_mbaff.c:635:85
	movslq	100(%rsp), %rdx
	.loc	0 635 53                        # ldecod_src/intra4x4_pred_mbaff.c:635:53
	movzbl	(%rcx,%rdx), %ecx
.Ltmp394:
.LBB0_131:                              # %cond.end24.3.i517
	#DEBUG_VALUE: intra4x4_pred_mbaff:currMB <- $r12
	#DEBUG_VALUE: intra4x4_pred_mbaff:pl <- [DW_OP_LLVM_entry_value 1] $esi
	#DEBUG_VALUE: intra4x4_pred_mbaff:ioff <- [DW_OP_plus_uconst 24] [$rsp+0]
	#DEBUG_VALUE: intra4x4_pred_mbaff:joff <- [DW_OP_plus_uconst 8] [$rsp+0]
	#DEBUG_VALUE: intra4x4_pred_mbaff:img_block_x <- [DW_OP_LLVM_entry_value 1] $r8d
	#DEBUG_VALUE: intra4x4_pred_mbaff:img_block_y <- [DW_OP_LLVM_entry_value 1] $r9d
	#DEBUG_VALUE: intra4x4_hor_up_pred_mbaff:pix_a <- [DW_OP_plus_uconst 48, DW_OP_deref] $rsp
	#DEBUG_VALUE: intra4x4_hor_up_pred_mbaff:currMB <- $r12
	#DEBUG_VALUE: intra4x4_hor_up_pred_mbaff:ioff <- [DW_OP_plus_uconst 24, DW_OP_deref] $rsp
	#DEBUG_VALUE: intra4x4_hor_up_pred_mbaff:joff <- [DW_OP_plus_uconst 8, DW_OP_deref] $rsp
	#DEBUG_VALUE: intra4x4_hor_up_pred_mbaff:currSlice <- $r13
	#DEBUG_VALUE: intra4x4_hor_up_pred_mbaff:imgY <- [DW_OP_plus_uconst 120, DW_OP_deref] $rsp
	#DEBUG_VALUE: intra4x4_hor_up_pred_mbaff:mb_pred <- [DW_OP_plus_uconst 16, DW_OP_deref] $rsp
	#DEBUG_VALUE: intra4x4_hor_up_pred_mbaff:i <- 3
	#DEBUG_VALUE: intra4x4_hor_up_pred_mbaff:block_available_left <- $eax
	.loc	0 635 29                        # ldecod_src/intra4x4_pred_mbaff.c:635:29
	andl	%ecx, %eax
.Ltmp395:
	#DEBUG_VALUE: intra4x4_hor_up_pred_mbaff:block_available_left <- $eax
	#DEBUG_VALUE: intra4x4_hor_up_pred_mbaff:i <- 4
	#DEBUG_VALUE: intra4x4_hor_up_pred_mbaff:block_available_left <- $eax
	.loc	0 642 8 is_stmt 1               # ldecod_src/intra4x4_pred_mbaff.c:642:8
	testl	%eax, %eax
.Ltmp396:
	.loc	0 642 7 is_stmt 0               # ldecod_src/intra4x4_pred_mbaff.c:642:7
	je	.LBB0_134
.Ltmp397:
.LBB0_132:                              # %if.else33.i
	#DEBUG_VALUE: intra4x4_pred_mbaff:currMB <- $r12
	#DEBUG_VALUE: intra4x4_pred_mbaff:pl <- [DW_OP_LLVM_entry_value 1] $esi
	#DEBUG_VALUE: intra4x4_pred_mbaff:ioff <- [DW_OP_plus_uconst 24] [$rsp+0]
	#DEBUG_VALUE: intra4x4_pred_mbaff:joff <- [DW_OP_plus_uconst 8] [$rsp+0]
	#DEBUG_VALUE: intra4x4_pred_mbaff:img_block_x <- [DW_OP_LLVM_entry_value 1] $r8d
	#DEBUG_VALUE: intra4x4_pred_mbaff:img_block_y <- [DW_OP_LLVM_entry_value 1] $r9d
	#DEBUG_VALUE: intra4x4_hor_up_pred_mbaff:pix_a <- [DW_OP_plus_uconst 48, DW_OP_deref] $rsp
	#DEBUG_VALUE: intra4x4_hor_up_pred_mbaff:currMB <- $r12
	#DEBUG_VALUE: intra4x4_hor_up_pred_mbaff:ioff <- [DW_OP_plus_uconst 24, DW_OP_deref] $rsp
	#DEBUG_VALUE: intra4x4_hor_up_pred_mbaff:joff <- [DW_OP_plus_uconst 8, DW_OP_deref] $rsp
	#DEBUG_VALUE: intra4x4_hor_up_pred_mbaff:currSlice <- $r13
	#DEBUG_VALUE: intra4x4_hor_up_pred_mbaff:imgY <- [DW_OP_plus_uconst 120, DW_OP_deref] $rsp
	#DEBUG_VALUE: intra4x4_hor_up_pred_mbaff:mb_pred <- [DW_OP_plus_uconst 16, DW_OP_deref] $rsp
	#DEBUG_VALUE: intra4x4_hor_up_pred_mbaff:i <- 4
	#DEBUG_VALUE: intra4x4_hor_up_pred_mbaff:block_available_left <- $eax
	.loc	0 0 0                           # ldecod_src/intra4x4_pred_mbaff.c:0:0
	movslq	8(%rsp), %rax                   # 4-byte Folded Reload
.Ltmp398:
	.loc	0 649 32 is_stmt 1              # ldecod_src/intra4x4_pred_mbaff.c:649:32
	movswq	62(%rsp), %rcx
	movq	120(%rsp), %r9                  # 8-byte Reload
	.loc	0 649 18 is_stmt 0              # ldecod_src/intra4x4_pred_mbaff.c:649:18
	movq	(%r9,%rcx,8), %rcx
	.loc	0 649 48                        # ldecod_src/intra4x4_pred_mbaff.c:649:48
	movswq	60(%rsp), %rdx
	.loc	0 649 18                        # ldecod_src/intra4x4_pred_mbaff.c:649:18
	movzwl	(%rcx,%rdx,2), %edi
.Ltmp399:
	#DEBUG_VALUE: p_i <- $edi
	.loc	0 650 32 is_stmt 1              # ldecod_src/intra4x4_pred_mbaff.c:650:32
	movswq	78(%rsp), %rcx
	.loc	0 650 18 is_stmt 0              # ldecod_src/intra4x4_pred_mbaff.c:650:18
	movq	(%r9,%rcx,8), %rcx
	.loc	0 650 48                        # ldecod_src/intra4x4_pred_mbaff.c:650:48
	movswq	76(%rsp), %rdx
	.loc	0 650 18                        # ldecod_src/intra4x4_pred_mbaff.c:650:18
	movzwl	(%rcx,%rdx,2), %r8d
.Ltmp400:
	#DEBUG_VALUE: p_j <- $r8d
	.loc	0 651 32 is_stmt 1              # ldecod_src/intra4x4_pred_mbaff.c:651:32
	movswq	94(%rsp), %rcx
	.loc	0 651 18 is_stmt 0              # ldecod_src/intra4x4_pred_mbaff.c:651:18
	movq	(%r9,%rcx,8), %rcx
	.loc	0 651 48                        # ldecod_src/intra4x4_pred_mbaff.c:651:48
	movswq	92(%rsp), %rdx
	.loc	0 651 18                        # ldecod_src/intra4x4_pred_mbaff.c:651:18
	movzwl	(%rcx,%rdx,2), %esi
.Ltmp401:
	#DEBUG_VALUE: p_k <- $esi
	.loc	0 652 32 is_stmt 1              # ldecod_src/intra4x4_pred_mbaff.c:652:32
	movswq	110(%rsp), %rcx
	.loc	0 652 18 is_stmt 0              # ldecod_src/intra4x4_pred_mbaff.c:652:18
	movq	(%r9,%rcx,8), %rcx
	.loc	0 652 48                        # ldecod_src/intra4x4_pred_mbaff.c:652:48
	movswq	108(%rsp), %rdx
	.loc	0 652 18                        # ldecod_src/intra4x4_pred_mbaff.c:652:18
	movzwl	(%rcx,%rdx,2), %ecx
.Ltmp402:
	#DEBUG_VALUE: p_l <- $ecx
	.loc	0 654 46 is_stmt 1              # ldecod_src/intra4x4_pred_mbaff.c:654:46
	leal	(%r8,%rdi), %edx
	incl	%edx
	shrl	%edx
.Ltmp403:
	#DEBUG_VALUE: PredPixel <- [DW_OP_LLVM_fragment 0 16] $dx
	.loc	0 655 43                        # ldecod_src/intra4x4_pred_mbaff.c:655:43
	leal	(%rdi,%r8,2), %edi
.Ltmp404:
	.loc	0 655 49 is_stmt 0              # ldecod_src/intra4x4_pred_mbaff.c:655:49
	addl	%esi, %edi
	addl	$2, %edi
	.loc	0 655 54                        # ldecod_src/intra4x4_pred_mbaff.c:655:54
	shrl	$2, %edi
.Ltmp405:
	#DEBUG_VALUE: PredPixel <- [DW_OP_LLVM_fragment 16 16] $di
	.loc	0 656 46 is_stmt 1              # ldecod_src/intra4x4_pred_mbaff.c:656:46
	leal	(%r8,%rsi), %r9d
	incl	%r9d
	shrl	%r9d
.Ltmp406:
	#DEBUG_VALUE: PredPixel <- [DW_OP_LLVM_fragment 32 16] $r9w
	.loc	0 657 35                        # ldecod_src/intra4x4_pred_mbaff.c:657:35
	leal	(%r8,%rsi,2), %r8d
.Ltmp407:
	.loc	0 657 49 is_stmt 0              # ldecod_src/intra4x4_pred_mbaff.c:657:49
	addl	%ecx, %r8d
	addl	$2, %r8d
	.loc	0 657 54                        # ldecod_src/intra4x4_pred_mbaff.c:657:54
	shrl	$2, %r8d
.Ltmp408:
	#DEBUG_VALUE: PredPixel <- [DW_OP_LLVM_fragment 48 16] $r8w
	.loc	0 658 46 is_stmt 1              # ldecod_src/intra4x4_pred_mbaff.c:658:46
	leal	(%rsi,%rcx), %r10d
	incl	%r10d
	shrl	%r10d
.Ltmp409:
	#DEBUG_VALUE: PredPixel <- [DW_OP_LLVM_fragment 64 16] $r10w
	.loc	0 659 43                        # ldecod_src/intra4x4_pred_mbaff.c:659:43
	addl	%ecx, %esi
.Ltmp410:
	addl	$2, %esi
	.loc	0 659 49 is_stmt 0              # ldecod_src/intra4x4_pred_mbaff.c:659:49
	leal	(%rsi,%rcx,2), %esi
	.loc	0 659 54                        # ldecod_src/intra4x4_pred_mbaff.c:659:54
	shrl	$2, %esi
.Ltmp411:
	#DEBUG_VALUE: PredPixel <- [DW_OP_LLVM_fragment 80 16] $si
	#DEBUG_VALUE: intra4x4_hor_up_pred_mbaff:joff <- [DW_OP_plus_uconst 8, DW_OP_deref, DW_OP_plus_uconst 1, DW_OP_stack_value] $rsp
	#DEBUG_VALUE: PredPixel <- [DW_OP_LLVM_fragment 96 16] $ecx
	#DEBUG_VALUE: PredPixel <- [DW_OP_LLVM_fragment 112 16] $ecx
	#DEBUG_VALUE: PredPixel <- [DW_OP_LLVM_fragment 128 16] $ecx
	#DEBUG_VALUE: PredPixel <- [DW_OP_LLVM_fragment 144 16] $ecx
	.loc	0 0 54                          # ldecod_src/intra4x4_pred_mbaff.c:0:54
	movq	16(%rsp), %r14                  # 8-byte Reload
	.loc	0 665 13 is_stmt 1              # ldecod_src/intra4x4_pred_mbaff.c:665:13
	movq	(%r14,%rax,8), %r11
	movslq	%ebx, %rbx
	.loc	0 665 5 is_stmt 0               # ldecod_src/intra4x4_pred_mbaff.c:665:5
	movw	%dx, (%r11,%rbx,2)
	movw	%di, 2(%r11,%rbx,2)
	movw	%r9w, 4(%r11,%rbx,2)
	movw	%r8w, 6(%r11,%rbx,2)
.Ltmp412:
	#DEBUG_VALUE: intra4x4_hor_up_pred_mbaff:joff <- [DW_OP_plus_uconst 8, DW_OP_deref, DW_OP_plus_uconst 2, DW_OP_stack_value] $rsp
	.loc	0 666 13 is_stmt 1              # ldecod_src/intra4x4_pred_mbaff.c:666:13
	movq	8(%r14,%rax,8), %rdx
.Ltmp413:
	.loc	0 666 5 is_stmt 0               # ldecod_src/intra4x4_pred_mbaff.c:666:5
	movw	%r9w, (%rdx,%rbx,2)
	movw	%r8w, 2(%rdx,%rbx,2)
	movw	%r10w, 4(%rdx,%rbx,2)
	movw	%si, 6(%rdx,%rbx,2)
.Ltmp414:
	#DEBUG_VALUE: intra4x4_hor_up_pred_mbaff:joff <- [DW_OP_plus_uconst 8, DW_OP_deref, DW_OP_plus_uconst 3, DW_OP_stack_value] $rsp
	.loc	0 667 13 is_stmt 1              # ldecod_src/intra4x4_pred_mbaff.c:667:13
	movq	16(%r14,%rax,8), %rdx
	.loc	0 667 5 is_stmt 0               # ldecod_src/intra4x4_pred_mbaff.c:667:5
	movw	%r10w, (%rdx,%rbx,2)
	movw	%si, 2(%rdx,%rbx,2)
	movw	%cx, 4(%rdx,%rbx,2)
	movw	%cx, 6(%rdx,%rbx,2)
.Ltmp415:
	#DEBUG_VALUE: intra4x4_hor_up_pred_mbaff:joff <- [DW_OP_plus_uconst 8, DW_OP_deref, DW_OP_plus_uconst 4, DW_OP_stack_value] $rsp
	.loc	0 668 13 is_stmt 1              # ldecod_src/intra4x4_pred_mbaff.c:668:13
	movq	24(%r14,%rax,8), %rax
	.loc	0 668 5 is_stmt 0               # ldecod_src/intra4x4_pred_mbaff.c:668:5
	movd	%ecx, %xmm0
	pshuflw	$0, %xmm0, %xmm0                # xmm0 = xmm0[0,0,0,0,4,5,6,7]
	movq	%xmm0, (%rax,%rbx,2)
	jmp	.LBB0_171
.Ltmp416:
.LBB0_133:                              # %if.else.i553
	#DEBUG_VALUE: intra4x4_pred_mbaff:currMB <- $r12
	#DEBUG_VALUE: intra4x4_pred_mbaff:pl <- [DW_OP_LLVM_entry_value 1] $esi
	#DEBUG_VALUE: intra4x4_pred_mbaff:ioff <- [DW_OP_plus_uconst 24] [$rsp+0]
	#DEBUG_VALUE: intra4x4_pred_mbaff:joff <- [DW_OP_plus_uconst 8] [$rsp+0]
