	.text
	.file	"intra4x4_pred_normal.c"
	.file	0 "/home/yjs/workspace/x264-test/src" "ldecod_src/intra4x4_pred_normal.c" md5 0x0dfd6bf1dca1ce301e0719d84443c610
	.file	1 "ldecod_src/inc" "frame.h" md5 0xfd6ca9e1c707932f749220576db72b57
	.file	2 "ldecod_src/inc" "io_video.h" md5 0x1141c07f1801ad27d87214c419749431
	.file	3 "ldecod_src/inc" "types.h" md5 0x64f87bd13f2911471c7313b4ac17e90c
	.file	4 "ldecod_src/inc" "defines.h" md5 0xf06de374c735b286d10ba4ea0c8c0a5d
	.file	5 "ldecod_src/inc" "typedefs.h" md5 0xe1393d024b72e653f4e6dbeffdb0b154
	.globl	intra4x4_pred_normal            # -- Begin function intra4x4_pred_normal
	.p2align	4, 0x90
	.type	intra4x4_pred_normal,@function
intra4x4_pred_normal:                   # @intra4x4_pred_normal
.Lfunc_begin0:
	.loc	0 778 0                         # ldecod_src/intra4x4_pred_normal.c:778:0
	.cfi_startproc
# %bb.0:                                # %entry
	#DEBUG_VALUE: intra4x4_pred_normal:currMB <- $rdi
	#DEBUG_VALUE: intra4x4_pred_normal:pl <- $esi
	#DEBUG_VALUE: intra4x4_pred_normal:ioff <- $edx
	#DEBUG_VALUE: intra4x4_pred_normal:joff <- $ecx
	#DEBUG_VALUE: intra4x4_pred_normal:img_block_x <- $r8d
	#DEBUG_VALUE: intra4x4_pred_normal:img_block_y <- $r9d
	pushq	%rbp
	.cfi_def_cfa_offset 16
	pushq	%r15
	.cfi_def_cfa_offset 24
	pushq	%r14
	.cfi_def_cfa_offset 32
	pushq	%r13
	.cfi_def_cfa_offset 40
	pushq	%r12
	.cfi_def_cfa_offset 48
	pushq	%rbx
	.cfi_def_cfa_offset 56
	subq	$88, %rsp
	.cfi_def_cfa_offset 144
	.cfi_offset %rbx, -56
	.cfi_offset %r12, -48
	.cfi_offset %r13, -40
	.cfi_offset %r14, -32
	.cfi_offset %r15, -24
	.cfi_offset %rbp, -16
	movl	%ecx, %r13d
	movl	%esi, %r15d
.Ltmp0:
	.loc	0 779 36 prologue_end           # ldecod_src/intra4x4_pred_normal.c:779:36
	movq	8(%rdi), %rbx
.Ltmp1:
	#DEBUG_VALUE: intra4x4_pred_normal:p_Vid <- $rbx
	.loc	0 780 26                        # ldecod_src/intra4x4_pred_normal.c:780:26
	movq	848800(%rbx), %rax
	.loc	0 780 19 is_stmt 0              # ldecod_src/intra4x4_pred_normal.c:780:19
	movslq	%r9d, %rcx
.Ltmp2:
	#DEBUG_VALUE: intra4x4_pred_normal:joff <- $r13d
	movq	(%rax,%rcx,8), %rax
	movslq	%r8d, %rcx
	movzbl	(%rax,%rcx), %esi
.Ltmp3:
	#DEBUG_VALUE: intra4x4_pred_normal:pl <- $r15d
	#DEBUG_VALUE: intra4x4_pred_normal:predmode <- [DW_OP_LLVM_convert 64 7, DW_OP_LLVM_convert 8 7] $esi
	.loc	0 781 23 is_stmt 1              # ldecod_src/intra4x4_pred_normal.c:781:23
	movb	%sil, 372(%rdi)
	.loc	0 780 19                        # ldecod_src/intra4x4_pred_normal.c:780:19
	cmpq	$8, %rsi
	.loc	0 783 3                         # ldecod_src/intra4x4_pred_normal.c:783:3
	ja	.LBB0_42
.Ltmp4:
# %bb.1:                                # %entry
	#DEBUG_VALUE: intra4x4_pred_normal:currMB <- $rdi
	#DEBUG_VALUE: intra4x4_pred_normal:pl <- $r15d
	#DEBUG_VALUE: intra4x4_pred_normal:ioff <- $edx
	#DEBUG_VALUE: intra4x4_pred_normal:joff <- $r13d
	#DEBUG_VALUE: intra4x4_pred_normal:img_block_x <- $r8d
	#DEBUG_VALUE: intra4x4_pred_normal:img_block_y <- $r9d
	#DEBUG_VALUE: intra4x4_pred_normal:p_Vid <- $rbx
	#DEBUG_VALUE: intra4x4_pred_normal:predmode <- [DW_OP_LLVM_convert 64 7, DW_OP_LLVM_convert 8 7] $esi
	.loc	0 0 3 is_stmt 0                 # ldecod_src/intra4x4_pred_normal.c:0:3
	movl	%edx, %r12d
	.loc	0 783 3                         # ldecod_src/intra4x4_pred_normal.c:783:3
	jmpq	*.LJTI0_0(,%rsi,8)
.Ltmp5:
.LBB0_2:                                # %sw.bb4
	#DEBUG_VALUE: intra4x4_pred_normal:currMB <- $rdi
	#DEBUG_VALUE: intra4x4_pred_normal:pl <- $r15d
	#DEBUG_VALUE: intra4x4_pred_normal:ioff <- $r12d
	#DEBUG_VALUE: intra4x4_pred_normal:joff <- $r13d
	#DEBUG_VALUE: intra4x4_pred_normal:img_block_x <- $r8d
	#DEBUG_VALUE: intra4x4_pred_normal:img_block_y <- $r9d
	#DEBUG_VALUE: intra4x4_pred_normal:p_Vid <- $rbx
	#DEBUG_VALUE: intra4x4_pred_normal:predmode <- [DW_OP_LLVM_convert 64 7, DW_OP_LLVM_convert 8 7] $esi
	#DEBUG_VALUE: intra4x4_vert_pred:pix_b <- [DW_OP_deref] $rsp
	#DEBUG_VALUE: intra4x4_vert_pred:currMB <- $rdi
	#DEBUG_VALUE: intra4x4_vert_pred:pl <- $r15d
	#DEBUG_VALUE: intra4x4_vert_pred:ioff <- $r12d
	#DEBUG_VALUE: intra4x4_vert_pred:joff <- $r13d
	.loc	0 150 30 is_stmt 1              # ldecod_src/intra4x4_pred_normal.c:150:30
	movq	(%rdi), %r14
.Ltmp6:
	#DEBUG_VALUE: intra4x4_vert_pred:currSlice <- $r14
	#DEBUG_VALUE: intra4x4_vert_pred:p_Vid <- $rbx
	.loc	0 156 41                        # ldecod_src/intra4x4_pred_normal.c:156:41
	leal	-1(%r13), %edx
	.loc	0 156 54 is_stmt 0              # ldecod_src/intra4x4_pred_normal.c:156:54
	leaq	849124(%rbx), %rcx
	movq	%rsp, %r8
.Ltmp7:
	#DEBUG_VALUE: intra4x4_pred_normal:img_block_x <- [DW_OP_LLVM_entry_value 1] $r8d
	.loc	0 156 3                         # ldecod_src/intra4x4_pred_normal.c:156:3
	movl	%r12d, %esi
.Ltmp8:
	callq	getNonAffNeighbour@PLT
.Ltmp9:
	#DEBUG_VALUE: intra4x4_pred_normal:img_block_y <- [DW_OP_LLVM_entry_value 1] $r9d
	#DEBUG_VALUE: intra4x4_pred_normal:currMB <- [DW_OP_LLVM_entry_value 1] $rdi
	.loc	0 158 14 is_stmt 1              # ldecod_src/intra4x4_pred_normal.c:158:14
	movq	8(%rbx), %rax
	.loc	0 158 7 is_stmt 0               # ldecod_src/intra4x4_pred_normal.c:158:7
	cmpl	$0, 2204(%rax)
	.loc	0 0 0                           # ldecod_src/intra4x4_pred_normal.c:0:0
	movl	(%rsp), %eax
.Ltmp10:
	.loc	0 158 7                         # ldecod_src/intra4x4_pred_normal.c:158:7
	je	.LBB0_5
.Ltmp11:
# %bb.3:                                # %if.then.i66
	#DEBUG_VALUE: intra4x4_pred_normal:currMB <- [DW_OP_LLVM_entry_value 1] $rdi
	#DEBUG_VALUE: intra4x4_pred_normal:pl <- $r15d
	#DEBUG_VALUE: intra4x4_pred_normal:ioff <- $r12d
	#DEBUG_VALUE: intra4x4_pred_normal:joff <- $r13d
	#DEBUG_VALUE: intra4x4_pred_normal:img_block_x <- [DW_OP_LLVM_entry_value 1] $r8d
	#DEBUG_VALUE: intra4x4_pred_normal:img_block_y <- [DW_OP_LLVM_entry_value 1] $r9d
	#DEBUG_VALUE: intra4x4_pred_normal:p_Vid <- $rbx
	#DEBUG_VALUE: intra4x4_vert_pred:pix_b <- [DW_OP_deref] $rsp
	#DEBUG_VALUE: intra4x4_vert_pred:pl <- $r15d
	#DEBUG_VALUE: intra4x4_vert_pred:ioff <- $r12d
	#DEBUG_VALUE: intra4x4_vert_pred:joff <- $r13d
	#DEBUG_VALUE: intra4x4_vert_pred:currSlice <- $r14
	#DEBUG_VALUE: intra4x4_vert_pred:p_Vid <- $rbx
	.loc	0 160 26 is_stmt 1              # ldecod_src/intra4x4_pred_normal.c:160:26
	testl	%eax, %eax
	je	.LBB0_43
.Ltmp12:
# %bb.4:                                # %cond.true.i67
	#DEBUG_VALUE: intra4x4_pred_normal:currMB <- [DW_OP_LLVM_entry_value 1] $rdi
	#DEBUG_VALUE: intra4x4_pred_normal:pl <- $r15d
	#DEBUG_VALUE: intra4x4_pred_normal:ioff <- $r12d
	#DEBUG_VALUE: intra4x4_pred_normal:joff <- $r13d
	#DEBUG_VALUE: intra4x4_pred_normal:img_block_x <- [DW_OP_LLVM_entry_value 1] $r8d
	#DEBUG_VALUE: intra4x4_pred_normal:img_block_y <- [DW_OP_LLVM_entry_value 1] $r9d
	#DEBUG_VALUE: intra4x4_pred_normal:p_Vid <- $rbx
	#DEBUG_VALUE: intra4x4_vert_pred:pix_b <- [DW_OP_deref] $rsp
	#DEBUG_VALUE: intra4x4_vert_pred:pl <- $r15d
	#DEBUG_VALUE: intra4x4_vert_pred:ioff <- $r12d
	#DEBUG_VALUE: intra4x4_vert_pred:joff <- $r13d
	#DEBUG_VALUE: intra4x4_vert_pred:currSlice <- $r14
	#DEBUG_VALUE: intra4x4_vert_pred:p_Vid <- $rbx
	.loc	0 160 55 is_stmt 0              # ldecod_src/intra4x4_pred_normal.c:160:55
	movq	13544(%r14), %rax
	.loc	0 160 74                        # ldecod_src/intra4x4_pred_normal.c:160:74
	movslq	4(%rsp), %rcx
	.loc	0 160 44                        # ldecod_src/intra4x4_pred_normal.c:160:44
	movsbl	(%rax,%rcx), %eax
.Ltmp13:
.LBB0_5:                                # %if.end.i72
	#DEBUG_VALUE: intra4x4_pred_normal:currMB <- [DW_OP_LLVM_entry_value 1] $rdi
	#DEBUG_VALUE: intra4x4_pred_normal:pl <- $r15d
	#DEBUG_VALUE: intra4x4_pred_normal:ioff <- $r12d
	#DEBUG_VALUE: intra4x4_pred_normal:joff <- $r13d
	#DEBUG_VALUE: intra4x4_pred_normal:img_block_x <- [DW_OP_LLVM_entry_value 1] $r8d
	#DEBUG_VALUE: intra4x4_pred_normal:img_block_y <- [DW_OP_LLVM_entry_value 1] $r9d
	#DEBUG_VALUE: intra4x4_pred_normal:p_Vid <- $rbx
	#DEBUG_VALUE: intra4x4_vert_pred:pix_b <- [DW_OP_deref] $rsp
	#DEBUG_VALUE: intra4x4_vert_pred:pl <- $r15d
	#DEBUG_VALUE: intra4x4_vert_pred:ioff <- $r12d
	#DEBUG_VALUE: intra4x4_vert_pred:joff <- $r13d
	#DEBUG_VALUE: intra4x4_vert_pred:currSlice <- $r14
	#DEBUG_VALUE: intra4x4_vert_pred:p_Vid <- $rbx
	#DEBUG_VALUE: intra4x4_vert_pred:block_available_up <- $eax
	.loc	0 167 8 is_stmt 1               # ldecod_src/intra4x4_pred_normal.c:167:8
	testl	%eax, %eax
.Ltmp14:
	.loc	0 167 7 is_stmt 0               # ldecod_src/intra4x4_pred_normal.c:167:7
	je	.LBB0_43
.Ltmp15:
# %bb.6:                                # %if.else7.i
	#DEBUG_VALUE: intra4x4_pred_normal:currMB <- [DW_OP_LLVM_entry_value 1] $rdi
	#DEBUG_VALUE: intra4x4_pred_normal:pl <- $r15d
	#DEBUG_VALUE: intra4x4_pred_normal:ioff <- $r12d
	#DEBUG_VALUE: intra4x4_pred_normal:joff <- $r13d
	#DEBUG_VALUE: intra4x4_pred_normal:img_block_x <- [DW_OP_LLVM_entry_value 1] $r8d
	#DEBUG_VALUE: intra4x4_pred_normal:img_block_y <- [DW_OP_LLVM_entry_value 1] $r9d
	#DEBUG_VALUE: intra4x4_pred_normal:p_Vid <- $rbx
	#DEBUG_VALUE: intra4x4_vert_pred:pix_b <- [DW_OP_deref] $rsp
	#DEBUG_VALUE: intra4x4_vert_pred:pl <- $r15d
	#DEBUG_VALUE: intra4x4_vert_pred:ioff <- $r12d
	#DEBUG_VALUE: intra4x4_vert_pred:joff <- $r13d
	#DEBUG_VALUE: intra4x4_vert_pred:currSlice <- $r14
	#DEBUG_VALUE: intra4x4_vert_pred:p_Vid <- $rbx
	#DEBUG_VALUE: intra4x4_vert_pred:block_available_up <- $eax
	.loc	0 173 35 is_stmt 1              # ldecod_src/intra4x4_pred_normal.c:173:35
	movq	1248(%r14), %rax
.Ltmp16:
	.loc	0 173 24 is_stmt 0              # ldecod_src/intra4x4_pred_normal.c:173:24
	movl	%r15d, %ecx
	movq	(%rax,%rcx,8), %rax
.Ltmp17:
	#DEBUG_VALUE: mb_pred <- $rax
	.loc	0 174 0 is_stmt 1               # ldecod_src/intra4x4_pred_normal.c:174:0
	movq	13520(%r14), %rcx
	.loc	0 174 20 is_stmt 0              # ldecod_src/intra4x4_pred_normal.c:174:20
	testl	%r15d, %r15d
	je	.LBB0_126
.Ltmp18:
# %bb.7:                                # %cond.true12.i
	#DEBUG_VALUE: intra4x4_pred_normal:currMB <- [DW_OP_LLVM_entry_value 1] $rdi
	#DEBUG_VALUE: intra4x4_pred_normal:pl <- $r15d
	#DEBUG_VALUE: intra4x4_pred_normal:ioff <- $r12d
	#DEBUG_VALUE: intra4x4_pred_normal:joff <- $r13d
	#DEBUG_VALUE: intra4x4_pred_normal:img_block_x <- [DW_OP_LLVM_entry_value 1] $r8d
	#DEBUG_VALUE: intra4x4_pred_normal:img_block_y <- [DW_OP_LLVM_entry_value 1] $r9d
	#DEBUG_VALUE: intra4x4_pred_normal:p_Vid <- $rbx
	#DEBUG_VALUE: intra4x4_vert_pred:pix_b <- [DW_OP_deref] $rsp
	#DEBUG_VALUE: intra4x4_vert_pred:pl <- $r15d
	#DEBUG_VALUE: intra4x4_vert_pred:ioff <- $r12d
	#DEBUG_VALUE: intra4x4_vert_pred:joff <- $r13d
	#DEBUG_VALUE: intra4x4_vert_pred:currSlice <- $r14
	#DEBUG_VALUE: intra4x4_vert_pred:p_Vid <- $rbx
	#DEBUG_VALUE: mb_pred <- $rax
	.loc	0 174 61                        # ldecod_src/intra4x4_pred_normal.c:174:61
	decl	%r15d
.Ltmp19:
	#DEBUG_VALUE: intra4x4_pred_normal:pl <- [DW_OP_LLVM_entry_value 1] $esi
	.loc	0 174 28                        # ldecod_src/intra4x4_pred_normal.c:174:28
	shlq	$3, %r15
	addq	136(%rcx), %r15
	.loc	0 174 20                        # ldecod_src/intra4x4_pred_normal.c:174:20
	jmp	.LBB0_127
.Ltmp20:
.LBB0_8:                                # %sw.bb8
	#DEBUG_VALUE: intra4x4_pred_normal:currMB <- $rdi
	#DEBUG_VALUE: intra4x4_pred_normal:pl <- $r15d
	#DEBUG_VALUE: intra4x4_pred_normal:ioff <- $r12d
	#DEBUG_VALUE: intra4x4_pred_normal:joff <- $r13d
	#DEBUG_VALUE: intra4x4_pred_normal:img_block_x <- $r8d
	#DEBUG_VALUE: intra4x4_pred_normal:img_block_y <- $r9d
	#DEBUG_VALUE: intra4x4_pred_normal:p_Vid <- $rbx
	#DEBUG_VALUE: intra4x4_pred_normal:predmode <- [DW_OP_LLVM_convert 64 7, DW_OP_LLVM_convert 8 7] $esi
	#DEBUG_VALUE: intra4x4_diag_down_right_pred:pix_d <- [DW_OP_plus_uconst 64, DW_OP_deref] $rsp
	#DEBUG_VALUE: intra4x4_diag_down_right_pred:currMB <- $rdi
	#DEBUG_VALUE: intra4x4_diag_down_right_pred:pl <- $r15d
	#DEBUG_VALUE: intra4x4_diag_down_right_pred:ioff <- $r12d
	#DEBUG_VALUE: intra4x4_diag_down_right_pred:joff <- $r13d
	.loc	0 280 30 is_stmt 1              # ldecod_src/intra4x4_pred_normal.c:280:30
	movq	(%rdi), %rdx
.Ltmp21:
	#DEBUG_VALUE: intra4x4_diag_down_right_pred:currSlice <- $rdx
	#DEBUG_VALUE: intra4x4_diag_down_right_pred:p_Vid <- $rbx
	.loc	0 283 0                         # ldecod_src/intra4x4_pred_normal.c:283:0
	movq	13520(%rdx), %rax
	.loc	0 283 19 is_stmt 0              # ldecod_src/intra4x4_pred_normal.c:283:19
	testl	%r15d, %r15d
	je	.LBB0_46
.Ltmp22:
# %bb.9:                                # %cond.true.i107
	#DEBUG_VALUE: intra4x4_pred_normal:currMB <- $rdi
	#DEBUG_VALUE: intra4x4_pred_normal:pl <- $r15d
	#DEBUG_VALUE: intra4x4_pred_normal:ioff <- $r12d
	#DEBUG_VALUE: intra4x4_pred_normal:joff <- $r13d
	#DEBUG_VALUE: intra4x4_pred_normal:img_block_x <- $r8d
	#DEBUG_VALUE: intra4x4_pred_normal:img_block_y <- $r9d
	#DEBUG_VALUE: intra4x4_pred_normal:p_Vid <- $rbx
	#DEBUG_VALUE: intra4x4_pred_normal:predmode <- [DW_OP_LLVM_convert 64 7, DW_OP_LLVM_convert 8 7] $esi
	#DEBUG_VALUE: intra4x4_diag_down_right_pred:pix_d <- [DW_OP_plus_uconst 64, DW_OP_deref] $rsp
	#DEBUG_VALUE: intra4x4_diag_down_right_pred:currMB <- $rdi
	#DEBUG_VALUE: intra4x4_diag_down_right_pred:pl <- $r15d
	#DEBUG_VALUE: intra4x4_diag_down_right_pred:ioff <- $r12d
	#DEBUG_VALUE: intra4x4_diag_down_right_pred:joff <- $r13d
	#DEBUG_VALUE: intra4x4_diag_down_right_pred:currSlice <- $rdx
	#DEBUG_VALUE: intra4x4_diag_down_right_pred:p_Vid <- $rbx
	.loc	0 283 59                        # ldecod_src/intra4x4_pred_normal.c:283:59
	leal	-1(%r15), %ecx
	.loc	0 283 26                        # ldecod_src/intra4x4_pred_normal.c:283:26
	shlq	$3, %rcx
	addq	136(%rax), %rcx
	.loc	0 283 19                        # ldecod_src/intra4x4_pred_normal.c:283:19
	jmp	.LBB0_47
.Ltmp23:
.LBB0_10:                               # %sw.bb
	#DEBUG_VALUE: intra4x4_pred_normal:currMB <- $rdi
	#DEBUG_VALUE: intra4x4_pred_normal:pl <- $r15d
	#DEBUG_VALUE: intra4x4_pred_normal:ioff <- $r12d
	#DEBUG_VALUE: intra4x4_pred_normal:joff <- $r13d
	#DEBUG_VALUE: intra4x4_pred_normal:img_block_x <- $r8d
	#DEBUG_VALUE: intra4x4_pred_normal:img_block_y <- $r9d
	#DEBUG_VALUE: intra4x4_pred_normal:p_Vid <- $rbx
	#DEBUG_VALUE: intra4x4_pred_normal:predmode <- [DW_OP_LLVM_convert 64 7, DW_OP_LLVM_convert 8 7] $esi
	#DEBUG_VALUE: intra4x4_dc_pred:pix_b <- [DW_OP_plus_uconst 24, DW_OP_deref] $rsp
	#DEBUG_VALUE: intra4x4_dc_pred:currMB <- $rdi
	#DEBUG_VALUE: intra4x4_dc_pred:pl <- $r15d
	#DEBUG_VALUE: intra4x4_dc_pred:ioff <- $r12d
	#DEBUG_VALUE: intra4x4_dc_pred:joff <- $r13d
	.loc	0 0 19                          # ldecod_src/intra4x4_pred_normal.c:0:19
	movq	%r13, 16(%rsp)                  # 8-byte Spill
.Ltmp24:
	#DEBUG_VALUE: intra4x4_dc_pred:joff <- [DW_OP_plus_uconst 16, DW_OP_deref] $rsp
	#DEBUG_VALUE: intra4x4_pred_normal:joff <- [DW_OP_plus_uconst 16] [$rsp+0]
	.loc	0 54 30 is_stmt 1               # ldecod_src/intra4x4_pred_normal.c:54:30
	movq	(%rdi), %rdx
.Ltmp25:
	#DEBUG_VALUE: intra4x4_dc_pred:currSlice <- $rdx
	#DEBUG_VALUE: intra4x4_dc_pred:p_Vid <- $rbx
	#DEBUG_VALUE: intra4x4_dc_pred:s0 <- 0
	.loc	0 59 0                          # ldecod_src/intra4x4_pred_normal.c:59:0
	movq	13520(%rdx), %rax
	.loc	0 59 19 is_stmt 0               # ldecod_src/intra4x4_pred_normal.c:59:19
	testl	%r15d, %r15d
	je	.LBB0_60
.Ltmp26:
# %bb.11:                               # %cond.true.i
	#DEBUG_VALUE: intra4x4_pred_normal:currMB <- $rdi
	#DEBUG_VALUE: intra4x4_pred_normal:pl <- $r15d
	#DEBUG_VALUE: intra4x4_pred_normal:ioff <- $r12d
	#DEBUG_VALUE: intra4x4_pred_normal:joff <- [DW_OP_plus_uconst 16] [$rsp+0]
	#DEBUG_VALUE: intra4x4_pred_normal:img_block_x <- $r8d
	#DEBUG_VALUE: intra4x4_pred_normal:img_block_y <- $r9d
	#DEBUG_VALUE: intra4x4_pred_normal:p_Vid <- $rbx
	#DEBUG_VALUE: intra4x4_pred_normal:predmode <- [DW_OP_LLVM_convert 64 7, DW_OP_LLVM_convert 8 7] $esi
	#DEBUG_VALUE: intra4x4_dc_pred:pix_b <- [DW_OP_plus_uconst 24, DW_OP_deref] $rsp
	#DEBUG_VALUE: intra4x4_dc_pred:currMB <- $rdi
	#DEBUG_VALUE: intra4x4_dc_pred:pl <- $r15d
	#DEBUG_VALUE: intra4x4_dc_pred:ioff <- $r12d
	#DEBUG_VALUE: intra4x4_dc_pred:joff <- [DW_OP_plus_uconst 16, DW_OP_deref] $rsp
	#DEBUG_VALUE: intra4x4_dc_pred:currSlice <- $rdx
	#DEBUG_VALUE: intra4x4_dc_pred:p_Vid <- $rbx
	#DEBUG_VALUE: intra4x4_dc_pred:s0 <- 0
	.loc	0 59 59                         # ldecod_src/intra4x4_pred_normal.c:59:59
	leal	-1(%r15), %ecx
	.loc	0 59 26                         # ldecod_src/intra4x4_pred_normal.c:59:26
	shlq	$3, %rcx
	addq	136(%rax), %rcx
	.loc	0 59 19                         # ldecod_src/intra4x4_pred_normal.c:59:19
	jmp	.LBB0_61
.Ltmp27:
.LBB0_12:                               # %sw.bb10
	#DEBUG_VALUE: intra4x4_pred_normal:currMB <- $rdi
	#DEBUG_VALUE: intra4x4_pred_normal:pl <- $r15d
	#DEBUG_VALUE: intra4x4_pred_normal:ioff <- $r12d
	#DEBUG_VALUE: intra4x4_pred_normal:joff <- $r13d
	#DEBUG_VALUE: intra4x4_pred_normal:img_block_x <- $r8d
	#DEBUG_VALUE: intra4x4_pred_normal:img_block_y <- $r9d
	#DEBUG_VALUE: intra4x4_pred_normal:p_Vid <- $rbx
	#DEBUG_VALUE: intra4x4_pred_normal:predmode <- [DW_OP_LLVM_convert 64 7, DW_OP_LLVM_convert 8 7] $esi
	#DEBUG_VALUE: intra4x4_diag_down_left_pred:pix_c <- [DW_OP_plus_uconst 24, DW_OP_deref] $rsp
	#DEBUG_VALUE: intra4x4_diag_down_left_pred:currMB <- $rdi
	#DEBUG_VALUE: intra4x4_diag_down_left_pred:pl <- $r15d
	#DEBUG_VALUE: intra4x4_diag_down_left_pred:ioff <- $r12d
	#DEBUG_VALUE: intra4x4_diag_down_left_pred:joff <- $r13d
	.loc	0 0 19                          # ldecod_src/intra4x4_pred_normal.c:0:19
	movq	%r15, 40(%rsp)                  # 8-byte Spill
.Ltmp28:
	#DEBUG_VALUE: intra4x4_diag_down_left_pred:pl <- [DW_OP_plus_uconst 40, DW_OP_deref] $rsp
	#DEBUG_VALUE: intra4x4_pred_normal:pl <- [DW_OP_plus_uconst 40] [$rsp+0]
	.loc	0 364 30 is_stmt 1              # ldecod_src/intra4x4_pred_normal.c:364:30
	movq	(%rdi), %rax
.Ltmp29:
	#DEBUG_VALUE: intra4x4_diag_down_left_pred:currSlice <- $rax
	#DEBUG_VALUE: intra4x4_diag_down_left_pred:p_Vid <- $rbx
	.loc	0 0 30 is_stmt 0                # ldecod_src/intra4x4_pred_normal.c:0:30
	movq	%rax, 16(%rsp)                  # 8-byte Spill
.Ltmp30:
	#DEBUG_VALUE: intra4x4_diag_down_left_pred:currSlice <- [DW_OP_plus_uconst 16, DW_OP_deref] $rsp
	.loc	0 372 46 is_stmt 1              # ldecod_src/intra4x4_pred_normal.c:372:46
	leal	-1(%r13), %ebp
	.loc	0 372 58 is_stmt 0              # ldecod_src/intra4x4_pred_normal.c:372:58
	leaq	849124(%rbx), %r14
	movq	%rsp, %r8
.Ltmp31:
	#DEBUG_VALUE: intra4x4_pred_normal:img_block_x <- [DW_OP_LLVM_entry_value 1] $r8d
	.loc	0 0 58                          # ldecod_src/intra4x4_pred_normal.c:0:58
	movq	%r13, %r15
	movq	%rdi, %r13
.Ltmp32:
	#DEBUG_VALUE: intra4x4_diag_down_left_pred:joff <- $r15d
	#DEBUG_VALUE: intra4x4_pred_normal:joff <- $r15d
	.loc	0 372 3                         # ldecod_src/intra4x4_pred_normal.c:372:3
	movl	%r12d, %esi
.Ltmp33:
	movl	%ebp, %edx
	movq	%r14, %rcx
	callq	*856744(%rbx)
.Ltmp34:
	#DEBUG_VALUE: intra4x4_pred_normal:img_block_y <- [DW_OP_LLVM_entry_value 1] $r9d
	#DEBUG_VALUE: intra4x4_diag_down_left_pred:currMB <- $r13
	#DEBUG_VALUE: intra4x4_pred_normal:currMB <- $r13
	.loc	0 373 36 is_stmt 1              # ldecod_src/intra4x4_pred_normal.c:373:36
	leal	4(%r12), %esi
	leaq	24(%rsp), %r8
	.loc	0 373 3 is_stmt 0               # ldecod_src/intra4x4_pred_normal.c:373:3
	movq	%r13, %rdi
	movl	%ebp, %edx
	movq	%r14, %rcx
	callq	*856744(%rbx)
.Ltmp35:
	.loc	0 375 21 is_stmt 1              # ldecod_src/intra4x4_pred_normal.c:375:21
	cmpl	$0, 24(%rsp)
	.loc	0 375 37 is_stmt 0              # ldecod_src/intra4x4_pred_normal.c:375:37
	je	.LBB0_68
.Ltmp36:
# %bb.13:                               # %land.rhs.i
	#DEBUG_VALUE: intra4x4_pred_normal:currMB <- $r13
	#DEBUG_VALUE: intra4x4_pred_normal:pl <- [DW_OP_plus_uconst 40] [$rsp+0]
	#DEBUG_VALUE: intra4x4_pred_normal:ioff <- $r12d
	#DEBUG_VALUE: intra4x4_pred_normal:joff <- $r15d
	#DEBUG_VALUE: intra4x4_pred_normal:img_block_x <- [DW_OP_LLVM_entry_value 1] $r8d
	#DEBUG_VALUE: intra4x4_pred_normal:img_block_y <- [DW_OP_LLVM_entry_value 1] $r9d
	#DEBUG_VALUE: intra4x4_pred_normal:p_Vid <- $rbx
	#DEBUG_VALUE: intra4x4_diag_down_left_pred:pix_c <- [DW_OP_plus_uconst 24, DW_OP_deref] $rsp
	#DEBUG_VALUE: intra4x4_diag_down_left_pred:currMB <- $r13
	#DEBUG_VALUE: intra4x4_diag_down_left_pred:pl <- [DW_OP_plus_uconst 40, DW_OP_deref] $rsp
	#DEBUG_VALUE: intra4x4_diag_down_left_pred:ioff <- $r12d
	#DEBUG_VALUE: intra4x4_diag_down_left_pred:joff <- $r15d
	#DEBUG_VALUE: intra4x4_diag_down_left_pred:currSlice <- [DW_OP_plus_uconst 16, DW_OP_deref] $rsp
	#DEBUG_VALUE: intra4x4_diag_down_left_pred:p_Vid <- $rbx
	.loc	0 375 47                        # ldecod_src/intra4x4_pred_normal.c:375:47
	movl	%r12d, %eax
	xorl	$4, %eax
	.loc	0 375 52                        # ldecod_src/intra4x4_pred_normal.c:375:52
	movl	%r15d, %edx
	andl	$-9, %edx
	xorl	$4, %edx
	xorl	%ecx, %ecx
	orl	%eax, %edx
	setne	%cl
	jmp	.LBB0_69
.Ltmp37:
.LBB0_14:                               # %sw.bb14
	#DEBUG_VALUE: intra4x4_pred_normal:currMB <- $rdi
	#DEBUG_VALUE: intra4x4_pred_normal:pl <- $r15d
	#DEBUG_VALUE: intra4x4_pred_normal:ioff <- $r12d
	#DEBUG_VALUE: intra4x4_pred_normal:joff <- $r13d
	#DEBUG_VALUE: intra4x4_pred_normal:img_block_x <- $r8d
	#DEBUG_VALUE: intra4x4_pred_normal:img_block_y <- $r9d
	#DEBUG_VALUE: intra4x4_pred_normal:p_Vid <- $rbx
	#DEBUG_VALUE: intra4x4_pred_normal:predmode <- [DW_OP_LLVM_convert 64 7, DW_OP_LLVM_convert 8 7] $esi
	#DEBUG_VALUE: intra4x4_vert_left_pred:pix_c <- [DW_OP_plus_uconst 24, DW_OP_deref] $rsp
	#DEBUG_VALUE: intra4x4_vert_left_pred:currMB <- $rdi
	#DEBUG_VALUE: intra4x4_vert_left_pred:pl <- $r15d
	#DEBUG_VALUE: intra4x4_vert_left_pred:ioff <- $r12d
	#DEBUG_VALUE: intra4x4_vert_left_pred:joff <- $r13d
	.loc	0 0 52                          # ldecod_src/intra4x4_pred_normal.c:0:52
	movq	%r15, 40(%rsp)                  # 8-byte Spill
.Ltmp38:
	#DEBUG_VALUE: intra4x4_vert_left_pred:pl <- [DW_OP_plus_uconst 40, DW_OP_deref] $rsp
	#DEBUG_VALUE: intra4x4_pred_normal:pl <- [DW_OP_plus_uconst 40] [$rsp+0]
	.loc	0 535 30 is_stmt 1              # ldecod_src/intra4x4_pred_normal.c:535:30
	movq	(%rdi), %rax
.Ltmp39:
	#DEBUG_VALUE: intra4x4_vert_left_pred:currSlice <- $rax
	#DEBUG_VALUE: intra4x4_vert_left_pred:p_Vid <- $rbx
	.loc	0 0 30 is_stmt 0                # ldecod_src/intra4x4_pred_normal.c:0:30
	movq	%rax, 16(%rsp)                  # 8-byte Spill
.Ltmp40:
	#DEBUG_VALUE: intra4x4_vert_left_pred:currSlice <- [DW_OP_plus_uconst 16, DW_OP_deref] $rsp
	.loc	0 543 46 is_stmt 1              # ldecod_src/intra4x4_pred_normal.c:543:46
	leal	-1(%r13), %ebp
	.loc	0 543 58 is_stmt 0              # ldecod_src/intra4x4_pred_normal.c:543:58
	leaq	849124(%rbx), %r14
	movq	%rsp, %r8
.Ltmp41:
	#DEBUG_VALUE: intra4x4_pred_normal:img_block_x <- [DW_OP_LLVM_entry_value 1] $r8d
	.loc	0 0 58                          # ldecod_src/intra4x4_pred_normal.c:0:58
	movq	%r13, %r15
	movq	%r12, %r13
.Ltmp42:
	#DEBUG_VALUE: intra4x4_vert_left_pred:joff <- $r15d
	#DEBUG_VALUE: intra4x4_pred_normal:joff <- $r15d
	movq	%rdi, %r12
.Ltmp43:
	#DEBUG_VALUE: intra4x4_vert_left_pred:ioff <- $r13d
	#DEBUG_VALUE: intra4x4_pred_normal:ioff <- $r13d
	.loc	0 543 3                         # ldecod_src/intra4x4_pred_normal.c:543:3
	movl	%r13d, %esi
.Ltmp44:
	movl	%ebp, %edx
	movq	%r14, %rcx
	callq	*856744(%rbx)
.Ltmp45:
	#DEBUG_VALUE: intra4x4_pred_normal:img_block_y <- [DW_OP_LLVM_entry_value 1] $r9d
	#DEBUG_VALUE: intra4x4_vert_left_pred:currMB <- $r12
	#DEBUG_VALUE: intra4x4_pred_normal:currMB <- $r12
	.loc	0 544 36 is_stmt 1              # ldecod_src/intra4x4_pred_normal.c:544:36
	leal	4(%r13), %esi
	leaq	24(%rsp), %r8
	.loc	0 544 3 is_stmt 0               # ldecod_src/intra4x4_pred_normal.c:544:3
	movq	%r12, %rdi
	movl	%ebp, %edx
	movq	%r14, %rcx
	callq	*856744(%rbx)
.Ltmp46:
	.loc	0 546 21 is_stmt 1              # ldecod_src/intra4x4_pred_normal.c:546:21
	cmpl	$0, 24(%rsp)
	.loc	0 546 37 is_stmt 0              # ldecod_src/intra4x4_pred_normal.c:546:37
	je	.LBB0_77
.Ltmp47:
# %bb.15:                               # %land.rhs.i268
	#DEBUG_VALUE: intra4x4_pred_normal:currMB <- $r12
	#DEBUG_VALUE: intra4x4_pred_normal:pl <- [DW_OP_plus_uconst 40] [$rsp+0]
	#DEBUG_VALUE: intra4x4_pred_normal:ioff <- $r13d
	#DEBUG_VALUE: intra4x4_pred_normal:joff <- $r15d
	#DEBUG_VALUE: intra4x4_pred_normal:img_block_x <- [DW_OP_LLVM_entry_value 1] $r8d
	#DEBUG_VALUE: intra4x4_pred_normal:img_block_y <- [DW_OP_LLVM_entry_value 1] $r9d
	#DEBUG_VALUE: intra4x4_pred_normal:p_Vid <- $rbx
	#DEBUG_VALUE: intra4x4_vert_left_pred:pix_c <- [DW_OP_plus_uconst 24, DW_OP_deref] $rsp
	#DEBUG_VALUE: intra4x4_vert_left_pred:currMB <- $r12
	#DEBUG_VALUE: intra4x4_vert_left_pred:pl <- [DW_OP_plus_uconst 40, DW_OP_deref] $rsp
	#DEBUG_VALUE: intra4x4_vert_left_pred:ioff <- $r13d
	#DEBUG_VALUE: intra4x4_vert_left_pred:joff <- $r15d
	#DEBUG_VALUE: intra4x4_vert_left_pred:currSlice <- [DW_OP_plus_uconst 16, DW_OP_deref] $rsp
	#DEBUG_VALUE: intra4x4_vert_left_pred:p_Vid <- $rbx
	.loc	0 546 47                        # ldecod_src/intra4x4_pred_normal.c:546:47
	movl	%r13d, %eax
	xorl	$4, %eax
	movq	%r15, %r12
.Ltmp48:
	#DEBUG_VALUE: intra4x4_pred_normal:currMB <- [DW_OP_LLVM_entry_value 1] $rdi
	.loc	0 546 52                        # ldecod_src/intra4x4_pred_normal.c:546:52
	movl	%r15d, %ecx
	andl	$-9, %ecx
	xorl	$4, %ecx
	xorl	%ebp, %ebp
	orl	%eax, %ecx
	setne	%bpl
	jmp	.LBB0_78
.Ltmp49:
.LBB0_16:                               # %sw.bb6
	#DEBUG_VALUE: intra4x4_pred_normal:currMB <- $rdi
	#DEBUG_VALUE: intra4x4_pred_normal:pl <- $r15d
	#DEBUG_VALUE: intra4x4_pred_normal:ioff <- $r12d
	#DEBUG_VALUE: intra4x4_pred_normal:joff <- $r13d
	#DEBUG_VALUE: intra4x4_pred_normal:img_block_x <- $r8d
	#DEBUG_VALUE: intra4x4_pred_normal:img_block_y <- $r9d
	#DEBUG_VALUE: intra4x4_pred_normal:p_Vid <- $rbx
	#DEBUG_VALUE: intra4x4_pred_normal:predmode <- [DW_OP_LLVM_convert 64 7, DW_OP_LLVM_convert 8 7] $esi
	#DEBUG_VALUE: intra4x4_hor_pred:pix_a <- [DW_OP_deref] $rsp
	#DEBUG_VALUE: intra4x4_hor_pred:currMB <- $rdi
	#DEBUG_VALUE: intra4x4_hor_pred:pl <- $r15d
	#DEBUG_VALUE: intra4x4_hor_pred:ioff <- $r12d
	#DEBUG_VALUE: intra4x4_hor_pred:joff <- $r13d
	#DEBUG_VALUE: intra4x4_hor_pred:p_Vid <- $rbx
	.loc	0 208 30 is_stmt 1              # ldecod_src/intra4x4_pred_normal.c:208:30
	movq	(%rdi), %r14
.Ltmp50:
	#DEBUG_VALUE: intra4x4_hor_pred:currSlice <- $r14
	.loc	0 214 35                        # ldecod_src/intra4x4_pred_normal.c:214:35
	leal	-1(%r12), %esi
.Ltmp51:
	.loc	0 214 54 is_stmt 0              # ldecod_src/intra4x4_pred_normal.c:214:54
	leaq	849124(%rbx), %rcx
	movq	%rsp, %r8
.Ltmp52:
	#DEBUG_VALUE: intra4x4_pred_normal:img_block_x <- [DW_OP_LLVM_entry_value 1] $r8d
	.loc	0 214 3                         # ldecod_src/intra4x4_pred_normal.c:214:3
	movl	%r13d, %edx
	callq	getNonAffNeighbour@PLT
.Ltmp53:
	#DEBUG_VALUE: intra4x4_pred_normal:img_block_y <- [DW_OP_LLVM_entry_value 1] $r9d
	#DEBUG_VALUE: intra4x4_pred_normal:currMB <- [DW_OP_LLVM_entry_value 1] $rdi
	.loc	0 216 14 is_stmt 1              # ldecod_src/intra4x4_pred_normal.c:216:14
	movq	8(%rbx), %rax
	.loc	0 216 7 is_stmt 0               # ldecod_src/intra4x4_pred_normal.c:216:7
	cmpl	$0, 2204(%rax)
	.loc	0 0 0                           # ldecod_src/intra4x4_pred_normal.c:0:0
	movl	(%rsp), %eax
.Ltmp54:
	.loc	0 216 7                         # ldecod_src/intra4x4_pred_normal.c:216:7
	je	.LBB0_19
.Ltmp55:
# %bb.17:                               # %if.then.i85
	#DEBUG_VALUE: intra4x4_pred_normal:currMB <- [DW_OP_LLVM_entry_value 1] $rdi
	#DEBUG_VALUE: intra4x4_pred_normal:pl <- $r15d
	#DEBUG_VALUE: intra4x4_pred_normal:ioff <- $r12d
	#DEBUG_VALUE: intra4x4_pred_normal:joff <- $r13d
	#DEBUG_VALUE: intra4x4_pred_normal:img_block_x <- [DW_OP_LLVM_entry_value 1] $r8d
	#DEBUG_VALUE: intra4x4_pred_normal:img_block_y <- [DW_OP_LLVM_entry_value 1] $r9d
	#DEBUG_VALUE: intra4x4_pred_normal:p_Vid <- $rbx
	#DEBUG_VALUE: intra4x4_hor_pred:pix_a <- [DW_OP_deref] $rsp
	#DEBUG_VALUE: intra4x4_hor_pred:pl <- $r15d
	#DEBUG_VALUE: intra4x4_hor_pred:ioff <- $r12d
	#DEBUG_VALUE: intra4x4_hor_pred:joff <- $r13d
	#DEBUG_VALUE: intra4x4_hor_pred:p_Vid <- $rbx
	#DEBUG_VALUE: intra4x4_hor_pred:currSlice <- $r14
	.loc	0 218 28 is_stmt 1              # ldecod_src/intra4x4_pred_normal.c:218:28
	testl	%eax, %eax
	je	.LBB0_44
.Ltmp56:
# %bb.18:                               # %cond.true.i87
	#DEBUG_VALUE: intra4x4_pred_normal:currMB <- [DW_OP_LLVM_entry_value 1] $rdi
	#DEBUG_VALUE: intra4x4_pred_normal:pl <- $r15d
	#DEBUG_VALUE: intra4x4_pred_normal:ioff <- $r12d
	#DEBUG_VALUE: intra4x4_pred_normal:joff <- $r13d
	#DEBUG_VALUE: intra4x4_pred_normal:img_block_x <- [DW_OP_LLVM_entry_value 1] $r8d
	#DEBUG_VALUE: intra4x4_pred_normal:img_block_y <- [DW_OP_LLVM_entry_value 1] $r9d
	#DEBUG_VALUE: intra4x4_pred_normal:p_Vid <- $rbx
	#DEBUG_VALUE: intra4x4_hor_pred:pix_a <- [DW_OP_deref] $rsp
	#DEBUG_VALUE: intra4x4_hor_pred:pl <- $r15d
	#DEBUG_VALUE: intra4x4_hor_pred:ioff <- $r12d
	#DEBUG_VALUE: intra4x4_hor_pred:joff <- $r13d
	#DEBUG_VALUE: intra4x4_hor_pred:p_Vid <- $rbx
	#DEBUG_VALUE: intra4x4_hor_pred:currSlice <- $r14
	.loc	0 218 57 is_stmt 0              # ldecod_src/intra4x4_pred_normal.c:218:57
	movq	13544(%r14), %rax
	.loc	0 218 75                        # ldecod_src/intra4x4_pred_normal.c:218:75
	movslq	4(%rsp), %rcx
	.loc	0 218 46                        # ldecod_src/intra4x4_pred_normal.c:218:46
	movsbl	(%rax,%rcx), %eax
.Ltmp57:
.LBB0_19:                               # %if.end.i93
	#DEBUG_VALUE: intra4x4_pred_normal:currMB <- [DW_OP_LLVM_entry_value 1] $rdi
	#DEBUG_VALUE: intra4x4_pred_normal:pl <- $r15d
	#DEBUG_VALUE: intra4x4_pred_normal:ioff <- $r12d
	#DEBUG_VALUE: intra4x4_pred_normal:joff <- $r13d
	#DEBUG_VALUE: intra4x4_pred_normal:img_block_x <- [DW_OP_LLVM_entry_value 1] $r8d
	#DEBUG_VALUE: intra4x4_pred_normal:img_block_y <- [DW_OP_LLVM_entry_value 1] $r9d
	#DEBUG_VALUE: intra4x4_pred_normal:p_Vid <- $rbx
	#DEBUG_VALUE: intra4x4_hor_pred:pix_a <- [DW_OP_deref] $rsp
	#DEBUG_VALUE: intra4x4_hor_pred:pl <- $r15d
	#DEBUG_VALUE: intra4x4_hor_pred:ioff <- $r12d
	#DEBUG_VALUE: intra4x4_hor_pred:joff <- $r13d
	#DEBUG_VALUE: intra4x4_hor_pred:p_Vid <- $rbx
	#DEBUG_VALUE: intra4x4_hor_pred:currSlice <- $r14
	#DEBUG_VALUE: intra4x4_hor_pred:block_available_left <- $eax
	.loc	0 225 8 is_stmt 1               # ldecod_src/intra4x4_pred_normal.c:225:8
	testl	%eax, %eax
.Ltmp58:
	.loc	0 225 7 is_stmt 0               # ldecod_src/intra4x4_pred_normal.c:225:7
	je	.LBB0_44
.Ltmp59:
# %bb.20:                               # %if.else7.i96
	#DEBUG_VALUE: intra4x4_pred_normal:currMB <- [DW_OP_LLVM_entry_value 1] $rdi
	#DEBUG_VALUE: intra4x4_pred_normal:pl <- $r15d
	#DEBUG_VALUE: intra4x4_pred_normal:ioff <- $r12d
	#DEBUG_VALUE: intra4x4_pred_normal:joff <- $r13d
	#DEBUG_VALUE: intra4x4_pred_normal:img_block_x <- [DW_OP_LLVM_entry_value 1] $r8d
	#DEBUG_VALUE: intra4x4_pred_normal:img_block_y <- [DW_OP_LLVM_entry_value 1] $r9d
	#DEBUG_VALUE: intra4x4_pred_normal:p_Vid <- $rbx
	#DEBUG_VALUE: intra4x4_hor_pred:pix_a <- [DW_OP_deref] $rsp
	#DEBUG_VALUE: intra4x4_hor_pred:pl <- $r15d
	#DEBUG_VALUE: intra4x4_hor_pred:ioff <- $r12d
	#DEBUG_VALUE: intra4x4_hor_pred:joff <- $r13d
	#DEBUG_VALUE: intra4x4_hor_pred:p_Vid <- $rbx
	#DEBUG_VALUE: intra4x4_hor_pred:currSlice <- $r14
	#DEBUG_VALUE: intra4x4_hor_pred:block_available_left <- $eax
	.loc	0 243 23 is_stmt 1              # ldecod_src/intra4x4_pred_normal.c:243:23
	movswq	14(%rsp), %rax
.Ltmp60:
	#DEBUG_VALUE: pos_y <- undef
	.loc	0 244 23                        # ldecod_src/intra4x4_pred_normal.c:244:23
	movswq	12(%rsp), %rcx
.Ltmp61:
	#DEBUG_VALUE: pos_x <- undef
	.loc	0 246 38                        # ldecod_src/intra4x4_pred_normal.c:246:38
	movq	1248(%r14), %rdx
	.loc	0 246 27 is_stmt 0              # ldecod_src/intra4x4_pred_normal.c:246:27
	movl	%r15d, %esi
	movq	(%rdx,%rsi,8), %rdx
	movslq	%r13d, %rsi
.Ltmp62:
	#DEBUG_VALUE: mb_pred <- [DW_OP_LLVM_arg 0, DW_OP_LLVM_arg 1, DW_OP_constu 8, DW_OP_mul, DW_OP_plus, DW_OP_stack_value] $rdx, $rsi
	.loc	0 247 0 is_stmt 1               # ldecod_src/intra4x4_pred_normal.c:247:0
	movq	13520(%r14), %rdi
	.loc	0 247 21 is_stmt 0              # ldecod_src/intra4x4_pred_normal.c:247:21
	testl	%r15d, %r15d
	je	.LBB0_128
.Ltmp63:
# %bb.21:                               # %cond.true18.i
	#DEBUG_VALUE: intra4x4_pred_normal:currMB <- [DW_OP_LLVM_entry_value 1] $rdi
	#DEBUG_VALUE: intra4x4_pred_normal:pl <- $r15d
	#DEBUG_VALUE: intra4x4_pred_normal:ioff <- $r12d
	#DEBUG_VALUE: intra4x4_pred_normal:joff <- $r13d
	#DEBUG_VALUE: intra4x4_pred_normal:img_block_x <- [DW_OP_LLVM_entry_value 1] $r8d
	#DEBUG_VALUE: intra4x4_pred_normal:img_block_y <- [DW_OP_LLVM_entry_value 1] $r9d
	#DEBUG_VALUE: intra4x4_pred_normal:p_Vid <- $rbx
	#DEBUG_VALUE: intra4x4_hor_pred:pix_a <- [DW_OP_deref] $rsp
	#DEBUG_VALUE: intra4x4_hor_pred:pl <- $r15d
	#DEBUG_VALUE: intra4x4_hor_pred:ioff <- $r12d
	#DEBUG_VALUE: intra4x4_hor_pred:joff <- $r13d
	#DEBUG_VALUE: intra4x4_hor_pred:p_Vid <- $rbx
	#DEBUG_VALUE: intra4x4_hor_pred:currSlice <- $r14
	#DEBUG_VALUE: mb_pred <- [DW_OP_LLVM_arg 0, DW_OP_LLVM_arg 1, DW_OP_constu 8, DW_OP_mul, DW_OP_plus, DW_OP_stack_value] $rdx, $rsi
	.loc	0 247 61                        # ldecod_src/intra4x4_pred_normal.c:247:61
	decl	%r15d
.Ltmp64:
	#DEBUG_VALUE: intra4x4_pred_normal:pl <- [DW_OP_LLVM_entry_value 1] $esi
	.loc	0 247 28                        # ldecod_src/intra4x4_pred_normal.c:247:28
	shlq	$3, %r15
	addq	136(%rdi), %r15
	.loc	0 247 21                        # ldecod_src/intra4x4_pred_normal.c:247:21
	jmp	.LBB0_129
.Ltmp65:
.LBB0_22:                               # %sw.bb12
	#DEBUG_VALUE: intra4x4_pred_normal:currMB <- $rdi
	#DEBUG_VALUE: intra4x4_pred_normal:pl <- $r15d
	#DEBUG_VALUE: intra4x4_pred_normal:ioff <- $r12d
	#DEBUG_VALUE: intra4x4_pred_normal:joff <- $r13d
	#DEBUG_VALUE: intra4x4_pred_normal:img_block_x <- $r8d
	#DEBUG_VALUE: intra4x4_pred_normal:img_block_y <- $r9d
	#DEBUG_VALUE: intra4x4_pred_normal:p_Vid <- $rbx
	#DEBUG_VALUE: intra4x4_pred_normal:predmode <- [DW_OP_LLVM_convert 64 7, DW_OP_LLVM_convert 8 7] $esi
	#DEBUG_VALUE: intra4x4_vert_right_pred:pix_d <- [DW_OP_plus_uconst 64, DW_OP_deref] $rsp
	#DEBUG_VALUE: intra4x4_vert_right_pred:currMB <- $rdi
	#DEBUG_VALUE: intra4x4_vert_right_pred:pl <- $r15d
	#DEBUG_VALUE: intra4x4_vert_right_pred:ioff <- $r12d
	#DEBUG_VALUE: intra4x4_vert_right_pred:joff <- $r13d
	.loc	0 0 21                          # ldecod_src/intra4x4_pred_normal.c:0:21
	movq	%r15, 40(%rsp)                  # 8-byte Spill
.Ltmp66:
	#DEBUG_VALUE: intra4x4_vert_right_pred:pl <- [DW_OP_plus_uconst 40, DW_OP_deref] $rsp
	#DEBUG_VALUE: intra4x4_pred_normal:pl <- [DW_OP_plus_uconst 40] [$rsp+0]
	.loc	0 450 30 is_stmt 1              # ldecod_src/intra4x4_pred_normal.c:450:30
	movq	(%rdi), %rax
.Ltmp67:
	#DEBUG_VALUE: intra4x4_vert_right_pred:currSlice <- $rax
	#DEBUG_VALUE: intra4x4_vert_right_pred:p_Vid <- $rbx
	.loc	0 0 30 is_stmt 0                # ldecod_src/intra4x4_pred_normal.c:0:30
	movq	%rax, 56(%rsp)                  # 8-byte Spill
.Ltmp68:
	#DEBUG_VALUE: intra4x4_vert_right_pred:currSlice <- [DW_OP_plus_uconst 56, DW_OP_deref] $rsp
	.loc	0 459 35 is_stmt 1              # ldecod_src/intra4x4_pred_normal.c:459:35
	leal	-1(%r12), %ebp
	movq	%r12, %r15
	.loc	0 459 57 is_stmt 0              # ldecod_src/intra4x4_pred_normal.c:459:57
	leaq	849124(%rbx), %r12
.Ltmp69:
	#DEBUG_VALUE: intra4x4_vert_right_pred:ioff <- $r15d
	#DEBUG_VALUE: intra4x4_pred_normal:ioff <- $r15d
	.loc	0 0 57                          # ldecod_src/intra4x4_pred_normal.c:0:57
	movq	%rsp, %r8
.Ltmp70:
	#DEBUG_VALUE: intra4x4_pred_normal:img_block_x <- [DW_OP_LLVM_entry_value 1] $r8d
	movq	%r13, %r14
	movq	%rdi, %r13
.Ltmp71:
	#DEBUG_VALUE: intra4x4_vert_right_pred:joff <- $r14d
	#DEBUG_VALUE: intra4x4_pred_normal:joff <- $r14d
	.loc	0 459 3                         # ldecod_src/intra4x4_pred_normal.c:459:3
	movl	%ebp, %esi
.Ltmp72:
	movl	%r14d, %edx
	movq	%r12, %rcx
	callq	getNonAffNeighbour@PLT
.Ltmp73:
	#DEBUG_VALUE: intra4x4_pred_normal:img_block_y <- [DW_OP_LLVM_entry_value 1] $r9d
	#DEBUG_VALUE: intra4x4_vert_right_pred:currMB <- $r13
	#DEBUG_VALUE: intra4x4_pred_normal:currMB <- $r13
	.loc	0 0 3                           # ldecod_src/intra4x4_pred_normal.c:0:3
	movq	%r14, 16(%rsp)                  # 8-byte Spill
.Ltmp74:
	#DEBUG_VALUE: intra4x4_vert_right_pred:joff <- [DW_OP_plus_uconst 16, DW_OP_deref] $rsp
	#DEBUG_VALUE: intra4x4_pred_normal:joff <- [DW_OP_plus_uconst 16] [$rsp+0]
	.loc	0 460 45 is_stmt 1              # ldecod_src/intra4x4_pred_normal.c:460:45
	decl	%r14d
	leaq	24(%rsp), %r8
	.loc	0 460 3 is_stmt 0               # ldecod_src/intra4x4_pred_normal.c:460:3
	movq	%r13, %rdi
	movq	%r15, 48(%rsp)                  # 8-byte Spill
.Ltmp75:
	#DEBUG_VALUE: intra4x4_vert_right_pred:ioff <- [DW_OP_plus_uconst 48, DW_OP_deref] $rsp
	#DEBUG_VALUE: intra4x4_pred_normal:ioff <- [DW_OP_plus_uconst 48] [$rsp+0]
	movl	%r15d, %esi
	movl	%r14d, %edx
	movq	%r12, %rcx
	callq	getNonAffNeighbour@PLT
.Ltmp76:
	.loc	0 0 3                           # ldecod_src/intra4x4_pred_normal.c:0:3
	leaq	64(%rsp), %r8
	.loc	0 461 3 is_stmt 1               # ldecod_src/intra4x4_pred_normal.c:461:3
	movq	%r13, %rdi
	movl	%ebp, %esi
	movl	%r14d, %edx
	movq	%r12, %rcx
	callq	getNonAffNeighbour@PLT
.Ltmp77:
	.loc	0 463 14                        # ldecod_src/intra4x4_pred_normal.c:463:14
	movq	8(%rbx), %rax
	.loc	0 463 7 is_stmt 0               # ldecod_src/intra4x4_pred_normal.c:463:7
	cmpl	$0, 2204(%rax)
	.loc	0 0 0                           # ldecod_src/intra4x4_pred_normal.c:0:0
	movl	(%rsp), %eax
.Ltmp78:
	.loc	0 463 7                         # ldecod_src/intra4x4_pred_normal.c:463:7
	je	.LBB0_91
.Ltmp79:
# %bb.23:                               # %if.then.i201
	#DEBUG_VALUE: intra4x4_pred_normal:currMB <- $r13
	#DEBUG_VALUE: intra4x4_pred_normal:pl <- [DW_OP_plus_uconst 40] [$rsp+0]
	#DEBUG_VALUE: intra4x4_pred_normal:ioff <- [DW_OP_plus_uconst 48] [$rsp+0]
	#DEBUG_VALUE: intra4x4_pred_normal:joff <- [DW_OP_plus_uconst 16] [$rsp+0]
	#DEBUG_VALUE: intra4x4_pred_normal:img_block_x <- [DW_OP_LLVM_entry_value 1] $r8d
	#DEBUG_VALUE: intra4x4_pred_normal:img_block_y <- [DW_OP_LLVM_entry_value 1] $r9d
	#DEBUG_VALUE: intra4x4_pred_normal:p_Vid <- $rbx
	#DEBUG_VALUE: intra4x4_vert_right_pred:pix_d <- [DW_OP_plus_uconst 64, DW_OP_deref] $rsp
	#DEBUG_VALUE: intra4x4_vert_right_pred:currMB <- $r13
	#DEBUG_VALUE: intra4x4_vert_right_pred:pl <- [DW_OP_plus_uconst 40, DW_OP_deref] $rsp
	#DEBUG_VALUE: intra4x4_vert_right_pred:ioff <- [DW_OP_plus_uconst 48, DW_OP_deref] $rsp
	#DEBUG_VALUE: intra4x4_vert_right_pred:joff <- [DW_OP_plus_uconst 16, DW_OP_deref] $rsp
	#DEBUG_VALUE: intra4x4_vert_right_pred:currSlice <- [DW_OP_plus_uconst 56, DW_OP_deref] $rsp
	#DEBUG_VALUE: intra4x4_vert_right_pred:p_Vid <- $rbx
	.loc	0 0 7                           # ldecod_src/intra4x4_pred_normal.c:0:7
	xorl	%ecx, %ecx
.Ltmp80:
	.loc	0 465 32 is_stmt 1              # ldecod_src/intra4x4_pred_normal.c:465:32
	testl	%eax, %eax
	movl	$0, %eax
	movq	56(%rsp), %r14                  # 8-byte Reload
	je	.LBB0_25
.Ltmp81:
# %bb.24:                               # %cond.true.i203
	#DEBUG_VALUE: intra4x4_pred_normal:currMB <- $r13
	#DEBUG_VALUE: intra4x4_pred_normal:pl <- [DW_OP_plus_uconst 40] [$rsp+0]
	#DEBUG_VALUE: intra4x4_pred_normal:ioff <- [DW_OP_plus_uconst 48] [$rsp+0]
	#DEBUG_VALUE: intra4x4_pred_normal:joff <- [DW_OP_plus_uconst 16] [$rsp+0]
	#DEBUG_VALUE: intra4x4_pred_normal:img_block_x <- [DW_OP_LLVM_entry_value 1] $r8d
	#DEBUG_VALUE: intra4x4_pred_normal:img_block_y <- [DW_OP_LLVM_entry_value 1] $r9d
	#DEBUG_VALUE: intra4x4_pred_normal:p_Vid <- $rbx
	#DEBUG_VALUE: intra4x4_vert_right_pred:pix_d <- [DW_OP_plus_uconst 64, DW_OP_deref] $rsp
	#DEBUG_VALUE: intra4x4_vert_right_pred:currMB <- $r13
	#DEBUG_VALUE: intra4x4_vert_right_pred:pl <- [DW_OP_plus_uconst 40, DW_OP_deref] $rsp
	#DEBUG_VALUE: intra4x4_vert_right_pred:ioff <- [DW_OP_plus_uconst 48, DW_OP_deref] $rsp
	#DEBUG_VALUE: intra4x4_vert_right_pred:joff <- [DW_OP_plus_uconst 16, DW_OP_deref] $rsp
	#DEBUG_VALUE: intra4x4_vert_right_pred:currSlice <- [DW_OP_plus_uconst 56, DW_OP_deref] $rsp
	#DEBUG_VALUE: intra4x4_vert_right_pred:p_Vid <- $rbx
	.loc	0 465 61 is_stmt 0              # ldecod_src/intra4x4_pred_normal.c:465:61
	movq	13544(%r14), %rax
	.loc	0 465 79                        # ldecod_src/intra4x4_pred_normal.c:465:79
	movslq	4(%rsp), %rdx
	.loc	0 465 50                        # ldecod_src/intra4x4_pred_normal.c:465:50
	movsbl	(%rax,%rdx), %eax
.Ltmp82:
.LBB0_25:                               # %cond.end.i208
	#DEBUG_VALUE: intra4x4_pred_normal:currMB <- $r13
	#DEBUG_VALUE: intra4x4_pred_normal:pl <- [DW_OP_plus_uconst 40] [$rsp+0]
	#DEBUG_VALUE: intra4x4_pred_normal:ioff <- [DW_OP_plus_uconst 48] [$rsp+0]
	#DEBUG_VALUE: intra4x4_pred_normal:joff <- [DW_OP_plus_uconst 16] [$rsp+0]
	#DEBUG_VALUE: intra4x4_pred_normal:img_block_x <- [DW_OP_LLVM_entry_value 1] $r8d
	#DEBUG_VALUE: intra4x4_pred_normal:img_block_y <- [DW_OP_LLVM_entry_value 1] $r9d
	#DEBUG_VALUE: intra4x4_pred_normal:p_Vid <- $rbx
	#DEBUG_VALUE: intra4x4_vert_right_pred:pix_d <- [DW_OP_plus_uconst 64, DW_OP_deref] $rsp
	#DEBUG_VALUE: intra4x4_vert_right_pred:currMB <- $r13
	#DEBUG_VALUE: intra4x4_vert_right_pred:pl <- [DW_OP_plus_uconst 40, DW_OP_deref] $rsp
	#DEBUG_VALUE: intra4x4_vert_right_pred:ioff <- [DW_OP_plus_uconst 48, DW_OP_deref] $rsp
	#DEBUG_VALUE: intra4x4_vert_right_pred:joff <- [DW_OP_plus_uconst 16, DW_OP_deref] $rsp
	#DEBUG_VALUE: intra4x4_vert_right_pred:currSlice <- [DW_OP_plus_uconst 56, DW_OP_deref] $rsp
	#DEBUG_VALUE: intra4x4_vert_right_pred:p_Vid <- $rbx
	#DEBUG_VALUE: intra4x4_vert_right_pred:block_available_left <- $eax
	.loc	0 466 32 is_stmt 1              # ldecod_src/intra4x4_pred_normal.c:466:32
	cmpl	$0, 24(%rsp)
	movq	48(%rsp), %r12                  # 8-byte Reload
	movq	16(%rsp), %r13                  # 8-byte Reload
.Ltmp83:
	.loc	0 0 32 is_stmt 0                # ldecod_src/intra4x4_pred_normal.c:0:32
	movq	40(%rsp), %rbx                  # 8-byte Reload
.Ltmp84:
	.loc	0 466 32                        # ldecod_src/intra4x4_pred_normal.c:466:32
	je	.LBB0_27
.Ltmp85:
# %bb.26:                               # %cond.true15.i211
	#DEBUG_VALUE: intra4x4_pred_normal:currMB <- [DW_OP_LLVM_entry_value 1] $rdi
	#DEBUG_VALUE: intra4x4_pred_normal:pl <- [DW_OP_plus_uconst 40] [$rsp+0]
	#DEBUG_VALUE: intra4x4_pred_normal:ioff <- [DW_OP_plus_uconst 48] [$rsp+0]
	#DEBUG_VALUE: intra4x4_pred_normal:joff <- [DW_OP_plus_uconst 16] [$rsp+0]
	#DEBUG_VALUE: intra4x4_pred_normal:img_block_x <- [DW_OP_LLVM_entry_value 1] $r8d
	#DEBUG_VALUE: intra4x4_pred_normal:img_block_y <- [DW_OP_LLVM_entry_value 1] $r9d
	#DEBUG_VALUE: intra4x4_vert_right_pred:pix_d <- [DW_OP_plus_uconst 64, DW_OP_deref] $rsp
	#DEBUG_VALUE: intra4x4_vert_right_pred:pl <- [DW_OP_plus_uconst 40, DW_OP_deref] $rsp
	#DEBUG_VALUE: intra4x4_vert_right_pred:ioff <- [DW_OP_plus_uconst 48, DW_OP_deref] $rsp
	#DEBUG_VALUE: intra4x4_vert_right_pred:joff <- [DW_OP_plus_uconst 16, DW_OP_deref] $rsp
	#DEBUG_VALUE: intra4x4_vert_right_pred:currSlice <- [DW_OP_plus_uconst 56, DW_OP_deref] $rsp
	#DEBUG_VALUE: intra4x4_vert_right_pred:block_available_left <- $eax
	.loc	0 466 61                        # ldecod_src/intra4x4_pred_normal.c:466:61
	movq	13544(%r14), %rcx
	.loc	0 466 80                        # ldecod_src/intra4x4_pred_normal.c:466:80
	movslq	28(%rsp), %rdx
	.loc	0 466 50                        # ldecod_src/intra4x4_pred_normal.c:466:50
	movsbl	(%rcx,%rdx), %ecx
.Ltmp86:
.LBB0_27:                               # %cond.end22.i
	#DEBUG_VALUE: intra4x4_pred_normal:currMB <- [DW_OP_LLVM_entry_value 1] $rdi
	#DEBUG_VALUE: intra4x4_pred_normal:pl <- [DW_OP_plus_uconst 40] [$rsp+0]
	#DEBUG_VALUE: intra4x4_pred_normal:ioff <- [DW_OP_plus_uconst 48] [$rsp+0]
	#DEBUG_VALUE: intra4x4_pred_normal:joff <- [DW_OP_plus_uconst 16] [$rsp+0]
	#DEBUG_VALUE: intra4x4_pred_normal:img_block_x <- [DW_OP_LLVM_entry_value 1] $r8d
	#DEBUG_VALUE: intra4x4_pred_normal:img_block_y <- [DW_OP_LLVM_entry_value 1] $r9d
	#DEBUG_VALUE: intra4x4_vert_right_pred:pix_d <- [DW_OP_plus_uconst 64, DW_OP_deref] $rsp
	#DEBUG_VALUE: intra4x4_vert_right_pred:pl <- [DW_OP_plus_uconst 40, DW_OP_deref] $rsp
	#DEBUG_VALUE: intra4x4_vert_right_pred:ioff <- [DW_OP_plus_uconst 48, DW_OP_deref] $rsp
	#DEBUG_VALUE: intra4x4_vert_right_pred:joff <- [DW_OP_plus_uconst 16, DW_OP_deref] $rsp
	#DEBUG_VALUE: intra4x4_vert_right_pred:currSlice <- [DW_OP_plus_uconst 56, DW_OP_deref] $rsp
	#DEBUG_VALUE: intra4x4_vert_right_pred:block_available_left <- $eax
	#DEBUG_VALUE: intra4x4_vert_right_pred:block_available_up <- $ecx
	.loc	0 467 32 is_stmt 1              # ldecod_src/intra4x4_pred_normal.c:467:32
	cmpl	$0, 64(%rsp)
	je	.LBB0_95
.Ltmp87:
# %bb.28:                               # %cond.true26.i
	#DEBUG_VALUE: intra4x4_pred_normal:currMB <- [DW_OP_LLVM_entry_value 1] $rdi
	#DEBUG_VALUE: intra4x4_pred_normal:pl <- [DW_OP_plus_uconst 40] [$rsp+0]
	#DEBUG_VALUE: intra4x4_pred_normal:ioff <- [DW_OP_plus_uconst 48] [$rsp+0]
	#DEBUG_VALUE: intra4x4_pred_normal:joff <- [DW_OP_plus_uconst 16] [$rsp+0]
	#DEBUG_VALUE: intra4x4_pred_normal:img_block_x <- [DW_OP_LLVM_entry_value 1] $r8d
	#DEBUG_VALUE: intra4x4_pred_normal:img_block_y <- [DW_OP_LLVM_entry_value 1] $r9d
	#DEBUG_VALUE: intra4x4_vert_right_pred:pix_d <- [DW_OP_plus_uconst 64, DW_OP_deref] $rsp
	#DEBUG_VALUE: intra4x4_vert_right_pred:pl <- [DW_OP_plus_uconst 40, DW_OP_deref] $rsp
	#DEBUG_VALUE: intra4x4_vert_right_pred:ioff <- [DW_OP_plus_uconst 48, DW_OP_deref] $rsp
	#DEBUG_VALUE: intra4x4_vert_right_pred:joff <- [DW_OP_plus_uconst 16, DW_OP_deref] $rsp
	#DEBUG_VALUE: intra4x4_vert_right_pred:currSlice <- [DW_OP_plus_uconst 56, DW_OP_deref] $rsp
	#DEBUG_VALUE: intra4x4_vert_right_pred:block_available_left <- $eax
	#DEBUG_VALUE: intra4x4_vert_right_pred:block_available_up <- $ecx
	.loc	0 467 61 is_stmt 0              # ldecod_src/intra4x4_pred_normal.c:467:61
	movq	13544(%r14), %rdx
	.loc	0 467 80                        # ldecod_src/intra4x4_pred_normal.c:467:80
	movslq	68(%rsp), %rsi
	.loc	0 467 50                        # ldecod_src/intra4x4_pred_normal.c:467:50
	movsbl	(%rdx,%rsi), %edx
	.loc	0 467 32                        # ldecod_src/intra4x4_pred_normal.c:467:32
	jmp	.LBB0_92
.Ltmp88:
.LBB0_29:                               # %sw.bb18
	#DEBUG_VALUE: intra4x4_pred_normal:currMB <- $rdi
	#DEBUG_VALUE: intra4x4_pred_normal:pl <- $r15d
	#DEBUG_VALUE: intra4x4_pred_normal:ioff <- $r12d
	#DEBUG_VALUE: intra4x4_pred_normal:joff <- $r13d
	#DEBUG_VALUE: intra4x4_pred_normal:img_block_x <- $r8d
	#DEBUG_VALUE: intra4x4_pred_normal:img_block_y <- $r9d
	#DEBUG_VALUE: intra4x4_pred_normal:p_Vid <- $rbx
	#DEBUG_VALUE: intra4x4_pred_normal:predmode <- [DW_OP_LLVM_convert 64 7, DW_OP_LLVM_convert 8 7] $esi
	#DEBUG_VALUE: intra4x4_hor_down_pred:pix_d <- [DW_OP_plus_uconst 64, DW_OP_deref] $rsp
	#DEBUG_VALUE: intra4x4_hor_down_pred:currMB <- $rdi
	#DEBUG_VALUE: intra4x4_hor_down_pred:pl <- $r15d
	#DEBUG_VALUE: intra4x4_hor_down_pred:ioff <- $r12d
	#DEBUG_VALUE: intra4x4_hor_down_pred:joff <- $r13d
	.loc	0 0 32                          # ldecod_src/intra4x4_pred_normal.c:0:32
	movq	%r15, 40(%rsp)                  # 8-byte Spill
.Ltmp89:
	#DEBUG_VALUE: intra4x4_hor_down_pred:pl <- [DW_OP_plus_uconst 40, DW_OP_deref] $rsp
	#DEBUG_VALUE: intra4x4_pred_normal:pl <- [DW_OP_plus_uconst 40] [$rsp+0]
	.loc	0 691 30 is_stmt 1              # ldecod_src/intra4x4_pred_normal.c:691:30
	movq	(%rdi), %rax
.Ltmp90:
	#DEBUG_VALUE: intra4x4_hor_down_pred:currSlice <- $rax
	#DEBUG_VALUE: intra4x4_hor_down_pred:p_Vid <- $rbx
	.loc	0 0 30 is_stmt 0                # ldecod_src/intra4x4_pred_normal.c:0:30
	movq	%rax, 56(%rsp)                  # 8-byte Spill
.Ltmp91:
	#DEBUG_VALUE: intra4x4_hor_down_pred:currSlice <- [DW_OP_plus_uconst 56, DW_OP_deref] $rsp
	.loc	0 700 35 is_stmt 1              # ldecod_src/intra4x4_pred_normal.c:700:35
	leal	-1(%r12), %ebp
	.loc	0 700 57 is_stmt 0              # ldecod_src/intra4x4_pred_normal.c:700:57
	leaq	849124(%rbx), %r14
	movq	%rsp, %r8
.Ltmp92:
	#DEBUG_VALUE: intra4x4_pred_normal:img_block_x <- [DW_OP_LLVM_entry_value 1] $r8d
	.loc	0 0 57                          # ldecod_src/intra4x4_pred_normal.c:0:57
	movq	%r12, %r15
	movq	%rdi, %r12
.Ltmp93:
	#DEBUG_VALUE: intra4x4_hor_down_pred:ioff <- $r15d
	#DEBUG_VALUE: intra4x4_pred_normal:ioff <- $r15d
	.loc	0 700 3                         # ldecod_src/intra4x4_pred_normal.c:700:3
	movl	%ebp, %esi
.Ltmp94:
	movl	%r13d, %edx
	movq	%r14, %rcx
	callq	getNonAffNeighbour@PLT
.Ltmp95:
	#DEBUG_VALUE: intra4x4_pred_normal:img_block_y <- [DW_OP_LLVM_entry_value 1] $r9d
	#DEBUG_VALUE: intra4x4_hor_down_pred:currMB <- $r12
	#DEBUG_VALUE: intra4x4_pred_normal:currMB <- $r12
	.loc	0 0 3                           # ldecod_src/intra4x4_pred_normal.c:0:3
	movq	%r13, 16(%rsp)                  # 8-byte Spill
.Ltmp96:
	#DEBUG_VALUE: intra4x4_hor_down_pred:joff <- [DW_OP_plus_uconst 16, DW_OP_deref] $rsp
	#DEBUG_VALUE: intra4x4_pred_normal:joff <- [DW_OP_plus_uconst 16] [$rsp+0]
	.loc	0 701 45 is_stmt 1              # ldecod_src/intra4x4_pred_normal.c:701:45
	decl	%r13d
	leaq	24(%rsp), %r8
	.loc	0 701 3 is_stmt 0               # ldecod_src/intra4x4_pred_normal.c:701:3
	movq	%r12, %rdi
	movq	%r15, 48(%rsp)                  # 8-byte Spill
.Ltmp97:
	#DEBUG_VALUE: intra4x4_hor_down_pred:ioff <- [DW_OP_plus_uconst 48, DW_OP_deref] $rsp
	#DEBUG_VALUE: intra4x4_pred_normal:ioff <- [DW_OP_plus_uconst 48] [$rsp+0]
	movl	%r15d, %esi
	movl	%r13d, %edx
	movq	%r14, %rcx
	callq	getNonAffNeighbour@PLT
.Ltmp98:
	.loc	0 0 3                           # ldecod_src/intra4x4_pred_normal.c:0:3
	leaq	64(%rsp), %r8
	.loc	0 702 3 is_stmt 1               # ldecod_src/intra4x4_pred_normal.c:702:3
	movq	%r12, %rdi
	movl	%ebp, %esi
	movl	%r13d, %edx
	movq	%r14, %rcx
	callq	getNonAffNeighbour@PLT
.Ltmp99:
	.loc	0 704 14                        # ldecod_src/intra4x4_pred_normal.c:704:14
	movq	8(%rbx), %rax
	.loc	0 704 7 is_stmt 0               # ldecod_src/intra4x4_pred_normal.c:704:7
	cmpl	$0, 2204(%rax)
	.loc	0 0 0                           # ldecod_src/intra4x4_pred_normal.c:0:0
	movl	(%rsp), %eax
.Ltmp100:
	.loc	0 704 7                         # ldecod_src/intra4x4_pred_normal.c:704:7
	je	.LBB0_100
.Ltmp101:
# %bb.30:                               # %if.then.i408
	#DEBUG_VALUE: intra4x4_pred_normal:currMB <- $r12
	#DEBUG_VALUE: intra4x4_pred_normal:pl <- [DW_OP_plus_uconst 40] [$rsp+0]
	#DEBUG_VALUE: intra4x4_pred_normal:ioff <- [DW_OP_plus_uconst 48] [$rsp+0]
	#DEBUG_VALUE: intra4x4_pred_normal:joff <- [DW_OP_plus_uconst 16] [$rsp+0]
	#DEBUG_VALUE: intra4x4_pred_normal:img_block_x <- [DW_OP_LLVM_entry_value 1] $r8d
	#DEBUG_VALUE: intra4x4_pred_normal:img_block_y <- [DW_OP_LLVM_entry_value 1] $r9d
	#DEBUG_VALUE: intra4x4_pred_normal:p_Vid <- $rbx
	#DEBUG_VALUE: intra4x4_hor_down_pred:pix_d <- [DW_OP_plus_uconst 64, DW_OP_deref] $rsp
	#DEBUG_VALUE: intra4x4_hor_down_pred:currMB <- $r12
	#DEBUG_VALUE: intra4x4_hor_down_pred:pl <- [DW_OP_plus_uconst 40, DW_OP_deref] $rsp
	#DEBUG_VALUE: intra4x4_hor_down_pred:ioff <- [DW_OP_plus_uconst 48, DW_OP_deref] $rsp
	#DEBUG_VALUE: intra4x4_hor_down_pred:joff <- [DW_OP_plus_uconst 16, DW_OP_deref] $rsp
	#DEBUG_VALUE: intra4x4_hor_down_pred:currSlice <- [DW_OP_plus_uconst 56, DW_OP_deref] $rsp
	#DEBUG_VALUE: intra4x4_hor_down_pred:p_Vid <- $rbx
	.loc	0 0 7                           # ldecod_src/intra4x4_pred_normal.c:0:7
	xorl	%ecx, %ecx
.Ltmp102:
	.loc	0 706 31 is_stmt 1              # ldecod_src/intra4x4_pred_normal.c:706:31
	testl	%eax, %eax
	movl	$0, %eax
	movq	56(%rsp), %rdi                  # 8-byte Reload
	je	.LBB0_32
.Ltmp103:
# %bb.31:                               # %cond.true.i410
	#DEBUG_VALUE: intra4x4_pred_normal:currMB <- $r12
	#DEBUG_VALUE: intra4x4_pred_normal:pl <- [DW_OP_plus_uconst 40] [$rsp+0]
	#DEBUG_VALUE: intra4x4_pred_normal:ioff <- [DW_OP_plus_uconst 48] [$rsp+0]
	#DEBUG_VALUE: intra4x4_pred_normal:joff <- [DW_OP_plus_uconst 16] [$rsp+0]
	#DEBUG_VALUE: intra4x4_pred_normal:img_block_x <- [DW_OP_LLVM_entry_value 1] $r8d
	#DEBUG_VALUE: intra4x4_pred_normal:img_block_y <- [DW_OP_LLVM_entry_value 1] $r9d
	#DEBUG_VALUE: intra4x4_pred_normal:p_Vid <- $rbx
	#DEBUG_VALUE: intra4x4_hor_down_pred:pix_d <- [DW_OP_plus_uconst 64, DW_OP_deref] $rsp
	#DEBUG_VALUE: intra4x4_hor_down_pred:currMB <- $r12
	#DEBUG_VALUE: intra4x4_hor_down_pred:pl <- [DW_OP_plus_uconst 40, DW_OP_deref] $rsp
	#DEBUG_VALUE: intra4x4_hor_down_pred:ioff <- [DW_OP_plus_uconst 48, DW_OP_deref] $rsp
	#DEBUG_VALUE: intra4x4_hor_down_pred:joff <- [DW_OP_plus_uconst 16, DW_OP_deref] $rsp
	#DEBUG_VALUE: intra4x4_hor_down_pred:currSlice <- [DW_OP_plus_uconst 56, DW_OP_deref] $rsp
	#DEBUG_VALUE: intra4x4_hor_down_pred:p_Vid <- $rbx
	.loc	0 706 60 is_stmt 0              # ldecod_src/intra4x4_pred_normal.c:706:60
	movq	13544(%rdi), %rax
	.loc	0 706 79                        # ldecod_src/intra4x4_pred_normal.c:706:79
	movslq	4(%rsp), %rdx
	.loc	0 706 49                        # ldecod_src/intra4x4_pred_normal.c:706:49
	movsbl	(%rax,%rdx), %eax
.Ltmp104:
.LBB0_32:                               # %cond.end.i416
	#DEBUG_VALUE: intra4x4_pred_normal:currMB <- $r12
	#DEBUG_VALUE: intra4x4_pred_normal:pl <- [DW_OP_plus_uconst 40] [$rsp+0]
	#DEBUG_VALUE: intra4x4_pred_normal:ioff <- [DW_OP_plus_uconst 48] [$rsp+0]
	#DEBUG_VALUE: intra4x4_pred_normal:joff <- [DW_OP_plus_uconst 16] [$rsp+0]
	#DEBUG_VALUE: intra4x4_pred_normal:img_block_x <- [DW_OP_LLVM_entry_value 1] $r8d
	#DEBUG_VALUE: intra4x4_pred_normal:img_block_y <- [DW_OP_LLVM_entry_value 1] $r9d
	#DEBUG_VALUE: intra4x4_pred_normal:p_Vid <- $rbx
	#DEBUG_VALUE: intra4x4_hor_down_pred:pix_d <- [DW_OP_plus_uconst 64, DW_OP_deref] $rsp
	#DEBUG_VALUE: intra4x4_hor_down_pred:currMB <- $r12
	#DEBUG_VALUE: intra4x4_hor_down_pred:pl <- [DW_OP_plus_uconst 40, DW_OP_deref] $rsp
	#DEBUG_VALUE: intra4x4_hor_down_pred:ioff <- [DW_OP_plus_uconst 48, DW_OP_deref] $rsp
	#DEBUG_VALUE: intra4x4_hor_down_pred:joff <- [DW_OP_plus_uconst 16, DW_OP_deref] $rsp
	#DEBUG_VALUE: intra4x4_hor_down_pred:currSlice <- [DW_OP_plus_uconst 56, DW_OP_deref] $rsp
	#DEBUG_VALUE: intra4x4_hor_down_pred:p_Vid <- $rbx
	#DEBUG_VALUE: intra4x4_hor_down_pred:block_available_left <- $eax
	.loc	0 707 31 is_stmt 1              # ldecod_src/intra4x4_pred_normal.c:707:31
	cmpl	$0, 24(%rsp)
	movq	48(%rsp), %r12                  # 8-byte Reload
.Ltmp105:
	.loc	0 0 31 is_stmt 0                # ldecod_src/intra4x4_pred_normal.c:0:31
	movq	16(%rsp), %r15                  # 8-byte Reload
	.loc	0 707 31                        # ldecod_src/intra4x4_pred_normal.c:707:31
	je	.LBB0_34
.Ltmp106:
# %bb.33:                               # %cond.true15.i419
	#DEBUG_VALUE: intra4x4_pred_normal:currMB <- [DW_OP_LLVM_entry_value 1] $rdi
	#DEBUG_VALUE: intra4x4_pred_normal:pl <- [DW_OP_plus_uconst 40] [$rsp+0]
	#DEBUG_VALUE: intra4x4_pred_normal:ioff <- [DW_OP_plus_uconst 48] [$rsp+0]
	#DEBUG_VALUE: intra4x4_pred_normal:joff <- [DW_OP_plus_uconst 16] [$rsp+0]
	#DEBUG_VALUE: intra4x4_pred_normal:img_block_x <- [DW_OP_LLVM_entry_value 1] $r8d
	#DEBUG_VALUE: intra4x4_pred_normal:img_block_y <- [DW_OP_LLVM_entry_value 1] $r9d
	#DEBUG_VALUE: intra4x4_pred_normal:p_Vid <- $rbx
	#DEBUG_VALUE: intra4x4_hor_down_pred:pix_d <- [DW_OP_plus_uconst 64, DW_OP_deref] $rsp
	#DEBUG_VALUE: intra4x4_hor_down_pred:pl <- [DW_OP_plus_uconst 40, DW_OP_deref] $rsp
	#DEBUG_VALUE: intra4x4_hor_down_pred:ioff <- [DW_OP_plus_uconst 48, DW_OP_deref] $rsp
	#DEBUG_VALUE: intra4x4_hor_down_pred:joff <- [DW_OP_plus_uconst 16, DW_OP_deref] $rsp
	#DEBUG_VALUE: intra4x4_hor_down_pred:currSlice <- [DW_OP_plus_uconst 56, DW_OP_deref] $rsp
	#DEBUG_VALUE: intra4x4_hor_down_pred:p_Vid <- $rbx
	#DEBUG_VALUE: intra4x4_hor_down_pred:block_available_left <- $eax
	.loc	0 707 60                        # ldecod_src/intra4x4_pred_normal.c:707:60
	movq	13544(%rdi), %rcx
	.loc	0 707 79                        # ldecod_src/intra4x4_pred_normal.c:707:79
	movslq	28(%rsp), %rdx
	.loc	0 707 49                        # ldecod_src/intra4x4_pred_normal.c:707:49
	movsbl	(%rcx,%rdx), %ecx
.Ltmp107:
.LBB0_34:                               # %cond.end22.i425
	#DEBUG_VALUE: intra4x4_pred_normal:currMB <- [DW_OP_LLVM_entry_value 1] $rdi
	#DEBUG_VALUE: intra4x4_pred_normal:pl <- [DW_OP_plus_uconst 40] [$rsp+0]
	#DEBUG_VALUE: intra4x4_pred_normal:ioff <- [DW_OP_plus_uconst 48] [$rsp+0]
	#DEBUG_VALUE: intra4x4_pred_normal:joff <- [DW_OP_plus_uconst 16] [$rsp+0]
	#DEBUG_VALUE: intra4x4_pred_normal:img_block_x <- [DW_OP_LLVM_entry_value 1] $r8d
	#DEBUG_VALUE: intra4x4_pred_normal:img_block_y <- [DW_OP_LLVM_entry_value 1] $r9d
	#DEBUG_VALUE: intra4x4_pred_normal:p_Vid <- $rbx
	#DEBUG_VALUE: intra4x4_hor_down_pred:pix_d <- [DW_OP_plus_uconst 64, DW_OP_deref] $rsp
	#DEBUG_VALUE: intra4x4_hor_down_pred:pl <- [DW_OP_plus_uconst 40, DW_OP_deref] $rsp
	#DEBUG_VALUE: intra4x4_hor_down_pred:ioff <- [DW_OP_plus_uconst 48, DW_OP_deref] $rsp
	#DEBUG_VALUE: intra4x4_hor_down_pred:joff <- [DW_OP_plus_uconst 16, DW_OP_deref] $rsp
	#DEBUG_VALUE: intra4x4_hor_down_pred:currSlice <- [DW_OP_plus_uconst 56, DW_OP_deref] $rsp
	#DEBUG_VALUE: intra4x4_hor_down_pred:p_Vid <- $rbx
	#DEBUG_VALUE: intra4x4_hor_down_pred:block_available_left <- $eax
	#DEBUG_VALUE: intra4x4_hor_down_pred:block_available_up <- $ecx
	.loc	0 708 31 is_stmt 1              # ldecod_src/intra4x4_pred_normal.c:708:31
	cmpl	$0, 64(%rsp)
	je	.LBB0_106
.Ltmp108:
# %bb.35:                               # %cond.true26.i428
	#DEBUG_VALUE: intra4x4_pred_normal:currMB <- [DW_OP_LLVM_entry_value 1] $rdi
	#DEBUG_VALUE: intra4x4_pred_normal:pl <- [DW_OP_plus_uconst 40] [$rsp+0]
	#DEBUG_VALUE: intra4x4_pred_normal:ioff <- [DW_OP_plus_uconst 48] [$rsp+0]
	#DEBUG_VALUE: intra4x4_pred_normal:joff <- [DW_OP_plus_uconst 16] [$rsp+0]
	#DEBUG_VALUE: intra4x4_pred_normal:img_block_x <- [DW_OP_LLVM_entry_value 1] $r8d
	#DEBUG_VALUE: intra4x4_pred_normal:img_block_y <- [DW_OP_LLVM_entry_value 1] $r9d
	#DEBUG_VALUE: intra4x4_pred_normal:p_Vid <- $rbx
	#DEBUG_VALUE: intra4x4_hor_down_pred:pix_d <- [DW_OP_plus_uconst 64, DW_OP_deref] $rsp
	#DEBUG_VALUE: intra4x4_hor_down_pred:pl <- [DW_OP_plus_uconst 40, DW_OP_deref] $rsp
	#DEBUG_VALUE: intra4x4_hor_down_pred:ioff <- [DW_OP_plus_uconst 48, DW_OP_deref] $rsp
	#DEBUG_VALUE: intra4x4_hor_down_pred:joff <- [DW_OP_plus_uconst 16, DW_OP_deref] $rsp
	#DEBUG_VALUE: intra4x4_hor_down_pred:currSlice <- [DW_OP_plus_uconst 56, DW_OP_deref] $rsp
	#DEBUG_VALUE: intra4x4_hor_down_pred:p_Vid <- $rbx
	#DEBUG_VALUE: intra4x4_hor_down_pred:block_available_left <- $eax
	#DEBUG_VALUE: intra4x4_hor_down_pred:block_available_up <- $ecx
	.loc	0 708 60 is_stmt 0              # ldecod_src/intra4x4_pred_normal.c:708:60
	movq	13544(%rdi), %rdx
	.loc	0 708 79                        # ldecod_src/intra4x4_pred_normal.c:708:79
	movslq	68(%rsp), %rsi
	.loc	0 708 49                        # ldecod_src/intra4x4_pred_normal.c:708:49
	movsbl	(%rdx,%rsi), %edx
	.loc	0 708 31                        # ldecod_src/intra4x4_pred_normal.c:708:31
	jmp	.LBB0_101
.Ltmp109:
.LBB0_36:                               # %sw.bb16
	#DEBUG_VALUE: intra4x4_pred_normal:currMB <- $rdi
	#DEBUG_VALUE: intra4x4_pred_normal:pl <- $r15d
	#DEBUG_VALUE: intra4x4_pred_normal:ioff <- $r12d
	#DEBUG_VALUE: intra4x4_pred_normal:joff <- $r13d
	#DEBUG_VALUE: intra4x4_pred_normal:img_block_x <- $r8d
	#DEBUG_VALUE: intra4x4_pred_normal:img_block_y <- $r9d
	#DEBUG_VALUE: intra4x4_pred_normal:p_Vid <- $rbx
	#DEBUG_VALUE: intra4x4_pred_normal:predmode <- [DW_OP_LLVM_convert 64 7, DW_OP_LLVM_convert 8 7] $esi
	#DEBUG_VALUE: intra4x4_hor_up_pred:pix_a <- [DW_OP_deref] $rsp
	#DEBUG_VALUE: intra4x4_hor_up_pred:currMB <- $rdi
	#DEBUG_VALUE: intra4x4_hor_up_pred:pl <- $r15d
	#DEBUG_VALUE: intra4x4_hor_up_pred:ioff <- $r12d
	#DEBUG_VALUE: intra4x4_hor_up_pred:joff <- $r13d
	.loc	0 621 30 is_stmt 1              # ldecod_src/intra4x4_pred_normal.c:621:30
	movq	(%rdi), %r14
.Ltmp110:
	#DEBUG_VALUE: intra4x4_hor_up_pred:currSlice <- $r14
	#DEBUG_VALUE: intra4x4_hor_up_pred:p_Vid <- $rbx
	.loc	0 628 35                        # ldecod_src/intra4x4_pred_normal.c:628:35
	leal	-1(%r12), %esi
.Ltmp111:
	.loc	0 628 53 is_stmt 0              # ldecod_src/intra4x4_pred_normal.c:628:53
	leaq	849124(%rbx), %rcx
	movq	%rsp, %r8
.Ltmp112:
	#DEBUG_VALUE: intra4x4_pred_normal:img_block_x <- [DW_OP_LLVM_entry_value 1] $r8d
	.loc	0 628 3                         # ldecod_src/intra4x4_pred_normal.c:628:3
	movl	%r13d, %edx
	callq	getNonAffNeighbour@PLT
.Ltmp113:
	#DEBUG_VALUE: intra4x4_pred_normal:img_block_y <- [DW_OP_LLVM_entry_value 1] $r9d
	#DEBUG_VALUE: intra4x4_pred_normal:currMB <- [DW_OP_LLVM_entry_value 1] $rdi
	.loc	0 630 14 is_stmt 1              # ldecod_src/intra4x4_pred_normal.c:630:14
	movq	8(%rbx), %rax
	.loc	0 630 7 is_stmt 0               # ldecod_src/intra4x4_pred_normal.c:630:7
	cmpl	$0, 2204(%rax)
	.loc	0 0 0                           # ldecod_src/intra4x4_pred_normal.c:0:0
	movl	(%rsp), %eax
.Ltmp114:
	.loc	0 630 7                         # ldecod_src/intra4x4_pred_normal.c:630:7
	je	.LBB0_39
.Ltmp115:
# %bb.37:                               # %if.then.i366
	#DEBUG_VALUE: intra4x4_pred_normal:currMB <- [DW_OP_LLVM_entry_value 1] $rdi
	#DEBUG_VALUE: intra4x4_pred_normal:pl <- $r15d
	#DEBUG_VALUE: intra4x4_pred_normal:ioff <- $r12d
	#DEBUG_VALUE: intra4x4_pred_normal:joff <- $r13d
	#DEBUG_VALUE: intra4x4_pred_normal:img_block_x <- [DW_OP_LLVM_entry_value 1] $r8d
	#DEBUG_VALUE: intra4x4_pred_normal:img_block_y <- [DW_OP_LLVM_entry_value 1] $r9d
	#DEBUG_VALUE: intra4x4_pred_normal:p_Vid <- $rbx
	#DEBUG_VALUE: intra4x4_hor_up_pred:pix_a <- [DW_OP_deref] $rsp
	#DEBUG_VALUE: intra4x4_hor_up_pred:pl <- $r15d
	#DEBUG_VALUE: intra4x4_hor_up_pred:ioff <- $r12d
	#DEBUG_VALUE: intra4x4_hor_up_pred:joff <- $r13d
	#DEBUG_VALUE: intra4x4_hor_up_pred:currSlice <- $r14
	#DEBUG_VALUE: intra4x4_hor_up_pred:p_Vid <- $rbx
	.loc	0 632 28 is_stmt 1              # ldecod_src/intra4x4_pred_normal.c:632:28
	testl	%eax, %eax
	je	.LBB0_45
.Ltmp116:
# %bb.38:                               # %cond.true.i368
	#DEBUG_VALUE: intra4x4_pred_normal:currMB <- [DW_OP_LLVM_entry_value 1] $rdi
	#DEBUG_VALUE: intra4x4_pred_normal:pl <- $r15d
	#DEBUG_VALUE: intra4x4_pred_normal:ioff <- $r12d
	#DEBUG_VALUE: intra4x4_pred_normal:joff <- $r13d
	#DEBUG_VALUE: intra4x4_pred_normal:img_block_x <- [DW_OP_LLVM_entry_value 1] $r8d
	#DEBUG_VALUE: intra4x4_pred_normal:img_block_y <- [DW_OP_LLVM_entry_value 1] $r9d
	#DEBUG_VALUE: intra4x4_pred_normal:p_Vid <- $rbx
	#DEBUG_VALUE: intra4x4_hor_up_pred:pix_a <- [DW_OP_deref] $rsp
	#DEBUG_VALUE: intra4x4_hor_up_pred:pl <- $r15d
	#DEBUG_VALUE: intra4x4_hor_up_pred:ioff <- $r12d
	#DEBUG_VALUE: intra4x4_hor_up_pred:joff <- $r13d
	#DEBUG_VALUE: intra4x4_hor_up_pred:currSlice <- $r14
	#DEBUG_VALUE: intra4x4_hor_up_pred:p_Vid <- $rbx
	.loc	0 632 57 is_stmt 0              # ldecod_src/intra4x4_pred_normal.c:632:57
	movq	13544(%r14), %rax
	.loc	0 632 75                        # ldecod_src/intra4x4_pred_normal.c:632:75
	movslq	4(%rsp), %rcx
	.loc	0 632 46                        # ldecod_src/intra4x4_pred_normal.c:632:46
	movsbl	(%rax,%rcx), %eax
.Ltmp117:
.LBB0_39:                               # %if.end.i374
	#DEBUG_VALUE: intra4x4_pred_normal:currMB <- [DW_OP_LLVM_entry_value 1] $rdi
	#DEBUG_VALUE: intra4x4_pred_normal:pl <- $r15d
	#DEBUG_VALUE: intra4x4_pred_normal:ioff <- $r12d
	#DEBUG_VALUE: intra4x4_pred_normal:joff <- $r13d
	#DEBUG_VALUE: intra4x4_pred_normal:img_block_x <- [DW_OP_LLVM_entry_value 1] $r8d
	#DEBUG_VALUE: intra4x4_pred_normal:img_block_y <- [DW_OP_LLVM_entry_value 1] $r9d
	#DEBUG_VALUE: intra4x4_pred_normal:p_Vid <- $rbx
	#DEBUG_VALUE: intra4x4_hor_up_pred:pix_a <- [DW_OP_deref] $rsp
	#DEBUG_VALUE: intra4x4_hor_up_pred:pl <- $r15d
	#DEBUG_VALUE: intra4x4_hor_up_pred:ioff <- $r12d
	#DEBUG_VALUE: intra4x4_hor_up_pred:joff <- $r13d
	#DEBUG_VALUE: intra4x4_hor_up_pred:currSlice <- $r14
	#DEBUG_VALUE: intra4x4_hor_up_pred:p_Vid <- $rbx
	#DEBUG_VALUE: intra4x4_hor_up_pred:block_available_left <- $eax
	.loc	0 639 8 is_stmt 1               # ldecod_src/intra4x4_pred_normal.c:639:8
	testl	%eax, %eax
.Ltmp118:
	.loc	0 639 7 is_stmt 0               # ldecod_src/intra4x4_pred_normal.c:639:7
	je	.LBB0_45
.Ltmp119:
# %bb.40:                               # %if.else7.i377
	#DEBUG_VALUE: intra4x4_pred_normal:currMB <- [DW_OP_LLVM_entry_value 1] $rdi
	#DEBUG_VALUE: intra4x4_pred_normal:pl <- $r15d
	#DEBUG_VALUE: intra4x4_pred_normal:ioff <- $r12d
	#DEBUG_VALUE: intra4x4_pred_normal:joff <- $r13d
	#DEBUG_VALUE: intra4x4_pred_normal:img_block_x <- [DW_OP_LLVM_entry_value 1] $r8d
	#DEBUG_VALUE: intra4x4_pred_normal:img_block_y <- [DW_OP_LLVM_entry_value 1] $r9d
	#DEBUG_VALUE: intra4x4_pred_normal:p_Vid <- $rbx
	#DEBUG_VALUE: intra4x4_hor_up_pred:pix_a <- [DW_OP_deref] $rsp
	#DEBUG_VALUE: intra4x4_hor_up_pred:pl <- $r15d
	#DEBUG_VALUE: intra4x4_hor_up_pred:ioff <- $r12d
	#DEBUG_VALUE: intra4x4_hor_up_pred:joff <- $r13d
	#DEBUG_VALUE: intra4x4_hor_up_pred:currSlice <- $r14
	#DEBUG_VALUE: intra4x4_hor_up_pred:p_Vid <- $rbx
	#DEBUG_VALUE: intra4x4_hor_up_pred:block_available_left <- $eax
	.loc	0 644 0 is_stmt 1               # ldecod_src/intra4x4_pred_normal.c:644:0
	movq	13520(%r14), %rax
.Ltmp120:
	.loc	0 644 21 is_stmt 0              # ldecod_src/intra4x4_pred_normal.c:644:21
	testl	%r15d, %r15d
	je	.LBB0_130
.Ltmp121:
# %bb.41:                               # %cond.true9.i
	#DEBUG_VALUE: intra4x4_pred_normal:currMB <- [DW_OP_LLVM_entry_value 1] $rdi
	#DEBUG_VALUE: intra4x4_pred_normal:pl <- $r15d
	#DEBUG_VALUE: intra4x4_pred_normal:ioff <- $r12d
	#DEBUG_VALUE: intra4x4_pred_normal:joff <- $r13d
	#DEBUG_VALUE: intra4x4_pred_normal:img_block_x <- [DW_OP_LLVM_entry_value 1] $r8d
	#DEBUG_VALUE: intra4x4_pred_normal:img_block_y <- [DW_OP_LLVM_entry_value 1] $r9d
	#DEBUG_VALUE: intra4x4_pred_normal:p_Vid <- $rbx
	#DEBUG_VALUE: intra4x4_hor_up_pred:pix_a <- [DW_OP_deref] $rsp
	#DEBUG_VALUE: intra4x4_hor_up_pred:pl <- $r15d
	#DEBUG_VALUE: intra4x4_hor_up_pred:ioff <- $r12d
	#DEBUG_VALUE: intra4x4_hor_up_pred:joff <- $r13d
	#DEBUG_VALUE: intra4x4_hor_up_pred:currSlice <- $r14
	#DEBUG_VALUE: intra4x4_hor_up_pred:p_Vid <- $rbx
	.loc	0 644 61                        # ldecod_src/intra4x4_pred_normal.c:644:61
	leal	-1(%r15), %ecx
	.loc	0 644 28                        # ldecod_src/intra4x4_pred_normal.c:644:28
	shlq	$3, %rcx
	addq	136(%rax), %rcx
	.loc	0 644 21                        # ldecod_src/intra4x4_pred_normal.c:644:21
	jmp	.LBB0_131
.Ltmp122:
.LBB0_42:                               # %sw.default
	#DEBUG_VALUE: intra4x4_pred_normal:currMB <- $rdi
	#DEBUG_VALUE: intra4x4_pred_normal:pl <- $r15d
	#DEBUG_VALUE: intra4x4_pred_normal:ioff <- $edx
	#DEBUG_VALUE: intra4x4_pred_normal:joff <- $r13d
	#DEBUG_VALUE: intra4x4_pred_normal:img_block_x <- $r8d
	#DEBUG_VALUE: intra4x4_pred_normal:img_block_y <- $r9d
	#DEBUG_VALUE: intra4x4_pred_normal:p_Vid <- $rbx
	#DEBUG_VALUE: intra4x4_pred_normal:predmode <- [DW_OP_LLVM_convert 64 7, DW_OP_LLVM_convert 8 7] $esi
	.loc	0 812 5 is_stmt 1               # ldecod_src/intra4x4_pred_normal.c:812:5
	movl	$.L.str, %edi
.Ltmp123:
	#DEBUG_VALUE: intra4x4_pred_normal:currMB <- [DW_OP_LLVM_entry_value 1] $rdi
                                        # kill: def $esi killed $esi killed $rsi
	xorl	%eax, %eax
	callq	printf@PLT
.Ltmp124:
	#DEBUG_VALUE: intra4x4_pred_normal:img_block_y <- [DW_OP_LLVM_entry_value 1] $r9d
	#DEBUG_VALUE: intra4x4_pred_normal:img_block_x <- [DW_OP_LLVM_entry_value 1] $r8d
	#DEBUG_VALUE: intra4x4_pred_normal:ioff <- [DW_OP_LLVM_entry_value 1] $edx
	.loc	0 0 5 is_stmt 0                 # ldecod_src/intra4x4_pred_normal.c:0:5
	movl	$1, %eax
	jmp	.LBB0_135
.Ltmp125:
.LBB0_43:                               # %if.then6.i
	#DEBUG_VALUE: intra4x4_pred_normal:currMB <- [DW_OP_LLVM_entry_value 1] $rdi
	#DEBUG_VALUE: intra4x4_pred_normal:pl <- $r15d
	#DEBUG_VALUE: intra4x4_pred_normal:ioff <- $r12d
	#DEBUG_VALUE: intra4x4_pred_normal:joff <- $r13d
	#DEBUG_VALUE: intra4x4_pred_normal:img_block_x <- [DW_OP_LLVM_entry_value 1] $r8d
	#DEBUG_VALUE: intra4x4_pred_normal:img_block_y <- [DW_OP_LLVM_entry_value 1] $r9d
	#DEBUG_VALUE: intra4x4_pred_normal:p_Vid <- $rbx
	#DEBUG_VALUE: intra4x4_vert_pred:pix_b <- [DW_OP_deref] $rsp
	#DEBUG_VALUE: intra4x4_vert_pred:pl <- $r15d
	#DEBUG_VALUE: intra4x4_vert_pred:ioff <- $r12d
	#DEBUG_VALUE: intra4x4_vert_pred:joff <- $r13d
	#DEBUG_VALUE: intra4x4_vert_pred:currSlice <- $r14
	#DEBUG_VALUE: intra4x4_vert_pred:p_Vid <- $rbx
	.loc	0 169 100 is_stmt 1             # ldecod_src/intra4x4_pred_normal.c:169:100
	movl	108(%r14), %esi
	.loc	0 169 5 is_stmt 0               # ldecod_src/intra4x4_pred_normal.c:169:5
	movl	$.L.str.1, %edi
	jmp	.LBB0_118
.Ltmp126:
.LBB0_44:                               # %if.then6.i99
	#DEBUG_VALUE: intra4x4_pred_normal:currMB <- [DW_OP_LLVM_entry_value 1] $rdi
	#DEBUG_VALUE: intra4x4_pred_normal:pl <- $r15d
	#DEBUG_VALUE: intra4x4_pred_normal:ioff <- $r12d
	#DEBUG_VALUE: intra4x4_pred_normal:joff <- $r13d
	#DEBUG_VALUE: intra4x4_pred_normal:img_block_x <- [DW_OP_LLVM_entry_value 1] $r8d
	#DEBUG_VALUE: intra4x4_pred_normal:img_block_y <- [DW_OP_LLVM_entry_value 1] $r9d
	#DEBUG_VALUE: intra4x4_pred_normal:p_Vid <- $rbx
	#DEBUG_VALUE: intra4x4_hor_pred:pix_a <- [DW_OP_deref] $rsp
	#DEBUG_VALUE: intra4x4_hor_pred:pl <- $r15d
	#DEBUG_VALUE: intra4x4_hor_pred:ioff <- $r12d
	#DEBUG_VALUE: intra4x4_hor_pred:joff <- $r13d
	#DEBUG_VALUE: intra4x4_hor_pred:p_Vid <- $rbx
	#DEBUG_VALUE: intra4x4_hor_pred:currSlice <- $r14
	.loc	0 226 101 is_stmt 1             # ldecod_src/intra4x4_pred_normal.c:226:101
	movl	108(%r14), %esi
	.loc	0 226 5 is_stmt 0               # ldecod_src/intra4x4_pred_normal.c:226:5
	movl	$.L.str.2, %edi
	jmp	.LBB0_118
.Ltmp127:
.LBB0_45:                               # %if.then6.i395
	#DEBUG_VALUE: intra4x4_pred_normal:currMB <- [DW_OP_LLVM_entry_value 1] $rdi
	#DEBUG_VALUE: intra4x4_pred_normal:pl <- $r15d
	#DEBUG_VALUE: intra4x4_pred_normal:ioff <- $r12d
	#DEBUG_VALUE: intra4x4_pred_normal:joff <- $r13d
	#DEBUG_VALUE: intra4x4_pred_normal:img_block_x <- [DW_OP_LLVM_entry_value 1] $r8d
	#DEBUG_VALUE: intra4x4_pred_normal:img_block_y <- [DW_OP_LLVM_entry_value 1] $r9d
	#DEBUG_VALUE: intra4x4_pred_normal:p_Vid <- $rbx
	#DEBUG_VALUE: intra4x4_hor_up_pred:pix_a <- [DW_OP_deref] $rsp
	#DEBUG_VALUE: intra4x4_hor_up_pred:pl <- $r15d
	#DEBUG_VALUE: intra4x4_hor_up_pred:ioff <- $r12d
	#DEBUG_VALUE: intra4x4_hor_up_pred:joff <- $r13d
	#DEBUG_VALUE: intra4x4_hor_up_pred:currSlice <- $r14
	#DEBUG_VALUE: intra4x4_hor_up_pred:p_Vid <- $rbx
	.loc	0 640 104 is_stmt 1             # ldecod_src/intra4x4_pred_normal.c:640:104
	movl	108(%r14), %esi
	.loc	0 640 5 is_stmt 0               # ldecod_src/intra4x4_pred_normal.c:640:5
	movl	$.L.str.7, %edi
	jmp	.LBB0_118
.Ltmp128:
.LBB0_46:                               # %cond.false.i143
	#DEBUG_VALUE: intra4x4_pred_normal:currMB <- $rdi
	#DEBUG_VALUE: intra4x4_pred_normal:pl <- $r15d
	#DEBUG_VALUE: intra4x4_pred_normal:ioff <- $r12d
	#DEBUG_VALUE: intra4x4_pred_normal:joff <- $r13d
	#DEBUG_VALUE: intra4x4_pred_normal:img_block_x <- $r8d
	#DEBUG_VALUE: intra4x4_pred_normal:img_block_y <- $r9d
	#DEBUG_VALUE: intra4x4_pred_normal:p_Vid <- $rbx
	#DEBUG_VALUE: intra4x4_pred_normal:predmode <- [DW_OP_LLVM_convert 64 7, DW_OP_LLVM_convert 8 7] $esi
	#DEBUG_VALUE: intra4x4_diag_down_right_pred:pix_d <- [DW_OP_plus_uconst 64, DW_OP_deref] $rsp
	#DEBUG_VALUE: intra4x4_diag_down_right_pred:currMB <- $rdi
	#DEBUG_VALUE: intra4x4_diag_down_right_pred:pl <- $r15d
	#DEBUG_VALUE: intra4x4_diag_down_right_pred:ioff <- $r12d
	#DEBUG_VALUE: intra4x4_diag_down_right_pred:joff <- $r13d
	#DEBUG_VALUE: intra4x4_diag_down_right_pred:currSlice <- $rdx
	#DEBUG_VALUE: intra4x4_diag_down_right_pred:p_Vid <- $rbx
	.loc	0 283 90 is_stmt 1              # ldecod_src/intra4x4_pred_normal.c:283:90
	subq	$-128, %rax
	movq	%rax, %rcx
.Ltmp129:
.LBB0_47:                               # %cond.end.i112
	#DEBUG_VALUE: intra4x4_pred_normal:currMB <- $rdi
	#DEBUG_VALUE: intra4x4_pred_normal:pl <- $r15d
	#DEBUG_VALUE: intra4x4_pred_normal:ioff <- $r12d
	#DEBUG_VALUE: intra4x4_pred_normal:joff <- $r13d
	#DEBUG_VALUE: intra4x4_pred_normal:img_block_x <- $r8d
	#DEBUG_VALUE: intra4x4_pred_normal:img_block_y <- $r9d
	#DEBUG_VALUE: intra4x4_pred_normal:p_Vid <- $rbx
	#DEBUG_VALUE: intra4x4_pred_normal:predmode <- [DW_OP_LLVM_convert 64 7, DW_OP_LLVM_convert 8 7] $esi
	#DEBUG_VALUE: intra4x4_diag_down_right_pred:pix_d <- [DW_OP_plus_uconst 64, DW_OP_deref] $rsp
	#DEBUG_VALUE: intra4x4_diag_down_right_pred:currMB <- $rdi
	#DEBUG_VALUE: intra4x4_diag_down_right_pred:pl <- $r15d
	#DEBUG_VALUE: intra4x4_diag_down_right_pred:ioff <- $r12d
	#DEBUG_VALUE: intra4x4_diag_down_right_pred:joff <- $r13d
	#DEBUG_VALUE: intra4x4_diag_down_right_pred:currSlice <- $rdx
	#DEBUG_VALUE: intra4x4_diag_down_right_pred:p_Vid <- $rbx
	.loc	0 283 19 is_stmt 0              # ldecod_src/intra4x4_pred_normal.c:283:19
	movq	(%rcx), %rax
.Ltmp130:
	#DEBUG_VALUE: intra4x4_diag_down_right_pred:imgY <- $rax
	.loc	0 0 19                          # ldecod_src/intra4x4_pred_normal.c:0:19
	movq	%rax, 80(%rsp)                  # 8-byte Spill
.Ltmp131:
	#DEBUG_VALUE: intra4x4_diag_down_right_pred:imgY <- [DW_OP_plus_uconst 80, DW_OP_deref] $rsp
	movq	%rdx, 40(%rsp)                  # 8-byte Spill
.Ltmp132:
	#DEBUG_VALUE: intra4x4_diag_down_right_pred:currSlice <- [DW_OP_plus_uconst 40, DW_OP_deref] $rsp
	.loc	0 292 33 is_stmt 1              # ldecod_src/intra4x4_pred_normal.c:292:33
	movq	1248(%rdx), %rax
	.loc	0 292 22 is_stmt 0              # ldecod_src/intra4x4_pred_normal.c:292:22
	movl	%r15d, %ecx
	movq	(%rax,%rcx,8), %rax
.Ltmp133:
	#DEBUG_VALUE: intra4x4_diag_down_right_pred:mb_pred <- $rax
	.loc	0 0 22                          # ldecod_src/intra4x4_pred_normal.c:0:22
	movq	%rax, 56(%rsp)                  # 8-byte Spill
.Ltmp134:
	#DEBUG_VALUE: intra4x4_diag_down_right_pred:mb_pred <- [DW_OP_plus_uconst 56, DW_OP_deref] $rsp
	.loc	0 294 35 is_stmt 1              # ldecod_src/intra4x4_pred_normal.c:294:35
	leal	-1(%r12), %ebp
	.loc	0 294 57 is_stmt 0              # ldecod_src/intra4x4_pred_normal.c:294:57
	leaq	849124(%rbx), %r15
.Ltmp135:
	#DEBUG_VALUE: intra4x4_diag_down_right_pred:pl <- $ecx
	#DEBUG_VALUE: intra4x4_pred_normal:pl <- $ecx
	.loc	0 0 57                          # ldecod_src/intra4x4_pred_normal.c:0:57
	movq	%rsp, %r8
.Ltmp136:
	#DEBUG_VALUE: intra4x4_pred_normal:img_block_x <- [DW_OP_LLVM_entry_value 1] $r8d
	movq	%r12, %r14
	movq	%rdi, %r12
.Ltmp137:
	#DEBUG_VALUE: intra4x4_diag_down_right_pred:ioff <- $r14d
	#DEBUG_VALUE: intra4x4_pred_normal:ioff <- $r14d
	.loc	0 294 3                         # ldecod_src/intra4x4_pred_normal.c:294:3
	movl	%ebp, %esi
.Ltmp138:
	movl	%r13d, %edx
	movq	%r15, %rcx
.Ltmp139:
	#DEBUG_VALUE: intra4x4_pred_normal:pl <- [DW_OP_LLVM_entry_value 1] $esi
	callq	getNonAffNeighbour@PLT
.Ltmp140:
	#DEBUG_VALUE: intra4x4_pred_normal:img_block_y <- [DW_OP_LLVM_entry_value 1] $r9d
	#DEBUG_VALUE: intra4x4_diag_down_right_pred:currMB <- $r12
	#DEBUG_VALUE: intra4x4_pred_normal:currMB <- $r12
	.loc	0 0 3                           # ldecod_src/intra4x4_pred_normal.c:0:3
	movq	%r13, 16(%rsp)                  # 8-byte Spill
.Ltmp141:
	#DEBUG_VALUE: intra4x4_diag_down_right_pred:joff <- [DW_OP_plus_uconst 16, DW_OP_deref] $rsp
	#DEBUG_VALUE: intra4x4_pred_normal:joff <- [DW_OP_plus_uconst 16] [$rsp+0]
	.loc	0 295 45 is_stmt 1              # ldecod_src/intra4x4_pred_normal.c:295:45
	decl	%r13d
	leaq	24(%rsp), %r8
	.loc	0 295 3 is_stmt 0               # ldecod_src/intra4x4_pred_normal.c:295:3
	movq	%r12, %rdi
	movq	%r14, 48(%rsp)                  # 8-byte Spill
.Ltmp142:
	#DEBUG_VALUE: intra4x4_diag_down_right_pred:ioff <- [DW_OP_plus_uconst 48, DW_OP_deref] $rsp
	#DEBUG_VALUE: intra4x4_pred_normal:ioff <- [DW_OP_plus_uconst 48] [$rsp+0]
	movl	%r14d, %esi
	movl	%r13d, %edx
	movq	%r15, %rcx
	callq	getNonAffNeighbour@PLT
.Ltmp143:
	.loc	0 0 3                           # ldecod_src/intra4x4_pred_normal.c:0:3
	leaq	64(%rsp), %r8
	.loc	0 296 3 is_stmt 1               # ldecod_src/intra4x4_pred_normal.c:296:3
	movq	%r12, %rdi
	movl	%ebp, %esi
	movl	%r13d, %edx
	movq	%r15, %rcx
	callq	getNonAffNeighbour@PLT
.Ltmp144:
	.loc	0 298 14                        # ldecod_src/intra4x4_pred_normal.c:298:14
	movq	8(%rbx), %rax
	.loc	0 298 7 is_stmt 0               # ldecod_src/intra4x4_pred_normal.c:298:7
	cmpl	$0, 2204(%rax)
	.loc	0 0 0                           # ldecod_src/intra4x4_pred_normal.c:0:0
	movl	(%rsp), %eax
.Ltmp145:
	.loc	0 298 7                         # ldecod_src/intra4x4_pred_normal.c:298:7
	je	.LBB0_54
.Ltmp146:
# %bb.48:                               # %if.then.i123
	#DEBUG_VALUE: intra4x4_pred_normal:currMB <- $r12
	#DEBUG_VALUE: intra4x4_pred_normal:pl <- [DW_OP_LLVM_entry_value 1] $esi
	#DEBUG_VALUE: intra4x4_pred_normal:ioff <- [DW_OP_plus_uconst 48] [$rsp+0]
	#DEBUG_VALUE: intra4x4_pred_normal:joff <- [DW_OP_plus_uconst 16] [$rsp+0]
	#DEBUG_VALUE: intra4x4_pred_normal:img_block_x <- [DW_OP_LLVM_entry_value 1] $r8d
	#DEBUG_VALUE: intra4x4_pred_normal:img_block_y <- [DW_OP_LLVM_entry_value 1] $r9d
	#DEBUG_VALUE: intra4x4_pred_normal:p_Vid <- $rbx
	#DEBUG_VALUE: intra4x4_diag_down_right_pred:pix_d <- [DW_OP_plus_uconst 64, DW_OP_deref] $rsp
	#DEBUG_VALUE: intra4x4_diag_down_right_pred:currMB <- $r12
	#DEBUG_VALUE: intra4x4_diag_down_right_pred:ioff <- [DW_OP_plus_uconst 48, DW_OP_deref] $rsp
	#DEBUG_VALUE: intra4x4_diag_down_right_pred:joff <- [DW_OP_plus_uconst 16, DW_OP_deref] $rsp
	#DEBUG_VALUE: intra4x4_diag_down_right_pred:currSlice <- [DW_OP_plus_uconst 40, DW_OP_deref] $rsp
	#DEBUG_VALUE: intra4x4_diag_down_right_pred:p_Vid <- $rbx
	#DEBUG_VALUE: intra4x4_diag_down_right_pred:imgY <- [DW_OP_plus_uconst 80, DW_OP_deref] $rsp
	#DEBUG_VALUE: intra4x4_diag_down_right_pred:mb_pred <- [DW_OP_plus_uconst 56, DW_OP_deref] $rsp
	.loc	0 0 7                           # ldecod_src/intra4x4_pred_normal.c:0:7
	xorl	%ecx, %ecx
.Ltmp147:
	.loc	0 300 32 is_stmt 1              # ldecod_src/intra4x4_pred_normal.c:300:32
	testl	%eax, %eax
	movl	$0, %eax
	movq	40(%rsp), %rdi                  # 8-byte Reload
	je	.LBB0_50
.Ltmp148:
# %bb.49:                               # %cond.true20.i
	#DEBUG_VALUE: intra4x4_pred_normal:currMB <- $r12
	#DEBUG_VALUE: intra4x4_pred_normal:pl <- [DW_OP_LLVM_entry_value 1] $esi
	#DEBUG_VALUE: intra4x4_pred_normal:ioff <- [DW_OP_plus_uconst 48] [$rsp+0]
	#DEBUG_VALUE: intra4x4_pred_normal:joff <- [DW_OP_plus_uconst 16] [$rsp+0]
	#DEBUG_VALUE: intra4x4_pred_normal:img_block_x <- [DW_OP_LLVM_entry_value 1] $r8d
	#DEBUG_VALUE: intra4x4_pred_normal:img_block_y <- [DW_OP_LLVM_entry_value 1] $r9d
	#DEBUG_VALUE: intra4x4_pred_normal:p_Vid <- $rbx
	#DEBUG_VALUE: intra4x4_diag_down_right_pred:pix_d <- [DW_OP_plus_uconst 64, DW_OP_deref] $rsp
	#DEBUG_VALUE: intra4x4_diag_down_right_pred:currMB <- $r12
	#DEBUG_VALUE: intra4x4_diag_down_right_pred:ioff <- [DW_OP_plus_uconst 48, DW_OP_deref] $rsp
	#DEBUG_VALUE: intra4x4_diag_down_right_pred:joff <- [DW_OP_plus_uconst 16, DW_OP_deref] $rsp
	#DEBUG_VALUE: intra4x4_diag_down_right_pred:currSlice <- [DW_OP_plus_uconst 40, DW_OP_deref] $rsp
	#DEBUG_VALUE: intra4x4_diag_down_right_pred:p_Vid <- $rbx
	#DEBUG_VALUE: intra4x4_diag_down_right_pred:imgY <- [DW_OP_plus_uconst 80, DW_OP_deref] $rsp
	#DEBUG_VALUE: intra4x4_diag_down_right_pred:mb_pred <- [DW_OP_plus_uconst 56, DW_OP_deref] $rsp
	.loc	0 300 61 is_stmt 0              # ldecod_src/intra4x4_pred_normal.c:300:61
	movq	13544(%rdi), %rax
	.loc	0 300 80                        # ldecod_src/intra4x4_pred_normal.c:300:80
	movslq	4(%rsp), %rdx
	.loc	0 300 50                        # ldecod_src/intra4x4_pred_normal.c:300:50
	movsbl	(%rax,%rdx), %eax
.Ltmp149:
.LBB0_50:                               # %cond.end24.i
	#DEBUG_VALUE: intra4x4_pred_normal:currMB <- $r12
	#DEBUG_VALUE: intra4x4_pred_normal:pl <- [DW_OP_LLVM_entry_value 1] $esi
	#DEBUG_VALUE: intra4x4_pred_normal:ioff <- [DW_OP_plus_uconst 48] [$rsp+0]
	#DEBUG_VALUE: intra4x4_pred_normal:joff <- [DW_OP_plus_uconst 16] [$rsp+0]
	#DEBUG_VALUE: intra4x4_pred_normal:img_block_x <- [DW_OP_LLVM_entry_value 1] $r8d
	#DEBUG_VALUE: intra4x4_pred_normal:img_block_y <- [DW_OP_LLVM_entry_value 1] $r9d
	#DEBUG_VALUE: intra4x4_pred_normal:p_Vid <- $rbx
	#DEBUG_VALUE: intra4x4_diag_down_right_pred:pix_d <- [DW_OP_plus_uconst 64, DW_OP_deref] $rsp
	#DEBUG_VALUE: intra4x4_diag_down_right_pred:currMB <- $r12
	#DEBUG_VALUE: intra4x4_diag_down_right_pred:ioff <- [DW_OP_plus_uconst 48, DW_OP_deref] $rsp
	#DEBUG_VALUE: intra4x4_diag_down_right_pred:joff <- [DW_OP_plus_uconst 16, DW_OP_deref] $rsp
	#DEBUG_VALUE: intra4x4_diag_down_right_pred:currSlice <- [DW_OP_plus_uconst 40, DW_OP_deref] $rsp
	#DEBUG_VALUE: intra4x4_diag_down_right_pred:p_Vid <- $rbx
	#DEBUG_VALUE: intra4x4_diag_down_right_pred:imgY <- [DW_OP_plus_uconst 80, DW_OP_deref] $rsp
	#DEBUG_VALUE: intra4x4_diag_down_right_pred:mb_pred <- [DW_OP_plus_uconst 56, DW_OP_deref] $rsp
	#DEBUG_VALUE: intra4x4_diag_down_right_pred:block_available_left <- $eax
	.loc	0 301 32 is_stmt 1              # ldecod_src/intra4x4_pred_normal.c:301:32
	cmpl	$0, 24(%rsp)
	movq	48(%rsp), %r14                  # 8-byte Reload
	movq	16(%rsp), %r15                  # 8-byte Reload
	je	.LBB0_52
.Ltmp150:
# %bb.51:                               # %cond.true28.i
	#DEBUG_VALUE: intra4x4_pred_normal:currMB <- $r12
	#DEBUG_VALUE: intra4x4_pred_normal:pl <- [DW_OP_LLVM_entry_value 1] $esi
	#DEBUG_VALUE: intra4x4_pred_normal:ioff <- [DW_OP_plus_uconst 48] [$rsp+0]
	#DEBUG_VALUE: intra4x4_pred_normal:joff <- [DW_OP_plus_uconst 16] [$rsp+0]
	#DEBUG_VALUE: intra4x4_pred_normal:img_block_x <- [DW_OP_LLVM_entry_value 1] $r8d
	#DEBUG_VALUE: intra4x4_pred_normal:img_block_y <- [DW_OP_LLVM_entry_value 1] $r9d
	#DEBUG_VALUE: intra4x4_pred_normal:p_Vid <- $rbx
	#DEBUG_VALUE: intra4x4_diag_down_right_pred:pix_d <- [DW_OP_plus_uconst 64, DW_OP_deref] $rsp
	#DEBUG_VALUE: intra4x4_diag_down_right_pred:currMB <- $r12
	#DEBUG_VALUE: intra4x4_diag_down_right_pred:ioff <- [DW_OP_plus_uconst 48, DW_OP_deref] $rsp
	#DEBUG_VALUE: intra4x4_diag_down_right_pred:joff <- [DW_OP_plus_uconst 16, DW_OP_deref] $rsp
	#DEBUG_VALUE: intra4x4_diag_down_right_pred:currSlice <- [DW_OP_plus_uconst 40, DW_OP_deref] $rsp
	#DEBUG_VALUE: intra4x4_diag_down_right_pred:p_Vid <- $rbx
	#DEBUG_VALUE: intra4x4_diag_down_right_pred:imgY <- [DW_OP_plus_uconst 80, DW_OP_deref] $rsp
	#DEBUG_VALUE: intra4x4_diag_down_right_pred:mb_pred <- [DW_OP_plus_uconst 56, DW_OP_deref] $rsp
	#DEBUG_VALUE: intra4x4_diag_down_right_pred:block_available_left <- $eax
	.loc	0 301 61 is_stmt 0              # ldecod_src/intra4x4_pred_normal.c:301:61
	movq	13544(%rdi), %rcx
	.loc	0 301 80                        # ldecod_src/intra4x4_pred_normal.c:301:80
	movslq	28(%rsp), %rdx
	.loc	0 301 50                        # ldecod_src/intra4x4_pred_normal.c:301:50
	movsbl	(%rcx,%rdx), %ecx
.Ltmp151:
.LBB0_52:                               # %cond.end35.i
	#DEBUG_VALUE: intra4x4_pred_normal:currMB <- $r12
	#DEBUG_VALUE: intra4x4_pred_normal:pl <- [DW_OP_LLVM_entry_value 1] $esi
	#DEBUG_VALUE: intra4x4_pred_normal:ioff <- [DW_OP_plus_uconst 48] [$rsp+0]
	#DEBUG_VALUE: intra4x4_pred_normal:joff <- [DW_OP_plus_uconst 16] [$rsp+0]
	#DEBUG_VALUE: intra4x4_pred_normal:img_block_x <- [DW_OP_LLVM_entry_value 1] $r8d
	#DEBUG_VALUE: intra4x4_pred_normal:img_block_y <- [DW_OP_LLVM_entry_value 1] $r9d
	#DEBUG_VALUE: intra4x4_pred_normal:p_Vid <- $rbx
	#DEBUG_VALUE: intra4x4_diag_down_right_pred:pix_d <- [DW_OP_plus_uconst 64, DW_OP_deref] $rsp
	#DEBUG_VALUE: intra4x4_diag_down_right_pred:currMB <- $r12
	#DEBUG_VALUE: intra4x4_diag_down_right_pred:ioff <- [DW_OP_plus_uconst 48, DW_OP_deref] $rsp
	#DEBUG_VALUE: intra4x4_diag_down_right_pred:joff <- [DW_OP_plus_uconst 16, DW_OP_deref] $rsp
	#DEBUG_VALUE: intra4x4_diag_down_right_pred:currSlice <- [DW_OP_plus_uconst 40, DW_OP_deref] $rsp
	#DEBUG_VALUE: intra4x4_diag_down_right_pred:p_Vid <- $rbx
	#DEBUG_VALUE: intra4x4_diag_down_right_pred:imgY <- [DW_OP_plus_uconst 80, DW_OP_deref] $rsp
	#DEBUG_VALUE: intra4x4_diag_down_right_pred:mb_pred <- [DW_OP_plus_uconst 56, DW_OP_deref] $rsp
	#DEBUG_VALUE: intra4x4_diag_down_right_pred:block_available_left <- $eax
	#DEBUG_VALUE: intra4x4_diag_down_right_pred:block_available_up <- $ecx
	.loc	0 302 32 is_stmt 1              # ldecod_src/intra4x4_pred_normal.c:302:32
	cmpl	$0, 64(%rsp)
	je	.LBB0_59
.Ltmp152:
# %bb.53:                               # %cond.true39.i
	#DEBUG_VALUE: intra4x4_pred_normal:currMB <- $r12
	#DEBUG_VALUE: intra4x4_pred_normal:pl <- [DW_OP_LLVM_entry_value 1] $esi
	#DEBUG_VALUE: intra4x4_pred_normal:ioff <- [DW_OP_plus_uconst 48] [$rsp+0]
	#DEBUG_VALUE: intra4x4_pred_normal:joff <- [DW_OP_plus_uconst 16] [$rsp+0]
	#DEBUG_VALUE: intra4x4_pred_normal:img_block_x <- [DW_OP_LLVM_entry_value 1] $r8d
	#DEBUG_VALUE: intra4x4_pred_normal:img_block_y <- [DW_OP_LLVM_entry_value 1] $r9d
	#DEBUG_VALUE: intra4x4_pred_normal:p_Vid <- $rbx
	#DEBUG_VALUE: intra4x4_diag_down_right_pred:pix_d <- [DW_OP_plus_uconst 64, DW_OP_deref] $rsp
	#DEBUG_VALUE: intra4x4_diag_down_right_pred:currMB <- $r12
	#DEBUG_VALUE: intra4x4_diag_down_right_pred:ioff <- [DW_OP_plus_uconst 48, DW_OP_deref] $rsp
	#DEBUG_VALUE: intra4x4_diag_down_right_pred:joff <- [DW_OP_plus_uconst 16, DW_OP_deref] $rsp
	#DEBUG_VALUE: intra4x4_diag_down_right_pred:currSlice <- [DW_OP_plus_uconst 40, DW_OP_deref] $rsp
	#DEBUG_VALUE: intra4x4_diag_down_right_pred:p_Vid <- $rbx
	#DEBUG_VALUE: intra4x4_diag_down_right_pred:imgY <- [DW_OP_plus_uconst 80, DW_OP_deref] $rsp
	#DEBUG_VALUE: intra4x4_diag_down_right_pred:mb_pred <- [DW_OP_plus_uconst 56, DW_OP_deref] $rsp
	#DEBUG_VALUE: intra4x4_diag_down_right_pred:block_available_left <- $eax
	#DEBUG_VALUE: intra4x4_diag_down_right_pred:block_available_up <- $ecx
	.loc	0 302 61 is_stmt 0              # ldecod_src/intra4x4_pred_normal.c:302:61
	movq	13544(%rdi), %rdx
	.loc	0 302 80                        # ldecod_src/intra4x4_pred_normal.c:302:80
	movslq	68(%rsp), %rsi
	.loc	0 302 50                        # ldecod_src/intra4x4_pred_normal.c:302:50
	movsbl	(%rdx,%rsi), %edx
	.loc	0 302 32                        # ldecod_src/intra4x4_pred_normal.c:302:32
	jmp	.LBB0_55
.Ltmp153:
.LBB0_54:                               # %if.else.i142
	#DEBUG_VALUE: intra4x4_pred_normal:currMB <- $r12
	#DEBUG_VALUE: intra4x4_pred_normal:pl <- [DW_OP_LLVM_entry_value 1] $esi
	#DEBUG_VALUE: intra4x4_pred_normal:ioff <- [DW_OP_plus_uconst 48] [$rsp+0]
	#DEBUG_VALUE: intra4x4_pred_normal:joff <- [DW_OP_plus_uconst 16] [$rsp+0]
	#DEBUG_VALUE: intra4x4_pred_normal:img_block_x <- [DW_OP_LLVM_entry_value 1] $r8d
	#DEBUG_VALUE: intra4x4_pred_normal:img_block_y <- [DW_OP_LLVM_entry_value 1] $r9d
	#DEBUG_VALUE: intra4x4_pred_normal:p_Vid <- $rbx
	#DEBUG_VALUE: intra4x4_diag_down_right_pred:pix_d <- [DW_OP_plus_uconst 64, DW_OP_deref] $rsp
	#DEBUG_VALUE: intra4x4_diag_down_right_pred:currMB <- $r12
	#DEBUG_VALUE: intra4x4_diag_down_right_pred:ioff <- [DW_OP_plus_uconst 48, DW_OP_deref] $rsp
	#DEBUG_VALUE: intra4x4_diag_down_right_pred:joff <- [DW_OP_plus_uconst 16, DW_OP_deref] $rsp
	#DEBUG_VALUE: intra4x4_diag_down_right_pred:currSlice <- [DW_OP_plus_uconst 40, DW_OP_deref] $rsp
	#DEBUG_VALUE: intra4x4_diag_down_right_pred:p_Vid <- $rbx
	#DEBUG_VALUE: intra4x4_diag_down_right_pred:imgY <- [DW_OP_plus_uconst 80, DW_OP_deref] $rsp
	#DEBUG_VALUE: intra4x4_diag_down_right_pred:mb_pred <- [DW_OP_plus_uconst 56, DW_OP_deref] $rsp
	#DEBUG_VALUE: intra4x4_diag_down_right_pred:block_available_left <- $eax
	.loc	0 307 38 is_stmt 1              # ldecod_src/intra4x4_pred_normal.c:307:38
	movl	24(%rsp), %ecx
.Ltmp154:
	#DEBUG_VALUE: intra4x4_diag_down_right_pred:block_available_up <- $ecx
	.loc	0 308 38                        # ldecod_src/intra4x4_pred_normal.c:308:38
	movl	64(%rsp), %edx
.Ltmp155:
	#DEBUG_VALUE: intra4x4_diag_down_right_pred:block_available_up_left <- $edx
	.loc	0 0 38 is_stmt 0                # ldecod_src/intra4x4_pred_normal.c:0:38
	movq	48(%rsp), %r14                  # 8-byte Reload
	movq	16(%rsp), %r15                  # 8-byte Reload
	movq	40(%rsp), %rdi                  # 8-byte Reload
.Ltmp156:
.LBB0_55:                               # %if.end.i130
	#DEBUG_VALUE: intra4x4_pred_normal:currMB <- $r12
	#DEBUG_VALUE: intra4x4_pred_normal:pl <- [DW_OP_LLVM_entry_value 1] $esi
	#DEBUG_VALUE: intra4x4_pred_normal:ioff <- [DW_OP_plus_uconst 48] [$rsp+0]
	#DEBUG_VALUE: intra4x4_pred_normal:joff <- [DW_OP_plus_uconst 16] [$rsp+0]
	#DEBUG_VALUE: intra4x4_pred_normal:img_block_x <- [DW_OP_LLVM_entry_value 1] $r8d
	#DEBUG_VALUE: intra4x4_pred_normal:img_block_y <- [DW_OP_LLVM_entry_value 1] $r9d
	#DEBUG_VALUE: intra4x4_pred_normal:p_Vid <- $rbx
	#DEBUG_VALUE: intra4x4_diag_down_right_pred:pix_d <- [DW_OP_plus_uconst 64, DW_OP_deref] $rsp
	#DEBUG_VALUE: intra4x4_diag_down_right_pred:currMB <- $r12
	#DEBUG_VALUE: intra4x4_diag_down_right_pred:ioff <- [DW_OP_plus_uconst 48, DW_OP_deref] $rsp
	#DEBUG_VALUE: intra4x4_diag_down_right_pred:joff <- [DW_OP_plus_uconst 16, DW_OP_deref] $rsp
	#DEBUG_VALUE: intra4x4_diag_down_right_pred:currSlice <- [DW_OP_plus_uconst 40, DW_OP_deref] $rsp
	#DEBUG_VALUE: intra4x4_diag_down_right_pred:p_Vid <- $rbx
	#DEBUG_VALUE: intra4x4_diag_down_right_pred:imgY <- [DW_OP_plus_uconst 80, DW_OP_deref] $rsp
	#DEBUG_VALUE: intra4x4_diag_down_right_pred:mb_pred <- [DW_OP_plus_uconst 56, DW_OP_deref] $rsp
	#DEBUG_VALUE: intra4x4_diag_down_right_pred:block_available_left <- $eax
	#DEBUG_VALUE: intra4x4_diag_down_right_pred:block_available_up <- $ecx
	#DEBUG_VALUE: intra4x4_diag_down_right_pred:block_available_up <- $ecx
	#DEBUG_VALUE: intra4x4_diag_down_right_pred:block_available_left <- $eax
	#DEBUG_VALUE: intra4x4_diag_down_right_pred:block_available_up_left <- $edx
	.loc	0 311 9 is_stmt 1               # ldecod_src/intra4x4_pred_normal.c:311:9
	testl	%ecx, %ecx
	.loc	0 311 28 is_stmt 0              # ldecod_src/intra4x4_pred_normal.c:311:28
	je	.LBB0_59
.Ltmp157:
# %bb.56:                               # %if.end.i130
	#DEBUG_VALUE: intra4x4_pred_normal:currMB <- $r12
	#DEBUG_VALUE: intra4x4_pred_normal:pl <- [DW_OP_LLVM_entry_value 1] $esi
	#DEBUG_VALUE: intra4x4_pred_normal:ioff <- [DW_OP_plus_uconst 48] [$rsp+0]
	#DEBUG_VALUE: intra4x4_pred_normal:joff <- [DW_OP_plus_uconst 16] [$rsp+0]
	#DEBUG_VALUE: intra4x4_pred_normal:img_block_x <- [DW_OP_LLVM_entry_value 1] $r8d
	#DEBUG_VALUE: intra4x4_pred_normal:img_block_y <- [DW_OP_LLVM_entry_value 1] $r9d
	#DEBUG_VALUE: intra4x4_pred_normal:p_Vid <- $rbx
	#DEBUG_VALUE: intra4x4_diag_down_right_pred:pix_d <- [DW_OP_plus_uconst 64, DW_OP_deref] $rsp
	#DEBUG_VALUE: intra4x4_diag_down_right_pred:currMB <- $r12
	#DEBUG_VALUE: intra4x4_diag_down_right_pred:ioff <- [DW_OP_plus_uconst 48, DW_OP_deref] $rsp
	#DEBUG_VALUE: intra4x4_diag_down_right_pred:joff <- [DW_OP_plus_uconst 16, DW_OP_deref] $rsp
	#DEBUG_VALUE: intra4x4_diag_down_right_pred:currSlice <- [DW_OP_plus_uconst 40, DW_OP_deref] $rsp
	#DEBUG_VALUE: intra4x4_diag_down_right_pred:p_Vid <- $rbx
	#DEBUG_VALUE: intra4x4_diag_down_right_pred:imgY <- [DW_OP_plus_uconst 80, DW_OP_deref] $rsp
	#DEBUG_VALUE: intra4x4_diag_down_right_pred:mb_pred <- [DW_OP_plus_uconst 56, DW_OP_deref] $rsp
	#DEBUG_VALUE: intra4x4_diag_down_right_pred:block_available_left <- $eax
	#DEBUG_VALUE: intra4x4_diag_down_right_pred:block_available_up <- $ecx
	#DEBUG_VALUE: intra4x4_diag_down_right_pred:block_available_up_left <- $edx
	testl	%eax, %eax
	je	.LBB0_59
.Ltmp158:
# %bb.57:                               # %if.end.i130
	#DEBUG_VALUE: intra4x4_pred_normal:currMB <- $r12
	#DEBUG_VALUE: intra4x4_pred_normal:pl <- [DW_OP_LLVM_entry_value 1] $esi
	#DEBUG_VALUE: intra4x4_pred_normal:ioff <- [DW_OP_plus_uconst 48] [$rsp+0]
	#DEBUG_VALUE: intra4x4_pred_normal:joff <- [DW_OP_plus_uconst 16] [$rsp+0]
	#DEBUG_VALUE: intra4x4_pred_normal:img_block_x <- [DW_OP_LLVM_entry_value 1] $r8d
	#DEBUG_VALUE: intra4x4_pred_normal:img_block_y <- [DW_OP_LLVM_entry_value 1] $r9d
	#DEBUG_VALUE: intra4x4_pred_normal:p_Vid <- $rbx
	#DEBUG_VALUE: intra4x4_diag_down_right_pred:pix_d <- [DW_OP_plus_uconst 64, DW_OP_deref] $rsp
	#DEBUG_VALUE: intra4x4_diag_down_right_pred:currMB <- $r12
	#DEBUG_VALUE: intra4x4_diag_down_right_pred:ioff <- [DW_OP_plus_uconst 48, DW_OP_deref] $rsp
	#DEBUG_VALUE: intra4x4_diag_down_right_pred:joff <- [DW_OP_plus_uconst 16, DW_OP_deref] $rsp
	#DEBUG_VALUE: intra4x4_diag_down_right_pred:currSlice <- [DW_OP_plus_uconst 40, DW_OP_deref] $rsp
	#DEBUG_VALUE: intra4x4_diag_down_right_pred:p_Vid <- $rbx
	#DEBUG_VALUE: intra4x4_diag_down_right_pred:imgY <- [DW_OP_plus_uconst 80, DW_OP_deref] $rsp
	#DEBUG_VALUE: intra4x4_diag_down_right_pred:mb_pred <- [DW_OP_plus_uconst 56, DW_OP_deref] $rsp
	#DEBUG_VALUE: intra4x4_diag_down_right_pred:block_available_left <- $eax
	#DEBUG_VALUE: intra4x4_diag_down_right_pred:block_available_up <- $ecx
	#DEBUG_VALUE: intra4x4_diag_down_right_pred:block_available_up_left <- $edx
	testl	%edx, %edx
	je	.LBB0_59
.Ltmp159:
# %bb.58:                               # %if.else56.i
	#DEBUG_VALUE: intra4x4_pred_normal:currMB <- $r12
	#DEBUG_VALUE: intra4x4_pred_normal:pl <- [DW_OP_LLVM_entry_value 1] $esi
	#DEBUG_VALUE: intra4x4_pred_normal:ioff <- [DW_OP_plus_uconst 48] [$rsp+0]
	#DEBUG_VALUE: intra4x4_pred_normal:joff <- [DW_OP_plus_uconst 16] [$rsp+0]
	#DEBUG_VALUE: intra4x4_pred_normal:img_block_x <- [DW_OP_LLVM_entry_value 1] $r8d
	#DEBUG_VALUE: intra4x4_pred_normal:img_block_y <- [DW_OP_LLVM_entry_value 1] $r9d
	#DEBUG_VALUE: intra4x4_pred_normal:p_Vid <- $rbx
	#DEBUG_VALUE: intra4x4_diag_down_right_pred:pix_d <- [DW_OP_plus_uconst 64, DW_OP_deref] $rsp
	#DEBUG_VALUE: intra4x4_diag_down_right_pred:currMB <- $r12
	#DEBUG_VALUE: intra4x4_diag_down_right_pred:ioff <- [DW_OP_plus_uconst 48, DW_OP_deref] $rsp
	#DEBUG_VALUE: intra4x4_diag_down_right_pred:joff <- [DW_OP_plus_uconst 16, DW_OP_deref] $rsp
	#DEBUG_VALUE: intra4x4_diag_down_right_pred:currSlice <- [DW_OP_plus_uconst 40, DW_OP_deref] $rsp
	#DEBUG_VALUE: intra4x4_diag_down_right_pred:p_Vid <- $rbx
	#DEBUG_VALUE: intra4x4_diag_down_right_pred:imgY <- [DW_OP_plus_uconst 80, DW_OP_deref] $rsp
	#DEBUG_VALUE: intra4x4_diag_down_right_pred:mb_pred <- [DW_OP_plus_uconst 56, DW_OP_deref] $rsp
	#DEBUG_VALUE: intra4x4_diag_down_right_pred:block_available_left <- $eax
	#DEBUG_VALUE: intra4x4_diag_down_right_pred:block_available_up <- $ecx
	#DEBUG_VALUE: intra4x4_diag_down_right_pred:block_available_up_left <- $edx
	.loc	0 316 37 is_stmt 1              # ldecod_src/intra4x4_pred_normal.c:316:37
	movswq	14(%rsp), %rax
.Ltmp160:
	#DEBUG_VALUE: img_pred <- undef
	.loc	0 317 23                        # ldecod_src/intra4x4_pred_normal.c:317:23
	movswq	12(%rsp), %rsi
.Ltmp161:
	#DEBUG_VALUE: pix_x <- undef
	.loc	0 318 36                        # ldecod_src/intra4x4_pred_normal.c:318:36
	movswq	38(%rsp), %rcx
.Ltmp162:
	.loc	0 0 36 is_stmt 0                # ldecod_src/intra4x4_pred_normal.c:0:36
	movq	80(%rsp), %rbx                  # 8-byte Reload
.Ltmp163:
	.loc	0 318 25                        # ldecod_src/intra4x4_pred_normal.c:318:25
	movq	(%rbx,%rcx,8), %rcx
	.loc	0 318 49                        # ldecod_src/intra4x4_pred_normal.c:318:49
	movswq	36(%rsp), %r8
.Ltmp164:
	#DEBUG_VALUE: pred_pel <- undef
	.loc	0 320 18 is_stmt 1              # ldecod_src/intra4x4_pred_normal.c:320:18
	movzwl	(%rcx,%r8,2), %r9d
.Ltmp165:
	#DEBUG_VALUE: p_a <- undef
	.loc	0 321 18                        # ldecod_src/intra4x4_pred_normal.c:321:18
	movzwl	2(%rcx,%r8,2), %edx
.Ltmp166:
	#DEBUG_VALUE: p_b <- undef
	.loc	0 322 18                        # ldecod_src/intra4x4_pred_normal.c:322:18
	movzwl	4(%rcx,%r8,2), %edi
.Ltmp167:
	#DEBUG_VALUE: p_c <- undef
	.loc	0 323 18                        # ldecod_src/intra4x4_pred_normal.c:323:18
	movzwl	6(%rcx,%r8,2), %ecx
.Ltmp168:
	#DEBUG_VALUE: p_d <- undef
	.loc	0 325 20                        # ldecod_src/intra4x4_pred_normal.c:325:20
	movq	(%rbx,%rax,8), %r8
.Ltmp169:
	#DEBUG_VALUE: p_i <- undef
	.loc	0 326 20                        # ldecod_src/intra4x4_pred_normal.c:326:20
	movq	8(%rbx,%rax,8), %r11
	.loc	0 325 18                        # ldecod_src/intra4x4_pred_normal.c:325:18
	movzwl	(%r8,%rsi,2), %r10d
	.loc	0 326 18                        # ldecod_src/intra4x4_pred_normal.c:326:18
	movzwl	(%r11,%rsi,2), %r8d
.Ltmp170:
	#DEBUG_VALUE: p_j <- undef
	.loc	0 327 20                        # ldecod_src/intra4x4_pred_normal.c:327:20
	movq	16(%rbx,%rax,8), %r11
	.loc	0 327 18 is_stmt 0              # ldecod_src/intra4x4_pred_normal.c:327:18
	movzwl	(%r11,%rsi,2), %r11d
.Ltmp171:
	#DEBUG_VALUE: p_k <- undef
	.loc	0 328 20 is_stmt 1              # ldecod_src/intra4x4_pred_normal.c:328:20
	movq	24(%rbx,%rax,8), %rax
	.loc	0 328 18 is_stmt 0              # ldecod_src/intra4x4_pred_normal.c:328:18
	movzwl	(%rax,%rsi,2), %esi
.Ltmp172:
	#DEBUG_VALUE: p_l <- undef
	.loc	0 330 29 is_stmt 1              # ldecod_src/intra4x4_pred_normal.c:330:29
	movswq	78(%rsp), %rax
	.loc	0 330 18 is_stmt 0              # ldecod_src/intra4x4_pred_normal.c:330:18
	movq	(%rbx,%rax,8), %rax
	.loc	0 330 42                        # ldecod_src/intra4x4_pred_normal.c:330:42
	movswq	76(%rsp), %rbx
	.loc	0 330 18                        # ldecod_src/intra4x4_pred_normal.c:330:18
	movzwl	(%rax,%rbx,2), %ebx
.Ltmp173:
	#DEBUG_VALUE: p_x <- undef
	.loc	0 332 43 is_stmt 1              # ldecod_src/intra4x4_pred_normal.c:332:43
	leal	(%r8,%r11,2), %eax
	addl	$2, %eax
	.loc	0 332 49 is_stmt 0              # ldecod_src/intra4x4_pred_normal.c:332:49
	addl	%esi, %eax
	.loc	0 332 54                        # ldecod_src/intra4x4_pred_normal.c:332:54
	shrl	$2, %eax
.Ltmp174:
	#DEBUG_VALUE: PredPixel <- [DW_OP_LLVM_fragment 0 16] $ax
	.loc	0 333 35 is_stmt 1              # ldecod_src/intra4x4_pred_normal.c:333:35
	leal	(%r10,%r8,2), %esi
	.loc	0 333 49 is_stmt 0              # ldecod_src/intra4x4_pred_normal.c:333:49
	addl	%r11d, %esi
	addl	$2, %esi
	.loc	0 333 54                        # ldecod_src/intra4x4_pred_normal.c:333:54
	shrl	$2, %esi
.Ltmp175:
	#DEBUG_VALUE: PredPixel <- [DW_OP_LLVM_fragment 16 16] $si
	.loc	0 334 43 is_stmt 1              # ldecod_src/intra4x4_pred_normal.c:334:43
	leal	(%r8,%r10,2), %r8d
	addl	$2, %r8d
	.loc	0 334 49 is_stmt 0              # ldecod_src/intra4x4_pred_normal.c:334:49
	addl	%ebx, %r8d
	.loc	0 334 54                        # ldecod_src/intra4x4_pred_normal.c:334:54
	shrl	$2, %r8d
.Ltmp176:
	#DEBUG_VALUE: PredPixel <- [DW_OP_LLVM_fragment 32 16] $r8w
	.loc	0 335 43 is_stmt 1              # ldecod_src/intra4x4_pred_normal.c:335:43
	addl	%r9d, %r10d
	addl	$2, %r10d
	.loc	0 335 49 is_stmt 0              # ldecod_src/intra4x4_pred_normal.c:335:49
	leal	(%r10,%rbx,2), %r10d
	.loc	0 335 54                        # ldecod_src/intra4x4_pred_normal.c:335:54
	shrl	$2, %r10d
.Ltmp177:
	#DEBUG_VALUE: PredPixel <- [DW_OP_LLVM_fragment 48 16] $r10w
	.loc	0 336 43 is_stmt 1              # ldecod_src/intra4x4_pred_normal.c:336:43
	leal	(%rdx,%r9,2), %r11d
	addl	$2, %r11d
	.loc	0 336 49 is_stmt 0              # ldecod_src/intra4x4_pred_normal.c:336:49
	addl	%ebx, %r11d
	.loc	0 336 54                        # ldecod_src/intra4x4_pred_normal.c:336:54
	shrl	$2, %r11d
.Ltmp178:
	#DEBUG_VALUE: PredPixel <- [DW_OP_LLVM_fragment 64 16] $r11w
	.loc	0 337 43 is_stmt 1              # ldecod_src/intra4x4_pred_normal.c:337:43
	leal	(%r9,%rdx,2), %r9d
	addl	$2, %r9d
	.loc	0 337 49 is_stmt 0              # ldecod_src/intra4x4_pred_normal.c:337:49
	addl	%edi, %r9d
	.loc	0 337 54                        # ldecod_src/intra4x4_pred_normal.c:337:54
	shrl	$2, %r9d
.Ltmp179:
	#DEBUG_VALUE: PredPixel <- [DW_OP_LLVM_fragment 80 16] $r9w
	.loc	0 338 43 is_stmt 1              # ldecod_src/intra4x4_pred_normal.c:338:43
	leal	(%rdx,%rdi,2), %edx
	addl	$2, %edx
	.loc	0 338 49 is_stmt 0              # ldecod_src/intra4x4_pred_normal.c:338:49
	addl	%ecx, %edx
	.loc	0 338 54                        # ldecod_src/intra4x4_pred_normal.c:338:54
	shrl	$2, %edx
.Ltmp180:
	#DEBUG_VALUE: PredPixel <- [DW_OP_LLVM_fragment 96 16] $dx
	#DEBUG_VALUE: intra4x4_diag_down_right_pred:joff <- [DW_OP_plus_uconst 16, DW_OP_deref, DW_OP_plus_uconst 1, DW_OP_stack_value] $rsp
	.loc	0 340 13 is_stmt 1              # ldecod_src/intra4x4_pred_normal.c:340:13
	movslq	%r15d, %rcx
	movq	56(%rsp), %r15                  # 8-byte Reload
	movq	(%r15,%rcx,8), %rdi
	movslq	%r14d, %rbx
	.loc	0 340 5 is_stmt 0               # ldecod_src/intra4x4_pred_normal.c:340:5
	movw	%r10w, (%rdi,%rbx,2)
	movw	%r11w, 2(%rdi,%rbx,2)
	movw	%r9w, 4(%rdi,%rbx,2)
	movw	%dx, 6(%rdi,%rbx,2)
.Ltmp181:
	#DEBUG_VALUE: intra4x4_diag_down_right_pred:joff <- [DW_OP_plus_uconst 16, DW_OP_deref, DW_OP_plus_uconst 2, DW_OP_stack_value] $rsp
	.loc	0 341 13 is_stmt 1              # ldecod_src/intra4x4_pred_normal.c:341:13
	movq	8(%r15,%rcx,8), %rdx
.Ltmp182:
	.loc	0 341 5 is_stmt 0               # ldecod_src/intra4x4_pred_normal.c:341:5
	movw	%r8w, (%rdx,%rbx,2)
	movw	%r10w, 2(%rdx,%rbx,2)
	movw	%r11w, 4(%rdx,%rbx,2)
	movw	%r9w, 6(%rdx,%rbx,2)
.Ltmp183:
	#DEBUG_VALUE: intra4x4_diag_down_right_pred:joff <- [DW_OP_plus_uconst 16, DW_OP_deref, DW_OP_plus_uconst 3, DW_OP_stack_value] $rsp
	.loc	0 342 13 is_stmt 1              # ldecod_src/intra4x4_pred_normal.c:342:13
	movq	16(%r15,%rcx,8), %rdx
	.loc	0 342 5 is_stmt 0               # ldecod_src/intra4x4_pred_normal.c:342:5
	movw	%si, (%rdx,%rbx,2)
	movw	%r8w, 2(%rdx,%rbx,2)
	movw	%r10w, 4(%rdx,%rbx,2)
	movw	%r11w, 6(%rdx,%rbx,2)
	.loc	0 343 13 is_stmt 1              # ldecod_src/intra4x4_pred_normal.c:343:13
	movq	24(%r15,%rcx,8), %rcx
	.loc	0 343 5 is_stmt 0               # ldecod_src/intra4x4_pred_normal.c:343:5
	movw	%ax, (%rcx,%rbx,2)
	movw	%si, 2(%rcx,%rbx,2)
	movw	%r8w, 4(%rcx,%rbx,2)
	movw	%r10w, 6(%rcx,%rbx,2)
	jmp	.LBB0_134
.Ltmp184:
.LBB0_59:                               # %if.then55.i
	#DEBUG_VALUE: intra4x4_pred_normal:currMB <- $r12
	#DEBUG_VALUE: intra4x4_pred_normal:pl <- [DW_OP_LLVM_entry_value 1] $esi
	#DEBUG_VALUE: intra4x4_pred_normal:ioff <- [DW_OP_plus_uconst 48] [$rsp+0]
	#DEBUG_VALUE: intra4x4_pred_normal:joff <- [DW_OP_plus_uconst 16] [$rsp+0]
	#DEBUG_VALUE: intra4x4_pred_normal:img_block_x <- [DW_OP_LLVM_entry_value 1] $r8d
	#DEBUG_VALUE: intra4x4_pred_normal:img_block_y <- [DW_OP_LLVM_entry_value 1] $r9d
	#DEBUG_VALUE: intra4x4_pred_normal:p_Vid <- $rbx
	#DEBUG_VALUE: intra4x4_diag_down_right_pred:pix_d <- [DW_OP_plus_uconst 64, DW_OP_deref] $rsp
	#DEBUG_VALUE: intra4x4_diag_down_right_pred:currMB <- $r12
	#DEBUG_VALUE: intra4x4_diag_down_right_pred:ioff <- [DW_OP_plus_uconst 48, DW_OP_deref] $rsp
	#DEBUG_VALUE: intra4x4_diag_down_right_pred:joff <- [DW_OP_plus_uconst 16, DW_OP_deref] $rsp
	#DEBUG_VALUE: intra4x4_diag_down_right_pred:currSlice <- [DW_OP_plus_uconst 40, DW_OP_deref] $rsp
	#DEBUG_VALUE: intra4x4_diag_down_right_pred:p_Vid <- $rbx
	#DEBUG_VALUE: intra4x4_diag_down_right_pred:imgY <- [DW_OP_plus_uconst 80, DW_OP_deref] $rsp
	#DEBUG_VALUE: intra4x4_diag_down_right_pred:mb_pred <- [DW_OP_plus_uconst 56, DW_OP_deref] $rsp
	#DEBUG_VALUE: intra4x4_diag_down_right_pred:block_available_left <- $eax
	#DEBUG_VALUE: intra4x4_diag_down_right_pred:block_available_up <- $ecx
	.loc	0 312 110 is_stmt 1             # ldecod_src/intra4x4_pred_normal.c:312:110
	movl	108(%rdi), %esi
	.loc	0 312 5 is_stmt 0               # ldecod_src/intra4x4_pred_normal.c:312:5
	movl	$.L.str.3, %edi
	jmp	.LBB0_118
.Ltmp185:
.LBB0_60:                               # %cond.false.i
	#DEBUG_VALUE: intra4x4_pred_normal:currMB <- $rdi
	#DEBUG_VALUE: intra4x4_pred_normal:pl <- $r15d
	#DEBUG_VALUE: intra4x4_pred_normal:ioff <- $r12d
	#DEBUG_VALUE: intra4x4_pred_normal:joff <- [DW_OP_plus_uconst 16] [$rsp+0]
	#DEBUG_VALUE: intra4x4_pred_normal:img_block_x <- $r8d
	#DEBUG_VALUE: intra4x4_pred_normal:img_block_y <- $r9d
	#DEBUG_VALUE: intra4x4_pred_normal:p_Vid <- $rbx
	#DEBUG_VALUE: intra4x4_pred_normal:predmode <- [DW_OP_LLVM_convert 64 7, DW_OP_LLVM_convert 8 7] $esi
	#DEBUG_VALUE: intra4x4_dc_pred:pix_b <- [DW_OP_plus_uconst 24, DW_OP_deref] $rsp
	#DEBUG_VALUE: intra4x4_dc_pred:currMB <- $rdi
	#DEBUG_VALUE: intra4x4_dc_pred:pl <- $r15d
	#DEBUG_VALUE: intra4x4_dc_pred:ioff <- $r12d
	#DEBUG_VALUE: intra4x4_dc_pred:joff <- [DW_OP_plus_uconst 16, DW_OP_deref] $rsp
	#DEBUG_VALUE: intra4x4_dc_pred:currSlice <- $rdx
	#DEBUG_VALUE: intra4x4_dc_pred:p_Vid <- $rbx
	#DEBUG_VALUE: intra4x4_dc_pred:s0 <- 0
	.loc	0 59 90 is_stmt 1               # ldecod_src/intra4x4_pred_normal.c:59:90
	subq	$-128, %rax
	movq	%rax, %rcx
.Ltmp186:
.LBB0_61:                               # %cond.end.i
	#DEBUG_VALUE: intra4x4_pred_normal:currMB <- $rdi
	#DEBUG_VALUE: intra4x4_pred_normal:pl <- $r15d
	#DEBUG_VALUE: intra4x4_pred_normal:ioff <- $r12d
	#DEBUG_VALUE: intra4x4_pred_normal:joff <- [DW_OP_plus_uconst 16] [$rsp+0]
	#DEBUG_VALUE: intra4x4_pred_normal:img_block_x <- $r8d
	#DEBUG_VALUE: intra4x4_pred_normal:img_block_y <- $r9d
	#DEBUG_VALUE: intra4x4_pred_normal:p_Vid <- $rbx
	#DEBUG_VALUE: intra4x4_pred_normal:predmode <- [DW_OP_LLVM_convert 64 7, DW_OP_LLVM_convert 8 7] $esi
	#DEBUG_VALUE: intra4x4_dc_pred:pix_b <- [DW_OP_plus_uconst 24, DW_OP_deref] $rsp
	#DEBUG_VALUE: intra4x4_dc_pred:currMB <- $rdi
	#DEBUG_VALUE: intra4x4_dc_pred:pl <- $r15d
	#DEBUG_VALUE: intra4x4_dc_pred:ioff <- $r12d
	#DEBUG_VALUE: intra4x4_dc_pred:joff <- [DW_OP_plus_uconst 16, DW_OP_deref] $rsp
	#DEBUG_VALUE: intra4x4_dc_pred:currSlice <- $rdx
	#DEBUG_VALUE: intra4x4_dc_pred:p_Vid <- $rbx
	#DEBUG_VALUE: intra4x4_dc_pred:s0 <- 0
	.loc	0 59 19 is_stmt 0               # ldecod_src/intra4x4_pred_normal.c:59:19
	movq	(%rcx), %rax
.Ltmp187:
	#DEBUG_VALUE: intra4x4_dc_pred:imgY <- $rax
	#DEBUG_VALUE: intra4x4_dc_pred:curpel <- 0
	.loc	0 0 19                          # ldecod_src/intra4x4_pred_normal.c:0:19
	movq	%rax, 40(%rsp)                  # 8-byte Spill
.Ltmp188:
	#DEBUG_VALUE: intra4x4_dc_pred:imgY <- [DW_OP_plus_uconst 40, DW_OP_deref] $rsp
	movq	%rdx, 48(%rsp)                  # 8-byte Spill
.Ltmp189:
	#DEBUG_VALUE: intra4x4_dc_pred:currSlice <- [DW_OP_plus_uconst 48, DW_OP_deref] $rsp
	.loc	0 67 33 is_stmt 1               # ldecod_src/intra4x4_pred_normal.c:67:33
	movq	1248(%rdx), %rax
	.loc	0 67 22 is_stmt 0               # ldecod_src/intra4x4_pred_normal.c:67:22
	movl	%r15d, %ecx
	movq	%rcx, 56(%rsp)                  # 8-byte Spill
	movq	(%rax,%rcx,8), %r14
.Ltmp190:
	#DEBUG_VALUE: intra4x4_dc_pred:mb_pred <- $r14
	.loc	0 69 35 is_stmt 1               # ldecod_src/intra4x4_pred_normal.c:69:35
	leal	-1(%r12), %esi
.Ltmp191:
	.loc	0 69 56 is_stmt 0               # ldecod_src/intra4x4_pred_normal.c:69:56
	leaq	849124(%rbx), %r15
.Ltmp192:
	#DEBUG_VALUE: intra4x4_dc_pred:pl <- [DW_OP_plus_uconst 56, DW_OP_deref] $rsp
	#DEBUG_VALUE: intra4x4_pred_normal:pl <- [DW_OP_plus_uconst 56] [$rsp+0]
	.loc	0 0 56                          # ldecod_src/intra4x4_pred_normal.c:0:56
	movq	%rsp, %r8
.Ltmp193:
	#DEBUG_VALUE: intra4x4_pred_normal:img_block_x <- [DW_OP_LLVM_entry_value 1] $r8d
	movq	%r12, %rbp
	movq	%rdi, %r12
.Ltmp194:
	#DEBUG_VALUE: intra4x4_dc_pred:ioff <- $ebp
	#DEBUG_VALUE: intra4x4_pred_normal:ioff <- $ebp
	movq	16(%rsp), %r13                  # 8-byte Reload
	.loc	0 69 3                          # ldecod_src/intra4x4_pred_normal.c:69:3
	movl	%r13d, %edx
	movq	%r15, %rcx
	callq	getNonAffNeighbour@PLT
.Ltmp195:
	#DEBUG_VALUE: intra4x4_pred_normal:img_block_y <- [DW_OP_LLVM_entry_value 1] $r9d
	#DEBUG_VALUE: intra4x4_dc_pred:currMB <- $r12
	#DEBUG_VALUE: intra4x4_pred_normal:currMB <- $r12
	.loc	0 70 45 is_stmt 1               # ldecod_src/intra4x4_pred_normal.c:70:45
	leal	-1(%r13), %edx
	leaq	24(%rsp), %r8
	.loc	0 70 3 is_stmt 0                # ldecod_src/intra4x4_pred_normal.c:70:3
	movq	%r12, %rdi
	movl	%ebp, %esi
	movq	%r15, %rcx
	callq	getNonAffNeighbour@PLT
.Ltmp196:
	.loc	0 72 14 is_stmt 1               # ldecod_src/intra4x4_pred_normal.c:72:14
	movq	8(%rbx), %rax
	.loc	0 72 7 is_stmt 0                # ldecod_src/intra4x4_pred_normal.c:72:7
	cmpl	$0, 2204(%rax)
	.loc	0 0 0                           # ldecod_src/intra4x4_pred_normal.c:0:0
	movl	(%rsp), %eax
.Ltmp197:
	.loc	0 72 7                          # ldecod_src/intra4x4_pred_normal.c:72:7
	je	.LBB0_65
.Ltmp198:
# %bb.62:                               # %if.then.i
	#DEBUG_VALUE: intra4x4_pred_normal:currMB <- $r12
	#DEBUG_VALUE: intra4x4_pred_normal:pl <- [DW_OP_plus_uconst 56] [$rsp+0]
	#DEBUG_VALUE: intra4x4_pred_normal:ioff <- $ebp
	#DEBUG_VALUE: intra4x4_pred_normal:joff <- [DW_OP_plus_uconst 16] [$rsp+0]
	#DEBUG_VALUE: intra4x4_pred_normal:img_block_x <- [DW_OP_LLVM_entry_value 1] $r8d
	#DEBUG_VALUE: intra4x4_pred_normal:img_block_y <- [DW_OP_LLVM_entry_value 1] $r9d
	#DEBUG_VALUE: intra4x4_pred_normal:p_Vid <- $rbx
	#DEBUG_VALUE: intra4x4_dc_pred:pix_b <- [DW_OP_plus_uconst 24, DW_OP_deref] $rsp
	#DEBUG_VALUE: intra4x4_dc_pred:currMB <- $r12
	#DEBUG_VALUE: intra4x4_dc_pred:pl <- [DW_OP_plus_uconst 56, DW_OP_deref] $rsp
	#DEBUG_VALUE: intra4x4_dc_pred:ioff <- $ebp
	#DEBUG_VALUE: intra4x4_dc_pred:joff <- [DW_OP_plus_uconst 16, DW_OP_deref] $rsp
	#DEBUG_VALUE: intra4x4_dc_pred:currSlice <- [DW_OP_plus_uconst 48, DW_OP_deref] $rsp
	#DEBUG_VALUE: intra4x4_dc_pred:p_Vid <- $rbx
	#DEBUG_VALUE: intra4x4_dc_pred:s0 <- 0
	#DEBUG_VALUE: intra4x4_dc_pred:imgY <- [DW_OP_plus_uconst 40, DW_OP_deref] $rsp
	#DEBUG_VALUE: intra4x4_dc_pred:curpel <- 0
	#DEBUG_VALUE: intra4x4_dc_pred:mb_pred <- $r14
	.loc	0 74 28 is_stmt 1               # ldecod_src/intra4x4_pred_normal.c:74:28
	testl	%eax, %eax
	je	.LBB0_107
.Ltmp199:
# %bb.63:                               # %cond.true15.i
	#DEBUG_VALUE: intra4x4_pred_normal:currMB <- $r12
	#DEBUG_VALUE: intra4x4_pred_normal:pl <- [DW_OP_plus_uconst 56] [$rsp+0]
	#DEBUG_VALUE: intra4x4_pred_normal:ioff <- $ebp
	#DEBUG_VALUE: intra4x4_pred_normal:joff <- [DW_OP_plus_uconst 16] [$rsp+0]
	#DEBUG_VALUE: intra4x4_pred_normal:img_block_x <- [DW_OP_LLVM_entry_value 1] $r8d
	#DEBUG_VALUE: intra4x4_pred_normal:img_block_y <- [DW_OP_LLVM_entry_value 1] $r9d
	#DEBUG_VALUE: intra4x4_pred_normal:p_Vid <- $rbx
	#DEBUG_VALUE: intra4x4_dc_pred:pix_b <- [DW_OP_plus_uconst 24, DW_OP_deref] $rsp
	#DEBUG_VALUE: intra4x4_dc_pred:currMB <- $r12
	#DEBUG_VALUE: intra4x4_dc_pred:pl <- [DW_OP_plus_uconst 56, DW_OP_deref] $rsp
	#DEBUG_VALUE: intra4x4_dc_pred:ioff <- $ebp
	#DEBUG_VALUE: intra4x4_dc_pred:joff <- [DW_OP_plus_uconst 16, DW_OP_deref] $rsp
	#DEBUG_VALUE: intra4x4_dc_pred:currSlice <- [DW_OP_plus_uconst 48, DW_OP_deref] $rsp
	#DEBUG_VALUE: intra4x4_dc_pred:p_Vid <- $rbx
	#DEBUG_VALUE: intra4x4_dc_pred:s0 <- 0
	#DEBUG_VALUE: intra4x4_dc_pred:imgY <- [DW_OP_plus_uconst 40, DW_OP_deref] $rsp
	#DEBUG_VALUE: intra4x4_dc_pred:curpel <- 0
	#DEBUG_VALUE: intra4x4_dc_pred:mb_pred <- $r14
	.loc	0 0 28 is_stmt 0                # ldecod_src/intra4x4_pred_normal.c:0:28
	movq	48(%rsp), %rdx                  # 8-byte Reload
	.loc	0 74 57                         # ldecod_src/intra4x4_pred_normal.c:74:57
	movq	13544(%rdx), %rax
	.loc	0 74 76                         # ldecod_src/intra4x4_pred_normal.c:74:76
	movslq	4(%rsp), %rcx
	.loc	0 74 46                         # ldecod_src/intra4x4_pred_normal.c:74:46
	movsbl	(%rax,%rcx), %eax
	movq	40(%rsp), %r11                  # 8-byte Reload
.Ltmp200:
	#DEBUG_VALUE: intra4x4_dc_pred:block_available_left <- $eax
	.loc	0 75 28 is_stmt 1               # ldecod_src/intra4x4_pred_normal.c:75:28
	cmpl	$0, 24(%rsp)
	je	.LBB0_108
.Ltmp201:
.LBB0_64:                               # %cond.true23.i
	#DEBUG_VALUE: intra4x4_pred_normal:currMB <- $r12
	#DEBUG_VALUE: intra4x4_pred_normal:pl <- [DW_OP_plus_uconst 56] [$rsp+0]
	#DEBUG_VALUE: intra4x4_pred_normal:ioff <- $ebp
	#DEBUG_VALUE: intra4x4_pred_normal:joff <- [DW_OP_plus_uconst 16] [$rsp+0]
	#DEBUG_VALUE: intra4x4_pred_normal:img_block_x <- [DW_OP_LLVM_entry_value 1] $r8d
	#DEBUG_VALUE: intra4x4_pred_normal:img_block_y <- [DW_OP_LLVM_entry_value 1] $r9d
	#DEBUG_VALUE: intra4x4_pred_normal:p_Vid <- $rbx
	#DEBUG_VALUE: intra4x4_dc_pred:pix_b <- [DW_OP_plus_uconst 24, DW_OP_deref] $rsp
	#DEBUG_VALUE: intra4x4_dc_pred:currMB <- $r12
	#DEBUG_VALUE: intra4x4_dc_pred:pl <- [DW_OP_plus_uconst 56, DW_OP_deref] $rsp
	#DEBUG_VALUE: intra4x4_dc_pred:ioff <- $ebp
	#DEBUG_VALUE: intra4x4_dc_pred:joff <- [DW_OP_plus_uconst 16, DW_OP_deref] $rsp
	#DEBUG_VALUE: intra4x4_dc_pred:currSlice <- [DW_OP_plus_uconst 48, DW_OP_deref] $rsp
	#DEBUG_VALUE: intra4x4_dc_pred:p_Vid <- $rbx
	#DEBUG_VALUE: intra4x4_dc_pred:s0 <- 0
	#DEBUG_VALUE: intra4x4_dc_pred:imgY <- [DW_OP_plus_uconst 40, DW_OP_deref] $rsp
	#DEBUG_VALUE: intra4x4_dc_pred:curpel <- 0
	#DEBUG_VALUE: intra4x4_dc_pred:mb_pred <- $r14
	#DEBUG_VALUE: intra4x4_dc_pred:block_available_left <- $eax
	.loc	0 75 57 is_stmt 0               # ldecod_src/intra4x4_pred_normal.c:75:57
	movq	13544(%rdx), %rcx
	.loc	0 75 76                         # ldecod_src/intra4x4_pred_normal.c:75:76
	movslq	28(%rsp), %rdx
	.loc	0 75 46                         # ldecod_src/intra4x4_pred_normal.c:75:46
	movsbl	(%rcx,%rdx), %ecx
.Ltmp202:
	#DEBUG_VALUE: intra4x4_dc_pred:block_available_left <- $eax
	#DEBUG_VALUE: intra4x4_dc_pred:block_available_up <- $ecx
	.loc	0 84 7 is_stmt 1                # ldecod_src/intra4x4_pred_normal.c:84:7
	testl	%ecx, %ecx
	movq	16(%rsp), %r10                  # 8-byte Reload
.Ltmp203:
	.loc	0 84 7 is_stmt 0                # ldecod_src/intra4x4_pred_normal.c:84:7
	jne	.LBB0_66
	jmp	.LBB0_109
.Ltmp204:
.LBB0_65:                               # %if.else.i
	#DEBUG_VALUE: intra4x4_pred_normal:currMB <- $r12
	#DEBUG_VALUE: intra4x4_pred_normal:pl <- [DW_OP_plus_uconst 56] [$rsp+0]
	#DEBUG_VALUE: intra4x4_pred_normal:ioff <- $ebp
	#DEBUG_VALUE: intra4x4_pred_normal:joff <- [DW_OP_plus_uconst 16] [$rsp+0]
	#DEBUG_VALUE: intra4x4_pred_normal:img_block_x <- [DW_OP_LLVM_entry_value 1] $r8d
	#DEBUG_VALUE: intra4x4_pred_normal:img_block_y <- [DW_OP_LLVM_entry_value 1] $r9d
	#DEBUG_VALUE: intra4x4_pred_normal:p_Vid <- $rbx
	#DEBUG_VALUE: intra4x4_dc_pred:pix_b <- [DW_OP_plus_uconst 24, DW_OP_deref] $rsp
	#DEBUG_VALUE: intra4x4_dc_pred:currMB <- $r12
	#DEBUG_VALUE: intra4x4_dc_pred:pl <- [DW_OP_plus_uconst 56, DW_OP_deref] $rsp
	#DEBUG_VALUE: intra4x4_dc_pred:ioff <- $ebp
	#DEBUG_VALUE: intra4x4_dc_pred:joff <- [DW_OP_plus_uconst 16, DW_OP_deref] $rsp
	#DEBUG_VALUE: intra4x4_dc_pred:currSlice <- [DW_OP_plus_uconst 48, DW_OP_deref] $rsp
	#DEBUG_VALUE: intra4x4_dc_pred:p_Vid <- $rbx
	#DEBUG_VALUE: intra4x4_dc_pred:s0 <- 0
	#DEBUG_VALUE: intra4x4_dc_pred:imgY <- [DW_OP_plus_uconst 40, DW_OP_deref] $rsp
	#DEBUG_VALUE: intra4x4_dc_pred:curpel <- 0
	#DEBUG_VALUE: intra4x4_dc_pred:mb_pred <- $r14
	#DEBUG_VALUE: intra4x4_dc_pred:block_available_left <- $eax
	.loc	0 80 34 is_stmt 1               # ldecod_src/intra4x4_pred_normal.c:80:34
	movl	24(%rsp), %ecx
.Ltmp205:
	#DEBUG_VALUE: intra4x4_dc_pred:block_available_up <- $ecx
	.loc	0 0 34 is_stmt 0                # ldecod_src/intra4x4_pred_normal.c:0:34
	movq	40(%rsp), %r11                  # 8-byte Reload
.Ltmp206:
	#DEBUG_VALUE: intra4x4_dc_pred:block_available_left <- $eax
	#DEBUG_VALUE: intra4x4_dc_pred:block_available_up <- $ecx
	.loc	0 84 7 is_stmt 1                # ldecod_src/intra4x4_pred_normal.c:84:7
	testl	%ecx, %ecx
	movq	16(%rsp), %r10                  # 8-byte Reload
.Ltmp207:
	.loc	0 84 7 is_stmt 0                # ldecod_src/intra4x4_pred_normal.c:84:7
	je	.LBB0_109
.Ltmp208:
.LBB0_66:                               # %if.end49.thread.i
	#DEBUG_VALUE: intra4x4_pred_normal:currMB <- $r12
	#DEBUG_VALUE: intra4x4_pred_normal:pl <- [DW_OP_plus_uconst 56] [$rsp+0]
	#DEBUG_VALUE: intra4x4_pred_normal:ioff <- $ebp
	#DEBUG_VALUE: intra4x4_pred_normal:joff <- [DW_OP_plus_uconst 16] [$rsp+0]
	#DEBUG_VALUE: intra4x4_pred_normal:img_block_x <- [DW_OP_LLVM_entry_value 1] $r8d
	#DEBUG_VALUE: intra4x4_pred_normal:img_block_y <- [DW_OP_LLVM_entry_value 1] $r9d
	#DEBUG_VALUE: intra4x4_pred_normal:p_Vid <- $rbx
	#DEBUG_VALUE: intra4x4_dc_pred:pix_b <- [DW_OP_plus_uconst 24, DW_OP_deref] $rsp
	#DEBUG_VALUE: intra4x4_dc_pred:currMB <- $r12
	#DEBUG_VALUE: intra4x4_dc_pred:pl <- [DW_OP_plus_uconst 56, DW_OP_deref] $rsp
	#DEBUG_VALUE: intra4x4_dc_pred:ioff <- $ebp
	#DEBUG_VALUE: intra4x4_dc_pred:joff <- [DW_OP_plus_uconst 16, DW_OP_deref] $rsp
	#DEBUG_VALUE: intra4x4_dc_pred:currSlice <- [DW_OP_plus_uconst 48, DW_OP_deref] $rsp
	#DEBUG_VALUE: intra4x4_dc_pred:p_Vid <- $rbx
	#DEBUG_VALUE: intra4x4_dc_pred:s0 <- 0
	#DEBUG_VALUE: intra4x4_dc_pred:imgY <- [DW_OP_plus_uconst 40, DW_OP_deref] $rsp
	#DEBUG_VALUE: intra4x4_dc_pred:curpel <- 0
	#DEBUG_VALUE: intra4x4_dc_pred:mb_pred <- $r14
	#DEBUG_VALUE: intra4x4_dc_pred:block_available_left <- $eax
	#DEBUG_VALUE: intra4x4_dc_pred:block_available_up <- $ecx
	.loc	0 86 26 is_stmt 1               # ldecod_src/intra4x4_pred_normal.c:86:26
	movswq	38(%rsp), %rcx
.Ltmp209:
	.loc	0 86 15 is_stmt 0               # ldecod_src/intra4x4_pred_normal.c:86:15
	movq	(%r11,%rcx,8), %rcx
	.loc	0 86 39                         # ldecod_src/intra4x4_pred_normal.c:86:39
	movswq	36(%rsp), %rdx
.Ltmp210:
	#DEBUG_VALUE: intra4x4_dc_pred:s0 <- undef
	#DEBUG_VALUE: intra4x4_dc_pred:curpel <- undef
	.loc	0 87 11 is_stmt 1               # ldecod_src/intra4x4_pred_normal.c:87:11
	movq	(%rcx,%rdx,2), %xmm0            # xmm0 = mem[0],zero
	.loc	0 88 11                         # ldecod_src/intra4x4_pred_normal.c:88:11
	pxor	%xmm1, %xmm1
	punpcklwd	%xmm1, %xmm0            # xmm0 = xmm0[0],xmm1[0],xmm0[1],xmm1[1],xmm0[2],xmm1[2],xmm0[3],xmm1[3]
	.loc	0 90 8                          # ldecod_src/intra4x4_pred_normal.c:90:8
	pshufd	$238, %xmm0, %xmm1              # xmm1 = xmm0[2,3,2,3]
	paddd	%xmm0, %xmm1
	pshufd	$85, %xmm1, %xmm0               # xmm0 = xmm1[1,1,1,1]
	paddd	%xmm1, %xmm0
	movd	%xmm0, %ecx
.Ltmp211:
	#DEBUG_VALUE: intra4x4_dc_pred:s0 <- $ecx
	.loc	0 93 7                          # ldecod_src/intra4x4_pred_normal.c:93:7
	testl	%eax, %eax
.Ltmp212:
	.loc	0 93 7 is_stmt 0                # ldecod_src/intra4x4_pred_normal.c:93:7
	je	.LBB0_124
.Ltmp213:
# %bb.67:
	#DEBUG_VALUE: intra4x4_pred_normal:currMB <- $r12
	#DEBUG_VALUE: intra4x4_pred_normal:pl <- [DW_OP_plus_uconst 56] [$rsp+0]
	#DEBUG_VALUE: intra4x4_pred_normal:ioff <- $ebp
	#DEBUG_VALUE: intra4x4_pred_normal:joff <- [DW_OP_plus_uconst 16] [$rsp+0]
	#DEBUG_VALUE: intra4x4_pred_normal:img_block_x <- [DW_OP_LLVM_entry_value 1] $r8d
	#DEBUG_VALUE: intra4x4_pred_normal:img_block_y <- [DW_OP_LLVM_entry_value 1] $r9d
	#DEBUG_VALUE: intra4x4_pred_normal:p_Vid <- $rbx
	#DEBUG_VALUE: intra4x4_dc_pred:pix_b <- [DW_OP_plus_uconst 24, DW_OP_deref] $rsp
	#DEBUG_VALUE: intra4x4_dc_pred:currMB <- $r12
	#DEBUG_VALUE: intra4x4_dc_pred:pl <- [DW_OP_plus_uconst 56, DW_OP_deref] $rsp
	#DEBUG_VALUE: intra4x4_dc_pred:ioff <- $ebp
	#DEBUG_VALUE: intra4x4_dc_pred:joff <- [DW_OP_plus_uconst 16, DW_OP_deref] $rsp
	#DEBUG_VALUE: intra4x4_dc_pred:currSlice <- [DW_OP_plus_uconst 48, DW_OP_deref] $rsp
	#DEBUG_VALUE: intra4x4_dc_pred:p_Vid <- $rbx
	#DEBUG_VALUE: intra4x4_dc_pred:s0 <- $ecx
	#DEBUG_VALUE: intra4x4_dc_pred:imgY <- [DW_OP_plus_uconst 40, DW_OP_deref] $rsp
	#DEBUG_VALUE: intra4x4_dc_pred:mb_pred <- $r14
	#DEBUG_VALUE: intra4x4_dc_pred:block_available_left <- $eax
	.loc	0 0 7                           # ldecod_src/intra4x4_pred_normal.c:0:7
	movb	$1, %sil
	xorl	%edx, %edx
	jmp	.LBB0_111
.Ltmp214:
.LBB0_68:
	#DEBUG_VALUE: intra4x4_pred_normal:currMB <- $r13
	#DEBUG_VALUE: intra4x4_pred_normal:pl <- [DW_OP_plus_uconst 40] [$rsp+0]
	#DEBUG_VALUE: intra4x4_pred_normal:ioff <- $r12d
	#DEBUG_VALUE: intra4x4_pred_normal:joff <- $r15d
	#DEBUG_VALUE: intra4x4_pred_normal:img_block_x <- [DW_OP_LLVM_entry_value 1] $r8d
	#DEBUG_VALUE: intra4x4_pred_normal:img_block_y <- [DW_OP_LLVM_entry_value 1] $r9d
	#DEBUG_VALUE: intra4x4_pred_normal:p_Vid <- $rbx
	#DEBUG_VALUE: intra4x4_diag_down_left_pred:pix_c <- [DW_OP_plus_uconst 24, DW_OP_deref] $rsp
	#DEBUG_VALUE: intra4x4_diag_down_left_pred:currMB <- $r13
	#DEBUG_VALUE: intra4x4_diag_down_left_pred:pl <- [DW_OP_plus_uconst 40, DW_OP_deref] $rsp
	#DEBUG_VALUE: intra4x4_diag_down_left_pred:ioff <- $r12d
	#DEBUG_VALUE: intra4x4_diag_down_left_pred:joff <- $r15d
	#DEBUG_VALUE: intra4x4_diag_down_left_pred:currSlice <- [DW_OP_plus_uconst 16, DW_OP_deref] $rsp
	#DEBUG_VALUE: intra4x4_diag_down_left_pred:p_Vid <- $rbx
	xorl	%ecx, %ecx
.Ltmp215:
.LBB0_69:                               # %land.end10.i
	#DEBUG_VALUE: intra4x4_pred_normal:currMB <- $r13
	#DEBUG_VALUE: intra4x4_pred_normal:pl <- [DW_OP_plus_uconst 40] [$rsp+0]
	#DEBUG_VALUE: intra4x4_pred_normal:ioff <- $r12d
	#DEBUG_VALUE: intra4x4_pred_normal:joff <- $r15d
	#DEBUG_VALUE: intra4x4_pred_normal:img_block_x <- [DW_OP_LLVM_entry_value 1] $r8d
	#DEBUG_VALUE: intra4x4_pred_normal:img_block_y <- [DW_OP_LLVM_entry_value 1] $r9d
	#DEBUG_VALUE: intra4x4_pred_normal:p_Vid <- $rbx
	#DEBUG_VALUE: intra4x4_diag_down_left_pred:pix_c <- [DW_OP_plus_uconst 24, DW_OP_deref] $rsp
	#DEBUG_VALUE: intra4x4_diag_down_left_pred:currMB <- $r13
	#DEBUG_VALUE: intra4x4_diag_down_left_pred:pl <- [DW_OP_plus_uconst 40, DW_OP_deref] $rsp
	#DEBUG_VALUE: intra4x4_diag_down_left_pred:ioff <- $r12d
	#DEBUG_VALUE: intra4x4_diag_down_left_pred:joff <- $r15d
	#DEBUG_VALUE: intra4x4_diag_down_left_pred:currSlice <- [DW_OP_plus_uconst 16, DW_OP_deref] $rsp
	#DEBUG_VALUE: intra4x4_diag_down_left_pred:p_Vid <- $rbx
	.loc	0 375 19 is_stmt 1              # ldecod_src/intra4x4_pred_normal.c:375:19
	movl	%ecx, 24(%rsp)
	#DEBUG_VALUE: intra4x4_diag_down_left_pred:pix_c <- [DW_OP_plus_uconst 24, DW_OP_deref] $rsp
.Ltmp216:
	.loc	0 377 14                        # ldecod_src/intra4x4_pred_normal.c:377:14
	movq	8(%rbx), %rax
	.loc	0 377 7 is_stmt 0               # ldecod_src/intra4x4_pred_normal.c:377:7
	cmpl	$0, 2204(%rax)
	.loc	0 0 0                           # ldecod_src/intra4x4_pred_normal.c:0:0
	movl	(%rsp), %eax
	movq	40(%rsp), %rsi                  # 8-byte Reload
.Ltmp217:
	.loc	0 377 7                         # ldecod_src/intra4x4_pred_normal.c:377:7
	je	.LBB0_74
.Ltmp218:
# %bb.70:                               # %if.then.i153
	#DEBUG_VALUE: intra4x4_pred_normal:currMB <- $r13
	#DEBUG_VALUE: intra4x4_pred_normal:pl <- [DW_OP_plus_uconst 40] [$rsp+0]
	#DEBUG_VALUE: intra4x4_pred_normal:ioff <- $r12d
	#DEBUG_VALUE: intra4x4_pred_normal:joff <- $r15d
	#DEBUG_VALUE: intra4x4_pred_normal:img_block_x <- [DW_OP_LLVM_entry_value 1] $r8d
	#DEBUG_VALUE: intra4x4_pred_normal:img_block_y <- [DW_OP_LLVM_entry_value 1] $r9d
	#DEBUG_VALUE: intra4x4_pred_normal:p_Vid <- $rbx
	#DEBUG_VALUE: intra4x4_diag_down_left_pred:pix_c <- [DW_OP_plus_uconst 24, DW_OP_deref] $rsp
	#DEBUG_VALUE: intra4x4_diag_down_left_pred:currMB <- $r13
	#DEBUG_VALUE: intra4x4_diag_down_left_pred:pl <- [DW_OP_plus_uconst 40, DW_OP_deref] $rsp
	#DEBUG_VALUE: intra4x4_diag_down_left_pred:ioff <- $r12d
	#DEBUG_VALUE: intra4x4_diag_down_left_pred:joff <- $r15d
	#DEBUG_VALUE: intra4x4_diag_down_left_pred:currSlice <- [DW_OP_plus_uconst 16, DW_OP_deref] $rsp
	#DEBUG_VALUE: intra4x4_diag_down_left_pred:p_Vid <- $rbx
	.loc	0 379 32 is_stmt 1              # ldecod_src/intra4x4_pred_normal.c:379:32
	testl	%eax, %eax
	movl	$0, %eax
	movq	16(%rsp), %rdi                  # 8-byte Reload
	je	.LBB0_72
.Ltmp219:
# %bb.71:                               # %cond.true.i155
	#DEBUG_VALUE: intra4x4_pred_normal:currMB <- $r13
	#DEBUG_VALUE: intra4x4_pred_normal:pl <- [DW_OP_plus_uconst 40] [$rsp+0]
	#DEBUG_VALUE: intra4x4_pred_normal:ioff <- $r12d
	#DEBUG_VALUE: intra4x4_pred_normal:joff <- $r15d
	#DEBUG_VALUE: intra4x4_pred_normal:img_block_x <- [DW_OP_LLVM_entry_value 1] $r8d
	#DEBUG_VALUE: intra4x4_pred_normal:img_block_y <- [DW_OP_LLVM_entry_value 1] $r9d
	#DEBUG_VALUE: intra4x4_pred_normal:p_Vid <- $rbx
	#DEBUG_VALUE: intra4x4_diag_down_left_pred:pix_c <- [DW_OP_plus_uconst 24, DW_OP_deref] $rsp
	#DEBUG_VALUE: intra4x4_diag_down_left_pred:currMB <- $r13
	#DEBUG_VALUE: intra4x4_diag_down_left_pred:pl <- [DW_OP_plus_uconst 40, DW_OP_deref] $rsp
	#DEBUG_VALUE: intra4x4_diag_down_left_pred:ioff <- $r12d
	#DEBUG_VALUE: intra4x4_diag_down_left_pred:joff <- $r15d
	#DEBUG_VALUE: intra4x4_diag_down_left_pred:currSlice <- [DW_OP_plus_uconst 16, DW_OP_deref] $rsp
	#DEBUG_VALUE: intra4x4_diag_down_left_pred:p_Vid <- $rbx
	.loc	0 379 61 is_stmt 0              # ldecod_src/intra4x4_pred_normal.c:379:61
	movq	13544(%rdi), %rax
	.loc	0 379 80                        # ldecod_src/intra4x4_pred_normal.c:379:80
	movslq	4(%rsp), %rdx
	.loc	0 379 50                        # ldecod_src/intra4x4_pred_normal.c:379:50
	movsbl	(%rax,%rdx), %eax
.Ltmp220:
.LBB0_72:                               # %cond.end.i161
	#DEBUG_VALUE: intra4x4_pred_normal:currMB <- $r13
	#DEBUG_VALUE: intra4x4_pred_normal:pl <- [DW_OP_plus_uconst 40] [$rsp+0]
	#DEBUG_VALUE: intra4x4_pred_normal:ioff <- $r12d
	#DEBUG_VALUE: intra4x4_pred_normal:joff <- $r15d
	#DEBUG_VALUE: intra4x4_pred_normal:img_block_x <- [DW_OP_LLVM_entry_value 1] $r8d
	#DEBUG_VALUE: intra4x4_pred_normal:img_block_y <- [DW_OP_LLVM_entry_value 1] $r9d
	#DEBUG_VALUE: intra4x4_pred_normal:p_Vid <- $rbx
	#DEBUG_VALUE: intra4x4_diag_down_left_pred:pix_c <- [DW_OP_plus_uconst 24, DW_OP_deref] $rsp
	#DEBUG_VALUE: intra4x4_diag_down_left_pred:currMB <- $r13
	#DEBUG_VALUE: intra4x4_diag_down_left_pred:pl <- [DW_OP_plus_uconst 40, DW_OP_deref] $rsp
	#DEBUG_VALUE: intra4x4_diag_down_left_pred:ioff <- $r12d
	#DEBUG_VALUE: intra4x4_diag_down_left_pred:joff <- $r15d
	#DEBUG_VALUE: intra4x4_diag_down_left_pred:currSlice <- [DW_OP_plus_uconst 16, DW_OP_deref] $rsp
	#DEBUG_VALUE: intra4x4_diag_down_left_pred:p_Vid <- $rbx
	#DEBUG_VALUE: intra4x4_diag_down_left_pred:block_available_up <- $eax
	.loc	0 380 32 is_stmt 1              # ldecod_src/intra4x4_pred_normal.c:380:32
	testl	%ecx, %ecx
	je	.LBB0_116
.Ltmp221:
# %bb.73:                               # %cond.true18.i164
	#DEBUG_VALUE: intra4x4_pred_normal:currMB <- $r13
	#DEBUG_VALUE: intra4x4_pred_normal:pl <- [DW_OP_plus_uconst 40] [$rsp+0]
	#DEBUG_VALUE: intra4x4_pred_normal:ioff <- $r12d
	#DEBUG_VALUE: intra4x4_pred_normal:joff <- $r15d
	#DEBUG_VALUE: intra4x4_pred_normal:img_block_x <- [DW_OP_LLVM_entry_value 1] $r8d
	#DEBUG_VALUE: intra4x4_pred_normal:img_block_y <- [DW_OP_LLVM_entry_value 1] $r9d
	#DEBUG_VALUE: intra4x4_pred_normal:p_Vid <- $rbx
	#DEBUG_VALUE: intra4x4_diag_down_left_pred:pix_c <- [DW_OP_plus_uconst 24, DW_OP_deref] $rsp
	#DEBUG_VALUE: intra4x4_diag_down_left_pred:currMB <- $r13
	#DEBUG_VALUE: intra4x4_diag_down_left_pred:pl <- [DW_OP_plus_uconst 40, DW_OP_deref] $rsp
	#DEBUG_VALUE: intra4x4_diag_down_left_pred:ioff <- $r12d
	#DEBUG_VALUE: intra4x4_diag_down_left_pred:joff <- $r15d
	#DEBUG_VALUE: intra4x4_diag_down_left_pred:currSlice <- [DW_OP_plus_uconst 16, DW_OP_deref] $rsp
	#DEBUG_VALUE: intra4x4_diag_down_left_pred:p_Vid <- $rbx
	#DEBUG_VALUE: intra4x4_diag_down_left_pred:block_available_up <- $eax
	.loc	0 380 61 is_stmt 0              # ldecod_src/intra4x4_pred_normal.c:380:61
	movq	13544(%rdi), %rcx
	.loc	0 380 80                        # ldecod_src/intra4x4_pred_normal.c:380:80
	movslq	28(%rsp), %rdx
	.loc	0 380 50                        # ldecod_src/intra4x4_pred_normal.c:380:50
	movsbl	(%rcx,%rdx), %ecx
.Ltmp222:
	#DEBUG_VALUE: intra4x4_diag_down_left_pred:block_available_up <- $eax
	#DEBUG_VALUE: intra4x4_diag_down_left_pred:block_available_up_right <- $ecx
	.loc	0 388 8 is_stmt 1               # ldecod_src/intra4x4_pred_normal.c:388:8
	testl	%eax, %eax
.Ltmp223:
	.loc	0 388 7 is_stmt 0               # ldecod_src/intra4x4_pred_normal.c:388:7
	je	.LBB0_117
.Ltmp224:
.LBB0_75:                               # %if.else31.i
	#DEBUG_VALUE: intra4x4_pred_normal:currMB <- $r13
	#DEBUG_VALUE: intra4x4_pred_normal:pl <- [DW_OP_plus_uconst 40] [$rsp+0]
	#DEBUG_VALUE: intra4x4_pred_normal:ioff <- $r12d
	#DEBUG_VALUE: intra4x4_pred_normal:joff <- $r15d
	#DEBUG_VALUE: intra4x4_pred_normal:img_block_x <- [DW_OP_LLVM_entry_value 1] $r8d
	#DEBUG_VALUE: intra4x4_pred_normal:img_block_y <- [DW_OP_LLVM_entry_value 1] $r9d
	#DEBUG_VALUE: intra4x4_pred_normal:p_Vid <- $rbx
	#DEBUG_VALUE: intra4x4_diag_down_left_pred:pix_c <- [DW_OP_plus_uconst 24, DW_OP_deref] $rsp
	#DEBUG_VALUE: intra4x4_diag_down_left_pred:currMB <- $r13
	#DEBUG_VALUE: intra4x4_diag_down_left_pred:pl <- [DW_OP_plus_uconst 40, DW_OP_deref] $rsp
	#DEBUG_VALUE: intra4x4_diag_down_left_pred:ioff <- $r12d
	#DEBUG_VALUE: intra4x4_diag_down_left_pred:joff <- $r15d
	#DEBUG_VALUE: intra4x4_diag_down_left_pred:currSlice <- [DW_OP_plus_uconst 16, DW_OP_deref] $rsp
	#DEBUG_VALUE: intra4x4_diag_down_left_pred:p_Vid <- $rbx
	#DEBUG_VALUE: intra4x4_diag_down_left_pred:block_available_up <- $eax
	#DEBUG_VALUE: intra4x4_diag_down_left_pred:block_available_up_right <- $ecx
	.loc	0 392 0 is_stmt 1               # ldecod_src/intra4x4_pred_normal.c:392:0
	movq	13520(%rdi), %rax
.Ltmp225:
	.loc	0 0 0 is_stmt 0                 # ldecod_src/intra4x4_pred_normal.c:0:0
	movq	%r12, %r14
	.loc	0 392 21                        # ldecod_src/intra4x4_pred_normal.c:392:21
	testl	%esi, %esi
	je	.LBB0_119
.Ltmp226:
# %bb.76:                               # %cond.true33.i
	#DEBUG_VALUE: intra4x4_pred_normal:currMB <- $r13
	#DEBUG_VALUE: intra4x4_pred_normal:pl <- [DW_OP_plus_uconst 40] [$rsp+0]
	#DEBUG_VALUE: intra4x4_pred_normal:ioff <- $r12d
	#DEBUG_VALUE: intra4x4_pred_normal:joff <- $r15d
	#DEBUG_VALUE: intra4x4_pred_normal:img_block_x <- [DW_OP_LLVM_entry_value 1] $r8d
	#DEBUG_VALUE: intra4x4_pred_normal:img_block_y <- [DW_OP_LLVM_entry_value 1] $r9d
	#DEBUG_VALUE: intra4x4_pred_normal:p_Vid <- $rbx
	#DEBUG_VALUE: intra4x4_diag_down_left_pred:pix_c <- [DW_OP_plus_uconst 24, DW_OP_deref] $rsp
	#DEBUG_VALUE: intra4x4_diag_down_left_pred:currMB <- $r13
	#DEBUG_VALUE: intra4x4_diag_down_left_pred:pl <- [DW_OP_plus_uconst 40, DW_OP_deref] $rsp
	#DEBUG_VALUE: intra4x4_diag_down_left_pred:ioff <- $r12d
	#DEBUG_VALUE: intra4x4_diag_down_left_pred:joff <- $r15d
	#DEBUG_VALUE: intra4x4_diag_down_left_pred:currSlice <- [DW_OP_plus_uconst 16, DW_OP_deref] $rsp
	#DEBUG_VALUE: intra4x4_diag_down_left_pred:p_Vid <- $rbx
	#DEBUG_VALUE: intra4x4_diag_down_left_pred:block_available_up_right <- $ecx
	.loc	0 392 61                        # ldecod_src/intra4x4_pred_normal.c:392:61
	leal	-1(%rsi), %edx
	.loc	0 392 28                        # ldecod_src/intra4x4_pred_normal.c:392:28
	shlq	$3, %rdx
	addq	136(%rax), %rdx
	.loc	0 392 21                        # ldecod_src/intra4x4_pred_normal.c:392:21
	jmp	.LBB0_120
.Ltmp227:
.LBB0_74:
	#DEBUG_VALUE: intra4x4_pred_normal:currMB <- $r13
	#DEBUG_VALUE: intra4x4_pred_normal:pl <- [DW_OP_plus_uconst 40] [$rsp+0]
	#DEBUG_VALUE: intra4x4_pred_normal:ioff <- $r12d
	#DEBUG_VALUE: intra4x4_pred_normal:joff <- $r15d
	#DEBUG_VALUE: intra4x4_pred_normal:img_block_x <- [DW_OP_LLVM_entry_value 1] $r8d
	#DEBUG_VALUE: intra4x4_pred_normal:img_block_y <- [DW_OP_LLVM_entry_value 1] $r9d
	#DEBUG_VALUE: intra4x4_pred_normal:p_Vid <- $rbx
	#DEBUG_VALUE: intra4x4_diag_down_left_pred:pix_c <- [DW_OP_plus_uconst 24, DW_OP_deref] $rsp
	#DEBUG_VALUE: intra4x4_diag_down_left_pred:currMB <- $r13
	#DEBUG_VALUE: intra4x4_diag_down_left_pred:pl <- [DW_OP_plus_uconst 40, DW_OP_deref] $rsp
	#DEBUG_VALUE: intra4x4_diag_down_left_pred:ioff <- $r12d
	#DEBUG_VALUE: intra4x4_diag_down_left_pred:joff <- $r15d
	#DEBUG_VALUE: intra4x4_diag_down_left_pred:currSlice <- [DW_OP_plus_uconst 16, DW_OP_deref] $rsp
	#DEBUG_VALUE: intra4x4_diag_down_left_pred:p_Vid <- $rbx
	.loc	0 0 21                          # ldecod_src/intra4x4_pred_normal.c:0:21
	movq	16(%rsp), %rdi                  # 8-byte Reload
.Ltmp228:
	#DEBUG_VALUE: intra4x4_diag_down_left_pred:block_available_up <- $eax
	#DEBUG_VALUE: intra4x4_diag_down_left_pred:block_available_up_right <- $ecx
	.loc	0 388 8 is_stmt 1               # ldecod_src/intra4x4_pred_normal.c:388:8
	testl	%eax, %eax
.Ltmp229:
	.loc	0 388 7 is_stmt 0               # ldecod_src/intra4x4_pred_normal.c:388:7
	jne	.LBB0_75
.Ltmp230:
.LBB0_117:                              # %if.then30.i
	#DEBUG_VALUE: intra4x4_pred_normal:currMB <- $r13
	#DEBUG_VALUE: intra4x4_pred_normal:pl <- [DW_OP_plus_uconst 40] [$rsp+0]
	#DEBUG_VALUE: intra4x4_pred_normal:ioff <- $r12d
	#DEBUG_VALUE: intra4x4_pred_normal:joff <- $r15d
	#DEBUG_VALUE: intra4x4_pred_normal:img_block_x <- [DW_OP_LLVM_entry_value 1] $r8d
	#DEBUG_VALUE: intra4x4_pred_normal:img_block_y <- [DW_OP_LLVM_entry_value 1] $r9d
	#DEBUG_VALUE: intra4x4_pred_normal:p_Vid <- $rbx
	#DEBUG_VALUE: intra4x4_diag_down_left_pred:pix_c <- [DW_OP_plus_uconst 24, DW_OP_deref] $rsp
	#DEBUG_VALUE: intra4x4_diag_down_left_pred:currMB <- $r13
	#DEBUG_VALUE: intra4x4_diag_down_left_pred:pl <- [DW_OP_plus_uconst 40, DW_OP_deref] $rsp
	#DEBUG_VALUE: intra4x4_diag_down_left_pred:ioff <- $r12d
	#DEBUG_VALUE: intra4x4_diag_down_left_pred:joff <- $r15d
	#DEBUG_VALUE: intra4x4_diag_down_left_pred:currSlice <- [DW_OP_plus_uconst 16, DW_OP_deref] $rsp
	#DEBUG_VALUE: intra4x4_diag_down_left_pred:p_Vid <- $rbx
	#DEBUG_VALUE: intra4x4_diag_down_left_pred:block_available_up <- $eax
	#DEBUG_VALUE: intra4x4_diag_down_left_pred:block_available_up_right <- $ecx
	.loc	0 389 110 is_stmt 1             # ldecod_src/intra4x4_pred_normal.c:389:110
	movl	108(%rdi), %esi
	.loc	0 389 5 is_stmt 0               # ldecod_src/intra4x4_pred_normal.c:389:5
	movl	$.L.str.4, %edi
	jmp	.LBB0_118
.Ltmp231:
.LBB0_77:
	#DEBUG_VALUE: intra4x4_pred_normal:currMB <- $r12
	#DEBUG_VALUE: intra4x4_pred_normal:pl <- [DW_OP_plus_uconst 40] [$rsp+0]
	#DEBUG_VALUE: intra4x4_pred_normal:ioff <- $r13d
	#DEBUG_VALUE: intra4x4_pred_normal:joff <- $r15d
	#DEBUG_VALUE: intra4x4_pred_normal:img_block_x <- [DW_OP_LLVM_entry_value 1] $r8d
	#DEBUG_VALUE: intra4x4_pred_normal:img_block_y <- [DW_OP_LLVM_entry_value 1] $r9d
	#DEBUG_VALUE: intra4x4_pred_normal:p_Vid <- $rbx
	#DEBUG_VALUE: intra4x4_vert_left_pred:pix_c <- [DW_OP_plus_uconst 24, DW_OP_deref] $rsp
	#DEBUG_VALUE: intra4x4_vert_left_pred:currMB <- $r12
	#DEBUG_VALUE: intra4x4_vert_left_pred:pl <- [DW_OP_plus_uconst 40, DW_OP_deref] $rsp
	#DEBUG_VALUE: intra4x4_vert_left_pred:ioff <- $r13d
	#DEBUG_VALUE: intra4x4_vert_left_pred:joff <- $r15d
	#DEBUG_VALUE: intra4x4_vert_left_pred:currSlice <- [DW_OP_plus_uconst 16, DW_OP_deref] $rsp
	#DEBUG_VALUE: intra4x4_vert_left_pred:p_Vid <- $rbx
	.loc	0 0 5                           # ldecod_src/intra4x4_pred_normal.c:0:5
	movq	%r15, %r12
.Ltmp232:
	#DEBUG_VALUE: intra4x4_pred_normal:currMB <- [DW_OP_LLVM_entry_value 1] $rdi
	xorl	%ebp, %ebp
.Ltmp233:
.LBB0_78:                               # %land.end10.i272
	#DEBUG_VALUE: intra4x4_pred_normal:currMB <- [DW_OP_LLVM_entry_value 1] $rdi
	#DEBUG_VALUE: intra4x4_pred_normal:pl <- [DW_OP_plus_uconst 40] [$rsp+0]
	#DEBUG_VALUE: intra4x4_pred_normal:ioff <- $r13d
	#DEBUG_VALUE: intra4x4_pred_normal:joff <- $r15d
	#DEBUG_VALUE: intra4x4_pred_normal:img_block_x <- [DW_OP_LLVM_entry_value 1] $r8d
	#DEBUG_VALUE: intra4x4_pred_normal:img_block_y <- [DW_OP_LLVM_entry_value 1] $r9d
	#DEBUG_VALUE: intra4x4_pred_normal:p_Vid <- $rbx
	#DEBUG_VALUE: intra4x4_vert_left_pred:pix_c <- [DW_OP_plus_uconst 24, DW_OP_deref] $rsp
	#DEBUG_VALUE: intra4x4_vert_left_pred:pl <- [DW_OP_plus_uconst 40, DW_OP_deref] $rsp
	#DEBUG_VALUE: intra4x4_vert_left_pred:ioff <- $r13d
	#DEBUG_VALUE: intra4x4_vert_left_pred:joff <- $r15d
	#DEBUG_VALUE: intra4x4_vert_left_pred:currSlice <- [DW_OP_plus_uconst 16, DW_OP_deref] $rsp
	#DEBUG_VALUE: intra4x4_vert_left_pred:p_Vid <- $rbx
	.loc	0 546 19 is_stmt 1              # ldecod_src/intra4x4_pred_normal.c:546:19
	movl	%ebp, 24(%rsp)
	#DEBUG_VALUE: intra4x4_vert_left_pred:pix_c <- [DW_OP_plus_uconst 24, DW_OP_deref] $rsp
.Ltmp234:
	.loc	0 548 14                        # ldecod_src/intra4x4_pred_normal.c:548:14
	movq	8(%rbx), %rax
	.loc	0 548 7 is_stmt 0               # ldecod_src/intra4x4_pred_normal.c:548:7
	cmpl	$0, 2204(%rax)
	.loc	0 0 0                           # ldecod_src/intra4x4_pred_normal.c:0:0
	movl	(%rsp), %eax
	movq	40(%rsp), %rbx                  # 8-byte Reload
.Ltmp235:
	movq	16(%rsp), %r14                  # 8-byte Reload
.Ltmp236:
	.loc	0 548 7                         # ldecod_src/intra4x4_pred_normal.c:548:7
	je	.LBB0_83
.Ltmp237:
# %bb.79:                               # %if.then.i277
	#DEBUG_VALUE: intra4x4_pred_normal:currMB <- [DW_OP_LLVM_entry_value 1] $rdi
	#DEBUG_VALUE: intra4x4_pred_normal:pl <- [DW_OP_plus_uconst 40] [$rsp+0]
	#DEBUG_VALUE: intra4x4_pred_normal:ioff <- $r13d
	#DEBUG_VALUE: intra4x4_pred_normal:joff <- $r15d
	#DEBUG_VALUE: intra4x4_pred_normal:img_block_x <- [DW_OP_LLVM_entry_value 1] $r8d
	#DEBUG_VALUE: intra4x4_pred_normal:img_block_y <- [DW_OP_LLVM_entry_value 1] $r9d
	#DEBUG_VALUE: intra4x4_vert_left_pred:pix_c <- [DW_OP_plus_uconst 24, DW_OP_deref] $rsp
	#DEBUG_VALUE: intra4x4_vert_left_pred:pl <- [DW_OP_plus_uconst 40, DW_OP_deref] $rsp
	#DEBUG_VALUE: intra4x4_vert_left_pred:ioff <- $r13d
	#DEBUG_VALUE: intra4x4_vert_left_pred:joff <- $r15d
	#DEBUG_VALUE: intra4x4_vert_left_pred:currSlice <- [DW_OP_plus_uconst 16, DW_OP_deref] $rsp
	.loc	0 550 32 is_stmt 1              # ldecod_src/intra4x4_pred_normal.c:550:32
	testl	%eax, %eax
	movl	$0, %eax
	je	.LBB0_81
.Ltmp238:
# %bb.80:                               # %cond.true.i279
	#DEBUG_VALUE: intra4x4_pred_normal:currMB <- [DW_OP_LLVM_entry_value 1] $rdi
	#DEBUG_VALUE: intra4x4_pred_normal:pl <- [DW_OP_plus_uconst 40] [$rsp+0]
	#DEBUG_VALUE: intra4x4_pred_normal:ioff <- $r13d
	#DEBUG_VALUE: intra4x4_pred_normal:joff <- $r15d
	#DEBUG_VALUE: intra4x4_pred_normal:img_block_x <- [DW_OP_LLVM_entry_value 1] $r8d
	#DEBUG_VALUE: intra4x4_pred_normal:img_block_y <- [DW_OP_LLVM_entry_value 1] $r9d
	#DEBUG_VALUE: intra4x4_vert_left_pred:pix_c <- [DW_OP_plus_uconst 24, DW_OP_deref] $rsp
	#DEBUG_VALUE: intra4x4_vert_left_pred:pl <- [DW_OP_plus_uconst 40, DW_OP_deref] $rsp
	#DEBUG_VALUE: intra4x4_vert_left_pred:ioff <- $r13d
	#DEBUG_VALUE: intra4x4_vert_left_pred:joff <- $r15d
	#DEBUG_VALUE: intra4x4_vert_left_pred:currSlice <- [DW_OP_plus_uconst 16, DW_OP_deref] $rsp
	.loc	0 550 61 is_stmt 0              # ldecod_src/intra4x4_pred_normal.c:550:61
	movq	13544(%r14), %rax
	.loc	0 550 80                        # ldecod_src/intra4x4_pred_normal.c:550:80
	movslq	4(%rsp), %rcx
	.loc	0 550 50                        # ldecod_src/intra4x4_pred_normal.c:550:50
	movsbl	(%rax,%rcx), %eax
.Ltmp239:
.LBB0_81:                               # %cond.end.i285
	#DEBUG_VALUE: intra4x4_pred_normal:currMB <- [DW_OP_LLVM_entry_value 1] $rdi
	#DEBUG_VALUE: intra4x4_pred_normal:pl <- [DW_OP_plus_uconst 40] [$rsp+0]
	#DEBUG_VALUE: intra4x4_pred_normal:ioff <- $r13d
	#DEBUG_VALUE: intra4x4_pred_normal:joff <- $r15d
	#DEBUG_VALUE: intra4x4_pred_normal:img_block_x <- [DW_OP_LLVM_entry_value 1] $r8d
	#DEBUG_VALUE: intra4x4_pred_normal:img_block_y <- [DW_OP_LLVM_entry_value 1] $r9d
	#DEBUG_VALUE: intra4x4_vert_left_pred:pix_c <- [DW_OP_plus_uconst 24, DW_OP_deref] $rsp
	#DEBUG_VALUE: intra4x4_vert_left_pred:pl <- [DW_OP_plus_uconst 40, DW_OP_deref] $rsp
	#DEBUG_VALUE: intra4x4_vert_left_pred:ioff <- $r13d
	#DEBUG_VALUE: intra4x4_vert_left_pred:joff <- $r15d
	#DEBUG_VALUE: intra4x4_vert_left_pred:currSlice <- [DW_OP_plus_uconst 16, DW_OP_deref] $rsp
	#DEBUG_VALUE: intra4x4_vert_left_pred:block_available_up <- $eax
	.loc	0 551 32 is_stmt 1              # ldecod_src/intra4x4_pred_normal.c:551:32
	testl	%ebp, %ebp
	je	.LBB0_123
.Ltmp240:
# %bb.82:                               # %cond.true18.i288
	#DEBUG_VALUE: intra4x4_pred_normal:currMB <- [DW_OP_LLVM_entry_value 1] $rdi
	#DEBUG_VALUE: intra4x4_pred_normal:pl <- [DW_OP_plus_uconst 40] [$rsp+0]
	#DEBUG_VALUE: intra4x4_pred_normal:ioff <- $r13d
	#DEBUG_VALUE: intra4x4_pred_normal:joff <- $r15d
	#DEBUG_VALUE: intra4x4_pred_normal:img_block_x <- [DW_OP_LLVM_entry_value 1] $r8d
	#DEBUG_VALUE: intra4x4_pred_normal:img_block_y <- [DW_OP_LLVM_entry_value 1] $r9d
	#DEBUG_VALUE: intra4x4_vert_left_pred:pix_c <- [DW_OP_plus_uconst 24, DW_OP_deref] $rsp
	#DEBUG_VALUE: intra4x4_vert_left_pred:pl <- [DW_OP_plus_uconst 40, DW_OP_deref] $rsp
	#DEBUG_VALUE: intra4x4_vert_left_pred:ioff <- $r13d
	#DEBUG_VALUE: intra4x4_vert_left_pred:joff <- $r15d
	#DEBUG_VALUE: intra4x4_vert_left_pred:currSlice <- [DW_OP_plus_uconst 16, DW_OP_deref] $rsp
	#DEBUG_VALUE: intra4x4_vert_left_pred:block_available_up <- $eax
	.loc	0 551 61 is_stmt 0              # ldecod_src/intra4x4_pred_normal.c:551:61
	movq	13544(%r14), %rcx
	.loc	0 551 80                        # ldecod_src/intra4x4_pred_normal.c:551:80
	movslq	28(%rsp), %rdx
	.loc	0 551 50                        # ldecod_src/intra4x4_pred_normal.c:551:50
	movsbl	(%rcx,%rdx), %ebp
.Ltmp241:
.LBB0_83:                               # %if.end.i294
	#DEBUG_VALUE: intra4x4_pred_normal:currMB <- [DW_OP_LLVM_entry_value 1] $rdi
	#DEBUG_VALUE: intra4x4_pred_normal:pl <- [DW_OP_plus_uconst 40] [$rsp+0]
	#DEBUG_VALUE: intra4x4_pred_normal:ioff <- $r13d
	#DEBUG_VALUE: intra4x4_pred_normal:joff <- $r15d
	#DEBUG_VALUE: intra4x4_pred_normal:img_block_x <- [DW_OP_LLVM_entry_value 1] $r8d
	#DEBUG_VALUE: intra4x4_pred_normal:img_block_y <- [DW_OP_LLVM_entry_value 1] $r9d
	#DEBUG_VALUE: intra4x4_vert_left_pred:pix_c <- [DW_OP_plus_uconst 24, DW_OP_deref] $rsp
	#DEBUG_VALUE: intra4x4_vert_left_pred:pl <- [DW_OP_plus_uconst 40, DW_OP_deref] $rsp
	#DEBUG_VALUE: intra4x4_vert_left_pred:ioff <- $r13d
	#DEBUG_VALUE: intra4x4_vert_left_pred:joff <- $r15d
	#DEBUG_VALUE: intra4x4_vert_left_pred:currSlice <- [DW_OP_plus_uconst 16, DW_OP_deref] $rsp
	#DEBUG_VALUE: intra4x4_vert_left_pred:block_available_up <- $eax
	#DEBUG_VALUE: intra4x4_vert_left_pred:block_available_up_right <- $ebp
	.loc	0 560 8 is_stmt 1               # ldecod_src/intra4x4_pred_normal.c:560:8
	testl	%eax, %eax
.Ltmp242:
	.loc	0 560 7 is_stmt 0               # ldecod_src/intra4x4_pred_normal.c:560:7
	jne	.LBB0_85
.Ltmp243:
.LBB0_84:                               # %if.then30.i356
	#DEBUG_VALUE: intra4x4_pred_normal:currMB <- [DW_OP_LLVM_entry_value 1] $rdi
	#DEBUG_VALUE: intra4x4_pred_normal:pl <- [DW_OP_plus_uconst 40] [$rsp+0]
	#DEBUG_VALUE: intra4x4_pred_normal:ioff <- $r13d
	#DEBUG_VALUE: intra4x4_pred_normal:joff <- $r15d
	#DEBUG_VALUE: intra4x4_pred_normal:img_block_x <- [DW_OP_LLVM_entry_value 1] $r8d
	#DEBUG_VALUE: intra4x4_pred_normal:img_block_y <- [DW_OP_LLVM_entry_value 1] $r9d
	#DEBUG_VALUE: intra4x4_vert_left_pred:pix_c <- [DW_OP_plus_uconst 24, DW_OP_deref] $rsp
	#DEBUG_VALUE: intra4x4_vert_left_pred:pl <- [DW_OP_plus_uconst 40, DW_OP_deref] $rsp
	#DEBUG_VALUE: intra4x4_vert_left_pred:ioff <- $r13d
	#DEBUG_VALUE: intra4x4_vert_left_pred:joff <- $r15d
	#DEBUG_VALUE: intra4x4_vert_left_pred:currSlice <- [DW_OP_plus_uconst 16, DW_OP_deref] $rsp
	#DEBUG_VALUE: intra4x4_vert_left_pred:block_available_up <- $eax
	#DEBUG_VALUE: intra4x4_vert_left_pred:block_available_up_right <- $ebp
	.loc	0 561 105 is_stmt 1             # ldecod_src/intra4x4_pred_normal.c:561:105
	movl	108(%r14), %esi
	.loc	0 561 5 is_stmt 0               # ldecod_src/intra4x4_pred_normal.c:561:5
	movl	$.L.str.6, %edi
	xorl	%eax, %eax
.Ltmp244:
	callq	printf@PLT
.Ltmp245:
.LBB0_85:                               # %if.end31.i
	#DEBUG_VALUE: intra4x4_pred_normal:currMB <- [DW_OP_LLVM_entry_value 1] $rdi
	#DEBUG_VALUE: intra4x4_pred_normal:pl <- [DW_OP_plus_uconst 40] [$rsp+0]
	#DEBUG_VALUE: intra4x4_pred_normal:ioff <- $r13d
	#DEBUG_VALUE: intra4x4_pred_normal:joff <- $r15d
	#DEBUG_VALUE: intra4x4_pred_normal:img_block_x <- [DW_OP_LLVM_entry_value 1] $r8d
	#DEBUG_VALUE: intra4x4_pred_normal:img_block_y <- [DW_OP_LLVM_entry_value 1] $r9d
	#DEBUG_VALUE: intra4x4_vert_left_pred:pix_c <- [DW_OP_plus_uconst 24, DW_OP_deref] $rsp
	#DEBUG_VALUE: intra4x4_vert_left_pred:pl <- [DW_OP_plus_uconst 40, DW_OP_deref] $rsp
	#DEBUG_VALUE: intra4x4_vert_left_pred:ioff <- $r13d
	#DEBUG_VALUE: intra4x4_vert_left_pred:joff <- $r15d
	#DEBUG_VALUE: intra4x4_vert_left_pred:currSlice <- [DW_OP_plus_uconst 16, DW_OP_deref] $rsp
	#DEBUG_VALUE: intra4x4_vert_left_pred:block_available_up_right <- $ebp
	.loc	0 564 0 is_stmt 1               # ldecod_src/intra4x4_pred_normal.c:564:0
	movq	13520(%r14), %rax
	.loc	0 564 21 is_stmt 0              # ldecod_src/intra4x4_pred_normal.c:564:21
	testl	%ebx, %ebx
	je	.LBB0_87
.Ltmp246:
# %bb.86:                               # %cond.true33.i300
	#DEBUG_VALUE: intra4x4_pred_normal:currMB <- [DW_OP_LLVM_entry_value 1] $rdi
	#DEBUG_VALUE: intra4x4_pred_normal:pl <- [DW_OP_plus_uconst 40] [$rsp+0]
	#DEBUG_VALUE: intra4x4_pred_normal:ioff <- $r13d
	#DEBUG_VALUE: intra4x4_pred_normal:joff <- $r15d
	#DEBUG_VALUE: intra4x4_pred_normal:img_block_x <- [DW_OP_LLVM_entry_value 1] $r8d
	#DEBUG_VALUE: intra4x4_pred_normal:img_block_y <- [DW_OP_LLVM_entry_value 1] $r9d
	#DEBUG_VALUE: intra4x4_vert_left_pred:pix_c <- [DW_OP_plus_uconst 24, DW_OP_deref] $rsp
	#DEBUG_VALUE: intra4x4_vert_left_pred:pl <- [DW_OP_plus_uconst 40, DW_OP_deref] $rsp
	#DEBUG_VALUE: intra4x4_vert_left_pred:ioff <- $r13d
	#DEBUG_VALUE: intra4x4_vert_left_pred:joff <- $r15d
	#DEBUG_VALUE: intra4x4_vert_left_pred:currSlice <- [DW_OP_plus_uconst 16, DW_OP_deref] $rsp
	#DEBUG_VALUE: intra4x4_vert_left_pred:block_available_up_right <- $ebp
	.loc	0 564 61                        # ldecod_src/intra4x4_pred_normal.c:564:61
	leal	-1(%rbx), %ecx
	.loc	0 564 28                        # ldecod_src/intra4x4_pred_normal.c:564:28
	shlq	$3, %rcx
	addq	136(%rax), %rcx
	.loc	0 564 21                        # ldecod_src/intra4x4_pred_normal.c:564:21
	jmp	.LBB0_88
.Ltmp247:
.LBB0_87:                               # %cond.false37.i354
	#DEBUG_VALUE: intra4x4_pred_normal:currMB <- [DW_OP_LLVM_entry_value 1] $rdi
	#DEBUG_VALUE: intra4x4_pred_normal:pl <- [DW_OP_plus_uconst 40] [$rsp+0]
	#DEBUG_VALUE: intra4x4_pred_normal:ioff <- $r13d
	#DEBUG_VALUE: intra4x4_pred_normal:joff <- $r15d
	#DEBUG_VALUE: intra4x4_pred_normal:img_block_x <- [DW_OP_LLVM_entry_value 1] $r8d
	#DEBUG_VALUE: intra4x4_pred_normal:img_block_y <- [DW_OP_LLVM_entry_value 1] $r9d
	#DEBUG_VALUE: intra4x4_vert_left_pred:pix_c <- [DW_OP_plus_uconst 24, DW_OP_deref] $rsp
	#DEBUG_VALUE: intra4x4_vert_left_pred:pl <- [DW_OP_plus_uconst 40, DW_OP_deref] $rsp
	#DEBUG_VALUE: intra4x4_vert_left_pred:ioff <- $r13d
	#DEBUG_VALUE: intra4x4_vert_left_pred:joff <- $r15d
	#DEBUG_VALUE: intra4x4_vert_left_pred:currSlice <- [DW_OP_plus_uconst 16, DW_OP_deref] $rsp
	#DEBUG_VALUE: intra4x4_vert_left_pred:block_available_up_right <- $ebp
	.loc	0 564 92                        # ldecod_src/intra4x4_pred_normal.c:564:92
	subq	$-128, %rax
	movq	%rax, %rcx
.Ltmp248:
.LBB0_88:                               # %cond.end40.i305
	#DEBUG_VALUE: intra4x4_pred_normal:currMB <- [DW_OP_LLVM_entry_value 1] $rdi
	#DEBUG_VALUE: intra4x4_pred_normal:pl <- [DW_OP_plus_uconst 40] [$rsp+0]
	#DEBUG_VALUE: intra4x4_pred_normal:ioff <- $r13d
	#DEBUG_VALUE: intra4x4_pred_normal:joff <- $r15d
	#DEBUG_VALUE: intra4x4_pred_normal:img_block_x <- [DW_OP_LLVM_entry_value 1] $r8d
	#DEBUG_VALUE: intra4x4_pred_normal:img_block_y <- [DW_OP_LLVM_entry_value 1] $r9d
	#DEBUG_VALUE: intra4x4_vert_left_pred:pix_c <- [DW_OP_plus_uconst 24, DW_OP_deref] $rsp
	#DEBUG_VALUE: intra4x4_vert_left_pred:pl <- [DW_OP_plus_uconst 40, DW_OP_deref] $rsp
	#DEBUG_VALUE: intra4x4_vert_left_pred:ioff <- $r13d
	#DEBUG_VALUE: intra4x4_vert_left_pred:joff <- $r15d
	#DEBUG_VALUE: intra4x4_vert_left_pred:currSlice <- [DW_OP_plus_uconst 16, DW_OP_deref] $rsp
	#DEBUG_VALUE: intra4x4_vert_left_pred:block_available_up_right <- $ebp
	.loc	0 564 21                        # ldecod_src/intra4x4_pred_normal.c:564:21
	movq	(%rcx), %rdx
.Ltmp249:
	#DEBUG_VALUE: imgY <- $rdx
	.loc	0 565 35 is_stmt 1              # ldecod_src/intra4x4_pred_normal.c:565:35
	movq	1248(%r14), %rax
	.loc	0 565 24 is_stmt 0              # ldecod_src/intra4x4_pred_normal.c:565:24
	movl	%ebx, %ecx
	movq	(%rax,%rcx,8), %rax
.Ltmp250:
	#DEBUG_VALUE: mb_pred <- $rax
	.loc	0 566 36 is_stmt 1              # ldecod_src/intra4x4_pred_normal.c:566:36
	movswq	14(%rsp), %rcx
	.loc	0 566 25 is_stmt 0              # ldecod_src/intra4x4_pred_normal.c:566:25
	movq	(%rdx,%rcx,8), %rcx
	.loc	0 566 49                        # ldecod_src/intra4x4_pred_normal.c:566:49
	movswq	12(%rsp), %rdi
.Ltmp251:
	#DEBUG_VALUE: pred_pel <- undef
	.loc	0 569 18 is_stmt 1              # ldecod_src/intra4x4_pred_normal.c:569:18
	movzwl	(%rcx,%rdi,2), %ebx
.Ltmp252:
	#DEBUG_VALUE: p_a <- undef
	.loc	0 570 18                        # ldecod_src/intra4x4_pred_normal.c:570:18
	movzwl	2(%rcx,%rdi,2), %r10d
.Ltmp253:
	#DEBUG_VALUE: p_b <- undef
	.loc	0 571 18                        # ldecod_src/intra4x4_pred_normal.c:571:18
	movzwl	4(%rcx,%rdi,2), %esi
.Ltmp254:
	#DEBUG_VALUE: p_c <- undef
	.loc	0 572 18                        # ldecod_src/intra4x4_pred_normal.c:572:18
	movzwl	6(%rcx,%rdi,2), %r11d
	.loc	0 589 37                        # ldecod_src/intra4x4_pred_normal.c:589:37
	movzwl	%r11w, %ecx
.Ltmp255:
	#DEBUG_VALUE: p_d <- $r11w
	.loc	0 0 37 is_stmt 0                # ldecod_src/intra4x4_pred_normal.c:0:37
	movl	%r11d, %r15d
.Ltmp256:
	#DEBUG_VALUE: intra4x4_vert_left_pred:joff <- $r12d
	#DEBUG_VALUE: intra4x4_pred_normal:joff <- $r12d
	movl	%r11d, %edi
.Ltmp257:
	.loc	0 575 9 is_stmt 1               # ldecod_src/intra4x4_pred_normal.c:575:9
	testl	%ebp, %ebp
.Ltmp258:
	.loc	0 575 9 is_stmt 0               # ldecod_src/intra4x4_pred_normal.c:575:9
	je	.LBB0_90
.Ltmp259:
# %bb.89:                               # %if.then52.i321
	#DEBUG_VALUE: intra4x4_pred_normal:currMB <- [DW_OP_LLVM_entry_value 1] $rdi
	#DEBUG_VALUE: intra4x4_pred_normal:pl <- [DW_OP_plus_uconst 40] [$rsp+0]
	#DEBUG_VALUE: intra4x4_pred_normal:ioff <- $r13d
	#DEBUG_VALUE: intra4x4_pred_normal:joff <- $r12d
	#DEBUG_VALUE: intra4x4_pred_normal:img_block_x <- [DW_OP_LLVM_entry_value 1] $r8d
	#DEBUG_VALUE: intra4x4_pred_normal:img_block_y <- [DW_OP_LLVM_entry_value 1] $r9d
	#DEBUG_VALUE: intra4x4_vert_left_pred:pix_c <- [DW_OP_plus_uconst 24, DW_OP_deref] $rsp
	#DEBUG_VALUE: intra4x4_vert_left_pred:pl <- [DW_OP_plus_uconst 40, DW_OP_deref] $rsp
	#DEBUG_VALUE: intra4x4_vert_left_pred:ioff <- $r13d
	#DEBUG_VALUE: intra4x4_vert_left_pred:joff <- $r12d
	#DEBUG_VALUE: intra4x4_vert_left_pred:currSlice <- [DW_OP_plus_uconst 16, DW_OP_deref] $rsp
	#DEBUG_VALUE: intra4x4_vert_left_pred:block_available_up_right <- $ebp
	#DEBUG_VALUE: imgY <- $rdx
	#DEBUG_VALUE: mb_pred <- $rax
	#DEBUG_VALUE: p_d <- $r15w
	.loc	0 577 38 is_stmt 1              # ldecod_src/intra4x4_pred_normal.c:577:38
	movswq	38(%rsp), %rdi
	.loc	0 577 27 is_stmt 0              # ldecod_src/intra4x4_pred_normal.c:577:27
	movq	(%rdx,%rdi,8), %rdx
.Ltmp260:
	.loc	0 577 51                        # ldecod_src/intra4x4_pred_normal.c:577:51
	movswq	36(%rsp), %rdi
.Ltmp261:
	#DEBUG_VALUE: pred_pel <- undef
	.loc	0 578 13 is_stmt 1              # ldecod_src/intra4x4_pred_normal.c:578:13
	movzwl	(%rdx,%rdi,2), %r11d
.Ltmp262:
	#DEBUG_VALUE: p_e <- $r11w
	.loc	0 579 13                        # ldecod_src/intra4x4_pred_normal.c:579:13
	movzwl	2(%rdx,%rdi,2), %r15d
.Ltmp263:
	#DEBUG_VALUE: p_f <- $r15w
	.loc	0 580 13                        # ldecod_src/intra4x4_pred_normal.c:580:13
	movzwl	4(%rdx,%rdi,2), %edi
.Ltmp264:
	#DEBUG_VALUE: p_g <- $di
.LBB0_90:                               # %intra4x4_vert_left_pred.exit
	#DEBUG_VALUE: intra4x4_pred_normal:currMB <- [DW_OP_LLVM_entry_value 1] $rdi
	#DEBUG_VALUE: intra4x4_pred_normal:pl <- [DW_OP_plus_uconst 40] [$rsp+0]
	#DEBUG_VALUE: intra4x4_pred_normal:ioff <- $r13d
	#DEBUG_VALUE: intra4x4_pred_normal:joff <- $r12d
	#DEBUG_VALUE: intra4x4_pred_normal:img_block_x <- [DW_OP_LLVM_entry_value 1] $r8d
	#DEBUG_VALUE: intra4x4_pred_normal:img_block_y <- [DW_OP_LLVM_entry_value 1] $r9d
	#DEBUG_VALUE: intra4x4_vert_left_pred:pix_c <- [DW_OP_plus_uconst 24, DW_OP_deref] $rsp
	#DEBUG_VALUE: intra4x4_vert_left_pred:pl <- [DW_OP_plus_uconst 40, DW_OP_deref] $rsp
	#DEBUG_VALUE: intra4x4_vert_left_pred:ioff <- $r13d
	#DEBUG_VALUE: intra4x4_vert_left_pred:joff <- $r12d
	#DEBUG_VALUE: intra4x4_vert_left_pred:currSlice <- [DW_OP_plus_uconst 16, DW_OP_deref] $rsp
	#DEBUG_VALUE: intra4x4_vert_left_pred:block_available_up_right <- $ebp
	#DEBUG_VALUE: mb_pred <- $rax
	#DEBUG_VALUE: p_g <- $di
	#DEBUG_VALUE: p_f <- $r15w
	#DEBUG_VALUE: p_e <- $r11w
	.loc	0 587 46                        # ldecod_src/intra4x4_pred_normal.c:587:46
	leal	(%r10,%rbx), %r9d
	incl	%r9d
	shrl	%r9d
.Ltmp265:
	#DEBUG_VALUE: PredPixel <- [DW_OP_LLVM_fragment 0 16] $r9w
	.loc	0 588 46                        # ldecod_src/intra4x4_pred_normal.c:588:46
	leal	(%r10,%rsi), %edx
	incl	%edx
	shrl	%edx
.Ltmp266:
	#DEBUG_VALUE: PredPixel <- [DW_OP_LLVM_fragment 16 16] $dx
	.loc	0 589 46                        # ldecod_src/intra4x4_pred_normal.c:589:46
	leal	(%rcx,%rsi), %r8d
	incl	%r8d
	shrl	%r8d
.Ltmp267:
	#DEBUG_VALUE: PredPixel <- [DW_OP_LLVM_fragment 32 16] $r8w
	.loc	0 590 37                        # ldecod_src/intra4x4_pred_normal.c:590:37
	movzwl	%r11w, %r14d
	.loc	0 590 46 is_stmt 0              # ldecod_src/intra4x4_pred_normal.c:590:46
	leal	(%rcx,%r14), %r11d
.Ltmp268:
	incl	%r11d
	shrl	%r11d
.Ltmp269:
	#DEBUG_VALUE: PredPixel <- [DW_OP_LLVM_fragment 48 16] $r11w
	.loc	0 591 37 is_stmt 1              # ldecod_src/intra4x4_pred_normal.c:591:37
	movzwl	%r15w, %r15d
.Ltmp270:
	.loc	0 591 46 is_stmt 0              # ldecod_src/intra4x4_pred_normal.c:591:46
	leal	(%r14,%r15), %ebp
.Ltmp271:
	incl	%ebp
	shrl	%ebp
.Ltmp272:
	#DEBUG_VALUE: PredPixel <- [DW_OP_LLVM_fragment 64 16] $bp
	.loc	0 592 43 is_stmt 1              # ldecod_src/intra4x4_pred_normal.c:592:43
	leal	(%rbx,%r10,2), %ebx
	.loc	0 592 49 is_stmt 0              # ldecod_src/intra4x4_pred_normal.c:592:49
	addl	%esi, %ebx
	addl	$2, %ebx
	.loc	0 592 54                        # ldecod_src/intra4x4_pred_normal.c:592:54
	shrl	$2, %ebx
.Ltmp273:
	#DEBUG_VALUE: PredPixel <- [DW_OP_LLVM_fragment 80 16] $bx
	.loc	0 593 43 is_stmt 1              # ldecod_src/intra4x4_pred_normal.c:593:43
	leal	(%r10,%rsi,2), %r10d
	.loc	0 593 49 is_stmt 0              # ldecod_src/intra4x4_pred_normal.c:593:49
	addl	%ecx, %r10d
	addl	$2, %r10d
	.loc	0 593 54                        # ldecod_src/intra4x4_pred_normal.c:593:54
	shrl	$2, %r10d
.Ltmp274:
	#DEBUG_VALUE: PredPixel <- [DW_OP_LLVM_fragment 96 16] $r10w
	.loc	0 594 43 is_stmt 1              # ldecod_src/intra4x4_pred_normal.c:594:43
	leal	(%rsi,%rcx,2), %esi
	addl	$2, %esi
	.loc	0 594 49 is_stmt 0              # ldecod_src/intra4x4_pred_normal.c:594:49
	addl	%r14d, %esi
	.loc	0 594 54                        # ldecod_src/intra4x4_pred_normal.c:594:54
	shrl	$2, %esi
.Ltmp275:
	#DEBUG_VALUE: PredPixel <- [DW_OP_LLVM_fragment 112 16] $si
	.loc	0 595 43 is_stmt 1              # ldecod_src/intra4x4_pred_normal.c:595:43
	leal	(%rcx,%r14,2), %ecx
	addl	$2, %ecx
	.loc	0 595 49 is_stmt 0              # ldecod_src/intra4x4_pred_normal.c:595:49
	addl	%r15d, %ecx
	.loc	0 595 54                        # ldecod_src/intra4x4_pred_normal.c:595:54
	shrl	$2, %ecx
.Ltmp276:
	#DEBUG_VALUE: PredPixel <- [DW_OP_LLVM_fragment 128 16] $cx
	.loc	0 596 45 is_stmt 1              # ldecod_src/intra4x4_pred_normal.c:596:45
	movzwl	%di, %edi
.Ltmp277:
	.loc	0 596 35 is_stmt 0              # ldecod_src/intra4x4_pred_normal.c:596:35
	leal	(%r14,%r15,2), %r14d
	.loc	0 596 49                        # ldecod_src/intra4x4_pred_normal.c:596:49
	addl	%r14d, %edi
	addl	$2, %edi
	.loc	0 596 54                        # ldecod_src/intra4x4_pred_normal.c:596:54
	shrl	$2, %edi
.Ltmp278:
	#DEBUG_VALUE: PredPixel <- [DW_OP_LLVM_fragment 144 16] $di
	#DEBUG_VALUE: intra4x4_vert_left_pred:joff <- [DW_OP_plus_uconst 1, DW_OP_stack_value] $r12d
	.loc	0 598 13 is_stmt 1              # ldecod_src/intra4x4_pred_normal.c:598:13
	movslq	%r12d, %r14
	movq	(%rax,%r14,8), %r15
	movslq	%r13d, %r12
.Ltmp279:
	#DEBUG_VALUE: intra4x4_pred_normal:joff <- [DW_OP_LLVM_entry_value 1] $ecx
	.loc	0 598 5 is_stmt 0               # ldecod_src/intra4x4_pred_normal.c:598:5
	movw	%r9w, (%r15,%r12,2)
	movw	%dx, 2(%r15,%r12,2)
	movw	%r8w, 4(%r15,%r12,2)
	movw	%r11w, 6(%r15,%r12,2)
.Ltmp280:
	#DEBUG_VALUE: intra4x4_vert_left_pred:joff <- [DW_OP_plus_uconst 2, DW_OP_stack_value] undef
	.loc	0 599 13 is_stmt 1              # ldecod_src/intra4x4_pred_normal.c:599:13
	movq	8(%rax,%r14,8), %r9
.Ltmp281:
	.loc	0 599 5 is_stmt 0               # ldecod_src/intra4x4_pred_normal.c:599:5
	movw	%bx, (%r9,%r12,2)
	movw	%r10w, 2(%r9,%r12,2)
	movw	%si, 4(%r9,%r12,2)
	movw	%cx, 6(%r9,%r12,2)
.Ltmp282:
	#DEBUG_VALUE: intra4x4_vert_left_pred:joff <- [DW_OP_plus_uconst 3, DW_OP_stack_value] undef
	.loc	0 600 13 is_stmt 1              # ldecod_src/intra4x4_pred_normal.c:600:13
	movq	16(%rax,%r14,8), %r9
	.loc	0 600 5 is_stmt 0               # ldecod_src/intra4x4_pred_normal.c:600:5
	movw	%dx, (%r9,%r12,2)
	movw	%r8w, 2(%r9,%r12,2)
	movw	%r11w, 4(%r9,%r12,2)
	movw	%bp, 6(%r9,%r12,2)
	.loc	0 601 13 is_stmt 1              # ldecod_src/intra4x4_pred_normal.c:601:13
	movq	24(%rax,%r14,8), %rax
.Ltmp283:
	.loc	0 601 5 is_stmt 0               # ldecod_src/intra4x4_pred_normal.c:601:5
	movw	%r10w, (%rax,%r12,2)
	movw	%si, 2(%rax,%r12,2)
	movw	%cx, 4(%rax,%r12,2)
	movw	%di, 6(%rax,%r12,2)
	jmp	.LBB0_134
.Ltmp284:
.LBB0_91:                               # %if.else.i259
	#DEBUG_VALUE: intra4x4_pred_normal:currMB <- $r13
	#DEBUG_VALUE: intra4x4_pred_normal:pl <- [DW_OP_plus_uconst 40] [$rsp+0]
	#DEBUG_VALUE: intra4x4_pred_normal:ioff <- [DW_OP_plus_uconst 48] [$rsp+0]
	#DEBUG_VALUE: intra4x4_pred_normal:joff <- [DW_OP_plus_uconst 16] [$rsp+0]
	#DEBUG_VALUE: intra4x4_pred_normal:img_block_x <- [DW_OP_LLVM_entry_value 1] $r8d
	#DEBUG_VALUE: intra4x4_pred_normal:img_block_y <- [DW_OP_LLVM_entry_value 1] $r9d
	#DEBUG_VALUE: intra4x4_pred_normal:p_Vid <- $rbx
	#DEBUG_VALUE: intra4x4_vert_right_pred:pix_d <- [DW_OP_plus_uconst 64, DW_OP_deref] $rsp
	#DEBUG_VALUE: intra4x4_vert_right_pred:currMB <- $r13
	#DEBUG_VALUE: intra4x4_vert_right_pred:pl <- [DW_OP_plus_uconst 40, DW_OP_deref] $rsp
	#DEBUG_VALUE: intra4x4_vert_right_pred:ioff <- [DW_OP_plus_uconst 48, DW_OP_deref] $rsp
	#DEBUG_VALUE: intra4x4_vert_right_pred:joff <- [DW_OP_plus_uconst 16, DW_OP_deref] $rsp
	#DEBUG_VALUE: intra4x4_vert_right_pred:currSlice <- [DW_OP_plus_uconst 56, DW_OP_deref] $rsp
	#DEBUG_VALUE: intra4x4_vert_right_pred:p_Vid <- $rbx
	#DEBUG_VALUE: intra4x4_vert_right_pred:block_available_left <- $eax
	.loc	0 472 38 is_stmt 1              # ldecod_src/intra4x4_pred_normal.c:472:38
	movl	24(%rsp), %ecx
.Ltmp285:
	#DEBUG_VALUE: intra4x4_vert_right_pred:block_available_up <- $ecx
	.loc	0 473 38                        # ldecod_src/intra4x4_pred_normal.c:473:38
	movl	64(%rsp), %edx
.Ltmp286:
	#DEBUG_VALUE: intra4x4_vert_right_pred:block_available_up_left <- $edx
	.loc	0 0 38 is_stmt 0                # ldecod_src/intra4x4_pred_normal.c:0:38
	movq	48(%rsp), %r12                  # 8-byte Reload
	movq	16(%rsp), %r13                  # 8-byte Reload
.Ltmp287:
	movq	40(%rsp), %rbx                  # 8-byte Reload
.Ltmp288:
	movq	56(%rsp), %r14                  # 8-byte Reload
.Ltmp289:
.LBB0_92:                               # %if.end.i212
	#DEBUG_VALUE: intra4x4_pred_normal:currMB <- [DW_OP_LLVM_entry_value 1] $rdi
	#DEBUG_VALUE: intra4x4_pred_normal:pl <- [DW_OP_plus_uconst 40] [$rsp+0]
	#DEBUG_VALUE: intra4x4_pred_normal:ioff <- [DW_OP_plus_uconst 48] [$rsp+0]
	#DEBUG_VALUE: intra4x4_pred_normal:joff <- [DW_OP_plus_uconst 16] [$rsp+0]
	#DEBUG_VALUE: intra4x4_pred_normal:img_block_x <- [DW_OP_LLVM_entry_value 1] $r8d
	#DEBUG_VALUE: intra4x4_pred_normal:img_block_y <- [DW_OP_LLVM_entry_value 1] $r9d
	#DEBUG_VALUE: intra4x4_vert_right_pred:pix_d <- [DW_OP_plus_uconst 64, DW_OP_deref] $rsp
	#DEBUG_VALUE: intra4x4_vert_right_pred:pl <- [DW_OP_plus_uconst 40, DW_OP_deref] $rsp
	#DEBUG_VALUE: intra4x4_vert_right_pred:ioff <- [DW_OP_plus_uconst 48, DW_OP_deref] $rsp
	#DEBUG_VALUE: intra4x4_vert_right_pred:joff <- [DW_OP_plus_uconst 16, DW_OP_deref] $rsp
	#DEBUG_VALUE: intra4x4_vert_right_pred:currSlice <- [DW_OP_plus_uconst 56, DW_OP_deref] $rsp
	#DEBUG_VALUE: intra4x4_vert_right_pred:block_available_left <- $eax
	#DEBUG_VALUE: intra4x4_vert_right_pred:block_available_up <- $ecx
	#DEBUG_VALUE: intra4x4_vert_right_pred:block_available_up <- $ecx
	#DEBUG_VALUE: intra4x4_vert_right_pred:block_available_left <- $eax
	#DEBUG_VALUE: intra4x4_vert_right_pred:block_available_up_left <- $edx
	.loc	0 476 9 is_stmt 1               # ldecod_src/intra4x4_pred_normal.c:476:9
	testl	%ecx, %ecx
	.loc	0 476 28 is_stmt 0              # ldecod_src/intra4x4_pred_normal.c:476:28
	je	.LBB0_95
.Ltmp290:
# %bb.93:                               # %if.end.i212
	#DEBUG_VALUE: intra4x4_pred_normal:currMB <- [DW_OP_LLVM_entry_value 1] $rdi
	#DEBUG_VALUE: intra4x4_pred_normal:pl <- [DW_OP_plus_uconst 40] [$rsp+0]
	#DEBUG_VALUE: intra4x4_pred_normal:ioff <- [DW_OP_plus_uconst 48] [$rsp+0]
	#DEBUG_VALUE: intra4x4_pred_normal:joff <- [DW_OP_plus_uconst 16] [$rsp+0]
	#DEBUG_VALUE: intra4x4_pred_normal:img_block_x <- [DW_OP_LLVM_entry_value 1] $r8d
	#DEBUG_VALUE: intra4x4_pred_normal:img_block_y <- [DW_OP_LLVM_entry_value 1] $r9d
	#DEBUG_VALUE: intra4x4_vert_right_pred:pix_d <- [DW_OP_plus_uconst 64, DW_OP_deref] $rsp
	#DEBUG_VALUE: intra4x4_vert_right_pred:pl <- [DW_OP_plus_uconst 40, DW_OP_deref] $rsp
	#DEBUG_VALUE: intra4x4_vert_right_pred:ioff <- [DW_OP_plus_uconst 48, DW_OP_deref] $rsp
	#DEBUG_VALUE: intra4x4_vert_right_pred:joff <- [DW_OP_plus_uconst 16, DW_OP_deref] $rsp
	#DEBUG_VALUE: intra4x4_vert_right_pred:currSlice <- [DW_OP_plus_uconst 56, DW_OP_deref] $rsp
	#DEBUG_VALUE: intra4x4_vert_right_pred:block_available_left <- $eax
	#DEBUG_VALUE: intra4x4_vert_right_pred:block_available_up <- $ecx
	#DEBUG_VALUE: intra4x4_vert_right_pred:block_available_up_left <- $edx
	testl	%eax, %eax
	je	.LBB0_95
.Ltmp291:
# %bb.94:                               # %if.end.i212
	#DEBUG_VALUE: intra4x4_pred_normal:currMB <- [DW_OP_LLVM_entry_value 1] $rdi
	#DEBUG_VALUE: intra4x4_pred_normal:pl <- [DW_OP_plus_uconst 40] [$rsp+0]
	#DEBUG_VALUE: intra4x4_pred_normal:ioff <- [DW_OP_plus_uconst 48] [$rsp+0]
	#DEBUG_VALUE: intra4x4_pred_normal:joff <- [DW_OP_plus_uconst 16] [$rsp+0]
	#DEBUG_VALUE: intra4x4_pred_normal:img_block_x <- [DW_OP_LLVM_entry_value 1] $r8d
	#DEBUG_VALUE: intra4x4_pred_normal:img_block_y <- [DW_OP_LLVM_entry_value 1] $r9d
	#DEBUG_VALUE: intra4x4_vert_right_pred:pix_d <- [DW_OP_plus_uconst 64, DW_OP_deref] $rsp
	#DEBUG_VALUE: intra4x4_vert_right_pred:pl <- [DW_OP_plus_uconst 40, DW_OP_deref] $rsp
	#DEBUG_VALUE: intra4x4_vert_right_pred:ioff <- [DW_OP_plus_uconst 48, DW_OP_deref] $rsp
	#DEBUG_VALUE: intra4x4_vert_right_pred:joff <- [DW_OP_plus_uconst 16, DW_OP_deref] $rsp
	#DEBUG_VALUE: intra4x4_vert_right_pred:currSlice <- [DW_OP_plus_uconst 56, DW_OP_deref] $rsp
	#DEBUG_VALUE: intra4x4_vert_right_pred:block_available_left <- $eax
	#DEBUG_VALUE: intra4x4_vert_right_pred:block_available_up <- $ecx
	#DEBUG_VALUE: intra4x4_vert_right_pred:block_available_up_left <- $edx
	testl	%edx, %edx
	jne	.LBB0_96
.Ltmp292:
.LBB0_95:                               # %if.then42.i
	#DEBUG_VALUE: intra4x4_pred_normal:currMB <- [DW_OP_LLVM_entry_value 1] $rdi
	#DEBUG_VALUE: intra4x4_pred_normal:pl <- [DW_OP_plus_uconst 40] [$rsp+0]
	#DEBUG_VALUE: intra4x4_pred_normal:ioff <- [DW_OP_plus_uconst 48] [$rsp+0]
	#DEBUG_VALUE: intra4x4_pred_normal:joff <- [DW_OP_plus_uconst 16] [$rsp+0]
	#DEBUG_VALUE: intra4x4_pred_normal:img_block_x <- [DW_OP_LLVM_entry_value 1] $r8d
	#DEBUG_VALUE: intra4x4_pred_normal:img_block_y <- [DW_OP_LLVM_entry_value 1] $r9d
	#DEBUG_VALUE: intra4x4_vert_right_pred:pix_d <- [DW_OP_plus_uconst 64, DW_OP_deref] $rsp
	#DEBUG_VALUE: intra4x4_vert_right_pred:pl <- [DW_OP_plus_uconst 40, DW_OP_deref] $rsp
	#DEBUG_VALUE: intra4x4_vert_right_pred:ioff <- [DW_OP_plus_uconst 48, DW_OP_deref] $rsp
	#DEBUG_VALUE: intra4x4_vert_right_pred:joff <- [DW_OP_plus_uconst 16, DW_OP_deref] $rsp
	#DEBUG_VALUE: intra4x4_vert_right_pred:currSlice <- [DW_OP_plus_uconst 56, DW_OP_deref] $rsp
	#DEBUG_VALUE: intra4x4_vert_right_pred:block_available_left <- $eax
	#DEBUG_VALUE: intra4x4_vert_right_pred:block_available_up <- $ecx
	.loc	0 477 106 is_stmt 1             # ldecod_src/intra4x4_pred_normal.c:477:106
	movl	108(%r14), %esi
	.loc	0 477 5 is_stmt 0               # ldecod_src/intra4x4_pred_normal.c:477:5
	movl	$.L.str.5, %edi
	xorl	%eax, %eax
.Ltmp293:
	callq	printf@PLT
.Ltmp294:
.LBB0_96:                               # %if.end43.i
	#DEBUG_VALUE: intra4x4_pred_normal:currMB <- [DW_OP_LLVM_entry_value 1] $rdi
	#DEBUG_VALUE: intra4x4_pred_normal:pl <- [DW_OP_plus_uconst 40] [$rsp+0]
	#DEBUG_VALUE: intra4x4_pred_normal:ioff <- [DW_OP_plus_uconst 48] [$rsp+0]
	#DEBUG_VALUE: intra4x4_pred_normal:joff <- [DW_OP_plus_uconst 16] [$rsp+0]
	#DEBUG_VALUE: intra4x4_pred_normal:img_block_x <- [DW_OP_LLVM_entry_value 1] $r8d
	#DEBUG_VALUE: intra4x4_pred_normal:img_block_y <- [DW_OP_LLVM_entry_value 1] $r9d
	#DEBUG_VALUE: intra4x4_vert_right_pred:pix_d <- [DW_OP_plus_uconst 64, DW_OP_deref] $rsp
	#DEBUG_VALUE: intra4x4_vert_right_pred:pl <- [DW_OP_plus_uconst 40, DW_OP_deref] $rsp
	#DEBUG_VALUE: intra4x4_vert_right_pred:ioff <- [DW_OP_plus_uconst 48, DW_OP_deref] $rsp
	#DEBUG_VALUE: intra4x4_vert_right_pred:joff <- [DW_OP_plus_uconst 16, DW_OP_deref] $rsp
	#DEBUG_VALUE: intra4x4_vert_right_pred:currSlice <- [DW_OP_plus_uconst 56, DW_OP_deref] $rsp
	.loc	0 479 0 is_stmt 1               # ldecod_src/intra4x4_pred_normal.c:479:0
	movq	13520(%r14), %rax
	.loc	0 479 21 is_stmt 0              # ldecod_src/intra4x4_pred_normal.c:479:21
	testl	%ebx, %ebx
	je	.LBB0_98
.Ltmp295:
# %bb.97:                               # %cond.true45.i
	#DEBUG_VALUE: intra4x4_pred_normal:currMB <- [DW_OP_LLVM_entry_value 1] $rdi
	#DEBUG_VALUE: intra4x4_pred_normal:pl <- [DW_OP_plus_uconst 40] [$rsp+0]
	#DEBUG_VALUE: intra4x4_pred_normal:ioff <- [DW_OP_plus_uconst 48] [$rsp+0]
	#DEBUG_VALUE: intra4x4_pred_normal:joff <- [DW_OP_plus_uconst 16] [$rsp+0]
	#DEBUG_VALUE: intra4x4_pred_normal:img_block_x <- [DW_OP_LLVM_entry_value 1] $r8d
	#DEBUG_VALUE: intra4x4_pred_normal:img_block_y <- [DW_OP_LLVM_entry_value 1] $r9d
	#DEBUG_VALUE: intra4x4_vert_right_pred:pix_d <- [DW_OP_plus_uconst 64, DW_OP_deref] $rsp
	#DEBUG_VALUE: intra4x4_vert_right_pred:pl <- [DW_OP_plus_uconst 40, DW_OP_deref] $rsp
	#DEBUG_VALUE: intra4x4_vert_right_pred:ioff <- [DW_OP_plus_uconst 48, DW_OP_deref] $rsp
	#DEBUG_VALUE: intra4x4_vert_right_pred:joff <- [DW_OP_plus_uconst 16, DW_OP_deref] $rsp
	#DEBUG_VALUE: intra4x4_vert_right_pred:currSlice <- [DW_OP_plus_uconst 56, DW_OP_deref] $rsp
	.loc	0 479 61                        # ldecod_src/intra4x4_pred_normal.c:479:61
	leal	-1(%rbx), %ecx
	.loc	0 479 28                        # ldecod_src/intra4x4_pred_normal.c:479:28
	shlq	$3, %rcx
	addq	136(%rax), %rcx
	.loc	0 479 21                        # ldecod_src/intra4x4_pred_normal.c:479:21
	jmp	.LBB0_99
.Ltmp296:
.LBB0_98:                               # %cond.false49.i
	#DEBUG_VALUE: intra4x4_pred_normal:currMB <- [DW_OP_LLVM_entry_value 1] $rdi
	#DEBUG_VALUE: intra4x4_pred_normal:pl <- [DW_OP_plus_uconst 40] [$rsp+0]
	#DEBUG_VALUE: intra4x4_pred_normal:ioff <- [DW_OP_plus_uconst 48] [$rsp+0]
	#DEBUG_VALUE: intra4x4_pred_normal:joff <- [DW_OP_plus_uconst 16] [$rsp+0]
	#DEBUG_VALUE: intra4x4_pred_normal:img_block_x <- [DW_OP_LLVM_entry_value 1] $r8d
	#DEBUG_VALUE: intra4x4_pred_normal:img_block_y <- [DW_OP_LLVM_entry_value 1] $r9d
	#DEBUG_VALUE: intra4x4_vert_right_pred:pix_d <- [DW_OP_plus_uconst 64, DW_OP_deref] $rsp
	#DEBUG_VALUE: intra4x4_vert_right_pred:pl <- [DW_OP_plus_uconst 40, DW_OP_deref] $rsp
	#DEBUG_VALUE: intra4x4_vert_right_pred:ioff <- [DW_OP_plus_uconst 48, DW_OP_deref] $rsp
	#DEBUG_VALUE: intra4x4_vert_right_pred:joff <- [DW_OP_plus_uconst 16, DW_OP_deref] $rsp
	#DEBUG_VALUE: intra4x4_vert_right_pred:currSlice <- [DW_OP_plus_uconst 56, DW_OP_deref] $rsp
	.loc	0 479 92                        # ldecod_src/intra4x4_pred_normal.c:479:92
	subq	$-128, %rax
	movq	%rax, %rcx
.Ltmp297:
.LBB0_99:                               # %intra4x4_vert_right_pred.exit
	#DEBUG_VALUE: intra4x4_pred_normal:currMB <- [DW_OP_LLVM_entry_value 1] $rdi
	#DEBUG_VALUE: intra4x4_pred_normal:pl <- [DW_OP_plus_uconst 40] [$rsp+0]
	#DEBUG_VALUE: intra4x4_pred_normal:ioff <- [DW_OP_plus_uconst 48] [$rsp+0]
	#DEBUG_VALUE: intra4x4_pred_normal:joff <- [DW_OP_plus_uconst 16] [$rsp+0]
	#DEBUG_VALUE: intra4x4_pred_normal:img_block_x <- [DW_OP_LLVM_entry_value 1] $r8d
	#DEBUG_VALUE: intra4x4_pred_normal:img_block_y <- [DW_OP_LLVM_entry_value 1] $r9d
	#DEBUG_VALUE: intra4x4_vert_right_pred:pix_d <- [DW_OP_plus_uconst 64, DW_OP_deref] $rsp
	#DEBUG_VALUE: intra4x4_vert_right_pred:pl <- [DW_OP_plus_uconst 40, DW_OP_deref] $rsp
	#DEBUG_VALUE: intra4x4_vert_right_pred:ioff <- [DW_OP_plus_uconst 48, DW_OP_deref] $rsp
	#DEBUG_VALUE: intra4x4_vert_right_pred:joff <- [DW_OP_plus_uconst 16, DW_OP_deref] $rsp
	#DEBUG_VALUE: intra4x4_vert_right_pred:currSlice <- [DW_OP_plus_uconst 56, DW_OP_deref] $rsp
	.loc	0 479 21                        # ldecod_src/intra4x4_pred_normal.c:479:21
	movq	(%rcx), %r8
.Ltmp298:
	#DEBUG_VALUE: imgY <- $r8
	.loc	0 480 35 is_stmt 1              # ldecod_src/intra4x4_pred_normal.c:480:35
	movq	1248(%r14), %rax
	.loc	0 480 24 is_stmt 0              # ldecod_src/intra4x4_pred_normal.c:480:24
	movl	%ebx, %ecx
	movq	(%rax,%rcx,8), %rdi
.Ltmp299:
	#DEBUG_VALUE: mb_pred <- $rdi
	.loc	0 483 37 is_stmt 1              # ldecod_src/intra4x4_pred_normal.c:483:37
	movswq	14(%rsp), %rsi
.Ltmp300:
	#DEBUG_VALUE: img_pred <- undef
	.loc	0 484 23                        # ldecod_src/intra4x4_pred_normal.c:484:23
	movswq	12(%rsp), %rbx
.Ltmp301:
	#DEBUG_VALUE: pix_x <- undef
	.loc	0 485 36                        # ldecod_src/intra4x4_pred_normal.c:485:36
	movswq	38(%rsp), %rcx
	.loc	0 485 25 is_stmt 0              # ldecod_src/intra4x4_pred_normal.c:485:25
	movq	(%r8,%rcx,8), %rcx
	.loc	0 485 49                        # ldecod_src/intra4x4_pred_normal.c:485:49
	movswq	36(%rsp), %rdx
.Ltmp302:
	#DEBUG_VALUE: pred_pel <- undef
	.loc	0 487 18 is_stmt 1              # ldecod_src/intra4x4_pred_normal.c:487:18
	movzwl	(%rcx,%rdx,2), %r9d
.Ltmp303:
	#DEBUG_VALUE: p_a <- $r9d
	.loc	0 488 18                        # ldecod_src/intra4x4_pred_normal.c:488:18
	movzwl	2(%rcx,%rdx,2), %r10d
.Ltmp304:
	#DEBUG_VALUE: p_b <- $r10d
	.loc	0 489 18                        # ldecod_src/intra4x4_pred_normal.c:489:18
	movzwl	4(%rcx,%rdx,2), %r11d
.Ltmp305:
	#DEBUG_VALUE: p_c <- $r11d
	.loc	0 490 18                        # ldecod_src/intra4x4_pred_normal.c:490:18
	movzwl	6(%rcx,%rdx,2), %eax
.Ltmp306:
	#DEBUG_VALUE: p_d <- $eax
	.loc	0 492 20                        # ldecod_src/intra4x4_pred_normal.c:492:20
	movq	(%r8,%rsi,8), %rcx
.Ltmp307:
	#DEBUG_VALUE: p_i <- undef
	.loc	0 493 20                        # ldecod_src/intra4x4_pred_normal.c:493:20
	movq	8(%r8,%rsi,8), %rdx
	.loc	0 492 18                        # ldecod_src/intra4x4_pred_normal.c:492:18
	movzwl	(%rcx,%rbx,2), %ecx
	.loc	0 493 18                        # ldecod_src/intra4x4_pred_normal.c:493:18
	movzwl	(%rdx,%rbx,2), %edx
.Ltmp308:
	#DEBUG_VALUE: p_j <- undef
	.loc	0 0 18 is_stmt 0                # ldecod_src/intra4x4_pred_normal.c:0:18
	movq	%rdx, 16(%rsp)                  # 8-byte Spill
.Ltmp309:
	#DEBUG_VALUE: intra4x4_vert_right_pred:joff <- $r13d
	#DEBUG_VALUE: intra4x4_pred_normal:joff <- $r13d
	.loc	0 494 20 is_stmt 1              # ldecod_src/intra4x4_pred_normal.c:494:20
	movq	16(%r8,%rsi,8), %rsi
	.loc	0 494 18 is_stmt 0              # ldecod_src/intra4x4_pred_normal.c:494:18
	movzwl	(%rsi,%rbx,2), %esi
.Ltmp310:
	#DEBUG_VALUE: p_k <- undef
	.loc	0 496 29 is_stmt 1              # ldecod_src/intra4x4_pred_normal.c:496:29
	movswq	78(%rsp), %rbx
	.loc	0 496 18 is_stmt 0              # ldecod_src/intra4x4_pred_normal.c:496:18
	movq	(%r8,%rbx,8), %r8
.Ltmp311:
	.loc	0 496 42                        # ldecod_src/intra4x4_pred_normal.c:496:42
	movswq	76(%rsp), %rbx
	.loc	0 496 18                        # ldecod_src/intra4x4_pred_normal.c:496:18
	movzwl	(%r8,%rbx,2), %r8d
.Ltmp312:
	#DEBUG_VALUE: p_x <- $r8d
	#DEBUG_VALUE: PredPixel <- [DW_OP_LLVM_fragment 0 16] undef
	.loc	0 499 46 is_stmt 1              # ldecod_src/intra4x4_pred_normal.c:499:46
	leal	(%r9,%r8), %ebx
	incl	%ebx
	shrl	%ebx
.Ltmp313:
	#DEBUG_VALUE: PredPixel <- [DW_OP_LLVM_fragment 16 16] $bx
	.loc	0 500 46                        # ldecod_src/intra4x4_pred_normal.c:500:46
	leal	(%r9,%r10), %ebp
	incl	%ebp
	shrl	%ebp
.Ltmp314:
	#DEBUG_VALUE: PredPixel <- [DW_OP_LLVM_fragment 32 16] $bp
	.loc	0 501 46                        # ldecod_src/intra4x4_pred_normal.c:501:46
	leal	(%r11,%r10), %r14d
	incl	%r14d
	shrl	%r14d
.Ltmp315:
	#DEBUG_VALUE: PredPixel <- [DW_OP_LLVM_fragment 48 16] $r14w
	.loc	0 502 46                        # ldecod_src/intra4x4_pred_normal.c:502:46
	leal	(%r11,%rax), %r15d
	incl	%r15d
	movq	%rax, %rdx
	shrl	%r15d
.Ltmp316:
	#DEBUG_VALUE: PredPixel <- [DW_OP_LLVM_fragment 64 16] $r15w
	#DEBUG_VALUE: PredPixel <- [DW_OP_LLVM_fragment 80 16] undef
	#DEBUG_VALUE: PredPixel <- [DW_OP_LLVM_fragment 96 16] undef
	#DEBUG_VALUE: PredPixel <- [DW_OP_LLVM_fragment 112 16] undef
	#DEBUG_VALUE: PredPixel <- [DW_OP_LLVM_fragment 128 16] undef
	#DEBUG_VALUE: PredPixel <- [DW_OP_LLVM_fragment 144 16] undef
	#DEBUG_VALUE: intra4x4_vert_right_pred:joff <- [DW_OP_plus_uconst 1, DW_OP_stack_value] $r13d
	.loc	0 509 13                        # ldecod_src/intra4x4_pred_normal.c:509:13
	movslq	%r13d, %r13
.Ltmp317:
	#DEBUG_VALUE: intra4x4_pred_normal:joff <- [DW_OP_LLVM_entry_value 1] $ecx
	movslq	%r12d, %r12
	movq	(%rdi,%r13,8), %rax
.Ltmp318:
	#DEBUG_VALUE: p_d <- $edx
	.loc	0 509 5 is_stmt 0               # ldecod_src/intra4x4_pred_normal.c:509:5
	movw	%bx, (%rax,%r12,2)
	movw	%bp, 2(%rax,%r12,2)
	movw	%r14w, 4(%rax,%r12,2)
	movw	%r15w, 6(%rax,%r12,2)
.Ltmp319:
	#DEBUG_VALUE: intra4x4_vert_right_pred:joff <- [DW_OP_plus_uconst 2, DW_OP_stack_value] undef
	.loc	0 506 43 is_stmt 1              # ldecod_src/intra4x4_pred_normal.c:506:43
	leal	(%r9,%r10,2), %r15d
.Ltmp320:
	addl	$2, %r15d
	.loc	0 506 49 is_stmt 0              # ldecod_src/intra4x4_pred_normal.c:506:49
	addl	%r11d, %r15d
	.loc	0 507 43 is_stmt 1              # ldecod_src/intra4x4_pred_normal.c:507:43
	leal	(%r10,%r11,2), %eax
	addl	$2, %eax
	.loc	0 505 43                        # ldecod_src/intra4x4_pred_normal.c:505:43
	leal	(%r10,%r9,2), %r10d
.Ltmp321:
	addl	$2, %r10d
	.loc	0 504 43                        # ldecod_src/intra4x4_pred_normal.c:504:43
	addl	%ecx, %r9d
.Ltmp322:
	addl	$2, %r9d
	.loc	0 504 49 is_stmt 0              # ldecod_src/intra4x4_pred_normal.c:504:49
	leal	(%r9,%r8,2), %r9d
	.loc	0 504 54                        # ldecod_src/intra4x4_pred_normal.c:504:54
	shrl	$2, %r9d
.Ltmp323:
	#DEBUG_VALUE: PredPixel <- [DW_OP_LLVM_fragment 96 16] $r9w
	.loc	0 505 49 is_stmt 1              # ldecod_src/intra4x4_pred_normal.c:505:49
	addl	%r8d, %r10d
	.loc	0 505 54 is_stmt 0              # ldecod_src/intra4x4_pred_normal.c:505:54
	shrl	$2, %r10d
.Ltmp324:
	#DEBUG_VALUE: PredPixel <- [DW_OP_LLVM_fragment 112 16] $r10w
	.loc	0 506 54 is_stmt 1              # ldecod_src/intra4x4_pred_normal.c:506:54
	shrl	$2, %r15d
.Ltmp325:
	#DEBUG_VALUE: PredPixel <- [DW_OP_LLVM_fragment 128 16] $r15w
	.loc	0 507 49                        # ldecod_src/intra4x4_pred_normal.c:507:49
	addl	%edx, %eax
	.loc	0 507 54 is_stmt 0              # ldecod_src/intra4x4_pred_normal.c:507:54
	shrl	$2, %eax
.Ltmp326:
	#DEBUG_VALUE: PredPixel <- [DW_OP_LLVM_fragment 144 16] $ax
	.loc	0 510 13 is_stmt 1              # ldecod_src/intra4x4_pred_normal.c:510:13
	movq	8(%rdi,%r13,8), %r11
.Ltmp327:
	.loc	0 510 5 is_stmt 0               # ldecod_src/intra4x4_pred_normal.c:510:5
	movw	%r9w, (%r11,%r12,2)
	movw	%r10w, 2(%r11,%r12,2)
	movw	%r15w, 4(%r11,%r12,2)
	movw	%ax, 6(%r11,%r12,2)
.Ltmp328:
	#DEBUG_VALUE: intra4x4_vert_right_pred:joff <- [DW_OP_plus_uconst 3, DW_OP_stack_value] undef
	.loc	0 0 5                           # ldecod_src/intra4x4_pred_normal.c:0:5
	movq	16(%rsp), %rdx                  # 8-byte Reload
.Ltmp329:
	.loc	0 498 35 is_stmt 1              # ldecod_src/intra4x4_pred_normal.c:498:35
	leal	(%rdx,%rcx,2), %eax
.Ltmp330:
	.loc	0 498 49 is_stmt 0              # ldecod_src/intra4x4_pred_normal.c:498:49
	addl	%r8d, %eax
	addl	$2, %eax
	.loc	0 498 54                        # ldecod_src/intra4x4_pred_normal.c:498:54
	shrl	$2, %eax
.Ltmp331:
	#DEBUG_VALUE: PredPixel <- [DW_OP_LLVM_fragment 0 16] $ax
	.loc	0 511 13 is_stmt 1              # ldecod_src/intra4x4_pred_normal.c:511:13
	movq	16(%rdi,%r13,8), %r8
.Ltmp332:
	.loc	0 511 5 is_stmt 0               # ldecod_src/intra4x4_pred_normal.c:511:5
	movw	%ax, (%r8,%r12,2)
	movw	%bx, 2(%r8,%r12,2)
	movw	%bp, 4(%r8,%r12,2)
	movw	%r14w, 6(%r8,%r12,2)
	.loc	0 503 35 is_stmt 1              # ldecod_src/intra4x4_pred_normal.c:503:35
	leal	(%rcx,%rdx,2), %eax
.Ltmp333:
	.loc	0 503 49 is_stmt 0              # ldecod_src/intra4x4_pred_normal.c:503:49
	addl	%esi, %eax
	addl	$2, %eax
	.loc	0 512 13 is_stmt 1              # ldecod_src/intra4x4_pred_normal.c:512:13
	movq	24(%rdi,%r13,8), %rcx
	.loc	0 503 54                        # ldecod_src/intra4x4_pred_normal.c:503:54
	shrl	$2, %eax
.Ltmp334:
	#DEBUG_VALUE: PredPixel <- [DW_OP_LLVM_fragment 80 16] $ax
	.loc	0 512 5                         # ldecod_src/intra4x4_pred_normal.c:512:5
	movw	%ax, (%rcx,%r12,2)
	movw	%r9w, 2(%rcx,%r12,2)
	movw	%r10w, 4(%rcx,%r12,2)
	movw	%r15w, 6(%rcx,%r12,2)
	jmp	.LBB0_134
.Ltmp335:
.LBB0_100:                              # %if.else.i519
	#DEBUG_VALUE: intra4x4_pred_normal:currMB <- $r12
	#DEBUG_VALUE: intra4x4_pred_normal:pl <- [DW_OP_plus_uconst 40] [$rsp+0]
	#DEBUG_VALUE: intra4x4_pred_normal:ioff <- [DW_OP_plus_uconst 48] [$rsp+0]
	#DEBUG_VALUE: intra4x4_pred_normal:joff <- [DW_OP_plus_uconst 16] [$rsp+0]
	#DEBUG_VALUE: intra4x4_pred_normal:img_block_x <- [DW_OP_LLVM_entry_value 1] $r8d
	#DEBUG_VALUE: intra4x4_pred_normal:img_block_y <- [DW_OP_LLVM_entry_value 1] $r9d
	#DEBUG_VALUE: intra4x4_pred_normal:p_Vid <- $rbx
	#DEBUG_VALUE: intra4x4_hor_down_pred:pix_d <- [DW_OP_plus_uconst 64, DW_OP_deref] $rsp
	#DEBUG_VALUE: intra4x4_hor_down_pred:currMB <- $r12
	#DEBUG_VALUE: intra4x4_hor_down_pred:pl <- [DW_OP_plus_uconst 40, DW_OP_deref] $rsp
	#DEBUG_VALUE: intra4x4_hor_down_pred:ioff <- [DW_OP_plus_uconst 48, DW_OP_deref] $rsp
	#DEBUG_VALUE: intra4x4_hor_down_pred:joff <- [DW_OP_plus_uconst 16, DW_OP_deref] $rsp
	#DEBUG_VALUE: intra4x4_hor_down_pred:currSlice <- [DW_OP_plus_uconst 56, DW_OP_deref] $rsp
	#DEBUG_VALUE: intra4x4_hor_down_pred:p_Vid <- $rbx
	#DEBUG_VALUE: intra4x4_hor_down_pred:block_available_left <- $eax
	.loc	0 713 38                        # ldecod_src/intra4x4_pred_normal.c:713:38
	movl	24(%rsp), %ecx
.Ltmp336:
	#DEBUG_VALUE: intra4x4_hor_down_pred:block_available_up <- $ecx
	.loc	0 714 38                        # ldecod_src/intra4x4_pred_normal.c:714:38
	movl	64(%rsp), %edx
.Ltmp337:
	#DEBUG_VALUE: intra4x4_hor_down_pred:block_available_up_left <- $edx
	.loc	0 0 38 is_stmt 0                # ldecod_src/intra4x4_pred_normal.c:0:38
	movq	48(%rsp), %r12                  # 8-byte Reload
.Ltmp338:
	movq	16(%rsp), %r15                  # 8-byte Reload
	movq	56(%rsp), %rdi                  # 8-byte Reload
.Ltmp339:
.LBB0_101:                              # %if.end.i434
	#DEBUG_VALUE: intra4x4_pred_normal:currMB <- [DW_OP_LLVM_entry_value 1] $rdi
	#DEBUG_VALUE: intra4x4_pred_normal:pl <- [DW_OP_plus_uconst 40] [$rsp+0]
	#DEBUG_VALUE: intra4x4_pred_normal:ioff <- [DW_OP_plus_uconst 48] [$rsp+0]
	#DEBUG_VALUE: intra4x4_pred_normal:joff <- [DW_OP_plus_uconst 16] [$rsp+0]
	#DEBUG_VALUE: intra4x4_pred_normal:img_block_x <- [DW_OP_LLVM_entry_value 1] $r8d
	#DEBUG_VALUE: intra4x4_pred_normal:img_block_y <- [DW_OP_LLVM_entry_value 1] $r9d
	#DEBUG_VALUE: intra4x4_pred_normal:p_Vid <- $rbx
	#DEBUG_VALUE: intra4x4_hor_down_pred:pix_d <- [DW_OP_plus_uconst 64, DW_OP_deref] $rsp
	#DEBUG_VALUE: intra4x4_hor_down_pred:pl <- [DW_OP_plus_uconst 40, DW_OP_deref] $rsp
	#DEBUG_VALUE: intra4x4_hor_down_pred:ioff <- [DW_OP_plus_uconst 48, DW_OP_deref] $rsp
	#DEBUG_VALUE: intra4x4_hor_down_pred:joff <- [DW_OP_plus_uconst 16, DW_OP_deref] $rsp
	#DEBUG_VALUE: intra4x4_hor_down_pred:currSlice <- [DW_OP_plus_uconst 56, DW_OP_deref] $rsp
	#DEBUG_VALUE: intra4x4_hor_down_pred:p_Vid <- $rbx
	#DEBUG_VALUE: intra4x4_hor_down_pred:block_available_left <- $eax
	#DEBUG_VALUE: intra4x4_hor_down_pred:block_available_up <- $ecx
	#DEBUG_VALUE: intra4x4_hor_down_pred:block_available_up <- $ecx
	#DEBUG_VALUE: intra4x4_hor_down_pred:block_available_left <- $eax
	#DEBUG_VALUE: intra4x4_hor_down_pred:block_available_up_left <- $edx
	.loc	0 717 9 is_stmt 1               # ldecod_src/intra4x4_pred_normal.c:717:9
	testl	%ecx, %ecx
	.loc	0 717 28 is_stmt 0              # ldecod_src/intra4x4_pred_normal.c:717:28
	je	.LBB0_106
.Ltmp340:
# %bb.102:                              # %if.end.i434
	#DEBUG_VALUE: intra4x4_pred_normal:currMB <- [DW_OP_LLVM_entry_value 1] $rdi
	#DEBUG_VALUE: intra4x4_pred_normal:pl <- [DW_OP_plus_uconst 40] [$rsp+0]
	#DEBUG_VALUE: intra4x4_pred_normal:ioff <- [DW_OP_plus_uconst 48] [$rsp+0]
	#DEBUG_VALUE: intra4x4_pred_normal:joff <- [DW_OP_plus_uconst 16] [$rsp+0]
	#DEBUG_VALUE: intra4x4_pred_normal:img_block_x <- [DW_OP_LLVM_entry_value 1] $r8d
	#DEBUG_VALUE: intra4x4_pred_normal:img_block_y <- [DW_OP_LLVM_entry_value 1] $r9d
	#DEBUG_VALUE: intra4x4_pred_normal:p_Vid <- $rbx
	#DEBUG_VALUE: intra4x4_hor_down_pred:pix_d <- [DW_OP_plus_uconst 64, DW_OP_deref] $rsp
	#DEBUG_VALUE: intra4x4_hor_down_pred:pl <- [DW_OP_plus_uconst 40, DW_OP_deref] $rsp
	#DEBUG_VALUE: intra4x4_hor_down_pred:ioff <- [DW_OP_plus_uconst 48, DW_OP_deref] $rsp
	#DEBUG_VALUE: intra4x4_hor_down_pred:joff <- [DW_OP_plus_uconst 16, DW_OP_deref] $rsp
	#DEBUG_VALUE: intra4x4_hor_down_pred:currSlice <- [DW_OP_plus_uconst 56, DW_OP_deref] $rsp
	#DEBUG_VALUE: intra4x4_hor_down_pred:p_Vid <- $rbx
	#DEBUG_VALUE: intra4x4_hor_down_pred:block_available_left <- $eax
	#DEBUG_VALUE: intra4x4_hor_down_pred:block_available_up <- $ecx
	#DEBUG_VALUE: intra4x4_hor_down_pred:block_available_up_left <- $edx
	testl	%eax, %eax
	je	.LBB0_106
.Ltmp341:
# %bb.103:                              # %if.end.i434
	#DEBUG_VALUE: intra4x4_pred_normal:currMB <- [DW_OP_LLVM_entry_value 1] $rdi
	#DEBUG_VALUE: intra4x4_pred_normal:pl <- [DW_OP_plus_uconst 40] [$rsp+0]
	#DEBUG_VALUE: intra4x4_pred_normal:ioff <- [DW_OP_plus_uconst 48] [$rsp+0]
	#DEBUG_VALUE: intra4x4_pred_normal:joff <- [DW_OP_plus_uconst 16] [$rsp+0]
	#DEBUG_VALUE: intra4x4_pred_normal:img_block_x <- [DW_OP_LLVM_entry_value 1] $r8d
	#DEBUG_VALUE: intra4x4_pred_normal:img_block_y <- [DW_OP_LLVM_entry_value 1] $r9d
	#DEBUG_VALUE: intra4x4_pred_normal:p_Vid <- $rbx
	#DEBUG_VALUE: intra4x4_hor_down_pred:pix_d <- [DW_OP_plus_uconst 64, DW_OP_deref] $rsp
	#DEBUG_VALUE: intra4x4_hor_down_pred:pl <- [DW_OP_plus_uconst 40, DW_OP_deref] $rsp
	#DEBUG_VALUE: intra4x4_hor_down_pred:ioff <- [DW_OP_plus_uconst 48, DW_OP_deref] $rsp
	#DEBUG_VALUE: intra4x4_hor_down_pred:joff <- [DW_OP_plus_uconst 16, DW_OP_deref] $rsp
	#DEBUG_VALUE: intra4x4_hor_down_pred:currSlice <- [DW_OP_plus_uconst 56, DW_OP_deref] $rsp
	#DEBUG_VALUE: intra4x4_hor_down_pred:p_Vid <- $rbx
	#DEBUG_VALUE: intra4x4_hor_down_pred:block_available_left <- $eax
	#DEBUG_VALUE: intra4x4_hor_down_pred:block_available_up <- $ecx
	#DEBUG_VALUE: intra4x4_hor_down_pred:block_available_up_left <- $edx
	testl	%edx, %edx
	je	.LBB0_106
.Ltmp342:
# %bb.104:                              # %if.else43.i
	#DEBUG_VALUE: intra4x4_pred_normal:currMB <- [DW_OP_LLVM_entry_value 1] $rdi
	#DEBUG_VALUE: intra4x4_pred_normal:pl <- [DW_OP_plus_uconst 40] [$rsp+0]
	#DEBUG_VALUE: intra4x4_pred_normal:ioff <- [DW_OP_plus_uconst 48] [$rsp+0]
	#DEBUG_VALUE: intra4x4_pred_normal:joff <- [DW_OP_plus_uconst 16] [$rsp+0]
	#DEBUG_VALUE: intra4x4_pred_normal:img_block_x <- [DW_OP_LLVM_entry_value 1] $r8d
	#DEBUG_VALUE: intra4x4_pred_normal:img_block_y <- [DW_OP_LLVM_entry_value 1] $r9d
	#DEBUG_VALUE: intra4x4_pred_normal:p_Vid <- $rbx
	#DEBUG_VALUE: intra4x4_hor_down_pred:pix_d <- [DW_OP_plus_uconst 64, DW_OP_deref] $rsp
	#DEBUG_VALUE: intra4x4_hor_down_pred:pl <- [DW_OP_plus_uconst 40, DW_OP_deref] $rsp
	#DEBUG_VALUE: intra4x4_hor_down_pred:ioff <- [DW_OP_plus_uconst 48, DW_OP_deref] $rsp
	#DEBUG_VALUE: intra4x4_hor_down_pred:joff <- [DW_OP_plus_uconst 16, DW_OP_deref] $rsp
	#DEBUG_VALUE: intra4x4_hor_down_pred:currSlice <- [DW_OP_plus_uconst 56, DW_OP_deref] $rsp
	#DEBUG_VALUE: intra4x4_hor_down_pred:p_Vid <- $rbx
	#DEBUG_VALUE: intra4x4_hor_down_pred:block_available_left <- $eax
	#DEBUG_VALUE: intra4x4_hor_down_pred:block_available_up <- $ecx
	#DEBUG_VALUE: intra4x4_hor_down_pred:block_available_up_left <- $edx
	.loc	0 722 0 is_stmt 1               # ldecod_src/intra4x4_pred_normal.c:722:0
	movq	13520(%rdi), %rax
.Ltmp343:
	.loc	0 0 0 is_stmt 0                 # ldecod_src/intra4x4_pred_normal.c:0:0
	movq	40(%rsp), %rdx                  # 8-byte Reload
.Ltmp344:
	.loc	0 722 21                        # ldecod_src/intra4x4_pred_normal.c:722:21
	testl	%edx, %edx
	je	.LBB0_132
.Ltmp345:
# %bb.105:                              # %cond.true45.i447
	#DEBUG_VALUE: intra4x4_pred_normal:currMB <- [DW_OP_LLVM_entry_value 1] $rdi
	#DEBUG_VALUE: intra4x4_pred_normal:pl <- [DW_OP_plus_uconst 40] [$rsp+0]
	#DEBUG_VALUE: intra4x4_pred_normal:ioff <- [DW_OP_plus_uconst 48] [$rsp+0]
	#DEBUG_VALUE: intra4x4_pred_normal:joff <- [DW_OP_plus_uconst 16] [$rsp+0]
	#DEBUG_VALUE: intra4x4_pred_normal:img_block_x <- [DW_OP_LLVM_entry_value 1] $r8d
	#DEBUG_VALUE: intra4x4_pred_normal:img_block_y <- [DW_OP_LLVM_entry_value 1] $r9d
	#DEBUG_VALUE: intra4x4_pred_normal:p_Vid <- $rbx
	#DEBUG_VALUE: intra4x4_hor_down_pred:pix_d <- [DW_OP_plus_uconst 64, DW_OP_deref] $rsp
	#DEBUG_VALUE: intra4x4_hor_down_pred:pl <- [DW_OP_plus_uconst 40, DW_OP_deref] $rsp
	#DEBUG_VALUE: intra4x4_hor_down_pred:ioff <- [DW_OP_plus_uconst 48, DW_OP_deref] $rsp
	#DEBUG_VALUE: intra4x4_hor_down_pred:joff <- [DW_OP_plus_uconst 16, DW_OP_deref] $rsp
	#DEBUG_VALUE: intra4x4_hor_down_pred:currSlice <- [DW_OP_plus_uconst 56, DW_OP_deref] $rsp
	#DEBUG_VALUE: intra4x4_hor_down_pred:p_Vid <- $rbx
	#DEBUG_VALUE: intra4x4_hor_down_pred:block_available_up <- $ecx
	.loc	0 722 61                        # ldecod_src/intra4x4_pred_normal.c:722:61
	leal	-1(%rdx), %ecx
.Ltmp346:
	.loc	0 722 28                        # ldecod_src/intra4x4_pred_normal.c:722:28
	shlq	$3, %rcx
	addq	136(%rax), %rcx
	.loc	0 722 21                        # ldecod_src/intra4x4_pred_normal.c:722:21
	jmp	.LBB0_133
.Ltmp347:
.LBB0_106:                              # %if.then42.i442
	#DEBUG_VALUE: intra4x4_pred_normal:currMB <- [DW_OP_LLVM_entry_value 1] $rdi
	#DEBUG_VALUE: intra4x4_pred_normal:pl <- [DW_OP_plus_uconst 40] [$rsp+0]
	#DEBUG_VALUE: intra4x4_pred_normal:ioff <- [DW_OP_plus_uconst 48] [$rsp+0]
	#DEBUG_VALUE: intra4x4_pred_normal:joff <- [DW_OP_plus_uconst 16] [$rsp+0]
	#DEBUG_VALUE: intra4x4_pred_normal:img_block_x <- [DW_OP_LLVM_entry_value 1] $r8d
	#DEBUG_VALUE: intra4x4_pred_normal:img_block_y <- [DW_OP_LLVM_entry_value 1] $r9d
	#DEBUG_VALUE: intra4x4_pred_normal:p_Vid <- $rbx
	#DEBUG_VALUE: intra4x4_hor_down_pred:pix_d <- [DW_OP_plus_uconst 64, DW_OP_deref] $rsp
	#DEBUG_VALUE: intra4x4_hor_down_pred:pl <- [DW_OP_plus_uconst 40, DW_OP_deref] $rsp
	#DEBUG_VALUE: intra4x4_hor_down_pred:ioff <- [DW_OP_plus_uconst 48, DW_OP_deref] $rsp
	#DEBUG_VALUE: intra4x4_hor_down_pred:joff <- [DW_OP_plus_uconst 16, DW_OP_deref] $rsp
	#DEBUG_VALUE: intra4x4_hor_down_pred:currSlice <- [DW_OP_plus_uconst 56, DW_OP_deref] $rsp
	#DEBUG_VALUE: intra4x4_hor_down_pred:p_Vid <- $rbx
	#DEBUG_VALUE: intra4x4_hor_down_pred:block_available_left <- $eax
	#DEBUG_VALUE: intra4x4_hor_down_pred:block_available_up <- $ecx
	.loc	0 718 107 is_stmt 1             # ldecod_src/intra4x4_pred_normal.c:718:107
	movl	108(%rdi), %esi
	.loc	0 718 5 is_stmt 0               # ldecod_src/intra4x4_pred_normal.c:718:5
	movl	$.L.str.8, %edi
.Ltmp348:
.LBB0_118:                              # %cleanup
	#DEBUG_VALUE: intra4x4_pred_normal:currMB <- [DW_OP_LLVM_entry_value 1] $rdi
	#DEBUG_VALUE: intra4x4_pred_normal:pl <- [DW_OP_LLVM_entry_value 1] $esi
	#DEBUG_VALUE: intra4x4_pred_normal:ioff <- [DW_OP_LLVM_entry_value 1] $edx
	#DEBUG_VALUE: intra4x4_pred_normal:joff <- [DW_OP_LLVM_entry_value 1] $ecx
	#DEBUG_VALUE: intra4x4_pred_normal:img_block_x <- [DW_OP_LLVM_entry_value 1] $r8d
	#DEBUG_VALUE: intra4x4_pred_normal:img_block_y <- [DW_OP_LLVM_entry_value 1] $r9d
	#DEBUG_VALUE: intra4x4_pred_normal:p_Vid <- $rbx
	.loc	0 0 0                           # ldecod_src/intra4x4_pred_normal.c:0:0
	xorl	%eax, %eax
	callq	printf@PLT
.Ltmp349:
	jmp	.LBB0_134
.Ltmp350:
.LBB0_107:
	#DEBUG_VALUE: intra4x4_pred_normal:currMB <- $r12
	#DEBUG_VALUE: intra4x4_pred_normal:pl <- [DW_OP_plus_uconst 56] [$rsp+0]
	#DEBUG_VALUE: intra4x4_pred_normal:ioff <- $ebp
	#DEBUG_VALUE: intra4x4_pred_normal:joff <- [DW_OP_plus_uconst 16] [$rsp+0]
	#DEBUG_VALUE: intra4x4_pred_normal:img_block_x <- [DW_OP_LLVM_entry_value 1] $r8d
	#DEBUG_VALUE: intra4x4_pred_normal:img_block_y <- [DW_OP_LLVM_entry_value 1] $r9d
	#DEBUG_VALUE: intra4x4_pred_normal:p_Vid <- $rbx
	#DEBUG_VALUE: intra4x4_dc_pred:pix_b <- [DW_OP_plus_uconst 24, DW_OP_deref] $rsp
	#DEBUG_VALUE: intra4x4_dc_pred:currMB <- $r12
	#DEBUG_VALUE: intra4x4_dc_pred:pl <- [DW_OP_plus_uconst 56, DW_OP_deref] $rsp
	#DEBUG_VALUE: intra4x4_dc_pred:ioff <- $ebp
	#DEBUG_VALUE: intra4x4_dc_pred:joff <- [DW_OP_plus_uconst 16, DW_OP_deref] $rsp
	#DEBUG_VALUE: intra4x4_dc_pred:currSlice <- [DW_OP_plus_uconst 48, DW_OP_deref] $rsp
	#DEBUG_VALUE: intra4x4_dc_pred:p_Vid <- $rbx
	#DEBUG_VALUE: intra4x4_dc_pred:s0 <- 0
	#DEBUG_VALUE: intra4x4_dc_pred:imgY <- [DW_OP_plus_uconst 40, DW_OP_deref] $rsp
	#DEBUG_VALUE: intra4x4_dc_pred:curpel <- 0
	#DEBUG_VALUE: intra4x4_dc_pred:mb_pred <- $r14
	xorl	%eax, %eax
	movq	40(%rsp), %r11                  # 8-byte Reload
	movq	48(%rsp), %rdx                  # 8-byte Reload
.Ltmp351:
	#DEBUG_VALUE: intra4x4_dc_pred:block_available_left <- $eax
	.loc	0 75 28 is_stmt 1               # ldecod_src/intra4x4_pred_normal.c:75:28
	cmpl	$0, 24(%rsp)
	jne	.LBB0_64
.Ltmp352:
.LBB0_108:
	#DEBUG_VALUE: intra4x4_pred_normal:currMB <- $r12
	#DEBUG_VALUE: intra4x4_pred_normal:pl <- [DW_OP_plus_uconst 56] [$rsp+0]
	#DEBUG_VALUE: intra4x4_pred_normal:ioff <- $ebp
	#DEBUG_VALUE: intra4x4_pred_normal:joff <- [DW_OP_plus_uconst 16] [$rsp+0]
	#DEBUG_VALUE: intra4x4_pred_normal:img_block_x <- [DW_OP_LLVM_entry_value 1] $r8d
	#DEBUG_VALUE: intra4x4_pred_normal:img_block_y <- [DW_OP_LLVM_entry_value 1] $r9d
	#DEBUG_VALUE: intra4x4_pred_normal:p_Vid <- $rbx
	#DEBUG_VALUE: intra4x4_dc_pred:pix_b <- [DW_OP_plus_uconst 24, DW_OP_deref] $rsp
	#DEBUG_VALUE: intra4x4_dc_pred:currMB <- $r12
	#DEBUG_VALUE: intra4x4_dc_pred:pl <- [DW_OP_plus_uconst 56, DW_OP_deref] $rsp
	#DEBUG_VALUE: intra4x4_dc_pred:ioff <- $ebp
	#DEBUG_VALUE: intra4x4_dc_pred:joff <- [DW_OP_plus_uconst 16, DW_OP_deref] $rsp
	#DEBUG_VALUE: intra4x4_dc_pred:currSlice <- [DW_OP_plus_uconst 48, DW_OP_deref] $rsp
	#DEBUG_VALUE: intra4x4_dc_pred:p_Vid <- $rbx
	#DEBUG_VALUE: intra4x4_dc_pred:s0 <- 0
	#DEBUG_VALUE: intra4x4_dc_pred:imgY <- [DW_OP_plus_uconst 40, DW_OP_deref] $rsp
	#DEBUG_VALUE: intra4x4_dc_pred:curpel <- 0
	#DEBUG_VALUE: intra4x4_dc_pred:mb_pred <- $r14
	#DEBUG_VALUE: intra4x4_dc_pred:block_available_left <- $eax
	.loc	0 0 28 is_stmt 0                # ldecod_src/intra4x4_pred_normal.c:0:28
	movq	16(%rsp), %r10                  # 8-byte Reload
.Ltmp353:
.LBB0_109:                              # %if.end49.i
	#DEBUG_VALUE: intra4x4_pred_normal:currMB <- $r12
	#DEBUG_VALUE: intra4x4_pred_normal:pl <- [DW_OP_plus_uconst 56] [$rsp+0]
	#DEBUG_VALUE: intra4x4_pred_normal:ioff <- $ebp
	#DEBUG_VALUE: intra4x4_pred_normal:joff <- [DW_OP_plus_uconst 16] [$rsp+0]
	#DEBUG_VALUE: intra4x4_pred_normal:img_block_x <- [DW_OP_LLVM_entry_value 1] $r8d
	#DEBUG_VALUE: intra4x4_pred_normal:img_block_y <- [DW_OP_LLVM_entry_value 1] $r9d
	#DEBUG_VALUE: intra4x4_pred_normal:p_Vid <- $rbx
	#DEBUG_VALUE: intra4x4_dc_pred:pix_b <- [DW_OP_plus_uconst 24, DW_OP_deref] $rsp
	#DEBUG_VALUE: intra4x4_dc_pred:currMB <- $r12
	#DEBUG_VALUE: intra4x4_dc_pred:pl <- [DW_OP_plus_uconst 56, DW_OP_deref] $rsp
	#DEBUG_VALUE: intra4x4_dc_pred:ioff <- $ebp
	#DEBUG_VALUE: intra4x4_dc_pred:joff <- [DW_OP_plus_uconst 16, DW_OP_deref] $rsp
	#DEBUG_VALUE: intra4x4_dc_pred:currSlice <- [DW_OP_plus_uconst 48, DW_OP_deref] $rsp
	#DEBUG_VALUE: intra4x4_dc_pred:p_Vid <- $rbx
	#DEBUG_VALUE: intra4x4_dc_pred:s0 <- 0
	#DEBUG_VALUE: intra4x4_dc_pred:imgY <- [DW_OP_plus_uconst 40, DW_OP_deref] $rsp
	#DEBUG_VALUE: intra4x4_dc_pred:curpel <- 0
	#DEBUG_VALUE: intra4x4_dc_pred:mb_pred <- $r14
	#DEBUG_VALUE: intra4x4_dc_pred:block_available_left <- $eax
	#DEBUG_VALUE: intra4x4_dc_pred:s0 <- 0
	.loc	0 93 7 is_stmt 1                # ldecod_src/intra4x4_pred_normal.c:93:7
	testl	%eax, %eax
.Ltmp354:
	.loc	0 93 7 is_stmt 0                # ldecod_src/intra4x4_pred_normal.c:93:7
	je	.LBB0_115
.Ltmp355:
# %bb.110:
	#DEBUG_VALUE: intra4x4_pred_normal:currMB <- $r12
	#DEBUG_VALUE: intra4x4_pred_normal:pl <- [DW_OP_plus_uconst 56] [$rsp+0]
	#DEBUG_VALUE: intra4x4_pred_normal:ioff <- $ebp
	#DEBUG_VALUE: intra4x4_pred_normal:joff <- [DW_OP_plus_uconst 16] [$rsp+0]
	#DEBUG_VALUE: intra4x4_pred_normal:img_block_x <- [DW_OP_LLVM_entry_value 1] $r8d
	#DEBUG_VALUE: intra4x4_pred_normal:img_block_y <- [DW_OP_LLVM_entry_value 1] $r9d
	#DEBUG_VALUE: intra4x4_pred_normal:p_Vid <- $rbx
	#DEBUG_VALUE: intra4x4_dc_pred:pix_b <- [DW_OP_plus_uconst 24, DW_OP_deref] $rsp
	#DEBUG_VALUE: intra4x4_dc_pred:currMB <- $r12
	#DEBUG_VALUE: intra4x4_dc_pred:pl <- [DW_OP_plus_uconst 56, DW_OP_deref] $rsp
	#DEBUG_VALUE: intra4x4_dc_pred:ioff <- $ebp
	#DEBUG_VALUE: intra4x4_dc_pred:joff <- [DW_OP_plus_uconst 16, DW_OP_deref] $rsp
	#DEBUG_VALUE: intra4x4_dc_pred:currSlice <- [DW_OP_plus_uconst 48, DW_OP_deref] $rsp
	#DEBUG_VALUE: intra4x4_dc_pred:p_Vid <- $rbx
	#DEBUG_VALUE: intra4x4_dc_pred:s0 <- 0
	#DEBUG_VALUE: intra4x4_dc_pred:imgY <- [DW_OP_plus_uconst 40, DW_OP_deref] $rsp
	#DEBUG_VALUE: intra4x4_dc_pred:curpel <- 0
	#DEBUG_VALUE: intra4x4_dc_pred:mb_pred <- $r14
	#DEBUG_VALUE: intra4x4_dc_pred:block_available_left <- $eax
	.loc	0 0 7                           # ldecod_src/intra4x4_pred_normal.c:0:7
	movb	$1, %dl
	xorl	%ecx, %ecx
	xorl	%esi, %esi
.Ltmp356:
.LBB0_111:                              # %if.end75.i
	#DEBUG_VALUE: intra4x4_pred_normal:currMB <- $r12
	#DEBUG_VALUE: intra4x4_pred_normal:pl <- [DW_OP_plus_uconst 56] [$rsp+0]
	#DEBUG_VALUE: intra4x4_pred_normal:ioff <- $ebp
	#DEBUG_VALUE: intra4x4_pred_normal:joff <- [DW_OP_plus_uconst 16] [$rsp+0]
	#DEBUG_VALUE: intra4x4_pred_normal:img_block_x <- [DW_OP_LLVM_entry_value 1] $r8d
	#DEBUG_VALUE: intra4x4_pred_normal:img_block_y <- [DW_OP_LLVM_entry_value 1] $r9d
	#DEBUG_VALUE: intra4x4_pred_normal:p_Vid <- $rbx
	#DEBUG_VALUE: intra4x4_dc_pred:pix_b <- [DW_OP_plus_uconst 24, DW_OP_deref] $rsp
	#DEBUG_VALUE: intra4x4_dc_pred:currMB <- $r12
	#DEBUG_VALUE: intra4x4_dc_pred:pl <- [DW_OP_plus_uconst 56, DW_OP_deref] $rsp
	#DEBUG_VALUE: intra4x4_dc_pred:ioff <- $ebp
	#DEBUG_VALUE: intra4x4_dc_pred:joff <- [DW_OP_plus_uconst 16, DW_OP_deref] $rsp
	#DEBUG_VALUE: intra4x4_dc_pred:currSlice <- [DW_OP_plus_uconst 48, DW_OP_deref] $rsp
	#DEBUG_VALUE: intra4x4_dc_pred:p_Vid <- $rbx
	#DEBUG_VALUE: intra4x4_dc_pred:imgY <- [DW_OP_plus_uconst 40, DW_OP_deref] $rsp
	#DEBUG_VALUE: intra4x4_dc_pred:mb_pred <- $r14
	#DEBUG_VALUE: intra4x4_dc_pred:block_available_left <- $eax
	.loc	0 95 37 is_stmt 1               # ldecod_src/intra4x4_pred_normal.c:95:37
	movswq	14(%rsp), %rax
.Ltmp357:
	#DEBUG_VALUE: img_pred <- undef
	.loc	0 96 23                         # ldecod_src/intra4x4_pred_normal.c:96:23
	movswq	12(%rsp), %rdi
.Ltmp358:
	#DEBUG_VALUE: pos_x <- undef
	.loc	0 97 13                         # ldecod_src/intra4x4_pred_normal.c:97:13
	movq	(%r11,%rax,8), %r8
	.loc	0 98 13                         # ldecod_src/intra4x4_pred_normal.c:98:13
	movq	8(%r11,%rax,8), %r9
	.loc	0 97 11                         # ldecod_src/intra4x4_pred_normal.c:97:11
	movzwl	(%r8,%rdi,2), %r8d
.Ltmp359:
	#DEBUG_VALUE: intra4x4_dc_pred:s0 <- undef
	.loc	0 98 11                         # ldecod_src/intra4x4_pred_normal.c:98:11
	movzwl	(%r9,%rdi,2), %r9d
	.loc	0 97 8                          # ldecod_src/intra4x4_pred_normal.c:97:8
	addl	%r8d, %r9d
	#DEBUG_VALUE: intra4x4_dc_pred:s0 <- undef
	.loc	0 99 13                         # ldecod_src/intra4x4_pred_normal.c:99:13
	movq	16(%r11,%rax,8), %r8
	.loc	0 99 11 is_stmt 0               # ldecod_src/intra4x4_pred_normal.c:99:11
	movzwl	(%r8,%rdi,2), %r8d
	.loc	0 98 8 is_stmt 1                # ldecod_src/intra4x4_pred_normal.c:98:8
	addl	%r9d, %r8d
	#DEBUG_VALUE: intra4x4_dc_pred:s0 <- undef
	.loc	0 100 13                        # ldecod_src/intra4x4_pred_normal.c:100:13
	movq	24(%r11,%rax,8), %rax
	.loc	0 100 11 is_stmt 0              # ldecod_src/intra4x4_pred_normal.c:100:11
	movzwl	(%rax,%rdi,2), %eax
	.loc	0 99 8 is_stmt 1                # ldecod_src/intra4x4_pred_normal.c:99:8
	addl	%r8d, %eax
	.loc	0 100 8                         # ldecod_src/intra4x4_pred_normal.c:100:8
	addl	%ecx, %eax
.Ltmp360:
	#DEBUG_VALUE: intra4x4_dc_pred:s0 <- $eax
	.loc	0 103 26                        # ldecod_src/intra4x4_pred_normal.c:103:26
	testb	%sil, %sil
	je	.LBB0_113
.Ltmp361:
# %bb.112:                              # %if.then78.i
	#DEBUG_VALUE: intra4x4_pred_normal:currMB <- $r12
	#DEBUG_VALUE: intra4x4_pred_normal:pl <- [DW_OP_plus_uconst 56] [$rsp+0]
	#DEBUG_VALUE: intra4x4_pred_normal:ioff <- $ebp
	#DEBUG_VALUE: intra4x4_pred_normal:joff <- [DW_OP_plus_uconst 16] [$rsp+0]
	#DEBUG_VALUE: intra4x4_pred_normal:img_block_x <- [DW_OP_LLVM_entry_value 1] $r8d
	#DEBUG_VALUE: intra4x4_pred_normal:img_block_y <- [DW_OP_LLVM_entry_value 1] $r9d
	#DEBUG_VALUE: intra4x4_pred_normal:p_Vid <- $rbx
	#DEBUG_VALUE: intra4x4_dc_pred:pix_b <- [DW_OP_plus_uconst 24, DW_OP_deref] $rsp
	#DEBUG_VALUE: intra4x4_dc_pred:currMB <- $r12
	#DEBUG_VALUE: intra4x4_dc_pred:pl <- [DW_OP_plus_uconst 56, DW_OP_deref] $rsp
	#DEBUG_VALUE: intra4x4_dc_pred:ioff <- $ebp
	#DEBUG_VALUE: intra4x4_dc_pred:joff <- [DW_OP_plus_uconst 16, DW_OP_deref] $rsp
	#DEBUG_VALUE: intra4x4_dc_pred:currSlice <- [DW_OP_plus_uconst 48, DW_OP_deref] $rsp
	#DEBUG_VALUE: intra4x4_dc_pred:p_Vid <- $rbx
	#DEBUG_VALUE: intra4x4_dc_pred:s0 <- $eax
	#DEBUG_VALUE: intra4x4_dc_pred:imgY <- [DW_OP_plus_uconst 40, DW_OP_deref] $rsp
	#DEBUG_VALUE: intra4x4_dc_pred:mb_pred <- $r14
	.loc	0 106 14                        # ldecod_src/intra4x4_pred_normal.c:106:14
	addl	$4, %eax
.Ltmp362:
	.loc	0 106 18 is_stmt 0              # ldecod_src/intra4x4_pred_normal.c:106:18
	shrl	$3, %eax
.Ltmp363:
	#DEBUG_VALUE: intra4x4_dc_pred:s0 <- $eax
	.loc	0 107 3 is_stmt 1               # ldecod_src/intra4x4_pred_normal.c:107:3
	jmp	.LBB0_125
.Ltmp364:
.LBB0_113:                              # %if.else80.i
	#DEBUG_VALUE: intra4x4_pred_normal:currMB <- $r12
	#DEBUG_VALUE: intra4x4_pred_normal:pl <- [DW_OP_plus_uconst 56] [$rsp+0]
	#DEBUG_VALUE: intra4x4_pred_normal:ioff <- $ebp
	#DEBUG_VALUE: intra4x4_pred_normal:joff <- [DW_OP_plus_uconst 16] [$rsp+0]
	#DEBUG_VALUE: intra4x4_pred_normal:img_block_x <- [DW_OP_LLVM_entry_value 1] $r8d
	#DEBUG_VALUE: intra4x4_pred_normal:img_block_y <- [DW_OP_LLVM_entry_value 1] $r9d
	#DEBUG_VALUE: intra4x4_pred_normal:p_Vid <- $rbx
	#DEBUG_VALUE: intra4x4_dc_pred:pix_b <- [DW_OP_plus_uconst 24, DW_OP_deref] $rsp
	#DEBUG_VALUE: intra4x4_dc_pred:currMB <- $r12
	#DEBUG_VALUE: intra4x4_dc_pred:pl <- [DW_OP_plus_uconst 56, DW_OP_deref] $rsp
	#DEBUG_VALUE: intra4x4_dc_pred:ioff <- $ebp
	#DEBUG_VALUE: intra4x4_dc_pred:joff <- [DW_OP_plus_uconst 16, DW_OP_deref] $rsp
	#DEBUG_VALUE: intra4x4_dc_pred:currSlice <- [DW_OP_plus_uconst 48, DW_OP_deref] $rsp
	#DEBUG_VALUE: intra4x4_dc_pred:p_Vid <- $rbx
	#DEBUG_VALUE: intra4x4_dc_pred:s0 <- $eax
	#DEBUG_VALUE: intra4x4_dc_pred:imgY <- [DW_OP_plus_uconst 40, DW_OP_deref] $rsp
	#DEBUG_VALUE: intra4x4_dc_pred:mb_pred <- $r14
	.loc	0 108 32                        # ldecod_src/intra4x4_pred_normal.c:108:32
	testb	%dl, %dl
	je	.LBB0_115
.Ltmp365:
# %bb.114:                              # %if.then84.i
	#DEBUG_VALUE: intra4x4_pred_normal:currMB <- $r12
	#DEBUG_VALUE: intra4x4_pred_normal:pl <- [DW_OP_plus_uconst 56] [$rsp+0]
	#DEBUG_VALUE: intra4x4_pred_normal:ioff <- $ebp
	#DEBUG_VALUE: intra4x4_pred_normal:joff <- [DW_OP_plus_uconst 16] [$rsp+0]
	#DEBUG_VALUE: intra4x4_pred_normal:img_block_x <- [DW_OP_LLVM_entry_value 1] $r8d
	#DEBUG_VALUE: intra4x4_pred_normal:img_block_y <- [DW_OP_LLVM_entry_value 1] $r9d
	#DEBUG_VALUE: intra4x4_pred_normal:p_Vid <- $rbx
	#DEBUG_VALUE: intra4x4_dc_pred:pix_b <- [DW_OP_plus_uconst 24, DW_OP_deref] $rsp
	#DEBUG_VALUE: intra4x4_dc_pred:currMB <- $r12
	#DEBUG_VALUE: intra4x4_dc_pred:pl <- [DW_OP_plus_uconst 56, DW_OP_deref] $rsp
	#DEBUG_VALUE: intra4x4_dc_pred:ioff <- $ebp
	#DEBUG_VALUE: intra4x4_dc_pred:joff <- [DW_OP_plus_uconst 16, DW_OP_deref] $rsp
	#DEBUG_VALUE: intra4x4_dc_pred:currSlice <- [DW_OP_plus_uconst 48, DW_OP_deref] $rsp
	#DEBUG_VALUE: intra4x4_dc_pred:p_Vid <- $rbx
	#DEBUG_VALUE: intra4x4_dc_pred:s0 <- $eax
	#DEBUG_VALUE: intra4x4_dc_pred:imgY <- [DW_OP_plus_uconst 40, DW_OP_deref] $rsp
	#DEBUG_VALUE: intra4x4_dc_pred:mb_pred <- $r14
	.loc	0 111 14                        # ldecod_src/intra4x4_pred_normal.c:111:14
	addl	$2, %eax
.Ltmp366:
	.loc	0 111 18 is_stmt 0              # ldecod_src/intra4x4_pred_normal.c:111:18
	shrl	$2, %eax
.Ltmp367:
	#DEBUG_VALUE: intra4x4_dc_pred:s0 <- $eax
	.loc	0 112 3 is_stmt 1               # ldecod_src/intra4x4_pred_normal.c:112:3
	jmp	.LBB0_125
.Ltmp368:
.LBB0_115:                              # %if.else94.i
	#DEBUG_VALUE: intra4x4_pred_normal:currMB <- $r12
	#DEBUG_VALUE: intra4x4_pred_normal:pl <- [DW_OP_plus_uconst 56] [$rsp+0]
	#DEBUG_VALUE: intra4x4_pred_normal:ioff <- $ebp
	#DEBUG_VALUE: intra4x4_pred_normal:joff <- [DW_OP_plus_uconst 16] [$rsp+0]
	#DEBUG_VALUE: intra4x4_pred_normal:img_block_x <- [DW_OP_LLVM_entry_value 1] $r8d
	#DEBUG_VALUE: intra4x4_pred_normal:img_block_y <- [DW_OP_LLVM_entry_value 1] $r9d
	#DEBUG_VALUE: intra4x4_pred_normal:p_Vid <- $rbx
	#DEBUG_VALUE: intra4x4_dc_pred:pix_b <- [DW_OP_plus_uconst 24, DW_OP_deref] $rsp
	#DEBUG_VALUE: intra4x4_dc_pred:currMB <- $r12
	#DEBUG_VALUE: intra4x4_dc_pred:pl <- [DW_OP_plus_uconst 56, DW_OP_deref] $rsp
	#DEBUG_VALUE: intra4x4_dc_pred:ioff <- $ebp
	#DEBUG_VALUE: intra4x4_dc_pred:joff <- [DW_OP_plus_uconst 16, DW_OP_deref] $rsp
	#DEBUG_VALUE: intra4x4_dc_pred:currSlice <- [DW_OP_plus_uconst 48, DW_OP_deref] $rsp
	#DEBUG_VALUE: intra4x4_dc_pred:p_Vid <- $rbx
	#DEBUG_VALUE: intra4x4_dc_pred:imgY <- [DW_OP_plus_uconst 40, DW_OP_deref] $rsp
	#DEBUG_VALUE: intra4x4_dc_pred:mb_pred <- $r14
	.loc	0 0 3 is_stmt 0                 # ldecod_src/intra4x4_pred_normal.c:0:3
	movq	56(%rsp), %rax                  # 8-byte Reload
.Ltmp369:
	.loc	0 121 10 is_stmt 1              # ldecod_src/intra4x4_pred_normal.c:121:10
	movl	849060(%rbx,%rax,4), %eax
.Ltmp370:
	#DEBUG_VALUE: intra4x4_dc_pred:s0 <- $eax
	.loc	0 0 10 is_stmt 0                # ldecod_src/intra4x4_pred_normal.c:0:10
	jmp	.LBB0_125
.Ltmp371:
.LBB0_116:
	#DEBUG_VALUE: intra4x4_pred_normal:currMB <- $r13
	#DEBUG_VALUE: intra4x4_pred_normal:pl <- [DW_OP_plus_uconst 40] [$rsp+0]
	#DEBUG_VALUE: intra4x4_pred_normal:ioff <- $r12d
	#DEBUG_VALUE: intra4x4_pred_normal:joff <- $r15d
	#DEBUG_VALUE: intra4x4_pred_normal:img_block_x <- [DW_OP_LLVM_entry_value 1] $r8d
	#DEBUG_VALUE: intra4x4_pred_normal:img_block_y <- [DW_OP_LLVM_entry_value 1] $r9d
	#DEBUG_VALUE: intra4x4_pred_normal:p_Vid <- $rbx
	#DEBUG_VALUE: intra4x4_diag_down_left_pred:pix_c <- [DW_OP_plus_uconst 24, DW_OP_deref] $rsp
	#DEBUG_VALUE: intra4x4_diag_down_left_pred:currMB <- $r13
	#DEBUG_VALUE: intra4x4_diag_down_left_pred:pl <- [DW_OP_plus_uconst 40, DW_OP_deref] $rsp
	#DEBUG_VALUE: intra4x4_diag_down_left_pred:ioff <- $r12d
	#DEBUG_VALUE: intra4x4_diag_down_left_pred:joff <- $r15d
	#DEBUG_VALUE: intra4x4_diag_down_left_pred:currSlice <- [DW_OP_plus_uconst 16, DW_OP_deref] $rsp
	#DEBUG_VALUE: intra4x4_diag_down_left_pred:p_Vid <- $rbx
	#DEBUG_VALUE: intra4x4_diag_down_left_pred:block_available_up <- $eax
	xorl	%ecx, %ecx
	#DEBUG_VALUE: intra4x4_diag_down_left_pred:block_available_up <- $eax
.Ltmp372:
	#DEBUG_VALUE: intra4x4_diag_down_left_pred:block_available_up_right <- $ecx
	.loc	0 388 8 is_stmt 1               # ldecod_src/intra4x4_pred_normal.c:388:8
	testl	%eax, %eax
.Ltmp373:
	.loc	0 388 7 is_stmt 0               # ldecod_src/intra4x4_pred_normal.c:388:7
	jne	.LBB0_75
	jmp	.LBB0_117
.Ltmp374:
.LBB0_119:                              # %cond.false37.i
	#DEBUG_VALUE: intra4x4_pred_normal:currMB <- $r13
	#DEBUG_VALUE: intra4x4_pred_normal:pl <- [DW_OP_plus_uconst 40] [$rsp+0]
	#DEBUG_VALUE: intra4x4_pred_normal:ioff <- $r12d
	#DEBUG_VALUE: intra4x4_pred_normal:joff <- $r15d
	#DEBUG_VALUE: intra4x4_pred_normal:img_block_x <- [DW_OP_LLVM_entry_value 1] $r8d
	#DEBUG_VALUE: intra4x4_pred_normal:img_block_y <- [DW_OP_LLVM_entry_value 1] $r9d
	#DEBUG_VALUE: intra4x4_pred_normal:p_Vid <- $rbx
	#DEBUG_VALUE: intra4x4_diag_down_left_pred:pix_c <- [DW_OP_plus_uconst 24, DW_OP_deref] $rsp
	#DEBUG_VALUE: intra4x4_diag_down_left_pred:currMB <- $r13
	#DEBUG_VALUE: intra4x4_diag_down_left_pred:pl <- [DW_OP_plus_uconst 40, DW_OP_deref] $rsp
	#DEBUG_VALUE: intra4x4_diag_down_left_pred:ioff <- $r12d
	#DEBUG_VALUE: intra4x4_diag_down_left_pred:joff <- $r15d
	#DEBUG_VALUE: intra4x4_diag_down_left_pred:currSlice <- [DW_OP_plus_uconst 16, DW_OP_deref] $rsp
	#DEBUG_VALUE: intra4x4_diag_down_left_pred:p_Vid <- $rbx
	#DEBUG_VALUE: intra4x4_diag_down_left_pred:block_available_up_right <- $ecx
	.loc	0 392 92 is_stmt 1              # ldecod_src/intra4x4_pred_normal.c:392:92
	subq	$-128, %rax
	movq	%rax, %rdx
.Ltmp375:
.LBB0_120:                              # %cond.end40.i
	#DEBUG_VALUE: intra4x4_pred_normal:currMB <- $r13
	#DEBUG_VALUE: intra4x4_pred_normal:pl <- [DW_OP_plus_uconst 40] [$rsp+0]
	#DEBUG_VALUE: intra4x4_pred_normal:ioff <- $r12d
	#DEBUG_VALUE: intra4x4_pred_normal:joff <- $r15d
	#DEBUG_VALUE: intra4x4_pred_normal:img_block_x <- [DW_OP_LLVM_entry_value 1] $r8d
	#DEBUG_VALUE: intra4x4_pred_normal:img_block_y <- [DW_OP_LLVM_entry_value 1] $r9d
	#DEBUG_VALUE: intra4x4_pred_normal:p_Vid <- $rbx
	#DEBUG_VALUE: intra4x4_diag_down_left_pred:pix_c <- [DW_OP_plus_uconst 24, DW_OP_deref] $rsp
	#DEBUG_VALUE: intra4x4_diag_down_left_pred:currMB <- $r13
	#DEBUG_VALUE: intra4x4_diag_down_left_pred:pl <- [DW_OP_plus_uconst 40, DW_OP_deref] $rsp
	#DEBUG_VALUE: intra4x4_diag_down_left_pred:ioff <- $r12d
	#DEBUG_VALUE: intra4x4_diag_down_left_pred:joff <- $r15d
	#DEBUG_VALUE: intra4x4_diag_down_left_pred:currSlice <- [DW_OP_plus_uconst 16, DW_OP_deref] $rsp
	#DEBUG_VALUE: intra4x4_diag_down_left_pred:p_Vid <- $rbx
	#DEBUG_VALUE: intra4x4_diag_down_left_pred:block_available_up_right <- $ecx
	.loc	0 392 21 is_stmt 0              # ldecod_src/intra4x4_pred_normal.c:392:21
	movq	(%rdx), %r12
.Ltmp376:
	#DEBUG_VALUE: intra4x4_diag_down_left_pred:ioff <- $r14d
	#DEBUG_VALUE: intra4x4_pred_normal:ioff <- $r14d
	#DEBUG_VALUE: imgY <- $r12
	.loc	0 393 35 is_stmt 1              # ldecod_src/intra4x4_pred_normal.c:393:35
	movq	1248(%rdi), %rax
	.loc	0 393 24 is_stmt 0              # ldecod_src/intra4x4_pred_normal.c:393:24
	movl	%esi, %edx
	movq	(%rax,%rdx,8), %rax
.Ltmp377:
	#DEBUG_VALUE: mb_pred <- $rax
	.loc	0 397 36 is_stmt 1              # ldecod_src/intra4x4_pred_normal.c:397:36
	movswq	14(%rsp), %rdx
	.loc	0 397 25 is_stmt 0              # ldecod_src/intra4x4_pred_normal.c:397:25
	movq	(%r12,%rdx,8), %rdx
	.loc	0 397 49                        # ldecod_src/intra4x4_pred_normal.c:397:49
	movswq	12(%rsp), %rsi
.Ltmp378:
	#DEBUG_VALUE: pred_pel <- undef
	.loc	0 400 18 is_stmt 1              # ldecod_src/intra4x4_pred_normal.c:400:18
	movzwl	(%rdx,%rsi,2), %ebx
.Ltmp379:
	#DEBUG_VALUE: p_a <- undef
	.loc	0 401 18                        # ldecod_src/intra4x4_pred_normal.c:401:18
	movzwl	2(%rdx,%rsi,2), %edi
.Ltmp380:
	#DEBUG_VALUE: p_b <- undef
	.loc	0 402 18                        # ldecod_src/intra4x4_pred_normal.c:402:18
	movzwl	4(%rdx,%rsi,2), %r8d
.Ltmp381:
	#DEBUG_VALUE: p_c <- undef
	.loc	0 403 18                        # ldecod_src/intra4x4_pred_normal.c:403:18
	movzwl	6(%rdx,%rsi,2), %edx
	.loc	0 419 37                        # ldecod_src/intra4x4_pred_normal.c:419:37
	movzwl	%dx, %esi
.Ltmp382:
	#DEBUG_VALUE: p_d <- $dx
	.loc	0 0 37 is_stmt 0                # ldecod_src/intra4x4_pred_normal.c:0:37
	movl	%edx, %r9d
	movl	%edx, %r10d
	movl	%edx, %r11d
.Ltmp383:
	.loc	0 405 9 is_stmt 1               # ldecod_src/intra4x4_pred_normal.c:405:9
	testl	%ecx, %ecx
.Ltmp384:
	.loc	0 405 9 is_stmt 0               # ldecod_src/intra4x4_pred_normal.c:405:9
	je	.LBB0_122
.Ltmp385:
# %bb.121:                              # %if.then52.i
	#DEBUG_VALUE: intra4x4_pred_normal:currMB <- $r13
	#DEBUG_VALUE: intra4x4_pred_normal:pl <- [DW_OP_plus_uconst 40] [$rsp+0]
	#DEBUG_VALUE: intra4x4_pred_normal:ioff <- $r14d
	#DEBUG_VALUE: intra4x4_pred_normal:joff <- $r15d
	#DEBUG_VALUE: intra4x4_pred_normal:img_block_x <- [DW_OP_LLVM_entry_value 1] $r8d
	#DEBUG_VALUE: intra4x4_pred_normal:img_block_y <- [DW_OP_LLVM_entry_value 1] $r9d
	#DEBUG_VALUE: intra4x4_diag_down_left_pred:pix_c <- [DW_OP_plus_uconst 24, DW_OP_deref] $rsp
	#DEBUG_VALUE: intra4x4_diag_down_left_pred:currMB <- $r13
	#DEBUG_VALUE: intra4x4_diag_down_left_pred:pl <- [DW_OP_plus_uconst 40, DW_OP_deref] $rsp
	#DEBUG_VALUE: intra4x4_diag_down_left_pred:ioff <- $r14d
	#DEBUG_VALUE: intra4x4_diag_down_left_pred:joff <- $r15d
	#DEBUG_VALUE: intra4x4_diag_down_left_pred:currSlice <- [DW_OP_plus_uconst 16, DW_OP_deref] $rsp
	#DEBUG_VALUE: intra4x4_diag_down_left_pred:block_available_up_right <- $ecx
	#DEBUG_VALUE: imgY <- $r12
	#DEBUG_VALUE: mb_pred <- $rax
	#DEBUG_VALUE: p_d <- $dx
	.loc	0 407 30 is_stmt 1              # ldecod_src/intra4x4_pred_normal.c:407:30
	movswq	38(%rsp), %rcx
.Ltmp386:
	.loc	0 407 19 is_stmt 0              # ldecod_src/intra4x4_pred_normal.c:407:19
	movq	(%r12,%rcx,8), %rcx
	.loc	0 407 43                        # ldecod_src/intra4x4_pred_normal.c:407:43
	movswq	36(%rsp), %rdx
.Ltmp387:
	#DEBUG_VALUE: p_d <- $r10w
	#DEBUG_VALUE: pred_pel <- undef
	.loc	0 408 13 is_stmt 1              # ldecod_src/intra4x4_pred_normal.c:408:13
	movzwl	(%rcx,%rdx,2), %r11d
.Ltmp388:
	#DEBUG_VALUE: p_e <- $r11w
	.loc	0 409 13                        # ldecod_src/intra4x4_pred_normal.c:409:13
	movzwl	2(%rcx,%rdx,2), %r10d
.Ltmp389:
	#DEBUG_VALUE: p_d <- $r9w
	#DEBUG_VALUE: p_f <- $r10w
	.loc	0 410 13                        # ldecod_src/intra4x4_pred_normal.c:410:13
	movzwl	4(%rcx,%rdx,2), %r9d
.Ltmp390:
	#DEBUG_VALUE: p_g <- $r9w
	.loc	0 411 13                        # ldecod_src/intra4x4_pred_normal.c:411:13
	movzwl	6(%rcx,%rdx,2), %edx
.Ltmp391:
	#DEBUG_VALUE: p_h <- $dx
.LBB0_122:                              # %if.end63.i
	#DEBUG_VALUE: intra4x4_pred_normal:currMB <- $r13
	#DEBUG_VALUE: intra4x4_pred_normal:pl <- [DW_OP_plus_uconst 40] [$rsp+0]
	#DEBUG_VALUE: intra4x4_pred_normal:ioff <- $r14d
	#DEBUG_VALUE: intra4x4_pred_normal:joff <- $r15d
	#DEBUG_VALUE: intra4x4_pred_normal:img_block_x <- [DW_OP_LLVM_entry_value 1] $r8d
	#DEBUG_VALUE: intra4x4_pred_normal:img_block_y <- [DW_OP_LLVM_entry_value 1] $r9d
	#DEBUG_VALUE: intra4x4_diag_down_left_pred:pix_c <- [DW_OP_plus_uconst 24, DW_OP_deref] $rsp
	#DEBUG_VALUE: intra4x4_diag_down_left_pred:currMB <- $r13
	#DEBUG_VALUE: intra4x4_diag_down_left_pred:pl <- [DW_OP_plus_uconst 40, DW_OP_deref] $rsp
	#DEBUG_VALUE: intra4x4_diag_down_left_pred:ioff <- $r14d
	#DEBUG_VALUE: intra4x4_diag_down_left_pred:joff <- $r15d
	#DEBUG_VALUE: intra4x4_diag_down_left_pred:currSlice <- [DW_OP_plus_uconst 16, DW_OP_deref] $rsp
	#DEBUG_VALUE: imgY <- $r12
	#DEBUG_VALUE: mb_pred <- $rax
	#DEBUG_VALUE: p_e <- $r11w
	#DEBUG_VALUE: p_f <- $r10w
	#DEBUG_VALUE: p_g <- $r9w
	#DEBUG_VALUE: p_h <- $dx
	.loc	0 418 41                        # ldecod_src/intra4x4_pred_normal.c:418:41
	leal	(%rbx,%rdi,2), %ecx
	.loc	0 418 51 is_stmt 0              # ldecod_src/intra4x4_pred_normal.c:418:51
	addl	%r8d, %ecx
	addl	$2, %ecx
	.loc	0 418 56                        # ldecod_src/intra4x4_pred_normal.c:418:56
	shrl	$2, %ecx
.Ltmp392:
	#DEBUG_VALUE: PredPixel <- [DW_OP_LLVM_fragment 0 16] $cx
	.loc	0 419 41 is_stmt 1              # ldecod_src/intra4x4_pred_normal.c:419:41
	leal	(%rdi,%r8,2), %edi
	.loc	0 419 51 is_stmt 0              # ldecod_src/intra4x4_pred_normal.c:419:51
	addl	%esi, %edi
	addl	$2, %edi
	.loc	0 419 56                        # ldecod_src/intra4x4_pred_normal.c:419:56
	shrl	$2, %edi
.Ltmp393:
	#DEBUG_VALUE: PredPixel <- [DW_OP_LLVM_fragment 16 16] $di
	.loc	0 420 37 is_stmt 1              # ldecod_src/intra4x4_pred_normal.c:420:37
	movzwl	%r11w, %r11d
.Ltmp394:
	.loc	0 420 41 is_stmt 0              # ldecod_src/intra4x4_pred_normal.c:420:41
	leal	(%r8,%rsi,2), %r8d
	addl	$2, %r8d
	.loc	0 420 51                        # ldecod_src/intra4x4_pred_normal.c:420:51
	addl	%r11d, %r8d
	.loc	0 420 56                        # ldecod_src/intra4x4_pred_normal.c:420:56
	shrl	$2, %r8d
.Ltmp395:
	#DEBUG_VALUE: PredPixel <- [DW_OP_LLVM_fragment 32 16] $r8w
	.loc	0 421 37 is_stmt 1              # ldecod_src/intra4x4_pred_normal.c:421:37
	movzwl	%r10w, %r10d
.Ltmp396:
	.loc	0 421 41 is_stmt 0              # ldecod_src/intra4x4_pred_normal.c:421:41
	addl	%r10d, %esi
	addl	$2, %esi
	.loc	0 421 51                        # ldecod_src/intra4x4_pred_normal.c:421:51
	leal	(%rsi,%r11,2), %esi
	.loc	0 421 56                        # ldecod_src/intra4x4_pred_normal.c:421:56
	shrl	$2, %esi
.Ltmp397:
	#DEBUG_VALUE: PredPixel <- [DW_OP_LLVM_fragment 48 16] $si
	.loc	0 422 37 is_stmt 1              # ldecod_src/intra4x4_pred_normal.c:422:37
	movzwl	%r9w, %ebx
	.loc	0 422 41 is_stmt 0              # ldecod_src/intra4x4_pred_normal.c:422:41
	leal	(%rbx,%r11), %r9d
.Ltmp398:
	addl	$2, %r9d
	.loc	0 422 51                        # ldecod_src/intra4x4_pred_normal.c:422:51
	leal	(%r9,%r10,2), %r9d
	.loc	0 422 56                        # ldecod_src/intra4x4_pred_normal.c:422:56
	shrl	$2, %r9d
.Ltmp399:
	#DEBUG_VALUE: PredPixel <- [DW_OP_LLVM_fragment 64 16] $r9w
	.loc	0 423 37 is_stmt 1              # ldecod_src/intra4x4_pred_normal.c:423:37
	movzwl	%dx, %r11d
	.loc	0 423 35 is_stmt 0              # ldecod_src/intra4x4_pred_normal.c:423:35
	addl	%r11d, %r10d
	.loc	0 423 51                        # ldecod_src/intra4x4_pred_normal.c:423:51
	leal	(%r10,%rbx,2), %edx
.Ltmp400:
	addl	$2, %edx
	.loc	0 423 56                        # ldecod_src/intra4x4_pred_normal.c:423:56
	shrl	$2, %edx
.Ltmp401:
	#DEBUG_VALUE: PredPixel <- [DW_OP_LLVM_fragment 80 16] $dx
	.loc	0 424 38 is_stmt 1              # ldecod_src/intra4x4_pred_normal.c:424:38
	leal	(%r11,%r11,2), %r10d
	.loc	0 424 45 is_stmt 0              # ldecod_src/intra4x4_pred_normal.c:424:45
	addl	%ebx, %r10d
	addl	$2, %r10d
	.loc	0 424 50                        # ldecod_src/intra4x4_pred_normal.c:424:50
	shrl	$2, %r10d
.Ltmp402:
	#DEBUG_VALUE: PredPixel <- [DW_OP_LLVM_fragment 96 16] $r10w
	#DEBUG_VALUE: intra4x4_diag_down_left_pred:joff <- [DW_OP_plus_uconst 1, DW_OP_stack_value] $r15d
	.loc	0 426 13 is_stmt 1              # ldecod_src/intra4x4_pred_normal.c:426:13
	movslq	%r15d, %r11
	movq	(%rax,%r11,8), %rbx
	movslq	%r14d, %r14
.Ltmp403:
	#DEBUG_VALUE: intra4x4_pred_normal:ioff <- [DW_OP_LLVM_entry_value 1] $edx
	.loc	0 426 5 is_stmt 0               # ldecod_src/intra4x4_pred_normal.c:426:5
	movw	%cx, (%rbx,%r14,2)
	movw	%di, 2(%rbx,%r14,2)
	movw	%r8w, 4(%rbx,%r14,2)
	movw	%si, 6(%rbx,%r14,2)
.Ltmp404:
	#DEBUG_VALUE: intra4x4_diag_down_left_pred:joff <- [DW_OP_plus_uconst 2, DW_OP_stack_value] $r15d
	.loc	0 427 13 is_stmt 1              # ldecod_src/intra4x4_pred_normal.c:427:13
	movq	8(%rax,%r11,8), %rcx
.Ltmp405:
	.loc	0 427 5 is_stmt 0               # ldecod_src/intra4x4_pred_normal.c:427:5
	movw	%di, (%rcx,%r14,2)
	movw	%r8w, 2(%rcx,%r14,2)
	movw	%si, 4(%rcx,%r14,2)
	movw	%r9w, 6(%rcx,%r14,2)
.Ltmp406:
	#DEBUG_VALUE: intra4x4_diag_down_left_pred:joff <- [DW_OP_plus_uconst 3, DW_OP_stack_value] $r15d
	.loc	0 428 13 is_stmt 1              # ldecod_src/intra4x4_pred_normal.c:428:13
	movq	16(%rax,%r11,8), %rcx
	.loc	0 428 5 is_stmt 0               # ldecod_src/intra4x4_pred_normal.c:428:5
	movw	%r8w, (%rcx,%r14,2)
	movw	%si, 2(%rcx,%r14,2)
	movw	%r9w, 4(%rcx,%r14,2)
	movw	%dx, 6(%rcx,%r14,2)
	.loc	0 429 13 is_stmt 1              # ldecod_src/intra4x4_pred_normal.c:429:13
	movq	24(%rax,%r11,8), %rax
.Ltmp407:
	.loc	0 429 5 is_stmt 0               # ldecod_src/intra4x4_pred_normal.c:429:5
	movw	%si, (%rax,%r14,2)
	movw	%r9w, 2(%rax,%r14,2)
	movw	%dx, 4(%rax,%r14,2)
	movw	%r10w, 6(%rax,%r14,2)
	jmp	.LBB0_134
.Ltmp408:
.LBB0_123:
	#DEBUG_VALUE: intra4x4_pred_normal:currMB <- [DW_OP_LLVM_entry_value 1] $rdi
	#DEBUG_VALUE: intra4x4_pred_normal:pl <- [DW_OP_plus_uconst 40] [$rsp+0]
	#DEBUG_VALUE: intra4x4_pred_normal:ioff <- $r13d
	#DEBUG_VALUE: intra4x4_pred_normal:joff <- $r15d
	#DEBUG_VALUE: intra4x4_pred_normal:img_block_x <- [DW_OP_LLVM_entry_value 1] $r8d
	#DEBUG_VALUE: intra4x4_pred_normal:img_block_y <- [DW_OP_LLVM_entry_value 1] $r9d
	#DEBUG_VALUE: intra4x4_vert_left_pred:pix_c <- [DW_OP_plus_uconst 24, DW_OP_deref] $rsp
	#DEBUG_VALUE: intra4x4_vert_left_pred:pl <- [DW_OP_plus_uconst 40, DW_OP_deref] $rsp
	#DEBUG_VALUE: intra4x4_vert_left_pred:ioff <- $r13d
	#DEBUG_VALUE: intra4x4_vert_left_pred:joff <- $r15d
	#DEBUG_VALUE: intra4x4_vert_left_pred:currSlice <- [DW_OP_plus_uconst 16, DW_OP_deref] $rsp
	#DEBUG_VALUE: intra4x4_vert_left_pred:block_available_up <- $eax
	.loc	0 0 5                           # ldecod_src/intra4x4_pred_normal.c:0:5
	xorl	%ebp, %ebp
	#DEBUG_VALUE: intra4x4_vert_left_pred:block_available_up <- $eax
.Ltmp409:
	#DEBUG_VALUE: intra4x4_vert_left_pred:block_available_up_right <- $ebp
	.loc	0 560 8 is_stmt 1               # ldecod_src/intra4x4_pred_normal.c:560:8
	testl	%eax, %eax
	jne	.LBB0_85
	jmp	.LBB0_84
.Ltmp410:
.LBB0_124:                              # %if.then91.i
	#DEBUG_VALUE: intra4x4_pred_normal:currMB <- $r12
	#DEBUG_VALUE: intra4x4_pred_normal:pl <- [DW_OP_plus_uconst 56] [$rsp+0]
	#DEBUG_VALUE: intra4x4_pred_normal:ioff <- $ebp
	#DEBUG_VALUE: intra4x4_pred_normal:joff <- [DW_OP_plus_uconst 16] [$rsp+0]
	#DEBUG_VALUE: intra4x4_pred_normal:img_block_x <- [DW_OP_LLVM_entry_value 1] $r8d
	#DEBUG_VALUE: intra4x4_pred_normal:img_block_y <- [DW_OP_LLVM_entry_value 1] $r9d
	#DEBUG_VALUE: intra4x4_pred_normal:p_Vid <- $rbx
	#DEBUG_VALUE: intra4x4_dc_pred:pix_b <- [DW_OP_plus_uconst 24, DW_OP_deref] $rsp
	#DEBUG_VALUE: intra4x4_dc_pred:currMB <- $r12
	#DEBUG_VALUE: intra4x4_dc_pred:pl <- [DW_OP_plus_uconst 56, DW_OP_deref] $rsp
	#DEBUG_VALUE: intra4x4_dc_pred:ioff <- $ebp
	#DEBUG_VALUE: intra4x4_dc_pred:joff <- [DW_OP_plus_uconst 16, DW_OP_deref] $rsp
	#DEBUG_VALUE: intra4x4_dc_pred:currSlice <- [DW_OP_plus_uconst 48, DW_OP_deref] $rsp
	#DEBUG_VALUE: intra4x4_dc_pred:p_Vid <- $rbx
	#DEBUG_VALUE: intra4x4_dc_pred:s0 <- $ecx
	#DEBUG_VALUE: intra4x4_dc_pred:imgY <- [DW_OP_plus_uconst 40, DW_OP_deref] $rsp
	#DEBUG_VALUE: intra4x4_dc_pred:mb_pred <- $r14
	#DEBUG_VALUE: intra4x4_dc_pred:block_available_left <- $eax
	#DEBUG_VALUE: intra4x4_dc_pred:s0 <- $ecx
	.loc	0 116 14                        # ldecod_src/intra4x4_pred_normal.c:116:14
	addl	$2, %ecx
.Ltmp411:
	.loc	0 116 18 is_stmt 0              # ldecod_src/intra4x4_pred_normal.c:116:18
	shrl	$2, %ecx
.Ltmp412:
	#DEBUG_VALUE: intra4x4_dc_pred:s0 <- $ecx
	.loc	0 0 18                          # ldecod_src/intra4x4_pred_normal.c:0:18
	movl	%ecx, %eax
.Ltmp413:
.LBB0_125:                              # %intra4x4_dc_pred.exit
	#DEBUG_VALUE: intra4x4_pred_normal:currMB <- $r12
	#DEBUG_VALUE: intra4x4_pred_normal:pl <- [DW_OP_plus_uconst 56] [$rsp+0]
	#DEBUG_VALUE: intra4x4_pred_normal:ioff <- $ebp
	#DEBUG_VALUE: intra4x4_pred_normal:joff <- [DW_OP_plus_uconst 16] [$rsp+0]
	#DEBUG_VALUE: intra4x4_pred_normal:img_block_x <- [DW_OP_LLVM_entry_value 1] $r8d
	#DEBUG_VALUE: intra4x4_pred_normal:img_block_y <- [DW_OP_LLVM_entry_value 1] $r9d
	#DEBUG_VALUE: intra4x4_pred_normal:p_Vid <- $rbx
	#DEBUG_VALUE: intra4x4_dc_pred:pix_b <- [DW_OP_plus_uconst 24, DW_OP_deref] $rsp
	#DEBUG_VALUE: intra4x4_dc_pred:currMB <- $r12
	#DEBUG_VALUE: intra4x4_dc_pred:pl <- [DW_OP_plus_uconst 56, DW_OP_deref] $rsp
	#DEBUG_VALUE: intra4x4_dc_pred:ioff <- $ebp
	#DEBUG_VALUE: intra4x4_dc_pred:joff <- [DW_OP_plus_uconst 16, DW_OP_deref] $rsp
	#DEBUG_VALUE: intra4x4_dc_pred:currSlice <- [DW_OP_plus_uconst 48, DW_OP_deref] $rsp
	#DEBUG_VALUE: intra4x4_dc_pred:p_Vid <- $rbx
	#DEBUG_VALUE: intra4x4_dc_pred:s0 <- $eax
	#DEBUG_VALUE: intra4x4_dc_pred:imgY <- [DW_OP_plus_uconst 40, DW_OP_deref] $rsp
	#DEBUG_VALUE: intra4x4_dc_pred:mb_pred <- $r14
	#DEBUG_VALUE: intra4x4_dc_pred:s0 <- $eax
	#DEBUG_VALUE: intra4x4_dc_pred:j <- [DW_OP_plus_uconst 16, DW_OP_deref] $rsp
	movslq	%ebp, %rcx
.Ltmp414:
	.loc	0 124 3 is_stmt 1               # ldecod_src/intra4x4_pred_normal.c:124:3
	movslq	%r10d, %rdx
.Ltmp415:
	#DEBUG_VALUE: intra4x4_dc_pred:j <- $rdx
	.loc	0 127 5                         # ldecod_src/intra4x4_pred_normal.c:127:5
	movq	(%r14,%rdx,8), %rsi
	.loc	0 127 26 is_stmt 0              # ldecod_src/intra4x4_pred_normal.c:127:26
	movw	%ax, (%rsi,%rcx,2)
	.loc	0 128 5 is_stmt 1               # ldecod_src/intra4x4_pred_normal.c:128:5
	movq	(%r14,%rdx,8), %rsi
	.loc	0 128 26 is_stmt 0              # ldecod_src/intra4x4_pred_normal.c:128:26
	movw	%ax, 2(%rsi,%rcx,2)
	.loc	0 129 5 is_stmt 1               # ldecod_src/intra4x4_pred_normal.c:129:5
	movq	(%r14,%rdx,8), %rsi
	.loc	0 129 26 is_stmt 0              # ldecod_src/intra4x4_pred_normal.c:129:26
	movw	%ax, 4(%rsi,%rcx,2)
	.loc	0 130 5 is_stmt 1               # ldecod_src/intra4x4_pred_normal.c:130:5
	movq	(%r14,%rdx,8), %rsi
	.loc	0 130 26 is_stmt 0              # ldecod_src/intra4x4_pred_normal.c:130:26
	movw	%ax, 6(%rsi,%rcx,2)
.Ltmp416:
	#DEBUG_VALUE: intra4x4_dc_pred:j <- [DW_OP_plus_uconst 1, DW_OP_stack_value] $rdx
	.loc	0 127 5 is_stmt 1               # ldecod_src/intra4x4_pred_normal.c:127:5
	movq	8(%r14,%rdx,8), %rsi
	.loc	0 127 26 is_stmt 0              # ldecod_src/intra4x4_pred_normal.c:127:26
	movw	%ax, (%rsi,%rcx,2)
	.loc	0 128 5 is_stmt 1               # ldecod_src/intra4x4_pred_normal.c:128:5
	movq	8(%r14,%rdx,8), %rsi
	.loc	0 128 26 is_stmt 0              # ldecod_src/intra4x4_pred_normal.c:128:26
	movw	%ax, 2(%rsi,%rcx,2)
	.loc	0 129 5 is_stmt 1               # ldecod_src/intra4x4_pred_normal.c:129:5
	movq	8(%r14,%rdx,8), %rsi
	.loc	0 129 26 is_stmt 0              # ldecod_src/intra4x4_pred_normal.c:129:26
	movw	%ax, 4(%rsi,%rcx,2)
	.loc	0 130 5 is_stmt 1               # ldecod_src/intra4x4_pred_normal.c:130:5
	movq	8(%r14,%rdx,8), %rsi
	.loc	0 130 26 is_stmt 0              # ldecod_src/intra4x4_pred_normal.c:130:26
	movw	%ax, 6(%rsi,%rcx,2)
.Ltmp417:
	#DEBUG_VALUE: intra4x4_dc_pred:j <- [DW_OP_plus_uconst 2, DW_OP_stack_value] $rdx
	.loc	0 127 5 is_stmt 1               # ldecod_src/intra4x4_pred_normal.c:127:5
	movq	16(%r14,%rdx,8), %rsi
	.loc	0 127 26 is_stmt 0              # ldecod_src/intra4x4_pred_normal.c:127:26
	movw	%ax, (%rsi,%rcx,2)
	.loc	0 128 5 is_stmt 1               # ldecod_src/intra4x4_pred_normal.c:128:5
	movq	16(%r14,%rdx,8), %rsi
	.loc	0 128 26 is_stmt 0              # ldecod_src/intra4x4_pred_normal.c:128:26
	movw	%ax, 2(%rsi,%rcx,2)
	.loc	0 129 5 is_stmt 1               # ldecod_src/intra4x4_pred_normal.c:129:5
	movq	16(%r14,%rdx,8), %rsi
	.loc	0 129 26 is_stmt 0              # ldecod_src/intra4x4_pred_normal.c:129:26
	movw	%ax, 4(%rsi,%rcx,2)
	.loc	0 130 5 is_stmt 1               # ldecod_src/intra4x4_pred_normal.c:130:5
	movq	16(%r14,%rdx,8), %rsi
	.loc	0 130 26 is_stmt 0              # ldecod_src/intra4x4_pred_normal.c:130:26
	movw	%ax, 6(%rsi,%rcx,2)
.Ltmp418:
	#DEBUG_VALUE: intra4x4_dc_pred:j <- [DW_OP_plus_uconst 3, DW_OP_stack_value] $rdx
	.loc	0 127 5 is_stmt 1               # ldecod_src/intra4x4_pred_normal.c:127:5
	movq	24(%r14,%rdx,8), %rsi
	.loc	0 127 26 is_stmt 0              # ldecod_src/intra4x4_pred_normal.c:127:26
	movw	%ax, (%rsi,%rcx,2)
	.loc	0 128 5 is_stmt 1               # ldecod_src/intra4x4_pred_normal.c:128:5
	movq	24(%r14,%rdx,8), %rsi
	.loc	0 128 26 is_stmt 0              # ldecod_src/intra4x4_pred_normal.c:128:26
	movw	%ax, 2(%rsi,%rcx,2)
	.loc	0 129 5 is_stmt 1               # ldecod_src/intra4x4_pred_normal.c:129:5
	movq	24(%r14,%rdx,8), %rsi
	.loc	0 129 26 is_stmt 0              # ldecod_src/intra4x4_pred_normal.c:129:26
	movw	%ax, 4(%rsi,%rcx,2)
	.loc	0 130 5 is_stmt 1               # ldecod_src/intra4x4_pred_normal.c:130:5
	movq	24(%r14,%rdx,8), %rdx
.Ltmp419:
	.loc	0 130 26 is_stmt 0              # ldecod_src/intra4x4_pred_normal.c:130:26
	movw	%ax, 6(%rdx,%rcx,2)
.Ltmp420:
	#DEBUG_VALUE: intra4x4_dc_pred:j <- [DW_OP_plus_uconst 4, DW_OP_stack_value] undef
	.loc	0 0 26                          # ldecod_src/intra4x4_pred_normal.c:0:26
	jmp	.LBB0_134
.Ltmp421:
.LBB0_126:                              # %cond.false20.i
	#DEBUG_VALUE: intra4x4_pred_normal:currMB <- [DW_OP_LLVM_entry_value 1] $rdi
	#DEBUG_VALUE: intra4x4_pred_normal:pl <- $r15d
	#DEBUG_VALUE: intra4x4_pred_normal:ioff <- $r12d
	#DEBUG_VALUE: intra4x4_pred_normal:joff <- $r13d
	#DEBUG_VALUE: intra4x4_pred_normal:img_block_x <- [DW_OP_LLVM_entry_value 1] $r8d
	#DEBUG_VALUE: intra4x4_pred_normal:img_block_y <- [DW_OP_LLVM_entry_value 1] $r9d
	#DEBUG_VALUE: intra4x4_pred_normal:p_Vid <- $rbx
	#DEBUG_VALUE: intra4x4_vert_pred:pix_b <- [DW_OP_deref] $rsp
	#DEBUG_VALUE: intra4x4_vert_pred:pl <- $r15d
	#DEBUG_VALUE: intra4x4_vert_pred:ioff <- $r12d
	#DEBUG_VALUE: intra4x4_vert_pred:joff <- $r13d
	#DEBUG_VALUE: intra4x4_vert_pred:currSlice <- $r14
	#DEBUG_VALUE: intra4x4_vert_pred:p_Vid <- $rbx
	#DEBUG_VALUE: mb_pred <- $rax
	.loc	0 174 119 is_stmt 1             # ldecod_src/intra4x4_pred_normal.c:174:119
	subq	$-128, %rcx
	movq	%rcx, %r15
.Ltmp422:
	#DEBUG_VALUE: intra4x4_pred_normal:pl <- [DW_OP_LLVM_entry_value 1] $esi
.LBB0_127:                              # %cond.end29.i
	#DEBUG_VALUE: intra4x4_pred_normal:currMB <- [DW_OP_LLVM_entry_value 1] $rdi
	#DEBUG_VALUE: intra4x4_pred_normal:pl <- [DW_OP_LLVM_entry_value 1] $esi
	#DEBUG_VALUE: intra4x4_pred_normal:ioff <- $r12d
	#DEBUG_VALUE: intra4x4_pred_normal:joff <- $r13d
	#DEBUG_VALUE: intra4x4_pred_normal:img_block_x <- [DW_OP_LLVM_entry_value 1] $r8d
	#DEBUG_VALUE: intra4x4_pred_normal:img_block_y <- [DW_OP_LLVM_entry_value 1] $r9d
	#DEBUG_VALUE: intra4x4_pred_normal:p_Vid <- $rbx
	#DEBUG_VALUE: intra4x4_vert_pred:pix_b <- [DW_OP_deref] $rsp
	#DEBUG_VALUE: intra4x4_vert_pred:ioff <- $r12d
	#DEBUG_VALUE: intra4x4_vert_pred:joff <- $r13d
	#DEBUG_VALUE: intra4x4_vert_pred:currSlice <- $r14
	#DEBUG_VALUE: intra4x4_vert_pred:p_Vid <- $rbx
	#DEBUG_VALUE: mb_pred <- $rax
	.loc	0 174 0 is_stmt 0               # ldecod_src/intra4x4_pred_normal.c:174:0
	movq	(%r15), %rcx
	movswq	14(%rsp), %rdx
	movq	(%rcx,%rdx,8), %rcx
	movswq	12(%rsp), %rdx
.Ltmp423:
	#DEBUG_VALUE: intra4x4_vert_pred:joff <- [DW_OP_plus_uconst 1, DW_OP_stack_value] $r13d
	#DEBUG_VALUE: imgY <- undef
	.loc	0 175 14 is_stmt 1              # ldecod_src/intra4x4_pred_normal.c:175:14
	movslq	%r13d, %rsi
	movq	(%rax,%rsi,8), %rdi
	movslq	%r12d, %r8
	.loc	0 175 5 is_stmt 0               # ldecod_src/intra4x4_pred_normal.c:175:5
	movq	(%rcx,%rdx,2), %r9
	movq	%r9, (%rdi,%r8,2)
.Ltmp424:
	#DEBUG_VALUE: intra4x4_vert_pred:joff <- [DW_OP_plus_uconst 2, DW_OP_stack_value] $r13d
	.loc	0 176 14 is_stmt 1              # ldecod_src/intra4x4_pred_normal.c:176:14
	movq	8(%rax,%rsi,8), %rdi
	.loc	0 176 5 is_stmt 0               # ldecod_src/intra4x4_pred_normal.c:176:5
	movq	(%rcx,%rdx,2), %r9
	movq	%r9, (%rdi,%r8,2)
.Ltmp425:
	#DEBUG_VALUE: intra4x4_vert_pred:joff <- [DW_OP_plus_uconst 3, DW_OP_stack_value] $r13d
	.loc	0 177 14 is_stmt 1              # ldecod_src/intra4x4_pred_normal.c:177:14
	movq	16(%rax,%rsi,8), %rdi
	.loc	0 177 5 is_stmt 0               # ldecod_src/intra4x4_pred_normal.c:177:5
	movq	(%rcx,%rdx,2), %r9
	movq	%r9, (%rdi,%r8,2)
	.loc	0 178 14 is_stmt 1              # ldecod_src/intra4x4_pred_normal.c:178:14
	movq	24(%rax,%rsi,8), %rax
.Ltmp426:
	.loc	0 178 5 is_stmt 0               # ldecod_src/intra4x4_pred_normal.c:178:5
	movq	(%rcx,%rdx,2), %rcx
	movq	%rcx, (%rax,%r8,2)
	jmp	.LBB0_134
.Ltmp427:
.LBB0_128:                              # %cond.false22.i
	#DEBUG_VALUE: intra4x4_pred_normal:currMB <- [DW_OP_LLVM_entry_value 1] $rdi
	#DEBUG_VALUE: intra4x4_pred_normal:pl <- $r15d
	#DEBUG_VALUE: intra4x4_pred_normal:ioff <- $r12d
	#DEBUG_VALUE: intra4x4_pred_normal:joff <- $r13d
	#DEBUG_VALUE: intra4x4_pred_normal:img_block_x <- [DW_OP_LLVM_entry_value 1] $r8d
	#DEBUG_VALUE: intra4x4_pred_normal:img_block_y <- [DW_OP_LLVM_entry_value 1] $r9d
	#DEBUG_VALUE: intra4x4_pred_normal:p_Vid <- $rbx
	#DEBUG_VALUE: intra4x4_hor_pred:pix_a <- [DW_OP_deref] $rsp
	#DEBUG_VALUE: intra4x4_hor_pred:pl <- $r15d
	#DEBUG_VALUE: intra4x4_hor_pred:ioff <- $r12d
	#DEBUG_VALUE: intra4x4_hor_pred:joff <- $r13d
	#DEBUG_VALUE: intra4x4_hor_pred:p_Vid <- $rbx
	#DEBUG_VALUE: intra4x4_hor_pred:currSlice <- $r14
	#DEBUG_VALUE: mb_pred <- [DW_OP_LLVM_arg 0, DW_OP_LLVM_arg 1, DW_OP_constu 8, DW_OP_mul, DW_OP_plus, DW_OP_stack_value] $rdx, $rsi
	.loc	0 247 92 is_stmt 1              # ldecod_src/intra4x4_pred_normal.c:247:92
	subq	$-128, %rdi
	movq	%rdi, %r15
.Ltmp428:
	#DEBUG_VALUE: intra4x4_pred_normal:pl <- [DW_OP_LLVM_entry_value 1] $esi
.LBB0_129:                              # %cond.end25.i
	#DEBUG_VALUE: intra4x4_pred_normal:currMB <- [DW_OP_LLVM_entry_value 1] $rdi
	#DEBUG_VALUE: intra4x4_pred_normal:pl <- [DW_OP_LLVM_entry_value 1] $esi
	#DEBUG_VALUE: intra4x4_pred_normal:ioff <- $r12d
	#DEBUG_VALUE: intra4x4_pred_normal:joff <- $r13d
	#DEBUG_VALUE: intra4x4_pred_normal:img_block_x <- [DW_OP_LLVM_entry_value 1] $r8d
	#DEBUG_VALUE: intra4x4_pred_normal:img_block_y <- [DW_OP_LLVM_entry_value 1] $r9d
	#DEBUG_VALUE: intra4x4_pred_normal:p_Vid <- $rbx
	#DEBUG_VALUE: intra4x4_hor_pred:pix_a <- [DW_OP_deref] $rsp
	#DEBUG_VALUE: intra4x4_hor_pred:ioff <- $r12d
	#DEBUG_VALUE: intra4x4_hor_pred:joff <- $r13d
	#DEBUG_VALUE: intra4x4_hor_pred:p_Vid <- $rbx
	#DEBUG_VALUE: intra4x4_hor_pred:currSlice <- $r14
	#DEBUG_VALUE: mb_pred <- [DW_OP_LLVM_arg 0, DW_OP_LLVM_arg 1, DW_OP_constu 8, DW_OP_mul, DW_OP_plus, DW_OP_stack_value] $rdx, $rsi
	.loc	0 247 21 is_stmt 0              # ldecod_src/intra4x4_pred_normal.c:247:21
	movq	(%r15), %rdi
.Ltmp429:
	#DEBUG_VALUE: imgY <- $rdi
	#DEBUG_VALUE: j <- 0
	.loc	0 0 21                          # ldecod_src/intra4x4_pred_normal.c:0:21
	movslq	%r12d, %r8
	#DEBUG_VALUE: j <- 0
.Ltmp430:
	#DEBUG_VALUE: pos_y <- $rax
	.loc	0 251 17 is_stmt 1              # ldecod_src/intra4x4_pred_normal.c:251:17
	movq	(%rdx,%rsi,8), %r9
.Ltmp431:
	#DEBUG_VALUE: predrow <- $r9
	#DEBUG_VALUE: pos_y <- [DW_OP_plus_uconst 1, DW_OP_stack_value] $rax
	.loc	0 252 20                        # ldecod_src/intra4x4_pred_normal.c:252:20
	movq	(%rdi,%rax,8), %r10
.Ltmp432:
	#DEBUG_VALUE: prediction <- undef
	.loc	0 254 24                        # ldecod_src/intra4x4_pred_normal.c:254:24
	movzwl	(%r10,%rcx,2), %r10d
	movd	%r10d, %xmm0
	pshuflw	$0, %xmm0, %xmm0                # xmm0 = xmm0[0,0,0,0,4,5,6,7]
	movq	%xmm0, (%r9,%r8,2)
.Ltmp433:
	#DEBUG_VALUE: j <- 1
	.loc	0 251 17                        # ldecod_src/intra4x4_pred_normal.c:251:17
	movq	8(%rdx,%rsi,8), %r9
.Ltmp434:
	#DEBUG_VALUE: predrow <- $r9
	#DEBUG_VALUE: pos_y <- [DW_OP_plus_uconst 2, DW_OP_stack_value] $rax
	.loc	0 252 20                        # ldecod_src/intra4x4_pred_normal.c:252:20
	movq	8(%rdi,%rax,8), %r10
	.loc	0 254 24                        # ldecod_src/intra4x4_pred_normal.c:254:24
	movzwl	(%r10,%rcx,2), %r10d
	movd	%r10d, %xmm0
	pshuflw	$0, %xmm0, %xmm0                # xmm0 = xmm0[0,0,0,0,4,5,6,7]
	movq	%xmm0, (%r9,%r8,2)
.Ltmp435:
	#DEBUG_VALUE: j <- 2
	.loc	0 251 17                        # ldecod_src/intra4x4_pred_normal.c:251:17
	movq	16(%rdx,%rsi,8), %r9
.Ltmp436:
	#DEBUG_VALUE: predrow <- $r9
	#DEBUG_VALUE: pos_y <- [DW_OP_plus_uconst 3, DW_OP_stack_value] $rax
	.loc	0 252 20                        # ldecod_src/intra4x4_pred_normal.c:252:20
	movq	16(%rdi,%rax,8), %r10
	.loc	0 254 24                        # ldecod_src/intra4x4_pred_normal.c:254:24
	movzwl	(%r10,%rcx,2), %r10d
	movd	%r10d, %xmm0
	pshuflw	$0, %xmm0, %xmm0                # xmm0 = xmm0[0,0,0,0,4,5,6,7]
	movq	%xmm0, (%r9,%r8,2)
.Ltmp437:
	#DEBUG_VALUE: j <- 3
	.loc	0 251 17                        # ldecod_src/intra4x4_pred_normal.c:251:17
	movq	24(%rdx,%rsi,8), %rdx
.Ltmp438:
	#DEBUG_VALUE: predrow <- $rdx
	#DEBUG_VALUE: pos_y <- [DW_OP_plus_uconst 4, DW_OP_stack_value] $rax
	.loc	0 252 20                        # ldecod_src/intra4x4_pred_normal.c:252:20
	movq	24(%rdi,%rax,8), %rax
.Ltmp439:
	.loc	0 254 24                        # ldecod_src/intra4x4_pred_normal.c:254:24
	movzwl	(%rax,%rcx,2), %eax
	movd	%eax, %xmm0
	pshuflw	$0, %xmm0, %xmm0                # xmm0 = xmm0[0,0,0,0,4,5,6,7]
	movq	%xmm0, (%rdx,%r8,2)
.Ltmp440:
	#DEBUG_VALUE: j <- 4
	.loc	0 0 24 is_stmt 0                # ldecod_src/intra4x4_pred_normal.c:0:24
	jmp	.LBB0_134
.Ltmp441:
.LBB0_130:                              # %cond.false13.i
	#DEBUG_VALUE: intra4x4_pred_normal:currMB <- [DW_OP_LLVM_entry_value 1] $rdi
	#DEBUG_VALUE: intra4x4_pred_normal:pl <- $r15d
	#DEBUG_VALUE: intra4x4_pred_normal:ioff <- $r12d
	#DEBUG_VALUE: intra4x4_pred_normal:joff <- $r13d
	#DEBUG_VALUE: intra4x4_pred_normal:img_block_x <- [DW_OP_LLVM_entry_value 1] $r8d
	#DEBUG_VALUE: intra4x4_pred_normal:img_block_y <- [DW_OP_LLVM_entry_value 1] $r9d
	#DEBUG_VALUE: intra4x4_pred_normal:p_Vid <- $rbx
	#DEBUG_VALUE: intra4x4_hor_up_pred:pix_a <- [DW_OP_deref] $rsp
	#DEBUG_VALUE: intra4x4_hor_up_pred:pl <- $r15d
	#DEBUG_VALUE: intra4x4_hor_up_pred:ioff <- $r12d
	#DEBUG_VALUE: intra4x4_hor_up_pred:joff <- $r13d
	#DEBUG_VALUE: intra4x4_hor_up_pred:currSlice <- $r14
	#DEBUG_VALUE: intra4x4_hor_up_pred:p_Vid <- $rbx
	.loc	0 644 92 is_stmt 1              # ldecod_src/intra4x4_pred_normal.c:644:92
	subq	$-128, %rax
	movq	%rax, %rcx
.Ltmp442:
.LBB0_131:                              # %cond.end16.i
	#DEBUG_VALUE: intra4x4_pred_normal:currMB <- [DW_OP_LLVM_entry_value 1] $rdi
	#DEBUG_VALUE: intra4x4_pred_normal:pl <- $r15d
	#DEBUG_VALUE: intra4x4_pred_normal:ioff <- $r12d
	#DEBUG_VALUE: intra4x4_pred_normal:joff <- $r13d
	#DEBUG_VALUE: intra4x4_pred_normal:img_block_x <- [DW_OP_LLVM_entry_value 1] $r8d
	#DEBUG_VALUE: intra4x4_pred_normal:img_block_y <- [DW_OP_LLVM_entry_value 1] $r9d
	#DEBUG_VALUE: intra4x4_pred_normal:p_Vid <- $rbx
	#DEBUG_VALUE: intra4x4_hor_up_pred:pix_a <- [DW_OP_deref] $rsp
	#DEBUG_VALUE: intra4x4_hor_up_pred:pl <- $r15d
	#DEBUG_VALUE: intra4x4_hor_up_pred:ioff <- $r12d
	#DEBUG_VALUE: intra4x4_hor_up_pred:joff <- $r13d
	#DEBUG_VALUE: intra4x4_hor_up_pred:currSlice <- $r14
	#DEBUG_VALUE: intra4x4_hor_up_pred:p_Vid <- $rbx
	.loc	0 644 21 is_stmt 0              # ldecod_src/intra4x4_pred_normal.c:644:21
	movq	(%rcx), %rcx
.Ltmp443:
	#DEBUG_VALUE: imgY <- $rcx
	.loc	0 645 35 is_stmt 1              # ldecod_src/intra4x4_pred_normal.c:645:35
	movq	1248(%r14), %rax
	.loc	0 645 24 is_stmt 0              # ldecod_src/intra4x4_pred_normal.c:645:24
	movl	%r15d, %edx
	movq	(%rax,%rdx,8), %rax
.Ltmp444:
	#DEBUG_VALUE: mb_pred <- $rax
	.loc	0 647 37 is_stmt 1              # ldecod_src/intra4x4_pred_normal.c:647:37
	movswq	14(%rsp), %rdx
.Ltmp445:
	#DEBUG_VALUE: img_pred <- undef
	.loc	0 648 23                        # ldecod_src/intra4x4_pred_normal.c:648:23
	movswq	12(%rsp), %rdi
.Ltmp446:
	#DEBUG_VALUE: pix_x <- undef
	.loc	0 651 20                        # ldecod_src/intra4x4_pred_normal.c:651:20
	movq	(%rcx,%rdx,8), %rsi
	.loc	0 652 20                        # ldecod_src/intra4x4_pred_normal.c:652:20
	movq	8(%rcx,%rdx,8), %r8
	.loc	0 651 18                        # ldecod_src/intra4x4_pred_normal.c:651:18
	movzwl	(%rsi,%rdi,2), %r9d
.Ltmp447:
	#DEBUG_VALUE: p_i <- $r9d
	.loc	0 652 18                        # ldecod_src/intra4x4_pred_normal.c:652:18
	movzwl	(%r8,%rdi,2), %r8d
.Ltmp448:
	#DEBUG_VALUE: p_j <- $r8d
	.loc	0 653 20                        # ldecod_src/intra4x4_pred_normal.c:653:20
	movq	16(%rcx,%rdx,8), %rsi
	.loc	0 653 18 is_stmt 0              # ldecod_src/intra4x4_pred_normal.c:653:18
	movzwl	(%rsi,%rdi,2), %esi
.Ltmp449:
	#DEBUG_VALUE: p_k <- $esi
	.loc	0 654 20 is_stmt 1              # ldecod_src/intra4x4_pred_normal.c:654:20
	movq	24(%rcx,%rdx,8), %rcx
.Ltmp450:
	.loc	0 654 18 is_stmt 0              # ldecod_src/intra4x4_pred_normal.c:654:18
	movzwl	(%rcx,%rdi,2), %ecx
.Ltmp451:
	#DEBUG_VALUE: p_l <- $ecx
	.loc	0 656 46 is_stmt 1              # ldecod_src/intra4x4_pred_normal.c:656:46
	leal	(%r8,%r9), %edx
	incl	%edx
	shrl	%edx
.Ltmp452:
	#DEBUG_VALUE: PredPixel <- [DW_OP_LLVM_fragment 0 16] $dx
	.loc	0 657 43                        # ldecod_src/intra4x4_pred_normal.c:657:43
	leal	(%r9,%r8,2), %edi
	.loc	0 657 49 is_stmt 0              # ldecod_src/intra4x4_pred_normal.c:657:49
	addl	%esi, %edi
	addl	$2, %edi
	.loc	0 657 54                        # ldecod_src/intra4x4_pred_normal.c:657:54
	shrl	$2, %edi
.Ltmp453:
	#DEBUG_VALUE: PredPixel <- [DW_OP_LLVM_fragment 16 16] $di
	.loc	0 658 46 is_stmt 1              # ldecod_src/intra4x4_pred_normal.c:658:46
	leal	(%r8,%rsi), %r9d
.Ltmp454:
	incl	%r9d
	shrl	%r9d
.Ltmp455:
	#DEBUG_VALUE: PredPixel <- [DW_OP_LLVM_fragment 32 16] $r9w
	.loc	0 659 35                        # ldecod_src/intra4x4_pred_normal.c:659:35
	leal	(%r8,%rsi,2), %r8d
.Ltmp456:
	.loc	0 659 49 is_stmt 0              # ldecod_src/intra4x4_pred_normal.c:659:49
	addl	%ecx, %r8d
	addl	$2, %r8d
	.loc	0 659 54                        # ldecod_src/intra4x4_pred_normal.c:659:54
	shrl	$2, %r8d
.Ltmp457:
	#DEBUG_VALUE: PredPixel <- [DW_OP_LLVM_fragment 48 16] $r8w
	.loc	0 660 46 is_stmt 1              # ldecod_src/intra4x4_pred_normal.c:660:46
	leal	(%rsi,%rcx), %r10d
	incl	%r10d
	shrl	%r10d
.Ltmp458:
	#DEBUG_VALUE: PredPixel <- [DW_OP_LLVM_fragment 64 16] $r10w
	.loc	0 661 43                        # ldecod_src/intra4x4_pred_normal.c:661:43
	addl	%ecx, %esi
.Ltmp459:
	addl	$2, %esi
	.loc	0 661 49 is_stmt 0              # ldecod_src/intra4x4_pred_normal.c:661:49
	leal	(%rsi,%rcx,2), %esi
	.loc	0 661 54                        # ldecod_src/intra4x4_pred_normal.c:661:54
	shrl	$2, %esi
.Ltmp460:
	#DEBUG_VALUE: PredPixel <- [DW_OP_LLVM_fragment 80 16] $si
	#DEBUG_VALUE: intra4x4_hor_up_pred:joff <- [DW_OP_plus_uconst 1, DW_OP_stack_value] $r13d
	#DEBUG_VALUE: PredPixel <- [DW_OP_LLVM_fragment 96 16] $ecx
	#DEBUG_VALUE: PredPixel <- [DW_OP_LLVM_fragment 112 16] $ecx
	#DEBUG_VALUE: PredPixel <- [DW_OP_LLVM_fragment 128 16] $ecx
	#DEBUG_VALUE: PredPixel <- [DW_OP_LLVM_fragment 144 16] $ecx
	.loc	0 667 13 is_stmt 1              # ldecod_src/intra4x4_pred_normal.c:667:13
	movslq	%r13d, %r11
	movq	(%rax,%r11,8), %rbx
.Ltmp461:
	movslq	%r12d, %r14
.Ltmp462:
	.loc	0 667 5 is_stmt 0               # ldecod_src/intra4x4_pred_normal.c:667:5
	movw	%dx, (%rbx,%r14,2)
	movw	%di, 2(%rbx,%r14,2)
	movw	%r9w, 4(%rbx,%r14,2)
	movw	%r8w, 6(%rbx,%r14,2)
.Ltmp463:
	#DEBUG_VALUE: intra4x4_hor_up_pred:joff <- [DW_OP_plus_uconst 2, DW_OP_stack_value] $r13d
	.loc	0 668 13 is_stmt 1              # ldecod_src/intra4x4_pred_normal.c:668:13
	movq	8(%rax,%r11,8), %rdx
.Ltmp464:
	.loc	0 668 5 is_stmt 0               # ldecod_src/intra4x4_pred_normal.c:668:5
	movw	%r9w, (%rdx,%r14,2)
	movw	%r8w, 2(%rdx,%r14,2)
	movw	%r10w, 4(%rdx,%r14,2)
	movw	%si, 6(%rdx,%r14,2)
.Ltmp465:
	#DEBUG_VALUE: intra4x4_hor_up_pred:joff <- [DW_OP_plus_uconst 3, DW_OP_stack_value] $r13d
	.loc	0 669 13 is_stmt 1              # ldecod_src/intra4x4_pred_normal.c:669:13
	movq	16(%rax,%r11,8), %rdx
	.loc	0 669 5 is_stmt 0               # ldecod_src/intra4x4_pred_normal.c:669:5
	movw	%r10w, (%rdx,%r14,2)
	movw	%si, 2(%rdx,%r14,2)
	movw	%cx, 4(%rdx,%r14,2)
	movw	%cx, 6(%rdx,%r14,2)
.Ltmp466:
	#DEBUG_VALUE: intra4x4_hor_up_pred:joff <- [DW_OP_plus_uconst 4, DW_OP_stack_value] $r13d
	.loc	0 670 13 is_stmt 1              # ldecod_src/intra4x4_pred_normal.c:670:13
	movq	24(%rax,%r11,8), %rax
.Ltmp467:
	.loc	0 670 5 is_stmt 0               # ldecod_src/intra4x4_pred_normal.c:670:5
	movd	%ecx, %xmm0
	pshuflw	$0, %xmm0, %xmm0                # xmm0 = xmm0[0,0,0,0,4,5,6,7]
	movq	%xmm0, (%rax,%r14,2)
	jmp	.LBB0_134
.Ltmp468:
.LBB0_132:                              # %cond.false49.i517
	#DEBUG_VALUE: intra4x4_pred_normal:currMB <- [DW_OP_LLVM_entry_value 1] $rdi
	#DEBUG_VALUE: intra4x4_pred_normal:pl <- [DW_OP_plus_uconst 40] [$rsp+0]
	#DEBUG_VALUE: intra4x4_pred_normal:ioff <- [DW_OP_plus_uconst 48] [$rsp+0]
	#DEBUG_VALUE: intra4x4_pred_normal:joff <- [DW_OP_plus_uconst 16] [$rsp+0]
	#DEBUG_VALUE: intra4x4_pred_normal:img_block_x <- [DW_OP_LLVM_entry_value 1] $r8d
	#DEBUG_VALUE: intra4x4_pred_normal:img_block_y <- [DW_OP_LLVM_entry_value 1] $r9d
	#DEBUG_VALUE: intra4x4_pred_normal:p_Vid <- $rbx
	#DEBUG_VALUE: intra4x4_hor_down_pred:pix_d <- [DW_OP_plus_uconst 64, DW_OP_deref] $rsp
	#DEBUG_VALUE: intra4x4_hor_down_pred:pl <- [DW_OP_plus_uconst 40, DW_OP_deref] $rsp
	#DEBUG_VALUE: intra4x4_hor_down_pred:ioff <- [DW_OP_plus_uconst 48, DW_OP_deref] $rsp
	#DEBUG_VALUE: intra4x4_hor_down_pred:joff <- [DW_OP_plus_uconst 16, DW_OP_deref] $rsp
	#DEBUG_VALUE: intra4x4_hor_down_pred:currSlice <- [DW_OP_plus_uconst 56, DW_OP_deref] $rsp
	#DEBUG_VALUE: intra4x4_hor_down_pred:p_Vid <- $rbx
	#DEBUG_VALUE: intra4x4_hor_down_pred:block_available_up <- $ecx
	.loc	0 722 92 is_stmt 1              # ldecod_src/intra4x4_pred_normal.c:722:92
	subq	$-128, %rax
	movq	%rax, %rcx
.Ltmp469:
.LBB0_133:                              # %cond.end52.i
	#DEBUG_VALUE: intra4x4_pred_normal:currMB <- [DW_OP_LLVM_entry_value 1] $rdi
	#DEBUG_VALUE: intra4x4_pred_normal:pl <- [DW_OP_plus_uconst 40] [$rsp+0]
	#DEBUG_VALUE: intra4x4_pred_normal:ioff <- [DW_OP_plus_uconst 48] [$rsp+0]
	#DEBUG_VALUE: intra4x4_pred_normal:joff <- [DW_OP_plus_uconst 16] [$rsp+0]
	#DEBUG_VALUE: intra4x4_pred_normal:img_block_x <- [DW_OP_LLVM_entry_value 1] $r8d
	#DEBUG_VALUE: intra4x4_pred_normal:img_block_y <- [DW_OP_LLVM_entry_value 1] $r9d
	#DEBUG_VALUE: intra4x4_pred_normal:p_Vid <- $rbx
	#DEBUG_VALUE: intra4x4_hor_down_pred:pix_d <- [DW_OP_plus_uconst 64, DW_OP_deref] $rsp
	#DEBUG_VALUE: intra4x4_hor_down_pred:pl <- [DW_OP_plus_uconst 40, DW_OP_deref] $rsp
	#DEBUG_VALUE: intra4x4_hor_down_pred:ioff <- [DW_OP_plus_uconst 48, DW_OP_deref] $rsp
	#DEBUG_VALUE: intra4x4_hor_down_pred:joff <- [DW_OP_plus_uconst 16, DW_OP_deref] $rsp
	#DEBUG_VALUE: intra4x4_hor_down_pred:currSlice <- [DW_OP_plus_uconst 56, DW_OP_deref] $rsp
	#DEBUG_VALUE: intra4x4_hor_down_pred:p_Vid <- $rbx
	.loc	0 722 21 is_stmt 0              # ldecod_src/intra4x4_pred_normal.c:722:21
	movq	(%rcx), %r8
.Ltmp470:
	#DEBUG_VALUE: imgY <- $r8
	.loc	0 723 35 is_stmt 1              # ldecod_src/intra4x4_pred_normal.c:723:35
	movq	1248(%rdi), %rax
	.loc	0 723 24 is_stmt 0              # ldecod_src/intra4x4_pred_normal.c:723:24
	movl	%edx, %ecx
	movq	(%rax,%rcx,8), %rax
.Ltmp471:
	#DEBUG_VALUE: mb_pred <- $rax
	.loc	0 725 37 is_stmt 1              # ldecod_src/intra4x4_pred_normal.c:725:37
	movswq	14(%rsp), %rsi
.Ltmp472:
	#DEBUG_VALUE: img_pred <- undef
	.loc	0 726 23                        # ldecod_src/intra4x4_pred_normal.c:726:23
	movswq	12(%rsp), %rbx
.Ltmp473:
	#DEBUG_VALUE: pix_x <- undef
	.loc	0 727 36                        # ldecod_src/intra4x4_pred_normal.c:727:36
	movswq	38(%rsp), %rcx
	.loc	0 727 25 is_stmt 0              # ldecod_src/intra4x4_pred_normal.c:727:25
	movq	(%r8,%rcx,8), %rcx
	.loc	0 727 49                        # ldecod_src/intra4x4_pred_normal.c:727:49
	movswq	36(%rsp), %rdx
.Ltmp474:
	#DEBUG_VALUE: pred_pel <- undef
	.loc	0 730 18 is_stmt 1              # ldecod_src/intra4x4_pred_normal.c:730:18
	movzwl	(%rcx,%rdx,2), %r10d
.Ltmp475:
	#DEBUG_VALUE: p_a <- undef
	.loc	0 731 18                        # ldecod_src/intra4x4_pred_normal.c:731:18
	movzwl	2(%rcx,%rdx,2), %r11d
.Ltmp476:
	#DEBUG_VALUE: p_b <- undef
	.loc	0 732 18                        # ldecod_src/intra4x4_pred_normal.c:732:18
	movzwl	4(%rcx,%rdx,2), %r9d
.Ltmp477:
	#DEBUG_VALUE: p_c <- undef
	.loc	0 734 20                        # ldecod_src/intra4x4_pred_normal.c:734:20
	movq	(%r8,%rsi,8), %rcx
	.loc	0 735 20                        # ldecod_src/intra4x4_pred_normal.c:735:20
	movq	8(%r8,%rsi,8), %rdx
	.loc	0 734 18                        # ldecod_src/intra4x4_pred_normal.c:734:18
	movzwl	(%rcx,%rbx,2), %edi
.Ltmp478:
	#DEBUG_VALUE: p_i <- $edi
	.loc	0 735 18                        # ldecod_src/intra4x4_pred_normal.c:735:18
	movzwl	(%rdx,%rbx,2), %ecx
.Ltmp479:
	#DEBUG_VALUE: p_j <- $ecx
	.loc	0 736 20                        # ldecod_src/intra4x4_pred_normal.c:736:20
	movq	16(%r8,%rsi,8), %rdx
	.loc	0 736 18 is_stmt 0              # ldecod_src/intra4x4_pred_normal.c:736:18
	movzwl	(%rdx,%rbx,2), %edx
.Ltmp480:
	#DEBUG_VALUE: p_k <- $edx
	.loc	0 737 20 is_stmt 1              # ldecod_src/intra4x4_pred_normal.c:737:20
	movq	24(%r8,%rsi,8), %rsi
	.loc	0 737 18 is_stmt 0              # ldecod_src/intra4x4_pred_normal.c:737:18
	movzwl	(%rsi,%rbx,2), %esi
.Ltmp481:
	#DEBUG_VALUE: p_l <- $esi
	.loc	0 739 29 is_stmt 1              # ldecod_src/intra4x4_pred_normal.c:739:29
	movswq	78(%rsp), %rbx
	.loc	0 739 18 is_stmt 0              # ldecod_src/intra4x4_pred_normal.c:739:18
	movq	(%r8,%rbx,8), %r8
.Ltmp482:
	.loc	0 739 42                        # ldecod_src/intra4x4_pred_normal.c:739:42
	movswq	76(%rsp), %rbx
	.loc	0 739 18                        # ldecod_src/intra4x4_pred_normal.c:739:18
	movzwl	(%r8,%rbx,2), %r8d
.Ltmp483:
	#DEBUG_VALUE: p_x <- $r8d
	#DEBUG_VALUE: PredPixel <- [DW_OP_LLVM_fragment 0 16] undef
	#DEBUG_VALUE: PredPixel <- [DW_OP_LLVM_fragment 16 16] undef
	#DEBUG_VALUE: PredPixel <- [DW_OP_LLVM_fragment 32 16] undef
	#DEBUG_VALUE: PredPixel <- [DW_OP_LLVM_fragment 48 16] undef
	#DEBUG_VALUE: PredPixel <- [DW_OP_LLVM_fragment 64 16] undef
	#DEBUG_VALUE: PredPixel <- [DW_OP_LLVM_fragment 80 16] undef
	.loc	0 747 46 is_stmt 1              # ldecod_src/intra4x4_pred_normal.c:747:46
	leal	(%rdi,%r8), %ebx
	incl	%ebx
	shrl	%ebx
.Ltmp484:
	#DEBUG_VALUE: PredPixel <- [DW_OP_LLVM_fragment 96 16] $bx
	#DEBUG_VALUE: PredPixel <- [DW_OP_LLVM_fragment 112 16] undef
	.loc	0 749 35                        # ldecod_src/intra4x4_pred_normal.c:749:35
	leal	(%r11,%r10,2), %r14d
.Ltmp485:
	#DEBUG_VALUE: PredPixel <- [DW_OP_LLVM_fragment 128 16] undef
	.loc	0 750 43                        # ldecod_src/intra4x4_pred_normal.c:750:43
	leal	(%r10,%r11,2), %r11d
	addl	$2, %r11d
	.loc	0 748 43                        # ldecod_src/intra4x4_pred_normal.c:748:43
	addl	%edi, %r10d
	addl	$2, %r10d
	.loc	0 748 49 is_stmt 0              # ldecod_src/intra4x4_pred_normal.c:748:49
	leal	(%r10,%r8,2), %ebp
	.loc	0 748 54                        # ldecod_src/intra4x4_pred_normal.c:748:54
	shrl	$2, %ebp
.Ltmp486:
	#DEBUG_VALUE: PredPixel <- [DW_OP_LLVM_fragment 112 16] $bp
	.loc	0 749 49 is_stmt 1              # ldecod_src/intra4x4_pred_normal.c:749:49
	addl	%r8d, %r14d
	addl	$2, %r14d
	.loc	0 749 54 is_stmt 0              # ldecod_src/intra4x4_pred_normal.c:749:54
	shrl	$2, %r14d
.Ltmp487:
	#DEBUG_VALUE: PredPixel <- [DW_OP_LLVM_fragment 128 16] $r14w
	.loc	0 750 49 is_stmt 1              # ldecod_src/intra4x4_pred_normal.c:750:49
	addl	%r9d, %r11d
.Ltmp488:
	#DEBUG_VALUE: PredPixel <- [DW_OP_LLVM_fragment 144 16] undef
	#DEBUG_VALUE: intra4x4_hor_down_pred:joff <- [DW_OP_plus_uconst 16, DW_OP_deref, DW_OP_plus_uconst 1, DW_OP_stack_value] $rsp
	.loc	0 752 13                        # ldecod_src/intra4x4_pred_normal.c:752:13
	movslq	%r15d, %r10
	movq	(%rax,%r10,8), %r15
	movslq	%r12d, %r9
	.loc	0 752 5 is_stmt 0               # ldecod_src/intra4x4_pred_normal.c:752:5
	movw	%bx, (%r15,%r9,2)
	movw	%bp, 2(%r15,%r9,2)
	movw	%r14w, 4(%r15,%r9,2)
	.loc	0 750 54 is_stmt 1              # ldecod_src/intra4x4_pred_normal.c:750:54
	shrl	$2, %r11d
.Ltmp489:
	#DEBUG_VALUE: PredPixel <- [DW_OP_LLVM_fragment 144 16] $r11w
	.loc	0 752 5                         # ldecod_src/intra4x4_pred_normal.c:752:5
	movw	%r11w, 6(%r15,%r9,2)
.Ltmp490:
	#DEBUG_VALUE: intra4x4_hor_down_pred:joff <- [DW_OP_plus_uconst 16, DW_OP_deref, DW_OP_plus_uconst 2, DW_OP_stack_value] $rsp
	.loc	0 745 46                        # ldecod_src/intra4x4_pred_normal.c:745:46
	leal	(%rdi,%rcx), %r11d
.Ltmp491:
	incl	%r11d
	shrl	%r11d
.Ltmp492:
	#DEBUG_VALUE: PredPixel <- [DW_OP_LLVM_fragment 64 16] $r11w
	.loc	0 746 43                        # ldecod_src/intra4x4_pred_normal.c:746:43
	leal	(%rcx,%rdi,2), %r14d
.Ltmp493:
	addl	$2, %r14d
	.loc	0 746 49 is_stmt 0              # ldecod_src/intra4x4_pred_normal.c:746:49
	addl	%r8d, %r14d
	.loc	0 746 54                        # ldecod_src/intra4x4_pred_normal.c:746:54
	shrl	$2, %r14d
.Ltmp494:
	#DEBUG_VALUE: PredPixel <- [DW_OP_LLVM_fragment 80 16] $r14w
	.loc	0 753 13 is_stmt 1              # ldecod_src/intra4x4_pred_normal.c:753:13
	movq	8(%rax,%r10,8), %r8
.Ltmp495:
	.loc	0 753 5 is_stmt 0               # ldecod_src/intra4x4_pred_normal.c:753:5
	movw	%r11w, (%r8,%r9,2)
	movw	%r14w, 2(%r8,%r9,2)
	movw	%bx, 4(%r8,%r9,2)
	movw	%bp, 6(%r8,%r9,2)
.Ltmp496:
	#DEBUG_VALUE: intra4x4_hor_down_pred:joff <- [DW_OP_plus_uconst 16, DW_OP_deref, DW_OP_plus_uconst 3, DW_OP_stack_value] $rsp
	.loc	0 743 46 is_stmt 1              # ldecod_src/intra4x4_pred_normal.c:743:46
	leal	(%rdx,%rcx), %r8d
	incl	%r8d
	shrl	%r8d
.Ltmp497:
	#DEBUG_VALUE: PredPixel <- [DW_OP_LLVM_fragment 32 16] $r8w
	.loc	0 744 35                        # ldecod_src/intra4x4_pred_normal.c:744:35
	leal	(%rdi,%rcx,2), %edi
.Ltmp498:
	.loc	0 744 49 is_stmt 0              # ldecod_src/intra4x4_pred_normal.c:744:49
	addl	%edx, %edi
	addl	$2, %edi
	.loc	0 744 54                        # ldecod_src/intra4x4_pred_normal.c:744:54
	shrl	$2, %edi
.Ltmp499:
