	.text
	.file	"intra16x16_pred_normal.c"
	.file	0 "/home/yjs/workspace/x264-test/src" "ldecod_src/intra16x16_pred_normal.c" md5 0xbf01fcd61da88009d4c936182735d6ef
	.file	1 "ldecod_src/inc" "frame.h" md5 0xfd6ca9e1c707932f749220576db72b57
	.file	2 "ldecod_src/inc" "io_video.h" md5 0x1141c07f1801ad27d87214c419749431
	.file	3 "ldecod_src/inc" "types.h" md5 0x64f87bd13f2911471c7313b4ac17e90c
	.file	4 "ldecod_src/inc" "defines.h" md5 0xf06de374c735b286d10ba4ea0c8c0a5d
	.file	5 "ldecod_src/inc" "typedefs.h" md5 0xe1393d024b72e653f4e6dbeffdb0b154
	.section	.rodata.cst16,"aM",@progbits,16
	.p2align	4, 0x0                          # -- Begin function intrapred_16x16_normal
.LCPI0_0:
	.long	4294967290                      # 0xfffffffa
	.long	4294967290                      # 0xfffffffa
	.long	4294967290                      # 0xfffffffa
	.long	4294967290                      # 0xfffffffa
.LCPI0_1:
	.long	4294967289                      # 0xfffffff9
	.long	4294967290                      # 0xfffffffa
	.zero	4
	.zero	4
.LCPI0_2:
	.long	6                               # 0x6
	.long	6                               # 0x6
	.long	6                               # 0x6
	.long	6                               # 0x6
.LCPI0_3:
	.long	5                               # 0x5
	.long	6                               # 0x6
	.zero	4
	.zero	4
.LCPI0_4:
	.long	4294967289                      # 0xfffffff9
	.long	4294967290                      # 0xfffffffa
	.long	0                               # 0x0
	.long	0                               # 0x0
.LCPI0_5:
	.long	5                               # 0x5
	.long	6                               # 0x6
	.long	0                               # 0x0
	.long	0                               # 0x0
	.text
	.globl	intrapred_16x16_normal
	.p2align	4, 0x90
	.type	intrapred_16x16_normal,@function
intrapred_16x16_normal:                 # @intrapred_16x16_normal
.Lfunc_begin0:
	.loc	0 328 0                         # ldecod_src/intra16x16_pred_normal.c:328:0
	.cfi_startproc
# %bb.0:                                # %entry
	#DEBUG_VALUE: intrapred_16x16_normal:currMB <- $rdi
	#DEBUG_VALUE: intrapred_16x16_normal:pl <- $esi
	#DEBUG_VALUE: intrapred_16x16_normal:predmode <- $edx
	pushq	%rbp
	.cfi_def_cfa_offset 16
	pushq	%r15
	.cfi_def_cfa_offset 24
	pushq	%r14
	.cfi_def_cfa_offset 32
	pushq	%r13
	.cfi_def_cfa_offset 40
	pushq	%r12
	.cfi_def_cfa_offset 48
	pushq	%rbx
	.cfi_def_cfa_offset 56
	subq	$56, %rsp
	.cfi_def_cfa_offset 112
	.cfi_offset %rbx, -56
	.cfi_offset %r12, -48
	.cfi_offset %r13, -40
	.cfi_offset %r14, -32
	.cfi_offset %r15, -24
	.cfi_offset %rbp, -16
	.loc	0 329 3 prologue_end            # ldecod_src/intra16x16_pred_normal.c:329:3
	cmpl	$3, %edx
	ja	.LBB0_10
.Ltmp0:
# %bb.1:                                # %entry
	#DEBUG_VALUE: intrapred_16x16_normal:currMB <- $rdi
	#DEBUG_VALUE: intrapred_16x16_normal:pl <- $esi
	#DEBUG_VALUE: intrapred_16x16_normal:predmode <- $edx
	.loc	0 0 3 is_stmt 0                 # ldecod_src/intra16x16_pred_normal.c:0:3
	movl	%esi, %ebx
	.loc	0 329 3                         # ldecod_src/intra16x16_pred_normal.c:329:3
	movl	%edx, %eax
	jmpq	*.LJTI0_0(,%rax,8)
.Ltmp1:
.LBB0_2:                                # %sw.bb
	#DEBUG_VALUE: intrapred_16x16_normal:currMB <- $rdi
	#DEBUG_VALUE: intrapred_16x16_normal:pl <- $ebx
	#DEBUG_VALUE: intrapred_16x16_normal:predmode <- $edx
	#DEBUG_VALUE: intra16x16_vert_pred:b <- [DW_OP_deref] $rsp
	#DEBUG_VALUE: intra16x16_vert_pred:currMB <- $rdi
	#DEBUG_VALUE: intra16x16_vert_pred:pl <- $ebx
	.loc	0 124 30 is_stmt 1              # ldecod_src/intra16x16_pred_normal.c:124:30
	movq	(%rdi), %r14
.Ltmp2:
	#DEBUG_VALUE: intra16x16_vert_pred:currSlice <- $r14
	.loc	0 125 36                        # ldecod_src/intra16x16_pred_normal.c:125:36
	movq	8(%rdi), %r12
.Ltmp3:
	#DEBUG_VALUE: intra16x16_vert_pred:p_Vid <- $r12
	.loc	0 129 0                         # ldecod_src/intra16x16_pred_normal.c:129:0
	movq	13520(%r14), %rax
	.loc	0 129 19 is_stmt 0              # ldecod_src/intra16x16_pred_normal.c:129:19
	testl	%ebx, %ebx
	je	.LBB0_26
.Ltmp4:
# %bb.3:                                # %cond.true.i
	#DEBUG_VALUE: intrapred_16x16_normal:currMB <- $rdi
	#DEBUG_VALUE: intrapred_16x16_normal:pl <- $ebx
	#DEBUG_VALUE: intrapred_16x16_normal:predmode <- $edx
	#DEBUG_VALUE: intra16x16_vert_pred:b <- [DW_OP_deref] $rsp
	#DEBUG_VALUE: intra16x16_vert_pred:currMB <- $rdi
	#DEBUG_VALUE: intra16x16_vert_pred:pl <- $ebx
	#DEBUG_VALUE: intra16x16_vert_pred:currSlice <- $r14
	#DEBUG_VALUE: intra16x16_vert_pred:p_Vid <- $r12
	.loc	0 129 59                        # ldecod_src/intra16x16_pred_normal.c:129:59
	leal	-1(%rbx), %ecx
	.loc	0 129 26                        # ldecod_src/intra16x16_pred_normal.c:129:26
	shlq	$3, %rcx
	addq	136(%rax), %rcx
	.loc	0 129 19                        # ldecod_src/intra16x16_pred_normal.c:129:19
	jmp	.LBB0_27
.Ltmp5:
.LBB0_4:                                # %sw.bb3
	#DEBUG_VALUE: intrapred_16x16_normal:currMB <- $rdi
	#DEBUG_VALUE: intrapred_16x16_normal:pl <- $ebx
	#DEBUG_VALUE: intrapred_16x16_normal:predmode <- $edx
	#DEBUG_VALUE: intra16x16_dc_pred:b <- [DW_OP_plus_uconst 16, DW_OP_deref] $rsp
	#DEBUG_VALUE: intra16x16_dc_pred:currMB <- $rdi
	#DEBUG_VALUE: intra16x16_dc_pred:pl <- $ebx
	.loc	0 34 30 is_stmt 1               # ldecod_src/intra16x16_pred_normal.c:34:30
	movq	(%rdi), %rbp
.Ltmp6:
	#DEBUG_VALUE: intra16x16_dc_pred:currSlice <- $rbp
	.loc	0 35 36                         # ldecod_src/intra16x16_pred_normal.c:35:36
	movq	8(%rdi), %r13
.Ltmp7:
	#DEBUG_VALUE: intra16x16_dc_pred:p_Vid <- $r13
	#DEBUG_VALUE: intra16x16_dc_pred:s0 <- 0
	#DEBUG_VALUE: intra16x16_dc_pred:s1 <- 0
	#DEBUG_VALUE: intra16x16_dc_pred:s2 <- 0
	.loc	0 41 0                          # ldecod_src/intra16x16_pred_normal.c:41:0
	movq	13520(%rbp), %rax
	.loc	0 41 19 is_stmt 0               # ldecod_src/intra16x16_pred_normal.c:41:19
	testl	%ebx, %ebx
	je	.LBB0_11
.Ltmp8:
# %bb.5:                                # %cond.true.i45
	#DEBUG_VALUE: intrapred_16x16_normal:currMB <- $rdi
	#DEBUG_VALUE: intrapred_16x16_normal:pl <- $ebx
	#DEBUG_VALUE: intrapred_16x16_normal:predmode <- $edx
	#DEBUG_VALUE: intra16x16_dc_pred:b <- [DW_OP_plus_uconst 16, DW_OP_deref] $rsp
	#DEBUG_VALUE: intra16x16_dc_pred:currMB <- $rdi
	#DEBUG_VALUE: intra16x16_dc_pred:pl <- $ebx
	#DEBUG_VALUE: intra16x16_dc_pred:currSlice <- $rbp
	#DEBUG_VALUE: intra16x16_dc_pred:p_Vid <- $r13
	#DEBUG_VALUE: intra16x16_dc_pred:s0 <- 0
	#DEBUG_VALUE: intra16x16_dc_pred:s1 <- 0
	#DEBUG_VALUE: intra16x16_dc_pred:s2 <- 0
	.loc	0 41 59                         # ldecod_src/intra16x16_pred_normal.c:41:59
	leal	-1(%rbx), %ecx
	.loc	0 41 26                         # ldecod_src/intra16x16_pred_normal.c:41:26
	shlq	$3, %rcx
	addq	136(%rax), %rcx
	.loc	0 41 19                         # ldecod_src/intra16x16_pred_normal.c:41:19
	jmp	.LBB0_12
.Ltmp9:
.LBB0_6:                                # %sw.bb5
	#DEBUG_VALUE: intrapred_16x16_normal:currMB <- $rdi
	#DEBUG_VALUE: intrapred_16x16_normal:pl <- $ebx
	#DEBUG_VALUE: intrapred_16x16_normal:predmode <- $edx
	#DEBUG_VALUE: intra16x16_plane_pred:d <- [DW_OP_plus_uconst 40, DW_OP_deref] $rsp
	#DEBUG_VALUE: intra16x16_plane_pred:currMB <- $rdi
	#DEBUG_VALUE: intra16x16_plane_pred:pl <- $ebx
	.loc	0 245 30 is_stmt 1              # ldecod_src/intra16x16_pred_normal.c:245:30
	movq	(%rdi), %r13
.Ltmp10:
	#DEBUG_VALUE: intra16x16_plane_pred:currSlice <- $r13
	.loc	0 246 36                        # ldecod_src/intra16x16_pred_normal.c:246:36
	movq	8(%rdi), %rbp
.Ltmp11:
	#DEBUG_VALUE: intra16x16_plane_pred:p_Vid <- $rbp
	#DEBUG_VALUE: intra16x16_plane_pred:ih <- 0
	#DEBUG_VALUE: intra16x16_plane_pred:iv <- 0
	.loc	0 253 0                         # ldecod_src/intra16x16_pred_normal.c:253:0
	movq	13520(%r13), %rax
	.loc	0 253 19 is_stmt 0              # ldecod_src/intra16x16_pred_normal.c:253:19
	testl	%ebx, %ebx
	je	.LBB0_19
.Ltmp12:
# %bb.7:                                # %cond.true.i83
	#DEBUG_VALUE: intrapred_16x16_normal:currMB <- $rdi
	#DEBUG_VALUE: intrapred_16x16_normal:pl <- $ebx
	#DEBUG_VALUE: intrapred_16x16_normal:predmode <- $edx
	#DEBUG_VALUE: intra16x16_plane_pred:d <- [DW_OP_plus_uconst 40, DW_OP_deref] $rsp
	#DEBUG_VALUE: intra16x16_plane_pred:currMB <- $rdi
	#DEBUG_VALUE: intra16x16_plane_pred:pl <- $ebx
	#DEBUG_VALUE: intra16x16_plane_pred:currSlice <- $r13
	#DEBUG_VALUE: intra16x16_plane_pred:p_Vid <- $rbp
	#DEBUG_VALUE: intra16x16_plane_pred:ih <- 0
	#DEBUG_VALUE: intra16x16_plane_pred:iv <- 0
	.loc	0 253 59                        # ldecod_src/intra16x16_pred_normal.c:253:59
	leal	-1(%rbx), %ecx
	.loc	0 253 26                        # ldecod_src/intra16x16_pred_normal.c:253:26
	shlq	$3, %rcx
	addq	136(%rax), %rcx
	.loc	0 253 19                        # ldecod_src/intra16x16_pred_normal.c:253:19
	jmp	.LBB0_20
.Ltmp13:
.LBB0_8:                                # %sw.bb1
	#DEBUG_VALUE: intrapred_16x16_normal:currMB <- $rdi
	#DEBUG_VALUE: intrapred_16x16_normal:pl <- $ebx
	#DEBUG_VALUE: intrapred_16x16_normal:predmode <- $edx
	#DEBUG_VALUE: intra16x16_hor_pred:a <- [DW_OP_deref] $rsp
	#DEBUG_VALUE: intra16x16_hor_pred:currMB <- $rdi
	#DEBUG_VALUE: intra16x16_hor_pred:pl <- $ebx
	.loc	0 178 30 is_stmt 1              # ldecod_src/intra16x16_pred_normal.c:178:30
	movq	(%rdi), %r15
.Ltmp14:
	#DEBUG_VALUE: intra16x16_hor_pred:currSlice <- $r15
	.loc	0 179 36                        # ldecod_src/intra16x16_pred_normal.c:179:36
	movq	8(%rdi), %r12
.Ltmp15:
	#DEBUG_VALUE: intra16x16_hor_pred:p_Vid <- $r12
	.loc	0 186 0                         # ldecod_src/intra16x16_pred_normal.c:186:0
	movq	13520(%r15), %rax
	.loc	0 186 19 is_stmt 0              # ldecod_src/intra16x16_pred_normal.c:186:19
	testl	%ebx, %ebx
	je	.LBB0_33
.Ltmp16:
# %bb.9:                                # %cond.true.i18
	#DEBUG_VALUE: intrapred_16x16_normal:currMB <- $rdi
	#DEBUG_VALUE: intrapred_16x16_normal:pl <- $ebx
	#DEBUG_VALUE: intrapred_16x16_normal:predmode <- $edx
	#DEBUG_VALUE: intra16x16_hor_pred:a <- [DW_OP_deref] $rsp
	#DEBUG_VALUE: intra16x16_hor_pred:currMB <- $rdi
	#DEBUG_VALUE: intra16x16_hor_pred:pl <- $ebx
	#DEBUG_VALUE: intra16x16_hor_pred:currSlice <- $r15
	#DEBUG_VALUE: intra16x16_hor_pred:p_Vid <- $r12
	.loc	0 186 59                        # ldecod_src/intra16x16_pred_normal.c:186:59
	leal	-1(%rbx), %ecx
	.loc	0 186 26                        # ldecod_src/intra16x16_pred_normal.c:186:26
	shlq	$3, %rcx
	addq	136(%rax), %rcx
	.loc	0 186 19                        # ldecod_src/intra16x16_pred_normal.c:186:19
	jmp	.LBB0_34
.Ltmp17:
.LBB0_10:                               # %sw.default
	#DEBUG_VALUE: intrapred_16x16_normal:currMB <- $rdi
	#DEBUG_VALUE: intrapred_16x16_normal:pl <- $esi
	#DEBUG_VALUE: intrapred_16x16_normal:predmode <- $edx
	.loc	0 345 7 is_stmt 1               # ldecod_src/intra16x16_pred_normal.c:345:7
	movl	$.L.str, %edi
.Ltmp18:
	#DEBUG_VALUE: intrapred_16x16_normal:currMB <- [DW_OP_LLVM_entry_value 1] $rdi
	movl	%edx, %esi
.Ltmp19:
	#DEBUG_VALUE: intrapred_16x16_normal:pl <- [DW_OP_LLVM_entry_value 1] $esi
	xorl	%eax, %eax
	callq	printf@PLT
.Ltmp20:
	#DEBUG_VALUE: intrapred_16x16_normal:predmode <- [DW_OP_LLVM_entry_value 1] $edx
	.loc	0 0 7 is_stmt 0                 # ldecod_src/intra16x16_pred_normal.c:0:7
	movl	$1, %eax
	jmp	.LBB0_62
.Ltmp21:
.LBB0_11:                               # %cond.false.i76
	#DEBUG_VALUE: intrapred_16x16_normal:currMB <- $rdi
	#DEBUG_VALUE: intrapred_16x16_normal:pl <- $ebx
	#DEBUG_VALUE: intrapred_16x16_normal:predmode <- $edx
	#DEBUG_VALUE: intra16x16_dc_pred:b <- [DW_OP_plus_uconst 16, DW_OP_deref] $rsp
	#DEBUG_VALUE: intra16x16_dc_pred:currMB <- $rdi
	#DEBUG_VALUE: intra16x16_dc_pred:pl <- $ebx
	#DEBUG_VALUE: intra16x16_dc_pred:currSlice <- $rbp
	#DEBUG_VALUE: intra16x16_dc_pred:p_Vid <- $r13
	#DEBUG_VALUE: intra16x16_dc_pred:s0 <- 0
	#DEBUG_VALUE: intra16x16_dc_pred:s1 <- 0
	#DEBUG_VALUE: intra16x16_dc_pred:s2 <- 0
	.loc	0 41 90 is_stmt 1               # ldecod_src/intra16x16_pred_normal.c:41:90
	subq	$-128, %rax
	movq	%rax, %rcx
.Ltmp22:
.LBB0_12:                               # %cond.end.i50
	#DEBUG_VALUE: intrapred_16x16_normal:currMB <- $rdi
	#DEBUG_VALUE: intrapred_16x16_normal:pl <- $ebx
	#DEBUG_VALUE: intrapred_16x16_normal:predmode <- $edx
	#DEBUG_VALUE: intra16x16_dc_pred:b <- [DW_OP_plus_uconst 16, DW_OP_deref] $rsp
	#DEBUG_VALUE: intra16x16_dc_pred:currMB <- $rdi
	#DEBUG_VALUE: intra16x16_dc_pred:pl <- $ebx
	#DEBUG_VALUE: intra16x16_dc_pred:currSlice <- $rbp
	#DEBUG_VALUE: intra16x16_dc_pred:p_Vid <- $r13
	#DEBUG_VALUE: intra16x16_dc_pred:s0 <- 0
	#DEBUG_VALUE: intra16x16_dc_pred:s1 <- 0
	#DEBUG_VALUE: intra16x16_dc_pred:s2 <- 0
	.loc	0 41 19 is_stmt 0               # ldecod_src/intra16x16_pred_normal.c:41:19
	movq	(%rcx), %r12
.Ltmp23:
	#DEBUG_VALUE: intra16x16_dc_pred:imgY <- $r12
	.loc	0 42 35 is_stmt 1               # ldecod_src/intra16x16_pred_normal.c:42:35
	movq	1248(%rbp), %rax
	.loc	0 42 24 is_stmt 0               # ldecod_src/intra16x16_pred_normal.c:42:24
	movl	%ebx, %ecx
	movq	%rcx, 32(%rsp)                  # 8-byte Spill
	movq	(%rax,%rcx,8), %r15
.Ltmp24:
	#DEBUG_VALUE: intra16x16_dc_pred:mb_pred <- $r15
	.loc	0 48 48 is_stmt 1               # ldecod_src/intra16x16_pred_normal.c:48:48
	leaq	849124(%r13), %rbx
.Ltmp25:
	#DEBUG_VALUE: intra16x16_dc_pred:pl <- [DW_OP_plus_uconst 32, DW_OP_deref] $rsp
	#DEBUG_VALUE: intrapred_16x16_normal:pl <- [DW_OP_plus_uconst 32] [$rsp+0]
	.loc	0 0 48 is_stmt 0                # ldecod_src/intra16x16_pred_normal.c:0:48
	movq	%rsp, %r8
	movq	%rdi, %r14
	.loc	0 48 3                          # ldecod_src/intra16x16_pred_normal.c:48:3
	movl	$-1, %esi
	xorl	%edx, %edx
.Ltmp26:
	#DEBUG_VALUE: intrapred_16x16_normal:predmode <- [DW_OP_LLVM_entry_value 1] $edx
	movq	%rbx, %rcx
	callq	getNonAffNeighbour@PLT
.Ltmp27:
	#DEBUG_VALUE: intra16x16_dc_pred:currMB <- $r14
	#DEBUG_VALUE: intrapred_16x16_normal:currMB <- $r14
	.loc	0 0 3                           # ldecod_src/intra16x16_pred_normal.c:0:3
	leaq	16(%rsp), %r8
	.loc	0 49 3 is_stmt 1                # ldecod_src/intra16x16_pred_normal.c:49:3
	movq	%r14, %rdi
	xorl	%esi, %esi
	movl	$-1, %edx
	movq	%rbx, %rcx
	callq	getNonAffNeighbour@PLT
.Ltmp28:
	.loc	0 51 15                         # ldecod_src/intra16x16_pred_normal.c:51:15
	movq	8(%r13), %rax
	.loc	0 51 8 is_stmt 0                # ldecod_src/intra16x16_pred_normal.c:51:8
	cmpl	$0, 2204(%rax)
	.loc	0 0 0                           # ldecod_src/intra16x16_pred_normal.c:0:0
	movl	16(%rsp), %eax
.Ltmp29:
	.loc	0 51 7                          # ldecod_src/intra16x16_pred_normal.c:51:7
	je	.LBB0_16
.Ltmp30:
# %bb.13:                               # %if.else.i59
	#DEBUG_VALUE: intrapred_16x16_normal:currMB <- $r14
	#DEBUG_VALUE: intrapred_16x16_normal:pl <- [DW_OP_plus_uconst 32] [$rsp+0]
	#DEBUG_VALUE: intrapred_16x16_normal:predmode <- [DW_OP_LLVM_entry_value 1] $edx
	#DEBUG_VALUE: intra16x16_dc_pred:b <- [DW_OP_plus_uconst 16, DW_OP_deref] $rsp
	#DEBUG_VALUE: intra16x16_dc_pred:currMB <- $r14
	#DEBUG_VALUE: intra16x16_dc_pred:pl <- [DW_OP_plus_uconst 32, DW_OP_deref] $rsp
	#DEBUG_VALUE: intra16x16_dc_pred:currSlice <- $rbp
	#DEBUG_VALUE: intra16x16_dc_pred:p_Vid <- $r13
	#DEBUG_VALUE: intra16x16_dc_pred:s0 <- 0
	#DEBUG_VALUE: intra16x16_dc_pred:s1 <- 0
	#DEBUG_VALUE: intra16x16_dc_pred:s2 <- 0
	#DEBUG_VALUE: intra16x16_dc_pred:imgY <- $r12
	#DEBUG_VALUE: intra16x16_dc_pred:mb_pred <- $r15
	.loc	0 58 21 is_stmt 1               # ldecod_src/intra16x16_pred_normal.c:58:21
	testl	%eax, %eax
	je	.LBB0_40
.Ltmp31:
# %bb.14:                               # %cond.end20.i
	#DEBUG_VALUE: intrapred_16x16_normal:currMB <- $r14
	#DEBUG_VALUE: intrapred_16x16_normal:pl <- [DW_OP_plus_uconst 32] [$rsp+0]
	#DEBUG_VALUE: intrapred_16x16_normal:predmode <- [DW_OP_LLVM_entry_value 1] $edx
	#DEBUG_VALUE: intra16x16_dc_pred:b <- [DW_OP_plus_uconst 16, DW_OP_deref] $rsp
	#DEBUG_VALUE: intra16x16_dc_pred:currMB <- $r14
	#DEBUG_VALUE: intra16x16_dc_pred:pl <- [DW_OP_plus_uconst 32, DW_OP_deref] $rsp
	#DEBUG_VALUE: intra16x16_dc_pred:currSlice <- $rbp
	#DEBUG_VALUE: intra16x16_dc_pred:p_Vid <- $r13
	#DEBUG_VALUE: intra16x16_dc_pred:s0 <- 0
	#DEBUG_VALUE: intra16x16_dc_pred:s1 <- 0
	#DEBUG_VALUE: intra16x16_dc_pred:s2 <- 0
	#DEBUG_VALUE: intra16x16_dc_pred:imgY <- $r12
	#DEBUG_VALUE: intra16x16_dc_pred:mb_pred <- $r15
	.loc	0 58 46 is_stmt 0               # ldecod_src/intra16x16_pred_normal.c:58:46
	movq	13544(%rbp), %rcx
	.loc	0 58 60                         # ldecod_src/intra16x16_pred_normal.c:58:60
	movslq	20(%rsp), %rax
	.loc	0 58 35                         # ldecod_src/intra16x16_pred_normal.c:58:35
	movsbl	(%rcx,%rax), %eax
.Ltmp32:
	#DEBUG_VALUE: intra16x16_dc_pred:up_avail <- $eax
	.loc	0 59 21 is_stmt 1               # ldecod_src/intra16x16_pred_normal.c:59:21
	cmpl	$0, (%rsp)
	jne	.LBB0_42
.Ltmp33:
# %bb.15:                               # %if.end.i65.thread
	#DEBUG_VALUE: intrapred_16x16_normal:currMB <- $r14
	#DEBUG_VALUE: intrapred_16x16_normal:pl <- [DW_OP_plus_uconst 32] [$rsp+0]
	#DEBUG_VALUE: intrapred_16x16_normal:predmode <- [DW_OP_LLVM_entry_value 1] $edx
	#DEBUG_VALUE: intra16x16_dc_pred:b <- [DW_OP_plus_uconst 16, DW_OP_deref] $rsp
	#DEBUG_VALUE: intra16x16_dc_pred:currMB <- $r14
	#DEBUG_VALUE: intra16x16_dc_pred:pl <- [DW_OP_plus_uconst 32, DW_OP_deref] $rsp
	#DEBUG_VALUE: intra16x16_dc_pred:currSlice <- $rbp
	#DEBUG_VALUE: intra16x16_dc_pred:p_Vid <- $r13
	#DEBUG_VALUE: intra16x16_dc_pred:s0 <- 0
	#DEBUG_VALUE: intra16x16_dc_pred:s1 <- 0
	#DEBUG_VALUE: intra16x16_dc_pred:s2 <- 0
	#DEBUG_VALUE: intra16x16_dc_pred:imgY <- $r12
	#DEBUG_VALUE: intra16x16_dc_pred:mb_pred <- $r15
	#DEBUG_VALUE: intra16x16_dc_pred:up_avail <- $eax
	.loc	0 0 21 is_stmt 0                # ldecod_src/intra16x16_pred_normal.c:0:21
	xorl	%ecx, %ecx
.Ltmp34:
	#DEBUG_VALUE: intra16x16_dc_pred:left_avail <- 0
	#DEBUG_VALUE: intra16x16_dc_pred:up_avail <- $eax
	.loc	0 63 7 is_stmt 1                # ldecod_src/intra16x16_pred_normal.c:63:7
	testb	%al, %al
.Ltmp35:
	.loc	0 63 7 is_stmt 0                # ldecod_src/intra16x16_pred_normal.c:63:7
	jne	.LBB0_43
	jmp	.LBB0_48
.Ltmp36:
.LBB0_16:                               # %if.then.i
	#DEBUG_VALUE: intrapred_16x16_normal:currMB <- $r14
	#DEBUG_VALUE: intrapred_16x16_normal:pl <- [DW_OP_plus_uconst 32] [$rsp+0]
	#DEBUG_VALUE: intrapred_16x16_normal:predmode <- [DW_OP_LLVM_entry_value 1] $edx
	#DEBUG_VALUE: intra16x16_dc_pred:b <- [DW_OP_plus_uconst 16, DW_OP_deref] $rsp
	#DEBUG_VALUE: intra16x16_dc_pred:currMB <- $r14
	#DEBUG_VALUE: intra16x16_dc_pred:pl <- [DW_OP_plus_uconst 32, DW_OP_deref] $rsp
	#DEBUG_VALUE: intra16x16_dc_pred:currSlice <- $rbp
	#DEBUG_VALUE: intra16x16_dc_pred:p_Vid <- $r13
	#DEBUG_VALUE: intra16x16_dc_pred:s0 <- 0
	#DEBUG_VALUE: intra16x16_dc_pred:s1 <- 0
	#DEBUG_VALUE: intra16x16_dc_pred:s2 <- 0
	#DEBUG_VALUE: intra16x16_dc_pred:imgY <- $r12
	#DEBUG_VALUE: intra16x16_dc_pred:mb_pred <- $r15
	#DEBUG_VALUE: intra16x16_dc_pred:up_avail <- $eax
	.loc	0 54 23 is_stmt 1               # ldecod_src/intra16x16_pred_normal.c:54:23
	movl	(%rsp), %ecx
.Ltmp37:
	#DEBUG_VALUE: intra16x16_dc_pred:left_avail <- $ecx
	#DEBUG_VALUE: intra16x16_dc_pred:left_avail <- $ecx
	#DEBUG_VALUE: intra16x16_dc_pred:up_avail <- $eax
	.loc	0 63 7                          # ldecod_src/intra16x16_pred_normal.c:63:7
	testl	%eax, %eax
.Ltmp38:
	.loc	0 63 7 is_stmt 0                # ldecod_src/intra16x16_pred_normal.c:63:7
	jne	.LBB0_43
.Ltmp39:
.LBB0_17:                               # %if.end41.i
	#DEBUG_VALUE: intrapred_16x16_normal:currMB <- $r14
	#DEBUG_VALUE: intrapred_16x16_normal:pl <- [DW_OP_plus_uconst 32] [$rsp+0]
	#DEBUG_VALUE: intrapred_16x16_normal:predmode <- [DW_OP_LLVM_entry_value 1] $edx
	#DEBUG_VALUE: intra16x16_dc_pred:b <- [DW_OP_plus_uconst 16, DW_OP_deref] $rsp
	#DEBUG_VALUE: intra16x16_dc_pred:currMB <- $r14
	#DEBUG_VALUE: intra16x16_dc_pred:pl <- [DW_OP_plus_uconst 32, DW_OP_deref] $rsp
	#DEBUG_VALUE: intra16x16_dc_pred:currSlice <- $rbp
	#DEBUG_VALUE: intra16x16_dc_pred:p_Vid <- $r13
	#DEBUG_VALUE: intra16x16_dc_pred:s0 <- 0
	#DEBUG_VALUE: intra16x16_dc_pred:s1 <- 0
	#DEBUG_VALUE: intra16x16_dc_pred:s2 <- 0
	#DEBUG_VALUE: intra16x16_dc_pred:imgY <- $r12
	#DEBUG_VALUE: intra16x16_dc_pred:mb_pred <- $r15
	#DEBUG_VALUE: intra16x16_dc_pred:up_avail <- $eax
	#DEBUG_VALUE: intra16x16_dc_pred:left_avail <- $ecx
	#DEBUG_VALUE: intra16x16_dc_pred:s1 <- 0
	.loc	0 73 7 is_stmt 1                # ldecod_src/intra16x16_pred_normal.c:73:7
	testl	%ecx, %ecx
.Ltmp40:
	.loc	0 73 7 is_stmt 0                # ldecod_src/intra16x16_pred_normal.c:73:7
	je	.LBB0_48
.Ltmp41:
# %bb.18:
	#DEBUG_VALUE: intrapred_16x16_normal:currMB <- $r14
	#DEBUG_VALUE: intrapred_16x16_normal:pl <- [DW_OP_plus_uconst 32] [$rsp+0]
	#DEBUG_VALUE: intrapred_16x16_normal:predmode <- [DW_OP_LLVM_entry_value 1] $edx
	#DEBUG_VALUE: intra16x16_dc_pred:b <- [DW_OP_plus_uconst 16, DW_OP_deref] $rsp
	#DEBUG_VALUE: intra16x16_dc_pred:currMB <- $r14
	#DEBUG_VALUE: intra16x16_dc_pred:pl <- [DW_OP_plus_uconst 32, DW_OP_deref] $rsp
	#DEBUG_VALUE: intra16x16_dc_pred:currSlice <- $rbp
	#DEBUG_VALUE: intra16x16_dc_pred:p_Vid <- $r13
	#DEBUG_VALUE: intra16x16_dc_pred:s0 <- 0
	#DEBUG_VALUE: intra16x16_dc_pred:s1 <- 0
	#DEBUG_VALUE: intra16x16_dc_pred:s2 <- 0
	#DEBUG_VALUE: intra16x16_dc_pred:imgY <- $r12
	#DEBUG_VALUE: intra16x16_dc_pred:mb_pred <- $r15
	#DEBUG_VALUE: intra16x16_dc_pred:up_avail <- $eax
	#DEBUG_VALUE: intra16x16_dc_pred:left_avail <- $ecx
	.loc	0 0 7                           # ldecod_src/intra16x16_pred_normal.c:0:7
	xorl	%eax, %eax
	movb	$1, %cl
	jmp	.LBB0_45
.Ltmp42:
.LBB0_19:                               # %cond.false.i117
	#DEBUG_VALUE: intrapred_16x16_normal:currMB <- $rdi
	#DEBUG_VALUE: intrapred_16x16_normal:pl <- $ebx
	#DEBUG_VALUE: intrapred_16x16_normal:predmode <- $edx
	#DEBUG_VALUE: intra16x16_plane_pred:d <- [DW_OP_plus_uconst 40, DW_OP_deref] $rsp
	#DEBUG_VALUE: intra16x16_plane_pred:currMB <- $rdi
	#DEBUG_VALUE: intra16x16_plane_pred:pl <- $ebx
	#DEBUG_VALUE: intra16x16_plane_pred:currSlice <- $r13
	#DEBUG_VALUE: intra16x16_plane_pred:p_Vid <- $rbp
	#DEBUG_VALUE: intra16x16_plane_pred:ih <- 0
	#DEBUG_VALUE: intra16x16_plane_pred:iv <- 0
	.loc	0 253 90 is_stmt 1              # ldecod_src/intra16x16_pred_normal.c:253:90
	subq	$-128, %rax
	movq	%rax, %rcx
.Ltmp43:
.LBB0_20:                               # %cond.end.i88
	#DEBUG_VALUE: intrapred_16x16_normal:currMB <- $rdi
	#DEBUG_VALUE: intrapred_16x16_normal:pl <- $ebx
	#DEBUG_VALUE: intrapred_16x16_normal:predmode <- $edx
	#DEBUG_VALUE: intra16x16_plane_pred:d <- [DW_OP_plus_uconst 40, DW_OP_deref] $rsp
	#DEBUG_VALUE: intra16x16_plane_pred:currMB <- $rdi
	#DEBUG_VALUE: intra16x16_plane_pred:pl <- $ebx
	#DEBUG_VALUE: intra16x16_plane_pred:currSlice <- $r13
	#DEBUG_VALUE: intra16x16_plane_pred:p_Vid <- $rbp
	#DEBUG_VALUE: intra16x16_plane_pred:ih <- 0
	#DEBUG_VALUE: intra16x16_plane_pred:iv <- 0
	.loc	0 253 19 is_stmt 0              # ldecod_src/intra16x16_pred_normal.c:253:19
	movq	(%rcx), %r12
.Ltmp44:
	#DEBUG_VALUE: intra16x16_plane_pred:imgY <- $r12
	.loc	0 254 35 is_stmt 1              # ldecod_src/intra16x16_pred_normal.c:254:35
	movq	1248(%r13), %rax
	.loc	0 254 24 is_stmt 0              # ldecod_src/intra16x16_pred_normal.c:254:24
	movl	%ebx, %ecx
	movq	(%rax,%rcx,8), %r15
.Ltmp45:
	#DEBUG_VALUE: intra16x16_plane_pred:mb_pred <- $r15
	.loc	0 256 26 is_stmt 1              # ldecod_src/intra16x16_pred_normal.c:256:26
	movl	849072(%rbp,%rcx,4), %eax
.Ltmp46:
	#DEBUG_VALUE: intra16x16_plane_pred:max_imgpel_value <- $eax
	.loc	0 0 26 is_stmt 0                # ldecod_src/intra16x16_pred_normal.c:0:26
	movl	%eax, 32(%rsp)                  # 4-byte Spill
.Ltmp47:
	#DEBUG_VALUE: intra16x16_plane_pred:max_imgpel_value <- [DW_OP_plus_uconst 32, DW_OP_deref] $rsp
	.loc	0 263 46 is_stmt 1              # ldecod_src/intra16x16_pred_normal.c:263:46
	leaq	849124(%rbp), %rbx
.Ltmp48:
	#DEBUG_VALUE: intra16x16_plane_pred:pl <- $ecx
	#DEBUG_VALUE: intrapred_16x16_normal:pl <- $ecx
	.loc	0 0 46 is_stmt 0                # ldecod_src/intra16x16_pred_normal.c:0:46
	leaq	40(%rsp), %r8
	movq	%rdi, %r14
	.loc	0 263 3                         # ldecod_src/intra16x16_pred_normal.c:263:3
	movl	$-1, %esi
	movl	$-1, %edx
.Ltmp49:
	#DEBUG_VALUE: intrapred_16x16_normal:predmode <- [DW_OP_LLVM_entry_value 1] $edx
	movq	%rbx, %rcx
.Ltmp50:
	#DEBUG_VALUE: intrapred_16x16_normal:pl <- [DW_OP_LLVM_entry_value 1] $esi
	callq	getNonAffNeighbour@PLT
.Ltmp51:
	#DEBUG_VALUE: intra16x16_plane_pred:currMB <- $r14
	#DEBUG_VALUE: intrapred_16x16_normal:currMB <- $r14
	.loc	0 0 3                           # ldecod_src/intra16x16_pred_normal.c:0:3
	movq	%rsp, %r8
	.loc	0 264 3 is_stmt 1               # ldecod_src/intra16x16_pred_normal.c:264:3
	movq	%r14, %rdi
	movl	$-1, %esi
	xorl	%edx, %edx
	movq	%rbx, %rcx
	callq	getNonAffNeighbour@PLT
.Ltmp52:
	.loc	0 0 3 is_stmt 0                 # ldecod_src/intra16x16_pred_normal.c:0:3
	leaq	16(%rsp), %r8
	.loc	0 265 3 is_stmt 1               # ldecod_src/intra16x16_pred_normal.c:265:3
	movq	%r14, %rdi
	xorl	%esi, %esi
	movl	$-1, %edx
	movq	%rbx, %rcx
	callq	getNonAffNeighbour@PLT
.Ltmp53:
	.loc	0 267 15                        # ldecod_src/intra16x16_pred_normal.c:267:15
	movq	8(%rbp), %rax
	.loc	0 267 8 is_stmt 0               # ldecod_src/intra16x16_pred_normal.c:267:8
	cmpl	$0, 2204(%rax)
	.loc	0 0 0                           # ldecod_src/intra16x16_pred_normal.c:0:0
	movl	16(%rsp), %ecx
.Ltmp54:
	.loc	0 267 7                         # ldecod_src/intra16x16_pred_normal.c:267:7
	je	.LBB0_25
.Ltmp55:
# %bb.21:                               # %if.else.i97
	#DEBUG_VALUE: intrapred_16x16_normal:currMB <- $r14
	#DEBUG_VALUE: intrapred_16x16_normal:pl <- [DW_OP_LLVM_entry_value 1] $esi
	#DEBUG_VALUE: intrapred_16x16_normal:predmode <- [DW_OP_LLVM_entry_value 1] $edx
	#DEBUG_VALUE: intra16x16_plane_pred:d <- [DW_OP_plus_uconst 40, DW_OP_deref] $rsp
	#DEBUG_VALUE: intra16x16_plane_pred:currMB <- $r14
	#DEBUG_VALUE: intra16x16_plane_pred:currSlice <- $r13
	#DEBUG_VALUE: intra16x16_plane_pred:p_Vid <- $rbp
	#DEBUG_VALUE: intra16x16_plane_pred:ih <- 0
	#DEBUG_VALUE: intra16x16_plane_pred:iv <- 0
	#DEBUG_VALUE: intra16x16_plane_pred:imgY <- $r12
	#DEBUG_VALUE: intra16x16_plane_pred:mb_pred <- $r15
	#DEBUG_VALUE: intra16x16_plane_pred:max_imgpel_value <- [DW_OP_plus_uconst 32, DW_OP_deref] $rsp
	.loc	0 275 21 is_stmt 1              # ldecod_src/intra16x16_pred_normal.c:275:21
	testl	%ecx, %ecx
	movl	$0, %esi
	je	.LBB0_23
.Ltmp56:
# %bb.22:                               # %cond.true22.i
	#DEBUG_VALUE: intrapred_16x16_normal:currMB <- $r14
	#DEBUG_VALUE: intrapred_16x16_normal:pl <- [DW_OP_LLVM_entry_value 1] $esi
	#DEBUG_VALUE: intrapred_16x16_normal:predmode <- [DW_OP_LLVM_entry_value 1] $edx
	#DEBUG_VALUE: intra16x16_plane_pred:d <- [DW_OP_plus_uconst 40, DW_OP_deref] $rsp
	#DEBUG_VALUE: intra16x16_plane_pred:currMB <- $r14
	#DEBUG_VALUE: intra16x16_plane_pred:currSlice <- $r13
	#DEBUG_VALUE: intra16x16_plane_pred:p_Vid <- $rbp
	#DEBUG_VALUE: intra16x16_plane_pred:ih <- 0
	#DEBUG_VALUE: intra16x16_plane_pred:iv <- 0
	#DEBUG_VALUE: intra16x16_plane_pred:imgY <- $r12
	#DEBUG_VALUE: intra16x16_plane_pred:mb_pred <- $r15
	#DEBUG_VALUE: intra16x16_plane_pred:max_imgpel_value <- [DW_OP_plus_uconst 32, DW_OP_deref] $rsp
	.loc	0 275 46 is_stmt 0              # ldecod_src/intra16x16_pred_normal.c:275:46
	movq	13544(%r13), %rax
	.loc	0 275 60                        # ldecod_src/intra16x16_pred_normal.c:275:60
	movslq	20(%rsp), %rcx
	.loc	0 275 35                        # ldecod_src/intra16x16_pred_normal.c:275:35
	movsbl	(%rax,%rcx), %esi
.Ltmp57:
.LBB0_23:                               # %cond.end26.i
	#DEBUG_VALUE: intrapred_16x16_normal:currMB <- $r14
	#DEBUG_VALUE: intrapred_16x16_normal:pl <- [DW_OP_LLVM_entry_value 1] $esi
	#DEBUG_VALUE: intrapred_16x16_normal:predmode <- [DW_OP_LLVM_entry_value 1] $edx
	#DEBUG_VALUE: intra16x16_plane_pred:d <- [DW_OP_plus_uconst 40, DW_OP_deref] $rsp
	#DEBUG_VALUE: intra16x16_plane_pred:currMB <- $r14
	#DEBUG_VALUE: intra16x16_plane_pred:currSlice <- $r13
	#DEBUG_VALUE: intra16x16_plane_pred:p_Vid <- $rbp
	#DEBUG_VALUE: intra16x16_plane_pred:ih <- 0
	#DEBUG_VALUE: intra16x16_plane_pred:iv <- 0
	#DEBUG_VALUE: intra16x16_plane_pred:imgY <- $r12
	#DEBUG_VALUE: intra16x16_plane_pred:mb_pred <- $r15
	#DEBUG_VALUE: intra16x16_plane_pred:max_imgpel_value <- [DW_OP_plus_uconst 32, DW_OP_deref] $rsp
	#DEBUG_VALUE: intra16x16_plane_pred:up_avail <- $esi
	.loc	0 276 21 is_stmt 1              # ldecod_src/intra16x16_pred_normal.c:276:21
	cmpl	$0, (%rsp)
	je	.LBB0_49
.Ltmp58:
# %bb.24:                               # %cond.true30.i
	#DEBUG_VALUE: intrapred_16x16_normal:currMB <- $r14
	#DEBUG_VALUE: intrapred_16x16_normal:pl <- [DW_OP_LLVM_entry_value 1] $esi
	#DEBUG_VALUE: intrapred_16x16_normal:predmode <- [DW_OP_LLVM_entry_value 1] $edx
	#DEBUG_VALUE: intra16x16_plane_pred:d <- [DW_OP_plus_uconst 40, DW_OP_deref] $rsp
	#DEBUG_VALUE: intra16x16_plane_pred:currMB <- $r14
	#DEBUG_VALUE: intra16x16_plane_pred:currSlice <- $r13
	#DEBUG_VALUE: intra16x16_plane_pred:p_Vid <- $rbp
	#DEBUG_VALUE: intra16x16_plane_pred:ih <- 0
	#DEBUG_VALUE: intra16x16_plane_pred:iv <- 0
	#DEBUG_VALUE: intra16x16_plane_pred:imgY <- $r12
	#DEBUG_VALUE: intra16x16_plane_pred:mb_pred <- $r15
	#DEBUG_VALUE: intra16x16_plane_pred:max_imgpel_value <- [DW_OP_plus_uconst 32, DW_OP_deref] $rsp
	#DEBUG_VALUE: intra16x16_plane_pred:up_avail <- $esi
	.loc	0 276 46 is_stmt 0              # ldecod_src/intra16x16_pred_normal.c:276:46
	movq	13544(%r13), %rax
	.loc	0 276 60                        # ldecod_src/intra16x16_pred_normal.c:276:60
	movslq	4(%rsp), %rcx
	.loc	0 276 35                        # ldecod_src/intra16x16_pred_normal.c:276:35
	movsbl	(%rax,%rcx), %eax
.Ltmp59:
	#DEBUG_VALUE: intra16x16_plane_pred:left_avail <- $eax
	.loc	0 277 21 is_stmt 1              # ldecod_src/intra16x16_pred_normal.c:277:21
	cmpl	$0, 40(%rsp)
	jne	.LBB0_50
	jmp	.LBB0_54
.Ltmp60:
.LBB0_25:                               # %if.then.i116
	#DEBUG_VALUE: intrapred_16x16_normal:currMB <- $r14
	#DEBUG_VALUE: intrapred_16x16_normal:pl <- [DW_OP_LLVM_entry_value 1] $esi
	#DEBUG_VALUE: intrapred_16x16_normal:predmode <- [DW_OP_LLVM_entry_value 1] $edx
	#DEBUG_VALUE: intra16x16_plane_pred:d <- [DW_OP_plus_uconst 40, DW_OP_deref] $rsp
	#DEBUG_VALUE: intra16x16_plane_pred:currMB <- $r14
	#DEBUG_VALUE: intra16x16_plane_pred:currSlice <- $r13
	#DEBUG_VALUE: intra16x16_plane_pred:p_Vid <- $rbp
	#DEBUG_VALUE: intra16x16_plane_pred:ih <- 0
	#DEBUG_VALUE: intra16x16_plane_pred:iv <- 0
	#DEBUG_VALUE: intra16x16_plane_pred:imgY <- $r12
	#DEBUG_VALUE: intra16x16_plane_pred:mb_pred <- $r15
	#DEBUG_VALUE: intra16x16_plane_pred:max_imgpel_value <- [DW_OP_plus_uconst 32, DW_OP_deref] $rsp
	#DEBUG_VALUE: intra16x16_plane_pred:up_avail <- $ecx
	.loc	0 270 23                        # ldecod_src/intra16x16_pred_normal.c:270:23
	movl	(%rsp), %eax
.Ltmp61:
	#DEBUG_VALUE: intra16x16_plane_pred:left_avail <- $eax
	.loc	0 271 23                        # ldecod_src/intra16x16_pred_normal.c:271:23
	movl	40(%rsp), %edx
.Ltmp62:
	#DEBUG_VALUE: intra16x16_plane_pred:left_up_avail <- $edx
	.loc	0 272 3                         # ldecod_src/intra16x16_pred_normal.c:272:3
	jmp	.LBB0_51
.Ltmp63:
.LBB0_26:                               # %cond.false.i
	#DEBUG_VALUE: intrapred_16x16_normal:currMB <- $rdi
	#DEBUG_VALUE: intrapred_16x16_normal:pl <- $ebx
	#DEBUG_VALUE: intrapred_16x16_normal:predmode <- $edx
	#DEBUG_VALUE: intra16x16_vert_pred:b <- [DW_OP_deref] $rsp
	#DEBUG_VALUE: intra16x16_vert_pred:currMB <- $rdi
	#DEBUG_VALUE: intra16x16_vert_pred:pl <- $ebx
	#DEBUG_VALUE: intra16x16_vert_pred:currSlice <- $r14
	#DEBUG_VALUE: intra16x16_vert_pred:p_Vid <- $r12
	.loc	0 129 90                        # ldecod_src/intra16x16_pred_normal.c:129:90
	subq	$-128, %rax
	movq	%rax, %rcx
.Ltmp64:
.LBB0_27:                               # %cond.end.i
	#DEBUG_VALUE: intrapred_16x16_normal:currMB <- $rdi
	#DEBUG_VALUE: intrapred_16x16_normal:pl <- $ebx
	#DEBUG_VALUE: intrapred_16x16_normal:predmode <- $edx
	#DEBUG_VALUE: intra16x16_vert_pred:b <- [DW_OP_deref] $rsp
	#DEBUG_VALUE: intra16x16_vert_pred:currMB <- $rdi
	#DEBUG_VALUE: intra16x16_vert_pred:pl <- $ebx
	#DEBUG_VALUE: intra16x16_vert_pred:currSlice <- $r14
	#DEBUG_VALUE: intra16x16_vert_pred:p_Vid <- $r12
	.loc	0 129 19 is_stmt 0              # ldecod_src/intra16x16_pred_normal.c:129:19
	movq	(%rcx), %r15
.Ltmp65:
	#DEBUG_VALUE: intra16x16_vert_pred:imgY <- $r15
	.loc	0 136 50 is_stmt 1              # ldecod_src/intra16x16_pred_normal.c:136:50
	leaq	849124(%r12), %rcx
	movq	%rsp, %r8
	.loc	0 136 3 is_stmt 0               # ldecod_src/intra16x16_pred_normal.c:136:3
	xorl	%esi, %esi
	movl	$-1, %edx
.Ltmp66:
	#DEBUG_VALUE: intrapred_16x16_normal:predmode <- [DW_OP_LLVM_entry_value 1] $edx
	callq	*856744(%r12)
.Ltmp67:
	#DEBUG_VALUE: intrapred_16x16_normal:currMB <- [DW_OP_LLVM_entry_value 1] $rdi
	.loc	0 138 15 is_stmt 1              # ldecod_src/intra16x16_pred_normal.c:138:15
	movq	8(%r12), %rax
	.loc	0 138 8 is_stmt 0               # ldecod_src/intra16x16_pred_normal.c:138:8
	cmpl	$0, 2204(%rax)
	.loc	0 0 0                           # ldecod_src/intra16x16_pred_normal.c:0:0
	movl	(%rsp), %eax
.Ltmp68:
	.loc	0 138 7                         # ldecod_src/intra16x16_pred_normal.c:138:7
	je	.LBB0_30
.Ltmp69:
# %bb.28:                               # %if.else.i
	#DEBUG_VALUE: intrapred_16x16_normal:currMB <- [DW_OP_LLVM_entry_value 1] $rdi
	#DEBUG_VALUE: intrapred_16x16_normal:pl <- $ebx
	#DEBUG_VALUE: intrapred_16x16_normal:predmode <- [DW_OP_LLVM_entry_value 1] $edx
	#DEBUG_VALUE: intra16x16_vert_pred:b <- [DW_OP_deref] $rsp
	#DEBUG_VALUE: intra16x16_vert_pred:pl <- $ebx
	#DEBUG_VALUE: intra16x16_vert_pred:currSlice <- $r14
	#DEBUG_VALUE: intra16x16_vert_pred:p_Vid <- $r12
	#DEBUG_VALUE: intra16x16_vert_pred:imgY <- $r15
	.loc	0 144 16 is_stmt 1              # ldecod_src/intra16x16_pred_normal.c:144:16
	testl	%eax, %eax
	je	.LBB0_31
.Ltmp70:
# %bb.29:                               # %cond.true8.i
	#DEBUG_VALUE: intrapred_16x16_normal:currMB <- [DW_OP_LLVM_entry_value 1] $rdi
	#DEBUG_VALUE: intrapred_16x16_normal:pl <- $ebx
	#DEBUG_VALUE: intrapred_16x16_normal:predmode <- [DW_OP_LLVM_entry_value 1] $edx
	#DEBUG_VALUE: intra16x16_vert_pred:b <- [DW_OP_deref] $rsp
	#DEBUG_VALUE: intra16x16_vert_pred:pl <- $ebx
	#DEBUG_VALUE: intra16x16_vert_pred:currSlice <- $r14
	#DEBUG_VALUE: intra16x16_vert_pred:p_Vid <- $r12
	#DEBUG_VALUE: intra16x16_vert_pred:imgY <- $r15
	.loc	0 144 41 is_stmt 0              # ldecod_src/intra16x16_pred_normal.c:144:41
	movq	13544(%r14), %rax
	.loc	0 144 55                        # ldecod_src/intra16x16_pred_normal.c:144:55
	movslq	4(%rsp), %rcx
	.loc	0 144 30                        # ldecod_src/intra16x16_pred_normal.c:144:30
	movsbl	(%rax,%rcx), %eax
.Ltmp71:
.LBB0_30:                               # %if.end.i
	#DEBUG_VALUE: intrapred_16x16_normal:currMB <- [DW_OP_LLVM_entry_value 1] $rdi
	#DEBUG_VALUE: intrapred_16x16_normal:pl <- $ebx
	#DEBUG_VALUE: intrapred_16x16_normal:predmode <- [DW_OP_LLVM_entry_value 1] $edx
	#DEBUG_VALUE: intra16x16_vert_pred:b <- [DW_OP_deref] $rsp
	#DEBUG_VALUE: intra16x16_vert_pred:pl <- $ebx
	#DEBUG_VALUE: intra16x16_vert_pred:currSlice <- $r14
	#DEBUG_VALUE: intra16x16_vert_pred:p_Vid <- $r12
	#DEBUG_VALUE: intra16x16_vert_pred:imgY <- $r15
	#DEBUG_VALUE: intra16x16_vert_pred:up_avail <- $eax
	.loc	0 147 8 is_stmt 1               # ldecod_src/intra16x16_pred_normal.c:147:8
	testl	%eax, %eax
.Ltmp72:
	.loc	0 147 7 is_stmt 0               # ldecod_src/intra16x16_pred_normal.c:147:7
	jne	.LBB0_32
.Ltmp73:
.LBB0_31:                               # %if.then15.i
	#DEBUG_VALUE: intrapred_16x16_normal:currMB <- [DW_OP_LLVM_entry_value 1] $rdi
	#DEBUG_VALUE: intrapred_16x16_normal:pl <- $ebx
	#DEBUG_VALUE: intrapred_16x16_normal:predmode <- [DW_OP_LLVM_entry_value 1] $edx
	#DEBUG_VALUE: intra16x16_vert_pred:b <- [DW_OP_deref] $rsp
	#DEBUG_VALUE: intra16x16_vert_pred:pl <- $ebx
	#DEBUG_VALUE: intra16x16_vert_pred:currSlice <- $r14
	#DEBUG_VALUE: intra16x16_vert_pred:p_Vid <- $r12
	#DEBUG_VALUE: intra16x16_vert_pred:imgY <- $r15
	.loc	0 148 5 is_stmt 1               # ldecod_src/intra16x16_pred_normal.c:148:5
	movl	$.L.str.1, %edi
	movl	$500, %esi                      # imm = 0x1F4
	callq	error@PLT
.Ltmp74:
.LBB0_32:                               # %intra16x16_vert_pred.exit
	#DEBUG_VALUE: intrapred_16x16_normal:currMB <- [DW_OP_LLVM_entry_value 1] $rdi
	#DEBUG_VALUE: intrapred_16x16_normal:pl <- $ebx
	#DEBUG_VALUE: intrapred_16x16_normal:predmode <- [DW_OP_LLVM_entry_value 1] $edx
	#DEBUG_VALUE: intra16x16_vert_pred:b <- [DW_OP_deref] $rsp
	#DEBUG_VALUE: intra16x16_vert_pred:pl <- $ebx
	#DEBUG_VALUE: intra16x16_vert_pred:currSlice <- $r14
	#DEBUG_VALUE: intra16x16_vert_pred:p_Vid <- $r12
	#DEBUG_VALUE: intra16x16_vert_pred:imgY <- $r15
	.loc	0 150 32                        # ldecod_src/intra16x16_pred_normal.c:150:32
	movq	1248(%r14), %rax
	.loc	0 150 21 is_stmt 0              # ldecod_src/intra16x16_pred_normal.c:150:21
	movl	%ebx, %ecx
	movq	(%rax,%rcx,8), %rax
.Ltmp75:
	#DEBUG_VALUE: prd <- $rax
	.loc	0 151 28 is_stmt 1              # ldecod_src/intra16x16_pred_normal.c:151:28
	movswq	14(%rsp), %rcx
	.loc	0 151 21 is_stmt 0              # ldecod_src/intra16x16_pred_normal.c:151:21
	movq	(%r15,%rcx,8), %rcx
	.loc	0 151 37                        # ldecod_src/intra16x16_pred_normal.c:151:37
	movswq	12(%rsp), %rdx
.Ltmp76:
	#DEBUG_VALUE: intra16x16_vert_pred:j <- 0
	#DEBUG_VALUE: src <- undef
	#DEBUG_VALUE: prd <- [DW_OP_plus_uconst 8, DW_OP_stack_value] $rax
	.loc	0 155 14 is_stmt 1              # ldecod_src/intra16x16_pred_normal.c:155:14
	movq	(%rax), %rsi
	.loc	0 155 7 is_stmt 0               # ldecod_src/intra16x16_pred_normal.c:155:7
	movups	(%rcx,%rdx,2), %xmm0
	movups	16(%rcx,%rdx,2), %xmm1
	movups	%xmm1, 16(%rsi)
	movups	%xmm0, (%rsi)
.Ltmp77:
	#DEBUG_VALUE: prd <- [DW_OP_plus_uconst 16, DW_OP_stack_value] $rax
	.loc	0 156 14 is_stmt 1              # ldecod_src/intra16x16_pred_normal.c:156:14
	movq	8(%rax), %rsi
	.loc	0 156 7 is_stmt 0               # ldecod_src/intra16x16_pred_normal.c:156:7
	movups	(%rcx,%rdx,2), %xmm0
	movups	16(%rcx,%rdx,2), %xmm1
	movups	%xmm1, 16(%rsi)
	movups	%xmm0, (%rsi)
.Ltmp78:
	#DEBUG_VALUE: prd <- [DW_OP_plus_uconst 24, DW_OP_stack_value] $rax
	.loc	0 157 14 is_stmt 1              # ldecod_src/intra16x16_pred_normal.c:157:14
	movq	16(%rax), %rsi
	.loc	0 157 7 is_stmt 0               # ldecod_src/intra16x16_pred_normal.c:157:7
	movups	(%rcx,%rdx,2), %xmm0
	movups	16(%rcx,%rdx,2), %xmm1
	movups	%xmm1, 16(%rsi)
	movups	%xmm0, (%rsi)
.Ltmp79:
	#DEBUG_VALUE: prd <- [DW_OP_plus_uconst 32, DW_OP_stack_value] $rax
	.loc	0 158 14 is_stmt 1              # ldecod_src/intra16x16_pred_normal.c:158:14
	movq	24(%rax), %rsi
	.loc	0 158 7 is_stmt 0               # ldecod_src/intra16x16_pred_normal.c:158:7
	movups	(%rcx,%rdx,2), %xmm0
	movups	16(%rcx,%rdx,2), %xmm1
	movups	%xmm1, 16(%rsi)
	movups	%xmm0, (%rsi)
.Ltmp80:
	#DEBUG_VALUE: intra16x16_vert_pred:j <- 4
	#DEBUG_VALUE: prd <- [DW_OP_plus_uconst 40, DW_OP_stack_value] $rax
	.loc	0 155 14 is_stmt 1              # ldecod_src/intra16x16_pred_normal.c:155:14
	movq	32(%rax), %rsi
	.loc	0 155 7 is_stmt 0               # ldecod_src/intra16x16_pred_normal.c:155:7
	movups	(%rcx,%rdx,2), %xmm0
	movups	16(%rcx,%rdx,2), %xmm1
	movups	%xmm1, 16(%rsi)
	movups	%xmm0, (%rsi)
.Ltmp81:
	#DEBUG_VALUE: prd <- [DW_OP_plus_uconst 48, DW_OP_stack_value] $rax
	.loc	0 156 14 is_stmt 1              # ldecod_src/intra16x16_pred_normal.c:156:14
	movq	40(%rax), %rsi
	.loc	0 156 7 is_stmt 0               # ldecod_src/intra16x16_pred_normal.c:156:7
	movups	(%rcx,%rdx,2), %xmm0
	movups	16(%rcx,%rdx,2), %xmm1
	movups	%xmm1, 16(%rsi)
	movups	%xmm0, (%rsi)
.Ltmp82:
	#DEBUG_VALUE: prd <- [DW_OP_plus_uconst 56, DW_OP_stack_value] $rax
	.loc	0 157 14 is_stmt 1              # ldecod_src/intra16x16_pred_normal.c:157:14
	movq	48(%rax), %rsi
	.loc	0 157 7 is_stmt 0               # ldecod_src/intra16x16_pred_normal.c:157:7
	movups	(%rcx,%rdx,2), %xmm0
	movups	16(%rcx,%rdx,2), %xmm1
	movups	%xmm1, 16(%rsi)
	movups	%xmm0, (%rsi)
.Ltmp83:
	#DEBUG_VALUE: prd <- [DW_OP_plus_uconst 64, DW_OP_stack_value] $rax
	.loc	0 158 14 is_stmt 1              # ldecod_src/intra16x16_pred_normal.c:158:14
	movq	56(%rax), %rsi
	.loc	0 158 7 is_stmt 0               # ldecod_src/intra16x16_pred_normal.c:158:7
	movups	(%rcx,%rdx,2), %xmm0
	movups	16(%rcx,%rdx,2), %xmm1
	movups	%xmm1, 16(%rsi)
	movups	%xmm0, (%rsi)
.Ltmp84:
	#DEBUG_VALUE: intra16x16_vert_pred:j <- 8
	#DEBUG_VALUE: prd <- [DW_OP_plus_uconst 72, DW_OP_stack_value] $rax
	.loc	0 155 14 is_stmt 1              # ldecod_src/intra16x16_pred_normal.c:155:14
	movq	64(%rax), %rsi
	.loc	0 155 7 is_stmt 0               # ldecod_src/intra16x16_pred_normal.c:155:7
	movups	(%rcx,%rdx,2), %xmm0
	movups	16(%rcx,%rdx,2), %xmm1
	movups	%xmm1, 16(%rsi)
	movups	%xmm0, (%rsi)
.Ltmp85:
	#DEBUG_VALUE: prd <- [DW_OP_plus_uconst 80, DW_OP_stack_value] $rax
	.loc	0 156 14 is_stmt 1              # ldecod_src/intra16x16_pred_normal.c:156:14
	movq	72(%rax), %rsi
	.loc	0 156 7 is_stmt 0               # ldecod_src/intra16x16_pred_normal.c:156:7
	movups	(%rcx,%rdx,2), %xmm0
	movups	16(%rcx,%rdx,2), %xmm1
	movups	%xmm1, 16(%rsi)
	movups	%xmm0, (%rsi)
.Ltmp86:
	#DEBUG_VALUE: prd <- [DW_OP_plus_uconst 88, DW_OP_stack_value] $rax
	.loc	0 157 14 is_stmt 1              # ldecod_src/intra16x16_pred_normal.c:157:14
	movq	80(%rax), %rsi
	.loc	0 157 7 is_stmt 0               # ldecod_src/intra16x16_pred_normal.c:157:7
	movups	(%rcx,%rdx,2), %xmm0
	movups	16(%rcx,%rdx,2), %xmm1
	movups	%xmm1, 16(%rsi)
	movups	%xmm0, (%rsi)
.Ltmp87:
	#DEBUG_VALUE: prd <- [DW_OP_plus_uconst 96, DW_OP_stack_value] $rax
	.loc	0 158 14 is_stmt 1              # ldecod_src/intra16x16_pred_normal.c:158:14
	movq	88(%rax), %rsi
	.loc	0 158 7 is_stmt 0               # ldecod_src/intra16x16_pred_normal.c:158:7
	movups	(%rcx,%rdx,2), %xmm0
	movups	16(%rcx,%rdx,2), %xmm1
	movups	%xmm1, 16(%rsi)
	movups	%xmm0, (%rsi)
.Ltmp88:
	#DEBUG_VALUE: intra16x16_vert_pred:j <- 12
	#DEBUG_VALUE: prd <- [DW_OP_plus_uconst 104, DW_OP_stack_value] $rax
	.loc	0 155 14 is_stmt 1              # ldecod_src/intra16x16_pred_normal.c:155:14
	movq	96(%rax), %rsi
	.loc	0 155 7 is_stmt 0               # ldecod_src/intra16x16_pred_normal.c:155:7
	movups	(%rcx,%rdx,2), %xmm0
	movups	16(%rcx,%rdx,2), %xmm1
	movups	%xmm1, 16(%rsi)
	movups	%xmm0, (%rsi)
.Ltmp89:
	#DEBUG_VALUE: prd <- [DW_OP_plus_uconst 112, DW_OP_stack_value] $rax
	.loc	0 156 14 is_stmt 1              # ldecod_src/intra16x16_pred_normal.c:156:14
	movq	104(%rax), %rsi
	.loc	0 156 7 is_stmt 0               # ldecod_src/intra16x16_pred_normal.c:156:7
	movups	(%rcx,%rdx,2), %xmm0
	movups	16(%rcx,%rdx,2), %xmm1
	movups	%xmm1, 16(%rsi)
	movups	%xmm0, (%rsi)
.Ltmp90:
	#DEBUG_VALUE: prd <- [DW_OP_plus_uconst 120, DW_OP_stack_value] $rax
	.loc	0 157 14 is_stmt 1              # ldecod_src/intra16x16_pred_normal.c:157:14
	movq	112(%rax), %rsi
	.loc	0 157 7 is_stmt 0               # ldecod_src/intra16x16_pred_normal.c:157:7
	movups	(%rcx,%rdx,2), %xmm0
	movups	16(%rcx,%rdx,2), %xmm1
	movups	%xmm1, 16(%rsi)
	movups	%xmm0, (%rsi)
.Ltmp91:
	#DEBUG_VALUE: prd <- [DW_OP_plus_uconst 96, DW_OP_plus_uconst 32, DW_OP_stack_value] $rax
	.loc	0 158 14 is_stmt 1              # ldecod_src/intra16x16_pred_normal.c:158:14
	movq	120(%rax), %rax
.Ltmp92:
	.loc	0 158 7 is_stmt 0               # ldecod_src/intra16x16_pred_normal.c:158:7
	movdqu	(%rcx,%rdx,2), %xmm0
	movdqu	16(%rcx,%rdx,2), %xmm1
	movdqu	%xmm1, 16(%rax)
	movdqu	%xmm0, (%rax)
.Ltmp93:
	#DEBUG_VALUE: intra16x16_vert_pred:j <- 16
	.loc	0 0 7                           # ldecod_src/intra16x16_pred_normal.c:0:7
	jmp	.LBB0_61
.Ltmp94:
.LBB0_33:                               # %cond.false.i38
	#DEBUG_VALUE: intrapred_16x16_normal:currMB <- $rdi
	#DEBUG_VALUE: intrapred_16x16_normal:pl <- $ebx
	#DEBUG_VALUE: intrapred_16x16_normal:predmode <- $edx
	#DEBUG_VALUE: intra16x16_hor_pred:a <- [DW_OP_deref] $rsp
	#DEBUG_VALUE: intra16x16_hor_pred:currMB <- $rdi
	#DEBUG_VALUE: intra16x16_hor_pred:pl <- $ebx
	#DEBUG_VALUE: intra16x16_hor_pred:currSlice <- $r15
	#DEBUG_VALUE: intra16x16_hor_pred:p_Vid <- $r12
	.loc	0 186 90 is_stmt 1              # ldecod_src/intra16x16_pred_normal.c:186:90
	subq	$-128, %rax
	movq	%rax, %rcx
.Ltmp95:
.LBB0_34:                               # %cond.end.i23
	#DEBUG_VALUE: intrapred_16x16_normal:currMB <- $rdi
	#DEBUG_VALUE: intrapred_16x16_normal:pl <- $ebx
	#DEBUG_VALUE: intrapred_16x16_normal:predmode <- $edx
	#DEBUG_VALUE: intra16x16_hor_pred:a <- [DW_OP_deref] $rsp
	#DEBUG_VALUE: intra16x16_hor_pred:currMB <- $rdi
	#DEBUG_VALUE: intra16x16_hor_pred:pl <- $ebx
	#DEBUG_VALUE: intra16x16_hor_pred:currSlice <- $r15
	#DEBUG_VALUE: intra16x16_hor_pred:p_Vid <- $r12
	.loc	0 186 19 is_stmt 0              # ldecod_src/intra16x16_pred_normal.c:186:19
	movq	(%rcx), %r14
.Ltmp96:
	#DEBUG_VALUE: intra16x16_hor_pred:imgY <- $r14
	.loc	0 187 35 is_stmt 1              # ldecod_src/intra16x16_pred_normal.c:187:35
	movq	1248(%r15), %rax
	.loc	0 187 24 is_stmt 0              # ldecod_src/intra16x16_pred_normal.c:187:24
	movl	%ebx, %ecx
	movq	(%rax,%rcx,8), %rbx
.Ltmp97:
	#DEBUG_VALUE: intra16x16_hor_pred:pl <- $ecx
	#DEBUG_VALUE: intrapred_16x16_normal:pl <- $ecx
	#DEBUG_VALUE: intra16x16_hor_pred:mb_pred <- $rbx
	.loc	0 195 45 is_stmt 1              # ldecod_src/intra16x16_pred_normal.c:195:45
	leaq	849124(%r12), %rcx
.Ltmp98:
	#DEBUG_VALUE: intra16x16_hor_pred:pl <- $esi
	#DEBUG_VALUE: intrapred_16x16_normal:pl <- $esi
	.loc	0 0 45 is_stmt 0                # ldecod_src/intra16x16_pred_normal.c:0:45
	movq	%rsp, %r8
	.loc	0 195 3                         # ldecod_src/intra16x16_pred_normal.c:195:3
	movl	$-1, %esi
.Ltmp99:
	#DEBUG_VALUE: intrapred_16x16_normal:pl <- [DW_OP_LLVM_entry_value 1] $esi
	xorl	%edx, %edx
.Ltmp100:
	#DEBUG_VALUE: intrapred_16x16_normal:predmode <- [DW_OP_LLVM_entry_value 1] $edx
	callq	getNonAffNeighbour@PLT
.Ltmp101:
	#DEBUG_VALUE: intrapred_16x16_normal:currMB <- [DW_OP_LLVM_entry_value 1] $rdi
	.loc	0 197 15 is_stmt 1              # ldecod_src/intra16x16_pred_normal.c:197:15
	movq	8(%r12), %rax
	.loc	0 197 8 is_stmt 0               # ldecod_src/intra16x16_pred_normal.c:197:8
	cmpl	$0, 2204(%rax)
	.loc	0 0 0                           # ldecod_src/intra16x16_pred_normal.c:0:0
	movl	(%rsp), %eax
.Ltmp102:
	.loc	0 197 7                         # ldecod_src/intra16x16_pred_normal.c:197:7
	je	.LBB0_37
.Ltmp103:
# %bb.35:                               # %if.else.i29
	#DEBUG_VALUE: intrapred_16x16_normal:currMB <- [DW_OP_LLVM_entry_value 1] $rdi
	#DEBUG_VALUE: intrapred_16x16_normal:pl <- [DW_OP_LLVM_entry_value 1] $esi
	#DEBUG_VALUE: intrapred_16x16_normal:predmode <- [DW_OP_LLVM_entry_value 1] $edx
	#DEBUG_VALUE: intra16x16_hor_pred:a <- [DW_OP_deref] $rsp
	#DEBUG_VALUE: intra16x16_hor_pred:currSlice <- $r15
	#DEBUG_VALUE: intra16x16_hor_pred:p_Vid <- $r12
	#DEBUG_VALUE: intra16x16_hor_pred:imgY <- $r14
	#DEBUG_VALUE: intra16x16_hor_pred:mb_pred <- $rbx
	.loc	0 203 19 is_stmt 1              # ldecod_src/intra16x16_pred_normal.c:203:19
	testl	%eax, %eax
	je	.LBB0_38
.Ltmp104:
# %bb.36:                               # %cond.true12.i
	#DEBUG_VALUE: intrapred_16x16_normal:currMB <- [DW_OP_LLVM_entry_value 1] $rdi
	#DEBUG_VALUE: intrapred_16x16_normal:pl <- [DW_OP_LLVM_entry_value 1] $esi
	#DEBUG_VALUE: intrapred_16x16_normal:predmode <- [DW_OP_LLVM_entry_value 1] $edx
	#DEBUG_VALUE: intra16x16_hor_pred:a <- [DW_OP_deref] $rsp
	#DEBUG_VALUE: intra16x16_hor_pred:currSlice <- $r15
	#DEBUG_VALUE: intra16x16_hor_pred:p_Vid <- $r12
	#DEBUG_VALUE: intra16x16_hor_pred:imgY <- $r14
	#DEBUG_VALUE: intra16x16_hor_pred:mb_pred <- $rbx
	.loc	0 203 44 is_stmt 0              # ldecod_src/intra16x16_pred_normal.c:203:44
	movq	13544(%r15), %rax
	.loc	0 203 58                        # ldecod_src/intra16x16_pred_normal.c:203:58
	movslq	4(%rsp), %rcx
	.loc	0 203 33                        # ldecod_src/intra16x16_pred_normal.c:203:33
	movsbl	(%rax,%rcx), %eax
.Ltmp105:
.LBB0_37:                               # %if.end.i33
	#DEBUG_VALUE: intrapred_16x16_normal:currMB <- [DW_OP_LLVM_entry_value 1] $rdi
	#DEBUG_VALUE: intrapred_16x16_normal:pl <- [DW_OP_LLVM_entry_value 1] $esi
	#DEBUG_VALUE: intrapred_16x16_normal:predmode <- [DW_OP_LLVM_entry_value 1] $edx
	#DEBUG_VALUE: intra16x16_hor_pred:a <- [DW_OP_deref] $rsp
	#DEBUG_VALUE: intra16x16_hor_pred:currSlice <- $r15
	#DEBUG_VALUE: intra16x16_hor_pred:p_Vid <- $r12
	#DEBUG_VALUE: intra16x16_hor_pred:imgY <- $r14
	#DEBUG_VALUE: intra16x16_hor_pred:mb_pred <- $rbx
	#DEBUG_VALUE: intra16x16_hor_pred:left_avail <- $eax
	.loc	0 206 8 is_stmt 1               # ldecod_src/intra16x16_pred_normal.c:206:8
	testl	%eax, %eax
.Ltmp106:
	.loc	0 206 7 is_stmt 0               # ldecod_src/intra16x16_pred_normal.c:206:7
	jne	.LBB0_39
.Ltmp107:
.LBB0_38:                               # %if.then19.i
	#DEBUG_VALUE: intrapred_16x16_normal:currMB <- [DW_OP_LLVM_entry_value 1] $rdi
	#DEBUG_VALUE: intrapred_16x16_normal:pl <- [DW_OP_LLVM_entry_value 1] $esi
	#DEBUG_VALUE: intrapred_16x16_normal:predmode <- [DW_OP_LLVM_entry_value 1] $edx
	#DEBUG_VALUE: intra16x16_hor_pred:a <- [DW_OP_deref] $rsp
	#DEBUG_VALUE: intra16x16_hor_pred:currSlice <- $r15
	#DEBUG_VALUE: intra16x16_hor_pred:p_Vid <- $r12
	#DEBUG_VALUE: intra16x16_hor_pred:imgY <- $r14
	#DEBUG_VALUE: intra16x16_hor_pred:mb_pred <- $rbx
	.loc	0 207 5 is_stmt 1               # ldecod_src/intra16x16_pred_normal.c:207:5
	movl	$.L.str.2, %edi
	movl	$500, %esi                      # imm = 0x1F4
	callq	error@PLT
.Ltmp108:
.LBB0_39:                               # %for.body.i
	#DEBUG_VALUE: intrapred_16x16_normal:currMB <- [DW_OP_LLVM_entry_value 1] $rdi
	#DEBUG_VALUE: intrapred_16x16_normal:pl <- [DW_OP_LLVM_entry_value 1] $esi
	#DEBUG_VALUE: intrapred_16x16_normal:predmode <- [DW_OP_LLVM_entry_value 1] $edx
	#DEBUG_VALUE: intra16x16_hor_pred:a <- [DW_OP_deref] $rsp
	#DEBUG_VALUE: intra16x16_hor_pred:currSlice <- $r15
	#DEBUG_VALUE: intra16x16_hor_pred:p_Vid <- $r12
	#DEBUG_VALUE: intra16x16_hor_pred:imgY <- $r14
	#DEBUG_VALUE: intra16x16_hor_pred:mb_pred <- $rbx
	#DEBUG_VALUE: intra16x16_hor_pred:pos_x <- undef
	#DEBUG_VALUE: intra16x16_hor_pred:pos_y <- undef
	#DEBUG_VALUE: intra16x16_hor_pred:j <- 0
	.loc	0 209 13                        # ldecod_src/intra16x16_pred_normal.c:209:13
	movswq	14(%rsp), %rax
	.loc	0 210 13                        # ldecod_src/intra16x16_pred_normal.c:210:13
	movswq	12(%rsp), %rcx
	#DEBUG_VALUE: intra16x16_hor_pred:j <- 0
.Ltmp109:
	#DEBUG_VALUE: intra16x16_hor_pred:pos_y <- $rax
	.loc	0 214 19                        # ldecod_src/intra16x16_pred_normal.c:214:19
	movq	(%rbx), %rdx
.Ltmp110:
	#DEBUG_VALUE: prd <- $rdx
	#DEBUG_VALUE: intra16x16_hor_pred:pos_y <- [DW_OP_plus_uconst 1, DW_OP_stack_value] $rax
	.loc	0 215 18                        # ldecod_src/intra16x16_pred_normal.c:215:18
	movq	(%r14,%rax,8), %rsi
.Ltmp111:
	#DEBUG_VALUE: intra16x16_hor_pred:prediction <- undef
	#DEBUG_VALUE: intra16x16_hor_pred:i <- 4
	#DEBUG_VALUE: prd <- [DW_OP_plus_uconst 14, DW_OP_stack_value] $rdx
	#DEBUG_VALUE: prd <- [DW_OP_plus_uconst 16, DW_OP_stack_value] $rdx
	.loc	0 221 13                        # ldecod_src/intra16x16_pred_normal.c:221:13
	movzwl	(%rsi,%rcx,2), %esi
	movd	%esi, %xmm0
	pshuflw	$0, %xmm0, %xmm0                # xmm0 = xmm0[0,0,0,0,4,5,6,7]
	pshufd	$0, %xmm0, %xmm0                # xmm0 = xmm0[0,0,0,0]
	movdqu	%xmm0, (%rdx)
.Ltmp112:
	#DEBUG_VALUE: intra16x16_hor_pred:i <- 12
	#DEBUG_VALUE: prd <- [DW_OP_plus_uconst 32, DW_OP_stack_value] $rdx
	movdqu	%xmm0, 16(%rdx)
.Ltmp113:
	#DEBUG_VALUE: intra16x16_hor_pred:i <- 16
	#DEBUG_VALUE: intra16x16_hor_pred:j <- 1
	.loc	0 214 19                        # ldecod_src/intra16x16_pred_normal.c:214:19
	movq	8(%rbx), %rdx
.Ltmp114:
	#DEBUG_VALUE: prd <- $rdx
	#DEBUG_VALUE: intra16x16_hor_pred:pos_y <- [DW_OP_plus_uconst 2, DW_OP_stack_value] $rax
	.loc	0 215 18                        # ldecod_src/intra16x16_pred_normal.c:215:18
	movq	8(%r14,%rax,8), %rsi
.Ltmp115:
	#DEBUG_VALUE: intra16x16_hor_pred:i <- 4
	#DEBUG_VALUE: prd <- [DW_OP_plus_uconst 14, DW_OP_stack_value] $rdx
	#DEBUG_VALUE: prd <- [DW_OP_plus_uconst 16, DW_OP_stack_value] $rdx
	.loc	0 221 13                        # ldecod_src/intra16x16_pred_normal.c:221:13
	movzwl	(%rsi,%rcx,2), %esi
	movd	%esi, %xmm0
	pshuflw	$0, %xmm0, %xmm0                # xmm0 = xmm0[0,0,0,0,4,5,6,7]
	pshufd	$0, %xmm0, %xmm0                # xmm0 = xmm0[0,0,0,0]
	movdqu	%xmm0, (%rdx)
.Ltmp116:
	#DEBUG_VALUE: intra16x16_hor_pred:i <- 12
	#DEBUG_VALUE: prd <- [DW_OP_plus_uconst 32, DW_OP_stack_value] $rdx
	movdqu	%xmm0, 16(%rdx)
.Ltmp117:
	#DEBUG_VALUE: intra16x16_hor_pred:i <- 16
	#DEBUG_VALUE: intra16x16_hor_pred:j <- 2
	.loc	0 214 19                        # ldecod_src/intra16x16_pred_normal.c:214:19
	movq	16(%rbx), %rdx
.Ltmp118:
	#DEBUG_VALUE: prd <- $rdx
	#DEBUG_VALUE: intra16x16_hor_pred:pos_y <- [DW_OP_plus_uconst 3, DW_OP_stack_value] $rax
	.loc	0 215 18                        # ldecod_src/intra16x16_pred_normal.c:215:18
	movq	16(%r14,%rax,8), %rsi
.Ltmp119:
	#DEBUG_VALUE: intra16x16_hor_pred:i <- 4
	#DEBUG_VALUE: prd <- [DW_OP_plus_uconst 14, DW_OP_stack_value] $rdx
	#DEBUG_VALUE: prd <- [DW_OP_plus_uconst 16, DW_OP_stack_value] $rdx
	.loc	0 221 13                        # ldecod_src/intra16x16_pred_normal.c:221:13
	movzwl	(%rsi,%rcx,2), %esi
	movd	%esi, %xmm0
	pshuflw	$0, %xmm0, %xmm0                # xmm0 = xmm0[0,0,0,0,4,5,6,7]
	pshufd	$0, %xmm0, %xmm0                # xmm0 = xmm0[0,0,0,0]
	movdqu	%xmm0, (%rdx)
.Ltmp120:
	#DEBUG_VALUE: intra16x16_hor_pred:i <- 12
	#DEBUG_VALUE: prd <- [DW_OP_plus_uconst 32, DW_OP_stack_value] $rdx
	movdqu	%xmm0, 16(%rdx)
.Ltmp121:
	#DEBUG_VALUE: intra16x16_hor_pred:i <- 16
	#DEBUG_VALUE: intra16x16_hor_pred:j <- 3
	.loc	0 214 19                        # ldecod_src/intra16x16_pred_normal.c:214:19
	movq	24(%rbx), %rdx
.Ltmp122:
	#DEBUG_VALUE: prd <- $rdx
	#DEBUG_VALUE: intra16x16_hor_pred:pos_y <- [DW_OP_plus_uconst 4, DW_OP_stack_value] $rax
	.loc	0 215 18                        # ldecod_src/intra16x16_pred_normal.c:215:18
	movq	24(%r14,%rax,8), %rsi
.Ltmp123:
	#DEBUG_VALUE: intra16x16_hor_pred:i <- 4
	#DEBUG_VALUE: prd <- [DW_OP_plus_uconst 14, DW_OP_stack_value] $rdx
	#DEBUG_VALUE: prd <- [DW_OP_plus_uconst 16, DW_OP_stack_value] $rdx
	.loc	0 221 13                        # ldecod_src/intra16x16_pred_normal.c:221:13
	movzwl	(%rsi,%rcx,2), %esi
	movd	%esi, %xmm0
	pshuflw	$0, %xmm0, %xmm0                # xmm0 = xmm0[0,0,0,0,4,5,6,7]
	pshufd	$0, %xmm0, %xmm0                # xmm0 = xmm0[0,0,0,0]
	movdqu	%xmm0, (%rdx)
.Ltmp124:
	#DEBUG_VALUE: intra16x16_hor_pred:i <- 12
	#DEBUG_VALUE: prd <- [DW_OP_plus_uconst 32, DW_OP_stack_value] $rdx
	movdqu	%xmm0, 16(%rdx)
.Ltmp125:
	#DEBUG_VALUE: intra16x16_hor_pred:i <- 16
	#DEBUG_VALUE: intra16x16_hor_pred:j <- 4
	.loc	0 214 19                        # ldecod_src/intra16x16_pred_normal.c:214:19
	movq	32(%rbx), %rdx
.Ltmp126:
	#DEBUG_VALUE: prd <- $rdx
	#DEBUG_VALUE: intra16x16_hor_pred:pos_y <- [DW_OP_plus_uconst 5, DW_OP_stack_value] $rax
	.loc	0 215 18                        # ldecod_src/intra16x16_pred_normal.c:215:18
	movq	32(%r14,%rax,8), %rsi
.Ltmp127:
	#DEBUG_VALUE: intra16x16_hor_pred:i <- 4
	#DEBUG_VALUE: prd <- [DW_OP_plus_uconst 14, DW_OP_stack_value] $rdx
	#DEBUG_VALUE: prd <- [DW_OP_plus_uconst 16, DW_OP_stack_value] $rdx
	.loc	0 221 13                        # ldecod_src/intra16x16_pred_normal.c:221:13
	movzwl	(%rsi,%rcx,2), %esi
	movd	%esi, %xmm0
	pshuflw	$0, %xmm0, %xmm0                # xmm0 = xmm0[0,0,0,0,4,5,6,7]
	pshufd	$0, %xmm0, %xmm0                # xmm0 = xmm0[0,0,0,0]
	movdqu	%xmm0, (%rdx)
.Ltmp128:
	#DEBUG_VALUE: intra16x16_hor_pred:i <- 12
	#DEBUG_VALUE: prd <- [DW_OP_plus_uconst 32, DW_OP_stack_value] $rdx
	movdqu	%xmm0, 16(%rdx)
.Ltmp129:
	#DEBUG_VALUE: intra16x16_hor_pred:i <- 16
	#DEBUG_VALUE: intra16x16_hor_pred:j <- 5
	.loc	0 214 19                        # ldecod_src/intra16x16_pred_normal.c:214:19
	movq	40(%rbx), %rdx
.Ltmp130:
	#DEBUG_VALUE: prd <- $rdx
	#DEBUG_VALUE: intra16x16_hor_pred:pos_y <- [DW_OP_plus_uconst 6, DW_OP_stack_value] $rax
	.loc	0 215 18                        # ldecod_src/intra16x16_pred_normal.c:215:18
	movq	40(%r14,%rax,8), %rsi
.Ltmp131:
	#DEBUG_VALUE: intra16x16_hor_pred:i <- 4
	#DEBUG_VALUE: prd <- [DW_OP_plus_uconst 14, DW_OP_stack_value] $rdx
	#DEBUG_VALUE: prd <- [DW_OP_plus_uconst 16, DW_OP_stack_value] $rdx
	.loc	0 221 13                        # ldecod_src/intra16x16_pred_normal.c:221:13
	movzwl	(%rsi,%rcx,2), %esi
	movd	%esi, %xmm0
	pshuflw	$0, %xmm0, %xmm0                # xmm0 = xmm0[0,0,0,0,4,5,6,7]
	pshufd	$0, %xmm0, %xmm0                # xmm0 = xmm0[0,0,0,0]
	movdqu	%xmm0, (%rdx)
.Ltmp132:
	#DEBUG_VALUE: intra16x16_hor_pred:i <- 12
	#DEBUG_VALUE: prd <- [DW_OP_plus_uconst 32, DW_OP_stack_value] $rdx
	movdqu	%xmm0, 16(%rdx)
.Ltmp133:
	#DEBUG_VALUE: intra16x16_hor_pred:i <- 16
	#DEBUG_VALUE: intra16x16_hor_pred:j <- 6
	.loc	0 214 19                        # ldecod_src/intra16x16_pred_normal.c:214:19
	movq	48(%rbx), %rdx
.Ltmp134:
	#DEBUG_VALUE: prd <- $rdx
	#DEBUG_VALUE: intra16x16_hor_pred:pos_y <- [DW_OP_plus_uconst 7, DW_OP_stack_value] $rax
	.loc	0 215 18                        # ldecod_src/intra16x16_pred_normal.c:215:18
	movq	48(%r14,%rax,8), %rsi
.Ltmp135:
	#DEBUG_VALUE: intra16x16_hor_pred:i <- 4
	#DEBUG_VALUE: prd <- [DW_OP_plus_uconst 14, DW_OP_stack_value] $rdx
	#DEBUG_VALUE: prd <- [DW_OP_plus_uconst 16, DW_OP_stack_value] $rdx
	.loc	0 221 13                        # ldecod_src/intra16x16_pred_normal.c:221:13
	movzwl	(%rsi,%rcx,2), %esi
	movd	%esi, %xmm0
	pshuflw	$0, %xmm0, %xmm0                # xmm0 = xmm0[0,0,0,0,4,5,6,7]
	pshufd	$0, %xmm0, %xmm0                # xmm0 = xmm0[0,0,0,0]
	movdqu	%xmm0, (%rdx)
.Ltmp136:
	#DEBUG_VALUE: intra16x16_hor_pred:i <- 12
	#DEBUG_VALUE: prd <- [DW_OP_plus_uconst 32, DW_OP_stack_value] $rdx
	movdqu	%xmm0, 16(%rdx)
.Ltmp137:
	#DEBUG_VALUE: intra16x16_hor_pred:i <- 16
	#DEBUG_VALUE: intra16x16_hor_pred:j <- 7
	.loc	0 214 19                        # ldecod_src/intra16x16_pred_normal.c:214:19
	movq	56(%rbx), %rdx
.Ltmp138:
	#DEBUG_VALUE: prd <- $rdx
	#DEBUG_VALUE: intra16x16_hor_pred:pos_y <- [DW_OP_plus_uconst 8, DW_OP_stack_value] $rax
	.loc	0 215 18                        # ldecod_src/intra16x16_pred_normal.c:215:18
	movq	56(%r14,%rax,8), %rsi
.Ltmp139:
	#DEBUG_VALUE: intra16x16_hor_pred:i <- 4
	#DEBUG_VALUE: prd <- [DW_OP_plus_uconst 14, DW_OP_stack_value] $rdx
	#DEBUG_VALUE: prd <- [DW_OP_plus_uconst 16, DW_OP_stack_value] $rdx
	.loc	0 221 13                        # ldecod_src/intra16x16_pred_normal.c:221:13
	movzwl	(%rsi,%rcx,2), %esi
	movd	%esi, %xmm0
	pshuflw	$0, %xmm0, %xmm0                # xmm0 = xmm0[0,0,0,0,4,5,6,7]
	pshufd	$0, %xmm0, %xmm0                # xmm0 = xmm0[0,0,0,0]
	movdqu	%xmm0, (%rdx)
.Ltmp140:
	#DEBUG_VALUE: intra16x16_hor_pred:i <- 12
	#DEBUG_VALUE: prd <- [DW_OP_plus_uconst 32, DW_OP_stack_value] $rdx
	movdqu	%xmm0, 16(%rdx)
.Ltmp141:
	#DEBUG_VALUE: intra16x16_hor_pred:i <- 16
	#DEBUG_VALUE: intra16x16_hor_pred:j <- 8
	.loc	0 214 19                        # ldecod_src/intra16x16_pred_normal.c:214:19
	movq	64(%rbx), %rdx
.Ltmp142:
	#DEBUG_VALUE: prd <- $rdx
	#DEBUG_VALUE: intra16x16_hor_pred:pos_y <- [DW_OP_plus_uconst 9, DW_OP_stack_value] $rax
	.loc	0 215 18                        # ldecod_src/intra16x16_pred_normal.c:215:18
	movq	64(%r14,%rax,8), %rsi
.Ltmp143:
	#DEBUG_VALUE: intra16x16_hor_pred:i <- 4
	#DEBUG_VALUE: prd <- [DW_OP_plus_uconst 14, DW_OP_stack_value] $rdx
	#DEBUG_VALUE: prd <- [DW_OP_plus_uconst 16, DW_OP_stack_value] $rdx
	.loc	0 221 13                        # ldecod_src/intra16x16_pred_normal.c:221:13
	movzwl	(%rsi,%rcx,2), %esi
	movd	%esi, %xmm0
	pshuflw	$0, %xmm0, %xmm0                # xmm0 = xmm0[0,0,0,0,4,5,6,7]
	pshufd	$0, %xmm0, %xmm0                # xmm0 = xmm0[0,0,0,0]
	movdqu	%xmm0, (%rdx)
.Ltmp144:
	#DEBUG_VALUE: intra16x16_hor_pred:i <- 12
	#DEBUG_VALUE: prd <- [DW_OP_plus_uconst 32, DW_OP_stack_value] $rdx
	movdqu	%xmm0, 16(%rdx)
.Ltmp145:
	#DEBUG_VALUE: intra16x16_hor_pred:i <- 16
	#DEBUG_VALUE: intra16x16_hor_pred:j <- 9
	.loc	0 214 19                        # ldecod_src/intra16x16_pred_normal.c:214:19
	movq	72(%rbx), %rdx
.Ltmp146:
	#DEBUG_VALUE: prd <- $rdx
	#DEBUG_VALUE: intra16x16_hor_pred:pos_y <- [DW_OP_plus_uconst 10, DW_OP_stack_value] $rax
	.loc	0 215 18                        # ldecod_src/intra16x16_pred_normal.c:215:18
	movq	72(%r14,%rax,8), %rsi
.Ltmp147:
	#DEBUG_VALUE: intra16x16_hor_pred:i <- 4
	#DEBUG_VALUE: prd <- [DW_OP_plus_uconst 14, DW_OP_stack_value] $rdx
	#DEBUG_VALUE: prd <- [DW_OP_plus_uconst 16, DW_OP_stack_value] $rdx
	.loc	0 221 13                        # ldecod_src/intra16x16_pred_normal.c:221:13
	movzwl	(%rsi,%rcx,2), %esi
	movd	%esi, %xmm0
	pshuflw	$0, %xmm0, %xmm0                # xmm0 = xmm0[0,0,0,0,4,5,6,7]
	pshufd	$0, %xmm0, %xmm0                # xmm0 = xmm0[0,0,0,0]
	movdqu	%xmm0, (%rdx)
.Ltmp148:
	#DEBUG_VALUE: intra16x16_hor_pred:i <- 12
	#DEBUG_VALUE: prd <- [DW_OP_plus_uconst 32, DW_OP_stack_value] $rdx
	movdqu	%xmm0, 16(%rdx)
.Ltmp149:
	#DEBUG_VALUE: intra16x16_hor_pred:i <- 16
	#DEBUG_VALUE: intra16x16_hor_pred:j <- 10
	.loc	0 214 19                        # ldecod_src/intra16x16_pred_normal.c:214:19
	movq	80(%rbx), %rdx
.Ltmp150:
	#DEBUG_VALUE: prd <- $rdx
	#DEBUG_VALUE: intra16x16_hor_pred:pos_y <- [DW_OP_plus_uconst 11, DW_OP_stack_value] $rax
	.loc	0 215 18                        # ldecod_src/intra16x16_pred_normal.c:215:18
	movq	80(%r14,%rax,8), %rsi
.Ltmp151:
	#DEBUG_VALUE: intra16x16_hor_pred:i <- 4
	#DEBUG_VALUE: prd <- [DW_OP_plus_uconst 14, DW_OP_stack_value] $rdx
	#DEBUG_VALUE: prd <- [DW_OP_plus_uconst 16, DW_OP_stack_value] $rdx
	.loc	0 221 13                        # ldecod_src/intra16x16_pred_normal.c:221:13
	movzwl	(%rsi,%rcx,2), %esi
	movd	%esi, %xmm0
	pshuflw	$0, %xmm0, %xmm0                # xmm0 = xmm0[0,0,0,0,4,5,6,7]
	pshufd	$0, %xmm0, %xmm0                # xmm0 = xmm0[0,0,0,0]
	movdqu	%xmm0, (%rdx)
.Ltmp152:
	#DEBUG_VALUE: intra16x16_hor_pred:i <- 12
	#DEBUG_VALUE: prd <- [DW_OP_plus_uconst 32, DW_OP_stack_value] $rdx
	movdqu	%xmm0, 16(%rdx)
.Ltmp153:
	#DEBUG_VALUE: intra16x16_hor_pred:i <- 16
	#DEBUG_VALUE: intra16x16_hor_pred:j <- 11
	.loc	0 214 19                        # ldecod_src/intra16x16_pred_normal.c:214:19
	movq	88(%rbx), %rdx
.Ltmp154:
	#DEBUG_VALUE: prd <- $rdx
	#DEBUG_VALUE: intra16x16_hor_pred:pos_y <- [DW_OP_plus_uconst 12, DW_OP_stack_value] $rax
	.loc	0 215 18                        # ldecod_src/intra16x16_pred_normal.c:215:18
	movq	88(%r14,%rax,8), %rsi
.Ltmp155:
	#DEBUG_VALUE: intra16x16_hor_pred:i <- 4
	#DEBUG_VALUE: prd <- [DW_OP_plus_uconst 14, DW_OP_stack_value] $rdx
	#DEBUG_VALUE: prd <- [DW_OP_plus_uconst 16, DW_OP_stack_value] $rdx
	.loc	0 221 13                        # ldecod_src/intra16x16_pred_normal.c:221:13
	movzwl	(%rsi,%rcx,2), %esi
	movd	%esi, %xmm0
	pshuflw	$0, %xmm0, %xmm0                # xmm0 = xmm0[0,0,0,0,4,5,6,7]
	pshufd	$0, %xmm0, %xmm0                # xmm0 = xmm0[0,0,0,0]
	movdqu	%xmm0, (%rdx)
.Ltmp156:
	#DEBUG_VALUE: intra16x16_hor_pred:i <- 12
	#DEBUG_VALUE: prd <- [DW_OP_plus_uconst 32, DW_OP_stack_value] $rdx
	movdqu	%xmm0, 16(%rdx)
.Ltmp157:
	#DEBUG_VALUE: intra16x16_hor_pred:i <- 16
	#DEBUG_VALUE: intra16x16_hor_pred:j <- 12
	.loc	0 214 19                        # ldecod_src/intra16x16_pred_normal.c:214:19
	movq	96(%rbx), %rdx
.Ltmp158:
	#DEBUG_VALUE: prd <- $rdx
	#DEBUG_VALUE: intra16x16_hor_pred:pos_y <- [DW_OP_plus_uconst 13, DW_OP_stack_value] $rax
	.loc	0 215 18                        # ldecod_src/intra16x16_pred_normal.c:215:18
	movq	96(%r14,%rax,8), %rsi
.Ltmp159:
	#DEBUG_VALUE: intra16x16_hor_pred:i <- 4
	#DEBUG_VALUE: prd <- [DW_OP_plus_uconst 14, DW_OP_stack_value] $rdx
	#DEBUG_VALUE: prd <- [DW_OP_plus_uconst 16, DW_OP_stack_value] $rdx
	.loc	0 221 13                        # ldecod_src/intra16x16_pred_normal.c:221:13
	movzwl	(%rsi,%rcx,2), %esi
	movd	%esi, %xmm0
	pshuflw	$0, %xmm0, %xmm0                # xmm0 = xmm0[0,0,0,0,4,5,6,7]
	pshufd	$0, %xmm0, %xmm0                # xmm0 = xmm0[0,0,0,0]
	movdqu	%xmm0, (%rdx)
.Ltmp160:
	#DEBUG_VALUE: intra16x16_hor_pred:i <- 12
	#DEBUG_VALUE: prd <- [DW_OP_plus_uconst 32, DW_OP_stack_value] $rdx
	movdqu	%xmm0, 16(%rdx)
.Ltmp161:
	#DEBUG_VALUE: intra16x16_hor_pred:i <- 16
	#DEBUG_VALUE: intra16x16_hor_pred:j <- 13
	.loc	0 214 19                        # ldecod_src/intra16x16_pred_normal.c:214:19
	movq	104(%rbx), %rdx
.Ltmp162:
	#DEBUG_VALUE: prd <- $rdx
	#DEBUG_VALUE: intra16x16_hor_pred:pos_y <- [DW_OP_plus_uconst 14, DW_OP_stack_value] $rax
	.loc	0 215 18                        # ldecod_src/intra16x16_pred_normal.c:215:18
	movq	104(%r14,%rax,8), %rsi
.Ltmp163:
	#DEBUG_VALUE: intra16x16_hor_pred:i <- 4
	#DEBUG_VALUE: prd <- [DW_OP_plus_uconst 14, DW_OP_stack_value] $rdx
	#DEBUG_VALUE: prd <- [DW_OP_plus_uconst 16, DW_OP_stack_value] $rdx
	.loc	0 221 13                        # ldecod_src/intra16x16_pred_normal.c:221:13
	movzwl	(%rsi,%rcx,2), %esi
	movd	%esi, %xmm0
	pshuflw	$0, %xmm0, %xmm0                # xmm0 = xmm0[0,0,0,0,4,5,6,7]
	pshufd	$0, %xmm0, %xmm0                # xmm0 = xmm0[0,0,0,0]
	movdqu	%xmm0, (%rdx)
.Ltmp164:
	#DEBUG_VALUE: intra16x16_hor_pred:i <- 12
	#DEBUG_VALUE: prd <- [DW_OP_plus_uconst 32, DW_OP_stack_value] $rdx
	movdqu	%xmm0, 16(%rdx)
.Ltmp165:
	#DEBUG_VALUE: intra16x16_hor_pred:i <- 16
	#DEBUG_VALUE: intra16x16_hor_pred:j <- 14
	.loc	0 214 19                        # ldecod_src/intra16x16_pred_normal.c:214:19
	movq	112(%rbx), %rdx
.Ltmp166:
	#DEBUG_VALUE: prd <- $rdx
	#DEBUG_VALUE: intra16x16_hor_pred:pos_y <- [DW_OP_plus_uconst 15, DW_OP_stack_value] $rax
	.loc	0 215 18                        # ldecod_src/intra16x16_pred_normal.c:215:18
	movq	112(%r14,%rax,8), %rsi
.Ltmp167:
	#DEBUG_VALUE: intra16x16_hor_pred:i <- 4
	#DEBUG_VALUE: prd <- [DW_OP_plus_uconst 14, DW_OP_stack_value] $rdx
	#DEBUG_VALUE: prd <- [DW_OP_plus_uconst 16, DW_OP_stack_value] $rdx
	.loc	0 221 13                        # ldecod_src/intra16x16_pred_normal.c:221:13
	movzwl	(%rsi,%rcx,2), %esi
	movd	%esi, %xmm0
	pshuflw	$0, %xmm0, %xmm0                # xmm0 = xmm0[0,0,0,0,4,5,6,7]
	pshufd	$0, %xmm0, %xmm0                # xmm0 = xmm0[0,0,0,0]
	movdqu	%xmm0, (%rdx)
.Ltmp168:
	#DEBUG_VALUE: intra16x16_hor_pred:i <- 12
	#DEBUG_VALUE: prd <- [DW_OP_plus_uconst 32, DW_OP_stack_value] $rdx
	movdqu	%xmm0, 16(%rdx)
.Ltmp169:
	#DEBUG_VALUE: intra16x16_hor_pred:i <- 16
	#DEBUG_VALUE: intra16x16_hor_pred:j <- 15
	.loc	0 214 19                        # ldecod_src/intra16x16_pred_normal.c:214:19
	movq	120(%rbx), %rdx
.Ltmp170:
	#DEBUG_VALUE: prd <- $rdx
	#DEBUG_VALUE: intra16x16_hor_pred:pos_y <- [DW_OP_plus_uconst 16, DW_OP_stack_value] $rax
	.loc	0 215 18                        # ldecod_src/intra16x16_pred_normal.c:215:18
	movq	120(%r14,%rax,8), %rax
.Ltmp171:
	#DEBUG_VALUE: intra16x16_hor_pred:i <- 4
	#DEBUG_VALUE: prd <- [DW_OP_plus_uconst 14, DW_OP_stack_value] $rdx
	#DEBUG_VALUE: prd <- [DW_OP_plus_uconst 16, DW_OP_stack_value] $rdx
	.loc	0 221 13                        # ldecod_src/intra16x16_pred_normal.c:221:13
	movzwl	(%rax,%rcx,2), %eax
	movd	%eax, %xmm0
	pshuflw	$0, %xmm0, %xmm0                # xmm0 = xmm0[0,0,0,0,4,5,6,7]
	pshufd	$0, %xmm0, %xmm0                # xmm0 = xmm0[0,0,0,0]
	movdqu	%xmm0, (%rdx)
.Ltmp172:
	#DEBUG_VALUE: intra16x16_hor_pred:i <- 12
	#DEBUG_VALUE: prd <- [DW_OP_plus_uconst 32, DW_OP_stack_value] $rdx
	movdqu	%xmm0, 16(%rdx)
.Ltmp173:
	#DEBUG_VALUE: intra16x16_hor_pred:i <- 16
	#DEBUG_VALUE: intra16x16_hor_pred:j <- 16
	.loc	0 0 13 is_stmt 0                # ldecod_src/intra16x16_pred_normal.c:0:13
	jmp	.LBB0_61
.Ltmp174:
.LBB0_40:                               # %cond.end20.i.thread
	#DEBUG_VALUE: intrapred_16x16_normal:currMB <- $r14
	#DEBUG_VALUE: intrapred_16x16_normal:pl <- [DW_OP_plus_uconst 32] [$rsp+0]
	#DEBUG_VALUE: intrapred_16x16_normal:predmode <- [DW_OP_LLVM_entry_value 1] $edx
	#DEBUG_VALUE: intra16x16_dc_pred:b <- [DW_OP_plus_uconst 16, DW_OP_deref] $rsp
	#DEBUG_VALUE: intra16x16_dc_pred:currMB <- $r14
	#DEBUG_VALUE: intra16x16_dc_pred:pl <- [DW_OP_plus_uconst 32, DW_OP_deref] $rsp
	#DEBUG_VALUE: intra16x16_dc_pred:currSlice <- $rbp
	#DEBUG_VALUE: intra16x16_dc_pred:p_Vid <- $r13
	#DEBUG_VALUE: intra16x16_dc_pred:s0 <- 0
	#DEBUG_VALUE: intra16x16_dc_pred:s1 <- 0
	#DEBUG_VALUE: intra16x16_dc_pred:s2 <- 0
	#DEBUG_VALUE: intra16x16_dc_pred:imgY <- $r12
	#DEBUG_VALUE: intra16x16_dc_pred:mb_pred <- $r15
	#DEBUG_VALUE: intra16x16_dc_pred:up_avail <- 0
	.loc	0 59 21 is_stmt 1               # ldecod_src/intra16x16_pred_normal.c:59:21
	cmpl	$0, (%rsp)
	je	.LBB0_48
.Ltmp175:
# %bb.41:                               # %cond.end20.i.thread.cond.true24.i_crit_edge
	#DEBUG_VALUE: intrapred_16x16_normal:currMB <- $r14
	#DEBUG_VALUE: intrapred_16x16_normal:pl <- [DW_OP_plus_uconst 32] [$rsp+0]
	#DEBUG_VALUE: intrapred_16x16_normal:predmode <- [DW_OP_LLVM_entry_value 1] $edx
	#DEBUG_VALUE: intra16x16_dc_pred:b <- [DW_OP_plus_uconst 16, DW_OP_deref] $rsp
	#DEBUG_VALUE: intra16x16_dc_pred:currMB <- $r14
	#DEBUG_VALUE: intra16x16_dc_pred:pl <- [DW_OP_plus_uconst 32, DW_OP_deref] $rsp
	#DEBUG_VALUE: intra16x16_dc_pred:currSlice <- $rbp
	#DEBUG_VALUE: intra16x16_dc_pred:p_Vid <- $r13
	#DEBUG_VALUE: intra16x16_dc_pred:s0 <- 0
	#DEBUG_VALUE: intra16x16_dc_pred:s1 <- 0
	#DEBUG_VALUE: intra16x16_dc_pred:s2 <- 0
	#DEBUG_VALUE: intra16x16_dc_pred:imgY <- $r12
	#DEBUG_VALUE: intra16x16_dc_pred:mb_pred <- $r15
	#DEBUG_VALUE: intra16x16_dc_pred:up_avail <- 0
	.loc	0 59 46 is_stmt 0               # ldecod_src/intra16x16_pred_normal.c:59:46
	movq	13544(%rbp), %rcx
	xorl	%eax, %eax
.Ltmp176:
.LBB0_42:                               # %cond.true24.i
	#DEBUG_VALUE: intrapred_16x16_normal:currMB <- $r14
	#DEBUG_VALUE: intrapred_16x16_normal:pl <- [DW_OP_plus_uconst 32] [$rsp+0]
	#DEBUG_VALUE: intrapred_16x16_normal:predmode <- [DW_OP_LLVM_entry_value 1] $edx
	#DEBUG_VALUE: intra16x16_dc_pred:b <- [DW_OP_plus_uconst 16, DW_OP_deref] $rsp
	#DEBUG_VALUE: intra16x16_dc_pred:currMB <- $r14
	#DEBUG_VALUE: intra16x16_dc_pred:pl <- [DW_OP_plus_uconst 32, DW_OP_deref] $rsp
	#DEBUG_VALUE: intra16x16_dc_pred:currSlice <- $rbp
	#DEBUG_VALUE: intra16x16_dc_pred:p_Vid <- $r13
	#DEBUG_VALUE: intra16x16_dc_pred:s0 <- 0
	#DEBUG_VALUE: intra16x16_dc_pred:s1 <- 0
	#DEBUG_VALUE: intra16x16_dc_pred:s2 <- 0
	#DEBUG_VALUE: intra16x16_dc_pred:imgY <- $r12
	#DEBUG_VALUE: intra16x16_dc_pred:mb_pred <- $r15
	.loc	0 59 60                         # ldecod_src/intra16x16_pred_normal.c:59:60
	movslq	4(%rsp), %rdx
	.loc	0 59 35                         # ldecod_src/intra16x16_pred_normal.c:59:35
	movsbl	(%rcx,%rdx), %ecx
.Ltmp177:
	#DEBUG_VALUE: intra16x16_dc_pred:left_avail <- $ecx
	#DEBUG_VALUE: intra16x16_dc_pred:up_avail <- $eax
	.loc	0 63 7 is_stmt 1                # ldecod_src/intra16x16_pred_normal.c:63:7
	testl	%eax, %eax
.Ltmp178:
	.loc	0 63 7 is_stmt 0                # ldecod_src/intra16x16_pred_normal.c:63:7
	je	.LBB0_17
.Ltmp179:
.LBB0_43:                               # %if.end41.i.thread
	#DEBUG_VALUE: intrapred_16x16_normal:currMB <- $r14
	#DEBUG_VALUE: intrapred_16x16_normal:pl <- [DW_OP_plus_uconst 32] [$rsp+0]
	#DEBUG_VALUE: intrapred_16x16_normal:predmode <- [DW_OP_LLVM_entry_value 1] $edx
	#DEBUG_VALUE: intra16x16_dc_pred:b <- [DW_OP_plus_uconst 16, DW_OP_deref] $rsp
	#DEBUG_VALUE: intra16x16_dc_pred:currMB <- $r14
	#DEBUG_VALUE: intra16x16_dc_pred:pl <- [DW_OP_plus_uconst 32, DW_OP_deref] $rsp
	#DEBUG_VALUE: intra16x16_dc_pred:currSlice <- $rbp
	#DEBUG_VALUE: intra16x16_dc_pred:p_Vid <- $r13
	#DEBUG_VALUE: intra16x16_dc_pred:s0 <- 0
	#DEBUG_VALUE: intra16x16_dc_pred:s1 <- 0
	#DEBUG_VALUE: intra16x16_dc_pred:s2 <- 0
	#DEBUG_VALUE: intra16x16_dc_pred:imgY <- $r12
	#DEBUG_VALUE: intra16x16_dc_pred:mb_pred <- $r15
	#DEBUG_VALUE: intra16x16_dc_pred:up_avail <- $eax
	.loc	0 65 27 is_stmt 1               # ldecod_src/intra16x16_pred_normal.c:65:27
	movswq	30(%rsp), %rax
.Ltmp180:
	.loc	0 65 20 is_stmt 0               # ldecod_src/intra16x16_pred_normal.c:65:20
	movq	(%r12,%rax,8), %rax
	.loc	0 65 36                         # ldecod_src/intra16x16_pred_normal.c:65:36
	movswq	28(%rsp), %rdx
.Ltmp181:
	#DEBUG_VALUE: intra16x16_dc_pred:s1 <- undef
	#DEBUG_VALUE: intra16x16_dc_pred:i <- 15
	#DEBUG_VALUE: pel <- undef
	.loc	0 68 13 is_stmt 1               # ldecod_src/intra16x16_pred_normal.c:68:13
	movdqu	(%rax,%rdx,2), %xmm0
	movdqu	16(%rax,%rdx,2), %xmm1
	pxor	%xmm2, %xmm2
	movdqa	%xmm1, %xmm3
	punpcklwd	%xmm2, %xmm3            # xmm3 = xmm3[0],xmm2[0],xmm3[1],xmm2[1],xmm3[2],xmm2[2],xmm3[3],xmm2[3]
	movdqa	%xmm0, %xmm4
	punpcklwd	%xmm2, %xmm4            # xmm4 = xmm4[0],xmm2[0],xmm4[1],xmm2[1],xmm4[2],xmm2[2],xmm4[3],xmm2[3]
	.loc	0 68 10 is_stmt 0               # ldecod_src/intra16x16_pred_normal.c:68:10
	paddd	%xmm3, %xmm4
	.loc	0 68 13                         # ldecod_src/intra16x16_pred_normal.c:68:13
	punpckhwd	%xmm2, %xmm1            # xmm1 = xmm1[4],xmm2[4],xmm1[5],xmm2[5],xmm1[6],xmm2[6],xmm1[7],xmm2[7]
	punpckhwd	%xmm2, %xmm0            # xmm0 = xmm0[4],xmm2[4],xmm0[5],xmm2[5],xmm0[6],xmm2[6],xmm0[7],xmm2[7]
	.loc	0 68 10                         # ldecod_src/intra16x16_pred_normal.c:68:10
	paddd	%xmm1, %xmm0
	paddd	%xmm4, %xmm0
	pshufd	$238, %xmm0, %xmm1              # xmm1 = xmm0[2,3,2,3]
	paddd	%xmm0, %xmm1
	pshufd	$85, %xmm1, %xmm0               # xmm0 = xmm1[1,1,1,1]
	paddd	%xmm1, %xmm0
	movd	%xmm0, %eax
.Ltmp182:
	#DEBUG_VALUE: intra16x16_dc_pred:s1 <- $eax
	#DEBUG_VALUE: intra16x16_dc_pred:i <- 16
	.loc	0 73 7 is_stmt 1                # ldecod_src/intra16x16_pred_normal.c:73:7
	testl	%ecx, %ecx
.Ltmp183:
	.loc	0 73 7 is_stmt 0                # ldecod_src/intra16x16_pred_normal.c:73:7
	je	.LBB0_58
.Ltmp184:
# %bb.44:
	#DEBUG_VALUE: intrapred_16x16_normal:currMB <- $r14
	#DEBUG_VALUE: intrapred_16x16_normal:pl <- [DW_OP_plus_uconst 32] [$rsp+0]
	#DEBUG_VALUE: intrapred_16x16_normal:predmode <- [DW_OP_LLVM_entry_value 1] $edx
	#DEBUG_VALUE: intra16x16_dc_pred:b <- [DW_OP_plus_uconst 16, DW_OP_deref] $rsp
	#DEBUG_VALUE: intra16x16_dc_pred:currMB <- $r14
	#DEBUG_VALUE: intra16x16_dc_pred:pl <- [DW_OP_plus_uconst 32, DW_OP_deref] $rsp
	#DEBUG_VALUE: intra16x16_dc_pred:currSlice <- $rbp
	#DEBUG_VALUE: intra16x16_dc_pred:p_Vid <- $r13
	#DEBUG_VALUE: intra16x16_dc_pred:s0 <- 0
	#DEBUG_VALUE: intra16x16_dc_pred:s1 <- $eax
	#DEBUG_VALUE: intra16x16_dc_pred:s2 <- 0
	#DEBUG_VALUE: intra16x16_dc_pred:imgY <- $r12
	#DEBUG_VALUE: intra16x16_dc_pred:mb_pred <- $r15
	#DEBUG_VALUE: intra16x16_dc_pred:i <- 16
	.loc	0 0 7                           # ldecod_src/intra16x16_pred_normal.c:0:7
	xorl	%ecx, %ecx
.Ltmp185:
.LBB0_45:                               # %if.then43.i
	#DEBUG_VALUE: intrapred_16x16_normal:currMB <- $r14
	#DEBUG_VALUE: intrapred_16x16_normal:pl <- [DW_OP_plus_uconst 32] [$rsp+0]
	#DEBUG_VALUE: intrapred_16x16_normal:predmode <- [DW_OP_LLVM_entry_value 1] $edx
	#DEBUG_VALUE: intra16x16_dc_pred:b <- [DW_OP_plus_uconst 16, DW_OP_deref] $rsp
	#DEBUG_VALUE: intra16x16_dc_pred:currMB <- $r14
	#DEBUG_VALUE: intra16x16_dc_pred:pl <- [DW_OP_plus_uconst 32, DW_OP_deref] $rsp
	#DEBUG_VALUE: intra16x16_dc_pred:currSlice <- $rbp
	#DEBUG_VALUE: intra16x16_dc_pred:p_Vid <- $r13
	#DEBUG_VALUE: intra16x16_dc_pred:s0 <- 0
	#DEBUG_VALUE: intra16x16_dc_pred:s2 <- 0
	#DEBUG_VALUE: intra16x16_dc_pred:imgY <- $r12
	#DEBUG_VALUE: intra16x16_dc_pred:mb_pred <- $r15
	.loc	0 75 19 is_stmt 1               # ldecod_src/intra16x16_pred_normal.c:75:19
	movswq	14(%rsp), %rdx
.Ltmp186:
	#DEBUG_VALUE: pos_y <- undef
	.loc	0 76 19                         # ldecod_src/intra16x16_pred_normal.c:76:19
	movswq	12(%rsp), %rsi
.Ltmp187:
	#DEBUG_VALUE: pos_x <- undef
	#DEBUG_VALUE: intra16x16_dc_pred:i <- 0
	#DEBUG_VALUE: intra16x16_dc_pred:s2 <- 0
	#DEBUG_VALUE: pos_y <- [DW_OP_plus_uconst 1, DW_OP_stack_value] $rdx
	.loc	0 79 13                         # ldecod_src/intra16x16_pred_normal.c:79:13
	movq	(%r12,%rdx,8), %rdi
.Ltmp188:
	#DEBUG_VALUE: intra16x16_dc_pred:i <- 1
	#DEBUG_VALUE: intra16x16_dc_pred:s2 <- undef
	#DEBUG_VALUE: pos_y <- [DW_OP_plus_uconst 2, DW_OP_stack_value] $rdx
	movq	8(%r12,%rdx,8), %r8
	movzwl	(%rdi,%rsi,2), %edi
.Ltmp189:
	#DEBUG_VALUE: intra16x16_dc_pred:s2 <- $edi
	movzwl	(%r8,%rsi,2), %r8d
	.loc	0 79 10 is_stmt 0               # ldecod_src/intra16x16_pred_normal.c:79:10
	addl	%edi, %r8d
.Ltmp190:
	#DEBUG_VALUE: intra16x16_dc_pred:s2 <- $r8d
	#DEBUG_VALUE: intra16x16_dc_pred:i <- 2
	#DEBUG_VALUE: pos_y <- [DW_OP_plus_uconst 3, DW_OP_stack_value] $rdx
	.loc	0 79 13                         # ldecod_src/intra16x16_pred_normal.c:79:13
	movq	16(%r12,%rdx,8), %rdi
	movzwl	(%rdi,%rsi,2), %edi
.Ltmp191:
	#DEBUG_VALUE: intra16x16_dc_pred:s2 <- undef
	#DEBUG_VALUE: intra16x16_dc_pred:i <- 3
	#DEBUG_VALUE: pos_y <- [DW_OP_plus_uconst 4, DW_OP_stack_value] $rdx
	movq	24(%r12,%rdx,8), %r9
	movzwl	(%r9,%rsi,2), %r9d
	.loc	0 79 10                         # ldecod_src/intra16x16_pred_normal.c:79:10
	addl	%edi, %r9d
	addl	%r8d, %r9d
.Ltmp192:
	#DEBUG_VALUE: intra16x16_dc_pred:s2 <- $r9d
	#DEBUG_VALUE: intra16x16_dc_pred:i <- 4
	#DEBUG_VALUE: pos_y <- [DW_OP_plus_uconst 5, DW_OP_stack_value] $rdx
	.loc	0 79 13                         # ldecod_src/intra16x16_pred_normal.c:79:13
	movq	32(%r12,%rdx,8), %rdi
	movzwl	(%rdi,%rsi,2), %edi
.Ltmp193:
	#DEBUG_VALUE: intra16x16_dc_pred:s2 <- undef
	#DEBUG_VALUE: intra16x16_dc_pred:i <- 5
	#DEBUG_VALUE: pos_y <- [DW_OP_plus_uconst 6, DW_OP_stack_value] $rdx
	movq	40(%r12,%rdx,8), %r8
	movzwl	(%r8,%rsi,2), %r8d
	.loc	0 79 10                         # ldecod_src/intra16x16_pred_normal.c:79:10
	addl	%edi, %r8d
	#DEBUG_VALUE: intra16x16_dc_pred:s2 <- undef
.Ltmp194:
	#DEBUG_VALUE: intra16x16_dc_pred:i <- 6
	#DEBUG_VALUE: pos_y <- [DW_OP_plus_uconst 7, DW_OP_stack_value] $rdx
	.loc	0 79 13                         # ldecod_src/intra16x16_pred_normal.c:79:13
	movq	48(%r12,%rdx,8), %rdi
	movzwl	(%rdi,%rsi,2), %edi
	.loc	0 79 10                         # ldecod_src/intra16x16_pred_normal.c:79:10
	addl	%r8d, %edi
	addl	%r9d, %edi
.Ltmp195:
	#DEBUG_VALUE: intra16x16_dc_pred:s2 <- $edi
	#DEBUG_VALUE: intra16x16_dc_pred:i <- 7
	#DEBUG_VALUE: pos_y <- [DW_OP_plus_uconst 8, DW_OP_stack_value] $rdx
	.loc	0 79 13                         # ldecod_src/intra16x16_pred_normal.c:79:13
	movq	56(%r12,%rdx,8), %r8
	movzwl	(%r8,%rsi,2), %r8d
.Ltmp196:
	#DEBUG_VALUE: intra16x16_dc_pred:s2 <- undef
	#DEBUG_VALUE: intra16x16_dc_pred:i <- 8
	#DEBUG_VALUE: pos_y <- [DW_OP_plus_uconst 9, DW_OP_stack_value] $rdx
	movq	64(%r12,%rdx,8), %r9
	movzwl	(%r9,%rsi,2), %r9d
	.loc	0 79 10                         # ldecod_src/intra16x16_pred_normal.c:79:10
	addl	%r8d, %r9d
	#DEBUG_VALUE: intra16x16_dc_pred:s2 <- undef
.Ltmp197:
	#DEBUG_VALUE: intra16x16_dc_pred:i <- 9
	#DEBUG_VALUE: pos_y <- [DW_OP_plus_uconst 10, DW_OP_stack_value] $rdx
	.loc	0 79 13                         # ldecod_src/intra16x16_pred_normal.c:79:13
	movq	72(%r12,%rdx,8), %r8
	movzwl	(%r8,%rsi,2), %r8d
	.loc	0 79 10                         # ldecod_src/intra16x16_pred_normal.c:79:10
	addl	%r9d, %r8d
	#DEBUG_VALUE: intra16x16_dc_pred:s2 <- undef
.Ltmp198:
	#DEBUG_VALUE: intra16x16_dc_pred:i <- 10
	#DEBUG_VALUE: pos_y <- [DW_OP_plus_uconst 11, DW_OP_stack_value] $rdx
	.loc	0 79 13                         # ldecod_src/intra16x16_pred_normal.c:79:13
	movq	80(%r12,%rdx,8), %r9
	movzwl	(%r9,%rsi,2), %r9d
	.loc	0 79 10                         # ldecod_src/intra16x16_pred_normal.c:79:10
	addl	%r8d, %r9d
	addl	%edi, %r9d
.Ltmp199:
	#DEBUG_VALUE: intra16x16_dc_pred:s2 <- $r9d
	#DEBUG_VALUE: intra16x16_dc_pred:i <- 11
	#DEBUG_VALUE: pos_y <- [DW_OP_plus_uconst 12, DW_OP_stack_value] $rdx
	.loc	0 79 13                         # ldecod_src/intra16x16_pred_normal.c:79:13
	movq	88(%r12,%rdx,8), %rdi
	movzwl	(%rdi,%rsi,2), %edi
.Ltmp200:
	#DEBUG_VALUE: intra16x16_dc_pred:s2 <- undef
	#DEBUG_VALUE: intra16x16_dc_pred:i <- 12
	#DEBUG_VALUE: pos_y <- [DW_OP_plus_uconst 13, DW_OP_stack_value] $rdx
	movq	96(%r12,%rdx,8), %r8
	movzwl	(%r8,%rsi,2), %r8d
	.loc	0 79 10                         # ldecod_src/intra16x16_pred_normal.c:79:10
	addl	%edi, %r8d
	#DEBUG_VALUE: intra16x16_dc_pred:s2 <- undef
.Ltmp201:
	#DEBUG_VALUE: intra16x16_dc_pred:i <- 13
	#DEBUG_VALUE: pos_y <- [DW_OP_plus_uconst 14, DW_OP_stack_value] $rdx
	.loc	0 79 13                         # ldecod_src/intra16x16_pred_normal.c:79:13
	movq	104(%r12,%rdx,8), %rdi
	movzwl	(%rdi,%rsi,2), %edi
	.loc	0 79 10                         # ldecod_src/intra16x16_pred_normal.c:79:10
	addl	%r8d, %edi
	#DEBUG_VALUE: intra16x16_dc_pred:s2 <- undef
.Ltmp202:
	#DEBUG_VALUE: intra16x16_dc_pred:i <- 14
	#DEBUG_VALUE: pos_y <- [DW_OP_plus_uconst 15, DW_OP_stack_value] $rdx
	.loc	0 79 13                         # ldecod_src/intra16x16_pred_normal.c:79:13
	movq	112(%r12,%rdx,8), %r8
	movzwl	(%r8,%rsi,2), %r8d
	.loc	0 79 10                         # ldecod_src/intra16x16_pred_normal.c:79:10
	addl	%edi, %r8d
	#DEBUG_VALUE: intra16x16_dc_pred:s2 <- undef
.Ltmp203:
	#DEBUG_VALUE: intra16x16_dc_pred:i <- 15
	#DEBUG_VALUE: pos_y <- [DW_OP_plus_uconst 16, DW_OP_stack_value] $rdx
	.loc	0 79 13                         # ldecod_src/intra16x16_pred_normal.c:79:13
	movq	120(%r12,%rdx,8), %rdx
.Ltmp204:
	movzwl	(%rdx,%rsi,2), %edx
	.loc	0 79 10                         # ldecod_src/intra16x16_pred_normal.c:79:10
	addl	%r8d, %edx
	addl	%r9d, %edx
.Ltmp205:
	#DEBUG_VALUE: intra16x16_dc_pred:s2 <- $edx
	#DEBUG_VALUE: intra16x16_dc_pred:i <- 16
	.loc	0 83 16 is_stmt 1               # ldecod_src/intra16x16_pred_normal.c:83:16
	testb	%cl, %cl
	je	.LBB0_47
.Ltmp206:
# %bb.46:                               # %if.then74.i
	#DEBUG_VALUE: intrapred_16x16_normal:currMB <- $r14
	#DEBUG_VALUE: intrapred_16x16_normal:pl <- [DW_OP_plus_uconst 32] [$rsp+0]
	#DEBUG_VALUE: intrapred_16x16_normal:predmode <- [DW_OP_LLVM_entry_value 1] $edx
	#DEBUG_VALUE: intra16x16_dc_pred:b <- [DW_OP_plus_uconst 16, DW_OP_deref] $rsp
	#DEBUG_VALUE: intra16x16_dc_pred:currMB <- $r14
	#DEBUG_VALUE: intra16x16_dc_pred:pl <- [DW_OP_plus_uconst 32, DW_OP_deref] $rsp
	#DEBUG_VALUE: intra16x16_dc_pred:currSlice <- $rbp
	#DEBUG_VALUE: intra16x16_dc_pred:p_Vid <- $r13
	#DEBUG_VALUE: intra16x16_dc_pred:s0 <- 0
	#DEBUG_VALUE: intra16x16_dc_pred:s2 <- $edx
	#DEBUG_VALUE: intra16x16_dc_pred:imgY <- $r12
	#DEBUG_VALUE: intra16x16_dc_pred:mb_pred <- $r15
	#DEBUG_VALUE: intra16x16_dc_pred:i <- 16
	.loc	0 86 14                         # ldecod_src/intra16x16_pred_normal.c:86:14
	addl	$8, %edx
.Ltmp207:
	.loc	0 86 18 is_stmt 0               # ldecod_src/intra16x16_pred_normal.c:86:18
	shrl	$4, %edx
.Ltmp208:
	#DEBUG_VALUE: intra16x16_dc_pred:s0 <- $edx
	.loc	0 86 5                          # ldecod_src/intra16x16_pred_normal.c:86:5
	jmp	.LBB0_59
.Ltmp209:
.LBB0_47:                               # %if.then67.i
	#DEBUG_VALUE: intrapred_16x16_normal:currMB <- $r14
	#DEBUG_VALUE: intrapred_16x16_normal:pl <- [DW_OP_plus_uconst 32] [$rsp+0]
	#DEBUG_VALUE: intrapred_16x16_normal:predmode <- [DW_OP_LLVM_entry_value 1] $edx
	#DEBUG_VALUE: intra16x16_dc_pred:b <- [DW_OP_plus_uconst 16, DW_OP_deref] $rsp
	#DEBUG_VALUE: intra16x16_dc_pred:currMB <- $r14
	#DEBUG_VALUE: intra16x16_dc_pred:pl <- [DW_OP_plus_uconst 32, DW_OP_deref] $rsp
	#DEBUG_VALUE: intra16x16_dc_pred:currSlice <- $rbp
	#DEBUG_VALUE: intra16x16_dc_pred:p_Vid <- $r13
	#DEBUG_VALUE: intra16x16_dc_pred:s0 <- 0
	#DEBUG_VALUE: intra16x16_dc_pred:s2 <- $edx
	#DEBUG_VALUE: intra16x16_dc_pred:imgY <- $r12
	#DEBUG_VALUE: intra16x16_dc_pred:mb_pred <- $r15
	#DEBUG_VALUE: intra16x16_dc_pred:i <- 16
	.loc	0 84 19 is_stmt 1               # ldecod_src/intra16x16_pred_normal.c:84:19
	addl	%eax, %edx
.Ltmp210:
	addl	$16, %edx
	.loc	0 84 24 is_stmt 0               # ldecod_src/intra16x16_pred_normal.c:84:24
	shrl	$5, %edx
.Ltmp211:
	#DEBUG_VALUE: intra16x16_dc_pred:s0 <- $edx
	.loc	0 84 5                          # ldecod_src/intra16x16_pred_normal.c:84:5
	jmp	.LBB0_59
.Ltmp212:
.LBB0_48:                               # %if.else84.i
	#DEBUG_VALUE: intrapred_16x16_normal:currMB <- $r14
	#DEBUG_VALUE: intrapred_16x16_normal:pl <- [DW_OP_plus_uconst 32] [$rsp+0]
	#DEBUG_VALUE: intrapred_16x16_normal:predmode <- [DW_OP_LLVM_entry_value 1] $edx
	#DEBUG_VALUE: intra16x16_dc_pred:b <- [DW_OP_plus_uconst 16, DW_OP_deref] $rsp
	#DEBUG_VALUE: intra16x16_dc_pred:currMB <- $r14
	#DEBUG_VALUE: intra16x16_dc_pred:pl <- [DW_OP_plus_uconst 32, DW_OP_deref] $rsp
	#DEBUG_VALUE: intra16x16_dc_pred:currSlice <- $rbp
	#DEBUG_VALUE: intra16x16_dc_pred:p_Vid <- $r13
	#DEBUG_VALUE: intra16x16_dc_pred:s0 <- 0
	#DEBUG_VALUE: intra16x16_dc_pred:s1 <- 0
	#DEBUG_VALUE: intra16x16_dc_pred:s2 <- 0
	#DEBUG_VALUE: intra16x16_dc_pred:imgY <- $r12
	#DEBUG_VALUE: intra16x16_dc_pred:mb_pred <- $r15
	#DEBUG_VALUE: intra16x16_dc_pred:s2 <- 0
	.loc	0 0 5                           # ldecod_src/intra16x16_pred_normal.c:0:5
	movq	32(%rsp), %rax                  # 8-byte Reload
.Ltmp213:
	.loc	0 90 10 is_stmt 1               # ldecod_src/intra16x16_pred_normal.c:90:10
	movl	849060(%r13,%rax,4), %edx
.Ltmp214:
	#DEBUG_VALUE: intra16x16_dc_pred:s0 <- $edx
	.loc	0 0 10 is_stmt 0                # ldecod_src/intra16x16_pred_normal.c:0:10
	jmp	.LBB0_59
.Ltmp215:
.LBB0_49:
	#DEBUG_VALUE: intrapred_16x16_normal:currMB <- $r14
	#DEBUG_VALUE: intrapred_16x16_normal:pl <- [DW_OP_LLVM_entry_value 1] $esi
	#DEBUG_VALUE: intrapred_16x16_normal:predmode <- [DW_OP_LLVM_entry_value 1] $edx
	#DEBUG_VALUE: intra16x16_plane_pred:d <- [DW_OP_plus_uconst 40, DW_OP_deref] $rsp
	#DEBUG_VALUE: intra16x16_plane_pred:currMB <- $r14
	#DEBUG_VALUE: intra16x16_plane_pred:currSlice <- $r13
	#DEBUG_VALUE: intra16x16_plane_pred:p_Vid <- $rbp
	#DEBUG_VALUE: intra16x16_plane_pred:ih <- 0
	#DEBUG_VALUE: intra16x16_plane_pred:iv <- 0
	#DEBUG_VALUE: intra16x16_plane_pred:imgY <- $r12
	#DEBUG_VALUE: intra16x16_plane_pred:mb_pred <- $r15
	#DEBUG_VALUE: intra16x16_plane_pred:max_imgpel_value <- [DW_OP_plus_uconst 32, DW_OP_deref] $rsp
	#DEBUG_VALUE: intra16x16_plane_pred:up_avail <- $esi
	xorl	%eax, %eax
.Ltmp216:
	#DEBUG_VALUE: intra16x16_plane_pred:left_avail <- $eax
	.loc	0 277 21 is_stmt 1              # ldecod_src/intra16x16_pred_normal.c:277:21
	cmpl	$0, 40(%rsp)
	je	.LBB0_54
.Ltmp217:
.LBB0_50:                               # %cond.true41.i
	#DEBUG_VALUE: intrapred_16x16_normal:currMB <- $r14
	#DEBUG_VALUE: intrapred_16x16_normal:pl <- [DW_OP_LLVM_entry_value 1] $esi
	#DEBUG_VALUE: intrapred_16x16_normal:predmode <- [DW_OP_LLVM_entry_value 1] $edx
	#DEBUG_VALUE: intra16x16_plane_pred:d <- [DW_OP_plus_uconst 40, DW_OP_deref] $rsp
	#DEBUG_VALUE: intra16x16_plane_pred:currMB <- $r14
	#DEBUG_VALUE: intra16x16_plane_pred:currSlice <- $r13
	#DEBUG_VALUE: intra16x16_plane_pred:p_Vid <- $rbp
	#DEBUG_VALUE: intra16x16_plane_pred:ih <- 0
	#DEBUG_VALUE: intra16x16_plane_pred:iv <- 0
	#DEBUG_VALUE: intra16x16_plane_pred:imgY <- $r12
	#DEBUG_VALUE: intra16x16_plane_pred:mb_pred <- $r15
	#DEBUG_VALUE: intra16x16_plane_pred:max_imgpel_value <- [DW_OP_plus_uconst 32, DW_OP_deref] $rsp
	#DEBUG_VALUE: intra16x16_plane_pred:up_avail <- $esi
	#DEBUG_VALUE: intra16x16_plane_pred:left_avail <- $eax
	.loc	0 277 46 is_stmt 0              # ldecod_src/intra16x16_pred_normal.c:277:46
	movq	13544(%r13), %rcx
	.loc	0 277 60                        # ldecod_src/intra16x16_pred_normal.c:277:60
	movslq	44(%rsp), %rdx
	.loc	0 277 35                        # ldecod_src/intra16x16_pred_normal.c:277:35
	movsbl	(%rcx,%rdx), %edx
	movl	%esi, %ecx
.Ltmp218:
.LBB0_51:                               # %if.end.i101
	#DEBUG_VALUE: intrapred_16x16_normal:currMB <- $r14
	#DEBUG_VALUE: intrapred_16x16_normal:pl <- [DW_OP_LLVM_entry_value 1] $esi
	#DEBUG_VALUE: intrapred_16x16_normal:predmode <- [DW_OP_LLVM_entry_value 1] $edx
	#DEBUG_VALUE: intra16x16_plane_pred:d <- [DW_OP_plus_uconst 40, DW_OP_deref] $rsp
	#DEBUG_VALUE: intra16x16_plane_pred:currMB <- $r14
	#DEBUG_VALUE: intra16x16_plane_pred:currSlice <- $r13
	#DEBUG_VALUE: intra16x16_plane_pred:p_Vid <- $rbp
	#DEBUG_VALUE: intra16x16_plane_pred:ih <- 0
	#DEBUG_VALUE: intra16x16_plane_pred:iv <- 0
	#DEBUG_VALUE: intra16x16_plane_pred:imgY <- $r12
	#DEBUG_VALUE: intra16x16_plane_pred:mb_pred <- $r15
	#DEBUG_VALUE: intra16x16_plane_pred:max_imgpel_value <- [DW_OP_plus_uconst 32, DW_OP_deref] $rsp
	#DEBUG_VALUE: intra16x16_plane_pred:up_avail <- $ecx
	#DEBUG_VALUE: intra16x16_plane_pred:left_avail <- $eax
	#DEBUG_VALUE: intra16x16_plane_pred:left_up_avail <- $edx
	#DEBUG_VALUE: intra16x16_plane_pred:left_avail <- $eax
	#DEBUG_VALUE: intra16x16_plane_pred:up_avail <- $ecx
	.loc	0 280 8 is_stmt 1               # ldecod_src/intra16x16_pred_normal.c:280:8
	testl	%ecx, %ecx
	.loc	0 280 17 is_stmt 0              # ldecod_src/intra16x16_pred_normal.c:280:17
	je	.LBB0_54
.Ltmp219:
# %bb.52:                               # %if.end.i101
	#DEBUG_VALUE: intrapred_16x16_normal:currMB <- $r14
	#DEBUG_VALUE: intrapred_16x16_normal:pl <- [DW_OP_LLVM_entry_value 1] $esi
	#DEBUG_VALUE: intrapred_16x16_normal:predmode <- [DW_OP_LLVM_entry_value 1] $edx
	#DEBUG_VALUE: intra16x16_plane_pred:d <- [DW_OP_plus_uconst 40, DW_OP_deref] $rsp
	#DEBUG_VALUE: intra16x16_plane_pred:currMB <- $r14
	#DEBUG_VALUE: intra16x16_plane_pred:currSlice <- $r13
	#DEBUG_VALUE: intra16x16_plane_pred:p_Vid <- $rbp
	#DEBUG_VALUE: intra16x16_plane_pred:ih <- 0
	#DEBUG_VALUE: intra16x16_plane_pred:iv <- 0
	#DEBUG_VALUE: intra16x16_plane_pred:imgY <- $r12
	#DEBUG_VALUE: intra16x16_plane_pred:mb_pred <- $r15
	#DEBUG_VALUE: intra16x16_plane_pred:max_imgpel_value <- [DW_OP_plus_uconst 32, DW_OP_deref] $rsp
	#DEBUG_VALUE: intra16x16_plane_pred:up_avail <- $ecx
	#DEBUG_VALUE: intra16x16_plane_pred:left_avail <- $eax
	#DEBUG_VALUE: intra16x16_plane_pred:left_up_avail <- $edx
	testl	%edx, %edx
	je	.LBB0_54
.Ltmp220:
# %bb.53:                               # %if.end.i101
	#DEBUG_VALUE: intrapred_16x16_normal:currMB <- $r14
	#DEBUG_VALUE: intrapred_16x16_normal:pl <- [DW_OP_LLVM_entry_value 1] $esi
	#DEBUG_VALUE: intrapred_16x16_normal:predmode <- [DW_OP_LLVM_entry_value 1] $edx
	#DEBUG_VALUE: intra16x16_plane_pred:d <- [DW_OP_plus_uconst 40, DW_OP_deref] $rsp
	#DEBUG_VALUE: intra16x16_plane_pred:currMB <- $r14
	#DEBUG_VALUE: intra16x16_plane_pred:currSlice <- $r13
	#DEBUG_VALUE: intra16x16_plane_pred:p_Vid <- $rbp
	#DEBUG_VALUE: intra16x16_plane_pred:ih <- 0
	#DEBUG_VALUE: intra16x16_plane_pred:iv <- 0
	#DEBUG_VALUE: intra16x16_plane_pred:imgY <- $r12
	#DEBUG_VALUE: intra16x16_plane_pred:mb_pred <- $r15
	#DEBUG_VALUE: intra16x16_plane_pred:max_imgpel_value <- [DW_OP_plus_uconst 32, DW_OP_deref] $rsp
	#DEBUG_VALUE: intra16x16_plane_pred:up_avail <- $ecx
	#DEBUG_VALUE: intra16x16_plane_pred:left_avail <- $eax
	#DEBUG_VALUE: intra16x16_plane_pred:left_up_avail <- $edx
	testl	%eax, %eax
	jne	.LBB0_55
.Ltmp221:
.LBB0_54:                               # %if.then54.i
	#DEBUG_VALUE: intrapred_16x16_normal:currMB <- $r14
	#DEBUG_VALUE: intrapred_16x16_normal:pl <- [DW_OP_LLVM_entry_value 1] $esi
	#DEBUG_VALUE: intrapred_16x16_normal:predmode <- [DW_OP_LLVM_entry_value 1] $edx
	#DEBUG_VALUE: intra16x16_plane_pred:d <- [DW_OP_plus_uconst 40, DW_OP_deref] $rsp
	#DEBUG_VALUE: intra16x16_plane_pred:currMB <- $r14
	#DEBUG_VALUE: intra16x16_plane_pred:currSlice <- $r13
	#DEBUG_VALUE: intra16x16_plane_pred:p_Vid <- $rbp
	#DEBUG_VALUE: intra16x16_plane_pred:ih <- 0
	#DEBUG_VALUE: intra16x16_plane_pred:iv <- 0
	#DEBUG_VALUE: intra16x16_plane_pred:imgY <- $r12
	#DEBUG_VALUE: intra16x16_plane_pred:mb_pred <- $r15
	#DEBUG_VALUE: intra16x16_plane_pred:max_imgpel_value <- [DW_OP_plus_uconst 32, DW_OP_deref] $rsp
	#DEBUG_VALUE: intra16x16_plane_pred:left_avail <- $eax
	.loc	0 281 5 is_stmt 1               # ldecod_src/intra16x16_pred_normal.c:281:5
	movl	$.L.str.3, %edi
	movl	$500, %esi                      # imm = 0x1F4
	callq	error@PLT
.Ltmp222:
.LBB0_55:                               # %if.end55.i
	#DEBUG_VALUE: intrapred_16x16_normal:currMB <- $r14
	#DEBUG_VALUE: intrapred_16x16_normal:pl <- [DW_OP_LLVM_entry_value 1] $esi
	#DEBUG_VALUE: intrapred_16x16_normal:predmode <- [DW_OP_LLVM_entry_value 1] $edx
	#DEBUG_VALUE: intra16x16_plane_pred:d <- [DW_OP_plus_uconst 40, DW_OP_deref] $rsp
	#DEBUG_VALUE: intra16x16_plane_pred:currMB <- $r14
	#DEBUG_VALUE: intra16x16_plane_pred:currSlice <- $r13
	#DEBUG_VALUE: intra16x16_plane_pred:p_Vid <- $rbp
	#DEBUG_VALUE: intra16x16_plane_pred:ih <- 0
	#DEBUG_VALUE: intra16x16_plane_pred:iv <- 0
	#DEBUG_VALUE: intra16x16_plane_pred:imgY <- $r12
	#DEBUG_VALUE: intra16x16_plane_pred:mb_pred <- $r15
	#DEBUG_VALUE: intra16x16_plane_pred:max_imgpel_value <- [DW_OP_plus_uconst 32, DW_OP_deref] $rsp
	.loc	0 283 22                        # ldecod_src/intra16x16_pred_normal.c:283:22
	movswq	30(%rsp), %rax
	.loc	0 283 15 is_stmt 0              # ldecod_src/intra16x16_pred_normal.c:283:15
	movq	(%r12,%rax,8), %rdx
	.loc	0 283 31                        # ldecod_src/intra16x16_pred_normal.c:283:31
	movswq	28(%rsp), %rsi
.Ltmp223:
	#DEBUG_VALUE: intra16x16_plane_pred:mpr_line <- undef
	.loc	0 284 13 is_stmt 1              # ldecod_src/intra16x16_pred_normal.c:284:13
	movswq	14(%rsp), %rax
.Ltmp224:
	#DEBUG_VALUE: intra16x16_plane_pred:pos_y <- undef
	.loc	0 285 13                        # ldecod_src/intra16x16_pred_normal.c:285:13
	movswq	12(%rsp), %rcx
.Ltmp225:
	#DEBUG_VALUE: intra16x16_plane_pred:pos_x <- undef
	#DEBUG_VALUE: intra16x16_plane_pred:i <- 1
	#DEBUG_VALUE: intra16x16_plane_pred:i <- 1
	#DEBUG_VALUE: intra16x16_plane_pred:ih <- 0
	#DEBUG_VALUE: intra16x16_plane_pred:iv <- 0
	.loc	0 288 14                        # ldecod_src/intra16x16_pred_normal.c:288:14
	movzwl	16(%rdx,%rsi,2), %edi
	.loc	0 288 28 is_stmt 0              # ldecod_src/intra16x16_pred_normal.c:288:28
	movzwl	12(%rdx,%rsi,2), %r8d
	.loc	0 288 26                        # ldecod_src/intra16x16_pred_normal.c:288:26
	subl	%r8d, %edi
.Ltmp226:
	#DEBUG_VALUE: intra16x16_plane_pred:ih <- $edi
	.loc	0 289 14 is_stmt 1              # ldecod_src/intra16x16_pred_normal.c:289:14
	movq	64(%r12,%rax,8), %r8
	movzwl	(%r8,%rcx,2), %r8d
	.loc	0 289 39 is_stmt 0              # ldecod_src/intra16x16_pred_normal.c:289:39
	movq	48(%r12,%rax,8), %r9
	movzwl	(%r9,%rcx,2), %r9d
	.loc	0 289 37                        # ldecod_src/intra16x16_pred_normal.c:289:37
	subl	%r9d, %r8d
.Ltmp227:
	#DEBUG_VALUE: intra16x16_plane_pred:iv <- $r8d
	#DEBUG_VALUE: intra16x16_plane_pred:i <- 2
	.loc	0 288 14 is_stmt 1              # ldecod_src/intra16x16_pred_normal.c:288:14
	movzwl	18(%rdx,%rsi,2), %r9d
	.loc	0 288 28 is_stmt 0              # ldecod_src/intra16x16_pred_normal.c:288:28
	movzwl	10(%rdx,%rsi,2), %r10d
	.loc	0 288 26                        # ldecod_src/intra16x16_pred_normal.c:288:26
	subl	%r10d, %r9d
	.loc	0 288 8                         # ldecod_src/intra16x16_pred_normal.c:288:8
	leal	(%rdi,%r9,2), %edi
.Ltmp228:
	#DEBUG_VALUE: intra16x16_plane_pred:ih <- $edi
	.loc	0 289 14 is_stmt 1              # ldecod_src/intra16x16_pred_normal.c:289:14
	movq	72(%r12,%rax,8), %r9
	movzwl	(%r9,%rcx,2), %r9d
	.loc	0 289 39 is_stmt 0              # ldecod_src/intra16x16_pred_normal.c:289:39
	movq	40(%r12,%rax,8), %r10
	movzwl	(%r10,%rcx,2), %r10d
	.loc	0 289 37                        # ldecod_src/intra16x16_pred_normal.c:289:37
	subl	%r10d, %r9d
	.loc	0 289 8                         # ldecod_src/intra16x16_pred_normal.c:289:8
	leal	(%r8,%r9,2), %r8d
.Ltmp229:
	#DEBUG_VALUE: intra16x16_plane_pred:iv <- $r8d
	#DEBUG_VALUE: intra16x16_plane_pred:i <- 3
	.loc	0 288 14 is_stmt 1              # ldecod_src/intra16x16_pred_normal.c:288:14
	movzwl	20(%rdx,%rsi,2), %r9d
	.loc	0 288 28 is_stmt 0              # ldecod_src/intra16x16_pred_normal.c:288:28
	movzwl	8(%rdx,%rsi,2), %r10d
	.loc	0 288 26                        # ldecod_src/intra16x16_pred_normal.c:288:26
	subl	%r10d, %r9d
	.loc	0 288 12                        # ldecod_src/intra16x16_pred_normal.c:288:12
	leal	(%r9,%r9,2), %r9d
	.loc	0 288 8                         # ldecod_src/intra16x16_pred_normal.c:288:8
	addl	%edi, %r9d
.Ltmp230:
	#DEBUG_VALUE: intra16x16_plane_pred:ih <- $r9d
	.loc	0 289 14 is_stmt 1              # ldecod_src/intra16x16_pred_normal.c:289:14
	movq	80(%r12,%rax,8), %rdi
	movzwl	(%rdi,%rcx,2), %edi
	.loc	0 289 39 is_stmt 0              # ldecod_src/intra16x16_pred_normal.c:289:39
	movq	32(%r12,%rax,8), %r10
	movzwl	(%r10,%rcx,2), %r10d
	.loc	0 289 37                        # ldecod_src/intra16x16_pred_normal.c:289:37
	subl	%r10d, %edi
	.loc	0 289 12                        # ldecod_src/intra16x16_pred_normal.c:289:12
	leal	(%rdi,%rdi,2), %edi
	.loc	0 289 8                         # ldecod_src/intra16x16_pred_normal.c:289:8
	addl	%r8d, %edi
.Ltmp231:
	#DEBUG_VALUE: intra16x16_plane_pred:iv <- $edi
	#DEBUG_VALUE: intra16x16_plane_pred:i <- 4
	.loc	0 288 14 is_stmt 1              # ldecod_src/intra16x16_pred_normal.c:288:14
	movzwl	22(%rdx,%rsi,2), %r8d
	.loc	0 288 28 is_stmt 0              # ldecod_src/intra16x16_pred_normal.c:288:28
	movzwl	6(%rdx,%rsi,2), %r10d
	.loc	0 288 26                        # ldecod_src/intra16x16_pred_normal.c:288:26
	subl	%r10d, %r8d
	.loc	0 288 8                         # ldecod_src/intra16x16_pred_normal.c:288:8
	leal	(%r9,%r8,4), %r8d
.Ltmp232:
	#DEBUG_VALUE: intra16x16_plane_pred:ih <- $r8d
	.loc	0 289 14 is_stmt 1              # ldecod_src/intra16x16_pred_normal.c:289:14
	movq	88(%r12,%rax,8), %r9
	movzwl	(%r9,%rcx,2), %r9d
	.loc	0 289 39 is_stmt 0              # ldecod_src/intra16x16_pred_normal.c:289:39
	movq	24(%r12,%rax,8), %r10
	movzwl	(%r10,%rcx,2), %r10d
	.loc	0 289 37                        # ldecod_src/intra16x16_pred_normal.c:289:37
	subl	%r10d, %r9d
	.loc	0 289 8                         # ldecod_src/intra16x16_pred_normal.c:289:8
	leal	(%rdi,%r9,4), %edi
.Ltmp233:
	#DEBUG_VALUE: intra16x16_plane_pred:iv <- $edi
	#DEBUG_VALUE: intra16x16_plane_pred:i <- 5
	.loc	0 288 14 is_stmt 1              # ldecod_src/intra16x16_pred_normal.c:288:14
	movzwl	24(%rdx,%rsi,2), %r9d
	.loc	0 288 28 is_stmt 0              # ldecod_src/intra16x16_pred_normal.c:288:28
	movzwl	4(%rdx,%rsi,2), %r10d
	.loc	0 288 26                        # ldecod_src/intra16x16_pred_normal.c:288:26
	subl	%r10d, %r9d
	.loc	0 288 12                        # ldecod_src/intra16x16_pred_normal.c:288:12
	leal	(%r9,%r9,4), %r9d
	.loc	0 288 8                         # ldecod_src/intra16x16_pred_normal.c:288:8
	addl	%r8d, %r9d
.Ltmp234:
	#DEBUG_VALUE: intra16x16_plane_pred:ih <- $r9d
	.loc	0 289 14 is_stmt 1              # ldecod_src/intra16x16_pred_normal.c:289:14
	movq	96(%r12,%rax,8), %r8
	movzwl	(%r8,%rcx,2), %r8d
	.loc	0 289 39 is_stmt 0              # ldecod_src/intra16x16_pred_normal.c:289:39
	movq	16(%r12,%rax,8), %r10
	movzwl	(%r10,%rcx,2), %r10d
	.loc	0 289 37                        # ldecod_src/intra16x16_pred_normal.c:289:37
	subl	%r10d, %r8d
	.loc	0 289 12                        # ldecod_src/intra16x16_pred_normal.c:289:12
	leal	(%r8,%r8,4), %r8d
	.loc	0 289 8                         # ldecod_src/intra16x16_pred_normal.c:289:8
	addl	%edi, %r8d
.Ltmp235:
	#DEBUG_VALUE: intra16x16_plane_pred:iv <- $r8d
	#DEBUG_VALUE: intra16x16_plane_pred:i <- 6
	.loc	0 288 14 is_stmt 1              # ldecod_src/intra16x16_pred_normal.c:288:14
	movzwl	26(%rdx,%rsi,2), %edi
	.loc	0 288 28 is_stmt 0              # ldecod_src/intra16x16_pred_normal.c:288:28
	movzwl	2(%rdx,%rsi,2), %r10d
	.loc	0 288 26                        # ldecod_src/intra16x16_pred_normal.c:288:26
	subl	%r10d, %edi
	.loc	0 288 12                        # ldecod_src/intra16x16_pred_normal.c:288:12
	leal	(%rdi,%rdi,2), %edi
	.loc	0 288 8                         # ldecod_src/intra16x16_pred_normal.c:288:8
	leal	(%r9,%rdi,2), %edi
.Ltmp236:
	#DEBUG_VALUE: intra16x16_plane_pred:ih <- $edi
	.loc	0 289 14 is_stmt 1              # ldecod_src/intra16x16_pred_normal.c:289:14
	movq	104(%r12,%rax,8), %r9
	movzwl	(%r9,%rcx,2), %r9d
	.loc	0 289 39 is_stmt 0              # ldecod_src/intra16x16_pred_normal.c:289:39
	movq	(%r12,%rax,8), %r10
	movq	8(%r12,%rax,8), %r11
	movzwl	(%r11,%rcx,2), %r11d
	.loc	0 289 37                        # ldecod_src/intra16x16_pred_normal.c:289:37
	subl	%r11d, %r9d
	.loc	0 289 12                        # ldecod_src/intra16x16_pred_normal.c:289:12
	leal	(%r9,%r9,2), %r9d
	.loc	0 289 8                         # ldecod_src/intra16x16_pred_normal.c:289:8
	leal	(%r8,%r9,2), %r11d
.Ltmp237:
	#DEBUG_VALUE: intra16x16_plane_pred:iv <- $r11d
	#DEBUG_VALUE: intra16x16_plane_pred:i <- 7
	.loc	0 288 14 is_stmt 1              # ldecod_src/intra16x16_pred_normal.c:288:14
	movzwl	28(%rdx,%rsi,2), %r9d
	.loc	0 288 28 is_stmt 0              # ldecod_src/intra16x16_pred_normal.c:288:28
	movzwl	(%rdx,%rsi,2), %r8d
	.loc	0 288 26                        # ldecod_src/intra16x16_pred_normal.c:288:26
	subl	%r8d, %r9d
	.loc	0 288 12                        # ldecod_src/intra16x16_pred_normal.c:288:12
	leal	(,%r9,8), %r8d
	subl	%r9d, %r8d
	.loc	0 288 8                         # ldecod_src/intra16x16_pred_normal.c:288:8
	addl	%edi, %r8d
.Ltmp238:
	#DEBUG_VALUE: intra16x16_plane_pred:ih <- $r8d
	.loc	0 289 14 is_stmt 1              # ldecod_src/intra16x16_pred_normal.c:289:14
	movq	112(%r12,%rax,8), %rdi
	movzwl	(%rdi,%rcx,2), %edi
	.loc	0 289 39 is_stmt 0              # ldecod_src/intra16x16_pred_normal.c:289:39
	movzwl	(%r10,%rcx,2), %r9d
	.loc	0 289 37                        # ldecod_src/intra16x16_pred_normal.c:289:37
	subl	%r9d, %edi
	.loc	0 289 12                        # ldecod_src/intra16x16_pred_normal.c:289:12
	leal	(,%rdi,8), %r9d
	subl	%edi, %r9d
	.loc	0 289 8                         # ldecod_src/intra16x16_pred_normal.c:289:8
	addl	%r11d, %r9d
.Ltmp239:
	#DEBUG_VALUE: intra16x16_plane_pred:iv <- $r9d
	#DEBUG_VALUE: intra16x16_plane_pred:i <- 8
	.loc	0 292 12 is_stmt 1              # ldecod_src/intra16x16_pred_normal.c:292:12
	movzwl	30(%rdx,%rsi,2), %edx
	.loc	0 292 33 is_stmt 0              # ldecod_src/intra16x16_pred_normal.c:292:33
	movswq	54(%rsp), %rsi
	.loc	0 292 26                        # ldecod_src/intra16x16_pred_normal.c:292:26
	movq	(%r12,%rsi,8), %rsi
	.loc	0 292 42                        # ldecod_src/intra16x16_pred_normal.c:292:42
	movswq	52(%rsp), %rdi
	.loc	0 292 26                        # ldecod_src/intra16x16_pred_normal.c:292:26
	movzwl	(%rsi,%rdi,2), %esi
.Ltmp240:
	#DEBUG_VALUE: intra16x16_plane_pred:ih <- undef
	.loc	0 293 12 is_stmt 1              # ldecod_src/intra16x16_pred_normal.c:293:12
	movq	120(%r12,%rax,8), %rax
	movzwl	(%rax,%rcx,2), %edi
	.loc	0 293 35 is_stmt 0              # ldecod_src/intra16x16_pred_normal.c:293:35
	movl	%edi, %eax
.Ltmp241:
	#DEBUG_VALUE: intra16x16_plane_pred:iv <- undef
	#DEBUG_VALUE: intra16x16_plane_pred:ib <- undef
	#DEBUG_VALUE: intra16x16_plane_pred:ic <- undef
	.loc	0 298 25 is_stmt 1              # ldecod_src/intra16x16_pred_normal.c:298:25
	addl	%edx, %edi
	.loc	0 292 24                        # ldecod_src/intra16x16_pred_normal.c:292:24
	movl	%edx, %ecx
	subl	%esi, %ecx
	.loc	0 292 6 is_stmt 0               # ldecod_src/intra16x16_pred_normal.c:292:6
	leal	(%r8,%rcx,8), %ecx
.Ltmp242:
	#DEBUG_VALUE: intra16x16_plane_pred:ih <- $ecx
	.loc	0 293 35 is_stmt 1              # ldecod_src/intra16x16_pred_normal.c:293:35
	subl	%esi, %eax
	.loc	0 293 6 is_stmt 0               # ldecod_src/intra16x16_pred_normal.c:293:6
	leal	(%r9,%rax,8), %eax
.Ltmp243:
	#DEBUG_VALUE: intra16x16_plane_pred:iv <- $eax
	.loc	0 295 14 is_stmt 1              # ldecod_src/intra16x16_pred_normal.c:295:14
	leal	(%rcx,%rcx,4), %r8d
	addl	$32, %r8d
	.loc	0 295 19 is_stmt 0              # ldecod_src/intra16x16_pred_normal.c:295:19
	sarl	$6, %r8d
.Ltmp244:
	#DEBUG_VALUE: intra16x16_plane_pred:ib <- $r8d
	.loc	0 296 14 is_stmt 1              # ldecod_src/intra16x16_pred_normal.c:296:14
	leal	(%rax,%rax,4), %eax
.Ltmp245:
	addl	$32, %eax
	.loc	0 296 19 is_stmt 0              # ldecod_src/intra16x16_pred_normal.c:296:19
	sarl	$6, %eax
.Ltmp246:
	#DEBUG_VALUE: intra16x16_plane_pred:ic <- $eax
	.loc	0 298 10 is_stmt 1              # ldecod_src/intra16x16_pred_normal.c:298:10
	shll	$4, %edi
.Ltmp247:
	#DEBUG_VALUE: intra16x16_plane_pred:iaa <- $edi
	.loc	0 305 66                        # ldecod_src/intra16x16_pred_normal.c:305:66
	movd	%r8d, %xmm5
.Ltmp248:
	#DEBUG_VALUE: intra16x16_plane_pred:j <- 0
	.loc	0 0 66 is_stmt 0                # ldecod_src/intra16x16_pred_normal.c:0:66
	movdqa	.LCPI0_0(%rip), %xmm0           # xmm0 = [4294967290,4294967290,4294967290,4294967290]
	.loc	0 305 66                        # ldecod_src/intra16x16_pred_normal.c:305:66
	pmuludq	%xmm5, %xmm0
	pshufd	$232, %xmm0, %xmm1              # xmm1 = xmm0[0,2,2,3]
	movq	.LCPI0_4(%rip), %xmm0           # xmm0 = [4294967289,4294967290,0,0]
	pmuludq	%xmm5, %xmm0
	pshufd	$232, %xmm0, %xmm0              # xmm0 = xmm0[0,2,2,3]
	punpckldq	%xmm1, %xmm0            # xmm0 = xmm0[0],xmm1[0],xmm0[1],xmm1[1]
	leal	(%r8,%r8,4), %ecx
.Ltmp249:
	.loc	0 0 66                          # ldecod_src/intra16x16_pred_normal.c:0:66
	negl	%ecx
	leal	(,%r8,4), %edx
	leal	(%r8,%r8,2), %esi
	.loc	0 305 56                        # ldecod_src/intra16x16_pred_normal.c:305:56
	movd	%esi, %xmm6
                                        # kill: def $esi killed $esi def $rsi
	negl	%esi
	leal	(%r8,%r8), %r9d
	movdqa	.LCPI0_2(%rip), %xmm2           # xmm2 = [6,6,6,6]
	pmuludq	%xmm5, %xmm2
	movq	.LCPI0_5(%rip), %xmm1           # xmm1 = [5,6,0,0]
	pmuludq	%xmm5, %xmm1
	punpckldq	%xmm2, %xmm1            # xmm1 = xmm1[0],xmm2[0],xmm1[1],xmm2[1]
	leal	(,%r8,8), %r10d
	movd	%r10d, %xmm7
	subl	%r8d, %r10d
.Ltmp250:
	.file	6 "ldecod_src/inc" "ifunctions.h" md5 0x279401589ed56df99e287ad9e5fc564b
	.loc	6 44 10 is_stmt 1               # ldecod_src/inc/ifunctions.h:44:10
	movd	32(%rsp), %xmm2                 # 4-byte Folded Reload
                                        # xmm2 = mem[0],zero,zero,zero
	pshufd	$0, %xmm2, %xmm2                # xmm2 = xmm2[0,0,0,0]
.Ltmp251:
	.loc	0 305 56                        # ldecod_src/intra16x16_pred_normal.c:305:56
	movd	%r9d, %xmm3
	movdqa	%xmm5, %xmm4
	punpckldq	%xmm3, %xmm4            # xmm4 = xmm4[0],xmm3[0],xmm4[1],xmm3[1]
	movd	%edx, %xmm8
	punpckldq	%xmm8, %xmm6            # xmm6 = xmm6[0],xmm8[0],xmm6[1],xmm8[1]
	punpcklqdq	%xmm6, %xmm4            # xmm4 = xmm4[0],xmm6[0]
	.loc	0 306 56                        # ldecod_src/intra16x16_pred_normal.c:306:56
	punpckldq	%xmm5, %xmm3            # xmm3 = xmm3[0],xmm5[0],xmm3[1],xmm5[1]
	movd	%r10d, %xmm5
	punpcklqdq	%xmm5, %xmm7            # xmm7 = xmm7[0],xmm5[0]
	shufps	$36, %xmm7, %xmm1               # xmm1 = xmm1[0,1],xmm7[2,0]
.Ltmp252:
	.loc	0 299 3                         # ldecod_src/intra16x16_pred_normal.c:299:3
	leal	(,%rax,8), %r8d
.Ltmp253:
	movl	%eax, %r9d
	subl	%r8d, %r9d
	addl	%r9d, %edi
.Ltmp254:
	addl	$16, %edi
	negl	%edx
	xorl	%r8d, %r8d
	pxor	%xmm5, %xmm5
.Ltmp255:
	.p2align	4, 0x90
.LBB0_56:                               # %for.body139.i
                                        # =>This Inner Loop Header: Depth=1
	#DEBUG_VALUE: intrapred_16x16_normal:currMB <- $r14
	#DEBUG_VALUE: intrapred_16x16_normal:pl <- [DW_OP_LLVM_entry_value 1] $esi
	#DEBUG_VALUE: intrapred_16x16_normal:predmode <- [DW_OP_LLVM_entry_value 1] $edx
	#DEBUG_VALUE: intra16x16_plane_pred:d <- [DW_OP_plus_uconst 40, DW_OP_deref] $rsp
	#DEBUG_VALUE: intra16x16_plane_pred:currMB <- $r14
	#DEBUG_VALUE: intra16x16_plane_pred:currSlice <- $r13
	#DEBUG_VALUE: intra16x16_plane_pred:p_Vid <- $rbp
	#DEBUG_VALUE: intra16x16_plane_pred:imgY <- $r12
	#DEBUG_VALUE: intra16x16_plane_pred:mb_pred <- $r15
	#DEBUG_VALUE: intra16x16_plane_pred:max_imgpel_value <- [DW_OP_plus_uconst 32, DW_OP_deref] $rsp
	#DEBUG_VALUE: intra16x16_plane_pred:ic <- $eax
	#DEBUG_VALUE: ibb <- [DW_OP_LLVM_arg 0, DW_OP_plus_uconst 16, DW_OP_LLVM_arg 0, DW_OP_LLVM_convert 64 7, DW_OP_LLVM_convert 32 7, DW_OP_constu 7, DW_OP_minus, DW_OP_LLVM_arg 0, DW_OP_mul, DW_OP_plus, DW_OP_stack_value] undef
	#DEBUG_VALUE: intra16x16_plane_pred:j <- $r8
	.loc	0 302 19                        # ldecod_src/intra16x16_pred_normal.c:302:19
	movq	(%r15,%r8,8), %r9
.Ltmp256:
	#DEBUG_VALUE: prd <- [DW_OP_plus_uconst 14, DW_OP_stack_value] $r9
	.loc	0 305 56                        # ldecod_src/intra16x16_pred_normal.c:305:56
	movd	%edi, %xmm8
.Ltmp257:
	#DEBUG_VALUE: imax:a <- [DW_OP_LLVM_arg 0, DW_OP_plus_uconst 16, DW_OP_LLVM_arg 0, DW_OP_LLVM_convert 64 7, DW_OP_LLVM_convert 32 7, DW_OP_constu 7, DW_OP_minus, DW_OP_LLVM_arg 0, DW_OP_mul, DW_OP_plus, DW_OP_constu 5, DW_OP_shra, DW_OP_stack_value] undef
	#DEBUG_VALUE: imax:a <- [DW_OP_LLVM_arg 0, DW_OP_plus_uconst 16, DW_OP_LLVM_arg 0, DW_OP_LLVM_convert 64 7, DW_OP_LLVM_convert 32 7, DW_OP_constu 7, DW_OP_minus, DW_OP_LLVM_arg 0, DW_OP_mul, DW_OP_plus, DW_OP_LLVM_arg 0, DW_OP_minus, DW_OP_constu 5, DW_OP_shra, DW_OP_stack_value] undef
	#DEBUG_VALUE: imax:a <- [DW_OP_LLVM_arg 0, DW_OP_plus_uconst 16, DW_OP_LLVM_arg 0, DW_OP_LLVM_convert 64 7, DW_OP_LLVM_convert 32 7, DW_OP_constu 7, DW_OP_minus, DW_OP_LLVM_arg 0, DW_OP_mul, DW_OP_plus, DW_OP_LLVM_arg 0, DW_OP_minus, DW_OP_constu 5, DW_OP_shra, DW_OP_stack_value] undef
	#DEBUG_VALUE: imax:a <- [DW_OP_LLVM_arg 0, DW_OP_plus_uconst 16, DW_OP_LLVM_arg 0, DW_OP_LLVM_convert 64 7, DW_OP_LLVM_convert 32 7, DW_OP_constu 7, DW_OP_minus, DW_OP_LLVM_arg 0, DW_OP_mul, DW_OP_plus, DW_OP_LLVM_arg 0, DW_OP_plus, DW_OP_constu 5, DW_OP_shra, DW_OP_stack_value] undef
	#DEBUG_VALUE: iClip1:high <- [DW_OP_plus_uconst 32, DW_OP_deref] $rsp
	#DEBUG_VALUE: imax:b <- 0
	#DEBUG_VALUE: imin:b <- [DW_OP_plus_uconst 32, DW_OP_deref] $rsp
	#DEBUG_VALUE: imax:b <- 0
	#DEBUG_VALUE: imax:b <- 0
	#DEBUG_VALUE: imax:b <- 0
	#DEBUG_VALUE: intra16x16_plane_pred:i <- 4
	#DEBUG_VALUE: imin:a <- undef
	#DEBUG_VALUE: iClip1:x <- undef
	#DEBUG_VALUE: imin:a <- undef
	#DEBUG_VALUE: iClip1:x <- undef
	#DEBUG_VALUE: imin:a <- undef
	#DEBUG_VALUE: iClip1:x <- undef
	#DEBUG_VALUE: imin:a <- undef
	#DEBUG_VALUE: iClip1:x <- undef
	pshufd	$80, %xmm8, %xmm6               # xmm6 = xmm8[0,0,1,1]
	movdqa	%xmm6, %xmm7
	paddd	%xmm0, %xmm7
	.loc	0 308 56                        # ldecod_src/intra16x16_pred_normal.c:308:56
	leal	(%rcx,%rdi), %r10d
	.loc	0 305 56                        # ldecod_src/intra16x16_pred_normal.c:305:56
	leal	(%rdx,%rdi), %r11d
	.loc	0 306 56                        # ldecod_src/intra16x16_pred_normal.c:306:56
	leal	(%rsi,%rdi), %ebx
	psubd	%xmm3, %xmm6
	.loc	0 305 72                        # ldecod_src/intra16x16_pred_normal.c:305:72
	movd	%r10d, %xmm9
	movd	%r11d, %xmm10
	punpcklqdq	%xmm9, %xmm10           # xmm10 = xmm10[0],xmm9[0]
	shufps	$36, %xmm10, %xmm7              # xmm7 = xmm7[0,1],xmm10[2,0]
	movd	%ebx, %xmm9
.Ltmp258:
	#DEBUG_VALUE: prd <- [DW_OP_plus_uconst 16, DW_OP_stack_value] $r9
	#DEBUG_VALUE: prd <- [DW_OP_plus_uconst 30, DW_OP_stack_value] $r9
	.loc	0 305 56 is_stmt 0              # ldecod_src/intra16x16_pred_normal.c:305:56
	pshufd	$0, %xmm8, %xmm10               # xmm10 = xmm8[0,0,0,0]
	.loc	0 305 72                        # ldecod_src/intra16x16_pred_normal.c:305:72
	shufps	$212, %xmm6, %xmm8              # xmm8 = xmm8[0,1],xmm6[1,3]
	punpckldq	%xmm9, %xmm6            # xmm6 = xmm6[0],xmm9[0],xmm6[1],xmm9[1]
	shufps	$33, %xmm8, %xmm6               # xmm6 = xmm6[1,0],xmm8[2,0]
	psrad	$5, %xmm6
	psrad	$5, %xmm7
.Ltmp259:
	.loc	6 49 10 is_stmt 1               # ldecod_src/inc/ifunctions.h:49:10
	movdqa	%xmm7, %xmm8
	pcmpgtd	%xmm5, %xmm8
	pand	%xmm7, %xmm8
	movdqa	%xmm6, %xmm7
	pcmpgtd	%xmm5, %xmm7
	pand	%xmm6, %xmm7
.Ltmp260:
	.loc	6 44 10                         # ldecod_src/inc/ifunctions.h:44:10
	movdqa	%xmm2, %xmm6
	pcmpgtd	%xmm7, %xmm6
	pand	%xmm6, %xmm7
	pandn	%xmm2, %xmm6
	por	%xmm7, %xmm6
	movdqa	%xmm2, %xmm7
	pcmpgtd	%xmm8, %xmm7
	pand	%xmm7, %xmm8
	pandn	%xmm2, %xmm7
	por	%xmm8, %xmm7
.Ltmp261:
	.loc	0 305 16                        # ldecod_src/intra16x16_pred_normal.c:305:16
	pslld	$16, %xmm7
	psrad	$16, %xmm7
	pslld	$16, %xmm6
	psrad	$16, %xmm6
	packssdw	%xmm6, %xmm7
	.loc	0 305 14 is_stmt 0              # ldecod_src/intra16x16_pred_normal.c:305:14
	movdqu	%xmm7, (%r9)
.Ltmp262:
	#DEBUG_VALUE: imax:a <- [DW_OP_LLVM_arg 0, DW_OP_plus_uconst 16, DW_OP_LLVM_arg 0, DW_OP_LLVM_convert 64 7, DW_OP_LLVM_convert 32 7, DW_OP_constu 7, DW_OP_minus, DW_OP_LLVM_arg 0, DW_OP_mul, DW_OP_plus, DW_OP_LLVM_arg 0, DW_OP_plus, DW_OP_constu 5, DW_OP_shra, DW_OP_stack_value] undef
	#DEBUG_VALUE: imax:a <- [DW_OP_LLVM_arg 0, DW_OP_plus_uconst 16, DW_OP_LLVM_arg 0, DW_OP_LLVM_convert 64 7, DW_OP_LLVM_convert 32 7, DW_OP_constu 7, DW_OP_minus, DW_OP_LLVM_arg 0, DW_OP_mul, DW_OP_plus, DW_OP_LLVM_arg 0, DW_OP_plus, DW_OP_constu 5, DW_OP_shra, DW_OP_stack_value] undef
	#DEBUG_VALUE: imax:a <- [DW_OP_LLVM_arg 0, DW_OP_plus_uconst 16, DW_OP_LLVM_arg 0, DW_OP_LLVM_convert 64 7, DW_OP_LLVM_convert 32 7, DW_OP_constu 7, DW_OP_minus, DW_OP_LLVM_arg 0, DW_OP_mul, DW_OP_plus, DW_OP_LLVM_arg 0, DW_OP_constu 6, DW_OP_mul, DW_OP_plus, DW_OP_constu 5, DW_OP_shra, DW_OP_stack_value] undef
	#DEBUG_VALUE: imax:a <- [DW_OP_LLVM_arg 0, DW_OP_plus_uconst 16, DW_OP_LLVM_arg 0, DW_OP_LLVM_convert 64 7, DW_OP_LLVM_convert 32 7, DW_OP_constu 7, DW_OP_minus, DW_OP_LLVM_arg 0, DW_OP_mul, DW_OP_plus, DW_OP_LLVM_arg 0, DW_OP_constu 5, DW_OP_mul, DW_OP_plus, DW_OP_constu 5, DW_OP_shra, DW_OP_stack_value] undef
	#DEBUG_VALUE: intra16x16_plane_pred:i <- 12
	.loc	0 305 56                        # ldecod_src/intra16x16_pred_normal.c:305:56
	movdqa	%xmm10, %xmm6
	paddd	%xmm1, %xmm6
	paddd	%xmm4, %xmm10
	.loc	0 305 72                        # ldecod_src/intra16x16_pred_normal.c:305:72
	psrad	$5, %xmm10
	psrad	$5, %xmm6
.Ltmp263:
	#DEBUG_VALUE: iClip1:x <- [DW_OP_LLVM_arg 0, DW_OP_plus_uconst 16, DW_OP_LLVM_arg 0, DW_OP_LLVM_convert 64 7, DW_OP_LLVM_convert 32 7, DW_OP_constu 7, DW_OP_minus, DW_OP_LLVM_arg 0, DW_OP_mul, DW_OP_plus, DW_OP_LLVM_arg 0, DW_OP_plus, DW_OP_constu 5, DW_OP_shra, DW_OP_stack_value] undef
	#DEBUG_VALUE: imax:a <- [DW_OP_LLVM_arg 0, DW_OP_plus_uconst 16, DW_OP_LLVM_arg 0, DW_OP_LLVM_convert 64 7, DW_OP_LLVM_convert 32 7, DW_OP_constu 7, DW_OP_minus, DW_OP_LLVM_arg 0, DW_OP_mul, DW_OP_plus, DW_OP_LLVM_arg 0, DW_OP_plus, DW_OP_constu 5, DW_OP_shra, DW_OP_stack_value] undef
	.loc	6 49 10 is_stmt 1               # ldecod_src/inc/ifunctions.h:49:10
	movdqa	%xmm6, %xmm7
	pcmpgtd	%xmm5, %xmm7
	pand	%xmm6, %xmm7
	movdqa	%xmm10, %xmm6
	pcmpgtd	%xmm5, %xmm6
	pand	%xmm10, %xmm6
.Ltmp264:
	#DEBUG_VALUE: iClip1:x <- undef
	.loc	6 44 10                         # ldecod_src/inc/ifunctions.h:44:10
	movdqa	%xmm2, %xmm8
	pcmpgtd	%xmm6, %xmm8
	pand	%xmm8, %xmm6
	pandn	%xmm2, %xmm8
	por	%xmm6, %xmm8
	movdqa	%xmm2, %xmm6
	pcmpgtd	%xmm7, %xmm6
	pand	%xmm6, %xmm7
	pandn	%xmm2, %xmm6
	por	%xmm7, %xmm6
.Ltmp265:
	.loc	0 305 16                        # ldecod_src/intra16x16_pred_normal.c:305:16
	pslld	$16, %xmm6
	psrad	$16, %xmm6
	pslld	$16, %xmm8
	psrad	$16, %xmm8
	packssdw	%xmm6, %xmm8
.Ltmp266:
	#DEBUG_VALUE: prd <- [DW_OP_plus_uconst 32, DW_OP_stack_value] $r9
	.loc	0 305 14 is_stmt 0              # ldecod_src/intra16x16_pred_normal.c:305:14
	movdqu	%xmm8, 16(%r9)
.Ltmp267:
	#DEBUG_VALUE: intra16x16_plane_pred:i <- 16
	.loc	0 299 33 is_stmt 1              # ldecod_src/intra16x16_pred_normal.c:299:33
	incq	%r8
.Ltmp268:
	#DEBUG_VALUE: intra16x16_plane_pred:j <- $r8
	.loc	0 299 16 is_stmt 0              # ldecod_src/intra16x16_pred_normal.c:299:16
	addl	%eax, %edi
	cmpq	$16, %r8
.Ltmp269:
	.loc	0 299 3                         # ldecod_src/intra16x16_pred_normal.c:299:3
	jne	.LBB0_56
	jmp	.LBB0_61
.Ltmp270:
.LBB0_58:                               # %if.then81.i
	#DEBUG_VALUE: intrapred_16x16_normal:currMB <- $r14
	#DEBUG_VALUE: intrapred_16x16_normal:pl <- [DW_OP_plus_uconst 32] [$rsp+0]
	#DEBUG_VALUE: intrapred_16x16_normal:predmode <- [DW_OP_LLVM_entry_value 1] $edx
	#DEBUG_VALUE: intra16x16_dc_pred:b <- [DW_OP_plus_uconst 16, DW_OP_deref] $rsp
	#DEBUG_VALUE: intra16x16_dc_pred:currMB <- $r14
	#DEBUG_VALUE: intra16x16_dc_pred:pl <- [DW_OP_plus_uconst 32, DW_OP_deref] $rsp
	#DEBUG_VALUE: intra16x16_dc_pred:currSlice <- $rbp
	#DEBUG_VALUE: intra16x16_dc_pred:p_Vid <- $r13
	#DEBUG_VALUE: intra16x16_dc_pred:s0 <- 0
	#DEBUG_VALUE: intra16x16_dc_pred:s1 <- $eax
	#DEBUG_VALUE: intra16x16_dc_pred:s2 <- 0
	#DEBUG_VALUE: intra16x16_dc_pred:imgY <- $r12
	#DEBUG_VALUE: intra16x16_dc_pred:mb_pred <- $r15
	#DEBUG_VALUE: intra16x16_dc_pred:i <- 16
	#DEBUG_VALUE: intra16x16_dc_pred:s2 <- 0
	.loc	0 88 14 is_stmt 1               # ldecod_src/intra16x16_pred_normal.c:88:14
	addl	$8, %eax
.Ltmp271:
	.loc	0 88 18 is_stmt 0               # ldecod_src/intra16x16_pred_normal.c:88:18
	shrl	$4, %eax
.Ltmp272:
	#DEBUG_VALUE: intra16x16_dc_pred:s0 <- $eax
	.loc	0 0 18                          # ldecod_src/intra16x16_pred_normal.c:0:18
	movl	%eax, %edx
.Ltmp273:
.LBB0_59:                               # %if.end89.i
	#DEBUG_VALUE: intrapred_16x16_normal:currMB <- $r14
	#DEBUG_VALUE: intrapred_16x16_normal:pl <- [DW_OP_plus_uconst 32] [$rsp+0]
	#DEBUG_VALUE: intrapred_16x16_normal:predmode <- [DW_OP_LLVM_entry_value 1] $edx
	#DEBUG_VALUE: intra16x16_dc_pred:b <- [DW_OP_plus_uconst 16, DW_OP_deref] $rsp
	#DEBUG_VALUE: intra16x16_dc_pred:currMB <- $r14
	#DEBUG_VALUE: intra16x16_dc_pred:pl <- [DW_OP_plus_uconst 32, DW_OP_deref] $rsp
	#DEBUG_VALUE: intra16x16_dc_pred:currSlice <- $rbp
	#DEBUG_VALUE: intra16x16_dc_pred:p_Vid <- $r13
	#DEBUG_VALUE: intra16x16_dc_pred:s0 <- $edx
	#DEBUG_VALUE: intra16x16_dc_pred:imgY <- $r12
	#DEBUG_VALUE: intra16x16_dc_pred:mb_pred <- $r15
	#DEBUG_VALUE: intra16x16_dc_pred:s0 <- $edx
	#DEBUG_VALUE: intra16x16_dc_pred:j <- 0
	xorl	%eax, %eax
.Ltmp274:
	.p2align	4, 0x90
.LBB0_60:                               # %for.cond94.preheader.i
                                        # =>This Inner Loop Header: Depth=1
	#DEBUG_VALUE: intrapred_16x16_normal:currMB <- $r14
	#DEBUG_VALUE: intrapred_16x16_normal:pl <- [DW_OP_plus_uconst 32] [$rsp+0]
	#DEBUG_VALUE: intrapred_16x16_normal:predmode <- [DW_OP_LLVM_entry_value 1] $edx
	#DEBUG_VALUE: intra16x16_dc_pred:b <- [DW_OP_plus_uconst 16, DW_OP_deref] $rsp
	#DEBUG_VALUE: intra16x16_dc_pred:currMB <- $r14
	#DEBUG_VALUE: intra16x16_dc_pred:pl <- [DW_OP_plus_uconst 32, DW_OP_deref] $rsp
	#DEBUG_VALUE: intra16x16_dc_pred:currSlice <- $rbp
	#DEBUG_VALUE: intra16x16_dc_pred:p_Vid <- $r13
	#DEBUG_VALUE: intra16x16_dc_pred:s0 <- $edx
	#DEBUG_VALUE: intra16x16_dc_pred:imgY <- $r12
	#DEBUG_VALUE: intra16x16_dc_pred:mb_pred <- $r15
	#DEBUG_VALUE: intra16x16_dc_pred:j <- $rax
	#DEBUG_VALUE: intra16x16_dc_pred:i <- 0
	.loc	0 99 7 is_stmt 1                # ldecod_src/intra16x16_pred_normal.c:99:7
	movq	(%r15,%rax,8), %rcx
	.loc	0 99 24 is_stmt 0               # ldecod_src/intra16x16_pred_normal.c:99:24
	movw	%dx, (%rcx)
	.loc	0 100 7 is_stmt 1               # ldecod_src/intra16x16_pred_normal.c:100:7
	movq	(%r15,%rax,8), %rcx
	.loc	0 100 24 is_stmt 0              # ldecod_src/intra16x16_pred_normal.c:100:24
	movw	%dx, 2(%rcx)
	.loc	0 101 7 is_stmt 1               # ldecod_src/intra16x16_pred_normal.c:101:7
	movq	(%r15,%rax,8), %rcx
	.loc	0 101 24 is_stmt 0              # ldecod_src/intra16x16_pred_normal.c:101:24
	movw	%dx, 4(%rcx)
	.loc	0 102 7 is_stmt 1               # ldecod_src/intra16x16_pred_normal.c:102:7
	movq	(%r15,%rax,8), %rcx
	.loc	0 102 24 is_stmt 0              # ldecod_src/intra16x16_pred_normal.c:102:24
	movw	%dx, 6(%rcx)
.Ltmp275:
	#DEBUG_VALUE: intra16x16_dc_pred:i <- 4
	.loc	0 99 7 is_stmt 1                # ldecod_src/intra16x16_pred_normal.c:99:7
	movq	(%r15,%rax,8), %rcx
	.loc	0 99 24 is_stmt 0               # ldecod_src/intra16x16_pred_normal.c:99:24
	movw	%dx, 8(%rcx)
	.loc	0 100 7 is_stmt 1               # ldecod_src/intra16x16_pred_normal.c:100:7
	movq	(%r15,%rax,8), %rcx
	.loc	0 100 24 is_stmt 0              # ldecod_src/intra16x16_pred_normal.c:100:24
	movw	%dx, 10(%rcx)
	.loc	0 101 7 is_stmt 1               # ldecod_src/intra16x16_pred_normal.c:101:7
	movq	(%r15,%rax,8), %rcx
	.loc	0 101 24 is_stmt 0              # ldecod_src/intra16x16_pred_normal.c:101:24
	movw	%dx, 12(%rcx)
	.loc	0 102 7 is_stmt 1               # ldecod_src/intra16x16_pred_normal.c:102:7
	movq	(%r15,%rax,8), %rcx
	.loc	0 102 24 is_stmt 0              # ldecod_src/intra16x16_pred_normal.c:102:24
	movw	%dx, 14(%rcx)
.Ltmp276:
	#DEBUG_VALUE: intra16x16_dc_pred:i <- 8
	.loc	0 99 7 is_stmt 1                # ldecod_src/intra16x16_pred_normal.c:99:7
	movq	(%r15,%rax,8), %rcx
	.loc	0 99 24 is_stmt 0               # ldecod_src/intra16x16_pred_normal.c:99:24
	movw	%dx, 16(%rcx)
	.loc	0 100 7 is_stmt 1               # ldecod_src/intra16x16_pred_normal.c:100:7
	movq	(%r15,%rax,8), %rcx
	.loc	0 100 24 is_stmt 0              # ldecod_src/intra16x16_pred_normal.c:100:24
	movw	%dx, 18(%rcx)
	.loc	0 101 7 is_stmt 1               # ldecod_src/intra16x16_pred_normal.c:101:7
	movq	(%r15,%rax,8), %rcx
	.loc	0 101 24 is_stmt 0              # ldecod_src/intra16x16_pred_normal.c:101:24
	movw	%dx, 20(%rcx)
	.loc	0 102 7 is_stmt 1               # ldecod_src/intra16x16_pred_normal.c:102:7
	movq	(%r15,%rax,8), %rcx
	.loc	0 102 24 is_stmt 0              # ldecod_src/intra16x16_pred_normal.c:102:24
	movw	%dx, 22(%rcx)
.Ltmp277:
	#DEBUG_VALUE: intra16x16_dc_pred:i <- 12
	.loc	0 99 7 is_stmt 1                # ldecod_src/intra16x16_pred_normal.c:99:7
	movq	(%r15,%rax,8), %rcx
	.loc	0 99 24 is_stmt 0               # ldecod_src/intra16x16_pred_normal.c:99:24
	movw	%dx, 24(%rcx)
	.loc	0 100 7 is_stmt 1               # ldecod_src/intra16x16_pred_normal.c:100:7
	movq	(%r15,%rax,8), %rcx
	.loc	0 100 24 is_stmt 0              # ldecod_src/intra16x16_pred_normal.c:100:24
	movw	%dx, 26(%rcx)
	.loc	0 101 7 is_stmt 1               # ldecod_src/intra16x16_pred_normal.c:101:7
	movq	(%r15,%rax,8), %rcx
	.loc	0 101 24 is_stmt 0              # ldecod_src/intra16x16_pred_normal.c:101:24
	movw	%dx, 28(%rcx)
	.loc	0 102 7 is_stmt 1               # ldecod_src/intra16x16_pred_normal.c:102:7
	movq	(%r15,%rax,8), %rcx
	.loc	0 102 24 is_stmt 0              # ldecod_src/intra16x16_pred_normal.c:102:24
	movw	%dx, 30(%rcx)
.Ltmp278:
	#DEBUG_VALUE: intra16x16_dc_pred:i <- 16
	.loc	0 92 33 is_stmt 1               # ldecod_src/intra16x16_pred_normal.c:92:33
	incq	%rax
.Ltmp279:
	#DEBUG_VALUE: intra16x16_dc_pred:j <- $rax
	.loc	0 92 16 is_stmt 0               # ldecod_src/intra16x16_pred_normal.c:92:16
	cmpq	$16, %rax
.Ltmp280:
	.loc	0 92 3                          # ldecod_src/intra16x16_pred_normal.c:92:3
	jne	.LBB0_60
.Ltmp281:
.LBB0_61:                               # %intra16x16_dc_pred.exit
	#DEBUG_VALUE: intrapred_16x16_normal:currMB <- [DW_OP_LLVM_entry_value 1] $rdi
	#DEBUG_VALUE: intrapred_16x16_normal:pl <- [DW_OP_LLVM_entry_value 1] $esi
	#DEBUG_VALUE: intrapred_16x16_normal:predmode <- [DW_OP_LLVM_entry_value 1] $edx
	.loc	0 0 3                           # ldecod_src/intra16x16_pred_normal.c:0:3
	xorl	%eax, %eax
.Ltmp282:
.LBB0_62:                               # %return
	#DEBUG_VALUE: intrapred_16x16_normal:currMB <- [DW_OP_LLVM_entry_value 1] $rdi
	#DEBUG_VALUE: intrapred_16x16_normal:pl <- [DW_OP_LLVM_entry_value 1] $esi
	#DEBUG_VALUE: intrapred_16x16_normal:predmode <- [DW_OP_LLVM_entry_value 1] $edx
	.loc	0 349 1 epilogue_begin is_stmt 1 # ldecod_src/intra16x16_pred_normal.c:349:1
	addq	$56, %rsp
	.cfi_def_cfa_offset 56
	popq	%rbx
	.cfi_def_cfa_offset 48
	popq	%r12
	.cfi_def_cfa_offset 40
	popq	%r13
	.cfi_def_cfa_offset 32
	popq	%r14
	.cfi_def_cfa_offset 24
	popq	%r15
	.cfi_def_cfa_offset 16
	popq	%rbp
	.cfi_def_cfa_offset 8
	retq
.Ltmp283:
.Lfunc_end0:
	.size	intrapred_16x16_normal, .Lfunc_end0-intrapred_16x16_normal
	.cfi_endproc
	.section	.rodata,"a",@progbits
	.p2align	3, 0x0
.LJTI0_0:
	.quad	.LBB0_2
	.quad	.LBB0_8
	.quad	.LBB0_4
	.quad	.LBB0_6
	.file	7 "ldecod_src/inc" "global.h" md5 0xc4ca3c417c5616a2ff6b6266e7376fc1
	.file	8 "ldecod_src/inc" "parsetcommon.h" md5 0xd59d7e00f3aec3a23ed88314ae35b687
	.file	9 "ldecod_src/inc" "io_image.h" md5 0x8caef624e6f5391b0c6ab2984e7f77c6
	.file	10 "/usr/include/x86_64-linux-gnu/bits" "types.h" md5 0xd108b5f93a74c50510d7d9bc0ab36df9
	.file	11 "/usr/include/x86_64-linux-gnu/bits" "stdint-intn.h" md5 0x55bcbdc3159515ebd91d351a70d505f4
	.file	12 "ldecod_src/inc" "win32.h" md5 0x100def0ffeee72ecdc377183538a04bb
	.file	13 "ldecod_src/inc" "mbuffer.h" md5 0x1ba7faf5f978b0f36a8f480bbf7b3401
	.file	14 "/usr/include" "stdio.h" md5 0xf31eefcc3f15835fc5a4023a625cf609
	.file	15 "ldecod_src/inc" "mb_access.h" md5 0xeb590c3fb983e8661ba693913fa8cfd2
                                        # -- End function
	.type	.L.str,@object                  # @.str
	.section	.rodata.str1.1,"aMS",@progbits,1
.L.str:
	.asciz	"illegal 16x16 intra prediction mode input: %d\n"
	.size	.L.str, 47

	.type	.L.str.1,@object                # @.str.1
.L.str.1:
	.asciz	"invalid 16x16 intra pred Mode VERT_PRED_16"
	.size	.L.str.1, 43

	.type	.L.str.2,@object                # @.str.2
.L.str.2:
	.asciz	"invalid 16x16 intra pred Mode HOR_PRED_16"
	.size	.L.str.2, 42

	.type	.L.str.3,@object                # @.str.3
.L.str.3:
	.asciz	"invalid 16x16 intra pred Mode PLANE_16"
	.size	.L.str.3, 39

	.section	".note.GNU-stack","",@progbits