	.text
	.file	"io_tiff.c"
	.file	0 "/home/yjs/workspace/x264-test/src" "ldecod_src/io_tiff.c" md5 0x7e25e706e2e225d573e969d40353a77d
	.file	1 "ldecod_src/inc" "typedefs.h" md5 0xe1393d024b72e653f4e6dbeffdb0b154
	.file	2 "ldecod_src/inc" "frame.h" md5 0xfd6ca9e1c707932f749220576db72b57
	.file	3 "ldecod_src/inc" "io_video.h" md5 0x1141c07f1801ad27d87214c419749431
	.globl	constructTiff                   # -- Begin function constructTiff
	.p2align	4, 0x90
	.type	constructTiff,@function
constructTiff:                          # @constructTiff
.Lfunc_begin0:
	.cfi_startproc
# %bb.0:                                # %entry
	#DEBUG_VALUE: constructTiff:t <- $rdi
	.loc	0 167 10 prologue_end           # ldecod_src/io_tiff.c:167:10
	xorps	%xmm0, %xmm0
	movups	%xmm0, (%rdi)
	movq	$0, 16(%rdi)
	.loc	0 169 1                         # ldecod_src/io_tiff.c:169:1
	retq
.Ltmp0:
.Lfunc_end0:
	.size	constructTiff, .Lfunc_end0-constructTiff
	.cfi_endproc
                                        # -- End function
	.globl	destructTiff                    # -- Begin function destructTiff
	.p2align	4, 0x90
	.type	destructTiff,@function
destructTiff:                           # @destructTiff
.Lfunc_begin1:
	.loc	0 180 0                         # ldecod_src/io_tiff.c:180:0
	.cfi_startproc
# %bb.0:                                # %entry
	#DEBUG_VALUE: destructTiff:t <- $rdi
	pushq	%rbx
	.cfi_def_cfa_offset 16
	.cfi_offset %rbx, -16
	movq	%rdi, %rbx
.Ltmp1:
	.loc	0 181 10 prologue_end           # ldecod_src/io_tiff.c:181:10
	movq	8(%rdi), %rdi
.Ltmp2:
	#DEBUG_VALUE: destructTiff:t <- $rbx
	.loc	0 181 7 is_stmt 0               # ldecod_src/io_tiff.c:181:7
	testq	%rdi, %rdi
.Ltmp3:
	.loc	0 181 7                         # ldecod_src/io_tiff.c:181:7
	je	.LBB1_2
.Ltmp4:
# %bb.1:                                # %if.then
	#DEBUG_VALUE: destructTiff:t <- $rbx
	.loc	0 183 5 is_stmt 1               # ldecod_src/io_tiff.c:183:5
	callq	free@PLT
.Ltmp5:
	.loc	0 184 21                        # ldecod_src/io_tiff.c:184:21
	movq	$0, 8(%rbx)
.Ltmp6:
.LBB1_2:                                # %if.end
	#DEBUG_VALUE: destructTiff:t <- $rbx
	.loc	0 186 10                        # ldecod_src/io_tiff.c:186:10
	movq	(%rbx), %rdi
	.loc	0 186 7 is_stmt 0               # ldecod_src/io_tiff.c:186:7
	testq	%rdi, %rdi
.Ltmp7:
	.loc	0 186 7                         # ldecod_src/io_tiff.c:186:7
	je	.LBB1_4
.Ltmp8:
# %bb.3:                                # %if.then4
	#DEBUG_VALUE: destructTiff:t <- $rbx
	.loc	0 188 5 is_stmt 1               # ldecod_src/io_tiff.c:188:5
	callq	free@PLT
.Ltmp9:
	.loc	0 189 12                        # ldecod_src/io_tiff.c:189:12
	movq	$0, (%rbx)
.Ltmp10:
.LBB1_4:                                # %if.end7
	#DEBUG_VALUE: destructTiff:t <- $rbx
	.loc	0 191 1 epilogue_begin          # ldecod_src/io_tiff.c:191:1
	popq	%rbx
.Ltmp11:
	#DEBUG_VALUE: destructTiff:t <- [DW_OP_LLVM_entry_value 1] $rdi
	.cfi_def_cfa_offset 8
	retq
.Ltmp12:
.Lfunc_end1:
	.size	destructTiff, .Lfunc_end1-destructTiff
	.cfi_endproc
	.file	4 "/usr/include" "stdlib.h" md5 0x02258fad21adf111bb9df9825e61954a
                                        # -- End function
	.globl	horizontal_half_1chan_cosite    # -- Begin function horizontal_half_1chan_cosite
	.p2align	4, 0x90
	.type	horizontal_half_1chan_cosite,@function
horizontal_half_1chan_cosite:           # @horizontal_half_1chan_cosite
.Lfunc_begin2:
	.loc	0 827 0                         # ldecod_src/io_tiff.c:827:0
	.cfi_startproc
# %bb.0:                                # %entry
	#DEBUG_VALUE: horizontal_half_1chan_cosite:srcPtr <- $rdi
	#DEBUG_VALUE: horizontal_half_1chan_cosite:srcXres <- $esi
	#DEBUG_VALUE: horizontal_half_1chan_cosite:yres <- $edx
	#DEBUG_VALUE: horizontal_half_1chan_cosite:srcZres <- $ecx
	#DEBUG_VALUE: horizontal_half_1chan_cosite:dstPtr <- $r8
	#DEBUG_VALUE: horizontal_half_1chan_cosite:dstZres <- $r9d
	pushq	%rbp
	.cfi_def_cfa_offset 16
	pushq	%r15
	.cfi_def_cfa_offset 24
	pushq	%r14
	.cfi_def_cfa_offset 32
	pushq	%r13
	.cfi_def_cfa_offset 40
	pushq	%r12
	.cfi_def_cfa_offset 48
	pushq	%rbx
	.cfi_def_cfa_offset 56
	subq	$56, %rsp
	.cfi_def_cfa_offset 112
	.cfi_offset %rbx, -56
	.cfi_offset %r12, -48
	.cfi_offset %r13, -40
	.cfi_offset %r14, -32
	.cfi_offset %r15, -24
	.cfi_offset %rbp, -16
.Ltmp13:
	#DEBUG_VALUE: horizontal_half_1chan_cosite:pixMax <- [DW_OP_plus_uconst 112] [$rsp+0]
	#DEBUG_VALUE: horizontal_half_1chan_cosite:src <- $rdi
	#DEBUG_VALUE: horizontal_half_1chan_cosite:dst <- $r8
                                        # kill: def $esi killed $esi def $rsi
	movq	%rsi, -64(%rsp)                 # 8-byte Spill
.Ltmp14:
	#DEBUG_VALUE: horizontal_half_1chan_cosite:srcXres <- [DW_OP_constu 64, DW_OP_minus] [$rsp+0]
	#DEBUG_VALUE: horizontal_half_1chan_cosite:y <- 0
	movl	%edx, -88(%rsp)                 # 4-byte Spill
.Ltmp15:
	#DEBUG_VALUE: horizontal_half_1chan_cosite:yres <- [DW_OP_constu 88, DW_OP_minus] [$rsp+0]
	.loc	0 833 15 prologue_end           # ldecod_src/io_tiff.c:833:15
	testl	%edx, %edx
.Ltmp16:
	.loc	0 833 3 is_stmt 0               # ldecod_src/io_tiff.c:833:3
	jle	.LBB2_25
.Ltmp17:
# %bb.1:                                # %for.cond1.preheader.lr.ph
	#DEBUG_VALUE: horizontal_half_1chan_cosite:srcPtr <- $rdi
	#DEBUG_VALUE: horizontal_half_1chan_cosite:srcXres <- [DW_OP_constu 64, DW_OP_minus] [$rsp+0]
	#DEBUG_VALUE: horizontal_half_1chan_cosite:yres <- [DW_OP_constu 88, DW_OP_minus] [$rsp+0]
	#DEBUG_VALUE: horizontal_half_1chan_cosite:srcZres <- $ecx
	#DEBUG_VALUE: horizontal_half_1chan_cosite:dstPtr <- $r8
	#DEBUG_VALUE: horizontal_half_1chan_cosite:dstZres <- $r9d
	#DEBUG_VALUE: horizontal_half_1chan_cosite:pixMax <- [DW_OP_plus_uconst 112] [$rsp+0]
	#DEBUG_VALUE: horizontal_half_1chan_cosite:src <- $rdi
	#DEBUG_VALUE: horizontal_half_1chan_cosite:dst <- $r8
	#DEBUG_VALUE: horizontal_half_1chan_cosite:y <- 0
	.loc	0 0 3                           # ldecod_src/io_tiff.c:0:3
	movslq	%ecx, %r12
	leal	(%r12,%r12,2), %edx
	movslq	%edx, %r13
	leal	(%r12,%r12,4), %edx
	movslq	%edx, %rsi
	leal	(,%r12,8), %edx
	subl	%r12d, %edx
	movslq	%edx, %r10
	movslq	%r9d, %r9
.Ltmp18:
	#DEBUG_VALUE: horizontal_half_1chan_cosite:dstZres <- [DW_OP_LLVM_entry_value 1] $r9d
	leal	(%r12,%r12), %edx
	movslq	%edx, %r11
	movq	%r12, %rax
	negq	%rax
	movq	%rax, -112(%rsp)                # 8-byte Spill
	movq	%r13, %rax
	negq	%rax
	movq	%rax, -56(%rsp)                 # 8-byte Spill
	movq	%rsi, %rax
	negq	%rax
	movq	%rax, 16(%rsp)                  # 8-byte Spill
	movq	-64(%rsp), %rax                 # 8-byte Reload
	movl	%eax, %edx
	andl	$-2, %edx
	movl	%edx, -124(%rsp)                # 4-byte Spill
	.loc	0 833 3                         # ldecod_src/io_tiff.c:833:3
	leal	-17(%rax), %edx
	andl	$-2, %edx
	addl	$10, %edx
	movl	%edx, -92(%rsp)                 # 4-byte Spill
	movq	%r11, %rdx
	negq	%rdx
	movq	%rdx, 8(%rsp)                   # 8-byte Spill
	leaq	(,%r12,4), %rbx
	leal	(,%r12,4), %edx
	movslq	%edx, %r14
	movq	%r10, %rdx
	negq	%r14
	movq	%r14, -8(%rsp)                  # 8-byte Spill
	leaq	(,%r12,8), %r10
	negq	%r10
	movq	%r10, -16(%rsp)                 # 8-byte Spill
	leaq	(%rbx,%rbx,2), %r10
	negq	%rbx
	movq	%rbx, (%rsp)                    # 8-byte Spill
	negq	%r10
	movq	%r10, -24(%rsp)                 # 8-byte Spill
	leaq	(%rdx,%rdx), %r10
	negq	%r10
	movq	%r10, -32(%rsp)                 # 8-byte Spill
	movq	%rsi, 32(%rsp)                  # 8-byte Spill
	addq	%rsi, %rsi
	negq	%rsi
	movq	%rsi, -40(%rsp)                 # 8-byte Spill
	leaq	(,%r13,2), %rsi
	negq	%rsi
	movq	%rsi, -48(%rsp)                 # 8-byte Spill
	leaq	(%r12,%r12), %rsi
	negq	%rsi
	leal	-8(%rax), %r10d
	movl	%r10d, -68(%rsp)                # 4-byte Spill
	leal	-1(%rax), %r10d
	movl	%r10d, -128(%rsp)               # 4-byte Spill
	leal	-3(%rax), %r10d
	movl	%r10d, -72(%rsp)                # 4-byte Spill
	leal	-5(%rax), %r10d
	movl	%r10d, -76(%rsp)                # 4-byte Spill
	addl	$-7, %eax
	movl	%eax, -80(%rsp)                 # 4-byte Spill
	movq	%r9, -104(%rsp)                 # 8-byte Spill
	leaq	(%r9,%r9), %r15
	movq	%r11, -120(%rsp)                # 8-byte Spill
	leaq	(%r11,%r11), %rbp
	xorl	%eax, %eax
	movq	%r12, 48(%rsp)                  # 8-byte Spill
	movq	%r13, 40(%rsp)                  # 8-byte Spill
	movq	%rdx, 24(%rsp)                  # 8-byte Spill
	jmp	.LBB2_2
.Ltmp19:
	.p2align	4, 0x90
.LBB2_24:                               # %for.inc254
                                        #   in Loop: Header=BB2_2 Depth=1
	#DEBUG_VALUE: horizontal_half_1chan_cosite:srcPtr <- [DW_OP_LLVM_entry_value 1] $rdi
	#DEBUG_VALUE: horizontal_half_1chan_cosite:srcXres <- [DW_OP_constu 64, DW_OP_minus] [$rsp+0]
	#DEBUG_VALUE: horizontal_half_1chan_cosite:yres <- [DW_OP_constu 88, DW_OP_minus] [$rsp+0]
	#DEBUG_VALUE: horizontal_half_1chan_cosite:srcZres <- $ecx
	#DEBUG_VALUE: horizontal_half_1chan_cosite:dstPtr <- [DW_OP_LLVM_entry_value 1] $r8
	#DEBUG_VALUE: horizontal_half_1chan_cosite:dstZres <- [DW_OP_LLVM_entry_value 1] $r9d
	#DEBUG_VALUE: horizontal_half_1chan_cosite:pixMax <- [DW_OP_plus_uconst 112] [$rsp+0]
	#DEBUG_VALUE: horizontal_half_1chan_cosite:y <- [DW_OP_constu 84, DW_OP_minus, DW_OP_deref] $rsp
	#DEBUG_VALUE: horizontal_half_1chan_cosite:x <- $r9d
	#DEBUG_VALUE: horizontal_half_1chan_cosite:limit <- [DW_OP_constu 124, DW_OP_minus, DW_OP_deref] $rsp
	.loc	0 0 3                           # ldecod_src/io_tiff.c:0:3
	movl	-84(%rsp), %eax                 # 4-byte Reload
.Ltmp20:
	.loc	0 833 24                        # ldecod_src/io_tiff.c:833:24
	incl	%eax
.Ltmp21:
	#DEBUG_VALUE: horizontal_half_1chan_cosite:y <- $eax
	#DEBUG_VALUE: horizontal_half_1chan_cosite:dst <- $r8
	#DEBUG_VALUE: horizontal_half_1chan_cosite:src <- $rdi
	.loc	0 833 15                        # ldecod_src/io_tiff.c:833:15
	cmpl	-88(%rsp), %eax                 # 4-byte Folded Reload
	movq	48(%rsp), %r12                  # 8-byte Reload
	movq	40(%rsp), %r13                  # 8-byte Reload
	movq	24(%rsp), %rdx                  # 8-byte Reload
.Ltmp22:
	.loc	0 833 3                         # ldecod_src/io_tiff.c:833:3
	je	.LBB2_25
.Ltmp23:
.LBB2_2:                                # %for.cond1.preheader
                                        # =>This Loop Header: Depth=1
                                        #     Child Loop BB2_11 Depth 2
                                        #     Child Loop BB2_19 Depth 2
	#DEBUG_VALUE: horizontal_half_1chan_cosite:srcPtr <- [DW_OP_LLVM_entry_value 1] $rdi
	#DEBUG_VALUE: horizontal_half_1chan_cosite:srcXres <- [DW_OP_constu 64, DW_OP_minus] [$rsp+0]
	#DEBUG_VALUE: horizontal_half_1chan_cosite:yres <- [DW_OP_constu 88, DW_OP_minus] [$rsp+0]
	#DEBUG_VALUE: horizontal_half_1chan_cosite:srcZres <- $ecx
	#DEBUG_VALUE: horizontal_half_1chan_cosite:dstPtr <- [DW_OP_LLVM_entry_value 1] $r8
	#DEBUG_VALUE: horizontal_half_1chan_cosite:dstZres <- [DW_OP_LLVM_entry_value 1] $r9d
	#DEBUG_VALUE: horizontal_half_1chan_cosite:pixMax <- [DW_OP_plus_uconst 112] [$rsp+0]
	#DEBUG_VALUE: horizontal_half_1chan_cosite:src <- $rdi
	#DEBUG_VALUE: horizontal_half_1chan_cosite:dst <- $r8
	#DEBUG_VALUE: horizontal_half_1chan_cosite:y <- $eax
	#DEBUG_VALUE: horizontal_half_1chan_cosite:dst <- $r8
	#DEBUG_VALUE: horizontal_half_1chan_cosite:src <- $rdi
	#DEBUG_VALUE: horizontal_half_1chan_cosite:x <- 0
	#DEBUG_VALUE: horizontal_half_1chan_cosite:n1 <- [DW_OP_stack_value] 1
	#DEBUG_VALUE: horizontal_half_1chan_cosite:n3 <- 0
	#DEBUG_VALUE: horizontal_half_1chan_cosite:n5 <- 0
	#DEBUG_VALUE: horizontal_half_1chan_cosite:n7 <- 0
	.loc	0 0 3                           # ldecod_src/io_tiff.c:0:3
	movl	%eax, -84(%rsp)                 # 4-byte Spill
.Ltmp24:
	#DEBUG_VALUE: horizontal_half_1chan_cosite:y <- [DW_OP_constu 84, DW_OP_minus, DW_OP_deref] $rsp
	.loc	0 841 26 is_stmt 1              # ldecod_src/io_tiff.c:841:26
	movzwl	(%rdi), %r9d
	.loc	0 842 38                        # ldecod_src/io_tiff.c:842:38
	movzwl	(%rdi,%r12,2), %r10d
	.loc	0 842 36 is_stmt 0              # ldecod_src/io_tiff.c:842:36
	addl	%r9d, %r10d
	.loc	0 843 38 is_stmt 1              # ldecod_src/io_tiff.c:843:38
	movzwl	(%rdi,%r13,2), %r11d
	.loc	0 843 36 is_stmt 0              # ldecod_src/io_tiff.c:843:36
	addl	%r9d, %r11d
	movq	32(%rsp), %rax                  # 8-byte Reload
	.loc	0 844 38 is_stmt 1              # ldecod_src/io_tiff.c:844:38
	movzwl	(%rdi,%rax,2), %ebx
	.loc	0 844 36 is_stmt 0              # ldecod_src/io_tiff.c:844:36
	addl	%r9d, %ebx
	.loc	0 845 38 is_stmt 1              # ldecod_src/io_tiff.c:845:38
	movzwl	(%rdi,%rdx,2), %r14d
	.loc	0 845 36 is_stmt 0              # ldecod_src/io_tiff.c:845:36
	addl	%r9d, %r14d
	.loc	0 841 23 is_stmt 1              # ldecod_src/io_tiff.c:841:23
	shll	$11, %r9d
	.loc	0 842 15                        # ldecod_src/io_tiff.c:842:15
	imull	$1228, %r10d, %r10d             # imm = 0x4CC
	.loc	0 842 9 is_stmt 0               # ldecod_src/io_tiff.c:842:9
	addl	%r9d, %r10d
	.loc	0 843 15 is_stmt 1              # ldecod_src/io_tiff.c:843:15
	imull	$-262, %r11d, %r9d              # imm = 0xFEFA
	.loc	0 844 15                        # ldecod_src/io_tiff.c:844:15
	imull	$47, %ebx, %r11d
	.loc	0 843 9                         # ldecod_src/io_tiff.c:843:9
	addl	%r9d, %r11d
	.loc	0 844 9                         # ldecod_src/io_tiff.c:844:9
	addl	%r10d, %r11d
	.loc	0 845 15                        # ldecod_src/io_tiff.c:845:15
	leal	(%r14,%r14,4), %r9d
	leal	(%r14,%r9,2), %r9d
	.loc	0 845 9 is_stmt 0               # ldecod_src/io_tiff.c:845:9
	addl	%r11d, %r9d
.Ltmp25:
	#DEBUG_VALUE: horizontal_half_1chan_cosite:result <- [DW_OP_plus_uconst 2048, DW_OP_constu 4096, DW_OP_div, DW_OP_stack_value] $r9d
	.loc	0 0 9                           # ldecod_src/io_tiff.c:0:9
	movl	$0, %r10d
.Ltmp26:
	.loc	0 846 18 is_stmt 1              # ldecod_src/io_tiff.c:846:18
	cmpl	$-6143, %r9d                    # imm = 0xE801
.Ltmp27:
	.loc	0 846 11 is_stmt 0              # ldecod_src/io_tiff.c:846:11
	jl	.LBB2_4
.Ltmp28:
# %bb.3:                                # %if.else
                                        #   in Loop: Header=BB2_2 Depth=1
	#DEBUG_VALUE: horizontal_half_1chan_cosite:srcPtr <- [DW_OP_LLVM_entry_value 1] $rdi
	#DEBUG_VALUE: horizontal_half_1chan_cosite:srcXres <- [DW_OP_constu 64, DW_OP_minus] [$rsp+0]
	#DEBUG_VALUE: horizontal_half_1chan_cosite:yres <- [DW_OP_constu 88, DW_OP_minus] [$rsp+0]
	#DEBUG_VALUE: horizontal_half_1chan_cosite:srcZres <- $ecx
	#DEBUG_VALUE: horizontal_half_1chan_cosite:dstPtr <- [DW_OP_LLVM_entry_value 1] $r8
	#DEBUG_VALUE: horizontal_half_1chan_cosite:dstZres <- [DW_OP_LLVM_entry_value 1] $r9d
	#DEBUG_VALUE: horizontal_half_1chan_cosite:pixMax <- [DW_OP_plus_uconst 112] [$rsp+0]
	#DEBUG_VALUE: horizontal_half_1chan_cosite:src <- $rdi
	#DEBUG_VALUE: horizontal_half_1chan_cosite:dst <- $r8
	#DEBUG_VALUE: horizontal_half_1chan_cosite:y <- [DW_OP_constu 84, DW_OP_minus, DW_OP_deref] $rsp
	#DEBUG_VALUE: horizontal_half_1chan_cosite:x <- 0
	#DEBUG_VALUE: horizontal_half_1chan_cosite:n1 <- [DW_OP_stack_value] 1
	#DEBUG_VALUE: horizontal_half_1chan_cosite:n3 <- 0
	#DEBUG_VALUE: horizontal_half_1chan_cosite:n5 <- 0
	#DEBUG_VALUE: horizontal_half_1chan_cosite:n7 <- 0
	#DEBUG_VALUE: horizontal_half_1chan_cosite:result <- [DW_OP_plus_uconst 2048, DW_OP_constu 4096, DW_OP_div, DW_OP_stack_value] $r9d
	.loc	0 845 56 is_stmt 1              # ldecod_src/io_tiff.c:845:56
	leal	2048(%r9), %r10d
.Ltmp29:
	#DEBUG_VALUE: horizontal_half_1chan_cosite:result <- [DW_OP_constu 4096, DW_OP_div, DW_OP_stack_value] $r10d
	.loc	0 845 63 is_stmt 0              # ldecod_src/io_tiff.c:845:63
	addl	$6143, %r9d                     # imm = 0x17FF
	testl	%r10d, %r10d
	cmovnsl	%r10d, %r9d
	sarl	$12, %r9d
.Ltmp30:
	#DEBUG_VALUE: horizontal_half_1chan_cosite:result <- $r9d
	.loc	0 0 63                          # ldecod_src/io_tiff.c:0:63
	movl	112(%rsp), %r10d
.Ltmp31:
	.loc	0 848 16 is_stmt 1              # ldecod_src/io_tiff.c:848:16
	cmpl	%r10d, %r9d
	cmovgel	%r10d, %r9d
.Ltmp32:
	.loc	0 0 16 is_stmt 0                # ldecod_src/io_tiff.c:0:16
	movl	%r9d, %r10d
.Ltmp33:
.LBB2_4:                                # %if.end68
                                        #   in Loop: Header=BB2_2 Depth=1
	#DEBUG_VALUE: horizontal_half_1chan_cosite:srcPtr <- [DW_OP_LLVM_entry_value 1] $rdi
	#DEBUG_VALUE: horizontal_half_1chan_cosite:srcXres <- [DW_OP_constu 64, DW_OP_minus] [$rsp+0]
	#DEBUG_VALUE: horizontal_half_1chan_cosite:yres <- [DW_OP_constu 88, DW_OP_minus] [$rsp+0]
	#DEBUG_VALUE: horizontal_half_1chan_cosite:srcZres <- $ecx
	#DEBUG_VALUE: horizontal_half_1chan_cosite:dstPtr <- [DW_OP_LLVM_entry_value 1] $r8
	#DEBUG_VALUE: horizontal_half_1chan_cosite:dstZres <- [DW_OP_LLVM_entry_value 1] $r9d
	#DEBUG_VALUE: horizontal_half_1chan_cosite:pixMax <- [DW_OP_plus_uconst 112] [$rsp+0]
	#DEBUG_VALUE: horizontal_half_1chan_cosite:src <- $rdi
	#DEBUG_VALUE: horizontal_half_1chan_cosite:dst <- $r8
	#DEBUG_VALUE: horizontal_half_1chan_cosite:y <- [DW_OP_constu 84, DW_OP_minus, DW_OP_deref] $rsp
	#DEBUG_VALUE: horizontal_half_1chan_cosite:x <- 0
	#DEBUG_VALUE: horizontal_half_1chan_cosite:n1 <- [DW_OP_stack_value] 1
	#DEBUG_VALUE: horizontal_half_1chan_cosite:n3 <- 0
	#DEBUG_VALUE: horizontal_half_1chan_cosite:n5 <- 0
	#DEBUG_VALUE: horizontal_half_1chan_cosite:n7 <- 0
	#DEBUG_VALUE: horizontal_half_1chan_cosite:result <- $r10d
	.loc	0 850 12 is_stmt 1              # ldecod_src/io_tiff.c:850:12
	movw	%r10w, (%r8)
.Ltmp34:
	#DEBUG_VALUE: horizontal_half_1chan_cosite:dst <- undef
	.loc	0 0 12 is_stmt 0                # ldecod_src/io_tiff.c:0:12
	movq	-120(%rsp), %r10                # 8-byte Reload
.Ltmp35:
	.loc	0 852 11 is_stmt 1              # ldecod_src/io_tiff.c:852:11
	leaq	(%rdi,%r10,2), %r9
.Ltmp36:
	#DEBUG_VALUE: horizontal_half_1chan_cosite:src <- $r9
	#DEBUG_VALUE: horizontal_half_1chan_cosite:x <- 2
	#DEBUG_VALUE: horizontal_half_1chan_cosite:n1 <- [DW_OP_stack_value] 0
	#DEBUG_VALUE: horizontal_half_1chan_cosite:n3 <- 2
	#DEBUG_VALUE: horizontal_half_1chan_cosite:n5 <- 2
	#DEBUG_VALUE: horizontal_half_1chan_cosite:n7 <- 2
	.loc	0 841 26                        # ldecod_src/io_tiff.c:841:26
	movzwl	(%rdi,%r10,2), %edi
	.loc	0 841 23 is_stmt 0              # ldecod_src/io_tiff.c:841:23
	shll	$11, %edi
	movq	-112(%rsp), %r10                # 8-byte Reload
	.loc	0 842 18 is_stmt 1              # ldecod_src/io_tiff.c:842:18
	movzwl	(%r9,%r10,2), %r10d
	.loc	0 842 38 is_stmt 0              # ldecod_src/io_tiff.c:842:38
	movzwl	(%r9,%r12,2), %r11d
	.loc	0 842 36                        # ldecod_src/io_tiff.c:842:36
	addl	%r10d, %r11d
	.loc	0 842 15                        # ldecod_src/io_tiff.c:842:15
	imull	$1228, %r11d, %r10d             # imm = 0x4CC
	.loc	0 842 9                         # ldecod_src/io_tiff.c:842:9
	addl	%edi, %r10d
	movq	8(%rsp), %rdi                   # 8-byte Reload
	.loc	0 843 18 is_stmt 1              # ldecod_src/io_tiff.c:843:18
	movzwl	(%r9,%rdi,2), %edi
	.loc	0 843 38 is_stmt 0              # ldecod_src/io_tiff.c:843:38
	movzwl	(%r9,%r13,2), %r11d
	.loc	0 843 36                        # ldecod_src/io_tiff.c:843:36
	addl	%edi, %r11d
	.loc	0 843 15                        # ldecod_src/io_tiff.c:843:15
	imull	$-262, %r11d, %r11d             # imm = 0xFEFA
	.loc	0 844 38 is_stmt 1              # ldecod_src/io_tiff.c:844:38
	movzwl	(%r9,%rax,2), %ebx
	.loc	0 844 36 is_stmt 0              # ldecod_src/io_tiff.c:844:36
	addl	%edi, %ebx
	.loc	0 844 15                        # ldecod_src/io_tiff.c:844:15
	imull	$47, %ebx, %edi
	.loc	0 843 9 is_stmt 1               # ldecod_src/io_tiff.c:843:9
	addl	%r11d, %edi
	.loc	0 844 9                         # ldecod_src/io_tiff.c:844:9
	addl	%r10d, %edi
	movq	(%rsp), %r10                    # 8-byte Reload
	.loc	0 845 18                        # ldecod_src/io_tiff.c:845:18
	movzwl	(%r10,%r9), %r10d
	.loc	0 845 38 is_stmt 0              # ldecod_src/io_tiff.c:845:38
	movzwl	(%r9,%rdx,2), %r11d
	.loc	0 845 36                        # ldecod_src/io_tiff.c:845:36
	addl	%r10d, %r11d
	.loc	0 845 15                        # ldecod_src/io_tiff.c:845:15
	leal	(%r11,%r11,4), %r10d
	leal	(%r11,%r10,2), %r10d
	.loc	0 845 9                         # ldecod_src/io_tiff.c:845:9
	addl	%edi, %r10d
.Ltmp37:
	#DEBUG_VALUE: horizontal_half_1chan_cosite:result <- [DW_OP_plus_uconst 2048, DW_OP_constu 4096, DW_OP_div, DW_OP_stack_value] $r10d
	.loc	0 0 9                           # ldecod_src/io_tiff.c:0:9
	xorl	%edi, %edi
	movl	$0, %r11d
.Ltmp38:
	.loc	0 846 18 is_stmt 1              # ldecod_src/io_tiff.c:846:18
	cmpl	$-6143, %r10d                   # imm = 0xE801
.Ltmp39:
	.loc	0 846 11 is_stmt 0              # ldecod_src/io_tiff.c:846:11
	jl	.LBB2_6
.Ltmp40:
# %bb.5:                                # %if.else.1
                                        #   in Loop: Header=BB2_2 Depth=1
	#DEBUG_VALUE: horizontal_half_1chan_cosite:srcPtr <- [DW_OP_LLVM_entry_value 1] $rdi
	#DEBUG_VALUE: horizontal_half_1chan_cosite:srcXres <- [DW_OP_constu 64, DW_OP_minus] [$rsp+0]
	#DEBUG_VALUE: horizontal_half_1chan_cosite:yres <- [DW_OP_constu 88, DW_OP_minus] [$rsp+0]
	#DEBUG_VALUE: horizontal_half_1chan_cosite:srcZres <- $ecx
	#DEBUG_VALUE: horizontal_half_1chan_cosite:dstPtr <- [DW_OP_LLVM_entry_value 1] $r8
	#DEBUG_VALUE: horizontal_half_1chan_cosite:dstZres <- [DW_OP_LLVM_entry_value 1] $r9d
	#DEBUG_VALUE: horizontal_half_1chan_cosite:pixMax <- [DW_OP_plus_uconst 112] [$rsp+0]
	#DEBUG_VALUE: horizontal_half_1chan_cosite:src <- $r9
	#DEBUG_VALUE: horizontal_half_1chan_cosite:y <- [DW_OP_constu 84, DW_OP_minus, DW_OP_deref] $rsp
	#DEBUG_VALUE: horizontal_half_1chan_cosite:x <- 2
	#DEBUG_VALUE: horizontal_half_1chan_cosite:n1 <- [DW_OP_stack_value] 0
	#DEBUG_VALUE: horizontal_half_1chan_cosite:n3 <- 2
	#DEBUG_VALUE: horizontal_half_1chan_cosite:n5 <- 2
	#DEBUG_VALUE: horizontal_half_1chan_cosite:n7 <- 2
	#DEBUG_VALUE: horizontal_half_1chan_cosite:result <- [DW_OP_plus_uconst 2048, DW_OP_constu 4096, DW_OP_div, DW_OP_stack_value] $r10d
	.loc	0 845 56 is_stmt 1              # ldecod_src/io_tiff.c:845:56
	leal	2048(%r10), %r11d
.Ltmp41:
	#DEBUG_VALUE: horizontal_half_1chan_cosite:result <- [DW_OP_constu 4096, DW_OP_div, DW_OP_stack_value] $r11d
	.loc	0 845 63 is_stmt 0              # ldecod_src/io_tiff.c:845:63
	addl	$6143, %r10d                    # imm = 0x17FF
	testl	%r11d, %r11d
	cmovnsl	%r11d, %r10d
	sarl	$12, %r10d
.Ltmp42:
	#DEBUG_VALUE: horizontal_half_1chan_cosite:result <- $r10d
	.loc	0 0 63                          # ldecod_src/io_tiff.c:0:63
	movl	112(%rsp), %r11d
.Ltmp43:
	.loc	0 848 16 is_stmt 1              # ldecod_src/io_tiff.c:848:16
	cmpl	%r11d, %r10d
	cmovgel	%r11d, %r10d
.Ltmp44:
	.loc	0 0 16 is_stmt 0                # ldecod_src/io_tiff.c:0:16
	movl	%r10d, %r11d
.Ltmp45:
.LBB2_6:                                # %if.end68.1
                                        #   in Loop: Header=BB2_2 Depth=1
	#DEBUG_VALUE: horizontal_half_1chan_cosite:srcPtr <- [DW_OP_LLVM_entry_value 1] $rdi
	#DEBUG_VALUE: horizontal_half_1chan_cosite:srcXres <- [DW_OP_constu 64, DW_OP_minus] [$rsp+0]
	#DEBUG_VALUE: horizontal_half_1chan_cosite:yres <- [DW_OP_constu 88, DW_OP_minus] [$rsp+0]
	#DEBUG_VALUE: horizontal_half_1chan_cosite:srcZres <- $ecx
	#DEBUG_VALUE: horizontal_half_1chan_cosite:dstPtr <- [DW_OP_LLVM_entry_value 1] $r8
	#DEBUG_VALUE: horizontal_half_1chan_cosite:dstZres <- [DW_OP_LLVM_entry_value 1] $r9d
	#DEBUG_VALUE: horizontal_half_1chan_cosite:pixMax <- [DW_OP_plus_uconst 112] [$rsp+0]
	#DEBUG_VALUE: horizontal_half_1chan_cosite:src <- $r9
	#DEBUG_VALUE: horizontal_half_1chan_cosite:y <- [DW_OP_constu 84, DW_OP_minus, DW_OP_deref] $rsp
	#DEBUG_VALUE: horizontal_half_1chan_cosite:x <- 2
	#DEBUG_VALUE: horizontal_half_1chan_cosite:n1 <- [DW_OP_stack_value] 0
	#DEBUG_VALUE: horizontal_half_1chan_cosite:n3 <- 2
	#DEBUG_VALUE: horizontal_half_1chan_cosite:n5 <- 2
	#DEBUG_VALUE: horizontal_half_1chan_cosite:n7 <- 2
	movq	-104(%rsp), %r10                # 8-byte Reload
	leaq	(%r8,%r10,2), %r8
.Ltmp46:
	#DEBUG_VALUE: horizontal_half_1chan_cosite:dst <- $r8
	#DEBUG_VALUE: horizontal_half_1chan_cosite:result <- $r11d
	.loc	0 850 12 is_stmt 1              # ldecod_src/io_tiff.c:850:12
	movw	%r11w, (%r8)
.Ltmp47:
	#DEBUG_VALUE: horizontal_half_1chan_cosite:dst <- undef
	.loc	0 0 12 is_stmt 0                # ldecod_src/io_tiff.c:0:12
	movq	-120(%rsp), %r10                # 8-byte Reload
	.loc	0 852 11 is_stmt 1              # ldecod_src/io_tiff.c:852:11
	leaq	(%r9,%r10,2), %r14
.Ltmp48:
	#DEBUG_VALUE: horizontal_half_1chan_cosite:src <- $r14
	#DEBUG_VALUE: horizontal_half_1chan_cosite:x <- 4
	#DEBUG_VALUE: horizontal_half_1chan_cosite:n1 <- [DW_OP_stack_value] 0
	#DEBUG_VALUE: horizontal_half_1chan_cosite:n3 <- 3
	#DEBUG_VALUE: horizontal_half_1chan_cosite:n5 <- 4
	#DEBUG_VALUE: horizontal_half_1chan_cosite:n7 <- 4
	.loc	0 841 26                        # ldecod_src/io_tiff.c:841:26
	movzwl	(%r9,%r10,2), %r9d
	.loc	0 841 23 is_stmt 0              # ldecod_src/io_tiff.c:841:23
	shll	$11, %r9d
	movq	-112(%rsp), %r10                # 8-byte Reload
	.loc	0 842 18 is_stmt 1              # ldecod_src/io_tiff.c:842:18
	movzwl	(%r14,%r10,2), %r10d
	.loc	0 842 38 is_stmt 0              # ldecod_src/io_tiff.c:842:38
	movzwl	(%r14,%r12,2), %r11d
.Ltmp49:
	.loc	0 842 36                        # ldecod_src/io_tiff.c:842:36
	addl	%r10d, %r11d
	.loc	0 842 15                        # ldecod_src/io_tiff.c:842:15
	imull	$1228, %r11d, %r10d             # imm = 0x4CC
	.loc	0 842 9                         # ldecod_src/io_tiff.c:842:9
	addl	%r9d, %r10d
	movq	-56(%rsp), %r9                  # 8-byte Reload
	.loc	0 843 18 is_stmt 1              # ldecod_src/io_tiff.c:843:18
	movzwl	(%r14,%r9,2), %r9d
	.loc	0 843 38 is_stmt 0              # ldecod_src/io_tiff.c:843:38
	movzwl	(%r14,%r13,2), %r11d
	.loc	0 843 36                        # ldecod_src/io_tiff.c:843:36
	addl	%r9d, %r11d
	movq	-8(%rsp), %r9                   # 8-byte Reload
	.loc	0 844 18 is_stmt 1              # ldecod_src/io_tiff.c:844:18
	movzwl	(%r14,%r9,2), %r9d
	.loc	0 844 38 is_stmt 0              # ldecod_src/io_tiff.c:844:38
	movzwl	(%r14,%rax,2), %ebx
	.loc	0 844 36                        # ldecod_src/io_tiff.c:844:36
	addl	%r9d, %ebx
	.loc	0 843 15 is_stmt 1              # ldecod_src/io_tiff.c:843:15
	imull	$-262, %r11d, %r9d              # imm = 0xFEFA
	.loc	0 844 15                        # ldecod_src/io_tiff.c:844:15
	imull	$47, %ebx, %r11d
	.loc	0 843 9                         # ldecod_src/io_tiff.c:843:9
	addl	%r9d, %r11d
	.loc	0 844 9                         # ldecod_src/io_tiff.c:844:9
	addl	%r10d, %r11d
	movq	-16(%rsp), %r9                  # 8-byte Reload
	.loc	0 845 18                        # ldecod_src/io_tiff.c:845:18
	movzwl	(%r9,%r14), %r9d
	.loc	0 845 38 is_stmt 0              # ldecod_src/io_tiff.c:845:38
	movzwl	(%r14,%rdx,2), %r10d
	.loc	0 845 36                        # ldecod_src/io_tiff.c:845:36
	addl	%r9d, %r10d
	.loc	0 845 15                        # ldecod_src/io_tiff.c:845:15
	leal	(%r10,%r10,4), %r9d
	leal	(%r10,%r9,2), %r9d
	.loc	0 845 9                         # ldecod_src/io_tiff.c:845:9
	addl	%r11d, %r9d
.Ltmp50:
	#DEBUG_VALUE: horizontal_half_1chan_cosite:result <- [DW_OP_plus_uconst 2048, DW_OP_constu 4096, DW_OP_div, DW_OP_stack_value] $r9d
	.loc	0 846 18 is_stmt 1              # ldecod_src/io_tiff.c:846:18
	cmpl	$-6143, %r9d                    # imm = 0xE801
.Ltmp51:
	.loc	0 846 11 is_stmt 0              # ldecod_src/io_tiff.c:846:11
	jl	.LBB2_8
.Ltmp52:
# %bb.7:                                # %if.else.2
                                        #   in Loop: Header=BB2_2 Depth=1
	#DEBUG_VALUE: horizontal_half_1chan_cosite:srcPtr <- [DW_OP_LLVM_entry_value 1] $rdi
	#DEBUG_VALUE: horizontal_half_1chan_cosite:srcXres <- [DW_OP_constu 64, DW_OP_minus] [$rsp+0]
	#DEBUG_VALUE: horizontal_half_1chan_cosite:yres <- [DW_OP_constu 88, DW_OP_minus] [$rsp+0]
	#DEBUG_VALUE: horizontal_half_1chan_cosite:srcZres <- $ecx
	#DEBUG_VALUE: horizontal_half_1chan_cosite:dstPtr <- [DW_OP_LLVM_entry_value 1] $r8
	#DEBUG_VALUE: horizontal_half_1chan_cosite:dstZres <- [DW_OP_LLVM_entry_value 1] $r9d
	#DEBUG_VALUE: horizontal_half_1chan_cosite:pixMax <- [DW_OP_plus_uconst 112] [$rsp+0]
	#DEBUG_VALUE: horizontal_half_1chan_cosite:src <- $r14
	#DEBUG_VALUE: horizontal_half_1chan_cosite:y <- [DW_OP_constu 84, DW_OP_minus, DW_OP_deref] $rsp
	#DEBUG_VALUE: horizontal_half_1chan_cosite:x <- 4
	#DEBUG_VALUE: horizontal_half_1chan_cosite:n1 <- [DW_OP_stack_value] 0
	#DEBUG_VALUE: horizontal_half_1chan_cosite:n3 <- 3
	#DEBUG_VALUE: horizontal_half_1chan_cosite:n5 <- 4
	#DEBUG_VALUE: horizontal_half_1chan_cosite:n7 <- 4
	#DEBUG_VALUE: horizontal_half_1chan_cosite:result <- [DW_OP_plus_uconst 2048, DW_OP_constu 4096, DW_OP_div, DW_OP_stack_value] $r9d
	.loc	0 845 56 is_stmt 1              # ldecod_src/io_tiff.c:845:56
	leal	2048(%r9), %edi
.Ltmp53:
	#DEBUG_VALUE: horizontal_half_1chan_cosite:result <- [DW_OP_constu 4096, DW_OP_div, DW_OP_stack_value] $edi
	.loc	0 845 63 is_stmt 0              # ldecod_src/io_tiff.c:845:63
	addl	$6143, %r9d                     # imm = 0x17FF
	testl	%edi, %edi
	cmovnsl	%edi, %r9d
	sarl	$12, %r9d
.Ltmp54:
	#DEBUG_VALUE: horizontal_half_1chan_cosite:result <- $r9d
	.loc	0 0 63                          # ldecod_src/io_tiff.c:0:63
	movl	112(%rsp), %edi
.Ltmp55:
	.loc	0 848 16 is_stmt 1              # ldecod_src/io_tiff.c:848:16
	cmpl	%edi, %r9d
	cmovgel	%edi, %r9d
.Ltmp56:
	.loc	0 0 16 is_stmt 0                # ldecod_src/io_tiff.c:0:16
	movl	%r9d, %edi
.Ltmp57:
.LBB2_8:                                # %if.end68.2
                                        #   in Loop: Header=BB2_2 Depth=1
	#DEBUG_VALUE: horizontal_half_1chan_cosite:srcPtr <- [DW_OP_LLVM_entry_value 1] $rdi
	#DEBUG_VALUE: horizontal_half_1chan_cosite:srcXres <- [DW_OP_constu 64, DW_OP_minus] [$rsp+0]
	#DEBUG_VALUE: horizontal_half_1chan_cosite:yres <- [DW_OP_constu 88, DW_OP_minus] [$rsp+0]
	#DEBUG_VALUE: horizontal_half_1chan_cosite:srcZres <- $ecx
	#DEBUG_VALUE: horizontal_half_1chan_cosite:dstPtr <- [DW_OP_LLVM_entry_value 1] $r8
	#DEBUG_VALUE: horizontal_half_1chan_cosite:dstZres <- [DW_OP_LLVM_entry_value 1] $r9d
	#DEBUG_VALUE: horizontal_half_1chan_cosite:pixMax <- [DW_OP_plus_uconst 112] [$rsp+0]
	#DEBUG_VALUE: horizontal_half_1chan_cosite:src <- $r14
	#DEBUG_VALUE: horizontal_half_1chan_cosite:y <- [DW_OP_constu 84, DW_OP_minus, DW_OP_deref] $rsp
	#DEBUG_VALUE: horizontal_half_1chan_cosite:x <- 4
	#DEBUG_VALUE: horizontal_half_1chan_cosite:n1 <- [DW_OP_stack_value] 0
	#DEBUG_VALUE: horizontal_half_1chan_cosite:n3 <- 3
	#DEBUG_VALUE: horizontal_half_1chan_cosite:n5 <- 4
	#DEBUG_VALUE: horizontal_half_1chan_cosite:n7 <- 4
	movq	-104(%rsp), %r9                 # 8-byte Reload
	leaq	(%r8,%r9,2), %r8
.Ltmp58:
	#DEBUG_VALUE: horizontal_half_1chan_cosite:dst <- $r8
	#DEBUG_VALUE: horizontal_half_1chan_cosite:result <- $edi
	.loc	0 850 12 is_stmt 1              # ldecod_src/io_tiff.c:850:12
	movw	%di, (%r8)
.Ltmp59:
	#DEBUG_VALUE: horizontal_half_1chan_cosite:dst <- undef
	.loc	0 0 12 is_stmt 0                # ldecod_src/io_tiff.c:0:12
	movq	-120(%rsp), %r9                 # 8-byte Reload
	.loc	0 852 11 is_stmt 1              # ldecod_src/io_tiff.c:852:11
	leaq	(%r14,%r9,2), %rdi
.Ltmp60:
	#DEBUG_VALUE: horizontal_half_1chan_cosite:src <- $rdi
	#DEBUG_VALUE: horizontal_half_1chan_cosite:x <- 6
	#DEBUG_VALUE: horizontal_half_1chan_cosite:n1 <- [DW_OP_stack_value] 0
	#DEBUG_VALUE: horizontal_half_1chan_cosite:n3 <- 3
	#DEBUG_VALUE: horizontal_half_1chan_cosite:n5 <- 5
	#DEBUG_VALUE: horizontal_half_1chan_cosite:n7 <- 6
	.loc	0 841 26                        # ldecod_src/io_tiff.c:841:26
	movzwl	(%r14,%r9,2), %r9d
	.loc	0 841 23 is_stmt 0              # ldecod_src/io_tiff.c:841:23
	shll	$11, %r9d
	movq	-112(%rsp), %r10                # 8-byte Reload
	.loc	0 842 18 is_stmt 1              # ldecod_src/io_tiff.c:842:18
	movzwl	(%rdi,%r10,2), %r10d
	.loc	0 842 38 is_stmt 0              # ldecod_src/io_tiff.c:842:38
	movzwl	(%rdi,%r12,2), %r11d
	.loc	0 842 36                        # ldecod_src/io_tiff.c:842:36
	addl	%r10d, %r11d
	.loc	0 842 15                        # ldecod_src/io_tiff.c:842:15
	imull	$1228, %r11d, %r10d             # imm = 0x4CC
	.loc	0 842 9                         # ldecod_src/io_tiff.c:842:9
	addl	%r9d, %r10d
	movq	-56(%rsp), %r9                  # 8-byte Reload
	.loc	0 843 18 is_stmt 1              # ldecod_src/io_tiff.c:843:18
	movzwl	(%rdi,%r9,2), %r9d
	.loc	0 843 38 is_stmt 0              # ldecod_src/io_tiff.c:843:38
	movzwl	(%rdi,%r13,2), %r11d
	.loc	0 843 36                        # ldecod_src/io_tiff.c:843:36
	addl	%r9d, %r11d
	movq	16(%rsp), %r9                   # 8-byte Reload
	.loc	0 844 18 is_stmt 1              # ldecod_src/io_tiff.c:844:18
	movzwl	(%rdi,%r9,2), %r9d
	.loc	0 844 38 is_stmt 0              # ldecod_src/io_tiff.c:844:38
	movzwl	(%rdi,%rax,2), %ebx
	.loc	0 844 36                        # ldecod_src/io_tiff.c:844:36
	addl	%r9d, %ebx
	.loc	0 843 15 is_stmt 1              # ldecod_src/io_tiff.c:843:15
	imull	$-262, %r11d, %r9d              # imm = 0xFEFA
	.loc	0 844 15                        # ldecod_src/io_tiff.c:844:15
	imull	$47, %ebx, %r11d
	.loc	0 843 9                         # ldecod_src/io_tiff.c:843:9
	addl	%r9d, %r11d
	.loc	0 844 9                         # ldecod_src/io_tiff.c:844:9
	addl	%r10d, %r11d
	movq	-24(%rsp), %r9                  # 8-byte Reload
	.loc	0 845 18                        # ldecod_src/io_tiff.c:845:18
	movzwl	(%r9,%rdi), %r9d
	.loc	0 845 38 is_stmt 0              # ldecod_src/io_tiff.c:845:38
	movzwl	(%rdi,%rdx,2), %r10d
	.loc	0 845 36                        # ldecod_src/io_tiff.c:845:36
	addl	%r9d, %r10d
	.loc	0 845 15                        # ldecod_src/io_tiff.c:845:15
	leal	(%r10,%r10,4), %r9d
	leal	(%r10,%r9,2), %r9d
	.loc	0 845 9                         # ldecod_src/io_tiff.c:845:9
	addl	%r11d, %r9d
.Ltmp61:
	#DEBUG_VALUE: horizontal_half_1chan_cosite:result <- [DW_OP_plus_uconst 2048, DW_OP_constu 4096, DW_OP_div, DW_OP_stack_value] $r9d
	.loc	0 0 9                           # ldecod_src/io_tiff.c:0:9
	xorl	%r10d, %r10d
.Ltmp62:
	.loc	0 846 18 is_stmt 1              # ldecod_src/io_tiff.c:846:18
	cmpl	$-6143, %r9d                    # imm = 0xE801
.Ltmp63:
	.loc	0 846 11 is_stmt 0              # ldecod_src/io_tiff.c:846:11
	jl	.LBB2_10
.Ltmp64:
# %bb.9:                                # %if.else.3
                                        #   in Loop: Header=BB2_2 Depth=1
	#DEBUG_VALUE: horizontal_half_1chan_cosite:srcPtr <- [DW_OP_LLVM_entry_value 1] $rdi
	#DEBUG_VALUE: horizontal_half_1chan_cosite:srcXres <- [DW_OP_constu 64, DW_OP_minus] [$rsp+0]
	#DEBUG_VALUE: horizontal_half_1chan_cosite:yres <- [DW_OP_constu 88, DW_OP_minus] [$rsp+0]
	#DEBUG_VALUE: horizontal_half_1chan_cosite:srcZres <- $ecx
	#DEBUG_VALUE: horizontal_half_1chan_cosite:dstPtr <- [DW_OP_LLVM_entry_value 1] $r8
	#DEBUG_VALUE: horizontal_half_1chan_cosite:dstZres <- [DW_OP_LLVM_entry_value 1] $r9d
	#DEBUG_VALUE: horizontal_half_1chan_cosite:pixMax <- [DW_OP_plus_uconst 112] [$rsp+0]
	#DEBUG_VALUE: horizontal_half_1chan_cosite:src <- $rdi
	#DEBUG_VALUE: horizontal_half_1chan_cosite:y <- [DW_OP_constu 84, DW_OP_minus, DW_OP_deref] $rsp
	#DEBUG_VALUE: horizontal_half_1chan_cosite:x <- 6
	#DEBUG_VALUE: horizontal_half_1chan_cosite:n1 <- [DW_OP_stack_value] 0
	#DEBUG_VALUE: horizontal_half_1chan_cosite:n3 <- 3
	#DEBUG_VALUE: horizontal_half_1chan_cosite:n5 <- 5
	#DEBUG_VALUE: horizontal_half_1chan_cosite:n7 <- 6
	#DEBUG_VALUE: horizontal_half_1chan_cosite:result <- [DW_OP_plus_uconst 2048, DW_OP_constu 4096, DW_OP_div, DW_OP_stack_value] $r9d
	.loc	0 845 56 is_stmt 1              # ldecod_src/io_tiff.c:845:56
	leal	2048(%r9), %r10d
.Ltmp65:
	#DEBUG_VALUE: horizontal_half_1chan_cosite:result <- [DW_OP_constu 4096, DW_OP_div, DW_OP_stack_value] $r10d
	.loc	0 845 63 is_stmt 0              # ldecod_src/io_tiff.c:845:63
	addl	$6143, %r9d                     # imm = 0x17FF
	testl	%r10d, %r10d
	cmovnsl	%r10d, %r9d
	sarl	$12, %r9d
.Ltmp66:
	#DEBUG_VALUE: horizontal_half_1chan_cosite:result <- $r9d
	.loc	0 0 63                          # ldecod_src/io_tiff.c:0:63
	movl	112(%rsp), %r10d
.Ltmp67:
	.loc	0 848 16 is_stmt 1              # ldecod_src/io_tiff.c:848:16
	cmpl	%r10d, %r9d
	cmovgel	%r10d, %r9d
.Ltmp68:
	.loc	0 0 16 is_stmt 0                # ldecod_src/io_tiff.c:0:16
	movl	%r9d, %r10d
.Ltmp69:
.LBB2_10:                               # %if.end68.3
                                        #   in Loop: Header=BB2_2 Depth=1
	#DEBUG_VALUE: horizontal_half_1chan_cosite:srcPtr <- [DW_OP_LLVM_entry_value 1] $rdi
	#DEBUG_VALUE: horizontal_half_1chan_cosite:srcXres <- [DW_OP_constu 64, DW_OP_minus] [$rsp+0]
	#DEBUG_VALUE: horizontal_half_1chan_cosite:yres <- [DW_OP_constu 88, DW_OP_minus] [$rsp+0]
	#DEBUG_VALUE: horizontal_half_1chan_cosite:srcZres <- $ecx
	#DEBUG_VALUE: horizontal_half_1chan_cosite:dstPtr <- [DW_OP_LLVM_entry_value 1] $r8
	#DEBUG_VALUE: horizontal_half_1chan_cosite:dstZres <- [DW_OP_LLVM_entry_value 1] $r9d
	#DEBUG_VALUE: horizontal_half_1chan_cosite:pixMax <- [DW_OP_plus_uconst 112] [$rsp+0]
	#DEBUG_VALUE: horizontal_half_1chan_cosite:src <- $rdi
	#DEBUG_VALUE: horizontal_half_1chan_cosite:y <- [DW_OP_constu 84, DW_OP_minus, DW_OP_deref] $rsp
	#DEBUG_VALUE: horizontal_half_1chan_cosite:x <- 6
	#DEBUG_VALUE: horizontal_half_1chan_cosite:n1 <- [DW_OP_stack_value] 0
	#DEBUG_VALUE: horizontal_half_1chan_cosite:n3 <- 3
	#DEBUG_VALUE: horizontal_half_1chan_cosite:n5 <- 5
	#DEBUG_VALUE: horizontal_half_1chan_cosite:n7 <- 6
	movq	-104(%rsp), %r9                 # 8-byte Reload
	leaq	(%r8,%r9,2), %r8
.Ltmp70:
	#DEBUG_VALUE: horizontal_half_1chan_cosite:dst <- $r8
	#DEBUG_VALUE: horizontal_half_1chan_cosite:result <- $r10d
	.loc	0 850 12 is_stmt 1              # ldecod_src/io_tiff.c:850:12
	movw	%r10w, (%r8)
	.loc	0 851 11                        # ldecod_src/io_tiff.c:851:11
	leaq	(%r8,%r9,2), %r8
.Ltmp71:
	#DEBUG_VALUE: horizontal_half_1chan_cosite:dst <- $r8
	.loc	0 0 11 is_stmt 0                # ldecod_src/io_tiff.c:0:11
	movq	-120(%rsp), %r9                 # 8-byte Reload
	.loc	0 852 11 is_stmt 1              # ldecod_src/io_tiff.c:852:11
	leaq	(%rdi,%r9,2), %rdi
.Ltmp72:
	#DEBUG_VALUE: horizontal_half_1chan_cosite:src <- $rdi
	.loc	0 0 11 is_stmt 0                # ldecod_src/io_tiff.c:0:11
	movl	$8, %r9d
.Ltmp73:
	#DEBUG_VALUE: horizontal_half_1chan_cosite:limit <- [DW_OP_constu 68, DW_OP_minus, DW_OP_deref] $rsp
	#DEBUG_VALUE: horizontal_half_1chan_cosite:x <- 8
	cmpl	$17, -64(%rsp)                  # 4-byte Folded Reload
.Ltmp74:
	.loc	0 856 5 is_stmt 1               # ldecod_src/io_tiff.c:856:5
	jge	.LBB2_11
.Ltmp75:
# %bb.17:                               # %for.end148
                                        #   in Loop: Header=BB2_2 Depth=1
	#DEBUG_VALUE: horizontal_half_1chan_cosite:srcPtr <- [DW_OP_LLVM_entry_value 1] $rdi
	#DEBUG_VALUE: horizontal_half_1chan_cosite:srcXres <- [DW_OP_constu 64, DW_OP_minus] [$rsp+0]
	#DEBUG_VALUE: horizontal_half_1chan_cosite:yres <- [DW_OP_constu 88, DW_OP_minus] [$rsp+0]
	#DEBUG_VALUE: horizontal_half_1chan_cosite:srcZres <- $ecx
	#DEBUG_VALUE: horizontal_half_1chan_cosite:dstPtr <- [DW_OP_LLVM_entry_value 1] $r8
	#DEBUG_VALUE: horizontal_half_1chan_cosite:dstZres <- [DW_OP_LLVM_entry_value 1] $r9d
	#DEBUG_VALUE: horizontal_half_1chan_cosite:pixMax <- [DW_OP_plus_uconst 112] [$rsp+0]
	#DEBUG_VALUE: horizontal_half_1chan_cosite:src <- $rdi
	#DEBUG_VALUE: horizontal_half_1chan_cosite:dst <- $r8
	#DEBUG_VALUE: horizontal_half_1chan_cosite:y <- [DW_OP_constu 84, DW_OP_minus, DW_OP_deref] $rsp
	#DEBUG_VALUE: horizontal_half_1chan_cosite:x <- 8
	#DEBUG_VALUE: horizontal_half_1chan_cosite:n1 <- [DW_OP_stack_value] 0
	#DEBUG_VALUE: horizontal_half_1chan_cosite:n3 <- 3
	#DEBUG_VALUE: horizontal_half_1chan_cosite:n5 <- 5
	#DEBUG_VALUE: horizontal_half_1chan_cosite:n7 <- 6
	#DEBUG_VALUE: horizontal_half_1chan_cosite:result <- $r10d
	#DEBUG_VALUE: horizontal_half_1chan_cosite:limit <- [DW_OP_constu 68, DW_OP_minus, DW_OP_deref] $rsp
	#DEBUG_VALUE: horizontal_half_1chan_cosite:limit <- [DW_OP_constu 124, DW_OP_minus, DW_OP_deref] $rsp
	#DEBUG_VALUE: horizontal_half_1chan_cosite:x <- $r9d
	#DEBUG_VALUE: horizontal_half_1chan_cosite:dst <- $r8
	#DEBUG_VALUE: horizontal_half_1chan_cosite:src <- $rdi
	.loc	0 873 17                        # ldecod_src/io_tiff.c:873:17
	cmpl	-124(%rsp), %r9d                # 4-byte Folded Reload
.Ltmp76:
	.loc	0 873 5 is_stmt 0               # ldecod_src/io_tiff.c:873:5
	jge	.LBB2_24
	jmp	.LBB2_18
.Ltmp77:
	.p2align	4, 0x90
.LBB2_14:                               # %if.else134
                                        #   in Loop: Header=BB2_11 Depth=2
	#DEBUG_VALUE: horizontal_half_1chan_cosite:srcPtr <- [DW_OP_LLVM_entry_value 1] $rdi
	#DEBUG_VALUE: horizontal_half_1chan_cosite:srcXres <- [DW_OP_constu 64, DW_OP_minus] [$rsp+0]
	#DEBUG_VALUE: horizontal_half_1chan_cosite:yres <- [DW_OP_constu 88, DW_OP_minus] [$rsp+0]
	#DEBUG_VALUE: horizontal_half_1chan_cosite:srcZres <- $ecx
	#DEBUG_VALUE: horizontal_half_1chan_cosite:dstPtr <- [DW_OP_LLVM_entry_value 1] $r8
	#DEBUG_VALUE: horizontal_half_1chan_cosite:dstZres <- [DW_OP_LLVM_entry_value 1] $r9d
	#DEBUG_VALUE: horizontal_half_1chan_cosite:pixMax <- [DW_OP_plus_uconst 112] [$rsp+0]
	#DEBUG_VALUE: horizontal_half_1chan_cosite:dst <- $r8
	#DEBUG_VALUE: horizontal_half_1chan_cosite:y <- [DW_OP_constu 84, DW_OP_minus, DW_OP_deref] $rsp
	#DEBUG_VALUE: horizontal_half_1chan_cosite:x <- $r9d
	#DEBUG_VALUE: horizontal_half_1chan_cosite:n1 <- [DW_OP_stack_value] 0
	#DEBUG_VALUE: horizontal_half_1chan_cosite:n3 <- 3
	#DEBUG_VALUE: horizontal_half_1chan_cosite:n5 <- 5
	#DEBUG_VALUE: horizontal_half_1chan_cosite:n7 <- 6
	#DEBUG_VALUE: horizontal_half_1chan_cosite:limit <- [DW_OP_constu 68, DW_OP_minus, DW_OP_deref] $rsp
	.loc	0 0 5                           # ldecod_src/io_tiff.c:0:5
	movl	%r10d, %r11d
.Ltmp78:
.LBB2_15:                               # %if.end139
                                        #   in Loop: Header=BB2_11 Depth=2
	#DEBUG_VALUE: horizontal_half_1chan_cosite:srcPtr <- [DW_OP_LLVM_entry_value 1] $rdi
	#DEBUG_VALUE: horizontal_half_1chan_cosite:srcXres <- [DW_OP_constu 64, DW_OP_minus] [$rsp+0]
	#DEBUG_VALUE: horizontal_half_1chan_cosite:yres <- [DW_OP_constu 88, DW_OP_minus] [$rsp+0]
	#DEBUG_VALUE: horizontal_half_1chan_cosite:srcZres <- $ecx
	#DEBUG_VALUE: horizontal_half_1chan_cosite:dstPtr <- [DW_OP_LLVM_entry_value 1] $r8
	#DEBUG_VALUE: horizontal_half_1chan_cosite:dstZres <- [DW_OP_LLVM_entry_value 1] $r9d
	#DEBUG_VALUE: horizontal_half_1chan_cosite:pixMax <- [DW_OP_plus_uconst 112] [$rsp+0]
	#DEBUG_VALUE: horizontal_half_1chan_cosite:dst <- $r8
	#DEBUG_VALUE: horizontal_half_1chan_cosite:y <- [DW_OP_constu 84, DW_OP_minus, DW_OP_deref] $rsp
	#DEBUG_VALUE: horizontal_half_1chan_cosite:x <- $r9d
	#DEBUG_VALUE: horizontal_half_1chan_cosite:n1 <- [DW_OP_stack_value] 0
	#DEBUG_VALUE: horizontal_half_1chan_cosite:n3 <- 3
	#DEBUG_VALUE: horizontal_half_1chan_cosite:n5 <- 5
	#DEBUG_VALUE: horizontal_half_1chan_cosite:n7 <- 6
	#DEBUG_VALUE: horizontal_half_1chan_cosite:limit <- [DW_OP_constu 68, DW_OP_minus, DW_OP_deref] $rsp
	#DEBUG_VALUE: horizontal_half_1chan_cosite:result <- $r11d
	.loc	0 867 12 is_stmt 1              # ldecod_src/io_tiff.c:867:12
	movw	%r11w, (%r8)
.Ltmp79:
	#DEBUG_VALUE: horizontal_half_1chan_cosite:dst <- [DW_OP_LLVM_arg 0, DW_OP_consts 8, DW_OP_LLVM_arg 1, DW_OP_LLVM_convert 64 5, DW_OP_mul, DW_OP_LLVM_arg 2, DW_OP_plus, DW_OP_minus, DW_OP_consts 2, DW_OP_LLVM_arg 1, DW_OP_LLVM_convert 64 5, DW_OP_mul, DW_OP_div, DW_OP_consts 2, DW_OP_LLVM_arg 1, DW_OP_LLVM_convert 64 5, DW_OP_mul, DW_OP_mul, DW_OP_consts 10, DW_OP_LLVM_arg 1, DW_OP_LLVM_convert 64 5, DW_OP_mul, DW_OP_LLVM_arg 2, DW_OP_plus, DW_OP_plus, DW_OP_stack_value] undef, undef, undef
	#DEBUG_VALUE: horizontal_half_1chan_cosite:src <- [DW_OP_LLVM_arg 0, DW_OP_consts 8, DW_OP_LLVM_arg 1, DW_OP_LLVM_convert 64 5, DW_OP_mul, DW_OP_LLVM_arg 2, DW_OP_plus, DW_OP_minus, DW_OP_consts 2, DW_OP_LLVM_arg 1, DW_OP_LLVM_convert 64 5, DW_OP_mul, DW_OP_div, DW_OP_consts 2, DW_OP_consts 2, DW_OP_LLVM_arg 3, DW_OP_mul, DW_OP_LLVM_convert 64 5, DW_OP_mul, DW_OP_mul, DW_OP_consts 10, DW_OP_consts 2, DW_OP_LLVM_arg 3, DW_OP_mul, DW_OP_LLVM_convert 64 5, DW_OP_mul, DW_OP_LLVM_arg 4, DW_OP_plus, DW_OP_plus, DW_OP_stack_value] undef, undef, undef, undef, undef
	.loc	0 856 27                        # ldecod_src/io_tiff.c:856:27
	addl	$2, %r9d
.Ltmp80:
	#DEBUG_VALUE: horizontal_half_1chan_cosite:x <- $r9d
	.loc	0 856 17 is_stmt 0              # ldecod_src/io_tiff.c:856:17
	addq	%r15, %r8
	addq	%rbp, %rdi
	cmpl	-68(%rsp), %r9d                 # 4-byte Folded Reload
.Ltmp81:
	.loc	0 856 5                         # ldecod_src/io_tiff.c:856:5
	jge	.LBB2_16
.Ltmp82:
.LBB2_11:                               # %for.body80
                                        #   Parent Loop BB2_2 Depth=1
                                        # =>  This Inner Loop Header: Depth=2
	#DEBUG_VALUE: horizontal_half_1chan_cosite:srcPtr <- [DW_OP_LLVM_entry_value 1] $rdi
	#DEBUG_VALUE: horizontal_half_1chan_cosite:srcXres <- [DW_OP_constu 64, DW_OP_minus] [$rsp+0]
	#DEBUG_VALUE: horizontal_half_1chan_cosite:yres <- [DW_OP_constu 88, DW_OP_minus] [$rsp+0]
	#DEBUG_VALUE: horizontal_half_1chan_cosite:srcZres <- $ecx
	#DEBUG_VALUE: horizontal_half_1chan_cosite:dstPtr <- [DW_OP_LLVM_entry_value 1] $r8
	#DEBUG_VALUE: horizontal_half_1chan_cosite:dstZres <- [DW_OP_LLVM_entry_value 1] $r9d
	#DEBUG_VALUE: horizontal_half_1chan_cosite:pixMax <- [DW_OP_plus_uconst 112] [$rsp+0]
	#DEBUG_VALUE: horizontal_half_1chan_cosite:y <- [DW_OP_constu 84, DW_OP_minus, DW_OP_deref] $rsp
	#DEBUG_VALUE: horizontal_half_1chan_cosite:n1 <- [DW_OP_stack_value] 0
	#DEBUG_VALUE: horizontal_half_1chan_cosite:n3 <- 3
	#DEBUG_VALUE: horizontal_half_1chan_cosite:n5 <- 5
	#DEBUG_VALUE: horizontal_half_1chan_cosite:n7 <- 6
	#DEBUG_VALUE: horizontal_half_1chan_cosite:limit <- [DW_OP_constu 68, DW_OP_minus, DW_OP_deref] $rsp
	#DEBUG_VALUE: horizontal_half_1chan_cosite:dst <- $r8
	#DEBUG_VALUE: horizontal_half_1chan_cosite:src <- [DW_OP_LLVM_arg 0, DW_OP_consts 8, DW_OP_LLVM_arg 1, DW_OP_LLVM_convert 64 5, DW_OP_mul, DW_OP_LLVM_arg 2, DW_OP_plus, DW_OP_minus, DW_OP_consts 2, DW_OP_LLVM_arg 1, DW_OP_LLVM_convert 64 5, DW_OP_mul, DW_OP_div, DW_OP_consts 2, DW_OP_consts 2, DW_OP_LLVM_arg 3, DW_OP_mul, DW_OP_LLVM_convert 64 5, DW_OP_mul, DW_OP_mul, DW_OP_consts 8, DW_OP_consts 2, DW_OP_LLVM_arg 3, DW_OP_mul, DW_OP_LLVM_convert 64 5, DW_OP_mul, DW_OP_LLVM_arg 4, DW_OP_plus, DW_OP_plus, DW_OP_stack_value] undef, undef, undef, undef, undef
	#DEBUG_VALUE: horizontal_half_1chan_cosite:x <- $r9d
	.loc	0 858 26 is_stmt 1              # ldecod_src/io_tiff.c:858:26
	movzwl	(%rdi), %r10d
	.loc	0 858 23 is_stmt 0              # ldecod_src/io_tiff.c:858:23
	shll	$11, %r10d
	.loc	0 859 18 is_stmt 1              # ldecod_src/io_tiff.c:859:18
	movzwl	(%rdi,%rsi), %r11d
	.loc	0 859 37 is_stmt 0              # ldecod_src/io_tiff.c:859:37
	movzwl	(%rdi,%r12,2), %ebx
	.loc	0 859 35                        # ldecod_src/io_tiff.c:859:35
	addl	%r11d, %ebx
	.loc	0 859 15                        # ldecod_src/io_tiff.c:859:15
	imull	$1228, %ebx, %r11d              # imm = 0x4CC
	.loc	0 859 9                         # ldecod_src/io_tiff.c:859:9
	addl	%r10d, %r11d
	movq	-48(%rsp), %r10                 # 8-byte Reload
	.loc	0 860 18 is_stmt 1              # ldecod_src/io_tiff.c:860:18
	movzwl	(%rdi,%r10), %r10d
	.loc	0 860 37 is_stmt 0              # ldecod_src/io_tiff.c:860:37
	movzwl	(%rdi,%r13,2), %ebx
	.loc	0 860 35                        # ldecod_src/io_tiff.c:860:35
	addl	%r10d, %ebx
	.loc	0 860 15                        # ldecod_src/io_tiff.c:860:15
	imull	$-262, %ebx, %r10d              # imm = 0xFEFA
	movq	-40(%rsp), %rbx                 # 8-byte Reload
	.loc	0 861 18 is_stmt 1              # ldecod_src/io_tiff.c:861:18
	movzwl	(%rdi,%rbx), %ebx
	.loc	0 861 37 is_stmt 0              # ldecod_src/io_tiff.c:861:37
	movzwl	(%rdi,%rax,2), %r14d
	.loc	0 861 35                        # ldecod_src/io_tiff.c:861:35
	addl	%ebx, %r14d
	.loc	0 861 15                        # ldecod_src/io_tiff.c:861:15
	imull	$47, %r14d, %ebx
	.loc	0 860 9 is_stmt 1               # ldecod_src/io_tiff.c:860:9
	addl	%r10d, %ebx
	.loc	0 861 9                         # ldecod_src/io_tiff.c:861:9
	addl	%r11d, %ebx
	movq	-32(%rsp), %r10                 # 8-byte Reload
	.loc	0 862 18                        # ldecod_src/io_tiff.c:862:18
	movzwl	(%rdi,%r10), %r10d
	.loc	0 862 37 is_stmt 0              # ldecod_src/io_tiff.c:862:37
	movzwl	(%rdi,%rdx,2), %r11d
	.loc	0 862 35                        # ldecod_src/io_tiff.c:862:35
	addl	%r10d, %r11d
	.loc	0 862 15                        # ldecod_src/io_tiff.c:862:15
	leal	(%r11,%r11,4), %r10d
	leal	(%r11,%r10,2), %r10d
	.loc	0 862 9                         # ldecod_src/io_tiff.c:862:9
	addl	%ebx, %r10d
.Ltmp83:
	#DEBUG_VALUE: horizontal_half_1chan_cosite:result <- [DW_OP_plus_uconst 2048, DW_OP_constu 4096, DW_OP_div, DW_OP_stack_value] $r10d
	.loc	0 0 9                           # ldecod_src/io_tiff.c:0:9
	xorl	%r11d, %r11d
.Ltmp84:
	.loc	0 863 18 is_stmt 1              # ldecod_src/io_tiff.c:863:18
	cmpl	$-6143, %r10d                   # imm = 0xE801
.Ltmp85:
	.loc	0 863 11 is_stmt 0              # ldecod_src/io_tiff.c:863:11
	jl	.LBB2_15
.Ltmp86:
# %bb.12:                               # %if.else134
                                        #   in Loop: Header=BB2_11 Depth=2
	#DEBUG_VALUE: horizontal_half_1chan_cosite:srcPtr <- [DW_OP_LLVM_entry_value 1] $rdi
	#DEBUG_VALUE: horizontal_half_1chan_cosite:srcXres <- [DW_OP_constu 64, DW_OP_minus] [$rsp+0]
	#DEBUG_VALUE: horizontal_half_1chan_cosite:yres <- [DW_OP_constu 88, DW_OP_minus] [$rsp+0]
	#DEBUG_VALUE: horizontal_half_1chan_cosite:srcZres <- $ecx
	#DEBUG_VALUE: horizontal_half_1chan_cosite:dstPtr <- [DW_OP_LLVM_entry_value 1] $r8
	#DEBUG_VALUE: horizontal_half_1chan_cosite:dstZres <- [DW_OP_LLVM_entry_value 1] $r9d
	#DEBUG_VALUE: horizontal_half_1chan_cosite:pixMax <- [DW_OP_plus_uconst 112] [$rsp+0]
	#DEBUG_VALUE: horizontal_half_1chan_cosite:dst <- $r8
	#DEBUG_VALUE: horizontal_half_1chan_cosite:y <- [DW_OP_constu 84, DW_OP_minus, DW_OP_deref] $rsp
	#DEBUG_VALUE: horizontal_half_1chan_cosite:x <- $r9d
	#DEBUG_VALUE: horizontal_half_1chan_cosite:n1 <- [DW_OP_stack_value] 0
	#DEBUG_VALUE: horizontal_half_1chan_cosite:n3 <- 3
	#DEBUG_VALUE: horizontal_half_1chan_cosite:n5 <- 5
	#DEBUG_VALUE: horizontal_half_1chan_cosite:n7 <- 6
	#DEBUG_VALUE: horizontal_half_1chan_cosite:result <- [DW_OP_plus_uconst 2048, DW_OP_constu 4096, DW_OP_div, DW_OP_stack_value] $r10d
	#DEBUG_VALUE: horizontal_half_1chan_cosite:limit <- [DW_OP_constu 68, DW_OP_minus, DW_OP_deref] $rsp
	.loc	0 862 55 is_stmt 1              # ldecod_src/io_tiff.c:862:55
	leal	2048(%r10), %r11d
.Ltmp87:
	#DEBUG_VALUE: horizontal_half_1chan_cosite:result <- [DW_OP_constu 4096, DW_OP_div, DW_OP_stack_value] $r11d
	.loc	0 862 62 is_stmt 0              # ldecod_src/io_tiff.c:862:62
	addl	$6143, %r10d                    # imm = 0x17FF
	testl	%r11d, %r11d
	cmovnsl	%r11d, %r10d
	sarl	$12, %r10d
.Ltmp88:
	#DEBUG_VALUE: horizontal_half_1chan_cosite:result <- $r10d
	.loc	0 865 16 is_stmt 1              # ldecod_src/io_tiff.c:865:16
	cmpl	112(%rsp), %r10d
	jl	.LBB2_14
.Ltmp89:
# %bb.13:                               # %if.else134
                                        #   in Loop: Header=BB2_11 Depth=2
	#DEBUG_VALUE: horizontal_half_1chan_cosite:srcPtr <- [DW_OP_LLVM_entry_value 1] $rdi
	#DEBUG_VALUE: horizontal_half_1chan_cosite:srcXres <- [DW_OP_constu 64, DW_OP_minus] [$rsp+0]
	#DEBUG_VALUE: horizontal_half_1chan_cosite:yres <- [DW_OP_constu 88, DW_OP_minus] [$rsp+0]
	#DEBUG_VALUE: horizontal_half_1chan_cosite:srcZres <- $ecx
	#DEBUG_VALUE: horizontal_half_1chan_cosite:dstPtr <- [DW_OP_LLVM_entry_value 1] $r8
	#DEBUG_VALUE: horizontal_half_1chan_cosite:dstZres <- [DW_OP_LLVM_entry_value 1] $r9d
	#DEBUG_VALUE: horizontal_half_1chan_cosite:pixMax <- [DW_OP_plus_uconst 112] [$rsp+0]
	#DEBUG_VALUE: horizontal_half_1chan_cosite:dst <- $r8
	#DEBUG_VALUE: horizontal_half_1chan_cosite:y <- [DW_OP_constu 84, DW_OP_minus, DW_OP_deref] $rsp
	#DEBUG_VALUE: horizontal_half_1chan_cosite:x <- $r9d
	#DEBUG_VALUE: horizontal_half_1chan_cosite:n1 <- [DW_OP_stack_value] 0
	#DEBUG_VALUE: horizontal_half_1chan_cosite:n3 <- 3
	#DEBUG_VALUE: horizontal_half_1chan_cosite:n5 <- 5
	#DEBUG_VALUE: horizontal_half_1chan_cosite:n7 <- 6
	#DEBUG_VALUE: horizontal_half_1chan_cosite:result <- $r10d
	#DEBUG_VALUE: horizontal_half_1chan_cosite:limit <- [DW_OP_constu 68, DW_OP_minus, DW_OP_deref] $rsp
	.loc	0 0 16 is_stmt 0                # ldecod_src/io_tiff.c:0:16
	movl	112(%rsp), %r10d
.Ltmp90:
                                        # kill: def $r10d killed $r10d def $r10
	jmp	.LBB2_14
.Ltmp91:
	.p2align	4, 0x90
.LBB2_16:                               #   in Loop: Header=BB2_2 Depth=1
	#DEBUG_VALUE: horizontal_half_1chan_cosite:srcPtr <- [DW_OP_LLVM_entry_value 1] $rdi
	#DEBUG_VALUE: horizontal_half_1chan_cosite:srcXres <- [DW_OP_constu 64, DW_OP_minus] [$rsp+0]
	#DEBUG_VALUE: horizontal_half_1chan_cosite:yres <- [DW_OP_constu 88, DW_OP_minus] [$rsp+0]
	#DEBUG_VALUE: horizontal_half_1chan_cosite:srcZres <- $ecx
	#DEBUG_VALUE: horizontal_half_1chan_cosite:dstPtr <- [DW_OP_LLVM_entry_value 1] $r8
	#DEBUG_VALUE: horizontal_half_1chan_cosite:dstZres <- [DW_OP_LLVM_entry_value 1] $r9d
	#DEBUG_VALUE: horizontal_half_1chan_cosite:pixMax <- [DW_OP_plus_uconst 112] [$rsp+0]
	#DEBUG_VALUE: horizontal_half_1chan_cosite:y <- [DW_OP_constu 84, DW_OP_minus, DW_OP_deref] $rsp
	#DEBUG_VALUE: horizontal_half_1chan_cosite:x <- $r9d
	#DEBUG_VALUE: horizontal_half_1chan_cosite:n1 <- [DW_OP_stack_value] 0
	#DEBUG_VALUE: horizontal_half_1chan_cosite:n3 <- 3
	#DEBUG_VALUE: horizontal_half_1chan_cosite:n5 <- 5
	#DEBUG_VALUE: horizontal_half_1chan_cosite:n7 <- 6
	#DEBUG_VALUE: horizontal_half_1chan_cosite:result <- $r11d
	#DEBUG_VALUE: horizontal_half_1chan_cosite:limit <- [DW_OP_constu 68, DW_OP_minus, DW_OP_deref] $rsp
	movl	-92(%rsp), %r9d                 # 4-byte Reload
.Ltmp92:
	#DEBUG_VALUE: horizontal_half_1chan_cosite:limit <- [DW_OP_constu 124, DW_OP_minus, DW_OP_deref] $rsp
	#DEBUG_VALUE: horizontal_half_1chan_cosite:x <- [DW_OP_constu 92, DW_OP_minus, DW_OP_deref] $rsp
	#DEBUG_VALUE: horizontal_half_1chan_cosite:dst <- $r8
	#DEBUG_VALUE: horizontal_half_1chan_cosite:src <- $rdi
	.loc	0 873 17 is_stmt 1              # ldecod_src/io_tiff.c:873:17
	cmpl	-124(%rsp), %r9d                # 4-byte Folded Reload
.Ltmp93:
	.loc	0 873 5 is_stmt 0               # ldecod_src/io_tiff.c:873:5
	jge	.LBB2_24
.Ltmp94:
.LBB2_18:                               # %for.body153.preheader
                                        #   in Loop: Header=BB2_2 Depth=1
	#DEBUG_VALUE: horizontal_half_1chan_cosite:srcPtr <- [DW_OP_LLVM_entry_value 1] $rdi
	#DEBUG_VALUE: horizontal_half_1chan_cosite:srcXres <- [DW_OP_constu 64, DW_OP_minus] [$rsp+0]
	#DEBUG_VALUE: horizontal_half_1chan_cosite:yres <- [DW_OP_constu 88, DW_OP_minus] [$rsp+0]
	#DEBUG_VALUE: horizontal_half_1chan_cosite:srcZres <- $ecx
	#DEBUG_VALUE: horizontal_half_1chan_cosite:dstPtr <- [DW_OP_LLVM_entry_value 1] $r8
	#DEBUG_VALUE: horizontal_half_1chan_cosite:dstZres <- [DW_OP_LLVM_entry_value 1] $r9d
	#DEBUG_VALUE: horizontal_half_1chan_cosite:pixMax <- [DW_OP_plus_uconst 112] [$rsp+0]
	#DEBUG_VALUE: horizontal_half_1chan_cosite:src <- $rdi
	#DEBUG_VALUE: horizontal_half_1chan_cosite:dst <- $r8
	#DEBUG_VALUE: horizontal_half_1chan_cosite:y <- [DW_OP_constu 84, DW_OP_minus, DW_OP_deref] $rsp
	#DEBUG_VALUE: horizontal_half_1chan_cosite:x <- $r9d
	#DEBUG_VALUE: horizontal_half_1chan_cosite:n1 <- [DW_OP_stack_value] 0
	#DEBUG_VALUE: horizontal_half_1chan_cosite:n3 <- 3
	#DEBUG_VALUE: horizontal_half_1chan_cosite:n5 <- 5
	#DEBUG_VALUE: horizontal_half_1chan_cosite:n7 <- 6
	#DEBUG_VALUE: horizontal_half_1chan_cosite:limit <- [DW_OP_constu 124, DW_OP_minus, DW_OP_deref] $rsp
	.loc	0 0 5                           # ldecod_src/io_tiff.c:0:5
	movl	-128(%rsp), %eax                # 4-byte Reload
	.loc	0 873 5                         # ldecod_src/io_tiff.c:873:5
	subl	%r9d, %eax
	jmp	.LBB2_19
.Ltmp95:
	.p2align	4, 0x90
.LBB2_22:                               # %if.else239
                                        #   in Loop: Header=BB2_19 Depth=2
	#DEBUG_VALUE: horizontal_half_1chan_cosite:srcPtr <- [DW_OP_LLVM_entry_value 1] $rdi
	#DEBUG_VALUE: horizontal_half_1chan_cosite:srcXres <- [DW_OP_constu 64, DW_OP_minus] [$rsp+0]
	#DEBUG_VALUE: horizontal_half_1chan_cosite:yres <- [DW_OP_constu 88, DW_OP_minus] [$rsp+0]
	#DEBUG_VALUE: horizontal_half_1chan_cosite:srcZres <- $ecx
	#DEBUG_VALUE: horizontal_half_1chan_cosite:dstPtr <- [DW_OP_LLVM_entry_value 1] $r8
	#DEBUG_VALUE: horizontal_half_1chan_cosite:dstZres <- [DW_OP_LLVM_entry_value 1] $r9d
	#DEBUG_VALUE: horizontal_half_1chan_cosite:pixMax <- [DW_OP_plus_uconst 112] [$rsp+0]
	#DEBUG_VALUE: horizontal_half_1chan_cosite:dst <- $r8
	#DEBUG_VALUE: horizontal_half_1chan_cosite:y <- [DW_OP_constu 84, DW_OP_minus, DW_OP_deref] $rsp
	#DEBUG_VALUE: horizontal_half_1chan_cosite:x <- $r9d
	#DEBUG_VALUE: horizontal_half_1chan_cosite:limit <- [DW_OP_constu 124, DW_OP_minus, DW_OP_deref] $rsp
	.loc	0 0 5                           # ldecod_src/io_tiff.c:0:5
	movl	%ebx, %r10d
.Ltmp96:
.LBB2_23:                               # %if.end244
                                        #   in Loop: Header=BB2_19 Depth=2
	#DEBUG_VALUE: horizontal_half_1chan_cosite:srcPtr <- [DW_OP_LLVM_entry_value 1] $rdi
	#DEBUG_VALUE: horizontal_half_1chan_cosite:srcXres <- [DW_OP_constu 64, DW_OP_minus] [$rsp+0]
	#DEBUG_VALUE: horizontal_half_1chan_cosite:yres <- [DW_OP_constu 88, DW_OP_minus] [$rsp+0]
	#DEBUG_VALUE: horizontal_half_1chan_cosite:srcZres <- $ecx
	#DEBUG_VALUE: horizontal_half_1chan_cosite:dstPtr <- [DW_OP_LLVM_entry_value 1] $r8
	#DEBUG_VALUE: horizontal_half_1chan_cosite:dstZres <- [DW_OP_LLVM_entry_value 1] $r9d
	#DEBUG_VALUE: horizontal_half_1chan_cosite:pixMax <- [DW_OP_plus_uconst 112] [$rsp+0]
	#DEBUG_VALUE: horizontal_half_1chan_cosite:dst <- $r8
	#DEBUG_VALUE: horizontal_half_1chan_cosite:y <- [DW_OP_constu 84, DW_OP_minus, DW_OP_deref] $rsp
	#DEBUG_VALUE: horizontal_half_1chan_cosite:x <- $r9d
	#DEBUG_VALUE: horizontal_half_1chan_cosite:limit <- [DW_OP_constu 124, DW_OP_minus, DW_OP_deref] $rsp
	#DEBUG_VALUE: horizontal_half_1chan_cosite:result <- $r10d
	.loc	0 888 12 is_stmt 1              # ldecod_src/io_tiff.c:888:12
	movw	%r10w, (%r8)
.Ltmp97:
	#DEBUG_VALUE: horizontal_half_1chan_cosite:dst <- [DW_OP_LLVM_arg 0, DW_OP_LLVM_arg 1, DW_OP_minus, DW_OP_consts 2, DW_OP_LLVM_arg 2, DW_OP_LLVM_convert 64 5, DW_OP_mul, DW_OP_div, DW_OP_consts 2, DW_OP_LLVM_arg 2, DW_OP_LLVM_convert 64 5, DW_OP_mul, DW_OP_mul, DW_OP_consts 2, DW_OP_LLVM_arg 2, DW_OP_LLVM_convert 64 5, DW_OP_mul, DW_OP_LLVM_arg 1, DW_OP_plus, DW_OP_plus, DW_OP_stack_value] undef, undef, undef
	#DEBUG_VALUE: horizontal_half_1chan_cosite:src <- [DW_OP_LLVM_arg 0, DW_OP_LLVM_arg 1, DW_OP_minus, DW_OP_consts 2, DW_OP_LLVM_arg 2, DW_OP_LLVM_convert 64 5, DW_OP_mul, DW_OP_div, DW_OP_consts 2, DW_OP_consts 2, DW_OP_LLVM_arg 3, DW_OP_mul, DW_OP_LLVM_convert 64 5, DW_OP_mul, DW_OP_mul, DW_OP_consts 2, DW_OP_consts 2, DW_OP_LLVM_arg 3, DW_OP_mul, DW_OP_LLVM_convert 64 5, DW_OP_mul, DW_OP_LLVM_arg 4, DW_OP_plus, DW_OP_plus, DW_OP_stack_value] undef, undef, undef, undef, undef
	.loc	0 873 27                        # ldecod_src/io_tiff.c:873:27
	addl	$2, %r9d
.Ltmp98:
	#DEBUG_VALUE: horizontal_half_1chan_cosite:x <- $r9d
	.loc	0 873 17 is_stmt 0              # ldecod_src/io_tiff.c:873:17
	addq	%r15, %r8
	addq	%rbp, %rdi
	addl	$-2, %eax
	cmpl	-124(%rsp), %r9d                # 4-byte Folded Reload
.Ltmp99:
	.loc	0 873 5                         # ldecod_src/io_tiff.c:873:5
	jge	.LBB2_24
.Ltmp100:
.LBB2_19:                               # %for.body153
                                        #   Parent Loop BB2_2 Depth=1
                                        # =>  This Inner Loop Header: Depth=2
	#DEBUG_VALUE: horizontal_half_1chan_cosite:srcPtr <- [DW_OP_LLVM_entry_value 1] $rdi
	#DEBUG_VALUE: horizontal_half_1chan_cosite:srcXres <- [DW_OP_constu 64, DW_OP_minus] [$rsp+0]
	#DEBUG_VALUE: horizontal_half_1chan_cosite:yres <- [DW_OP_constu 88, DW_OP_minus] [$rsp+0]
	#DEBUG_VALUE: horizontal_half_1chan_cosite:srcZres <- $ecx
	#DEBUG_VALUE: horizontal_half_1chan_cosite:dstPtr <- [DW_OP_LLVM_entry_value 1] $r8
	#DEBUG_VALUE: horizontal_half_1chan_cosite:dstZres <- [DW_OP_LLVM_entry_value 1] $r9d
	#DEBUG_VALUE: horizontal_half_1chan_cosite:pixMax <- [DW_OP_plus_uconst 112] [$rsp+0]
	#DEBUG_VALUE: horizontal_half_1chan_cosite:y <- [DW_OP_constu 84, DW_OP_minus, DW_OP_deref] $rsp
	#DEBUG_VALUE: horizontal_half_1chan_cosite:x <- $r9d
	#DEBUG_VALUE: horizontal_half_1chan_cosite:limit <- [DW_OP_constu 124, DW_OP_minus, DW_OP_deref] $rsp
	#DEBUG_VALUE: horizontal_half_1chan_cosite:dst <- $r8
	#DEBUG_VALUE: horizontal_half_1chan_cosite:src <- [DW_OP_LLVM_arg 0, DW_OP_LLVM_arg 1, DW_OP_minus, DW_OP_consts 2, DW_OP_LLVM_arg 2, DW_OP_LLVM_convert 64 5, DW_OP_mul, DW_OP_div, DW_OP_consts 2, DW_OP_consts 2, DW_OP_LLVM_arg 3, DW_OP_mul, DW_OP_LLVM_convert 64 5, DW_OP_mul, DW_OP_mul, DW_OP_LLVM_arg 4, DW_OP_plus, DW_OP_stack_value] undef, undef, undef, undef, undef
	#DEBUG_VALUE: horizontal_half_1chan_cosite:x <- $r9d
	#DEBUG_VALUE: horizontal_half_1chan_cosite:n1 <- undef
	.loc	0 876 15 is_stmt 1              # ldecod_src/io_tiff.c:876:15
	cmpl	-72(%rsp), %r9d                 # 4-byte Folded Reload
	.loc	0 876 12 is_stmt 0              # ldecod_src/io_tiff.c:876:12
	movl	%eax, %r11d
	movl	$3, %edx
	cmovll	%edx, %r11d
.Ltmp101:
	#DEBUG_VALUE: horizontal_half_1chan_cosite:n3 <- $r11d
	.loc	0 877 15 is_stmt 1              # ldecod_src/io_tiff.c:877:15
	cmpl	-76(%rsp), %r9d                 # 4-byte Folded Reload
	.loc	0 877 12 is_stmt 0              # ldecod_src/io_tiff.c:877:12
	movl	%eax, %ebx
	movl	$5, %edx
	cmovll	%edx, %ebx
.Ltmp102:
	#DEBUG_VALUE: horizontal_half_1chan_cosite:n5 <- $ebx
	.loc	0 878 15 is_stmt 1              # ldecod_src/io_tiff.c:878:15
	cmpl	-80(%rsp), %r9d                 # 4-byte Folded Reload
	.loc	0 878 12 is_stmt 0              # ldecod_src/io_tiff.c:878:12
	movl	%eax, %r14d
	movl	$7, %edx
	cmovll	%edx, %r14d
.Ltmp103:
	#DEBUG_VALUE: horizontal_half_1chan_cosite:n7 <- $r14d
	.loc	0 879 26 is_stmt 1              # ldecod_src/io_tiff.c:879:26
	movzwl	(%rdi), %r13d
	.loc	0 879 23 is_stmt 0              # ldecod_src/io_tiff.c:879:23
	shll	$11, %r13d
	xorl	%r10d, %r10d
	.loc	0 875 15 is_stmt 1              # ldecod_src/io_tiff.c:875:15
	cmpl	-128(%rsp), %r9d                # 4-byte Folded Reload
	.loc	0 880 18                        # ldecod_src/io_tiff.c:880:18
	movzwl	(%rdi,%rsi), %edx
	.loc	0 880 45 is_stmt 0              # ldecod_src/io_tiff.c:880:45
	movl	$0, %r12d
	cmovll	%ecx, %r12d
	.loc	0 880 42                        # ldecod_src/io_tiff.c:880:42
	movslq	%r12d, %r12
	.loc	0 880 37                        # ldecod_src/io_tiff.c:880:37
	movzwl	(%rdi,%r12,2), %r12d
	.loc	0 880 35                        # ldecod_src/io_tiff.c:880:35
	addl	%edx, %r12d
	.loc	0 880 15                        # ldecod_src/io_tiff.c:880:15
	imull	$1228, %r12d, %edx              # imm = 0x4CC
	.loc	0 880 9                         # ldecod_src/io_tiff.c:880:9
	addl	%r13d, %edx
	movq	-48(%rsp), %r12                 # 8-byte Reload
	.loc	0 881 18 is_stmt 1              # ldecod_src/io_tiff.c:881:18
	movzwl	(%rdi,%r12), %r12d
	.loc	0 881 45 is_stmt 0              # ldecod_src/io_tiff.c:881:45
	imull	%ecx, %r11d
.Ltmp104:
	.loc	0 881 42                        # ldecod_src/io_tiff.c:881:42
	movslq	%r11d, %r11
	.loc	0 881 37                        # ldecod_src/io_tiff.c:881:37
	movzwl	(%rdi,%r11,2), %r11d
	.loc	0 881 35                        # ldecod_src/io_tiff.c:881:35
	addl	%r12d, %r11d
	.loc	0 881 15                        # ldecod_src/io_tiff.c:881:15
	imull	$-262, %r11d, %r11d             # imm = 0xFEFA
	.loc	0 881 9                         # ldecod_src/io_tiff.c:881:9
	addl	%edx, %r11d
	movq	-40(%rsp), %rdx                 # 8-byte Reload
	.loc	0 882 18 is_stmt 1              # ldecod_src/io_tiff.c:882:18
	movzwl	(%rdi,%rdx), %edx
	.loc	0 882 45 is_stmt 0              # ldecod_src/io_tiff.c:882:45
	imull	%ecx, %ebx
.Ltmp105:
	.loc	0 882 42                        # ldecod_src/io_tiff.c:882:42
	movslq	%ebx, %rbx
	.loc	0 882 37                        # ldecod_src/io_tiff.c:882:37
	movzwl	(%rdi,%rbx,2), %r12d
	.loc	0 882 35                        # ldecod_src/io_tiff.c:882:35
	addl	%edx, %r12d
	movq	-32(%rsp), %rdx                 # 8-byte Reload
	.loc	0 883 18 is_stmt 1              # ldecod_src/io_tiff.c:883:18
	movzwl	(%rdi,%rdx), %edx
	.loc	0 883 45 is_stmt 0              # ldecod_src/io_tiff.c:883:45
	imull	%ecx, %r14d
.Ltmp106:
	.loc	0 883 42                        # ldecod_src/io_tiff.c:883:42
	movslq	%r14d, %rbx
	.loc	0 883 37                        # ldecod_src/io_tiff.c:883:37
	movzwl	(%rdi,%rbx,2), %ebx
	.loc	0 883 35                        # ldecod_src/io_tiff.c:883:35
	addl	%edx, %ebx
	.loc	0 883 15                        # ldecod_src/io_tiff.c:883:15
	leal	(%rbx,%rbx,4), %edx
	leal	(%rbx,%rdx,2), %ebx
	.loc	0 882 15 is_stmt 1              # ldecod_src/io_tiff.c:882:15
	imull	$47, %r12d, %edx
	.loc	0 882 9 is_stmt 0               # ldecod_src/io_tiff.c:882:9
	addl	%edx, %ebx
	.loc	0 883 9 is_stmt 1               # ldecod_src/io_tiff.c:883:9
	addl	%r11d, %ebx
.Ltmp107:
	#DEBUG_VALUE: horizontal_half_1chan_cosite:result <- [DW_OP_plus_uconst 2048, DW_OP_constu 4096, DW_OP_div, DW_OP_stack_value] $ebx
	.loc	0 884 18                        # ldecod_src/io_tiff.c:884:18
	cmpl	$-6143, %ebx                    # imm = 0xE801
.Ltmp108:
	.loc	0 884 11 is_stmt 0              # ldecod_src/io_tiff.c:884:11
	jl	.LBB2_23
.Ltmp109:
# %bb.20:                               # %if.else239
                                        #   in Loop: Header=BB2_19 Depth=2
	#DEBUG_VALUE: horizontal_half_1chan_cosite:srcPtr <- [DW_OP_LLVM_entry_value 1] $rdi
	#DEBUG_VALUE: horizontal_half_1chan_cosite:srcXres <- [DW_OP_constu 64, DW_OP_minus] [$rsp+0]
	#DEBUG_VALUE: horizontal_half_1chan_cosite:yres <- [DW_OP_constu 88, DW_OP_minus] [$rsp+0]
	#DEBUG_VALUE: horizontal_half_1chan_cosite:srcZres <- $ecx
	#DEBUG_VALUE: horizontal_half_1chan_cosite:dstPtr <- [DW_OP_LLVM_entry_value 1] $r8
	#DEBUG_VALUE: horizontal_half_1chan_cosite:dstZres <- [DW_OP_LLVM_entry_value 1] $r9d
	#DEBUG_VALUE: horizontal_half_1chan_cosite:pixMax <- [DW_OP_plus_uconst 112] [$rsp+0]
	#DEBUG_VALUE: horizontal_half_1chan_cosite:dst <- $r8
	#DEBUG_VALUE: horizontal_half_1chan_cosite:y <- [DW_OP_constu 84, DW_OP_minus, DW_OP_deref] $rsp
	#DEBUG_VALUE: horizontal_half_1chan_cosite:x <- $r9d
	#DEBUG_VALUE: horizontal_half_1chan_cosite:result <- [DW_OP_plus_uconst 2048, DW_OP_constu 4096, DW_OP_div, DW_OP_stack_value] $ebx
	#DEBUG_VALUE: horizontal_half_1chan_cosite:limit <- [DW_OP_constu 124, DW_OP_minus, DW_OP_deref] $rsp
	.loc	0 883 56 is_stmt 1              # ldecod_src/io_tiff.c:883:56
	leal	2048(%rbx), %edx
.Ltmp110:
	#DEBUG_VALUE: horizontal_half_1chan_cosite:result <- [DW_OP_constu 4096, DW_OP_div, DW_OP_stack_value] $edx
	.loc	0 883 63 is_stmt 0              # ldecod_src/io_tiff.c:883:63
	addl	$6143, %ebx                     # imm = 0x17FF
	testl	%edx, %edx
	cmovnsl	%edx, %ebx
	sarl	$12, %ebx
.Ltmp111:
	#DEBUG_VALUE: horizontal_half_1chan_cosite:result <- $ebx
	.loc	0 886 16 is_stmt 1              # ldecod_src/io_tiff.c:886:16
	cmpl	112(%rsp), %ebx
	jl	.LBB2_22
.Ltmp112:
# %bb.21:                               # %if.else239
                                        #   in Loop: Header=BB2_19 Depth=2
	#DEBUG_VALUE: horizontal_half_1chan_cosite:srcPtr <- [DW_OP_LLVM_entry_value 1] $rdi
	#DEBUG_VALUE: horizontal_half_1chan_cosite:srcXres <- [DW_OP_constu 64, DW_OP_minus] [$rsp+0]
	#DEBUG_VALUE: horizontal_half_1chan_cosite:yres <- [DW_OP_constu 88, DW_OP_minus] [$rsp+0]
	#DEBUG_VALUE: horizontal_half_1chan_cosite:srcZres <- $ecx
	#DEBUG_VALUE: horizontal_half_1chan_cosite:dstPtr <- [DW_OP_LLVM_entry_value 1] $r8
	#DEBUG_VALUE: horizontal_half_1chan_cosite:dstZres <- [DW_OP_LLVM_entry_value 1] $r9d
	#DEBUG_VALUE: horizontal_half_1chan_cosite:pixMax <- [DW_OP_plus_uconst 112] [$rsp+0]
	#DEBUG_VALUE: horizontal_half_1chan_cosite:dst <- $r8
	#DEBUG_VALUE: horizontal_half_1chan_cosite:y <- [DW_OP_constu 84, DW_OP_minus, DW_OP_deref] $rsp
	#DEBUG_VALUE: horizontal_half_1chan_cosite:x <- $r9d
	#DEBUG_VALUE: horizontal_half_1chan_cosite:result <- $ebx
	#DEBUG_VALUE: horizontal_half_1chan_cosite:limit <- [DW_OP_constu 124, DW_OP_minus, DW_OP_deref] $rsp
	.loc	0 0 16 is_stmt 0                # ldecod_src/io_tiff.c:0:16
	movl	112(%rsp), %edx
	movl	%edx, %ebx
.Ltmp113:
	jmp	.LBB2_22
.Ltmp114:
.LBB2_25:                               # %for.end255
	#DEBUG_VALUE: horizontal_half_1chan_cosite:srcPtr <- [DW_OP_LLVM_entry_value 1] $rdi
	#DEBUG_VALUE: horizontal_half_1chan_cosite:srcXres <- [DW_OP_constu 64, DW_OP_minus] [$rsp+0]
	#DEBUG_VALUE: horizontal_half_1chan_cosite:yres <- [DW_OP_constu 88, DW_OP_minus] [$rsp+0]
	#DEBUG_VALUE: horizontal_half_1chan_cosite:srcZres <- $ecx
	#DEBUG_VALUE: horizontal_half_1chan_cosite:dstPtr <- [DW_OP_LLVM_entry_value 1] $r8
	#DEBUG_VALUE: horizontal_half_1chan_cosite:dstZres <- [DW_OP_LLVM_entry_value 1] $r9d
	#DEBUG_VALUE: horizontal_half_1chan_cosite:pixMax <- [DW_OP_plus_uconst 112] [$rsp+0]
	#DEBUG_VALUE: horizontal_half_1chan_cosite:src <- $rdi
	#DEBUG_VALUE: horizontal_half_1chan_cosite:dst <- $r8
	.loc	0 893 1 epilogue_begin is_stmt 1 # ldecod_src/io_tiff.c:893:1
	addq	$56, %rsp
	.cfi_def_cfa_offset 56
	popq	%rbx
	.cfi_def_cfa_offset 48
	popq	%r12
	.cfi_def_cfa_offset 40
	popq	%r13
	.cfi_def_cfa_offset 32
	popq	%r14
	.cfi_def_cfa_offset 24
	popq	%r15
	.cfi_def_cfa_offset 16
	popq	%rbp
	.cfi_def_cfa_offset 8
	retq
.Ltmp115:
.Lfunc_end2:
	.size	horizontal_half_1chan_cosite, .Lfunc_end2-horizontal_half_1chan_cosite
	.cfi_endproc
                                        # -- End function
	.globl	vertical_half_1chan             # -- Begin function vertical_half_1chan
	.p2align	4, 0x90
	.type	vertical_half_1chan,@function
vertical_half_1chan:                    # @vertical_half_1chan
.Lfunc_begin3:
	.loc	0 911 0                         # ldecod_src/io_tiff.c:911:0
	.cfi_startproc
# %bb.0:                                # %entry
	#DEBUG_VALUE: vertical_half_1chan:srcPtr <- $rdi
	#DEBUG_VALUE: vertical_half_1chan:xres <- $esi
	#DEBUG_VALUE: vertical_half_1chan:srcYres <- $edx
	#DEBUG_VALUE: vertical_half_1chan:srcZres <- $ecx
	#DEBUG_VALUE: vertical_half_1chan:dstPtr <- $r8
	#DEBUG_VALUE: vertical_half_1chan:dstZres <- $r9d
	pushq	%rbp
	.cfi_def_cfa_offset 16
	pushq	%r15
	.cfi_def_cfa_offset 24
	pushq	%r14
	.cfi_def_cfa_offset 32
	pushq	%r13
	.cfi_def_cfa_offset 40
	pushq	%r12
	.cfi_def_cfa_offset 48
	pushq	%rbx
	.cfi_def_cfa_offset 56
	subq	$16, %rsp
	.cfi_def_cfa_offset 72
	.cfi_offset %rbx, -56
	.cfi_offset %r12, -48
	.cfi_offset %r13, -40
	.cfi_offset %r14, -32
	.cfi_offset %r15, -24
	.cfi_offset %rbp, -16
.Ltmp116:
	#DEBUG_VALUE: vertical_half_1chan:pixMax <- [DW_OP_plus_uconst 72] [$rsp+0]
                                        # kill: def $edx killed $edx def $rdx
	#DEBUG_VALUE: vertical_half_1chan:srcRowCount <- undef
	movslq	%ecx, %r14
.Ltmp117:
	.loc	0 915 26 prologue_end           # ldecod_src/io_tiff.c:915:26
	movl	%ecx, %r10d
	imull	%esi, %r10d
.Ltmp118:
	#DEBUG_VALUE: vertical_half_1chan:srcRowCount <- $r10d
	.loc	0 0 26 is_stmt 0                # ldecod_src/io_tiff.c:0:26
	leal	(%r10,%r10), %eax
	leal	(,%r10,4), %ecx
.Ltmp119:
	#DEBUG_VALUE: vertical_half_1chan:srcZres <- [DW_OP_LLVM_entry_value 1] $ecx
	#DEBUG_VALUE: vertical_half_1chan:src <- undef
	#DEBUG_VALUE: vertical_half_1chan:dst <- undef
	#DEBUG_VALUE: vertical_half_1chan:y <- 0
	movq	%r10, 8(%rsp)                   # 8-byte Spill
	movslq	%r10d, %r10
.Ltmp120:
	movslq	%eax, %rbx
	leal	(%r10,%r10,2), %eax
	movslq	%eax, %r12
	movslq	%ecx, %r11
	leal	(%r10,%r10,4), %eax
	movslq	%eax, %rbp
	leal	(%rbx,%rbx,2), %eax
	cltq
	movslq	%r9d, %r15
	testl	%esi, %esi
	movq	%r10, -96(%rsp)                 # 8-byte Spill
	movq	%rdx, -56(%rsp)                 # 8-byte Spill
.Ltmp121:
	#DEBUG_VALUE: vertical_half_1chan:srcYres <- [DW_OP_constu 56, DW_OP_minus] [$rsp+0]
	movl	%esi, -124(%rsp)                # 4-byte Spill
.Ltmp122:
	#DEBUG_VALUE: vertical_half_1chan:xres <- [DW_OP_constu 124, DW_OP_minus] [$rsp+0]
	movq	%r14, -8(%rsp)                  # 8-byte Spill
	movq	%rbx, -104(%rsp)                # 8-byte Spill
	movq	%r15, -16(%rsp)                 # 8-byte Spill
	movq	%rax, -72(%rsp)                 # 8-byte Spill
	jle	.LBB3_43
.Ltmp123:
# %bb.1:                                # %for.body19.us.preheader
	#DEBUG_VALUE: vertical_half_1chan:srcPtr <- $rdi
	#DEBUG_VALUE: vertical_half_1chan:xres <- [DW_OP_constu 124, DW_OP_minus] [$rsp+0]
	#DEBUG_VALUE: vertical_half_1chan:srcYres <- [DW_OP_constu 56, DW_OP_minus] [$rsp+0]
	#DEBUG_VALUE: vertical_half_1chan:srcZres <- [DW_OP_LLVM_entry_value 1] $ecx
	#DEBUG_VALUE: vertical_half_1chan:dstPtr <- $r8
	#DEBUG_VALUE: vertical_half_1chan:dstZres <- $r9d
	#DEBUG_VALUE: vertical_half_1chan:pixMax <- [DW_OP_plus_uconst 72] [$rsp+0]
	#DEBUG_VALUE: vertical_half_1chan:srcRowCount <- [DW_OP_plus_uconst 8, DW_OP_deref] $rsp
	#DEBUG_VALUE: vertical_half_1chan:y <- 0
	.loc	0 926 5 is_stmt 1               # ldecod_src/io_tiff.c:926:5
	leaq	(%r15,%r15), %rcx
	movq	%rcx, -80(%rsp)                 # 8-byte Spill
	leaq	(%r14,%r14), %rcx
	movq	%rcx, -120(%rsp)                # 8-byte Spill
	leaq	(%rdi,%rax,2), %rax
	leaq	(%rdi,%rbp,2), %rcx
	movq	%rcx, -88(%rsp)                 # 8-byte Spill
	leaq	(%rdi,%r11,2), %r9
.Ltmp124:
	#DEBUG_VALUE: vertical_half_1chan:dstZres <- [DW_OP_LLVM_entry_value 1] $r9d
	.loc	0 0 5 is_stmt 0                 # ldecod_src/io_tiff.c:0:5
	movq	%r12, -112(%rsp)                # 8-byte Spill
	.loc	0 926 5                         # ldecod_src/io_tiff.c:926:5
	leaq	(%rdi,%r12,2), %r12
	leaq	(%rdi,%rbx,2), %r13
	leaq	(%rdi,%r10,2), %rcx
	movq	%rax, %r10
	xorl	%r15d, %r15d
	movl	%esi, %ebx
	jmp	.LBB3_2
.Ltmp125:
	.p2align	4, 0x90
.LBB3_5:                                # %if.else.us
                                        #   in Loop: Header=BB3_2 Depth=1
	#DEBUG_VALUE: vertical_half_1chan:srcPtr <- $rdi
	#DEBUG_VALUE: vertical_half_1chan:xres <- [DW_OP_constu 124, DW_OP_minus] [$rsp+0]
	#DEBUG_VALUE: vertical_half_1chan:srcYres <- [DW_OP_constu 56, DW_OP_minus] [$rsp+0]
	#DEBUG_VALUE: vertical_half_1chan:srcZres <- [DW_OP_LLVM_entry_value 1] $ecx
	#DEBUG_VALUE: vertical_half_1chan:dstPtr <- [DW_OP_LLVM_entry_value 1] $r8
	#DEBUG_VALUE: vertical_half_1chan:dstZres <- [DW_OP_LLVM_entry_value 1] $r9d
	#DEBUG_VALUE: vertical_half_1chan:pixMax <- [DW_OP_plus_uconst 72] [$rsp+0]
	#DEBUG_VALUE: vertical_half_1chan:srcRowCount <- [DW_OP_plus_uconst 8, DW_OP_deref] $rsp
	#DEBUG_VALUE: vertical_half_1chan:dst <- $r8
	#DEBUG_VALUE: vertical_half_1chan:y <- 0
	.loc	0 0 5                           # ldecod_src/io_tiff.c:0:5
	movl	%eax, %r14d
.Ltmp126:
.LBB3_6:                                # %if.end86.us
                                        #   in Loop: Header=BB3_2 Depth=1
	#DEBUG_VALUE: vertical_half_1chan:srcPtr <- $rdi
	#DEBUG_VALUE: vertical_half_1chan:xres <- [DW_OP_constu 124, DW_OP_minus] [$rsp+0]
	#DEBUG_VALUE: vertical_half_1chan:srcYres <- [DW_OP_constu 56, DW_OP_minus] [$rsp+0]
	#DEBUG_VALUE: vertical_half_1chan:srcZres <- [DW_OP_LLVM_entry_value 1] $ecx
	#DEBUG_VALUE: vertical_half_1chan:dstPtr <- [DW_OP_LLVM_entry_value 1] $r8
	#DEBUG_VALUE: vertical_half_1chan:dstZres <- [DW_OP_LLVM_entry_value 1] $r9d
	#DEBUG_VALUE: vertical_half_1chan:pixMax <- [DW_OP_plus_uconst 72] [$rsp+0]
	#DEBUG_VALUE: vertical_half_1chan:srcRowCount <- [DW_OP_plus_uconst 8, DW_OP_deref] $rsp
	#DEBUG_VALUE: vertical_half_1chan:dst <- $r8
	#DEBUG_VALUE: vertical_half_1chan:y <- 0
	#DEBUG_VALUE: vertical_half_1chan:result <- $r14d
	.loc	0 938 12 is_stmt 1              # ldecod_src/io_tiff.c:938:12
	movw	%r14w, (%r8)
.Ltmp127:
	#DEBUG_VALUE: vertical_half_1chan:dst <- [DW_OP_LLVM_arg 0, DW_OP_LLVM_arg 1, DW_OP_minus, DW_OP_consts 2, DW_OP_LLVM_arg 2, DW_OP_LLVM_convert 64 5, DW_OP_mul, DW_OP_div, DW_OP_consts 2, DW_OP_LLVM_arg 2, DW_OP_LLVM_convert 64 5, DW_OP_mul, DW_OP_mul, DW_OP_consts 2, DW_OP_LLVM_arg 2, DW_OP_LLVM_convert 64 5, DW_OP_mul, DW_OP_LLVM_arg 1, DW_OP_plus, DW_OP_plus, DW_OP_stack_value] undef, undef, undef
	#DEBUG_VALUE: vertical_half_1chan:src <- [DW_OP_LLVM_arg 0, DW_OP_LLVM_arg 1, DW_OP_minus, DW_OP_consts 2, DW_OP_LLVM_arg 2, DW_OP_LLVM_convert 64 5, DW_OP_mul, DW_OP_div, DW_OP_consts 2, DW_OP_LLVM_arg 3, DW_OP_LLVM_convert 64 5, DW_OP_mul, DW_OP_mul, DW_OP_consts 2, DW_OP_LLVM_arg 3, DW_OP_LLVM_convert 64 5, DW_OP_mul, DW_OP_LLVM_arg 4, DW_OP_plus, DW_OP_plus, DW_OP_stack_value] undef, undef, undef, undef, undef
	#DEBUG_VALUE: vertical_half_1chan:x <- [DW_OP_LLVM_arg 0, DW_OP_LLVM_arg 1, DW_OP_minus, DW_OP_consts 2, DW_OP_LLVM_arg 2, DW_OP_LLVM_convert 64 5, DW_OP_mul, DW_OP_div, DW_OP_consts 1, DW_OP_plus, DW_OP_stack_value] undef, undef, undef
	.loc	0 926 17                        # ldecod_src/io_tiff.c:926:17
	addq	-80(%rsp), %r8                  # 8-byte Folded Reload
	addq	-120(%rsp), %r15                # 8-byte Folded Reload
	decl	%ebx
.Ltmp128:
	.loc	0 926 5 is_stmt 0               # ldecod_src/io_tiff.c:926:5
	je	.LBB3_7
.Ltmp129:
.LBB3_2:                                # %for.body19.us
                                        # =>This Inner Loop Header: Depth=1
	#DEBUG_VALUE: vertical_half_1chan:srcPtr <- $rdi
	#DEBUG_VALUE: vertical_half_1chan:xres <- [DW_OP_constu 124, DW_OP_minus] [$rsp+0]
	#DEBUG_VALUE: vertical_half_1chan:srcYres <- [DW_OP_constu 56, DW_OP_minus] [$rsp+0]
	#DEBUG_VALUE: vertical_half_1chan:srcZres <- [DW_OP_LLVM_entry_value 1] $ecx
	#DEBUG_VALUE: vertical_half_1chan:dstPtr <- [DW_OP_LLVM_entry_value 1] $r8
	#DEBUG_VALUE: vertical_half_1chan:dstZres <- [DW_OP_LLVM_entry_value 1] $r9d
	#DEBUG_VALUE: vertical_half_1chan:pixMax <- [DW_OP_plus_uconst 72] [$rsp+0]
	#DEBUG_VALUE: vertical_half_1chan:srcRowCount <- [DW_OP_plus_uconst 8, DW_OP_deref] $rsp
	#DEBUG_VALUE: vertical_half_1chan:y <- 0
	#DEBUG_VALUE: vertical_half_1chan:dst <- $r8
	#DEBUG_VALUE: vertical_half_1chan:src <- [DW_OP_LLVM_arg 0, DW_OP_LLVM_arg 1, DW_OP_minus, DW_OP_consts 2, DW_OP_LLVM_arg 2, DW_OP_LLVM_convert 64 5, DW_OP_mul, DW_OP_div, DW_OP_consts 2, DW_OP_LLVM_arg 3, DW_OP_LLVM_convert 64 5, DW_OP_mul, DW_OP_mul, DW_OP_LLVM_arg 4, DW_OP_plus, DW_OP_stack_value] undef, undef, undef, undef, undef
	#DEBUG_VALUE: vertical_half_1chan:x <- [DW_OP_LLVM_arg 0, DW_OP_LLVM_arg 1, DW_OP_minus, DW_OP_consts 2, DW_OP_LLVM_arg 2, DW_OP_LLVM_convert 64 5, DW_OP_mul, DW_OP_div, DW_OP_stack_value] undef, undef, undef
	.loc	0 928 23 is_stmt 1              # ldecod_src/io_tiff.c:928:23
	movzwl	(%rdi,%r15), %eax
	.loc	0 928 47 is_stmt 0              # ldecod_src/io_tiff.c:928:47
	movzwl	(%rcx,%r15), %r14d
	.loc	0 928 45                        # ldecod_src/io_tiff.c:928:45
	addl	%eax, %r14d
	.loc	0 928 20                        # ldecod_src/io_tiff.c:928:20
	imull	$225, %r14d, %r14d
	.loc	0 929 39 is_stmt 1              # ldecod_src/io_tiff.c:929:39
	movzwl	(%r13,%r15), %esi
	.loc	0 929 37 is_stmt 0              # ldecod_src/io_tiff.c:929:37
	addl	%eax, %esi
	.loc	0 929 12                        # ldecod_src/io_tiff.c:929:12
	imull	$69, %esi, %esi
	.loc	0 929 9                         # ldecod_src/io_tiff.c:929:9
	addl	%r14d, %esi
	.loc	0 930 39 is_stmt 1              # ldecod_src/io_tiff.c:930:39
	movzwl	(%r12,%r15), %r14d
	.loc	0 930 37 is_stmt 0              # ldecod_src/io_tiff.c:930:37
	addl	%eax, %r14d
	.loc	0 930 12                        # ldecod_src/io_tiff.c:930:12
	imull	$-30, %r14d, %r14d
	.loc	0 930 9                         # ldecod_src/io_tiff.c:930:9
	addl	%esi, %r14d
	.loc	0 931 39 is_stmt 1              # ldecod_src/io_tiff.c:931:39
	movzwl	(%r9,%r15), %esi
	.loc	0 931 37 is_stmt 0              # ldecod_src/io_tiff.c:931:37
	addl	%eax, %esi
	.loc	0 931 9                         # ldecod_src/io_tiff.c:931:9
	shll	$4, %esi
	subl	%esi, %r14d
	movq	-88(%rsp), %rsi                 # 8-byte Reload
	.loc	0 932 39 is_stmt 1              # ldecod_src/io_tiff.c:932:39
	movzwl	(%rsi,%r15), %esi
	.loc	0 932 37 is_stmt 0              # ldecod_src/io_tiff.c:932:37
	addl	%eax, %esi
	.loc	0 932 12                        # ldecod_src/io_tiff.c:932:12
	leal	(%rsi,%rsi,2), %esi
	.loc	0 932 9                         # ldecod_src/io_tiff.c:932:9
	leal	(%r14,%rsi,2), %esi
	.loc	0 933 39 is_stmt 1              # ldecod_src/io_tiff.c:933:39
	movzwl	(%r10,%r15), %r14d
	.loc	0 933 37 is_stmt 0              # ldecod_src/io_tiff.c:933:37
	addl	%eax, %r14d
	.loc	0 933 9                         # ldecod_src/io_tiff.c:933:9
	leal	(%rsi,%r14,2), %eax
.Ltmp130:
	#DEBUG_VALUE: vertical_half_1chan:result <- [DW_OP_plus_uconst 256, DW_OP_constu 512, DW_OP_div, DW_OP_stack_value] $eax
	.loc	0 0 9                           # ldecod_src/io_tiff.c:0:9
	movl	$0, %r14d
.Ltmp131:
	.loc	0 934 18 is_stmt 1              # ldecod_src/io_tiff.c:934:18
	cmpl	$-767, %eax                     # imm = 0xFD01
.Ltmp132:
	.loc	0 934 11 is_stmt 0              # ldecod_src/io_tiff.c:934:11
	jl	.LBB3_6
.Ltmp133:
# %bb.3:                                # %if.else.us
                                        #   in Loop: Header=BB3_2 Depth=1
	#DEBUG_VALUE: vertical_half_1chan:srcPtr <- $rdi
	#DEBUG_VALUE: vertical_half_1chan:xres <- [DW_OP_constu 124, DW_OP_minus] [$rsp+0]
	#DEBUG_VALUE: vertical_half_1chan:srcYres <- [DW_OP_constu 56, DW_OP_minus] [$rsp+0]
	#DEBUG_VALUE: vertical_half_1chan:srcZres <- [DW_OP_LLVM_entry_value 1] $ecx
	#DEBUG_VALUE: vertical_half_1chan:dstPtr <- [DW_OP_LLVM_entry_value 1] $r8
	#DEBUG_VALUE: vertical_half_1chan:dstZres <- [DW_OP_LLVM_entry_value 1] $r9d
	#DEBUG_VALUE: vertical_half_1chan:pixMax <- [DW_OP_plus_uconst 72] [$rsp+0]
	#DEBUG_VALUE: vertical_half_1chan:srcRowCount <- [DW_OP_plus_uconst 8, DW_OP_deref] $rsp
	#DEBUG_VALUE: vertical_half_1chan:dst <- $r8
	#DEBUG_VALUE: vertical_half_1chan:y <- 0
	#DEBUG_VALUE: vertical_half_1chan:result <- [DW_OP_plus_uconst 256, DW_OP_constu 512, DW_OP_div, DW_OP_stack_value] $eax
	.loc	0 933 61 is_stmt 1              # ldecod_src/io_tiff.c:933:61
	leal	256(%rax), %esi
.Ltmp134:
	#DEBUG_VALUE: vertical_half_1chan:result <- [DW_OP_constu 512, DW_OP_div, DW_OP_stack_value] $esi
	.loc	0 933 67 is_stmt 0              # ldecod_src/io_tiff.c:933:67
	addl	$767, %eax                      # imm = 0x2FF
	testl	%esi, %esi
	cmovnsl	%esi, %eax
	sarl	$9, %eax
.Ltmp135:
	#DEBUG_VALUE: vertical_half_1chan:result <- $eax
	.loc	0 936 16 is_stmt 1              # ldecod_src/io_tiff.c:936:16
	cmpl	72(%rsp), %eax
	jl	.LBB3_5
.Ltmp136:
# %bb.4:                                # %if.else.us
                                        #   in Loop: Header=BB3_2 Depth=1
	#DEBUG_VALUE: vertical_half_1chan:srcPtr <- $rdi
	#DEBUG_VALUE: vertical_half_1chan:xres <- [DW_OP_constu 124, DW_OP_minus] [$rsp+0]
	#DEBUG_VALUE: vertical_half_1chan:srcYres <- [DW_OP_constu 56, DW_OP_minus] [$rsp+0]
	#DEBUG_VALUE: vertical_half_1chan:srcZres <- [DW_OP_LLVM_entry_value 1] $ecx
	#DEBUG_VALUE: vertical_half_1chan:dstPtr <- [DW_OP_LLVM_entry_value 1] $r8
	#DEBUG_VALUE: vertical_half_1chan:dstZres <- [DW_OP_LLVM_entry_value 1] $r9d
	#DEBUG_VALUE: vertical_half_1chan:pixMax <- [DW_OP_plus_uconst 72] [$rsp+0]
	#DEBUG_VALUE: vertical_half_1chan:srcRowCount <- [DW_OP_plus_uconst 8, DW_OP_deref] $rsp
	#DEBUG_VALUE: vertical_half_1chan:dst <- $r8
	#DEBUG_VALUE: vertical_half_1chan:y <- 0
	#DEBUG_VALUE: vertical_half_1chan:result <- $eax
	.loc	0 0 16 is_stmt 0                # ldecod_src/io_tiff.c:0:16
	movl	72(%rsp), %eax
.Ltmp137:
                                        # kill: def $eax killed $eax def $rax
	jmp	.LBB3_5
.Ltmp138:
.LBB3_7:                                # %for.cond17.for.end_crit_edge.us
	#DEBUG_VALUE: vertical_half_1chan:srcPtr <- $rdi
	#DEBUG_VALUE: vertical_half_1chan:xres <- [DW_OP_constu 124, DW_OP_minus] [$rsp+0]
	#DEBUG_VALUE: vertical_half_1chan:srcYres <- [DW_OP_constu 56, DW_OP_minus] [$rsp+0]
	#DEBUG_VALUE: vertical_half_1chan:srcZres <- [DW_OP_LLVM_entry_value 1] $ecx
	#DEBUG_VALUE: vertical_half_1chan:dstPtr <- [DW_OP_LLVM_entry_value 1] $r8
	#DEBUG_VALUE: vertical_half_1chan:dstZres <- [DW_OP_LLVM_entry_value 1] $r9d
	#DEBUG_VALUE: vertical_half_1chan:pixMax <- [DW_OP_plus_uconst 72] [$rsp+0]
	#DEBUG_VALUE: vertical_half_1chan:srcRowCount <- [DW_OP_plus_uconst 8, DW_OP_deref] $rsp
	#DEBUG_VALUE: vertical_half_1chan:y <- 0
	#DEBUG_VALUE: vertical_half_1chan:result <- $r14d
	#DEBUG_VALUE: vertical_half_1chan:src <- undef
	#DEBUG_VALUE: vertical_half_1chan:y <- 2
	#DEBUG_VALUE: vertical_half_1chan:dst <- undef
	#DEBUG_VALUE: vertical_half_1chan:n1 <- [DW_OP_stack_value] 0
	#DEBUG_VALUE: vertical_half_1chan:n2 <- 2
	#DEBUG_VALUE: vertical_half_1chan:n3 <- 2
	#DEBUG_VALUE: vertical_half_1chan:n4 <- 2
	#DEBUG_VALUE: vertical_half_1chan:x <- 0
	movq	-96(%rsp), %rsi                 # 8-byte Reload
	.loc	0 926 5 is_stmt 1               # ldecod_src/io_tiff.c:926:5
	leaq	(%rsi,%rsi), %rax
	movq	%rdi, %r9
	subq	%rax, %r9
	movq	-104(%rsp), %r10                # 8-byte Reload
	leaq	(%r10,%r10), %rdx
	movq	%rdx, (%rsp)                    # 8-byte Spill
	subq	%rdx, %rax
	addq	%rdi, %rax
	leaq	(%rdi,%rsi,4), %rdx
	movq	%rdx, -88(%rsp)                 # 8-byte Spill
	movl	-124(%rsp), %r10d               # 4-byte Reload
	movq	-112(%rsp), %r12                # 8-byte Reload
	jmp	.LBB3_8
.Ltmp139:
	.p2align	4, 0x90
.LBB3_11:                               # %if.else.us.1
                                        #   in Loop: Header=BB3_8 Depth=1
	#DEBUG_VALUE: vertical_half_1chan:srcPtr <- $rdi
	#DEBUG_VALUE: vertical_half_1chan:xres <- [DW_OP_constu 124, DW_OP_minus] [$rsp+0]
	#DEBUG_VALUE: vertical_half_1chan:srcYres <- [DW_OP_constu 56, DW_OP_minus] [$rsp+0]
	#DEBUG_VALUE: vertical_half_1chan:srcZres <- [DW_OP_LLVM_entry_value 1] $ecx
	#DEBUG_VALUE: vertical_half_1chan:dstPtr <- [DW_OP_LLVM_entry_value 1] $r8
	#DEBUG_VALUE: vertical_half_1chan:dstZres <- [DW_OP_LLVM_entry_value 1] $r9d
	#DEBUG_VALUE: vertical_half_1chan:pixMax <- [DW_OP_plus_uconst 72] [$rsp+0]
	#DEBUG_VALUE: vertical_half_1chan:srcRowCount <- [DW_OP_plus_uconst 8, DW_OP_deref] $rsp
	#DEBUG_VALUE: vertical_half_1chan:y <- 2
	#DEBUG_VALUE: vertical_half_1chan:n1 <- [DW_OP_stack_value] 0
	#DEBUG_VALUE: vertical_half_1chan:n2 <- 2
	#DEBUG_VALUE: vertical_half_1chan:n3 <- 2
	#DEBUG_VALUE: vertical_half_1chan:n4 <- 2
	.loc	0 0 5 is_stmt 0                 # ldecod_src/io_tiff.c:0:5
	movl	%ebx, %r13d
.Ltmp140:
.LBB3_12:                               # %if.end86.us.1
                                        #   in Loop: Header=BB3_8 Depth=1
	#DEBUG_VALUE: vertical_half_1chan:srcPtr <- $rdi
	#DEBUG_VALUE: vertical_half_1chan:xres <- [DW_OP_constu 124, DW_OP_minus] [$rsp+0]
	#DEBUG_VALUE: vertical_half_1chan:srcYres <- [DW_OP_constu 56, DW_OP_minus] [$rsp+0]
	#DEBUG_VALUE: vertical_half_1chan:srcZres <- [DW_OP_LLVM_entry_value 1] $ecx
	#DEBUG_VALUE: vertical_half_1chan:dstPtr <- [DW_OP_LLVM_entry_value 1] $r8
	#DEBUG_VALUE: vertical_half_1chan:dstZres <- [DW_OP_LLVM_entry_value 1] $r9d
	#DEBUG_VALUE: vertical_half_1chan:pixMax <- [DW_OP_plus_uconst 72] [$rsp+0]
	#DEBUG_VALUE: vertical_half_1chan:srcRowCount <- [DW_OP_plus_uconst 8, DW_OP_deref] $rsp
	#DEBUG_VALUE: vertical_half_1chan:y <- 2
	#DEBUG_VALUE: vertical_half_1chan:n1 <- [DW_OP_stack_value] 0
	#DEBUG_VALUE: vertical_half_1chan:n2 <- 2
	#DEBUG_VALUE: vertical_half_1chan:n3 <- 2
	#DEBUG_VALUE: vertical_half_1chan:n4 <- 2
	#DEBUG_VALUE: vertical_half_1chan:result <- $r13d
	.loc	0 938 12 is_stmt 1              # ldecod_src/io_tiff.c:938:12
	movw	%r13w, (%r8)
.Ltmp141:
	#DEBUG_VALUE: vertical_half_1chan:dst <- undef
	#DEBUG_VALUE: vertical_half_1chan:src <- undef
	#DEBUG_VALUE: vertical_half_1chan:x <- undef
	.loc	0 926 17                        # ldecod_src/io_tiff.c:926:17
	addq	-120(%rsp), %r15                # 8-byte Folded Reload
	addq	-80(%rsp), %r8                  # 8-byte Folded Reload
	decl	%r10d
.Ltmp142:
	.loc	0 926 5 is_stmt 0               # ldecod_src/io_tiff.c:926:5
	je	.LBB3_13
.Ltmp143:
.LBB3_8:                                # %for.body19.us.1
                                        # =>This Inner Loop Header: Depth=1
	#DEBUG_VALUE: vertical_half_1chan:srcPtr <- $rdi
	#DEBUG_VALUE: vertical_half_1chan:xres <- [DW_OP_constu 124, DW_OP_minus] [$rsp+0]
	#DEBUG_VALUE: vertical_half_1chan:srcYres <- [DW_OP_constu 56, DW_OP_minus] [$rsp+0]
	#DEBUG_VALUE: vertical_half_1chan:srcZres <- [DW_OP_LLVM_entry_value 1] $ecx
	#DEBUG_VALUE: vertical_half_1chan:dstPtr <- [DW_OP_LLVM_entry_value 1] $r8
	#DEBUG_VALUE: vertical_half_1chan:dstZres <- [DW_OP_LLVM_entry_value 1] $r9d
	#DEBUG_VALUE: vertical_half_1chan:pixMax <- [DW_OP_plus_uconst 72] [$rsp+0]
	#DEBUG_VALUE: vertical_half_1chan:srcRowCount <- [DW_OP_plus_uconst 8, DW_OP_deref] $rsp
	#DEBUG_VALUE: vertical_half_1chan:y <- 2
	#DEBUG_VALUE: vertical_half_1chan:n1 <- [DW_OP_stack_value] 0
	#DEBUG_VALUE: vertical_half_1chan:n2 <- 2
	#DEBUG_VALUE: vertical_half_1chan:n3 <- 2
	#DEBUG_VALUE: vertical_half_1chan:n4 <- 2
	#DEBUG_VALUE: vertical_half_1chan:dst <- undef
	#DEBUG_VALUE: vertical_half_1chan:src <- undef
	#DEBUG_VALUE: vertical_half_1chan:x <- undef
	.loc	0 928 23 is_stmt 1              # ldecod_src/io_tiff.c:928:23
	leaq	(%rcx,%r15), %rbx
	movzwl	(%rcx,%r15), %esi
	movq	-88(%rsp), %rdx                 # 8-byte Reload
	.loc	0 928 47 is_stmt 0              # ldecod_src/io_tiff.c:928:47
	movzwl	(%rdx,%r15), %r14d
	.loc	0 928 45                        # ldecod_src/io_tiff.c:928:45
	addl	%esi, %r14d
	.loc	0 928 20                        # ldecod_src/io_tiff.c:928:20
	imull	$225, %r14d, %esi
	.loc	0 929 15 is_stmt 1              # ldecod_src/io_tiff.c:929:15
	movzwl	(%rdi,%r15), %r14d
	movq	%r12, %rdx
	movq	-104(%rsp), %r12                # 8-byte Reload
	.loc	0 929 39 is_stmt 0              # ldecod_src/io_tiff.c:929:39
	movzwl	(%rbx,%r12,2), %r13d
	movq	%rdx, %r12
	.loc	0 929 37                        # ldecod_src/io_tiff.c:929:37
	addl	%r14d, %r13d
	.loc	0 929 12                        # ldecod_src/io_tiff.c:929:12
	imull	$69, %r13d, %r14d
	.loc	0 929 9                         # ldecod_src/io_tiff.c:929:9
	addl	%esi, %r14d
	.loc	0 930 15 is_stmt 1              # ldecod_src/io_tiff.c:930:15
	movzwl	(%rax,%r15), %esi
	.loc	0 930 39 is_stmt 0              # ldecod_src/io_tiff.c:930:39
	movzwl	(%rbx,%rdx,2), %r13d
	.loc	0 930 37                        # ldecod_src/io_tiff.c:930:37
	addl	%esi, %r13d
	.loc	0 930 12                        # ldecod_src/io_tiff.c:930:12
	imull	$-30, %r13d, %r13d
	.loc	0 930 9                         # ldecod_src/io_tiff.c:930:9
	addl	%r14d, %r13d
	.loc	0 931 39 is_stmt 1              # ldecod_src/io_tiff.c:931:39
	movzwl	(%rbx,%r11,2), %r14d
	.loc	0 931 37 is_stmt 0              # ldecod_src/io_tiff.c:931:37
	addl	%esi, %r14d
	.loc	0 931 9                         # ldecod_src/io_tiff.c:931:9
	shll	$4, %r14d
	subl	%r14d, %r13d
	.loc	0 932 15 is_stmt 1              # ldecod_src/io_tiff.c:932:15
	movzwl	(%r9,%r15), %esi
	.loc	0 932 39 is_stmt 0              # ldecod_src/io_tiff.c:932:39
	movzwl	(%rbx,%rbp,2), %r14d
	.loc	0 932 37                        # ldecod_src/io_tiff.c:932:37
	addl	%esi, %r14d
	.loc	0 932 12                        # ldecod_src/io_tiff.c:932:12
	leal	(%r14,%r14,2), %r14d
	.loc	0 932 9                         # ldecod_src/io_tiff.c:932:9
	leal	(%r13,%r14,2), %r14d
	movq	-72(%rsp), %rdx                 # 8-byte Reload
	.loc	0 933 39 is_stmt 1              # ldecod_src/io_tiff.c:933:39
	movzwl	(%rbx,%rdx,2), %ebx
	.loc	0 933 37 is_stmt 0              # ldecod_src/io_tiff.c:933:37
	addl	%esi, %ebx
	.loc	0 933 9                         # ldecod_src/io_tiff.c:933:9
	leal	(%r14,%rbx,2), %ebx
.Ltmp144:
	#DEBUG_VALUE: vertical_half_1chan:result <- [DW_OP_plus_uconst 256, DW_OP_constu 512, DW_OP_div, DW_OP_stack_value] $ebx
	.loc	0 0 9                           # ldecod_src/io_tiff.c:0:9
	xorl	%r13d, %r13d
.Ltmp145:
	.loc	0 934 18 is_stmt 1              # ldecod_src/io_tiff.c:934:18
	cmpl	$-767, %ebx                     # imm = 0xFD01
.Ltmp146:
	.loc	0 934 11 is_stmt 0              # ldecod_src/io_tiff.c:934:11
	jl	.LBB3_12
.Ltmp147:
# %bb.9:                                # %if.else.us.1
                                        #   in Loop: Header=BB3_8 Depth=1
	#DEBUG_VALUE: vertical_half_1chan:srcPtr <- $rdi
	#DEBUG_VALUE: vertical_half_1chan:xres <- [DW_OP_constu 124, DW_OP_minus] [$rsp+0]
	#DEBUG_VALUE: vertical_half_1chan:srcYres <- [DW_OP_constu 56, DW_OP_minus] [$rsp+0]
	#DEBUG_VALUE: vertical_half_1chan:srcZres <- [DW_OP_LLVM_entry_value 1] $ecx
	#DEBUG_VALUE: vertical_half_1chan:dstPtr <- [DW_OP_LLVM_entry_value 1] $r8
	#DEBUG_VALUE: vertical_half_1chan:dstZres <- [DW_OP_LLVM_entry_value 1] $r9d
	#DEBUG_VALUE: vertical_half_1chan:pixMax <- [DW_OP_plus_uconst 72] [$rsp+0]
	#DEBUG_VALUE: vertical_half_1chan:srcRowCount <- [DW_OP_plus_uconst 8, DW_OP_deref] $rsp
	#DEBUG_VALUE: vertical_half_1chan:y <- 2
	#DEBUG_VALUE: vertical_half_1chan:n1 <- [DW_OP_stack_value] 0
	#DEBUG_VALUE: vertical_half_1chan:n2 <- 2
	#DEBUG_VALUE: vertical_half_1chan:n3 <- 2
	#DEBUG_VALUE: vertical_half_1chan:n4 <- 2
	#DEBUG_VALUE: vertical_half_1chan:result <- [DW_OP_plus_uconst 256, DW_OP_constu 512, DW_OP_div, DW_OP_stack_value] $ebx
	.loc	0 933 61 is_stmt 1              # ldecod_src/io_tiff.c:933:61
	leal	256(%rbx), %esi
.Ltmp148:
	#DEBUG_VALUE: vertical_half_1chan:result <- [DW_OP_constu 512, DW_OP_div, DW_OP_stack_value] $esi
	.loc	0 933 67 is_stmt 0              # ldecod_src/io_tiff.c:933:67
	addl	$767, %ebx                      # imm = 0x2FF
	testl	%esi, %esi
	cmovnsl	%esi, %ebx
	sarl	$9, %ebx
.Ltmp149:
	#DEBUG_VALUE: vertical_half_1chan:result <- $ebx
	.loc	0 936 16 is_stmt 1              # ldecod_src/io_tiff.c:936:16
	cmpl	72(%rsp), %ebx
	jl	.LBB3_11
.Ltmp150:
# %bb.10:                               # %if.else.us.1
                                        #   in Loop: Header=BB3_8 Depth=1
	#DEBUG_VALUE: vertical_half_1chan:srcPtr <- $rdi
	#DEBUG_VALUE: vertical_half_1chan:xres <- [DW_OP_constu 124, DW_OP_minus] [$rsp+0]
	#DEBUG_VALUE: vertical_half_1chan:srcYres <- [DW_OP_constu 56, DW_OP_minus] [$rsp+0]
	#DEBUG_VALUE: vertical_half_1chan:srcZres <- [DW_OP_LLVM_entry_value 1] $ecx
	#DEBUG_VALUE: vertical_half_1chan:dstPtr <- [DW_OP_LLVM_entry_value 1] $r8
	#DEBUG_VALUE: vertical_half_1chan:dstZres <- [DW_OP_LLVM_entry_value 1] $r9d
	#DEBUG_VALUE: vertical_half_1chan:pixMax <- [DW_OP_plus_uconst 72] [$rsp+0]
	#DEBUG_VALUE: vertical_half_1chan:srcRowCount <- [DW_OP_plus_uconst 8, DW_OP_deref] $rsp
	#DEBUG_VALUE: vertical_half_1chan:y <- 2
	#DEBUG_VALUE: vertical_half_1chan:n1 <- [DW_OP_stack_value] 0
	#DEBUG_VALUE: vertical_half_1chan:n2 <- 2
	#DEBUG_VALUE: vertical_half_1chan:n3 <- 2
	#DEBUG_VALUE: vertical_half_1chan:n4 <- 2
	#DEBUG_VALUE: vertical_half_1chan:result <- $ebx
	.loc	0 0 16 is_stmt 0                # ldecod_src/io_tiff.c:0:16
	movl	72(%rsp), %esi
	movl	%esi, %ebx
.Ltmp151:
	jmp	.LBB3_11
.Ltmp152:
.LBB3_13:                               # %for.cond17.for.end_crit_edge.us.1
	#DEBUG_VALUE: vertical_half_1chan:srcPtr <- $rdi
	#DEBUG_VALUE: vertical_half_1chan:xres <- [DW_OP_constu 124, DW_OP_minus] [$rsp+0]
	#DEBUG_VALUE: vertical_half_1chan:srcYres <- [DW_OP_constu 56, DW_OP_minus] [$rsp+0]
	#DEBUG_VALUE: vertical_half_1chan:srcZres <- [DW_OP_LLVM_entry_value 1] $ecx
	#DEBUG_VALUE: vertical_half_1chan:dstPtr <- [DW_OP_LLVM_entry_value 1] $r8
	#DEBUG_VALUE: vertical_half_1chan:dstZres <- [DW_OP_LLVM_entry_value 1] $r9d
	#DEBUG_VALUE: vertical_half_1chan:pixMax <- [DW_OP_plus_uconst 72] [$rsp+0]
	#DEBUG_VALUE: vertical_half_1chan:srcRowCount <- [DW_OP_plus_uconst 8, DW_OP_deref] $rsp
	#DEBUG_VALUE: vertical_half_1chan:y <- 2
	#DEBUG_VALUE: vertical_half_1chan:n1 <- [DW_OP_stack_value] 0
	#DEBUG_VALUE: vertical_half_1chan:n2 <- 2
	#DEBUG_VALUE: vertical_half_1chan:n3 <- 2
	#DEBUG_VALUE: vertical_half_1chan:n4 <- 2
	#DEBUG_VALUE: vertical_half_1chan:result <- $r13d
	#DEBUG_VALUE: vertical_half_1chan:src <- undef
	#DEBUG_VALUE: vertical_half_1chan:y <- 4
	#DEBUG_VALUE: vertical_half_1chan:dst <- undef
	#DEBUG_VALUE: vertical_half_1chan:n1 <- [DW_OP_stack_value] 0
	#DEBUG_VALUE: vertical_half_1chan:n2 <- 2
	#DEBUG_VALUE: vertical_half_1chan:n3 <- 3
	#DEBUG_VALUE: vertical_half_1chan:n4 <- 4
	#DEBUG_VALUE: vertical_half_1chan:x <- 0
	movq	-96(%rsp), %rbx                 # 8-byte Reload
	.loc	0 926 5 is_stmt 1               # ldecod_src/io_tiff.c:926:5
	leaq	(,%rbx,4), %r10
	movq	-72(%rsp), %rax                 # 8-byte Reload
	addq	%rax, %rax
	leaq	(%rax,%rbx,4), %rax
	addq	%rdi, %rax
	movq	%rax, -112(%rsp)                # 8-byte Spill
	leaq	(,%rbp,2), %rax
	leaq	(%rax,%rbx,4), %rax
	addq	%rdi, %rax
	movq	%rax, -24(%rsp)                 # 8-byte Spill
	movq	%rdi, %rax
	subq	%r10, %rax
	movq	%rax, -32(%rsp)                 # 8-byte Spill
	leaq	(%r11,%r11), %rax
	leaq	(%rax,%rbx,4), %rax
	addq	%rdi, %rax
	movq	%rax, -40(%rsp)                 # 8-byte Spill
	leaq	(%r12,%r12), %rsi
	movq	%r10, %rax
	subq	%rsi, %rax
	addq	%rdi, %rax
	leaq	(%rsi,%rbx,4), %rdx
	addq	%rdi, %rdx
	movq	(%rsp), %rsi                    # 8-byte Reload
	subq	%rsi, %r10
	addq	%rdi, %r10
	leaq	(%rsi,%rbx,4), %r9
	addq	%rdi, %r9
	leaq	(%rbx,%rbx,2), %rsi
	leaq	(%rdi,%rsi,2), %r13
.Ltmp153:
	.loc	0 0 5 is_stmt 0                 # ldecod_src/io_tiff.c:0:5
	movl	-124(%rsp), %edi                # 4-byte Reload
.Ltmp154:
	jmp	.LBB3_14
.Ltmp155:
	.p2align	4, 0x90
.LBB3_17:                               # %if.else.us.2
                                        #   in Loop: Header=BB3_14 Depth=1
	#DEBUG_VALUE: vertical_half_1chan:srcPtr <- [DW_OP_LLVM_entry_value 1] $rdi
	#DEBUG_VALUE: vertical_half_1chan:xres <- [DW_OP_constu 124, DW_OP_minus] [$rsp+0]
	#DEBUG_VALUE: vertical_half_1chan:srcYres <- [DW_OP_constu 56, DW_OP_minus] [$rsp+0]
	#DEBUG_VALUE: vertical_half_1chan:srcZres <- [DW_OP_LLVM_entry_value 1] $ecx
	#DEBUG_VALUE: vertical_half_1chan:dstPtr <- [DW_OP_LLVM_entry_value 1] $r8
	#DEBUG_VALUE: vertical_half_1chan:dstZres <- [DW_OP_LLVM_entry_value 1] $r9d
	#DEBUG_VALUE: vertical_half_1chan:pixMax <- [DW_OP_plus_uconst 72] [$rsp+0]
	#DEBUG_VALUE: vertical_half_1chan:srcRowCount <- [DW_OP_plus_uconst 8, DW_OP_deref] $rsp
	#DEBUG_VALUE: vertical_half_1chan:y <- 4
	#DEBUG_VALUE: vertical_half_1chan:n1 <- [DW_OP_stack_value] 0
	#DEBUG_VALUE: vertical_half_1chan:n2 <- 2
	#DEBUG_VALUE: vertical_half_1chan:n3 <- 3
	#DEBUG_VALUE: vertical_half_1chan:n4 <- 4
	movl	%ebx, %esi
.Ltmp156:
.LBB3_18:                               # %if.end86.us.2
                                        #   in Loop: Header=BB3_14 Depth=1
	#DEBUG_VALUE: vertical_half_1chan:srcPtr <- [DW_OP_LLVM_entry_value 1] $rdi
	#DEBUG_VALUE: vertical_half_1chan:xres <- [DW_OP_constu 124, DW_OP_minus] [$rsp+0]
	#DEBUG_VALUE: vertical_half_1chan:srcYres <- [DW_OP_constu 56, DW_OP_minus] [$rsp+0]
	#DEBUG_VALUE: vertical_half_1chan:srcZres <- [DW_OP_LLVM_entry_value 1] $ecx
	#DEBUG_VALUE: vertical_half_1chan:dstPtr <- [DW_OP_LLVM_entry_value 1] $r8
	#DEBUG_VALUE: vertical_half_1chan:dstZres <- [DW_OP_LLVM_entry_value 1] $r9d
	#DEBUG_VALUE: vertical_half_1chan:pixMax <- [DW_OP_plus_uconst 72] [$rsp+0]
	#DEBUG_VALUE: vertical_half_1chan:srcRowCount <- [DW_OP_plus_uconst 8, DW_OP_deref] $rsp
	#DEBUG_VALUE: vertical_half_1chan:y <- 4
	#DEBUG_VALUE: vertical_half_1chan:n1 <- [DW_OP_stack_value] 0
	#DEBUG_VALUE: vertical_half_1chan:n2 <- 2
	#DEBUG_VALUE: vertical_half_1chan:n3 <- 3
	#DEBUG_VALUE: vertical_half_1chan:n4 <- 4
	#DEBUG_VALUE: vertical_half_1chan:result <- $esi
	.loc	0 938 12 is_stmt 1              # ldecod_src/io_tiff.c:938:12
	movw	%si, (%r8)
.Ltmp157:
	#DEBUG_VALUE: vertical_half_1chan:dst <- undef
	#DEBUG_VALUE: vertical_half_1chan:src <- undef
	#DEBUG_VALUE: vertical_half_1chan:x <- undef
	.loc	0 926 17                        # ldecod_src/io_tiff.c:926:17
	addq	-80(%rsp), %r8                  # 8-byte Folded Reload
	addq	-120(%rsp), %r15                # 8-byte Folded Reload
	decl	%edi
.Ltmp158:
	.loc	0 926 5 is_stmt 0               # ldecod_src/io_tiff.c:926:5
	je	.LBB3_19
.Ltmp159:
.LBB3_14:                               # %for.body19.us.2
                                        # =>This Inner Loop Header: Depth=1
	#DEBUG_VALUE: vertical_half_1chan:srcPtr <- [DW_OP_LLVM_entry_value 1] $rdi
	#DEBUG_VALUE: vertical_half_1chan:xres <- [DW_OP_constu 124, DW_OP_minus] [$rsp+0]
	#DEBUG_VALUE: vertical_half_1chan:srcYres <- [DW_OP_constu 56, DW_OP_minus] [$rsp+0]
	#DEBUG_VALUE: vertical_half_1chan:srcZres <- [DW_OP_LLVM_entry_value 1] $ecx
	#DEBUG_VALUE: vertical_half_1chan:dstPtr <- [DW_OP_LLVM_entry_value 1] $r8
	#DEBUG_VALUE: vertical_half_1chan:dstZres <- [DW_OP_LLVM_entry_value 1] $r9d
	#DEBUG_VALUE: vertical_half_1chan:pixMax <- [DW_OP_plus_uconst 72] [$rsp+0]
	#DEBUG_VALUE: vertical_half_1chan:srcRowCount <- [DW_OP_plus_uconst 8, DW_OP_deref] $rsp
	#DEBUG_VALUE: vertical_half_1chan:y <- 4
	#DEBUG_VALUE: vertical_half_1chan:n1 <- [DW_OP_stack_value] 0
	#DEBUG_VALUE: vertical_half_1chan:n2 <- 2
	#DEBUG_VALUE: vertical_half_1chan:n3 <- 3
	#DEBUG_VALUE: vertical_half_1chan:n4 <- 4
	#DEBUG_VALUE: vertical_half_1chan:dst <- undef
	#DEBUG_VALUE: vertical_half_1chan:src <- undef
	#DEBUG_VALUE: vertical_half_1chan:x <- undef
	.loc	0 0 5                           # ldecod_src/io_tiff.c:0:5
	movq	-88(%rsp), %rsi                 # 8-byte Reload
.Ltmp160:
	.loc	0 928 23 is_stmt 1              # ldecod_src/io_tiff.c:928:23
	movzwl	(%rsi,%r15), %esi
	.loc	0 928 47 is_stmt 0              # ldecod_src/io_tiff.c:928:47
	movzwl	(%r13,%r15), %ebx
	.loc	0 928 45                        # ldecod_src/io_tiff.c:928:45
	addl	%esi, %ebx
	.loc	0 928 20                        # ldecod_src/io_tiff.c:928:20
	imull	$225, %ebx, %esi
	.loc	0 929 15 is_stmt 1              # ldecod_src/io_tiff.c:929:15
	movzwl	(%rcx,%r15), %ebx
	.loc	0 929 39 is_stmt 0              # ldecod_src/io_tiff.c:929:39
	movzwl	(%r9,%r15), %r14d
	.loc	0 929 37                        # ldecod_src/io_tiff.c:929:37
	addl	%ebx, %r14d
	.loc	0 929 12                        # ldecod_src/io_tiff.c:929:12
	imull	$69, %r14d, %ebx
	.loc	0 929 9                         # ldecod_src/io_tiff.c:929:9
	addl	%esi, %ebx
	.loc	0 930 15 is_stmt 1              # ldecod_src/io_tiff.c:930:15
	movzwl	(%r10,%r15), %esi
	.loc	0 930 39 is_stmt 0              # ldecod_src/io_tiff.c:930:39
	movzwl	(%rdx,%r15), %r14d
	.loc	0 930 37                        # ldecod_src/io_tiff.c:930:37
	addl	%esi, %r14d
	.loc	0 930 12                        # ldecod_src/io_tiff.c:930:12
	imull	$-30, %r14d, %esi
	.loc	0 930 9                         # ldecod_src/io_tiff.c:930:9
	addl	%ebx, %esi
	.loc	0 931 15 is_stmt 1              # ldecod_src/io_tiff.c:931:15
	movzwl	(%rax,%r15), %ebx
	movq	-40(%rsp), %r14                 # 8-byte Reload
	.loc	0 931 39 is_stmt 0              # ldecod_src/io_tiff.c:931:39
	movzwl	(%r14,%r15), %r14d
	.loc	0 931 37                        # ldecod_src/io_tiff.c:931:37
	addl	%ebx, %r14d
	.loc	0 931 9                         # ldecod_src/io_tiff.c:931:9
	shll	$4, %r14d
	subl	%r14d, %esi
	movq	-32(%rsp), %rbx                 # 8-byte Reload
	.loc	0 932 15 is_stmt 1              # ldecod_src/io_tiff.c:932:15
	movzwl	(%rbx,%r15), %ebx
	movq	-24(%rsp), %r14                 # 8-byte Reload
	.loc	0 932 39 is_stmt 0              # ldecod_src/io_tiff.c:932:39
	movzwl	(%r14,%r15), %r14d
	.loc	0 932 37                        # ldecod_src/io_tiff.c:932:37
	addl	%ebx, %r14d
	.loc	0 932 12                        # ldecod_src/io_tiff.c:932:12
	leal	(%r14,%r14,2), %r14d
	.loc	0 932 9                         # ldecod_src/io_tiff.c:932:9
	leal	(%rsi,%r14,2), %esi
	movq	-112(%rsp), %r14                # 8-byte Reload
	.loc	0 933 39 is_stmt 1              # ldecod_src/io_tiff.c:933:39
	movzwl	(%r14,%r15), %r14d
	.loc	0 933 37 is_stmt 0              # ldecod_src/io_tiff.c:933:37
	addl	%ebx, %r14d
	.loc	0 933 9                         # ldecod_src/io_tiff.c:933:9
	leal	(%rsi,%r14,2), %ebx
.Ltmp161:
	#DEBUG_VALUE: vertical_half_1chan:result <- [DW_OP_plus_uconst 256, DW_OP_constu 512, DW_OP_div, DW_OP_stack_value] $ebx
	.loc	0 0 9                           # ldecod_src/io_tiff.c:0:9
	xorl	%esi, %esi
.Ltmp162:
	.loc	0 934 18 is_stmt 1              # ldecod_src/io_tiff.c:934:18
	cmpl	$-767, %ebx                     # imm = 0xFD01
.Ltmp163:
	.loc	0 934 11 is_stmt 0              # ldecod_src/io_tiff.c:934:11
	jl	.LBB3_18
.Ltmp164:
# %bb.15:                               # %if.else.us.2
                                        #   in Loop: Header=BB3_14 Depth=1
	#DEBUG_VALUE: vertical_half_1chan:srcPtr <- [DW_OP_LLVM_entry_value 1] $rdi
	#DEBUG_VALUE: vertical_half_1chan:xres <- [DW_OP_constu 124, DW_OP_minus] [$rsp+0]
	#DEBUG_VALUE: vertical_half_1chan:srcYres <- [DW_OP_constu 56, DW_OP_minus] [$rsp+0]
	#DEBUG_VALUE: vertical_half_1chan:srcZres <- [DW_OP_LLVM_entry_value 1] $ecx
	#DEBUG_VALUE: vertical_half_1chan:dstPtr <- [DW_OP_LLVM_entry_value 1] $r8
	#DEBUG_VALUE: vertical_half_1chan:dstZres <- [DW_OP_LLVM_entry_value 1] $r9d
	#DEBUG_VALUE: vertical_half_1chan:pixMax <- [DW_OP_plus_uconst 72] [$rsp+0]
	#DEBUG_VALUE: vertical_half_1chan:srcRowCount <- [DW_OP_plus_uconst 8, DW_OP_deref] $rsp
	#DEBUG_VALUE: vertical_half_1chan:y <- 4
	#DEBUG_VALUE: vertical_half_1chan:n1 <- [DW_OP_stack_value] 0
	#DEBUG_VALUE: vertical_half_1chan:n2 <- 2
	#DEBUG_VALUE: vertical_half_1chan:n3 <- 3
	#DEBUG_VALUE: vertical_half_1chan:n4 <- 4
	#DEBUG_VALUE: vertical_half_1chan:result <- [DW_OP_plus_uconst 256, DW_OP_constu 512, DW_OP_div, DW_OP_stack_value] $ebx
	.loc	0 933 61 is_stmt 1              # ldecod_src/io_tiff.c:933:61
	leal	256(%rbx), %esi
.Ltmp165:
	#DEBUG_VALUE: vertical_half_1chan:result <- [DW_OP_constu 512, DW_OP_div, DW_OP_stack_value] $esi
	.loc	0 933 67 is_stmt 0              # ldecod_src/io_tiff.c:933:67
	addl	$767, %ebx                      # imm = 0x2FF
	testl	%esi, %esi
	cmovnsl	%esi, %ebx
	sarl	$9, %ebx
.Ltmp166:
	#DEBUG_VALUE: vertical_half_1chan:result <- $ebx
	.loc	0 936 16 is_stmt 1              # ldecod_src/io_tiff.c:936:16
	cmpl	72(%rsp), %ebx
	jl	.LBB3_17
.Ltmp167:
# %bb.16:                               # %if.else.us.2
                                        #   in Loop: Header=BB3_14 Depth=1
	#DEBUG_VALUE: vertical_half_1chan:srcPtr <- [DW_OP_LLVM_entry_value 1] $rdi
	#DEBUG_VALUE: vertical_half_1chan:xres <- [DW_OP_constu 124, DW_OP_minus] [$rsp+0]
	#DEBUG_VALUE: vertical_half_1chan:srcYres <- [DW_OP_constu 56, DW_OP_minus] [$rsp+0]
	#DEBUG_VALUE: vertical_half_1chan:srcZres <- [DW_OP_LLVM_entry_value 1] $ecx
	#DEBUG_VALUE: vertical_half_1chan:dstPtr <- [DW_OP_LLVM_entry_value 1] $r8
	#DEBUG_VALUE: vertical_half_1chan:dstZres <- [DW_OP_LLVM_entry_value 1] $r9d
	#DEBUG_VALUE: vertical_half_1chan:pixMax <- [DW_OP_plus_uconst 72] [$rsp+0]
	#DEBUG_VALUE: vertical_half_1chan:srcRowCount <- [DW_OP_plus_uconst 8, DW_OP_deref] $rsp
	#DEBUG_VALUE: vertical_half_1chan:y <- 4
	#DEBUG_VALUE: vertical_half_1chan:n1 <- [DW_OP_stack_value] 0
	#DEBUG_VALUE: vertical_half_1chan:n2 <- 2
	#DEBUG_VALUE: vertical_half_1chan:n3 <- 3
	#DEBUG_VALUE: vertical_half_1chan:n4 <- 4
	#DEBUG_VALUE: vertical_half_1chan:result <- $ebx
	.loc	0 0 16 is_stmt 0                # ldecod_src/io_tiff.c:0:16
	movl	72(%rsp), %esi
	movl	%esi, %ebx
.Ltmp168:
	jmp	.LBB3_17
.Ltmp169:
.LBB3_19:                               # %for.cond17.for.end_crit_edge.us.2
	#DEBUG_VALUE: vertical_half_1chan:srcPtr <- [DW_OP_LLVM_entry_value 1] $rdi
	#DEBUG_VALUE: vertical_half_1chan:xres <- [DW_OP_constu 124, DW_OP_minus] [$rsp+0]
	#DEBUG_VALUE: vertical_half_1chan:srcYres <- [DW_OP_constu 56, DW_OP_minus] [$rsp+0]
	#DEBUG_VALUE: vertical_half_1chan:srcZres <- [DW_OP_LLVM_entry_value 1] $ecx
	#DEBUG_VALUE: vertical_half_1chan:dstPtr <- [DW_OP_LLVM_entry_value 1] $r8
	#DEBUG_VALUE: vertical_half_1chan:dstZres <- [DW_OP_LLVM_entry_value 1] $r9d
	#DEBUG_VALUE: vertical_half_1chan:pixMax <- [DW_OP_plus_uconst 72] [$rsp+0]
	#DEBUG_VALUE: vertical_half_1chan:srcRowCount <- [DW_OP_plus_uconst 8, DW_OP_deref] $rsp
	#DEBUG_VALUE: vertical_half_1chan:y <- 4
	#DEBUG_VALUE: vertical_half_1chan:n1 <- [DW_OP_stack_value] 0
	#DEBUG_VALUE: vertical_half_1chan:n2 <- 2
	#DEBUG_VALUE: vertical_half_1chan:n3 <- 3
	#DEBUG_VALUE: vertical_half_1chan:n4 <- 4
	#DEBUG_VALUE: vertical_half_1chan:result <- $esi
	#DEBUG_VALUE: vertical_half_1chan:src <- undef
	#DEBUG_VALUE: vertical_half_1chan:dst <- undef
	#DEBUG_VALUE: vertical_half_1chan:y <- 6
	.loc	0 945 19 is_stmt 1              # ldecod_src/io_tiff.c:945:19
	addq	%r15, %r13
	movq	-8(%rsp), %r14                  # 8-byte Reload
	movq	-96(%rsp), %r10                 # 8-byte Reload
	movq	-16(%rsp), %r15                 # 8-byte Reload
	movl	-124(%rsp), %esi                # 4-byte Reload
.Ltmp170:
	.loc	0 0 19 is_stmt 0                # ldecod_src/io_tiff.c:0:19
	movq	-56(%rsp), %rdx                 # 8-byte Reload
	jmp	.LBB3_20
.Ltmp171:
.LBB3_43:                               # %for.body.preheader
	#DEBUG_VALUE: vertical_half_1chan:srcPtr <- $rdi
	#DEBUG_VALUE: vertical_half_1chan:xres <- [DW_OP_constu 124, DW_OP_minus] [$rsp+0]
	#DEBUG_VALUE: vertical_half_1chan:srcYres <- [DW_OP_constu 56, DW_OP_minus] [$rsp+0]
	#DEBUG_VALUE: vertical_half_1chan:srcZres <- [DW_OP_LLVM_entry_value 1] $ecx
	#DEBUG_VALUE: vertical_half_1chan:dstPtr <- $r8
	#DEBUG_VALUE: vertical_half_1chan:dstZres <- $r9d
	#DEBUG_VALUE: vertical_half_1chan:pixMax <- [DW_OP_plus_uconst 72] [$rsp+0]
	#DEBUG_VALUE: vertical_half_1chan:srcRowCount <- [DW_OP_plus_uconst 8, DW_OP_deref] $rsp
	#DEBUG_VALUE: vertical_half_1chan:y <- 0
	.loc	0 919 3 is_stmt 1               # ldecod_src/io_tiff.c:919:3
	leaq	(%r10,%r10,2), %rax
.Ltmp172:
	#DEBUG_VALUE: vertical_half_1chan:dst <- undef
	#DEBUG_VALUE: vertical_half_1chan:src <- undef
	#DEBUG_VALUE: vertical_half_1chan:y <- undef
	#DEBUG_VALUE: vertical_half_1chan:n1 <- undef
	#DEBUG_VALUE: vertical_half_1chan:n2 <- undef
	#DEBUG_VALUE: vertical_half_1chan:n3 <- undef
	#DEBUG_VALUE: vertical_half_1chan:n4 <- undef
	#DEBUG_VALUE: vertical_half_1chan:x <- 0
	leaq	(%rdi,%rax,2), %r13
.Ltmp173:
.LBB3_20:                               # %for.end96
	#DEBUG_VALUE: vertical_half_1chan:srcPtr <- [DW_OP_LLVM_entry_value 1] $rdi
	#DEBUG_VALUE: vertical_half_1chan:xres <- [DW_OP_constu 124, DW_OP_minus] [$rsp+0]
	#DEBUG_VALUE: vertical_half_1chan:srcYres <- [DW_OP_constu 56, DW_OP_minus] [$rsp+0]
	#DEBUG_VALUE: vertical_half_1chan:srcZres <- [DW_OP_LLVM_entry_value 1] $ecx
	#DEBUG_VALUE: vertical_half_1chan:dstPtr <- [DW_OP_LLVM_entry_value 1] $r8
	#DEBUG_VALUE: vertical_half_1chan:dstZres <- [DW_OP_LLVM_entry_value 1] $r9d
	#DEBUG_VALUE: vertical_half_1chan:pixMax <- [DW_OP_plus_uconst 72] [$rsp+0]
	#DEBUG_VALUE: vertical_half_1chan:srcRowCount <- [DW_OP_plus_uconst 8, DW_OP_deref] $rsp
	.loc	0 945 19                        # ldecod_src/io_tiff.c:945:19
	leal	-6(%rdx), %eax
.Ltmp174:
	#DEBUG_VALUE: vertical_half_1chan:limit <- $eax
	.loc	0 0 19 is_stmt 0                # ldecod_src/io_tiff.c:0:19
	movl	%eax, -80(%rsp)                 # 4-byte Spill
.Ltmp175:
	#DEBUG_VALUE: vertical_half_1chan:limit <- [DW_OP_constu 80, DW_OP_minus, DW_OP_deref] $rsp
	movl	$6, %r9d
.Ltmp176:
	#DEBUG_VALUE: vertical_half_1chan:y <- 6
	#DEBUG_VALUE: vertical_half_1chan:dst <- $r8
	#DEBUG_VALUE: vertical_half_1chan:src <- $r13
	.loc	0 946 15 is_stmt 1              # ldecod_src/io_tiff.c:946:15
	cmpl	$13, %edx
	movq	%r11, -64(%rsp)                 # 8-byte Spill
	movq	%rbp, -48(%rsp)                 # 8-byte Spill
.Ltmp177:
	.loc	0 946 3 is_stmt 0               # ldecod_src/io_tiff.c:946:3
	jl	.LBB3_21
.Ltmp178:
# %bb.22:                               # %for.cond102.preheader.lr.ph
	#DEBUG_VALUE: vertical_half_1chan:srcPtr <- [DW_OP_LLVM_entry_value 1] $rdi
	#DEBUG_VALUE: vertical_half_1chan:xres <- [DW_OP_constu 124, DW_OP_minus] [$rsp+0]
	#DEBUG_VALUE: vertical_half_1chan:srcYres <- [DW_OP_constu 56, DW_OP_minus] [$rsp+0]
	#DEBUG_VALUE: vertical_half_1chan:srcZres <- [DW_OP_LLVM_entry_value 1] $ecx
	#DEBUG_VALUE: vertical_half_1chan:dstPtr <- [DW_OP_LLVM_entry_value 1] $r8
	#DEBUG_VALUE: vertical_half_1chan:dstZres <- [DW_OP_LLVM_entry_value 1] $r9d
	#DEBUG_VALUE: vertical_half_1chan:pixMax <- [DW_OP_plus_uconst 72] [$rsp+0]
	#DEBUG_VALUE: vertical_half_1chan:srcRowCount <- [DW_OP_plus_uconst 8, DW_OP_deref] $rsp
	#DEBUG_VALUE: vertical_half_1chan:src <- $r13
	#DEBUG_VALUE: vertical_half_1chan:dst <- $r8
	#DEBUG_VALUE: vertical_half_1chan:y <- 6
	#DEBUG_VALUE: vertical_half_1chan:limit <- [DW_OP_constu 80, DW_OP_minus, DW_OP_deref] $rsp
	leal	-13(%rdx), %r9d
	andl	$-2, %r9d
	testl	%esi, %esi
	jle	.LBB3_44
.Ltmp179:
# %bb.23:                               # %for.cond102.preheader.us.preheader
	#DEBUG_VALUE: vertical_half_1chan:srcPtr <- [DW_OP_LLVM_entry_value 1] $rdi
	#DEBUG_VALUE: vertical_half_1chan:xres <- [DW_OP_constu 124, DW_OP_minus] [$rsp+0]
	#DEBUG_VALUE: vertical_half_1chan:srcYres <- [DW_OP_constu 56, DW_OP_minus] [$rsp+0]
	#DEBUG_VALUE: vertical_half_1chan:srcZres <- [DW_OP_LLVM_entry_value 1] $ecx
	#DEBUG_VALUE: vertical_half_1chan:dstPtr <- [DW_OP_LLVM_entry_value 1] $r8
	#DEBUG_VALUE: vertical_half_1chan:dstZres <- [DW_OP_LLVM_entry_value 1] $r9d
	#DEBUG_VALUE: vertical_half_1chan:pixMax <- [DW_OP_plus_uconst 72] [$rsp+0]
	#DEBUG_VALUE: vertical_half_1chan:srcRowCount <- [DW_OP_plus_uconst 8, DW_OP_deref] $rsp
	#DEBUG_VALUE: vertical_half_1chan:src <- $r13
	#DEBUG_VALUE: vertical_half_1chan:dst <- $r8
	#DEBUG_VALUE: vertical_half_1chan:y <- 6
	#DEBUG_VALUE: vertical_half_1chan:limit <- [DW_OP_constu 80, DW_OP_minus, DW_OP_deref] $rsp
	.loc	0 0 3                           # ldecod_src/io_tiff.c:0:3
	movl	%r9d, -120(%rsp)                # 4-byte Spill
	.loc	0 946 3                         # ldecod_src/io_tiff.c:946:3
	leaq	(%r15,%r15), %rcx
	leaq	(%r14,%r14), %rdx
	leaq	(%r10,%r10), %r9
	addq	%rbp, %rbp
	negq	%rbp
	movq	-64(%rsp), %rax                 # 8-byte Reload
	addq	%rax, %rax
	negq	%rax
	leaq	(%r12,%r12), %r11
	negq	%r11
	movq	-104(%rsp), %rsi                # 8-byte Reload
	leaq	(%rsi,%rsi), %r10
	negq	%r10
	movq	%r9, %rsi
	negq	%rsi
	movl	$6, %ebx
	jmp	.LBB3_24
.Ltmp180:
	.p2align	4, 0x90
.LBB3_30:                               # %for.cond102.for.end189_crit_edge.us
                                        #   in Loop: Header=BB3_24 Depth=1
	#DEBUG_VALUE: vertical_half_1chan:srcPtr <- [DW_OP_LLVM_entry_value 1] $rdi
	#DEBUG_VALUE: vertical_half_1chan:xres <- [DW_OP_constu 124, DW_OP_minus] [$rsp+0]
	#DEBUG_VALUE: vertical_half_1chan:srcYres <- [DW_OP_constu 56, DW_OP_minus] [$rsp+0]
	#DEBUG_VALUE: vertical_half_1chan:srcZres <- [DW_OP_LLVM_entry_value 1] $ecx
	#DEBUG_VALUE: vertical_half_1chan:dstPtr <- [DW_OP_LLVM_entry_value 1] $r8
	#DEBUG_VALUE: vertical_half_1chan:dstZres <- [DW_OP_LLVM_entry_value 1] $r9d
	#DEBUG_VALUE: vertical_half_1chan:pixMax <- [DW_OP_plus_uconst 72] [$rsp+0]
	#DEBUG_VALUE: vertical_half_1chan:srcRowCount <- [DW_OP_plus_uconst 8, DW_OP_deref] $rsp
	#DEBUG_VALUE: vertical_half_1chan:y <- [DW_OP_constu 112, DW_OP_minus, DW_OP_deref] $rsp
	#DEBUG_VALUE: vertical_half_1chan:result <- $r14d
	#DEBUG_VALUE: vertical_half_1chan:limit <- [DW_OP_constu 80, DW_OP_minus, DW_OP_deref] $rsp
	#DEBUG_VALUE: vertical_half_1chan:src <- undef
	.loc	0 946 25                        # ldecod_src/io_tiff.c:946:25
	leaq	(%rdi,%r9), %r13
	movl	-112(%rsp), %ebx                # 4-byte Reload
	addl	$2, %ebx
.Ltmp181:
	#DEBUG_VALUE: vertical_half_1chan:y <- $ebx
	#DEBUG_VALUE: vertical_half_1chan:dst <- undef
	.loc	0 946 15                        # ldecod_src/io_tiff.c:946:15
	cmpl	-80(%rsp), %ebx                 # 4-byte Folded Reload
.Ltmp182:
	.loc	0 946 3                         # ldecod_src/io_tiff.c:946:3
	jge	.LBB3_31
.Ltmp183:
.LBB3_24:                               # %for.cond102.preheader.us
                                        # =>This Loop Header: Depth=1
                                        #     Child Loop BB3_25 Depth 2
	#DEBUG_VALUE: vertical_half_1chan:srcPtr <- [DW_OP_LLVM_entry_value 1] $rdi
	#DEBUG_VALUE: vertical_half_1chan:xres <- [DW_OP_constu 124, DW_OP_minus] [$rsp+0]
	#DEBUG_VALUE: vertical_half_1chan:srcYres <- [DW_OP_constu 56, DW_OP_minus] [$rsp+0]
	#DEBUG_VALUE: vertical_half_1chan:srcZres <- [DW_OP_LLVM_entry_value 1] $ecx
	#DEBUG_VALUE: vertical_half_1chan:dstPtr <- [DW_OP_LLVM_entry_value 1] $r8
	#DEBUG_VALUE: vertical_half_1chan:dstZres <- [DW_OP_LLVM_entry_value 1] $r9d
	#DEBUG_VALUE: vertical_half_1chan:pixMax <- [DW_OP_plus_uconst 72] [$rsp+0]
	#DEBUG_VALUE: vertical_half_1chan:srcRowCount <- [DW_OP_plus_uconst 8, DW_OP_deref] $rsp
	#DEBUG_VALUE: vertical_half_1chan:limit <- [DW_OP_constu 80, DW_OP_minus, DW_OP_deref] $rsp
	#DEBUG_VALUE: vertical_half_1chan:y <- $ebx
	#DEBUG_VALUE: vertical_half_1chan:dst <- $r8
	#DEBUG_VALUE: vertical_half_1chan:src <- $r13
	#DEBUG_VALUE: vertical_half_1chan:x <- 0
	.loc	0 0 3                           # ldecod_src/io_tiff.c:0:3
	movl	%ebx, -112(%rsp)                # 4-byte Spill
.Ltmp184:
	#DEBUG_VALUE: vertical_half_1chan:y <- [DW_OP_constu 112, DW_OP_minus, DW_OP_deref] $rsp
	movl	-124(%rsp), %ebx                # 4-byte Reload
	movq	%r13, %rdi
	jmp	.LBB3_25
.Ltmp185:
	.p2align	4, 0x90
.LBB3_28:                               # %if.else176.us
                                        #   in Loop: Header=BB3_25 Depth=2
	#DEBUG_VALUE: vertical_half_1chan:srcPtr <- [DW_OP_LLVM_entry_value 1] $rdi
	#DEBUG_VALUE: vertical_half_1chan:xres <- [DW_OP_constu 124, DW_OP_minus] [$rsp+0]
	#DEBUG_VALUE: vertical_half_1chan:srcYres <- [DW_OP_constu 56, DW_OP_minus] [$rsp+0]
	#DEBUG_VALUE: vertical_half_1chan:srcZres <- [DW_OP_LLVM_entry_value 1] $ecx
	#DEBUG_VALUE: vertical_half_1chan:dstPtr <- [DW_OP_LLVM_entry_value 1] $r8
	#DEBUG_VALUE: vertical_half_1chan:dstZres <- [DW_OP_LLVM_entry_value 1] $r9d
	#DEBUG_VALUE: vertical_half_1chan:pixMax <- [DW_OP_plus_uconst 72] [$rsp+0]
	#DEBUG_VALUE: vertical_half_1chan:srcRowCount <- [DW_OP_plus_uconst 8, DW_OP_deref] $rsp
	#DEBUG_VALUE: vertical_half_1chan:dst <- $r8
	#DEBUG_VALUE: vertical_half_1chan:y <- [DW_OP_constu 112, DW_OP_minus, DW_OP_deref] $rsp
	#DEBUG_VALUE: vertical_half_1chan:limit <- [DW_OP_constu 80, DW_OP_minus, DW_OP_deref] $rsp
	movl	%r13d, %r14d
.Ltmp186:
.LBB3_29:                               # %if.end181.us
                                        #   in Loop: Header=BB3_25 Depth=2
	#DEBUG_VALUE: vertical_half_1chan:srcPtr <- [DW_OP_LLVM_entry_value 1] $rdi
	#DEBUG_VALUE: vertical_half_1chan:xres <- [DW_OP_constu 124, DW_OP_minus] [$rsp+0]
	#DEBUG_VALUE: vertical_half_1chan:srcYres <- [DW_OP_constu 56, DW_OP_minus] [$rsp+0]
	#DEBUG_VALUE: vertical_half_1chan:srcZres <- [DW_OP_LLVM_entry_value 1] $ecx
	#DEBUG_VALUE: vertical_half_1chan:dstPtr <- [DW_OP_LLVM_entry_value 1] $r8
	#DEBUG_VALUE: vertical_half_1chan:dstZres <- [DW_OP_LLVM_entry_value 1] $r9d
	#DEBUG_VALUE: vertical_half_1chan:pixMax <- [DW_OP_plus_uconst 72] [$rsp+0]
	#DEBUG_VALUE: vertical_half_1chan:srcRowCount <- [DW_OP_plus_uconst 8, DW_OP_deref] $rsp
	#DEBUG_VALUE: vertical_half_1chan:dst <- $r8
	#DEBUG_VALUE: vertical_half_1chan:y <- [DW_OP_constu 112, DW_OP_minus, DW_OP_deref] $rsp
	#DEBUG_VALUE: vertical_half_1chan:limit <- [DW_OP_constu 80, DW_OP_minus, DW_OP_deref] $rsp
	#DEBUG_VALUE: vertical_half_1chan:result <- $r14d
	.loc	0 960 12 is_stmt 1              # ldecod_src/io_tiff.c:960:12
	movw	%r14w, (%r8)
.Ltmp187:
	#DEBUG_VALUE: vertical_half_1chan:dst <- [DW_OP_LLVM_arg 0, DW_OP_LLVM_arg 1, DW_OP_minus, DW_OP_consts 2, DW_OP_LLVM_arg 2, DW_OP_LLVM_convert 64 5, DW_OP_mul, DW_OP_div, DW_OP_consts 2, DW_OP_LLVM_arg 2, DW_OP_LLVM_convert 64 5, DW_OP_mul, DW_OP_mul, DW_OP_consts 2, DW_OP_LLVM_arg 2, DW_OP_LLVM_convert 64 5, DW_OP_mul, DW_OP_LLVM_arg 1, DW_OP_plus, DW_OP_plus, DW_OP_stack_value] undef, undef, undef
	#DEBUG_VALUE: vertical_half_1chan:src <- [DW_OP_LLVM_arg 0, DW_OP_LLVM_arg 1, DW_OP_minus, DW_OP_consts 2, DW_OP_LLVM_arg 2, DW_OP_LLVM_convert 64 5, DW_OP_mul, DW_OP_div, DW_OP_consts 2, DW_OP_LLVM_arg 3, DW_OP_LLVM_convert 64 5, DW_OP_mul, DW_OP_mul, DW_OP_consts 2, DW_OP_LLVM_arg 3, DW_OP_LLVM_convert 64 5, DW_OP_mul, DW_OP_LLVM_arg 4, DW_OP_plus, DW_OP_plus, DW_OP_stack_value] undef, undef, undef, undef, undef
	#DEBUG_VALUE: vertical_half_1chan:x <- [DW_OP_LLVM_arg 0, DW_OP_LLVM_arg 1, DW_OP_minus, DW_OP_consts 2, DW_OP_LLVM_arg 2, DW_OP_LLVM_convert 64 5, DW_OP_mul, DW_OP_div, DW_OP_consts 1, DW_OP_plus, DW_OP_stack_value] undef, undef, undef
	.loc	0 948 17                        # ldecod_src/io_tiff.c:948:17
	addq	%rcx, %r8
	addq	%rdx, %rdi
	decl	%ebx
.Ltmp188:
	.loc	0 948 5 is_stmt 0               # ldecod_src/io_tiff.c:948:5
	je	.LBB3_30
.Ltmp189:
.LBB3_25:                               # %for.body105.us
                                        #   Parent Loop BB3_24 Depth=1
                                        # =>  This Inner Loop Header: Depth=2
	#DEBUG_VALUE: vertical_half_1chan:srcPtr <- [DW_OP_LLVM_entry_value 1] $rdi
	#DEBUG_VALUE: vertical_half_1chan:xres <- [DW_OP_constu 124, DW_OP_minus] [$rsp+0]
	#DEBUG_VALUE: vertical_half_1chan:srcYres <- [DW_OP_constu 56, DW_OP_minus] [$rsp+0]
	#DEBUG_VALUE: vertical_half_1chan:srcZres <- [DW_OP_LLVM_entry_value 1] $ecx
	#DEBUG_VALUE: vertical_half_1chan:dstPtr <- [DW_OP_LLVM_entry_value 1] $r8
	#DEBUG_VALUE: vertical_half_1chan:dstZres <- [DW_OP_LLVM_entry_value 1] $r9d
	#DEBUG_VALUE: vertical_half_1chan:pixMax <- [DW_OP_plus_uconst 72] [$rsp+0]
	#DEBUG_VALUE: vertical_half_1chan:srcRowCount <- [DW_OP_plus_uconst 8, DW_OP_deref] $rsp
	#DEBUG_VALUE: vertical_half_1chan:y <- [DW_OP_constu 112, DW_OP_minus, DW_OP_deref] $rsp
	#DEBUG_VALUE: vertical_half_1chan:limit <- [DW_OP_constu 80, DW_OP_minus, DW_OP_deref] $rsp
	#DEBUG_VALUE: vertical_half_1chan:dst <- $r8
	#DEBUG_VALUE: vertical_half_1chan:src <- [DW_OP_LLVM_arg 0, DW_OP_LLVM_arg 1, DW_OP_minus, DW_OP_consts 2, DW_OP_LLVM_arg 2, DW_OP_LLVM_convert 64 5, DW_OP_mul, DW_OP_div, DW_OP_consts 2, DW_OP_LLVM_arg 3, DW_OP_LLVM_convert 64 5, DW_OP_mul, DW_OP_mul, DW_OP_LLVM_arg 4, DW_OP_plus, DW_OP_stack_value] undef, undef, undef, undef, undef
	#DEBUG_VALUE: vertical_half_1chan:x <- [DW_OP_LLVM_arg 0, DW_OP_LLVM_arg 1, DW_OP_minus, DW_OP_consts 2, DW_OP_LLVM_arg 2, DW_OP_LLVM_convert 64 5, DW_OP_mul, DW_OP_div, DW_OP_stack_value] undef, undef, undef
	.loc	0 950 23 is_stmt 1              # ldecod_src/io_tiff.c:950:23
	movzwl	(%rdi), %r14d
	.loc	0 950 46 is_stmt 0              # ldecod_src/io_tiff.c:950:46
	movzwl	(%rdi,%r9), %r13d
	.loc	0 950 44                        # ldecod_src/io_tiff.c:950:44
	addl	%r14d, %r13d
	.loc	0 950 20                        # ldecod_src/io_tiff.c:950:20
	imull	$225, %r13d, %r14d
	.loc	0 951 15 is_stmt 1              # ldecod_src/io_tiff.c:951:15
	movzwl	(%rdi,%rsi), %r13d
	movq	-104(%rsp), %r15                # 8-byte Reload
	.loc	0 951 38 is_stmt 0              # ldecod_src/io_tiff.c:951:38
	movzwl	(%rdi,%r15,2), %r15d
	.loc	0 951 36                        # ldecod_src/io_tiff.c:951:36
	addl	%r13d, %r15d
	.loc	0 951 12                        # ldecod_src/io_tiff.c:951:12
	imull	$69, %r15d, %r15d
	.loc	0 951 9                         # ldecod_src/io_tiff.c:951:9
	addl	%r14d, %r15d
	.loc	0 952 15 is_stmt 1              # ldecod_src/io_tiff.c:952:15
	movzwl	(%rdi,%r10), %r14d
	.loc	0 952 38 is_stmt 0              # ldecod_src/io_tiff.c:952:38
	movzwl	(%rdi,%r12,2), %r13d
	.loc	0 952 36                        # ldecod_src/io_tiff.c:952:36
	addl	%r14d, %r13d
	.loc	0 952 12                        # ldecod_src/io_tiff.c:952:12
	imull	$-30, %r13d, %r14d
	.loc	0 952 9                         # ldecod_src/io_tiff.c:952:9
	addl	%r15d, %r14d
	.loc	0 953 15 is_stmt 1              # ldecod_src/io_tiff.c:953:15
	movzwl	(%rdi,%r11), %r15d
	movq	-64(%rsp), %r13                 # 8-byte Reload
	.loc	0 953 38 is_stmt 0              # ldecod_src/io_tiff.c:953:38
	movzwl	(%rdi,%r13,2), %r13d
	.loc	0 953 36                        # ldecod_src/io_tiff.c:953:36
	addl	%r15d, %r13d
	.loc	0 953 9                         # ldecod_src/io_tiff.c:953:9
	shll	$4, %r13d
	subl	%r13d, %r14d
	.loc	0 954 15 is_stmt 1              # ldecod_src/io_tiff.c:954:15
	movzwl	(%rdi,%rax), %r15d
	movq	-48(%rsp), %r13                 # 8-byte Reload
	.loc	0 954 38 is_stmt 0              # ldecod_src/io_tiff.c:954:38
	movzwl	(%rdi,%r13,2), %r13d
	.loc	0 954 36                        # ldecod_src/io_tiff.c:954:36
	addl	%r15d, %r13d
	.loc	0 954 12                        # ldecod_src/io_tiff.c:954:12
	leal	(%r13,%r13,2), %r15d
	.loc	0 954 9                         # ldecod_src/io_tiff.c:954:9
	leal	(%r14,%r15,2), %r14d
	.loc	0 955 15 is_stmt 1              # ldecod_src/io_tiff.c:955:15
	movzwl	(%rdi,%rbp), %r15d
	movq	-72(%rsp), %r13                 # 8-byte Reload
	.loc	0 955 38 is_stmt 0              # ldecod_src/io_tiff.c:955:38
	movzwl	(%rdi,%r13,2), %r13d
	.loc	0 955 36                        # ldecod_src/io_tiff.c:955:36
	addl	%r15d, %r13d
	.loc	0 955 9                         # ldecod_src/io_tiff.c:955:9
	leal	(%r14,%r13,2), %r13d
.Ltmp190:
	#DEBUG_VALUE: vertical_half_1chan:result <- [DW_OP_plus_uconst 256, DW_OP_constu 512, DW_OP_div, DW_OP_stack_value] $r13d
	.loc	0 0 9                           # ldecod_src/io_tiff.c:0:9
	xorl	%r14d, %r14d
.Ltmp191:
	.loc	0 956 18 is_stmt 1              # ldecod_src/io_tiff.c:956:18
	cmpl	$-767, %r13d                    # imm = 0xFD01
.Ltmp192:
	.loc	0 956 11 is_stmt 0              # ldecod_src/io_tiff.c:956:11
	jl	.LBB3_29
.Ltmp193:
# %bb.26:                               # %if.else176.us
                                        #   in Loop: Header=BB3_25 Depth=2
	#DEBUG_VALUE: vertical_half_1chan:srcPtr <- [DW_OP_LLVM_entry_value 1] $rdi
	#DEBUG_VALUE: vertical_half_1chan:xres <- [DW_OP_constu 124, DW_OP_minus] [$rsp+0]
	#DEBUG_VALUE: vertical_half_1chan:srcYres <- [DW_OP_constu 56, DW_OP_minus] [$rsp+0]
	#DEBUG_VALUE: vertical_half_1chan:srcZres <- [DW_OP_LLVM_entry_value 1] $ecx
	#DEBUG_VALUE: vertical_half_1chan:dstPtr <- [DW_OP_LLVM_entry_value 1] $r8
	#DEBUG_VALUE: vertical_half_1chan:dstZres <- [DW_OP_LLVM_entry_value 1] $r9d
	#DEBUG_VALUE: vertical_half_1chan:pixMax <- [DW_OP_plus_uconst 72] [$rsp+0]
	#DEBUG_VALUE: vertical_half_1chan:srcRowCount <- [DW_OP_plus_uconst 8, DW_OP_deref] $rsp
	#DEBUG_VALUE: vertical_half_1chan:dst <- $r8
	#DEBUG_VALUE: vertical_half_1chan:y <- [DW_OP_constu 112, DW_OP_minus, DW_OP_deref] $rsp
	#DEBUG_VALUE: vertical_half_1chan:result <- [DW_OP_plus_uconst 256, DW_OP_constu 512, DW_OP_div, DW_OP_stack_value] $r13d
	#DEBUG_VALUE: vertical_half_1chan:limit <- [DW_OP_constu 80, DW_OP_minus, DW_OP_deref] $rsp
	.loc	0 955 60 is_stmt 1              # ldecod_src/io_tiff.c:955:60
	leal	256(%r13), %r14d
.Ltmp194:
	#DEBUG_VALUE: vertical_half_1chan:result <- [DW_OP_constu 512, DW_OP_div, DW_OP_stack_value] $r14d
	.loc	0 955 66 is_stmt 0              # ldecod_src/io_tiff.c:955:66
	addl	$767, %r13d                     # imm = 0x2FF
	testl	%r14d, %r14d
	cmovnsl	%r14d, %r13d
	sarl	$9, %r13d
.Ltmp195:
	#DEBUG_VALUE: vertical_half_1chan:result <- $r13d
	.loc	0 958 16 is_stmt 1              # ldecod_src/io_tiff.c:958:16
	cmpl	72(%rsp), %r13d
	jl	.LBB3_28
.Ltmp196:
# %bb.27:                               # %if.else176.us
                                        #   in Loop: Header=BB3_25 Depth=2
	#DEBUG_VALUE: vertical_half_1chan:srcPtr <- [DW_OP_LLVM_entry_value 1] $rdi
	#DEBUG_VALUE: vertical_half_1chan:xres <- [DW_OP_constu 124, DW_OP_minus] [$rsp+0]
	#DEBUG_VALUE: vertical_half_1chan:srcYres <- [DW_OP_constu 56, DW_OP_minus] [$rsp+0]
	#DEBUG_VALUE: vertical_half_1chan:srcZres <- [DW_OP_LLVM_entry_value 1] $ecx
	#DEBUG_VALUE: vertical_half_1chan:dstPtr <- [DW_OP_LLVM_entry_value 1] $r8
	#DEBUG_VALUE: vertical_half_1chan:dstZres <- [DW_OP_LLVM_entry_value 1] $r9d
	#DEBUG_VALUE: vertical_half_1chan:pixMax <- [DW_OP_plus_uconst 72] [$rsp+0]
	#DEBUG_VALUE: vertical_half_1chan:srcRowCount <- [DW_OP_plus_uconst 8, DW_OP_deref] $rsp
	#DEBUG_VALUE: vertical_half_1chan:dst <- $r8
	#DEBUG_VALUE: vertical_half_1chan:y <- [DW_OP_constu 112, DW_OP_minus, DW_OP_deref] $rsp
	#DEBUG_VALUE: vertical_half_1chan:result <- $r13d
	#DEBUG_VALUE: vertical_half_1chan:limit <- [DW_OP_constu 80, DW_OP_minus, DW_OP_deref] $rsp
	.loc	0 0 16 is_stmt 0                # ldecod_src/io_tiff.c:0:16
	movl	72(%rsp), %r14d
	movl	%r14d, %r13d
.Ltmp197:
	jmp	.LBB3_28
.Ltmp198:
.LBB3_21:
	#DEBUG_VALUE: vertical_half_1chan:srcPtr <- [DW_OP_LLVM_entry_value 1] $rdi
	#DEBUG_VALUE: vertical_half_1chan:xres <- [DW_OP_constu 124, DW_OP_minus] [$rsp+0]
	#DEBUG_VALUE: vertical_half_1chan:srcYres <- [DW_OP_constu 56, DW_OP_minus] [$rsp+0]
	#DEBUG_VALUE: vertical_half_1chan:srcZres <- [DW_OP_LLVM_entry_value 1] $ecx
	#DEBUG_VALUE: vertical_half_1chan:dstPtr <- [DW_OP_LLVM_entry_value 1] $r8
	#DEBUG_VALUE: vertical_half_1chan:dstZres <- [DW_OP_LLVM_entry_value 1] $r9d
	#DEBUG_VALUE: vertical_half_1chan:pixMax <- [DW_OP_plus_uconst 72] [$rsp+0]
	#DEBUG_VALUE: vertical_half_1chan:srcRowCount <- [DW_OP_plus_uconst 8, DW_OP_deref] $rsp
	#DEBUG_VALUE: vertical_half_1chan:src <- $r13
	#DEBUG_VALUE: vertical_half_1chan:dst <- $r8
	#DEBUG_VALUE: vertical_half_1chan:y <- 6
	#DEBUG_VALUE: vertical_half_1chan:limit <- [DW_OP_constu 80, DW_OP_minus, DW_OP_deref] $rsp
	movq	%r12, %rcx
	.loc	0 946 3 is_stmt 1               # ldecod_src/io_tiff.c:946:3
	jmp	.LBB3_32
.Ltmp199:
.LBB3_31:                               # %for.end194.loopexit
	#DEBUG_VALUE: vertical_half_1chan:srcPtr <- [DW_OP_LLVM_entry_value 1] $rdi
	#DEBUG_VALUE: vertical_half_1chan:xres <- [DW_OP_constu 124, DW_OP_minus] [$rsp+0]
	#DEBUG_VALUE: vertical_half_1chan:srcYres <- [DW_OP_constu 56, DW_OP_minus] [$rsp+0]
	#DEBUG_VALUE: vertical_half_1chan:srcZres <- [DW_OP_LLVM_entry_value 1] $ecx
	#DEBUG_VALUE: vertical_half_1chan:dstPtr <- [DW_OP_LLVM_entry_value 1] $r8
	#DEBUG_VALUE: vertical_half_1chan:dstZres <- [DW_OP_LLVM_entry_value 1] $r9d
	#DEBUG_VALUE: vertical_half_1chan:pixMax <- [DW_OP_plus_uconst 72] [$rsp+0]
	#DEBUG_VALUE: vertical_half_1chan:srcRowCount <- [DW_OP_plus_uconst 8, DW_OP_deref] $rsp
	#DEBUG_VALUE: vertical_half_1chan:y <- $ebx
	#DEBUG_VALUE: vertical_half_1chan:result <- $r14d
	#DEBUG_VALUE: vertical_half_1chan:limit <- [DW_OP_constu 80, DW_OP_minus, DW_OP_deref] $rsp
	.loc	0 0 3 is_stmt 0                 # ldecod_src/io_tiff.c:0:3
	movq	%r12, %rcx
	movl	-120(%rsp), %r9d                # 4-byte Reload
	.loc	0 946 3                         # ldecod_src/io_tiff.c:946:3
	addl	$8, %r9d
	movq	-96(%rsp), %r10                 # 8-byte Reload
.Ltmp200:
	.loc	0 967 19 is_stmt 1              # ldecod_src/io_tiff.c:967:19
	leaq	(%rdi,%r10,2), %r13
	movq	-56(%rsp), %rdx                 # 8-byte Reload
	movq	-8(%rsp), %r14                  # 8-byte Reload
.Ltmp201:
	.loc	0 0 19 is_stmt 0                # ldecod_src/io_tiff.c:0:19
	movq	-16(%rsp), %r15                 # 8-byte Reload
	jmp	.LBB3_32
.Ltmp202:
.LBB3_44:                               # %for.cond102.preheader.preheader
	#DEBUG_VALUE: vertical_half_1chan:srcPtr <- [DW_OP_LLVM_entry_value 1] $rdi
	#DEBUG_VALUE: vertical_half_1chan:xres <- [DW_OP_constu 124, DW_OP_minus] [$rsp+0]
	#DEBUG_VALUE: vertical_half_1chan:srcYres <- [DW_OP_constu 56, DW_OP_minus] [$rsp+0]
	#DEBUG_VALUE: vertical_half_1chan:srcZres <- [DW_OP_LLVM_entry_value 1] $ecx
	#DEBUG_VALUE: vertical_half_1chan:dstPtr <- [DW_OP_LLVM_entry_value 1] $r8
	#DEBUG_VALUE: vertical_half_1chan:dstZres <- [DW_OP_LLVM_entry_value 1] $r9d
	#DEBUG_VALUE: vertical_half_1chan:pixMax <- [DW_OP_plus_uconst 72] [$rsp+0]
	#DEBUG_VALUE: vertical_half_1chan:srcRowCount <- [DW_OP_plus_uconst 8, DW_OP_deref] $rsp
	#DEBUG_VALUE: vertical_half_1chan:src <- $r13
	#DEBUG_VALUE: vertical_half_1chan:dst <- $r8
	#DEBUG_VALUE: vertical_half_1chan:y <- 6
	#DEBUG_VALUE: vertical_half_1chan:limit <- [DW_OP_constu 80, DW_OP_minus, DW_OP_deref] $rsp
	movq	%r12, %rcx
.Ltmp203:
	.loc	0 946 3 is_stmt 1               # ldecod_src/io_tiff.c:946:3
	movl	%r9d, %eax
	addq	$2, %rax
	imulq	%r10, %rax
.Ltmp204:
	#DEBUG_VALUE: vertical_half_1chan:dst <- undef
	#DEBUG_VALUE: vertical_half_1chan:src <- undef
	#DEBUG_VALUE: vertical_half_1chan:y <- undef
	#DEBUG_VALUE: vertical_half_1chan:x <- 0
	addq	%rax, %r13
	addl	$8, %r9d
.Ltmp205:
.LBB3_32:                               # %for.end194
	#DEBUG_VALUE: vertical_half_1chan:srcPtr <- [DW_OP_LLVM_entry_value 1] $rdi
	#DEBUG_VALUE: vertical_half_1chan:xres <- [DW_OP_constu 124, DW_OP_minus] [$rsp+0]
	#DEBUG_VALUE: vertical_half_1chan:srcYres <- [DW_OP_constu 56, DW_OP_minus] [$rsp+0]
	#DEBUG_VALUE: vertical_half_1chan:srcZres <- [DW_OP_LLVM_entry_value 1] $ecx
	#DEBUG_VALUE: vertical_half_1chan:dstPtr <- [DW_OP_LLVM_entry_value 1] $r8
	#DEBUG_VALUE: vertical_half_1chan:dstZres <- [DW_OP_LLVM_entry_value 1] $r9d
	#DEBUG_VALUE: vertical_half_1chan:pixMax <- [DW_OP_plus_uconst 72] [$rsp+0]
	#DEBUG_VALUE: vertical_half_1chan:srcRowCount <- [DW_OP_plus_uconst 8, DW_OP_deref] $rsp
	#DEBUG_VALUE: vertical_half_1chan:limit <- [DW_OP_constu 80, DW_OP_minus, DW_OP_deref] $rsp
	.loc	0 967 19                        # ldecod_src/io_tiff.c:967:19
	movl	%edx, %eax
	andl	$-2, %eax
.Ltmp206:
	#DEBUG_VALUE: vertical_half_1chan:limit <- $eax
	#DEBUG_VALUE: vertical_half_1chan:y <- $r9d
	#DEBUG_VALUE: vertical_half_1chan:dst <- $r8
	#DEBUG_VALUE: vertical_half_1chan:src <- $r13
	.loc	0 0 19 is_stmt 0                # ldecod_src/io_tiff.c:0:19
	movl	%eax, -72(%rsp)                 # 4-byte Spill
.Ltmp207:
	#DEBUG_VALUE: vertical_half_1chan:limit <- [DW_OP_constu 72, DW_OP_minus, DW_OP_deref] $rsp
	.loc	0 968 15 is_stmt 1              # ldecod_src/io_tiff.c:968:15
	cmpl	%eax, %r9d
.Ltmp208:
	.loc	0 968 3 is_stmt 0               # ldecod_src/io_tiff.c:968:3
	jge	.LBB3_42
.Ltmp209:
# %bb.33:                               # %for.body199.lr.ph
	#DEBUG_VALUE: vertical_half_1chan:srcPtr <- [DW_OP_LLVM_entry_value 1] $rdi
	#DEBUG_VALUE: vertical_half_1chan:xres <- [DW_OP_constu 124, DW_OP_minus] [$rsp+0]
	#DEBUG_VALUE: vertical_half_1chan:srcYres <- [DW_OP_constu 56, DW_OP_minus] [$rsp+0]
	#DEBUG_VALUE: vertical_half_1chan:srcZres <- [DW_OP_LLVM_entry_value 1] $ecx
	#DEBUG_VALUE: vertical_half_1chan:dstPtr <- [DW_OP_LLVM_entry_value 1] $r8
	#DEBUG_VALUE: vertical_half_1chan:dstZres <- [DW_OP_LLVM_entry_value 1] $r9d
	#DEBUG_VALUE: vertical_half_1chan:pixMax <- [DW_OP_plus_uconst 72] [$rsp+0]
	#DEBUG_VALUE: vertical_half_1chan:srcRowCount <- [DW_OP_plus_uconst 8, DW_OP_deref] $rsp
	#DEBUG_VALUE: vertical_half_1chan:src <- $r13
	#DEBUG_VALUE: vertical_half_1chan:dst <- $r8
	#DEBUG_VALUE: vertical_half_1chan:y <- $r9d
	#DEBUG_VALUE: vertical_half_1chan:limit <- [DW_OP_constu 72, DW_OP_minus, DW_OP_deref] $rsp
	.loc	0 0 3                           # ldecod_src/io_tiff.c:0:3
	cmpl	$0, -124(%rsp)                  # 4-byte Folded Reload
	jle	.LBB3_42
.Ltmp210:
# %bb.34:                               # %for.body199.us.preheader
	#DEBUG_VALUE: vertical_half_1chan:srcPtr <- [DW_OP_LLVM_entry_value 1] $rdi
	#DEBUG_VALUE: vertical_half_1chan:xres <- [DW_OP_constu 124, DW_OP_minus] [$rsp+0]
	#DEBUG_VALUE: vertical_half_1chan:srcYres <- [DW_OP_constu 56, DW_OP_minus] [$rsp+0]
	#DEBUG_VALUE: vertical_half_1chan:srcZres <- [DW_OP_LLVM_entry_value 1] $ecx
	#DEBUG_VALUE: vertical_half_1chan:dstPtr <- [DW_OP_LLVM_entry_value 1] $r8
	#DEBUG_VALUE: vertical_half_1chan:dstZres <- [DW_OP_LLVM_entry_value 1] $r9d
	#DEBUG_VALUE: vertical_half_1chan:pixMax <- [DW_OP_plus_uconst 72] [$rsp+0]
	#DEBUG_VALUE: vertical_half_1chan:srcRowCount <- [DW_OP_plus_uconst 8, DW_OP_deref] $rsp
	#DEBUG_VALUE: vertical_half_1chan:src <- $r13
	#DEBUG_VALUE: vertical_half_1chan:dst <- $r8
	#DEBUG_VALUE: vertical_half_1chan:y <- $r9d
	#DEBUG_VALUE: vertical_half_1chan:limit <- [DW_OP_constu 72, DW_OP_minus, DW_OP_deref] $rsp
	leal	-1(%rdx), %eax
	movl	%eax, -88(%rsp)                 # 4-byte Spill
	leal	-2(%rdx), %eax
	movl	%eax, -24(%rsp)                 # 4-byte Spill
	leal	-3(%rdx), %eax
	movl	%eax, -32(%rsp)                 # 4-byte Spill
	leal	-4(%rdx), %eax
	movl	%eax, -40(%rsp)                 # 4-byte Spill
	addl	$-5, %edx
	.loc	0 968 3                         # ldecod_src/io_tiff.c:968:3
	addq	%r15, %r15
	addq	%r10, %r10
	addq	%r14, %r14
	movq	-48(%rsp), %r12                 # 8-byte Reload
	addq	%r12, %r12
	negq	%r12
	movq	%r12, -48(%rsp)                 # 8-byte Spill
	movq	-64(%rsp), %r12                 # 8-byte Reload
	addq	%r12, %r12
	negq	%r12
	movq	%r12, -64(%rsp)                 # 8-byte Spill
	movq	%rcx, %r12
	addq	%rcx, %r12
	negq	%r12
	movq	%r12, -112(%rsp)                # 8-byte Spill
	movq	-104(%rsp), %rax                # 8-byte Reload
	addq	%rax, %rax
	negq	%rax
	movq	%rax, -104(%rsp)                # 8-byte Spill
	movq	%r10, %r12
	negq	%r12
	movq	%rdx, -56(%rsp)                 # 8-byte Spill
.Ltmp211:
	#DEBUG_VALUE: vertical_half_1chan:srcYres <- undef
	.loc	0 0 3                           # ldecod_src/io_tiff.c:0:3
	movq	%r10, -96(%rsp)                 # 8-byte Spill
	jmp	.LBB3_35
.Ltmp212:
	.p2align	4, 0x90
.LBB3_41:                               # %for.cond249.for.end337_crit_edge.us
                                        #   in Loop: Header=BB3_35 Depth=1
	#DEBUG_VALUE: vertical_half_1chan:srcPtr <- [DW_OP_LLVM_entry_value 1] $rdi
	#DEBUG_VALUE: vertical_half_1chan:xres <- [DW_OP_constu 124, DW_OP_minus] [$rsp+0]
	#DEBUG_VALUE: vertical_half_1chan:srcYres <- [DW_OP_LLVM_entry_value 1] $edx
	#DEBUG_VALUE: vertical_half_1chan:srcZres <- [DW_OP_LLVM_entry_value 1] $ecx
	#DEBUG_VALUE: vertical_half_1chan:dstPtr <- [DW_OP_LLVM_entry_value 1] $r8
	#DEBUG_VALUE: vertical_half_1chan:dstZres <- [DW_OP_LLVM_entry_value 1] $r9d
	#DEBUG_VALUE: vertical_half_1chan:pixMax <- [DW_OP_plus_uconst 72] [$rsp+0]
	#DEBUG_VALUE: vertical_half_1chan:srcRowCount <- [DW_OP_plus_uconst 8, DW_OP_deref] $rsp
	#DEBUG_VALUE: vertical_half_1chan:y <- [DW_OP_constu 120, DW_OP_minus, DW_OP_deref] $rsp
	#DEBUG_VALUE: vertical_half_1chan:limit <- [DW_OP_constu 72, DW_OP_minus, DW_OP_deref] $rsp
	#DEBUG_VALUE: vertical_half_1chan:src <- undef
	movq	-96(%rsp), %r10                 # 8-byte Reload
.Ltmp213:
	.loc	0 968 25                        # ldecod_src/io_tiff.c:968:25
	addq	%r10, %r13
	movl	-120(%rsp), %r9d                # 4-byte Reload
	addl	$2, %r9d
.Ltmp214:
	#DEBUG_VALUE: vertical_half_1chan:y <- $r9d
	#DEBUG_VALUE: vertical_half_1chan:dst <- undef
	.loc	0 968 15                        # ldecod_src/io_tiff.c:968:15
	cmpl	-72(%rsp), %r9d                 # 4-byte Folded Reload
	movq	-56(%rsp), %rdx                 # 8-byte Reload
.Ltmp215:
	.loc	0 968 3                         # ldecod_src/io_tiff.c:968:3
	jge	.LBB3_42
.Ltmp216:
.LBB3_35:                               # %for.body199.us
                                        # =>This Loop Header: Depth=1
                                        #     Child Loop BB3_36 Depth 2
	#DEBUG_VALUE: vertical_half_1chan:srcPtr <- [DW_OP_LLVM_entry_value 1] $rdi
	#DEBUG_VALUE: vertical_half_1chan:xres <- [DW_OP_constu 124, DW_OP_minus] [$rsp+0]
	#DEBUG_VALUE: vertical_half_1chan:srcYres <- [DW_OP_LLVM_entry_value 1] $edx
	#DEBUG_VALUE: vertical_half_1chan:srcZres <- [DW_OP_LLVM_entry_value 1] $ecx
	#DEBUG_VALUE: vertical_half_1chan:dstPtr <- [DW_OP_LLVM_entry_value 1] $r8
	#DEBUG_VALUE: vertical_half_1chan:dstZres <- [DW_OP_LLVM_entry_value 1] $r9d
	#DEBUG_VALUE: vertical_half_1chan:pixMax <- [DW_OP_plus_uconst 72] [$rsp+0]
	#DEBUG_VALUE: vertical_half_1chan:srcRowCount <- [DW_OP_plus_uconst 8, DW_OP_deref] $rsp
	#DEBUG_VALUE: vertical_half_1chan:y <- $r9d
	#DEBUG_VALUE: vertical_half_1chan:limit <- [DW_OP_constu 72, DW_OP_minus, DW_OP_deref] $rsp
	#DEBUG_VALUE: vertical_half_1chan:dst <- $r8
	#DEBUG_VALUE: vertical_half_1chan:src <- $r13
	#DEBUG_VALUE: vertical_half_1chan:y <- $r9d
	.loc	0 0 3                           # ldecod_src/io_tiff.c:0:3
	movl	-88(%rsp), %edi                 # 4-byte Reload
.Ltmp217:
	.loc	0 970 13 is_stmt 1              # ldecod_src/io_tiff.c:970:13
	subl	%r9d, %edi
.Ltmp218:
	#DEBUG_VALUE: vertical_half_1chan:x <- 0
	.loc	0 0 13 is_stmt 0                # ldecod_src/io_tiff.c:0:13
	movl	$0, %eax
	movq	8(%rsp), %rcx                   # 8-byte Reload
	cmovgl	%ecx, %eax
.Ltmp219:
	#DEBUG_VALUE: vertical_half_1chan:n1 <- undef
	.loc	0 971 13 is_stmt 1              # ldecod_src/io_tiff.c:971:13
	cmpl	-24(%rsp), %r9d                 # 4-byte Folded Reload
	.loc	0 971 10 is_stmt 0              # ldecod_src/io_tiff.c:971:10
	movl	%edi, %esi
	movl	$2, %r10d
	cmovll	%r10d, %esi
.Ltmp220:
	#DEBUG_VALUE: vertical_half_1chan:n2 <- $esi
	.loc	0 972 13 is_stmt 1              # ldecod_src/io_tiff.c:972:13
	cmpl	-32(%rsp), %r9d                 # 4-byte Folded Reload
	.loc	0 972 10 is_stmt 0              # ldecod_src/io_tiff.c:972:10
	movl	%edi, %r10d
	movl	$3, %r11d
	cmovll	%r11d, %r10d
.Ltmp221:
	#DEBUG_VALUE: vertical_half_1chan:n3 <- $r10d
	.loc	0 973 13 is_stmt 1              # ldecod_src/io_tiff.c:973:13
	cmpl	-40(%rsp), %r9d                 # 4-byte Folded Reload
	.loc	0 973 10 is_stmt 0              # ldecod_src/io_tiff.c:973:10
	movl	%edi, %r11d
	movl	$4, %ebx
	cmovll	%ebx, %r11d
.Ltmp222:
	#DEBUG_VALUE: vertical_half_1chan:n4 <- $r11d
	.loc	0 974 13 is_stmt 1              # ldecod_src/io_tiff.c:974:13
	cmpl	%edx, %r9d
	.loc	0 974 10 is_stmt 0              # ldecod_src/io_tiff.c:974:10
	movl	%edi, %ebx
	movl	$5, %edx
	cmovll	%edx, %ebx
.Ltmp223:
	#DEBUG_VALUE: vertical_half_1chan:n5 <- $ebx
	.loc	0 0 10                          # ldecod_src/io_tiff.c:0:10
	movl	%r9d, -120(%rsp)                # 4-byte Spill
.Ltmp224:
	#DEBUG_VALUE: vertical_half_1chan:y <- [DW_OP_constu 120, DW_OP_minus, DW_OP_deref] $rsp
	.loc	0 975 13 is_stmt 1              # ldecod_src/io_tiff.c:975:13
	cmpl	-80(%rsp), %r9d                 # 4-byte Folded Reload
	.loc	0 975 10 is_stmt 0              # ldecod_src/io_tiff.c:975:10
	movl	$6, %edx
	cmovll	%edx, %edi
.Ltmp225:
	#DEBUG_VALUE: vertical_half_1chan:n6 <- $edi
	.loc	0 0 10                          # ldecod_src/io_tiff.c:0:10
	cltq
	imull	%ecx, %esi
.Ltmp226:
	movslq	%esi, %r9
	imull	%ecx, %r10d
.Ltmp227:
	movslq	%r10d, %r10
	imull	%ecx, %r11d
.Ltmp228:
	movslq	%r11d, %r11
	imull	%ecx, %ebx
.Ltmp229:
	movslq	%ebx, %rbp
	imull	%ecx, %edi
.Ltmp230:
	movslq	%edi, %rdi
	movl	-124(%rsp), %ebx                # 4-byte Reload
	jmp	.LBB3_36
.Ltmp231:
	.p2align	4, 0x90
.LBB3_39:                               # %if.else324.us
                                        #   in Loop: Header=BB3_36 Depth=2
	#DEBUG_VALUE: vertical_half_1chan:srcPtr <- [DW_OP_LLVM_entry_value 1] $rdi
	#DEBUG_VALUE: vertical_half_1chan:xres <- [DW_OP_constu 124, DW_OP_minus] [$rsp+0]
	#DEBUG_VALUE: vertical_half_1chan:srcYres <- [DW_OP_LLVM_entry_value 1] $edx
	#DEBUG_VALUE: vertical_half_1chan:srcZres <- [DW_OP_LLVM_entry_value 1] $ecx
	#DEBUG_VALUE: vertical_half_1chan:dstPtr <- [DW_OP_LLVM_entry_value 1] $r8
	#DEBUG_VALUE: vertical_half_1chan:dstZres <- [DW_OP_LLVM_entry_value 1] $r9d
	#DEBUG_VALUE: vertical_half_1chan:pixMax <- [DW_OP_plus_uconst 72] [$rsp+0]
	#DEBUG_VALUE: vertical_half_1chan:srcRowCount <- [DW_OP_plus_uconst 8, DW_OP_deref] $rsp
	#DEBUG_VALUE: vertical_half_1chan:dst <- $r8
	#DEBUG_VALUE: vertical_half_1chan:y <- [DW_OP_constu 120, DW_OP_minus, DW_OP_deref] $rsp
	#DEBUG_VALUE: vertical_half_1chan:limit <- [DW_OP_constu 72, DW_OP_minus, DW_OP_deref] $rsp
	movl	%esi, %r14d
.Ltmp232:
.LBB3_40:                               # %if.end329.us
                                        #   in Loop: Header=BB3_36 Depth=2
	#DEBUG_VALUE: vertical_half_1chan:srcPtr <- [DW_OP_LLVM_entry_value 1] $rdi
	#DEBUG_VALUE: vertical_half_1chan:xres <- [DW_OP_constu 124, DW_OP_minus] [$rsp+0]
	#DEBUG_VALUE: vertical_half_1chan:srcYres <- [DW_OP_LLVM_entry_value 1] $edx
	#DEBUG_VALUE: vertical_half_1chan:srcZres <- [DW_OP_LLVM_entry_value 1] $ecx
	#DEBUG_VALUE: vertical_half_1chan:dstPtr <- [DW_OP_LLVM_entry_value 1] $r8
	#DEBUG_VALUE: vertical_half_1chan:dstZres <- [DW_OP_LLVM_entry_value 1] $r9d
	#DEBUG_VALUE: vertical_half_1chan:pixMax <- [DW_OP_plus_uconst 72] [$rsp+0]
	#DEBUG_VALUE: vertical_half_1chan:srcRowCount <- [DW_OP_plus_uconst 8, DW_OP_deref] $rsp
	#DEBUG_VALUE: vertical_half_1chan:dst <- $r8
	#DEBUG_VALUE: vertical_half_1chan:y <- [DW_OP_constu 120, DW_OP_minus, DW_OP_deref] $rsp
	#DEBUG_VALUE: vertical_half_1chan:limit <- [DW_OP_constu 72, DW_OP_minus, DW_OP_deref] $rsp
	#DEBUG_VALUE: vertical_half_1chan:result <- $r14d
	.loc	0 988 12 is_stmt 1              # ldecod_src/io_tiff.c:988:12
	movw	%r14w, (%r8)
.Ltmp233:
	#DEBUG_VALUE: vertical_half_1chan:dst <- [DW_OP_LLVM_arg 0, DW_OP_LLVM_arg 1, DW_OP_minus, DW_OP_consts 2, DW_OP_LLVM_arg 2, DW_OP_LLVM_convert 64 5, DW_OP_mul, DW_OP_div, DW_OP_consts 2, DW_OP_LLVM_arg 2, DW_OP_LLVM_convert 64 5, DW_OP_mul, DW_OP_mul, DW_OP_consts 2, DW_OP_LLVM_arg 2, DW_OP_LLVM_convert 64 5, DW_OP_mul, DW_OP_LLVM_arg 1, DW_OP_plus, DW_OP_plus, DW_OP_stack_value] undef, undef, undef
	#DEBUG_VALUE: vertical_half_1chan:src <- [DW_OP_LLVM_arg 0, DW_OP_LLVM_arg 1, DW_OP_minus, DW_OP_consts 2, DW_OP_LLVM_arg 2, DW_OP_LLVM_convert 64 5, DW_OP_mul, DW_OP_div, DW_OP_consts 2, DW_OP_LLVM_arg 3, DW_OP_LLVM_convert 64 5, DW_OP_mul, DW_OP_mul, DW_OP_consts 2, DW_OP_LLVM_arg 3, DW_OP_LLVM_convert 64 5, DW_OP_mul, DW_OP_LLVM_arg 4, DW_OP_plus, DW_OP_plus, DW_OP_stack_value] undef, undef, undef, undef, undef
	#DEBUG_VALUE: vertical_half_1chan:x <- [DW_OP_LLVM_arg 0, DW_OP_LLVM_arg 1, DW_OP_minus, DW_OP_consts 2, DW_OP_LLVM_arg 2, DW_OP_LLVM_convert 64 5, DW_OP_mul, DW_OP_div, DW_OP_consts 1, DW_OP_plus, DW_OP_stack_value] undef, undef, undef
	.loc	0 976 17                        # ldecod_src/io_tiff.c:976:17
	addq	%r15, %r8
	movq	%rdx, %r14
.Ltmp234:
	addq	%rdx, %r13
	decl	%ebx
.Ltmp235:
	.loc	0 976 5 is_stmt 0               # ldecod_src/io_tiff.c:976:5
	je	.LBB3_41
.Ltmp236:
.LBB3_36:                               # %for.body252.us
                                        #   Parent Loop BB3_35 Depth=1
                                        # =>  This Inner Loop Header: Depth=2
	#DEBUG_VALUE: vertical_half_1chan:srcPtr <- [DW_OP_LLVM_entry_value 1] $rdi
	#DEBUG_VALUE: vertical_half_1chan:xres <- [DW_OP_constu 124, DW_OP_minus] [$rsp+0]
	#DEBUG_VALUE: vertical_half_1chan:srcYres <- [DW_OP_LLVM_entry_value 1] $edx
	#DEBUG_VALUE: vertical_half_1chan:srcZres <- [DW_OP_LLVM_entry_value 1] $ecx
	#DEBUG_VALUE: vertical_half_1chan:dstPtr <- [DW_OP_LLVM_entry_value 1] $r8
	#DEBUG_VALUE: vertical_half_1chan:dstZres <- [DW_OP_LLVM_entry_value 1] $r9d
	#DEBUG_VALUE: vertical_half_1chan:pixMax <- [DW_OP_plus_uconst 72] [$rsp+0]
	#DEBUG_VALUE: vertical_half_1chan:srcRowCount <- [DW_OP_plus_uconst 8, DW_OP_deref] $rsp
	#DEBUG_VALUE: vertical_half_1chan:y <- [DW_OP_constu 120, DW_OP_minus, DW_OP_deref] $rsp
	#DEBUG_VALUE: vertical_half_1chan:limit <- [DW_OP_constu 72, DW_OP_minus, DW_OP_deref] $rsp
	#DEBUG_VALUE: vertical_half_1chan:dst <- $r8
	#DEBUG_VALUE: vertical_half_1chan:src <- [DW_OP_LLVM_arg 0, DW_OP_LLVM_arg 1, DW_OP_minus, DW_OP_consts 2, DW_OP_LLVM_arg 2, DW_OP_LLVM_convert 64 5, DW_OP_mul, DW_OP_div, DW_OP_consts 2, DW_OP_LLVM_arg 3, DW_OP_LLVM_convert 64 5, DW_OP_mul, DW_OP_mul, DW_OP_LLVM_arg 4, DW_OP_plus, DW_OP_stack_value] undef, undef, undef, undef, undef
	#DEBUG_VALUE: vertical_half_1chan:x <- [DW_OP_LLVM_arg 0, DW_OP_LLVM_arg 1, DW_OP_minus, DW_OP_consts 2, DW_OP_LLVM_arg 2, DW_OP_LLVM_convert 64 5, DW_OP_mul, DW_OP_div, DW_OP_stack_value] undef, undef, undef
	.loc	0 0 5                           # ldecod_src/io_tiff.c:0:5
	movq	%r14, %rdx
.Ltmp237:
	.loc	0 978 23 is_stmt 1              # ldecod_src/io_tiff.c:978:23
	movzwl	(%r13), %esi
	.loc	0 978 46 is_stmt 0              # ldecod_src/io_tiff.c:978:46
	movzwl	(%r13,%rax,2), %r14d
	.loc	0 978 44                        # ldecod_src/io_tiff.c:978:44
	addl	%esi, %r14d
	.loc	0 978 20                        # ldecod_src/io_tiff.c:978:20
	imull	$225, %r14d, %esi
	.loc	0 979 15 is_stmt 1              # ldecod_src/io_tiff.c:979:15
	movzwl	(%r13,%r12), %r14d
	movq	%r15, %rcx
	.loc	0 979 38 is_stmt 0              # ldecod_src/io_tiff.c:979:38
	movzwl	(%r13,%r9,2), %r15d
	.loc	0 979 36                        # ldecod_src/io_tiff.c:979:36
	addl	%r14d, %r15d
	.loc	0 979 12                        # ldecod_src/io_tiff.c:979:12
	imull	$69, %r15d, %r14d
	.loc	0 979 9                         # ldecod_src/io_tiff.c:979:9
	addl	%esi, %r14d
	movq	-104(%rsp), %rsi                # 8-byte Reload
	.loc	0 980 15 is_stmt 1              # ldecod_src/io_tiff.c:980:15
	movzwl	(%r13,%rsi), %esi
	.loc	0 980 38 is_stmt 0              # ldecod_src/io_tiff.c:980:38
	movzwl	(%r13,%r10,2), %r15d
	.loc	0 980 36                        # ldecod_src/io_tiff.c:980:36
	addl	%esi, %r15d
	.loc	0 980 12                        # ldecod_src/io_tiff.c:980:12
	imull	$-30, %r15d, %esi
	.loc	0 980 9                         # ldecod_src/io_tiff.c:980:9
	addl	%r14d, %esi
	movq	-112(%rsp), %r14                # 8-byte Reload
	.loc	0 981 15 is_stmt 1              # ldecod_src/io_tiff.c:981:15
	movzwl	(%r13,%r14), %r14d
	.loc	0 981 38 is_stmt 0              # ldecod_src/io_tiff.c:981:38
	movzwl	(%r13,%r11,2), %r15d
	.loc	0 981 36                        # ldecod_src/io_tiff.c:981:36
	addl	%r14d, %r15d
	.loc	0 981 9                         # ldecod_src/io_tiff.c:981:9
	shll	$4, %r15d
	subl	%r15d, %esi
	movq	-64(%rsp), %r14                 # 8-byte Reload
	.loc	0 982 15 is_stmt 1              # ldecod_src/io_tiff.c:982:15
	movzwl	(%r13,%r14), %r14d
	.loc	0 982 38 is_stmt 0              # ldecod_src/io_tiff.c:982:38
	movzwl	(%r13,%rbp,2), %r15d
	.loc	0 982 36                        # ldecod_src/io_tiff.c:982:36
	addl	%r14d, %r15d
	.loc	0 982 12                        # ldecod_src/io_tiff.c:982:12
	leal	(%r15,%r15,2), %r14d
	.loc	0 982 9                         # ldecod_src/io_tiff.c:982:9
	leal	(%rsi,%r14,2), %esi
	movq	-48(%rsp), %r14                 # 8-byte Reload
	.loc	0 983 15 is_stmt 1              # ldecod_src/io_tiff.c:983:15
	movzwl	(%r13,%r14), %r14d
	.loc	0 983 38 is_stmt 0              # ldecod_src/io_tiff.c:983:38
	movzwl	(%r13,%rdi,2), %r15d
	.loc	0 983 36                        # ldecod_src/io_tiff.c:983:36
	addl	%r14d, %r15d
	.loc	0 983 9                         # ldecod_src/io_tiff.c:983:9
	leal	(%rsi,%r15,2), %esi
.Ltmp238:
	#DEBUG_VALUE: vertical_half_1chan:result <- [DW_OP_plus_uconst 256, DW_OP_constu 512, DW_OP_div, DW_OP_stack_value] $esi
	.loc	0 0 9                           # ldecod_src/io_tiff.c:0:9
	movq	%rcx, %r15
	xorl	%r14d, %r14d
.Ltmp239:
	.loc	0 984 18 is_stmt 1              # ldecod_src/io_tiff.c:984:18
	cmpl	$-767, %esi                     # imm = 0xFD01
.Ltmp240:
	.loc	0 984 11 is_stmt 0              # ldecod_src/io_tiff.c:984:11
	jl	.LBB3_40
.Ltmp241:
# %bb.37:                               # %if.else324.us
                                        #   in Loop: Header=BB3_36 Depth=2
	#DEBUG_VALUE: vertical_half_1chan:srcPtr <- [DW_OP_LLVM_entry_value 1] $rdi
	#DEBUG_VALUE: vertical_half_1chan:xres <- [DW_OP_constu 124, DW_OP_minus] [$rsp+0]
	#DEBUG_VALUE: vertical_half_1chan:srcYres <- [DW_OP_LLVM_entry_value 1] $edx
	#DEBUG_VALUE: vertical_half_1chan:srcZres <- [DW_OP_LLVM_entry_value 1] $ecx
	#DEBUG_VALUE: vertical_half_1chan:dstPtr <- [DW_OP_LLVM_entry_value 1] $r8
	#DEBUG_VALUE: vertical_half_1chan:dstZres <- [DW_OP_LLVM_entry_value 1] $r9d
	#DEBUG_VALUE: vertical_half_1chan:pixMax <- [DW_OP_plus_uconst 72] [$rsp+0]
	#DEBUG_VALUE: vertical_half_1chan:srcRowCount <- [DW_OP_plus_uconst 8, DW_OP_deref] $rsp
	#DEBUG_VALUE: vertical_half_1chan:dst <- $r8
	#DEBUG_VALUE: vertical_half_1chan:y <- [DW_OP_constu 120, DW_OP_minus, DW_OP_deref] $rsp
	#DEBUG_VALUE: vertical_half_1chan:result <- [DW_OP_plus_uconst 256, DW_OP_constu 512, DW_OP_div, DW_OP_stack_value] $esi
	#DEBUG_VALUE: vertical_half_1chan:limit <- [DW_OP_constu 72, DW_OP_minus, DW_OP_deref] $rsp
	.loc	0 983 61 is_stmt 1              # ldecod_src/io_tiff.c:983:61
	leal	256(%rsi), %r14d
.Ltmp242:
	#DEBUG_VALUE: vertical_half_1chan:result <- [DW_OP_constu 512, DW_OP_div, DW_OP_stack_value] $r14d
	.loc	0 983 67 is_stmt 0              # ldecod_src/io_tiff.c:983:67
	addl	$767, %esi                      # imm = 0x2FF
	testl	%r14d, %r14d
	cmovnsl	%r14d, %esi
	sarl	$9, %esi
.Ltmp243:
	#DEBUG_VALUE: vertical_half_1chan:result <- $esi
	.loc	0 986 16 is_stmt 1              # ldecod_src/io_tiff.c:986:16
	cmpl	72(%rsp), %esi
	jl	.LBB3_39
.Ltmp244:
# %bb.38:                               # %if.else324.us
                                        #   in Loop: Header=BB3_36 Depth=2
	#DEBUG_VALUE: vertical_half_1chan:srcPtr <- [DW_OP_LLVM_entry_value 1] $rdi
	#DEBUG_VALUE: vertical_half_1chan:xres <- [DW_OP_constu 124, DW_OP_minus] [$rsp+0]
	#DEBUG_VALUE: vertical_half_1chan:srcYres <- [DW_OP_LLVM_entry_value 1] $edx
	#DEBUG_VALUE: vertical_half_1chan:srcZres <- [DW_OP_LLVM_entry_value 1] $ecx
	#DEBUG_VALUE: vertical_half_1chan:dstPtr <- [DW_OP_LLVM_entry_value 1] $r8
	#DEBUG_VALUE: vertical_half_1chan:dstZres <- [DW_OP_LLVM_entry_value 1] $r9d
	#DEBUG_VALUE: vertical_half_1chan:pixMax <- [DW_OP_plus_uconst 72] [$rsp+0]
	#DEBUG_VALUE: vertical_half_1chan:srcRowCount <- [DW_OP_plus_uconst 8, DW_OP_deref] $rsp
	#DEBUG_VALUE: vertical_half_1chan:dst <- $r8
	#DEBUG_VALUE: vertical_half_1chan:y <- [DW_OP_constu 120, DW_OP_minus, DW_OP_deref] $rsp
	#DEBUG_VALUE: vertical_half_1chan:result <- $esi
	#DEBUG_VALUE: vertical_half_1chan:limit <- [DW_OP_constu 72, DW_OP_minus, DW_OP_deref] $rsp
	.loc	0 0 16 is_stmt 0                # ldecod_src/io_tiff.c:0:16
	movl	72(%rsp), %esi
.Ltmp245:
                                        # kill: def $esi killed $esi def $rsi
	jmp	.LBB3_39
.Ltmp246:
.LBB3_42:                               # %for.end342
	#DEBUG_VALUE: vertical_half_1chan:srcPtr <- [DW_OP_LLVM_entry_value 1] $rdi
	#DEBUG_VALUE: vertical_half_1chan:xres <- [DW_OP_constu 124, DW_OP_minus] [$rsp+0]
	#DEBUG_VALUE: vertical_half_1chan:srcYres <- [DW_OP_LLVM_entry_value 1] $edx
	#DEBUG_VALUE: vertical_half_1chan:srcZres <- [DW_OP_LLVM_entry_value 1] $ecx
	#DEBUG_VALUE: vertical_half_1chan:dstPtr <- [DW_OP_LLVM_entry_value 1] $r8
	#DEBUG_VALUE: vertical_half_1chan:dstZres <- [DW_OP_LLVM_entry_value 1] $r9d
	#DEBUG_VALUE: vertical_half_1chan:pixMax <- [DW_OP_plus_uconst 72] [$rsp+0]
	#DEBUG_VALUE: vertical_half_1chan:srcRowCount <- [DW_OP_plus_uconst 8, DW_OP_deref] $rsp
	#DEBUG_VALUE: vertical_half_1chan:y <- $r9d
	#DEBUG_VALUE: vertical_half_1chan:limit <- [DW_OP_constu 72, DW_OP_minus, DW_OP_deref] $rsp
	.loc	0 994 1 epilogue_begin is_stmt 1 # ldecod_src/io_tiff.c:994:1
	addq	$16, %rsp
	.cfi_def_cfa_offset 56
	popq	%rbx
	.cfi_def_cfa_offset 48
	popq	%r12
	.cfi_def_cfa_offset 40
	popq	%r13
	.cfi_def_cfa_offset 32
	popq	%r14
	.cfi_def_cfa_offset 24
	popq	%r15
	.cfi_def_cfa_offset 16
	popq	%rbp
	.cfi_def_cfa_offset 8
	retq
.Ltmp247:
.Lfunc_end3:
	.size	vertical_half_1chan, .Lfunc_end3-vertical_half_1chan
	.cfi_endproc
                                        # -- End function
	.section	.rodata.cst16,"aM",@progbits,16
	.p2align	4, 0x0                          # -- Begin function ReadTIFFImage
.LCPI4_0:
	.quad	0x40cb7b7b7b7b7b7b              # double 14070.964705882352
	.quad	0x40d0000000000000              # double 16384
.LCPI4_1:
	.quad	0x40cc1c1c1c1c1c1c              # double 14392.219607843137
	.quad	0x40d0000000000000              # double 16384
.LCPI4_2:
	.quad	0x3fe0000000000000              # double 0.5
	.quad	0x3fe0000000000000              # double 0.5
.LCPI4_5:
	.quad	0xbfe0000000000000              # double -0.5
	.quad	0x3fe0000000000000              # double 0.5
.LCPI4_6:
	.zero	8
	.quad	0x3fe0000000000000              # double 0.5
.LCPI4_7:
	.quad	0xbfe0000000000000              # double -0.5
	.quad	0xbfe0000000000000              # double -0.5
.LCPI4_8:
	.short	65535                           # 0xffff
	.short	0                               # 0x0
	.short	65535                           # 0xffff
	.short	65535                           # 0xffff
	.short	65535                           # 0xffff
	.short	65535                           # 0xffff
	.short	65535                           # 0xffff
	.short	65535                           # 0xffff
.LCPI4_9:
	.short	65535                           # 0xffff
	.short	65535                           # 0xffff
	.short	65535                           # 0xffff
	.short	65535                           # 0xffff
	.short	65535                           # 0xffff
	.short	65535                           # 0xffff
	.short	0                               # 0x0
	.short	65535                           # 0xffff
.LCPI4_10:
	.long	2147483648                      # 0x80000000
	.long	2147483648                      # 0x80000000
	.long	2147483648                      # 0x80000000
	.long	2147483648                      # 0x80000000
.LCPI4_11:
	.long	2147549183                      # 0x8000ffff
	.long	2147549183                      # 0x8000ffff
	.long	2147549183                      # 0x8000ffff
	.long	2147549183                      # 0x8000ffff
.LCPI4_12:
	.long	536879104                       # 0x20002000
	.long	536879104                       # 0x20002000
	.long	536879104                       # 0x20002000
	.long	536879104                       # 0x20002000
.LCPI4_13:
	.short	65535                           # 0xffff
	.short	65535                           # 0xffff
	.short	0                               # 0x0
	.short	65535                           # 0xffff
	.short	65535                           # 0xffff
	.short	0                               # 0x0
	.short	65535                           # 0xffff
	.short	65535                           # 0xffff
.LCPI4_14:
	.short	0                               # 0x0
	.short	65535                           # 0xffff
	.short	65535                           # 0xffff
	.short	0                               # 0x0
	.short	65535                           # 0xffff
	.short	65535                           # 0xffff
	.short	0                               # 0x0
	.short	65535                           # 0xffff
.LCPI4_15:
	.short	65535                           # 0xffff
	.short	0                               # 0x0
	.short	65535                           # 0xffff
	.short	65535                           # 0xffff
	.short	0                               # 0x0
	.short	65535                           # 0xffff
	.short	65535                           # 0xffff
	.short	0                               # 0x0
.LCPI4_16:
	.long	536879104                       # 0x20002000
	.zero	4
	.zero	4
	.zero	4
	.section	.rodata.cst8,"aM",@progbits,8
	.p2align	3, 0x0
.LCPI4_3:
	.quad	0xbff0000000000000              # double -1
.LCPI4_4:
	.quad	0x3fe0000000000000              # double 0.5
	.text
	.globl	ReadTIFFImage
	.p2align	4, 0x90
	.type	ReadTIFFImage,@function
ReadTIFFImage:                          # @ReadTIFFImage
.Lfunc_begin4:
	.loc	0 1016 0                        # ldecod_src/io_tiff.c:1016:0
	.cfi_startproc
# %bb.0:                                # %entry
	#DEBUG_VALUE: ReadTIFFImage:p_Inp <- $rdi
	#DEBUG_VALUE: ReadTIFFImage:input_file <- $rsi
	#DEBUG_VALUE: ReadTIFFImage:FrameNoInFile <- $edx
	#DEBUG_VALUE: ReadTIFFImage:source <- $rcx
	#DEBUG_VALUE: ReadTIFFImage:buf <- $r8
	pushq	%rbp
	.cfi_def_cfa_offset 16
	pushq	%r15
	.cfi_def_cfa_offset 24
	pushq	%r14
	.cfi_def_cfa_offset 32
	pushq	%r13
	.cfi_def_cfa_offset 40
	pushq	%r12
	.cfi_def_cfa_offset 48
	pushq	%rbx
	.cfi_def_cfa_offset 56
	subq	$1544, %rsp                     # imm = 0x608
	.cfi_def_cfa_offset 1600
	.cfi_offset %rbx, -56
	.cfi_offset %r12, -48
	.cfi_offset %r13, -40
	.cfi_offset %r14, -32
	.cfi_offset %r15, -24
	.cfi_offset %rbp, -16
	movq	%r8, %r14
	movq	%rcx, %r15
	movl	%edx, %r9d
	movq	%rdi, %r13
.Ltmp248:
	#DEBUG_VALUE: ReadTIFFImage:temp <- 0
	#DEBUG_VALUE: ReadTIFFImage:temp2 <- 0
	.loc	0 1030 12 prologue_end          # ldecod_src/io_tiff.c:1030:12
	movslq	16(%rcx), %r12
.Ltmp249:
	#DEBUG_VALUE: ReadTIFFImage:height <- undef
	#DEBUG_VALUE: ReadTIFFImage:width <- undef
	.loc	0 1031 12                       # ldecod_src/io_tiff.c:1031:12
	movl	28(%rcx), %ebx
.Ltmp250:
	.loc	0 1034 27                       # ldecod_src/io_tiff.c:1034:27
	cmpl	$1, 4(%rcx)
	.loc	0 1034 37 is_stmt 0             # ldecod_src/io_tiff.c:1034:37
	jne	.LBB4_2
.Ltmp251:
# %bb.1:                                # %land.lhs.true
	#DEBUG_VALUE: ReadTIFFImage:p_Inp <- $r13
	#DEBUG_VALUE: ReadTIFFImage:input_file <- $rsi
	#DEBUG_VALUE: ReadTIFFImage:FrameNoInFile <- $edx
	#DEBUG_VALUE: ReadTIFFImage:source <- $r15
	#DEBUG_VALUE: ReadTIFFImage:buf <- $r14
	#DEBUG_VALUE: ReadTIFFImage:temp <- 0
	#DEBUG_VALUE: ReadTIFFImage:temp2 <- 0
	.loc	0 1034 41                       # ldecod_src/io_tiff.c:1034:41
	cmpl	$0, 916(%rsi)
.Ltmp252:
	.loc	0 1034 7                        # ldecod_src/io_tiff.c:1034:7
	je	.LBB4_70
.Ltmp253:
.LBB4_2:                                # %if.end
	#DEBUG_VALUE: ReadTIFFImage:p_Inp <- $r13
	#DEBUG_VALUE: ReadTIFFImage:input_file <- $rsi
	#DEBUG_VALUE: ReadTIFFImage:FrameNoInFile <- $edx
	#DEBUG_VALUE: ReadTIFFImage:source <- $r15
	#DEBUG_VALUE: ReadTIFFImage:buf <- $r14
	#DEBUG_VALUE: ReadTIFFImage:temp <- 0
	#DEBUG_VALUE: ReadTIFFImage:temp2 <- 0
	#DEBUG_VALUE: ReadTIFFImage:frameNumberInFile <- undef
	.loc	0 1041 19 is_stmt 1             # ldecod_src/io_tiff.c:1041:19
	movl	924(%rsi), %r8d
	.loc	0 1041 30 is_stmt 0             # ldecod_src/io_tiff.c:1041:30
	testl	%r8d, %r8d
.Ltmp254:
	.loc	0 1041 7                        # ldecod_src/io_tiff.c:1041:7
	jle	.LBB4_6
.Ltmp255:
# %bb.3:                                # %if.then5
	#DEBUG_VALUE: ReadTIFFImage:p_Inp <- $r13
	#DEBUG_VALUE: ReadTIFFImage:input_file <- $rsi
	#DEBUG_VALUE: ReadTIFFImage:FrameNoInFile <- $edx
	#DEBUG_VALUE: ReadTIFFImage:source <- $r15
	#DEBUG_VALUE: ReadTIFFImage:buf <- $r14
	#DEBUG_VALUE: ReadTIFFImage:temp <- 0
	#DEBUG_VALUE: ReadTIFFImage:temp2 <- 0
	#DEBUG_VALUE: ReadTIFFImage:frameNumberInFile <- undef
	.loc	0 1040 37 is_stmt 1             # ldecod_src/io_tiff.c:1040:37
	addl	3992(%r13), %r9d
.Ltmp256:
	#DEBUG_VALUE: ReadTIFFImage:frameNumberInFile <- $r9d
	.loc	0 0 0 is_stmt 0                 # ldecod_src/io_tiff.c:0:0
	leaq	255(%rsi), %rcx
	leaq	510(%rsi), %rax
	.loc	0 1043 9 is_stmt 1              # ldecod_src/io_tiff.c:1043:9
	cmpl	$0, 920(%rsi)
	movl	$.L.str.2, %esi
.Ltmp257:
	#DEBUG_VALUE: ReadTIFFImage:input_file <- [DW_OP_LLVM_entry_value 1] $rsi
	.loc	0 0 9 is_stmt 0                 # ldecod_src/io_tiff.c:0:9
	movl	$.L.str.1, %edx
.Ltmp258:
	#DEBUG_VALUE: ReadTIFFImage:FrameNoInFile <- [DW_OP_LLVM_entry_value 1] $edx
	cmoveq	%rsi, %rdx
	movq	%rax, (%rsp)
	leaq	1280(%rsp), %rdi
	movl	$255, %esi
	xorl	%eax, %eax
	callq	snprintf@PLT
.Ltmp259:
	#DEBUG_VALUE: ReadTIFFImage:n <- $eax
	.loc	0 1051 29 is_stmt 1             # ldecod_src/io_tiff.c:1051:29
	cmpl	$255, %eax
	je	.LBB4_5
.Ltmp260:
# %bb.4:                                # %if.then5
	#DEBUG_VALUE: ReadTIFFImage:p_Inp <- $r13
	#DEBUG_VALUE: ReadTIFFImage:input_file <- [DW_OP_LLVM_entry_value 1] $rsi
	#DEBUG_VALUE: ReadTIFFImage:FrameNoInFile <- [DW_OP_LLVM_entry_value 1] $edx
	#DEBUG_VALUE: ReadTIFFImage:source <- $r15
	#DEBUG_VALUE: ReadTIFFImage:buf <- $r14
	#DEBUG_VALUE: ReadTIFFImage:temp <- 0
	#DEBUG_VALUE: ReadTIFFImage:temp2 <- 0
	#DEBUG_VALUE: ReadTIFFImage:n <- $eax
	cmpl	$-1, %eax
	jne	.LBB4_7
.Ltmp261:
.LBB4_5:                                # %if.then22
	#DEBUG_VALUE: ReadTIFFImage:p_Inp <- $r13
	#DEBUG_VALUE: ReadTIFFImage:input_file <- [DW_OP_LLVM_entry_value 1] $rsi
	#DEBUG_VALUE: ReadTIFFImage:FrameNoInFile <- [DW_OP_LLVM_entry_value 1] $edx
	#DEBUG_VALUE: ReadTIFFImage:source <- $r15
	#DEBUG_VALUE: ReadTIFFImage:buf <- $r14
	#DEBUG_VALUE: ReadTIFFImage:temp <- 0
	#DEBUG_VALUE: ReadTIFFImage:temp2 <- 0
	#DEBUG_VALUE: ReadTIFFImage:n <- $eax
	.loc	0 1053 16                       # ldecod_src/io_tiff.c:1053:16
	movq	stderr@GOTPCREL(%rip), %rax
.Ltmp262:
	movq	(%rax), %rcx
	.loc	0 1053 7 is_stmt 0              # ldecod_src/io_tiff.c:1053:7
	movl	$.L.str.3, %edi
	movl	$39, %esi
	movl	$1, %edx
	callq	fwrite@PLT
.Ltmp263:
	.loc	0 0 7                           # ldecod_src/io_tiff.c:0:7
	jmp	.LBB4_107
.Ltmp264:
.LBB4_6:                                # %if.else25
	#DEBUG_VALUE: ReadTIFFImage:p_Inp <- $r13
	#DEBUG_VALUE: ReadTIFFImage:input_file <- $rsi
	#DEBUG_VALUE: ReadTIFFImage:FrameNoInFile <- $edx
	#DEBUG_VALUE: ReadTIFFImage:source <- $r15
	#DEBUG_VALUE: ReadTIFFImage:buf <- $r14
	#DEBUG_VALUE: ReadTIFFImage:temp <- 0
	#DEBUG_VALUE: ReadTIFFImage:temp2 <- 0
	leaq	1280(%rsp), %rdi
.Ltmp265:
	.loc	0 1059 5 is_stmt 1              # ldecod_src/io_tiff.c:1059:5
	callq	strcpy@PLT
.Ltmp266:
	#DEBUG_VALUE: ReadTIFFImage:FrameNoInFile <- [DW_OP_LLVM_entry_value 1] $edx
	#DEBUG_VALUE: ReadTIFFImage:input_file <- [DW_OP_LLVM_entry_value 1] $rsi
.LBB4_7:                                # %if.end29
	#DEBUG_VALUE: ReadTIFFImage:p_Inp <- $r13
	#DEBUG_VALUE: ReadTIFFImage:input_file <- [DW_OP_LLVM_entry_value 1] $rsi
	#DEBUG_VALUE: ReadTIFFImage:FrameNoInFile <- [DW_OP_LLVM_entry_value 1] $edx
	#DEBUG_VALUE: ReadTIFFImage:source <- $r15
	#DEBUG_VALUE: ReadTIFFImage:buf <- $r14
	#DEBUG_VALUE: ReadTIFFImage:temp <- 0
	#DEBUG_VALUE: ReadTIFFImage:temp2 <- 0
	#DEBUG_VALUE: readTiff:path <- [DW_OP_plus_uconst 1280, DW_OP_stack_value] $rsp
	#DEBUG_VALUE: readFileIntoMemory:path <- [DW_OP_plus_uconst 1280, DW_OP_stack_value] $rsp
	#DEBUG_VALUE: readFileIntoMemory:endian <- [DW_OP_LLVM_fragment 0 8] 1
	#DEBUG_VALUE: readFileIntoMemory:endian <- [DW_OP_LLVM_fragment 8 24] 0
	#DEBUG_VALUE: readFileIntoMemory:machineLittleEndian <- 1
	.loc	0 0 5 is_stmt 0                 # ldecod_src/io_tiff.c:0:5
	leaq	1280(%rsp), %rdi
.Ltmp267:
	.loc	0 465 8 is_stmt 1               # ldecod_src/io_tiff.c:465:8
	xorl	%esi, %esi
	xorl	%eax, %eax
	callq	open@PLT
.Ltmp268:
	#DEBUG_VALUE: readFileIntoMemory:fd <- $eax
	.loc	0 466 10                        # ldecod_src/io_tiff.c:466:10
	cmpl	$-1, %eax
.Ltmp269:
	#DEBUG_VALUE: readTiff:t <- undef
	#DEBUG_VALUE: readFileIntoMemory:t <- undef
	.loc	0 466 7 is_stmt 0               # ldecod_src/io_tiff.c:466:7
	je	.LBB4_16
.Ltmp270:
# %bb.8:                                # %if.end.i.i
	#DEBUG_VALUE: ReadTIFFImage:p_Inp <- $r13
	#DEBUG_VALUE: ReadTIFFImage:input_file <- [DW_OP_LLVM_entry_value 1] $rsi
	#DEBUG_VALUE: ReadTIFFImage:FrameNoInFile <- [DW_OP_LLVM_entry_value 1] $edx
	#DEBUG_VALUE: ReadTIFFImage:source <- $r15
	#DEBUG_VALUE: ReadTIFFImage:buf <- $r14
	#DEBUG_VALUE: ReadTIFFImage:temp <- 0
	#DEBUG_VALUE: ReadTIFFImage:temp2 <- 0
	#DEBUG_VALUE: readTiff:path <- [DW_OP_plus_uconst 1280, DW_OP_stack_value] $rsp
	#DEBUG_VALUE: readFileIntoMemory:path <- [DW_OP_plus_uconst 1280, DW_OP_stack_value] $rsp
	#DEBUG_VALUE: readFileIntoMemory:endian <- [DW_OP_LLVM_fragment 0 8] 1
	#DEBUG_VALUE: readFileIntoMemory:endian <- [DW_OP_LLVM_fragment 8 24] 0
	#DEBUG_VALUE: readFileIntoMemory:machineLittleEndian <- 1
	#DEBUG_VALUE: readFileIntoMemory:fd <- $eax
	.loc	0 0 7                           # ldecod_src/io_tiff.c:0:7
	movl	%eax, %ebp
	movq	%r12, 216(%rsp)                 # 8-byte Spill
	.loc	0 472 16 is_stmt 1              # ldecod_src/io_tiff.c:472:16
	movl	%eax, %edi
	xorl	%esi, %esi
	movl	$2, %edx
	callq	lseek@PLT
.Ltmp271:
	#DEBUG_VALUE: readFileIntoMemory:fd <- $ebp
	#DEBUG_VALUE: readFileIntoMemory:cnt <- $rax
	.loc	0 473 11                        # ldecod_src/io_tiff.c:473:11
	cmpq	$-1, %rax
.Ltmp272:
	.loc	0 473 7 is_stmt 0               # ldecod_src/io_tiff.c:473:7
	je	.LBB4_101
.Ltmp273:
# %bb.9:                                # %if.end9.i.i
	#DEBUG_VALUE: ReadTIFFImage:p_Inp <- $r13
	#DEBUG_VALUE: ReadTIFFImage:input_file <- [DW_OP_LLVM_entry_value 1] $rsi
	#DEBUG_VALUE: ReadTIFFImage:FrameNoInFile <- [DW_OP_LLVM_entry_value 1] $edx
	#DEBUG_VALUE: ReadTIFFImage:source <- $r15
	#DEBUG_VALUE: ReadTIFFImage:buf <- $r14
	#DEBUG_VALUE: ReadTIFFImage:temp <- 0
	#DEBUG_VALUE: ReadTIFFImage:temp2 <- 0
	#DEBUG_VALUE: readTiff:path <- [DW_OP_plus_uconst 1280, DW_OP_stack_value] $rsp
	#DEBUG_VALUE: readFileIntoMemory:path <- [DW_OP_plus_uconst 1280, DW_OP_stack_value] $rsp
	#DEBUG_VALUE: readFileIntoMemory:endian <- [DW_OP_LLVM_fragment 0 8] 1
	#DEBUG_VALUE: readFileIntoMemory:endian <- [DW_OP_LLVM_fragment 8 24] 0
	#DEBUG_VALUE: readFileIntoMemory:machineLittleEndian <- 1
	#DEBUG_VALUE: readFileIntoMemory:fd <- $ebp
	#DEBUG_VALUE: readFileIntoMemory:cnt <- $rax
	.loc	0 0 0                           # ldecod_src/io_tiff.c:0:0
	movq	%rax, %r12
.Ltmp274:
	.loc	0 476 7 is_stmt 1               # ldecod_src/io_tiff.c:476:7
	movl	%ebp, %edi
	xorl	%esi, %esi
	xorl	%edx, %edx
	callq	lseek@PLT
.Ltmp275:
	#DEBUG_VALUE: readFileIntoMemory:cnt <- $r12
	.loc	0 476 31 is_stmt 0              # ldecod_src/io_tiff.c:476:31
	cmpq	$-1, %rax
.Ltmp276:
	.loc	0 476 7                         # ldecod_src/io_tiff.c:476:7
	je	.LBB4_101
.Ltmp277:
# %bb.10:                               # %if.end14.i.i
	#DEBUG_VALUE: ReadTIFFImage:p_Inp <- $r13
	#DEBUG_VALUE: ReadTIFFImage:input_file <- [DW_OP_LLVM_entry_value 1] $rsi
	#DEBUG_VALUE: ReadTIFFImage:FrameNoInFile <- [DW_OP_LLVM_entry_value 1] $edx
	#DEBUG_VALUE: ReadTIFFImage:source <- $r15
	#DEBUG_VALUE: ReadTIFFImage:buf <- $r14
	#DEBUG_VALUE: ReadTIFFImage:temp <- 0
	#DEBUG_VALUE: ReadTIFFImage:temp2 <- 0
	#DEBUG_VALUE: readTiff:path <- [DW_OP_plus_uconst 1280, DW_OP_stack_value] $rsp
	#DEBUG_VALUE: readFileIntoMemory:path <- [DW_OP_plus_uconst 1280, DW_OP_stack_value] $rsp
	#DEBUG_VALUE: readFileIntoMemory:endian <- [DW_OP_LLVM_fragment 0 8] 1
	#DEBUG_VALUE: readFileIntoMemory:endian <- [DW_OP_LLVM_fragment 8 24] 0
	#DEBUG_VALUE: readFileIntoMemory:machineLittleEndian <- 1
	#DEBUG_VALUE: readFileIntoMemory:fd <- $ebp
	#DEBUG_VALUE: readFileIntoMemory:cnt <- $r12
	.loc	0 479 43 is_stmt 1              # ldecod_src/io_tiff.c:479:43
	movq	ReadTIFFImage.t+8(%rip), %rdi
	.loc	0 479 31 is_stmt 0              # ldecod_src/io_tiff.c:479:31
	movq	%r12, %rsi
	callq	realloc@PLT
.Ltmp278:
	.loc	0 479 19                        # ldecod_src/io_tiff.c:479:19
	movq	%rax, ReadTIFFImage.t+8(%rip)
.Ltmp279:
	.loc	0 480 23 is_stmt 1              # ldecod_src/io_tiff.c:480:23
	testq	%rax, %rax
.Ltmp280:
	.loc	0 480 7 is_stmt 0               # ldecod_src/io_tiff.c:480:7
	je	.LBB4_15
.Ltmp281:
# %bb.11:                               # %if.end22.i.i
	#DEBUG_VALUE: ReadTIFFImage:p_Inp <- $r13
	#DEBUG_VALUE: ReadTIFFImage:input_file <- [DW_OP_LLVM_entry_value 1] $rsi
	#DEBUG_VALUE: ReadTIFFImage:FrameNoInFile <- [DW_OP_LLVM_entry_value 1] $edx
	#DEBUG_VALUE: ReadTIFFImage:source <- $r15
	#DEBUG_VALUE: ReadTIFFImage:buf <- $r14
	#DEBUG_VALUE: ReadTIFFImage:temp <- 0
	#DEBUG_VALUE: ReadTIFFImage:temp2 <- 0
	#DEBUG_VALUE: readTiff:path <- [DW_OP_plus_uconst 1280, DW_OP_stack_value] $rsp
	#DEBUG_VALUE: readFileIntoMemory:path <- [DW_OP_plus_uconst 1280, DW_OP_stack_value] $rsp
	#DEBUG_VALUE: readFileIntoMemory:endian <- [DW_OP_LLVM_fragment 0 8] 1
	#DEBUG_VALUE: readFileIntoMemory:endian <- [DW_OP_LLVM_fragment 8 24] 0
	#DEBUG_VALUE: readFileIntoMemory:machineLittleEndian <- 1
	#DEBUG_VALUE: readFileIntoMemory:fd <- $ebp
	#DEBUG_VALUE: readFileIntoMemory:cnt <- $r12
	.loc	0 486 19 is_stmt 1              # ldecod_src/io_tiff.c:486:19
	movl	%ebp, %edi
	movq	%rax, %rsi
	movq	%r12, %rdx
	callq	read@PLT
.Ltmp282:
	.loc	0 0 19 is_stmt 0                # ldecod_src/io_tiff.c:0:19
	movq	%rbx, 296(%rsp)                 # 8-byte Spill
	.loc	0 486 19                        # ldecod_src/io_tiff.c:486:19
	movq	%rax, %rbx
.Ltmp283:
	#DEBUG_VALUE: readFileIntoMemory:result <- $rbx
	.loc	0 0 0                           # ldecod_src/io_tiff.c:0:0
	movl	%ebp, %edi
	callq	close@PLT
.Ltmp284:
	.loc	0 487 14 is_stmt 1              # ldecod_src/io_tiff.c:487:14
	cmpq	%r12, %rbx
.Ltmp285:
	.loc	0 487 7 is_stmt 0               # ldecod_src/io_tiff.c:487:7
	jne	.LBB4_101
.Ltmp286:
# %bb.12:                               # %if.end29.i.i
	#DEBUG_VALUE: ReadTIFFImage:p_Inp <- $r13
	#DEBUG_VALUE: ReadTIFFImage:input_file <- [DW_OP_LLVM_entry_value 1] $rsi
	#DEBUG_VALUE: ReadTIFFImage:FrameNoInFile <- [DW_OP_LLVM_entry_value 1] $edx
	#DEBUG_VALUE: ReadTIFFImage:source <- $r15
	#DEBUG_VALUE: ReadTIFFImage:buf <- $r14
	#DEBUG_VALUE: ReadTIFFImage:temp <- 0
	#DEBUG_VALUE: ReadTIFFImage:temp2 <- 0
	#DEBUG_VALUE: readTiff:path <- [DW_OP_plus_uconst 1280, DW_OP_stack_value] $rsp
	#DEBUG_VALUE: readFileIntoMemory:path <- [DW_OP_plus_uconst 1280, DW_OP_stack_value] $rsp
	#DEBUG_VALUE: readFileIntoMemory:endian <- [DW_OP_LLVM_fragment 0 8] 1
	#DEBUG_VALUE: readFileIntoMemory:endian <- [DW_OP_LLVM_fragment 8 24] 0
	#DEBUG_VALUE: readFileIntoMemory:machineLittleEndian <- 1
	#DEBUG_VALUE: readFileIntoMemory:fd <- $ebp
	#DEBUG_VALUE: readFileIntoMemory:cnt <- $r12
	#DEBUG_VALUE: readFileIntoMemory:result <- $rbx
	.loc	0 495 19 is_stmt 1              # ldecod_src/io_tiff.c:495:19
	movq	ReadTIFFImage.t+8(%rip), %rax
	.loc	0 495 41 is_stmt 0              # ldecod_src/io_tiff.c:495:41
	movzwl	(%rax), %ecx
	rolw	$8, %cx
	movzwl	%cx, %ecx
.Ltmp287:
	#DEBUG_VALUE: readFileIntoMemory:byteOrder <- undef
	.loc	0 496 3 is_stmt 1               # ldecod_src/io_tiff.c:496:3
	cmpl	$18761, %ecx                    # imm = 0x4949
	je	.LBB4_17
.Ltmp288:
# %bb.13:                               # %if.end29.i.i
	#DEBUG_VALUE: ReadTIFFImage:p_Inp <- $r13
	#DEBUG_VALUE: ReadTIFFImage:input_file <- [DW_OP_LLVM_entry_value 1] $rsi
	#DEBUG_VALUE: ReadTIFFImage:FrameNoInFile <- [DW_OP_LLVM_entry_value 1] $edx
	#DEBUG_VALUE: ReadTIFFImage:source <- $r15
	#DEBUG_VALUE: ReadTIFFImage:buf <- $r14
	#DEBUG_VALUE: ReadTIFFImage:temp <- 0
	#DEBUG_VALUE: ReadTIFFImage:temp2 <- 0
	#DEBUG_VALUE: readTiff:path <- [DW_OP_plus_uconst 1280, DW_OP_stack_value] $rsp
	#DEBUG_VALUE: readFileIntoMemory:path <- [DW_OP_plus_uconst 1280, DW_OP_stack_value] $rsp
	#DEBUG_VALUE: readFileIntoMemory:endian <- [DW_OP_LLVM_fragment 0 8] 1
	#DEBUG_VALUE: readFileIntoMemory:endian <- [DW_OP_LLVM_fragment 8 24] 0
	#DEBUG_VALUE: readFileIntoMemory:machineLittleEndian <- 1
	#DEBUG_VALUE: readFileIntoMemory:fd <- $ebp
	#DEBUG_VALUE: readFileIntoMemory:cnt <- $r12
	#DEBUG_VALUE: readFileIntoMemory:result <- $rbx
	cmpl	$19789, %ecx                    # imm = 0x4D4D
	jne	.LBB4_127
.Ltmp289:
# %bb.14:
	#DEBUG_VALUE: ReadTIFFImage:p_Inp <- $r13
	#DEBUG_VALUE: ReadTIFFImage:input_file <- [DW_OP_LLVM_entry_value 1] $rsi
	#DEBUG_VALUE: ReadTIFFImage:FrameNoInFile <- [DW_OP_LLVM_entry_value 1] $edx
	#DEBUG_VALUE: ReadTIFFImage:source <- $r15
	#DEBUG_VALUE: ReadTIFFImage:buf <- $r14
	#DEBUG_VALUE: ReadTIFFImage:temp <- 0
	#DEBUG_VALUE: ReadTIFFImage:temp2 <- 0
	#DEBUG_VALUE: readTiff:path <- [DW_OP_plus_uconst 1280, DW_OP_stack_value] $rsp
	#DEBUG_VALUE: readFileIntoMemory:path <- [DW_OP_plus_uconst 1280, DW_OP_stack_value] $rsp
	#DEBUG_VALUE: readFileIntoMemory:endian <- [DW_OP_LLVM_fragment 0 8] 1
	#DEBUG_VALUE: readFileIntoMemory:endian <- [DW_OP_LLVM_fragment 8 24] 0
	#DEBUG_VALUE: readFileIntoMemory:machineLittleEndian <- 1
	#DEBUG_VALUE: readFileIntoMemory:fd <- $ebp
	#DEBUG_VALUE: readFileIntoMemory:cnt <- $r12
	#DEBUG_VALUE: readFileIntoMemory:result <- $rbx
	.loc	0 0 3 is_stmt 0                 # ldecod_src/io_tiff.c:0:3
	movl	$getSwappedU32, %edx
	movl	$getSwappedU16, %ecx
	xorl	%esi, %esi
	.loc	0 496 3                         # ldecod_src/io_tiff.c:496:3
	jmp	.LBB4_18
.Ltmp290:
.LBB4_15:                               # %if.then20.i.i
	#DEBUG_VALUE: ReadTIFFImage:p_Inp <- $r13
	#DEBUG_VALUE: ReadTIFFImage:input_file <- [DW_OP_LLVM_entry_value 1] $rsi
	#DEBUG_VALUE: ReadTIFFImage:FrameNoInFile <- [DW_OP_LLVM_entry_value 1] $edx
	#DEBUG_VALUE: ReadTIFFImage:source <- $r15
	#DEBUG_VALUE: ReadTIFFImage:buf <- $r14
	#DEBUG_VALUE: ReadTIFFImage:temp <- 0
	#DEBUG_VALUE: ReadTIFFImage:temp2 <- 0
	#DEBUG_VALUE: readTiff:path <- [DW_OP_plus_uconst 1280, DW_OP_stack_value] $rsp
	#DEBUG_VALUE: readFileIntoMemory:path <- [DW_OP_plus_uconst 1280, DW_OP_stack_value] $rsp
	#DEBUG_VALUE: readFileIntoMemory:endian <- [DW_OP_LLVM_fragment 0 8] 1
	#DEBUG_VALUE: readFileIntoMemory:endian <- [DW_OP_LLVM_fragment 8 24] 0
	#DEBUG_VALUE: readFileIntoMemory:machineLittleEndian <- 1
	#DEBUG_VALUE: readFileIntoMemory:fd <- $ebp
	#DEBUG_VALUE: readFileIntoMemory:cnt <- $r12
	.loc	0 482 5 is_stmt 1               # ldecod_src/io_tiff.c:482:5
	movl	%ebp, %edi
	callq	close@PLT
.Ltmp291:
	.loc	0 483 5                         # ldecod_src/io_tiff.c:483:5
	jmp	.LBB4_101
.Ltmp292:
.LBB4_16:                               # %if.then.i.i
	#DEBUG_VALUE: ReadTIFFImage:p_Inp <- $r13
	#DEBUG_VALUE: ReadTIFFImage:input_file <- [DW_OP_LLVM_entry_value 1] $rsi
	#DEBUG_VALUE: ReadTIFFImage:FrameNoInFile <- [DW_OP_LLVM_entry_value 1] $edx
	#DEBUG_VALUE: ReadTIFFImage:source <- $r15
	#DEBUG_VALUE: ReadTIFFImage:buf <- $r14
	#DEBUG_VALUE: ReadTIFFImage:temp <- 0
	#DEBUG_VALUE: ReadTIFFImage:temp2 <- 0
	#DEBUG_VALUE: readTiff:path <- [DW_OP_plus_uconst 1280, DW_OP_stack_value] $rsp
	#DEBUG_VALUE: readFileIntoMemory:path <- [DW_OP_plus_uconst 1280, DW_OP_stack_value] $rsp
	#DEBUG_VALUE: readFileIntoMemory:endian <- [DW_OP_LLVM_fragment 0 8] 1
	#DEBUG_VALUE: readFileIntoMemory:endian <- [DW_OP_LLVM_fragment 8 24] 0
	#DEBUG_VALUE: readFileIntoMemory:machineLittleEndian <- 1
	#DEBUG_VALUE: readFileIntoMemory:fd <- $eax
	.loc	0 468 14                        # ldecod_src/io_tiff.c:468:14
	movq	stderr@GOTPCREL(%rip), %rax
.Ltmp293:
	movq	(%rax), %rdi
	leaq	1280(%rsp), %rdx
	.loc	0 468 5 is_stmt 0               # ldecod_src/io_tiff.c:468:5
	movl	$.L.str.9, %esi
	xorl	%eax, %eax
	callq	fprintf@PLT
.Ltmp294:
	.loc	0 469 5 is_stmt 1               # ldecod_src/io_tiff.c:469:5
	jmp	.LBB4_101
.Ltmp295:
.LBB4_17:
	#DEBUG_VALUE: ReadTIFFImage:p_Inp <- $r13
	#DEBUG_VALUE: ReadTIFFImage:input_file <- [DW_OP_LLVM_entry_value 1] $rsi
	#DEBUG_VALUE: ReadTIFFImage:FrameNoInFile <- [DW_OP_LLVM_entry_value 1] $edx
	#DEBUG_VALUE: ReadTIFFImage:source <- $r15
	#DEBUG_VALUE: ReadTIFFImage:buf <- $r14
	#DEBUG_VALUE: ReadTIFFImage:temp <- 0
	#DEBUG_VALUE: ReadTIFFImage:temp2 <- 0
	#DEBUG_VALUE: readTiff:path <- [DW_OP_plus_uconst 1280, DW_OP_stack_value] $rsp
	#DEBUG_VALUE: readFileIntoMemory:path <- [DW_OP_plus_uconst 1280, DW_OP_stack_value] $rsp
	#DEBUG_VALUE: readFileIntoMemory:endian <- [DW_OP_LLVM_fragment 0 8] 1
	#DEBUG_VALUE: readFileIntoMemory:endian <- [DW_OP_LLVM_fragment 8 24] 0
	#DEBUG_VALUE: readFileIntoMemory:machineLittleEndian <- 1
	#DEBUG_VALUE: readFileIntoMemory:fd <- $ebp
	#DEBUG_VALUE: readFileIntoMemory:cnt <- $r12
	#DEBUG_VALUE: readFileIntoMemory:result <- $rbx
	.loc	0 0 5 is_stmt 0                 # ldecod_src/io_tiff.c:0:5
	movl	$getU32, %edx
	movl	$getU16, %ecx
	movl	$1, %esi
.Ltmp296:
.LBB4_18:                               # %if.end.i
	#DEBUG_VALUE: ReadTIFFImage:p_Inp <- $r13
	#DEBUG_VALUE: ReadTIFFImage:input_file <- [DW_OP_LLVM_entry_value 1] $rsi
	#DEBUG_VALUE: ReadTIFFImage:FrameNoInFile <- [DW_OP_LLVM_entry_value 1] $edx
	#DEBUG_VALUE: ReadTIFFImage:source <- $r15
	#DEBUG_VALUE: ReadTIFFImage:buf <- $r14
	#DEBUG_VALUE: ReadTIFFImage:temp <- 0
	#DEBUG_VALUE: ReadTIFFImage:temp2 <- 0
	#DEBUG_VALUE: readTiff:path <- [DW_OP_plus_uconst 1280, DW_OP_stack_value] $rsp
	#DEBUG_VALUE: readFileIntoMemory:path <- [DW_OP_plus_uconst 1280, DW_OP_stack_value] $rsp
	#DEBUG_VALUE: readFileIntoMemory:endian <- [DW_OP_LLVM_fragment 0 8] 1
	#DEBUG_VALUE: readFileIntoMemory:endian <- [DW_OP_LLVM_fragment 8 24] 0
	#DEBUG_VALUE: readFileIntoMemory:machineLittleEndian <- 1
	#DEBUG_VALUE: readFileIntoMemory:fd <- $ebp
	#DEBUG_VALUE: readFileIntoMemory:cnt <- $r12
	#DEBUG_VALUE: readFileIntoMemory:result <- $rbx
	leaq	1(%rax), %rdi
.Ltmp297:
	movl	%esi, ReadTIFFImage.t+24(%rip)
.Ltmp298:
	movq	%rcx, ReadTIFFImage.t+8728(%rip)
	movq	%rdx, ReadTIFFImage.t+8736(%rip)
.Ltmp299:
	#DEBUG_VALUE: readImageFileHeader:t <- undef
	#DEBUG_VALUE: getU16:t <- undef
	.loc	0 209 19 is_stmt 1              # ldecod_src/io_tiff.c:209:19
	movq	%rdi, ReadTIFFImage.t+16(%rip)
	.loc	0 209 13 is_stmt 0              # ldecod_src/io_tiff.c:209:13
	movzbl	(%rax), %edx
.Ltmp300:
	#DEBUG_VALUE: getU16:u <- [DW_OP_LLVM_fragment 0 8] undef
	.loc	0 210 19 is_stmt 1              # ldecod_src/io_tiff.c:210:19
	leaq	2(%rax), %rsi
	movq	%rsi, ReadTIFFImage.t+16(%rip)
.Ltmp301:
	#DEBUG_VALUE: getU16:u <- [DW_OP_LLVM_fragment 8 8] undef
	.loc	0 211 10                        # ldecod_src/io_tiff.c:211:10
	movzbl	1(%rax), %esi
	shll	$8, %esi
	orl	%edx, %esi
.Ltmp302:
	.loc	0 609 20                        # ldecod_src/io_tiff.c:609:20
	movw	%si, ReadTIFFImage.t+32(%rip)
.Ltmp303:
	#DEBUG_VALUE: getU16:t <- undef
	.loc	0 209 19                        # ldecod_src/io_tiff.c:209:19
	leaq	3(%rax), %rdx
	movq	%rdx, ReadTIFFImage.t+16(%rip)
	.loc	0 209 13 is_stmt 0              # ldecod_src/io_tiff.c:209:13
	movzbl	2(%rax), %esi
.Ltmp304:
	#DEBUG_VALUE: getU16:u <- [DW_OP_LLVM_fragment 0 8] undef
	.loc	0 210 19 is_stmt 1              # ldecod_src/io_tiff.c:210:19
	leaq	4(%rax), %rdx
	movq	%rdx, ReadTIFFImage.t+16(%rip)
.Ltmp305:
	#DEBUG_VALUE: getU16:u <- [DW_OP_LLVM_fragment 8 8] undef
	.loc	0 211 10                        # ldecod_src/io_tiff.c:211:10
	movzbl	3(%rax), %edx
	shll	$8, %edx
	orl	%esi, %edx
.Ltmp306:
	.loc	0 610 26                        # ldecod_src/io_tiff.c:610:26
	movw	%dx, ReadTIFFImage.t+34(%rip)
.Ltmp307:
	#DEBUG_VALUE: getU32:t <- undef
	.loc	0 228 19                        # ldecod_src/io_tiff.c:228:19
	leaq	5(%rax), %rsi
	movq	%rsi, ReadTIFFImage.t+16(%rip)
	.loc	0 228 13 is_stmt 0              # ldecod_src/io_tiff.c:228:13
	movzbl	4(%rax), %edi
.Ltmp308:
	#DEBUG_VALUE: getU32:u <- [DW_OP_LLVM_fragment 0 8] undef
	.loc	0 229 19 is_stmt 1              # ldecod_src/io_tiff.c:229:19
	leaq	6(%rax), %rsi
	movq	%rsi, ReadTIFFImage.t+16(%rip)
	.loc	0 229 13 is_stmt 0              # ldecod_src/io_tiff.c:229:13
	movzbl	5(%rax), %esi
.Ltmp309:
	#DEBUG_VALUE: getU32:u <- [DW_OP_LLVM_fragment 8 8] undef
	.loc	0 230 19 is_stmt 1              # ldecod_src/io_tiff.c:230:19
	leaq	7(%rax), %r8
	movq	%r8, ReadTIFFImage.t+16(%rip)
	.loc	0 230 13 is_stmt 0              # ldecod_src/io_tiff.c:230:13
	movzbl	6(%rax), %r8d
.Ltmp310:
	#DEBUG_VALUE: getU32:u <- [DW_OP_LLVM_fragment 16 8] undef
	.loc	0 231 19 is_stmt 1              # ldecod_src/io_tiff.c:231:19
	leaq	8(%rax), %r9
	movq	%r9, ReadTIFFImage.t+16(%rip)
.Ltmp311:
	#DEBUG_VALUE: getU32:u <- [DW_OP_LLVM_fragment 24 8] undef
	.loc	0 233 1                         # ldecod_src/io_tiff.c:233:1
	movzbl	7(%rax), %r9d
	shll	$24, %r9d
	shll	$16, %r8d
	shll	$8, %esi
	orl	%edi, %esi
	orl	%r8d, %esi
	orl	%r9d, %esi
.Ltmp312:
	.loc	0 611 17                        # ldecod_src/io_tiff.c:611:17
	movl	%esi, ReadTIFFImage.t+36(%rip)
.Ltmp313:
	.loc	0 612 30                        # ldecod_src/io_tiff.c:612:30
	cmpw	$42, %dx
.Ltmp314:
	.loc	0 612 7 is_stmt 0               # ldecod_src/io_tiff.c:612:7
	jne	.LBB4_100
.Ltmp315:
# %bb.19:                               # %if.end4.i
	#DEBUG_VALUE: ReadTIFFImage:p_Inp <- $r13
	#DEBUG_VALUE: ReadTIFFImage:input_file <- [DW_OP_LLVM_entry_value 1] $rsi
	#DEBUG_VALUE: ReadTIFFImage:FrameNoInFile <- [DW_OP_LLVM_entry_value 1] $edx
	#DEBUG_VALUE: ReadTIFFImage:source <- $r15
	#DEBUG_VALUE: ReadTIFFImage:buf <- $r14
	#DEBUG_VALUE: ReadTIFFImage:temp <- 0
	#DEBUG_VALUE: ReadTIFFImage:temp2 <- 0
	#DEBUG_VALUE: readTiff:path <- [DW_OP_plus_uconst 1280, DW_OP_stack_value] $rsp
	.loc	0 0 7                           # ldecod_src/io_tiff.c:0:7
	movq	%r15, 136(%rsp)                 # 8-byte Spill
.Ltmp316:
	#DEBUG_VALUE: ReadTIFFImage:source <- [DW_OP_plus_uconst 136] [$rsp+0]
	.loc	0 617 27 is_stmt 1              # ldecod_src/io_tiff.c:617:27
	movl	%esi, %edx
	addq	%rdx, %rax
	.loc	0 617 9 is_stmt 0               # ldecod_src/io_tiff.c:617:9
	movq	%rax, ReadTIFFImage.t+16(%rip)
.Ltmp317:
	#DEBUG_VALUE: readImageFileDirectory:t <- undef
	.loc	0 590 21 is_stmt 1              # ldecod_src/io_tiff.c:590:21
	movl	$ReadTIFFImage.t, %edi
	callq	*%rcx
.Ltmp318:
	#DEBUG_VALUE: readImageFileDirectory:nEntries <- $eax
	#DEBUG_VALUE: readImageFileDirectory:i <- 0
	.loc	0 592 15                        # ldecod_src/io_tiff.c:592:15
	testl	%eax, %eax
.Ltmp319:
	.loc	0 592 3 is_stmt 0               # ldecod_src/io_tiff.c:592:3
	je	.LBB4_47
.Ltmp320:
# %bb.20:                               # %for.body.i.i.preheader
	#DEBUG_VALUE: ReadTIFFImage:p_Inp <- $r13
	#DEBUG_VALUE: ReadTIFFImage:input_file <- [DW_OP_LLVM_entry_value 1] $rsi
	#DEBUG_VALUE: ReadTIFFImage:FrameNoInFile <- [DW_OP_LLVM_entry_value 1] $edx
	#DEBUG_VALUE: ReadTIFFImage:source <- [DW_OP_plus_uconst 136] [$rsp+0]
	#DEBUG_VALUE: ReadTIFFImage:buf <- $r14
	#DEBUG_VALUE: ReadTIFFImage:temp <- 0
	#DEBUG_VALUE: ReadTIFFImage:temp2 <- 0
	#DEBUG_VALUE: readTiff:path <- [DW_OP_plus_uconst 1280, DW_OP_stack_value] $rsp
	#DEBUG_VALUE: readImageFileDirectory:nEntries <- $eax
	#DEBUG_VALUE: readImageFileDirectory:i <- 0
	.loc	0 0 3                           # ldecod_src/io_tiff.c:0:3
	movl	%eax, %ebp
	jmp	.LBB4_23
.Ltmp321:
.LBB4_21:                               # %sw.bb.i.i.i
                                        #   in Loop: Header=BB4_23 Depth=1
	#DEBUG_VALUE: ReadTIFFImage:p_Inp <- $r13
	#DEBUG_VALUE: ReadTIFFImage:input_file <- [DW_OP_LLVM_entry_value 1] $rsi
	#DEBUG_VALUE: ReadTIFFImage:FrameNoInFile <- [DW_OP_LLVM_entry_value 1] $edx
	#DEBUG_VALUE: ReadTIFFImage:source <- [DW_OP_plus_uconst 136] [$rsp+0]
	#DEBUG_VALUE: ReadTIFFImage:buf <- $r14
	#DEBUG_VALUE: ReadTIFFImage:temp <- 0
	#DEBUG_VALUE: ReadTIFFImage:temp2 <- 0
	#DEBUG_VALUE: readTiff:path <- [DW_OP_plus_uconst 1280, DW_OP_stack_value] $rsp
	#DEBUG_VALUE: readDirectoryEntry:type <- $r12d
	#DEBUG_VALUE: readDirectoryEntry:count <- $r15d
	#DEBUG_VALUE: readDirectoryEntry:offset <- $eax
	.loc	0 337 19 is_stmt 1              # ldecod_src/io_tiff.c:337:19
	movl	%eax, ReadTIFFImage.t+64(%rip)
.Ltmp322:
	.p2align	4, 0x90
.LBB4_22:                               # %readDirectoryEntry.exit.i.i
                                        #   in Loop: Header=BB4_23 Depth=1
	#DEBUG_VALUE: ReadTIFFImage:p_Inp <- $r13
	#DEBUG_VALUE: ReadTIFFImage:input_file <- [DW_OP_LLVM_entry_value 1] $rsi
	#DEBUG_VALUE: ReadTIFFImage:FrameNoInFile <- [DW_OP_LLVM_entry_value 1] $edx
	#DEBUG_VALUE: ReadTIFFImage:source <- [DW_OP_plus_uconst 136] [$rsp+0]
	#DEBUG_VALUE: ReadTIFFImage:buf <- $r14
	#DEBUG_VALUE: ReadTIFFImage:temp <- 0
	#DEBUG_VALUE: ReadTIFFImage:temp2 <- 0
	#DEBUG_VALUE: readTiff:path <- [DW_OP_plus_uconst 1280, DW_OP_stack_value] $rsp
	#DEBUG_VALUE: readImageFileDirectory:i <- [DW_OP_LLVM_arg 0, DW_OP_LLVM_arg 1, DW_OP_minus, DW_OP_consts 18446744073709551615, DW_OP_div, DW_OP_consts 1, DW_OP_plus, DW_OP_stack_value] undef, undef
	.loc	0 592 15                        # ldecod_src/io_tiff.c:592:15
	decl	%ebp
.Ltmp323:
	.loc	0 592 3 is_stmt 0               # ldecod_src/io_tiff.c:592:3
	je	.LBB4_47
.Ltmp324:
.LBB4_23:                               # %for.body.i.i
                                        # =>This Inner Loop Header: Depth=1
	#DEBUG_VALUE: ReadTIFFImage:p_Inp <- $r13
	#DEBUG_VALUE: ReadTIFFImage:input_file <- [DW_OP_LLVM_entry_value 1] $rsi
	#DEBUG_VALUE: ReadTIFFImage:FrameNoInFile <- [DW_OP_LLVM_entry_value 1] $edx
	#DEBUG_VALUE: ReadTIFFImage:source <- [DW_OP_plus_uconst 136] [$rsp+0]
	#DEBUG_VALUE: ReadTIFFImage:buf <- $r14
	#DEBUG_VALUE: ReadTIFFImage:temp <- 0
	#DEBUG_VALUE: ReadTIFFImage:temp2 <- 0
	#DEBUG_VALUE: readTiff:path <- [DW_OP_plus_uconst 1280, DW_OP_stack_value] $rsp
	#DEBUG_VALUE: readImageFileDirectory:i <- [DW_OP_LLVM_arg 0, DW_OP_LLVM_arg 1, DW_OP_minus, DW_OP_consts 18446744073709551615, DW_OP_div, DW_OP_stack_value] undef, undef
	#DEBUG_VALUE: readDirectoryEntry:t <- undef
	.loc	0 327 21 is_stmt 1              # ldecod_src/io_tiff.c:327:21
	movl	$ReadTIFFImage.t, %edi
	callq	*ReadTIFFImage.t+8728(%rip)
.Ltmp325:
	movl	%eax, %ebx
.Ltmp326:
	#DEBUG_VALUE: readDirectoryEntry:tag <- $ebx
	.loc	0 328 32                        # ldecod_src/io_tiff.c:328:32
	movl	$ReadTIFFImage.t, %edi
	callq	*ReadTIFFImage.t+8728(%rip)
.Ltmp327:
	movl	%eax, %r12d
.Ltmp328:
	#DEBUG_VALUE: readDirectoryEntry:type <- $r12d
	.loc	0 329 21                        # ldecod_src/io_tiff.c:329:21
	movl	$ReadTIFFImage.t, %edi
	callq	*ReadTIFFImage.t+8736(%rip)
.Ltmp329:
	movl	%eax, %r15d
.Ltmp330:
	#DEBUG_VALUE: readDirectoryEntry:count <- $r15d
	.loc	0 330 21                        # ldecod_src/io_tiff.c:330:21
	movl	$ReadTIFFImage.t, %edi
	callq	*ReadTIFFImage.t+8736(%rip)
.Ltmp331:
	#DEBUG_VALUE: readDirectoryEntry:offset <- $eax
	.loc	0 332 3                         # ldecod_src/io_tiff.c:332:3
	addl	$-256, %ebx
.Ltmp332:
	cmpl	$27, %ebx
	ja	.LBB4_22
.Ltmp333:
# %bb.24:                               # %for.body.i.i
                                        #   in Loop: Header=BB4_23 Depth=1
	#DEBUG_VALUE: ReadTIFFImage:p_Inp <- $r13
	#DEBUG_VALUE: ReadTIFFImage:input_file <- [DW_OP_LLVM_entry_value 1] $rsi
	#DEBUG_VALUE: ReadTIFFImage:FrameNoInFile <- [DW_OP_LLVM_entry_value 1] $edx
	#DEBUG_VALUE: ReadTIFFImage:source <- [DW_OP_plus_uconst 136] [$rsp+0]
	#DEBUG_VALUE: ReadTIFFImage:buf <- $r14
	#DEBUG_VALUE: ReadTIFFImage:temp <- 0
	#DEBUG_VALUE: ReadTIFFImage:temp2 <- 0
	#DEBUG_VALUE: readTiff:path <- [DW_OP_plus_uconst 1280, DW_OP_stack_value] $rsp
	#DEBUG_VALUE: readDirectoryEntry:type <- $r12d
	#DEBUG_VALUE: readDirectoryEntry:count <- $r15d
	#DEBUG_VALUE: readDirectoryEntry:offset <- $eax
	jmpq	*.LJTI4_0(,%rbx,8)
.Ltmp334:
.LBB4_25:                               # %sw.bb6.i.i.i
                                        #   in Loop: Header=BB4_23 Depth=1
	#DEBUG_VALUE: ReadTIFFImage:p_Inp <- $r13
	#DEBUG_VALUE: ReadTIFFImage:input_file <- [DW_OP_LLVM_entry_value 1] $rsi
	#DEBUG_VALUE: ReadTIFFImage:FrameNoInFile <- [DW_OP_LLVM_entry_value 1] $edx
	#DEBUG_VALUE: ReadTIFFImage:source <- [DW_OP_plus_uconst 136] [$rsp+0]
	#DEBUG_VALUE: ReadTIFFImage:buf <- $r14
	#DEBUG_VALUE: ReadTIFFImage:temp <- 0
	#DEBUG_VALUE: ReadTIFFImage:temp2 <- 0
	#DEBUG_VALUE: readTiff:path <- [DW_OP_plus_uconst 1280, DW_OP_stack_value] $rsp
	#DEBUG_VALUE: readDirectoryEntry:type <- $r12d
	#DEBUG_VALUE: readDirectoryEntry:count <- $r15d
	#DEBUG_VALUE: readDirectoryEntry:offset <- $eax
	.loc	0 342 20                        # ldecod_src/io_tiff.c:342:20
	movl	%eax, ReadTIFFImage.t+60(%rip)
.Ltmp335:
	.loc	0 343 16                        # ldecod_src/io_tiff.c:343:16
	cmpl	$1081, %eax                     # imm = 0x439
.Ltmp336:
	.loc	0 343 9 is_stmt 0               # ldecod_src/io_tiff.c:343:9
	jb	.LBB4_22
.Ltmp337:
# %bb.26:                               # %if.then.i.i.i
                                        #   in Loop: Header=BB4_23 Depth=1
	#DEBUG_VALUE: ReadTIFFImage:p_Inp <- $r13
	#DEBUG_VALUE: ReadTIFFImage:input_file <- [DW_OP_LLVM_entry_value 1] $rsi
	#DEBUG_VALUE: ReadTIFFImage:FrameNoInFile <- [DW_OP_LLVM_entry_value 1] $edx
	#DEBUG_VALUE: ReadTIFFImage:source <- [DW_OP_plus_uconst 136] [$rsp+0]
	#DEBUG_VALUE: ReadTIFFImage:buf <- $r14
	#DEBUG_VALUE: ReadTIFFImage:temp <- 0
	#DEBUG_VALUE: ReadTIFFImage:temp2 <- 0
	#DEBUG_VALUE: readTiff:path <- [DW_OP_plus_uconst 1280, DW_OP_stack_value] $rsp
	#DEBUG_VALUE: readDirectoryEntry:type <- $r12d
	#DEBUG_VALUE: readDirectoryEntry:count <- $r15d
	#DEBUG_VALUE: readDirectoryEntry:offset <- $eax
	.loc	0 345 16 is_stmt 1              # ldecod_src/io_tiff.c:345:16
	movq	stderr@GOTPCREL(%rip), %rcx
	movq	(%rcx), %rdi
	.loc	0 345 7 is_stmt 0               # ldecod_src/io_tiff.c:345:7
	movl	$.L.str.12, %esi
	movl	%eax, %edx
	movl	$1080, %ecx                     # imm = 0x438
	xorl	%eax, %eax
.Ltmp338:
	#DEBUG_VALUE: readDirectoryEntry:offset <- $edx
	callq	fprintf@PLT
.Ltmp339:
	.loc	0 346 7 is_stmt 1               # ldecod_src/io_tiff.c:346:7
	jmp	.LBB4_22
.Ltmp340:
.LBB4_27:                               # %sw.bb8.i.i.i
                                        #   in Loop: Header=BB4_23 Depth=1
	#DEBUG_VALUE: ReadTIFFImage:p_Inp <- $r13
	#DEBUG_VALUE: ReadTIFFImage:input_file <- [DW_OP_LLVM_entry_value 1] $rsi
	#DEBUG_VALUE: ReadTIFFImage:FrameNoInFile <- [DW_OP_LLVM_entry_value 1] $edx
	#DEBUG_VALUE: ReadTIFFImage:source <- [DW_OP_plus_uconst 136] [$rsp+0]
	#DEBUG_VALUE: ReadTIFFImage:buf <- $r14
	#DEBUG_VALUE: ReadTIFFImage:temp <- 0
	#DEBUG_VALUE: ReadTIFFImage:temp2 <- 0
	#DEBUG_VALUE: readTiff:path <- [DW_OP_plus_uconst 1280, DW_OP_stack_value] $rsp
	#DEBUG_VALUE: readDirectoryEntry:type <- $r12d
	#DEBUG_VALUE: readDirectoryEntry:count <- $r15d
	#DEBUG_VALUE: readDirectoryEntry:offset <- $eax
	.loc	0 350 15                        # ldecod_src/io_tiff.c:350:15
	cmpl	$3, %r15d
.Ltmp341:
	.loc	0 350 9 is_stmt 0               # ldecod_src/io_tiff.c:350:9
	jne	.LBB4_44
.Ltmp342:
# %bb.28:                               # %if.end12.i.i.i
                                        #   in Loop: Header=BB4_23 Depth=1
	#DEBUG_VALUE: ReadTIFFImage:p_Inp <- $r13
	#DEBUG_VALUE: ReadTIFFImage:input_file <- [DW_OP_LLVM_entry_value 1] $rsi
	#DEBUG_VALUE: ReadTIFFImage:FrameNoInFile <- [DW_OP_LLVM_entry_value 1] $edx
	#DEBUG_VALUE: ReadTIFFImage:source <- [DW_OP_plus_uconst 136] [$rsp+0]
	#DEBUG_VALUE: ReadTIFFImage:buf <- $r14
	#DEBUG_VALUE: ReadTIFFImage:temp <- 0
	#DEBUG_VALUE: ReadTIFFImage:temp2 <- 0
	#DEBUG_VALUE: readTiff:path <- [DW_OP_plus_uconst 1280, DW_OP_stack_value] $rsp
	#DEBUG_VALUE: readDirectoryEntry:type <- $r12d
	#DEBUG_VALUE: readDirectoryEntry:count <- $r15d
	#DEBUG_VALUE: readDirectoryEntry:offset <- $eax
	.loc	0 355 5 is_stmt 1               # ldecod_src/io_tiff.c:355:5
	movl	$ReadTIFFImage.t+44, %edx
	movl	%eax, %edi
	movl	%r12d, %esi
	movl	$3, %ecx
	callq	getIntArray
.Ltmp343:
	.loc	0 357 9                         # ldecod_src/io_tiff.c:357:9
	movl	ReadTIFFImage.t+44(%rip), %eax
	.loc	0 357 29 is_stmt 0              # ldecod_src/io_tiff.c:357:29
	cmpl	ReadTIFFImage.t+48(%rip), %eax
	.loc	0 357 52                        # ldecod_src/io_tiff.c:357:52
	jne	.LBB4_45
.Ltmp344:
# %bb.29:                               # %if.end12.i.i.i
                                        #   in Loop: Header=BB4_23 Depth=1
	#DEBUG_VALUE: ReadTIFFImage:p_Inp <- $r13
	#DEBUG_VALUE: ReadTIFFImage:input_file <- [DW_OP_LLVM_entry_value 1] $rsi
	#DEBUG_VALUE: ReadTIFFImage:FrameNoInFile <- [DW_OP_LLVM_entry_value 1] $edx
	#DEBUG_VALUE: ReadTIFFImage:source <- [DW_OP_plus_uconst 136] [$rsp+0]
	#DEBUG_VALUE: ReadTIFFImage:buf <- $r14
	#DEBUG_VALUE: ReadTIFFImage:temp <- 0
	#DEBUG_VALUE: ReadTIFFImage:temp2 <- 0
	#DEBUG_VALUE: readTiff:path <- [DW_OP_plus_uconst 1280, DW_OP_stack_value] $rsp
	#DEBUG_VALUE: readDirectoryEntry:type <- $r12d
	#DEBUG_VALUE: readDirectoryEntry:count <- $r15d
	cmpl	ReadTIFFImage.t+52(%rip), %eax
	jne	.LBB4_45
.Ltmp345:
# %bb.30:                               # %if.end24.i.i.i
                                        #   in Loop: Header=BB4_23 Depth=1
	#DEBUG_VALUE: ReadTIFFImage:p_Inp <- $r13
	#DEBUG_VALUE: ReadTIFFImage:input_file <- [DW_OP_LLVM_entry_value 1] $rsi
	#DEBUG_VALUE: ReadTIFFImage:FrameNoInFile <- [DW_OP_LLVM_entry_value 1] $edx
	#DEBUG_VALUE: ReadTIFFImage:source <- [DW_OP_plus_uconst 136] [$rsp+0]
	#DEBUG_VALUE: ReadTIFFImage:buf <- $r14
	#DEBUG_VALUE: ReadTIFFImage:temp <- 0
	#DEBUG_VALUE: ReadTIFFImage:temp2 <- 0
	#DEBUG_VALUE: readTiff:path <- [DW_OP_plus_uconst 1280, DW_OP_stack_value] $rsp
	#DEBUG_VALUE: readDirectoryEntry:type <- $r12d
	#DEBUG_VALUE: readDirectoryEntry:count <- $r15d
	.loc	0 362 34 is_stmt 1              # ldecod_src/io_tiff.c:362:34
	cmpl	$8, %eax
	je	.LBB4_22
.Ltmp346:
# %bb.31:                               # %if.end24.i.i.i
                                        #   in Loop: Header=BB4_23 Depth=1
	#DEBUG_VALUE: ReadTIFFImage:p_Inp <- $r13
	#DEBUG_VALUE: ReadTIFFImage:input_file <- [DW_OP_LLVM_entry_value 1] $rsi
	#DEBUG_VALUE: ReadTIFFImage:FrameNoInFile <- [DW_OP_LLVM_entry_value 1] $edx
	#DEBUG_VALUE: ReadTIFFImage:source <- [DW_OP_plus_uconst 136] [$rsp+0]
	#DEBUG_VALUE: ReadTIFFImage:buf <- $r14
	#DEBUG_VALUE: ReadTIFFImage:temp <- 0
	#DEBUG_VALUE: ReadTIFFImage:temp2 <- 0
	#DEBUG_VALUE: readTiff:path <- [DW_OP_plus_uconst 1280, DW_OP_stack_value] $rsp
	#DEBUG_VALUE: readDirectoryEntry:type <- $r12d
	#DEBUG_VALUE: readDirectoryEntry:count <- $r15d
	cmpl	$16, %eax
	je	.LBB4_22
.Ltmp347:
# %bb.32:                               # %if.then31.i.i.i
                                        #   in Loop: Header=BB4_23 Depth=1
	#DEBUG_VALUE: ReadTIFFImage:p_Inp <- $r13
	#DEBUG_VALUE: ReadTIFFImage:input_file <- [DW_OP_LLVM_entry_value 1] $rsi
	#DEBUG_VALUE: ReadTIFFImage:FrameNoInFile <- [DW_OP_LLVM_entry_value 1] $edx
	#DEBUG_VALUE: ReadTIFFImage:source <- [DW_OP_plus_uconst 136] [$rsp+0]
	#DEBUG_VALUE: ReadTIFFImage:buf <- $r14
	#DEBUG_VALUE: ReadTIFFImage:temp <- 0
	#DEBUG_VALUE: ReadTIFFImage:temp2 <- 0
	#DEBUG_VALUE: readTiff:path <- [DW_OP_plus_uconst 1280, DW_OP_stack_value] $rsp
	#DEBUG_VALUE: readDirectoryEntry:type <- $r12d
	#DEBUG_VALUE: readDirectoryEntry:count <- $r15d
	.loc	0 364 16                        # ldecod_src/io_tiff.c:364:16
	movq	stderr@GOTPCREL(%rip), %rax
	movq	(%rax), %rcx
	.loc	0 364 7 is_stmt 0               # ldecod_src/io_tiff.c:364:7
	movl	$.L.str.15, %edi
	movl	$40, %esi
	jmp	.LBB4_46
.Ltmp348:
.LBB4_33:                               # %sw.bb42.i.i.i
                                        #   in Loop: Header=BB4_23 Depth=1
	#DEBUG_VALUE: ReadTIFFImage:p_Inp <- $r13
	#DEBUG_VALUE: ReadTIFFImage:input_file <- [DW_OP_LLVM_entry_value 1] $rsi
	#DEBUG_VALUE: ReadTIFFImage:FrameNoInFile <- [DW_OP_LLVM_entry_value 1] $edx
	#DEBUG_VALUE: ReadTIFFImage:source <- [DW_OP_plus_uconst 136] [$rsp+0]
	#DEBUG_VALUE: ReadTIFFImage:buf <- $r14
	#DEBUG_VALUE: ReadTIFFImage:temp <- 0
	#DEBUG_VALUE: ReadTIFFImage:temp2 <- 0
	#DEBUG_VALUE: readTiff:path <- [DW_OP_plus_uconst 1280, DW_OP_stack_value] $rsp
	#DEBUG_VALUE: readDirectoryEntry:type <- $r12d
	#DEBUG_VALUE: readDirectoryEntry:count <- $r15d
	#DEBUG_VALUE: readDirectoryEntry:offset <- $eax
	.loc	0 390 20 is_stmt 1              # ldecod_src/io_tiff.c:390:20
	movw	%ax, ReadTIFFImage.t+40(%rip)
.Ltmp349:
	.loc	0 391 24                        # ldecod_src/io_tiff.c:391:24
	cmpw	$1, %ax
.Ltmp350:
	.loc	0 391 9 is_stmt 0               # ldecod_src/io_tiff.c:391:9
	je	.LBB4_22
.Ltmp351:
# %bb.34:                               # %if.then47.i.i.i
                                        #   in Loop: Header=BB4_23 Depth=1
	#DEBUG_VALUE: ReadTIFFImage:p_Inp <- $r13
	#DEBUG_VALUE: ReadTIFFImage:input_file <- [DW_OP_LLVM_entry_value 1] $rsi
	#DEBUG_VALUE: ReadTIFFImage:FrameNoInFile <- [DW_OP_LLVM_entry_value 1] $edx
	#DEBUG_VALUE: ReadTIFFImage:source <- [DW_OP_plus_uconst 136] [$rsp+0]
	#DEBUG_VALUE: ReadTIFFImage:buf <- $r14
	#DEBUG_VALUE: ReadTIFFImage:temp <- 0
	#DEBUG_VALUE: ReadTIFFImage:temp2 <- 0
	#DEBUG_VALUE: readTiff:path <- [DW_OP_plus_uconst 1280, DW_OP_stack_value] $rsp
	#DEBUG_VALUE: readDirectoryEntry:type <- $r12d
	#DEBUG_VALUE: readDirectoryEntry:count <- $r15d
	#DEBUG_VALUE: readDirectoryEntry:offset <- $eax
	.loc	0 393 16 is_stmt 1              # ldecod_src/io_tiff.c:393:16
	movq	stderr@GOTPCREL(%rip), %rax
.Ltmp352:
	movq	(%rax), %rcx
	.loc	0 393 7 is_stmt 0               # ldecod_src/io_tiff.c:393:7
	movl	$.L.str.17, %edi
	movl	$32, %esi
	jmp	.LBB4_46
.Ltmp353:
.LBB4_35:                               # %sw.bb51.i.i.i
                                        #   in Loop: Header=BB4_23 Depth=1
	#DEBUG_VALUE: ReadTIFFImage:p_Inp <- $r13
	#DEBUG_VALUE: ReadTIFFImage:input_file <- [DW_OP_LLVM_entry_value 1] $rsi
	#DEBUG_VALUE: ReadTIFFImage:FrameNoInFile <- [DW_OP_LLVM_entry_value 1] $edx
	#DEBUG_VALUE: ReadTIFFImage:source <- [DW_OP_plus_uconst 136] [$rsp+0]
	#DEBUG_VALUE: ReadTIFFImage:buf <- $r14
	#DEBUG_VALUE: ReadTIFFImage:temp <- 0
	#DEBUG_VALUE: ReadTIFFImage:temp2 <- 0
	#DEBUG_VALUE: readTiff:path <- [DW_OP_plus_uconst 1280, DW_OP_stack_value] $rsp
	#DEBUG_VALUE: readDirectoryEntry:type <- $r12d
	#DEBUG_VALUE: readDirectoryEntry:count <- $r15d
	#DEBUG_VALUE: readDirectoryEntry:offset <- $eax
	.loc	0 405 21 is_stmt 1              # ldecod_src/io_tiff.c:405:21
	movl	%eax, ReadTIFFImage.t+56(%rip)
	.loc	0 406 5                         # ldecod_src/io_tiff.c:406:5
	jmp	.LBB4_22
.Ltmp354:
.LBB4_36:                               # %sw.bb52.i.i.i
                                        #   in Loop: Header=BB4_23 Depth=1
	#DEBUG_VALUE: ReadTIFFImage:p_Inp <- $r13
	#DEBUG_VALUE: ReadTIFFImage:input_file <- [DW_OP_LLVM_entry_value 1] $rsi
	#DEBUG_VALUE: ReadTIFFImage:FrameNoInFile <- [DW_OP_LLVM_entry_value 1] $edx
	#DEBUG_VALUE: ReadTIFFImage:source <- [DW_OP_plus_uconst 136] [$rsp+0]
	#DEBUG_VALUE: ReadTIFFImage:buf <- $r14
	#DEBUG_VALUE: ReadTIFFImage:temp <- 0
	#DEBUG_VALUE: ReadTIFFImage:temp2 <- 0
	#DEBUG_VALUE: readTiff:path <- [DW_OP_plus_uconst 1280, DW_OP_stack_value] $rsp
	#DEBUG_VALUE: readDirectoryEntry:type <- $r12d
	#DEBUG_VALUE: readDirectoryEntry:count <- $r15d
	#DEBUG_VALUE: readDirectoryEntry:offset <- $eax
	.loc	0 409 5                         # ldecod_src/io_tiff.c:409:5
	movl	$ReadTIFFImage.t+68, %edx
	movl	%eax, %edi
	movl	%r12d, %esi
	movl	%r15d, %ecx
	jmp	.LBB4_43
.Ltmp355:
.LBB4_37:                               # %sw.bb34.i.i.i
                                        #   in Loop: Header=BB4_23 Depth=1
	#DEBUG_VALUE: ReadTIFFImage:p_Inp <- $r13
	#DEBUG_VALUE: ReadTIFFImage:input_file <- [DW_OP_LLVM_entry_value 1] $rsi
	#DEBUG_VALUE: ReadTIFFImage:FrameNoInFile <- [DW_OP_LLVM_entry_value 1] $edx
	#DEBUG_VALUE: ReadTIFFImage:source <- [DW_OP_plus_uconst 136] [$rsp+0]
	#DEBUG_VALUE: ReadTIFFImage:buf <- $r14
	#DEBUG_VALUE: ReadTIFFImage:temp <- 0
	#DEBUG_VALUE: ReadTIFFImage:temp2 <- 0
	#DEBUG_VALUE: readTiff:path <- [DW_OP_plus_uconst 1280, DW_OP_stack_value] $rsp
	#DEBUG_VALUE: readDirectoryEntry:type <- $r12d
	#DEBUG_VALUE: readDirectoryEntry:count <- $r15d
	#DEBUG_VALUE: readDirectoryEntry:offset <- $eax
	.loc	0 371 16                        # ldecod_src/io_tiff.c:371:16
	cmpl	$1, %eax
.Ltmp356:
	.loc	0 371 9 is_stmt 0               # ldecod_src/io_tiff.c:371:9
	je	.LBB4_22
.Ltmp357:
# %bb.38:                               # %if.then36.i.i.i
                                        #   in Loop: Header=BB4_23 Depth=1
	#DEBUG_VALUE: ReadTIFFImage:p_Inp <- $r13
	#DEBUG_VALUE: ReadTIFFImage:input_file <- [DW_OP_LLVM_entry_value 1] $rsi
	#DEBUG_VALUE: ReadTIFFImage:FrameNoInFile <- [DW_OP_LLVM_entry_value 1] $edx
	#DEBUG_VALUE: ReadTIFFImage:source <- [DW_OP_plus_uconst 136] [$rsp+0]
	#DEBUG_VALUE: ReadTIFFImage:buf <- $r14
	#DEBUG_VALUE: ReadTIFFImage:temp <- 0
	#DEBUG_VALUE: ReadTIFFImage:temp2 <- 0
	#DEBUG_VALUE: readTiff:path <- [DW_OP_plus_uconst 1280, DW_OP_stack_value] $rsp
	#DEBUG_VALUE: readDirectoryEntry:type <- $r12d
	#DEBUG_VALUE: readDirectoryEntry:count <- $r15d
	#DEBUG_VALUE: readDirectoryEntry:offset <- $eax
	.loc	0 373 16 is_stmt 1              # ldecod_src/io_tiff.c:373:16
	movq	stderr@GOTPCREL(%rip), %rax
.Ltmp358:
	movq	(%rax), %rcx
	.loc	0 373 7 is_stmt 0               # ldecod_src/io_tiff.c:373:7
	movl	$.L.str.16, %edi
	movl	$39, %esi
	jmp	.LBB4_46
.Ltmp359:
.LBB4_39:                               # %sw.bb40.i.i.i
                                        #   in Loop: Header=BB4_23 Depth=1
	#DEBUG_VALUE: ReadTIFFImage:p_Inp <- $r13
	#DEBUG_VALUE: ReadTIFFImage:input_file <- [DW_OP_LLVM_entry_value 1] $rsi
	#DEBUG_VALUE: ReadTIFFImage:FrameNoInFile <- [DW_OP_LLVM_entry_value 1] $edx
	#DEBUG_VALUE: ReadTIFFImage:source <- [DW_OP_plus_uconst 136] [$rsp+0]
	#DEBUG_VALUE: ReadTIFFImage:buf <- $r14
	#DEBUG_VALUE: ReadTIFFImage:temp <- 0
	#DEBUG_VALUE: ReadTIFFImage:temp2 <- 0
	#DEBUG_VALUE: readTiff:path <- [DW_OP_plus_uconst 1280, DW_OP_stack_value] $rsp
	#DEBUG_VALUE: readDirectoryEntry:type <- $r12d
	#DEBUG_VALUE: readDirectoryEntry:count <- $r15d
	#DEBUG_VALUE: readDirectoryEntry:offset <- $eax
	.loc	0 384 5 is_stmt 1               # ldecod_src/io_tiff.c:384:5
	movl	$ReadTIFFImage.t+4388, %edx
	movl	%eax, %edi
	movl	%r12d, %esi
	movl	%r15d, %ecx
	callq	getIntArray
.Ltmp360:
	.loc	0 385 16                        # ldecod_src/io_tiff.c:385:16
	movl	%r15d, ReadTIFFImage.t+28(%rip)
	.loc	0 386 5                         # ldecod_src/io_tiff.c:386:5
	jmp	.LBB4_22
.Ltmp361:
.LBB4_40:                               # %sw.bb56.i.i.i
                                        #   in Loop: Header=BB4_23 Depth=1
	#DEBUG_VALUE: ReadTIFFImage:p_Inp <- $r13
	#DEBUG_VALUE: ReadTIFFImage:input_file <- [DW_OP_LLVM_entry_value 1] $rsi
	#DEBUG_VALUE: ReadTIFFImage:FrameNoInFile <- [DW_OP_LLVM_entry_value 1] $edx
	#DEBUG_VALUE: ReadTIFFImage:source <- [DW_OP_plus_uconst 136] [$rsp+0]
	#DEBUG_VALUE: ReadTIFFImage:buf <- $r14
	#DEBUG_VALUE: ReadTIFFImage:temp <- 0
	#DEBUG_VALUE: ReadTIFFImage:temp2 <- 0
	#DEBUG_VALUE: readTiff:path <- [DW_OP_plus_uconst 1280, DW_OP_stack_value] $rsp
	#DEBUG_VALUE: readDirectoryEntry:type <- $r12d
	#DEBUG_VALUE: readDirectoryEntry:count <- $r15d
	#DEBUG_VALUE: readDirectoryEntry:offset <- $eax
	.loc	0 418 5                         # ldecod_src/io_tiff.c:418:5
	movl	$ReadTIFFImage.t+8716, %edx
	jmp	.LBB4_42
.Ltmp362:
.LBB4_41:                               # %sw.bb54.i.i.i
                                        #   in Loop: Header=BB4_23 Depth=1
	#DEBUG_VALUE: ReadTIFFImage:p_Inp <- $r13
	#DEBUG_VALUE: ReadTIFFImage:input_file <- [DW_OP_LLVM_entry_value 1] $rsi
	#DEBUG_VALUE: ReadTIFFImage:FrameNoInFile <- [DW_OP_LLVM_entry_value 1] $edx
	#DEBUG_VALUE: ReadTIFFImage:source <- [DW_OP_plus_uconst 136] [$rsp+0]
	#DEBUG_VALUE: ReadTIFFImage:buf <- $r14
	#DEBUG_VALUE: ReadTIFFImage:temp <- 0
	#DEBUG_VALUE: ReadTIFFImage:temp2 <- 0
	#DEBUG_VALUE: readTiff:path <- [DW_OP_plus_uconst 1280, DW_OP_stack_value] $rsp
	#DEBUG_VALUE: readDirectoryEntry:type <- $r12d
	#DEBUG_VALUE: readDirectoryEntry:count <- $r15d
	#DEBUG_VALUE: readDirectoryEntry:offset <- $eax
	.loc	0 413 5                         # ldecod_src/io_tiff.c:413:5
	movl	$ReadTIFFImage.t+8708, %edx
.Ltmp363:
.LBB4_42:                               # %readDirectoryEntry.exit.i.i
                                        #   in Loop: Header=BB4_23 Depth=1
	#DEBUG_VALUE: ReadTIFFImage:p_Inp <- $r13
	#DEBUG_VALUE: ReadTIFFImage:input_file <- [DW_OP_LLVM_entry_value 1] $rsi
	#DEBUG_VALUE: ReadTIFFImage:FrameNoInFile <- [DW_OP_LLVM_entry_value 1] $edx
	#DEBUG_VALUE: ReadTIFFImage:source <- [DW_OP_plus_uconst 136] [$rsp+0]
	#DEBUG_VALUE: ReadTIFFImage:buf <- $r14
	#DEBUG_VALUE: ReadTIFFImage:temp <- 0
	#DEBUG_VALUE: ReadTIFFImage:temp2 <- 0
	#DEBUG_VALUE: readTiff:path <- [DW_OP_plus_uconst 1280, DW_OP_stack_value] $rsp
	#DEBUG_VALUE: readDirectoryEntry:type <- $r12d
	#DEBUG_VALUE: readDirectoryEntry:count <- $r15d
	#DEBUG_VALUE: readDirectoryEntry:offset <- $eax
	.loc	0 0 0 is_stmt 0                 # ldecod_src/io_tiff.c:0:0
	movl	%eax, %edi
	movl	%r12d, %esi
	movl	$1, %ecx
.Ltmp364:
.LBB4_43:                               # %readDirectoryEntry.exit.i.i
                                        #   in Loop: Header=BB4_23 Depth=1
	#DEBUG_VALUE: ReadTIFFImage:p_Inp <- $r13
	#DEBUG_VALUE: ReadTIFFImage:input_file <- [DW_OP_LLVM_entry_value 1] $rsi
	#DEBUG_VALUE: ReadTIFFImage:FrameNoInFile <- [DW_OP_LLVM_entry_value 1] $edx
	#DEBUG_VALUE: ReadTIFFImage:source <- [DW_OP_plus_uconst 136] [$rsp+0]
	#DEBUG_VALUE: ReadTIFFImage:buf <- $r14
	#DEBUG_VALUE: ReadTIFFImage:temp <- 0
	#DEBUG_VALUE: ReadTIFFImage:temp2 <- 0
	#DEBUG_VALUE: readTiff:path <- [DW_OP_plus_uconst 1280, DW_OP_stack_value] $rsp
	#DEBUG_VALUE: readDirectoryEntry:type <- $r12d
	#DEBUG_VALUE: readDirectoryEntry:count <- $r15d
	#DEBUG_VALUE: readDirectoryEntry:offset <- $edi
	callq	getIntArray
.Ltmp365:
	jmp	.LBB4_22
.Ltmp366:
.LBB4_44:                               # %if.then10.i.i.i
                                        #   in Loop: Header=BB4_23 Depth=1
	#DEBUG_VALUE: ReadTIFFImage:p_Inp <- $r13
	#DEBUG_VALUE: ReadTIFFImage:input_file <- [DW_OP_LLVM_entry_value 1] $rsi
	#DEBUG_VALUE: ReadTIFFImage:FrameNoInFile <- [DW_OP_LLVM_entry_value 1] $edx
	#DEBUG_VALUE: ReadTIFFImage:source <- [DW_OP_plus_uconst 136] [$rsp+0]
	#DEBUG_VALUE: ReadTIFFImage:buf <- $r14
	#DEBUG_VALUE: ReadTIFFImage:temp <- 0
	#DEBUG_VALUE: ReadTIFFImage:temp2 <- 0
	#DEBUG_VALUE: readTiff:path <- [DW_OP_plus_uconst 1280, DW_OP_stack_value] $rsp
	#DEBUG_VALUE: readDirectoryEntry:type <- $r12d
	#DEBUG_VALUE: readDirectoryEntry:count <- $r15d
	#DEBUG_VALUE: readDirectoryEntry:offset <- $eax
	.loc	0 352 16 is_stmt 1              # ldecod_src/io_tiff.c:352:16
	movq	stderr@GOTPCREL(%rip), %rax
.Ltmp367:
	movq	(%rax), %rcx
	.loc	0 352 7 is_stmt 0               # ldecod_src/io_tiff.c:352:7
	movl	$.L.str.13, %edi
	movl	$35, %esi
	jmp	.LBB4_46
.Ltmp368:
.LBB4_45:                               # %if.then22.i.i.i
                                        #   in Loop: Header=BB4_23 Depth=1
	#DEBUG_VALUE: ReadTIFFImage:p_Inp <- $r13
	#DEBUG_VALUE: ReadTIFFImage:input_file <- [DW_OP_LLVM_entry_value 1] $rsi
	#DEBUG_VALUE: ReadTIFFImage:FrameNoInFile <- [DW_OP_LLVM_entry_value 1] $edx
	#DEBUG_VALUE: ReadTIFFImage:source <- [DW_OP_plus_uconst 136] [$rsp+0]
	#DEBUG_VALUE: ReadTIFFImage:buf <- $r14
	#DEBUG_VALUE: ReadTIFFImage:temp <- 0
	#DEBUG_VALUE: ReadTIFFImage:temp2 <- 0
	#DEBUG_VALUE: readTiff:path <- [DW_OP_plus_uconst 1280, DW_OP_stack_value] $rsp
	#DEBUG_VALUE: readDirectoryEntry:type <- $r12d
	#DEBUG_VALUE: readDirectoryEntry:count <- $r15d
	.loc	0 359 16 is_stmt 1              # ldecod_src/io_tiff.c:359:16
	movq	stderr@GOTPCREL(%rip), %rax
	movq	(%rax), %rcx
	.loc	0 359 7 is_stmt 0               # ldecod_src/io_tiff.c:359:7
	movl	$.L.str.14, %edi
	movl	$47, %esi
.Ltmp369:
.LBB4_46:                               # %readDirectoryEntry.exit.i.i
                                        #   in Loop: Header=BB4_23 Depth=1
	#DEBUG_VALUE: ReadTIFFImage:p_Inp <- $r13
	#DEBUG_VALUE: ReadTIFFImage:input_file <- [DW_OP_LLVM_entry_value 1] $rsi
	#DEBUG_VALUE: ReadTIFFImage:FrameNoInFile <- [DW_OP_LLVM_entry_value 1] $edx
	#DEBUG_VALUE: ReadTIFFImage:source <- [DW_OP_plus_uconst 136] [$rsp+0]
	#DEBUG_VALUE: ReadTIFFImage:buf <- $r14
	#DEBUG_VALUE: ReadTIFFImage:temp <- 0
	#DEBUG_VALUE: ReadTIFFImage:temp2 <- 0
	#DEBUG_VALUE: readTiff:path <- [DW_OP_plus_uconst 1280, DW_OP_stack_value] $rsp
	#DEBUG_VALUE: readDirectoryEntry:type <- $r12d
	#DEBUG_VALUE: readDirectoryEntry:count <- $r15d
	.loc	0 0 0                           # ldecod_src/io_tiff.c:0:0
	movl	$1, %edx
	callq	fwrite@PLT
.Ltmp370:
	.loc	0 353 7 is_stmt 1               # ldecod_src/io_tiff.c:353:7
	jmp	.LBB4_22
.Ltmp371:
.LBB4_47:                               # %readImageFileDirectory.exit.i
	#DEBUG_VALUE: ReadTIFFImage:p_Inp <- $r13
	#DEBUG_VALUE: ReadTIFFImage:input_file <- [DW_OP_LLVM_entry_value 1] $rsi
	#DEBUG_VALUE: ReadTIFFImage:FrameNoInFile <- [DW_OP_LLVM_entry_value 1] $edx
	#DEBUG_VALUE: ReadTIFFImage:source <- [DW_OP_plus_uconst 136] [$rsp+0]
	#DEBUG_VALUE: ReadTIFFImage:buf <- $r14
	#DEBUG_VALUE: ReadTIFFImage:temp <- 0
	#DEBUG_VALUE: ReadTIFFImage:temp2 <- 0
	#DEBUG_VALUE: readTiff:path <- [DW_OP_plus_uconst 1280, DW_OP_stack_value] $rsp
	.loc	0 542 13                        # ldecod_src/io_tiff.c:542:13
	movl	ReadTIFFImage.t+64(%rip), %eax
.Ltmp372:
	#DEBUG_VALUE: readImageData:t <- undef
	.loc	0 542 24 is_stmt 0              # ldecod_src/io_tiff.c:542:24
	imull	ReadTIFFImage.t+60(%rip), %eax
	.loc	0 542 45                        # ldecod_src/io_tiff.c:542:45
	addl	%eax, %eax
	leal	(%rax,%rax,2), %esi
.Ltmp373:
	#DEBUG_VALUE: readImageData:size <- $esi
	.loc	0 543 35 is_stmt 1              # ldecod_src/io_tiff.c:543:35
	movq	ReadTIFFImage.t(%rip), %rdi
	.loc	0 543 23 is_stmt 0              # ldecod_src/io_tiff.c:543:23
	callq	realloc@PLT
.Ltmp374:
	.loc	0 543 10                        # ldecod_src/io_tiff.c:543:10
	movq	%rax, ReadTIFFImage.t(%rip)
.Ltmp375:
	.loc	0 544 14 is_stmt 1              # ldecod_src/io_tiff.c:544:14
	testq	%rax, %rax
	movq	136(%rsp), %r15                 # 8-byte Reload
	movq	296(%rsp), %rbx                 # 8-byte Reload
.Ltmp376:
	.loc	0 544 7 is_stmt 0               # ldecod_src/io_tiff.c:544:7
	je	.LBB4_101
.Ltmp377:
# %bb.48:                               # %if.end.i38.i
	#DEBUG_VALUE: ReadTIFFImage:p_Inp <- $r13
	#DEBUG_VALUE: ReadTIFFImage:input_file <- [DW_OP_LLVM_entry_value 1] $rsi
	#DEBUG_VALUE: ReadTIFFImage:FrameNoInFile <- [DW_OP_LLVM_entry_value 1] $edx
	#DEBUG_VALUE: ReadTIFFImage:source <- [DW_OP_plus_uconst 136] [$rsp+0]
	#DEBUG_VALUE: ReadTIFFImage:buf <- $r14
	#DEBUG_VALUE: ReadTIFFImage:temp <- 0
	#DEBUG_VALUE: ReadTIFFImage:temp2 <- 0
	#DEBUG_VALUE: readTiff:path <- [DW_OP_plus_uconst 1280, DW_OP_stack_value] $rsp
	.loc	0 547 11 is_stmt 1              # ldecod_src/io_tiff.c:547:11
	movl	ReadTIFFImage.t+44(%rip), %ecx
	.loc	0 547 3 is_stmt 0               # ldecod_src/io_tiff.c:547:3
	cmpl	$16, %ecx
	je	.LBB4_71
.Ltmp378:
# %bb.49:                               # %if.end.i38.i
	#DEBUG_VALUE: ReadTIFFImage:p_Inp <- $r13
	#DEBUG_VALUE: ReadTIFFImage:input_file <- [DW_OP_LLVM_entry_value 1] $rsi
	#DEBUG_VALUE: ReadTIFFImage:FrameNoInFile <- [DW_OP_LLVM_entry_value 1] $edx
	#DEBUG_VALUE: ReadTIFFImage:source <- [DW_OP_plus_uconst 136] [$rsp+0]
	#DEBUG_VALUE: ReadTIFFImage:buf <- $r14
	#DEBUG_VALUE: ReadTIFFImage:temp <- 0
	#DEBUG_VALUE: ReadTIFFImage:temp2 <- 0
	#DEBUG_VALUE: readTiff:path <- [DW_OP_plus_uconst 1280, DW_OP_stack_value] $rsp
	cmpl	$8, %ecx
	movq	216(%rsp), %r12                 # 8-byte Reload
	jne	.LBB4_82
.Ltmp379:
# %bb.50:                               # %for.cond.preheader.i.i
	#DEBUG_VALUE: ReadTIFFImage:p_Inp <- $r13
	#DEBUG_VALUE: ReadTIFFImage:input_file <- [DW_OP_LLVM_entry_value 1] $rsi
	#DEBUG_VALUE: ReadTIFFImage:FrameNoInFile <- [DW_OP_LLVM_entry_value 1] $edx
	#DEBUG_VALUE: ReadTIFFImage:source <- [DW_OP_plus_uconst 136] [$rsp+0]
	#DEBUG_VALUE: ReadTIFFImage:buf <- $r14
	#DEBUG_VALUE: ReadTIFFImage:temp <- 0
	#DEBUG_VALUE: ReadTIFFImage:temp2 <- 0
	#DEBUG_VALUE: readTiff:path <- [DW_OP_plus_uconst 1280, DW_OP_stack_value] $rsp
	#DEBUG_VALUE: readImageData:p <- $rax
	#DEBUG_VALUE: readImageData:i <- 0
	.loc	0 551 22 is_stmt 1              # ldecod_src/io_tiff.c:551:22
	movl	ReadTIFFImage.t+28(%rip), %esi
	.loc	0 551 17 is_stmt 0              # ldecod_src/io_tiff.c:551:17
	testl	%esi, %esi
.Ltmp380:
	.loc	0 551 5                         # ldecod_src/io_tiff.c:551:5
	jle	.LBB4_82
.Ltmp381:
# %bb.51:                               # %for.body.i47.i.preheader
	#DEBUG_VALUE: ReadTIFFImage:p_Inp <- $r13
	#DEBUG_VALUE: ReadTIFFImage:input_file <- [DW_OP_LLVM_entry_value 1] $rsi
	#DEBUG_VALUE: ReadTIFFImage:FrameNoInFile <- [DW_OP_LLVM_entry_value 1] $edx
	#DEBUG_VALUE: ReadTIFFImage:source <- [DW_OP_plus_uconst 136] [$rsp+0]
	#DEBUG_VALUE: ReadTIFFImage:buf <- $r14
	#DEBUG_VALUE: ReadTIFFImage:temp <- 0
	#DEBUG_VALUE: ReadTIFFImage:temp2 <- 0
	#DEBUG_VALUE: readTiff:path <- [DW_OP_plus_uconst 1280, DW_OP_stack_value] $rsp
	#DEBUG_VALUE: readImageData:p <- $rax
	#DEBUG_VALUE: readImageData:i <- 0
	.loc	0 0 5                           # ldecod_src/io_tiff.c:0:5
	xorl	%ecx, %ecx
	pxor	%xmm0, %xmm0
	jmp	.LBB4_54
.Ltmp382:
	.p2align	4, 0x90
.LBB4_52:                               # %for.inc20.loopexit.i.i
                                        #   in Loop: Header=BB4_54 Depth=1
	#DEBUG_VALUE: ReadTIFFImage:p_Inp <- $r13
	#DEBUG_VALUE: ReadTIFFImage:input_file <- [DW_OP_LLVM_entry_value 1] $rsi
	#DEBUG_VALUE: ReadTIFFImage:FrameNoInFile <- [DW_OP_LLVM_entry_value 1] $edx
	#DEBUG_VALUE: ReadTIFFImage:source <- [DW_OP_plus_uconst 136] [$rsp+0]
	#DEBUG_VALUE: ReadTIFFImage:buf <- $r14
	#DEBUG_VALUE: ReadTIFFImage:temp <- 0
	#DEBUG_VALUE: ReadTIFFImage:temp2 <- 0
	#DEBUG_VALUE: readTiff:path <- [DW_OP_plus_uconst 1280, DW_OP_stack_value] $rsp
	#DEBUG_VALUE: readImageData:i <- $rcx
	.loc	0 551 22                        # ldecod_src/io_tiff.c:551:22
	movl	ReadTIFFImage.t+28(%rip), %esi
	movq	%rdi, %rax
.Ltmp383:
.LBB4_53:                               # %for.inc20.i.i
                                        #   in Loop: Header=BB4_54 Depth=1
	#DEBUG_VALUE: ReadTIFFImage:p_Inp <- $r13
	#DEBUG_VALUE: ReadTIFFImage:input_file <- [DW_OP_LLVM_entry_value 1] $rsi
	#DEBUG_VALUE: ReadTIFFImage:FrameNoInFile <- [DW_OP_LLVM_entry_value 1] $edx
	#DEBUG_VALUE: ReadTIFFImage:source <- [DW_OP_plus_uconst 136] [$rsp+0]
	#DEBUG_VALUE: ReadTIFFImage:buf <- $r14
	#DEBUG_VALUE: ReadTIFFImage:temp <- 0
	#DEBUG_VALUE: ReadTIFFImage:temp2 <- 0
	#DEBUG_VALUE: readTiff:path <- [DW_OP_plus_uconst 1280, DW_OP_stack_value] $rsp
	#DEBUG_VALUE: readImageData:i <- $rcx
	.loc	0 551 31                        # ldecod_src/io_tiff.c:551:31
	incq	%rcx
.Ltmp384:
	#DEBUG_VALUE: readImageData:i <- $rcx
	#DEBUG_VALUE: readImageData:p <- $rax
	.loc	0 551 17                        # ldecod_src/io_tiff.c:551:17
	movslq	%esi, %rdx
	cmpq	%rdx, %rcx
.Ltmp385:
	.loc	0 551 5                         # ldecod_src/io_tiff.c:551:5
	jge	.LBB4_82
.Ltmp386:
.LBB4_54:                               # %for.body.i47.i
                                        # =>This Loop Header: Depth=1
                                        #     Child Loop BB4_61 Depth 2
                                        #     Child Loop BB4_65 Depth 2
                                        #     Child Loop BB4_69 Depth 2
	#DEBUG_VALUE: ReadTIFFImage:p_Inp <- $r13
	#DEBUG_VALUE: ReadTIFFImage:input_file <- [DW_OP_LLVM_entry_value 1] $rsi
	#DEBUG_VALUE: ReadTIFFImage:FrameNoInFile <- [DW_OP_LLVM_entry_value 1] $edx
	#DEBUG_VALUE: ReadTIFFImage:source <- [DW_OP_plus_uconst 136] [$rsp+0]
	#DEBUG_VALUE: ReadTIFFImage:buf <- $r14
	#DEBUG_VALUE: ReadTIFFImage:temp <- 0
	#DEBUG_VALUE: ReadTIFFImage:temp2 <- 0
	#DEBUG_VALUE: readTiff:path <- [DW_OP_plus_uconst 1280, DW_OP_stack_value] $rsp
	#DEBUG_VALUE: readImageData:p <- $rax
	#DEBUG_VALUE: readImageData:p <- $rax
	#DEBUG_VALUE: readImageData:i <- $rcx
	.loc	0 553 11 is_stmt 1              # ldecod_src/io_tiff.c:553:11
	movslq	ReadTIFFImage.t+68(,%rcx,4), %rdx
	testq	%rdx, %rdx
.Ltmp387:
	#DEBUG_VALUE: readImageData:n <- undef
	#DEBUG_VALUE: readImageData:s <- undef
	#DEBUG_VALUE: readImageData:j <- 0
	.loc	0 555 7                         # ldecod_src/io_tiff.c:555:7
	jle	.LBB4_53
.Ltmp388:
# %bb.55:                               # %for.body17.preheader.i.i
                                        #   in Loop: Header=BB4_54 Depth=1
	#DEBUG_VALUE: ReadTIFFImage:p_Inp <- $r13
	#DEBUG_VALUE: ReadTIFFImage:input_file <- [DW_OP_LLVM_entry_value 1] $rsi
	#DEBUG_VALUE: ReadTIFFImage:FrameNoInFile <- [DW_OP_LLVM_entry_value 1] $edx
	#DEBUG_VALUE: ReadTIFFImage:source <- [DW_OP_plus_uconst 136] [$rsp+0]
	#DEBUG_VALUE: ReadTIFFImage:buf <- $r14
	#DEBUG_VALUE: ReadTIFFImage:temp <- 0
	#DEBUG_VALUE: ReadTIFFImage:temp2 <- 0
	#DEBUG_VALUE: readTiff:path <- [DW_OP_plus_uconst 1280, DW_OP_stack_value] $rsp
	#DEBUG_VALUE: readImageData:p <- $rax
	#DEBUG_VALUE: readImageData:i <- $rcx
	#DEBUG_VALUE: readImageData:j <- 0
	.loc	0 554 14                        # ldecod_src/io_tiff.c:554:14
	movq	ReadTIFFImage.t+8(%rip), %r9
	.loc	0 554 29 is_stmt 0              # ldecod_src/io_tiff.c:554:29
	movl	ReadTIFFImage.t+4388(,%rcx,4), %r10d
.Ltmp389:
	#DEBUG_VALUE: readImageData:s <- undef
	#DEBUG_VALUE: readImageData:s <- [DW_OP_LLVM_arg 0, DW_OP_LLVM_arg 1, DW_OP_plus, DW_OP_stack_value] $r9, $r10d
	.loc	0 554 27                        # ldecod_src/io_tiff.c:554:27
	leaq	(%r9,%r10), %rsi
.Ltmp390:
	#DEBUG_VALUE: readImageData:s <- $rsi
	.loc	0 0 27                          # ldecod_src/io_tiff.c:0:27
	xorl	%r8d, %r8d
.Ltmp391:
	.loc	0 555 7 is_stmt 1               # ldecod_src/io_tiff.c:555:7
	cmpl	$32, %edx
	jb	.LBB4_56
.Ltmp392:
# %bb.57:                               # %vector.memcheck
                                        #   in Loop: Header=BB4_54 Depth=1
	#DEBUG_VALUE: ReadTIFFImage:p_Inp <- $r13
	#DEBUG_VALUE: ReadTIFFImage:input_file <- [DW_OP_LLVM_entry_value 1] $rsi
	#DEBUG_VALUE: ReadTIFFImage:FrameNoInFile <- [DW_OP_LLVM_entry_value 1] $edx
	#DEBUG_VALUE: ReadTIFFImage:source <- [DW_OP_plus_uconst 136] [$rsp+0]
	#DEBUG_VALUE: ReadTIFFImage:buf <- $r14
	#DEBUG_VALUE: ReadTIFFImage:temp <- 0
	#DEBUG_VALUE: ReadTIFFImage:temp2 <- 0
	#DEBUG_VALUE: readTiff:path <- [DW_OP_plus_uconst 1280, DW_OP_stack_value] $rsp
	#DEBUG_VALUE: readImageData:p <- $rax
	#DEBUG_VALUE: readImageData:i <- $rcx
	#DEBUG_VALUE: readImageData:s <- $rsi
	#DEBUG_VALUE: readImageData:j <- 0
	leal	-1(%rdx), %edi
	leaq	(%r9,%r10), %r11
	addq	%rdi, %r11
	incq	%r11
	cmpq	%r11, %rax
	jae	.LBB4_60
.Ltmp393:
# %bb.58:                               # %vector.memcheck
                                        #   in Loop: Header=BB4_54 Depth=1
	#DEBUG_VALUE: ReadTIFFImage:p_Inp <- $r13
	#DEBUG_VALUE: ReadTIFFImage:input_file <- [DW_OP_LLVM_entry_value 1] $rsi
	#DEBUG_VALUE: ReadTIFFImage:FrameNoInFile <- [DW_OP_LLVM_entry_value 1] $edx
	#DEBUG_VALUE: ReadTIFFImage:source <- [DW_OP_plus_uconst 136] [$rsp+0]
	#DEBUG_VALUE: ReadTIFFImage:buf <- $r14
	#DEBUG_VALUE: ReadTIFFImage:temp <- 0
	#DEBUG_VALUE: ReadTIFFImage:temp2 <- 0
	#DEBUG_VALUE: readTiff:path <- [DW_OP_plus_uconst 1280, DW_OP_stack_value] $rsp
	#DEBUG_VALUE: readImageData:p <- $rax
	#DEBUG_VALUE: readImageData:i <- $rcx
	#DEBUG_VALUE: readImageData:s <- $rsi
	#DEBUG_VALUE: readImageData:j <- 0
	leaq	(%rax,%rdi,2), %rdi
	addq	$2, %rdi
	cmpq	%rdi, %rsi
	jae	.LBB4_60
.Ltmp394:
.LBB4_56:                               #   in Loop: Header=BB4_54 Depth=1
	#DEBUG_VALUE: ReadTIFFImage:p_Inp <- $r13
	#DEBUG_VALUE: ReadTIFFImage:input_file <- [DW_OP_LLVM_entry_value 1] $rsi
	#DEBUG_VALUE: ReadTIFFImage:FrameNoInFile <- [DW_OP_LLVM_entry_value 1] $edx
	#DEBUG_VALUE: ReadTIFFImage:source <- [DW_OP_plus_uconst 136] [$rsp+0]
	#DEBUG_VALUE: ReadTIFFImage:buf <- $r14
	#DEBUG_VALUE: ReadTIFFImage:temp <- 0
	#DEBUG_VALUE: ReadTIFFImage:temp2 <- 0
	#DEBUG_VALUE: readTiff:path <- [DW_OP_plus_uconst 1280, DW_OP_stack_value] $rsp
	#DEBUG_VALUE: readImageData:p <- $rax
	#DEBUG_VALUE: readImageData:i <- $rcx
	#DEBUG_VALUE: readImageData:s <- $rsi
	#DEBUG_VALUE: readImageData:j <- 0
	.loc	0 0 7 is_stmt 0                 # ldecod_src/io_tiff.c:0:7
	movq	%rax, %rdi
.Ltmp395:
.LBB4_63:                               # %for.body17.i.i.preheader
                                        #   in Loop: Header=BB4_54 Depth=1
	#DEBUG_VALUE: ReadTIFFImage:p_Inp <- $r13
	#DEBUG_VALUE: ReadTIFFImage:input_file <- [DW_OP_LLVM_entry_value 1] $rsi
	#DEBUG_VALUE: ReadTIFFImage:FrameNoInFile <- [DW_OP_LLVM_entry_value 1] $edx
	#DEBUG_VALUE: ReadTIFFImage:source <- [DW_OP_plus_uconst 136] [$rsp+0]
	#DEBUG_VALUE: ReadTIFFImage:buf <- $r14
	#DEBUG_VALUE: ReadTIFFImage:temp <- 0
	#DEBUG_VALUE: ReadTIFFImage:temp2 <- 0
	#DEBUG_VALUE: readTiff:path <- [DW_OP_plus_uconst 1280, DW_OP_stack_value] $rsp
	#DEBUG_VALUE: readImageData:p <- $rax
	#DEBUG_VALUE: readImageData:i <- $rcx
	#DEBUG_VALUE: readImageData:j <- 0
	.loc	0 555 7                         # ldecod_src/io_tiff.c:555:7
	movl	%edx, %eax
.Ltmp396:
	subl	%r8d, %eax
	andl	$7, %eax
	je	.LBB4_67
.Ltmp397:
# %bb.64:                               # %for.body17.i.i.prol.preheader
                                        #   in Loop: Header=BB4_54 Depth=1
	#DEBUG_VALUE: ReadTIFFImage:p_Inp <- $r13
	#DEBUG_VALUE: ReadTIFFImage:input_file <- [DW_OP_LLVM_entry_value 1] $rsi
	#DEBUG_VALUE: ReadTIFFImage:FrameNoInFile <- [DW_OP_LLVM_entry_value 1] $edx
	#DEBUG_VALUE: ReadTIFFImage:source <- [DW_OP_plus_uconst 136] [$rsp+0]
	#DEBUG_VALUE: ReadTIFFImage:buf <- $r14
	#DEBUG_VALUE: ReadTIFFImage:temp <- 0
	#DEBUG_VALUE: ReadTIFFImage:temp2 <- 0
	#DEBUG_VALUE: readTiff:path <- [DW_OP_plus_uconst 1280, DW_OP_stack_value] $rsp
	#DEBUG_VALUE: readImageData:i <- $rcx
	#DEBUG_VALUE: readImageData:j <- 0
	negl	%eax
	xorl	%r9d, %r9d
.Ltmp398:
	.p2align	4, 0x90
.LBB4_65:                               # %for.body17.i.i.prol
                                        #   Parent Loop BB4_54 Depth=1
                                        # =>  This Inner Loop Header: Depth=2
	#DEBUG_VALUE: ReadTIFFImage:p_Inp <- $r13
	#DEBUG_VALUE: ReadTIFFImage:input_file <- [DW_OP_LLVM_entry_value 1] $rsi
	#DEBUG_VALUE: ReadTIFFImage:FrameNoInFile <- [DW_OP_LLVM_entry_value 1] $edx
	#DEBUG_VALUE: ReadTIFFImage:source <- [DW_OP_plus_uconst 136] [$rsp+0]
	#DEBUG_VALUE: ReadTIFFImage:buf <- $r14
	#DEBUG_VALUE: ReadTIFFImage:temp <- 0
	#DEBUG_VALUE: ReadTIFFImage:temp2 <- 0
	#DEBUG_VALUE: readTiff:path <- [DW_OP_plus_uconst 1280, DW_OP_stack_value] $rsp
	#DEBUG_VALUE: readImageData:i <- $rcx
	.loc	0 557 16 is_stmt 1              # ldecod_src/io_tiff.c:557:16
	movzbl	(%rsi), %r10d
.Ltmp399:
	#DEBUG_VALUE: readImageData:p <- $rdi
	#DEBUG_VALUE: readImageData:s <- $rsi
	#DEBUG_VALUE: readImageData:j <- [DW_OP_LLVM_arg 0, DW_OP_consts 18446744073709551615, DW_OP_div, DW_OP_LLVM_arg 1, DW_OP_plus, DW_OP_stack_value] $r9d, $r8d
	.loc	0 557 18 is_stmt 0              # ldecod_src/io_tiff.c:557:18
	incq	%rsi
.Ltmp400:
	#DEBUG_VALUE: readImageData:s <- $rsi
	.loc	0 557 14                        # ldecod_src/io_tiff.c:557:14
	movw	%r10w, (%rdi)
	.loc	0 557 11                        # ldecod_src/io_tiff.c:557:11
	addq	$2, %rdi
.Ltmp401:
	#DEBUG_VALUE: readImageData:p <- $rdi
	#DEBUG_VALUE: readImageData:j <- [DW_OP_LLVM_arg 0, DW_OP_consts 18446744073709551615, DW_OP_div, DW_OP_consts 1, DW_OP_LLVM_arg 1, DW_OP_plus, DW_OP_plus, DW_OP_stack_value] $r9d, $r8d
	.loc	0 555 7 is_stmt 1               # ldecod_src/io_tiff.c:555:7
	decl	%r9d
.Ltmp402:
	cmpl	%r9d, %eax
	jne	.LBB4_65
.Ltmp403:
# %bb.66:                               # %for.body17.i.i.prol.loopexit.loopexit
                                        #   in Loop: Header=BB4_54 Depth=1
	#DEBUG_VALUE: ReadTIFFImage:p_Inp <- $r13
	#DEBUG_VALUE: ReadTIFFImage:input_file <- [DW_OP_LLVM_entry_value 1] $rsi
	#DEBUG_VALUE: ReadTIFFImage:FrameNoInFile <- [DW_OP_LLVM_entry_value 1] $edx
	#DEBUG_VALUE: ReadTIFFImage:source <- [DW_OP_plus_uconst 136] [$rsp+0]
	#DEBUG_VALUE: ReadTIFFImage:buf <- $r14
	#DEBUG_VALUE: ReadTIFFImage:temp <- 0
	#DEBUG_VALUE: ReadTIFFImage:temp2 <- 0
	#DEBUG_VALUE: readTiff:path <- [DW_OP_plus_uconst 1280, DW_OP_stack_value] $rsp
	#DEBUG_VALUE: readImageData:p <- $rdi
	#DEBUG_VALUE: readImageData:i <- $rcx
	#DEBUG_VALUE: readImageData:s <- $rsi
	movl	%r8d, %eax
	subl	%r9d, %eax
	subl	%edx, %r8d
	cmpl	$-8, %r8d
	ja	.LBB4_52
	jmp	.LBB4_68
.Ltmp404:
.LBB4_67:                               #   in Loop: Header=BB4_54 Depth=1
	#DEBUG_VALUE: ReadTIFFImage:p_Inp <- $r13
	#DEBUG_VALUE: ReadTIFFImage:input_file <- [DW_OP_LLVM_entry_value 1] $rsi
	#DEBUG_VALUE: ReadTIFFImage:FrameNoInFile <- [DW_OP_LLVM_entry_value 1] $edx
	#DEBUG_VALUE: ReadTIFFImage:source <- [DW_OP_plus_uconst 136] [$rsp+0]
	#DEBUG_VALUE: ReadTIFFImage:buf <- $r14
	#DEBUG_VALUE: ReadTIFFImage:temp <- 0
	#DEBUG_VALUE: ReadTIFFImage:temp2 <- 0
	#DEBUG_VALUE: readTiff:path <- [DW_OP_plus_uconst 1280, DW_OP_stack_value] $rsp
	#DEBUG_VALUE: readImageData:i <- $rcx
	#DEBUG_VALUE: readImageData:j <- 0
	.loc	0 0 7 is_stmt 0                 # ldecod_src/io_tiff.c:0:7
	movl	%r8d, %eax
	.loc	0 555 7                         # ldecod_src/io_tiff.c:555:7
	subl	%edx, %r8d
	cmpl	$-8, %r8d
	ja	.LBB4_52
.Ltmp405:
.LBB4_68:                               # %for.body17.i.i.preheader5
                                        #   in Loop: Header=BB4_54 Depth=1
	#DEBUG_VALUE: ReadTIFFImage:p_Inp <- $r13
	#DEBUG_VALUE: ReadTIFFImage:input_file <- [DW_OP_LLVM_entry_value 1] $rsi
	#DEBUG_VALUE: ReadTIFFImage:FrameNoInFile <- [DW_OP_LLVM_entry_value 1] $edx
	#DEBUG_VALUE: ReadTIFFImage:source <- [DW_OP_plus_uconst 136] [$rsp+0]
	#DEBUG_VALUE: ReadTIFFImage:buf <- $r14
	#DEBUG_VALUE: ReadTIFFImage:temp <- 0
	#DEBUG_VALUE: ReadTIFFImage:temp2 <- 0
	#DEBUG_VALUE: readTiff:path <- [DW_OP_plus_uconst 1280, DW_OP_stack_value] $rsp
	#DEBUG_VALUE: readImageData:i <- $rcx
	subl	%eax, %edx
	xorl	%eax, %eax
.Ltmp406:
	.p2align	4, 0x90
.LBB4_69:                               # %for.body17.i.i
                                        #   Parent Loop BB4_54 Depth=1
                                        # =>  This Inner Loop Header: Depth=2
	#DEBUG_VALUE: ReadTIFFImage:p_Inp <- $r13
	#DEBUG_VALUE: ReadTIFFImage:input_file <- [DW_OP_LLVM_entry_value 1] $rsi
	#DEBUG_VALUE: ReadTIFFImage:FrameNoInFile <- [DW_OP_LLVM_entry_value 1] $edx
	#DEBUG_VALUE: ReadTIFFImage:source <- [DW_OP_plus_uconst 136] [$rsp+0]
	#DEBUG_VALUE: ReadTIFFImage:buf <- $r14
	#DEBUG_VALUE: ReadTIFFImage:temp <- 0
	#DEBUG_VALUE: ReadTIFFImage:temp2 <- 0
	#DEBUG_VALUE: readTiff:path <- [DW_OP_plus_uconst 1280, DW_OP_stack_value] $rsp
	#DEBUG_VALUE: readImageData:i <- $rcx
	#DEBUG_VALUE: readImageData:p <- $rdi
	#DEBUG_VALUE: readImageData:s <- [DW_OP_LLVM_arg 0, DW_OP_consts 8, DW_OP_div, DW_OP_consts 8, DW_OP_mul, DW_OP_LLVM_arg 1, DW_OP_plus, DW_OP_stack_value] $rax, $rsi
	#DEBUG_VALUE: readImageData:j <- [DW_OP_LLVM_arg 0, DW_OP_consts 8, DW_OP_div, DW_OP_consts 8, DW_OP_mul, DW_OP_LLVM_arg 1, DW_OP_plus, DW_OP_stack_value] undef, undef
	#DEBUG_VALUE: readImageData:s <- [DW_OP_LLVM_arg 0, DW_OP_consts 8, DW_OP_div, DW_OP_consts 8, DW_OP_mul, DW_OP_consts 1, DW_OP_LLVM_arg 1, DW_OP_plus, DW_OP_plus, DW_OP_stack_value] $rax, $rsi
	.loc	0 557 16 is_stmt 1              # ldecod_src/io_tiff.c:557:16
	movzbl	(%rsi,%rax), %r8d
.Ltmp407:
	#DEBUG_VALUE: readImageData:p <- [DW_OP_plus_uconst 2, DW_OP_stack_value] $rdi
	.loc	0 557 14 is_stmt 0              # ldecod_src/io_tiff.c:557:14
	movw	%r8w, (%rdi)
.Ltmp408:
	#DEBUG_VALUE: readImageData:j <- [DW_OP_plus_uconst 1, DW_OP_stack_value] $rax
	#DEBUG_VALUE: readImageData:s <- [DW_OP_LLVM_arg 0, DW_OP_consts 8, DW_OP_div, DW_OP_consts 8, DW_OP_mul, DW_OP_consts 2, DW_OP_LLVM_arg 1, DW_OP_plus, DW_OP_plus, DW_OP_stack_value] $rax, $rsi
	.loc	0 557 16                        # ldecod_src/io_tiff.c:557:16
	movzbl	1(%rsi,%rax), %r8d
.Ltmp409:
	#DEBUG_VALUE: readImageData:p <- [DW_OP_plus_uconst 4, DW_OP_stack_value] $rdi
	.loc	0 557 14                        # ldecod_src/io_tiff.c:557:14
	movw	%r8w, 2(%rdi)
.Ltmp410:
	#DEBUG_VALUE: readImageData:j <- [DW_OP_plus_uconst 2, DW_OP_stack_value] $rax
	#DEBUG_VALUE: readImageData:s <- [DW_OP_LLVM_arg 0, DW_OP_consts 8, DW_OP_div, DW_OP_consts 8, DW_OP_mul, DW_OP_consts 3, DW_OP_LLVM_arg 1, DW_OP_plus, DW_OP_plus, DW_OP_stack_value] $rax, $rsi
	.loc	0 557 16                        # ldecod_src/io_tiff.c:557:16
	movzbl	2(%rsi,%rax), %r8d
.Ltmp411:
	#DEBUG_VALUE: readImageData:p <- [DW_OP_plus_uconst 6, DW_OP_stack_value] $rdi
	.loc	0 557 14                        # ldecod_src/io_tiff.c:557:14
	movw	%r8w, 4(%rdi)
.Ltmp412:
	#DEBUG_VALUE: readImageData:j <- [DW_OP_plus_uconst 3, DW_OP_stack_value] $rax
	#DEBUG_VALUE: readImageData:s <- [DW_OP_LLVM_arg 0, DW_OP_consts 8, DW_OP_div, DW_OP_consts 8, DW_OP_mul, DW_OP_consts 4, DW_OP_LLVM_arg 1, DW_OP_plus, DW_OP_plus, DW_OP_stack_value] $rax, $rsi
	.loc	0 557 16                        # ldecod_src/io_tiff.c:557:16
	movzbl	3(%rsi,%rax), %r8d
.Ltmp413:
	#DEBUG_VALUE: readImageData:p <- [DW_OP_plus_uconst 8, DW_OP_stack_value] $rdi
	.loc	0 557 14                        # ldecod_src/io_tiff.c:557:14
	movw	%r8w, 6(%rdi)
.Ltmp414:
	#DEBUG_VALUE: readImageData:j <- [DW_OP_plus_uconst 4, DW_OP_stack_value] $rax
	#DEBUG_VALUE: readImageData:s <- [DW_OP_LLVM_arg 0, DW_OP_consts 8, DW_OP_div, DW_OP_consts 8, DW_OP_mul, DW_OP_consts 5, DW_OP_LLVM_arg 1, DW_OP_plus, DW_OP_plus, DW_OP_stack_value] $rax, $rsi
	.loc	0 557 16                        # ldecod_src/io_tiff.c:557:16
	movzbl	4(%rsi,%rax), %r8d
.Ltmp415:
	#DEBUG_VALUE: readImageData:p <- [DW_OP_plus_uconst 10, DW_OP_stack_value] $rdi
	.loc	0 557 14                        # ldecod_src/io_tiff.c:557:14
	movw	%r8w, 8(%rdi)
.Ltmp416:
	#DEBUG_VALUE: readImageData:j <- [DW_OP_plus_uconst 5, DW_OP_stack_value] $rax
	#DEBUG_VALUE: readImageData:s <- [DW_OP_LLVM_arg 0, DW_OP_consts 8, DW_OP_div, DW_OP_consts 8, DW_OP_mul, DW_OP_consts 6, DW_OP_LLVM_arg 1, DW_OP_plus, DW_OP_plus, DW_OP_stack_value] $rax, $rsi
	.loc	0 557 16                        # ldecod_src/io_tiff.c:557:16
	movzbl	5(%rsi,%rax), %r8d
.Ltmp417:
	#DEBUG_VALUE: readImageData:p <- [DW_OP_plus_uconst 12, DW_OP_stack_value] $rdi
	.loc	0 557 14                        # ldecod_src/io_tiff.c:557:14
	movw	%r8w, 10(%rdi)
.Ltmp418:
	#DEBUG_VALUE: readImageData:j <- [DW_OP_plus_uconst 6, DW_OP_stack_value] $rax
	#DEBUG_VALUE: readImageData:s <- [DW_OP_LLVM_arg 0, DW_OP_consts 8, DW_OP_div, DW_OP_consts 8, DW_OP_mul, DW_OP_consts 7, DW_OP_LLVM_arg 1, DW_OP_plus, DW_OP_plus, DW_OP_stack_value] $rax, $rsi
	.loc	0 557 16                        # ldecod_src/io_tiff.c:557:16
	movzbl	6(%rsi,%rax), %r8d
.Ltmp419:
	#DEBUG_VALUE: readImageData:p <- [DW_OP_plus_uconst 14, DW_OP_stack_value] $rdi
	.loc	0 557 14                        # ldecod_src/io_tiff.c:557:14
	movw	%r8w, 12(%rdi)
.Ltmp420:
	#DEBUG_VALUE: readImageData:j <- [DW_OP_plus_uconst 7, DW_OP_stack_value] $rax
	#DEBUG_VALUE: readImageData:s <- [DW_OP_LLVM_arg 0, DW_OP_consts 8, DW_OP_div, DW_OP_consts 8, DW_OP_mul, DW_OP_consts 8, DW_OP_LLVM_arg 1, DW_OP_plus, DW_OP_plus, DW_OP_stack_value] $rax, $rsi
	.loc	0 557 16                        # ldecod_src/io_tiff.c:557:16
	movzbl	7(%rsi,%rax), %r8d
	.loc	0 557 14                        # ldecod_src/io_tiff.c:557:14
	movw	%r8w, 14(%rdi)
	.loc	0 557 11                        # ldecod_src/io_tiff.c:557:11
	addq	$16, %rdi
.Ltmp421:
	#DEBUG_VALUE: readImageData:p <- $rdi
	#DEBUG_VALUE: readImageData:j <- [DW_OP_LLVM_arg 0, DW_OP_consts 8, DW_OP_div, DW_OP_consts 8, DW_OP_mul, DW_OP_consts 8, DW_OP_LLVM_arg 1, DW_OP_plus, DW_OP_plus, DW_OP_stack_value] undef, undef
	.loc	0 555 19 is_stmt 1              # ldecod_src/io_tiff.c:555:19
	addq	$8, %rax
.Ltmp422:
	cmpl	%eax, %edx
.Ltmp423:
	.loc	0 555 7 is_stmt 0               # ldecod_src/io_tiff.c:555:7
	jne	.LBB4_69
	jmp	.LBB4_52
.Ltmp424:
.LBB4_60:                               # %vector.ph
                                        #   in Loop: Header=BB4_54 Depth=1
	#DEBUG_VALUE: ReadTIFFImage:p_Inp <- $r13
	#DEBUG_VALUE: ReadTIFFImage:input_file <- [DW_OP_LLVM_entry_value 1] $rsi
	#DEBUG_VALUE: ReadTIFFImage:FrameNoInFile <- [DW_OP_LLVM_entry_value 1] $edx
	#DEBUG_VALUE: ReadTIFFImage:source <- [DW_OP_plus_uconst 136] [$rsp+0]
	#DEBUG_VALUE: ReadTIFFImage:buf <- $r14
	#DEBUG_VALUE: ReadTIFFImage:temp <- 0
	#DEBUG_VALUE: ReadTIFFImage:temp2 <- 0
	#DEBUG_VALUE: readTiff:path <- [DW_OP_plus_uconst 1280, DW_OP_stack_value] $rsp
	#DEBUG_VALUE: readImageData:p <- $rax
	#DEBUG_VALUE: readImageData:i <- $rcx
	#DEBUG_VALUE: readImageData:s <- $rsi
	#DEBUG_VALUE: readImageData:j <- 0
	movl	%edx, %r8d
	andl	$2147483616, %r8d               # imm = 0x7FFFFFE0
	movl	%r8d, %edi
	leaq	(%rax,%rdi,2), %rdi
	addq	%r8, %rsi
.Ltmp425:
	addq	%r10, %r9
	addq	$24, %r9
	xorl	%r10d, %r10d
.Ltmp426:
	.p2align	4, 0x90
.LBB4_61:                               # %vector.body
                                        #   Parent Loop BB4_54 Depth=1
                                        # =>  This Inner Loop Header: Depth=2
	#DEBUG_VALUE: ReadTIFFImage:p_Inp <- $r13
	#DEBUG_VALUE: ReadTIFFImage:input_file <- [DW_OP_LLVM_entry_value 1] $rsi
	#DEBUG_VALUE: ReadTIFFImage:FrameNoInFile <- [DW_OP_LLVM_entry_value 1] $edx
	#DEBUG_VALUE: ReadTIFFImage:source <- [DW_OP_plus_uconst 136] [$rsp+0]
	#DEBUG_VALUE: ReadTIFFImage:buf <- $r14
	#DEBUG_VALUE: ReadTIFFImage:temp <- 0
	#DEBUG_VALUE: ReadTIFFImage:temp2 <- 0
	#DEBUG_VALUE: readTiff:path <- [DW_OP_plus_uconst 1280, DW_OP_stack_value] $rsp
	#DEBUG_VALUE: readImageData:p <- $rax
	#DEBUG_VALUE: readImageData:i <- $rcx
	#DEBUG_VALUE: readImageData:j <- 0
	.loc	0 557 16 is_stmt 1              # ldecod_src/io_tiff.c:557:16
	movq	-24(%r9,%r10), %xmm1            # xmm1 = mem[0],zero
	movq	-16(%r9,%r10), %xmm2            # xmm2 = mem[0],zero
	movq	-8(%r9,%r10), %xmm3             # xmm3 = mem[0],zero
	movq	(%r9,%r10), %xmm4               # xmm4 = mem[0],zero
	punpcklbw	%xmm0, %xmm1            # xmm1 = xmm1[0],xmm0[0],xmm1[1],xmm0[1],xmm1[2],xmm0[2],xmm1[3],xmm0[3],xmm1[4],xmm0[4],xmm1[5],xmm0[5],xmm1[6],xmm0[6],xmm1[7],xmm0[7]
	punpcklbw	%xmm0, %xmm2            # xmm2 = xmm2[0],xmm0[0],xmm2[1],xmm0[1],xmm2[2],xmm0[2],xmm2[3],xmm0[3],xmm2[4],xmm0[4],xmm2[5],xmm0[5],xmm2[6],xmm0[6],xmm2[7],xmm0[7]
	punpcklbw	%xmm0, %xmm3            # xmm3 = xmm3[0],xmm0[0],xmm3[1],xmm0[1],xmm3[2],xmm0[2],xmm3[3],xmm0[3],xmm3[4],xmm0[4],xmm3[5],xmm0[5],xmm3[6],xmm0[6],xmm3[7],xmm0[7]
	punpcklbw	%xmm0, %xmm4            # xmm4 = xmm4[0],xmm0[0],xmm4[1],xmm0[1],xmm4[2],xmm0[2],xmm4[3],xmm0[3],xmm4[4],xmm0[4],xmm4[5],xmm0[5],xmm4[6],xmm0[6],xmm4[7],xmm0[7]
	.loc	0 557 14 is_stmt 0              # ldecod_src/io_tiff.c:557:14
	movdqu	%xmm1, (%rax,%r10,2)
	movdqu	%xmm2, 16(%rax,%r10,2)
	movdqu	%xmm3, 32(%rax,%r10,2)
	movdqu	%xmm4, 48(%rax,%r10,2)
	addq	$32, %r10
	cmpq	%r10, %r8
	jne	.LBB4_61
.Ltmp427:
# %bb.62:                               # %middle.block
                                        #   in Loop: Header=BB4_54 Depth=1
	#DEBUG_VALUE: ReadTIFFImage:p_Inp <- $r13
	#DEBUG_VALUE: ReadTIFFImage:input_file <- [DW_OP_LLVM_entry_value 1] $rsi
	#DEBUG_VALUE: ReadTIFFImage:FrameNoInFile <- [DW_OP_LLVM_entry_value 1] $edx
	#DEBUG_VALUE: ReadTIFFImage:source <- [DW_OP_plus_uconst 136] [$rsp+0]
	#DEBUG_VALUE: ReadTIFFImage:buf <- $r14
	#DEBUG_VALUE: ReadTIFFImage:temp <- 0
	#DEBUG_VALUE: ReadTIFFImage:temp2 <- 0
	#DEBUG_VALUE: readTiff:path <- [DW_OP_plus_uconst 1280, DW_OP_stack_value] $rsp
	#DEBUG_VALUE: readImageData:p <- $rax
	#DEBUG_VALUE: readImageData:i <- $rcx
	#DEBUG_VALUE: readImageData:j <- 0
	.loc	0 555 7 is_stmt 1               # ldecod_src/io_tiff.c:555:7
	cmpq	%rdx, %r8
	je	.LBB4_52
	jmp	.LBB4_63
.Ltmp428:
.LBB4_70:                               # %if.then
	#DEBUG_VALUE: ReadTIFFImage:p_Inp <- $r13
	#DEBUG_VALUE: ReadTIFFImage:input_file <- $rsi
	#DEBUG_VALUE: ReadTIFFImage:FrameNoInFile <- $edx
	#DEBUG_VALUE: ReadTIFFImage:source <- $r15
	#DEBUG_VALUE: ReadTIFFImage:buf <- $r14
	#DEBUG_VALUE: ReadTIFFImage:temp <- 0
	#DEBUG_VALUE: ReadTIFFImage:temp2 <- 0
	.loc	0 1036 14                       # ldecod_src/io_tiff.c:1036:14
	movq	stderr@GOTPCREL(%rip), %rax
	movq	(%rax), %rcx
	.loc	0 1036 5 is_stmt 0              # ldecod_src/io_tiff.c:1036:5
	movl	$.L.str, %edi
	movl	$102, %esi
.Ltmp429:
	#DEBUG_VALUE: ReadTIFFImage:input_file <- [DW_OP_LLVM_entry_value 1] $rsi
	movl	$1, %edx
.Ltmp430:
	#DEBUG_VALUE: ReadTIFFImage:FrameNoInFile <- $r9d
	callq	fwrite@PLT
.Ltmp431:
	#DEBUG_VALUE: ReadTIFFImage:FrameNoInFile <- [DW_OP_LLVM_entry_value 1] $edx
	.loc	0 1037 5 is_stmt 1              # ldecod_src/io_tiff.c:1037:5
	jmp	.LBB4_106
.Ltmp432:
.LBB4_71:                               # %sw.bb23.i.i
	#DEBUG_VALUE: ReadTIFFImage:p_Inp <- $r13
	#DEBUG_VALUE: ReadTIFFImage:input_file <- [DW_OP_LLVM_entry_value 1] $rsi
	#DEBUG_VALUE: ReadTIFFImage:FrameNoInFile <- [DW_OP_LLVM_entry_value 1] $edx
	#DEBUG_VALUE: ReadTIFFImage:source <- [DW_OP_plus_uconst 136] [$rsp+0]
	#DEBUG_VALUE: ReadTIFFImage:buf <- $r14
	#DEBUG_VALUE: ReadTIFFImage:temp <- 0
	#DEBUG_VALUE: ReadTIFFImage:temp2 <- 0
	#DEBUG_VALUE: readTiff:path <- [DW_OP_plus_uconst 1280, DW_OP_stack_value] $rsp
	.loc	0 562 13                        # ldecod_src/io_tiff.c:562:13
	movq	ReadTIFFImage.t+16(%rip), %rcx
.Ltmp433:
	#DEBUG_VALUE: readImageData:mp <- $rcx
	#DEBUG_VALUE: readImageData:p <- $rax
	#DEBUG_VALUE: readImageData:i <- 0
	.loc	0 564 22                        # ldecod_src/io_tiff.c:564:22
	movl	ReadTIFFImage.t+28(%rip), %edi
	.loc	0 564 17 is_stmt 0              # ldecod_src/io_tiff.c:564:17
	testl	%edi, %edi
	movq	216(%rsp), %r12                 # 8-byte Reload
.Ltmp434:
	.loc	0 564 5                         # ldecod_src/io_tiff.c:564:5
	jle	.LBB4_81
.Ltmp435:
# %bb.72:                               # %for.body30.i.i.preheader
	#DEBUG_VALUE: ReadTIFFImage:p_Inp <- $r13
	#DEBUG_VALUE: ReadTIFFImage:input_file <- [DW_OP_LLVM_entry_value 1] $rsi
	#DEBUG_VALUE: ReadTIFFImage:FrameNoInFile <- [DW_OP_LLVM_entry_value 1] $edx
	#DEBUG_VALUE: ReadTIFFImage:source <- [DW_OP_plus_uconst 136] [$rsp+0]
	#DEBUG_VALUE: ReadTIFFImage:buf <- $r14
	#DEBUG_VALUE: ReadTIFFImage:temp <- 0
	#DEBUG_VALUE: ReadTIFFImage:temp2 <- 0
	#DEBUG_VALUE: readTiff:path <- [DW_OP_plus_uconst 1280, DW_OP_stack_value] $rsp
	#DEBUG_VALUE: readImageData:p <- $rax
	#DEBUG_VALUE: readImageData:i <- 0
	#DEBUG_VALUE: readImageData:mp <- $rcx
	.loc	0 0 5                           # ldecod_src/io_tiff.c:0:5
	xorl	%edx, %edx
	jmp	.LBB4_75
.Ltmp436:
.LBB4_73:                               # %for.inc51.loopexit.i.i
                                        #   in Loop: Header=BB4_75 Depth=1
	#DEBUG_VALUE: ReadTIFFImage:p_Inp <- $r13
	#DEBUG_VALUE: ReadTIFFImage:input_file <- [DW_OP_LLVM_entry_value 1] $rsi
	#DEBUG_VALUE: ReadTIFFImage:FrameNoInFile <- [DW_OP_LLVM_entry_value 1] $edx
	#DEBUG_VALUE: ReadTIFFImage:source <- [DW_OP_plus_uconst 136] [$rsp+0]
	#DEBUG_VALUE: ReadTIFFImage:buf <- $r14
	#DEBUG_VALUE: ReadTIFFImage:temp <- 0
	#DEBUG_VALUE: ReadTIFFImage:temp2 <- 0
	#DEBUG_VALUE: readTiff:path <- [DW_OP_plus_uconst 1280, DW_OP_stack_value] $rsp
	#DEBUG_VALUE: readImageData:p <- $rax
	#DEBUG_VALUE: readImageData:i <- $rdx
	#DEBUG_VALUE: readImageData:mp <- $rcx
	.loc	0 564 22                        # ldecod_src/io_tiff.c:564:22
	movl	ReadTIFFImage.t+28(%rip), %edi
.Ltmp437:
.LBB4_74:                               # %for.inc51.i.i
                                        #   in Loop: Header=BB4_75 Depth=1
	#DEBUG_VALUE: ReadTIFFImage:p_Inp <- $r13
	#DEBUG_VALUE: ReadTIFFImage:input_file <- [DW_OP_LLVM_entry_value 1] $rsi
	#DEBUG_VALUE: ReadTIFFImage:FrameNoInFile <- [DW_OP_LLVM_entry_value 1] $edx
	#DEBUG_VALUE: ReadTIFFImage:source <- [DW_OP_plus_uconst 136] [$rsp+0]
	#DEBUG_VALUE: ReadTIFFImage:buf <- $r14
	#DEBUG_VALUE: ReadTIFFImage:temp <- 0
	#DEBUG_VALUE: ReadTIFFImage:temp2 <- 0
	#DEBUG_VALUE: readTiff:path <- [DW_OP_plus_uconst 1280, DW_OP_stack_value] $rsp
	#DEBUG_VALUE: readImageData:p <- $rax
	#DEBUG_VALUE: readImageData:i <- $rdx
	#DEBUG_VALUE: readImageData:mp <- $rcx
	.loc	0 564 31                        # ldecod_src/io_tiff.c:564:31
	incq	%rdx
.Ltmp438:
	#DEBUG_VALUE: readImageData:i <- $rdx
	#DEBUG_VALUE: readImageData:p <- $rax
	.loc	0 564 17                        # ldecod_src/io_tiff.c:564:17
	movslq	%edi, %rsi
	cmpq	%rsi, %rdx
.Ltmp439:
	.loc	0 564 5                         # ldecod_src/io_tiff.c:564:5
	jge	.LBB4_81
.Ltmp440:
.LBB4_75:                               # %for.body30.i.i
                                        # =>This Loop Header: Depth=1
                                        #     Child Loop BB4_78 Depth 2
	#DEBUG_VALUE: ReadTIFFImage:p_Inp <- $r13
	#DEBUG_VALUE: ReadTIFFImage:input_file <- [DW_OP_LLVM_entry_value 1] $rsi
	#DEBUG_VALUE: ReadTIFFImage:FrameNoInFile <- [DW_OP_LLVM_entry_value 1] $edx
	#DEBUG_VALUE: ReadTIFFImage:source <- [DW_OP_plus_uconst 136] [$rsp+0]
	#DEBUG_VALUE: ReadTIFFImage:buf <- $r14
	#DEBUG_VALUE: ReadTIFFImage:temp <- 0
	#DEBUG_VALUE: ReadTIFFImage:temp2 <- 0
	#DEBUG_VALUE: readTiff:path <- [DW_OP_plus_uconst 1280, DW_OP_stack_value] $rsp
	#DEBUG_VALUE: readImageData:p <- $rax
	#DEBUG_VALUE: readImageData:mp <- $rcx
	#DEBUG_VALUE: readImageData:p <- $rax
	#DEBUG_VALUE: readImageData:i <- $rdx
	.loc	0 566 11 is_stmt 1              # ldecod_src/io_tiff.c:566:11
	movl	ReadTIFFImage.t+68(,%rdx,4), %esi
.Ltmp441:
	#DEBUG_VALUE: readImageData:n <- undef
	.loc	0 567 33                        # ldecod_src/io_tiff.c:567:33
	movl	ReadTIFFImage.t+4388(,%rdx,4), %r8d
	.loc	0 567 31 is_stmt 0              # ldecod_src/io_tiff.c:567:31
	addq	ReadTIFFImage.t+8(%rip), %r8
	.loc	0 567 13                        # ldecod_src/io_tiff.c:567:13
	movq	%r8, ReadTIFFImage.t+16(%rip)
.Ltmp442:
	#DEBUG_VALUE: readImageData:j <- 0
	.loc	0 568 19 is_stmt 1              # ldecod_src/io_tiff.c:568:19
	cmpl	$2, %esi
.Ltmp443:
	.loc	0 568 7 is_stmt 0               # ldecod_src/io_tiff.c:568:7
	jb	.LBB4_74
.Ltmp444:
# %bb.76:                               # %for.body44.i.i.preheader
                                        #   in Loop: Header=BB4_75 Depth=1
	#DEBUG_VALUE: ReadTIFFImage:p_Inp <- $r13
	#DEBUG_VALUE: ReadTIFFImage:input_file <- [DW_OP_LLVM_entry_value 1] $rsi
	#DEBUG_VALUE: ReadTIFFImage:FrameNoInFile <- [DW_OP_LLVM_entry_value 1] $edx
	#DEBUG_VALUE: ReadTIFFImage:source <- [DW_OP_plus_uconst 136] [$rsp+0]
	#DEBUG_VALUE: ReadTIFFImage:buf <- $r14
	#DEBUG_VALUE: ReadTIFFImage:temp <- 0
	#DEBUG_VALUE: ReadTIFFImage:temp2 <- 0
	#DEBUG_VALUE: readTiff:path <- [DW_OP_plus_uconst 1280, DW_OP_stack_value] $rsp
	#DEBUG_VALUE: readImageData:p <- $rax
	#DEBUG_VALUE: readImageData:i <- $rdx
	#DEBUG_VALUE: readImageData:j <- 0
	#DEBUG_VALUE: readImageData:mp <- $rcx
	.loc	0 0 0                           # ldecod_src/io_tiff.c:0:0
	movl	%esi, %edi
	shrl	%edi
.Ltmp445:
	#DEBUG_VALUE: readImageData:n <- $edi
	.loc	0 568 7                         # ldecod_src/io_tiff.c:568:7
	cmpl	$1, %edi
	je	.LBB4_79
.Ltmp446:
# %bb.77:                               # %for.body44.i.i.preheader.new
                                        #   in Loop: Header=BB4_75 Depth=1
	#DEBUG_VALUE: ReadTIFFImage:p_Inp <- $r13
	#DEBUG_VALUE: ReadTIFFImage:input_file <- [DW_OP_LLVM_entry_value 1] $rsi
	#DEBUG_VALUE: ReadTIFFImage:FrameNoInFile <- [DW_OP_LLVM_entry_value 1] $edx
	#DEBUG_VALUE: ReadTIFFImage:source <- [DW_OP_plus_uconst 136] [$rsp+0]
	#DEBUG_VALUE: ReadTIFFImage:buf <- $r14
	#DEBUG_VALUE: ReadTIFFImage:temp <- 0
	#DEBUG_VALUE: ReadTIFFImage:temp2 <- 0
	#DEBUG_VALUE: readTiff:path <- [DW_OP_plus_uconst 1280, DW_OP_stack_value] $rsp
	#DEBUG_VALUE: readImageData:p <- $rax
	#DEBUG_VALUE: readImageData:i <- $rdx
	#DEBUG_VALUE: readImageData:n <- $edi
	#DEBUG_VALUE: readImageData:j <- 0
	#DEBUG_VALUE: readImageData:mp <- $rcx
	andl	$-2, %edi
.Ltmp447:
	.p2align	4, 0x90
.LBB4_78:                               # %for.body44.i.i
                                        #   Parent Loop BB4_75 Depth=1
                                        # =>  This Inner Loop Header: Depth=2
	#DEBUG_VALUE: ReadTIFFImage:p_Inp <- $r13
	#DEBUG_VALUE: ReadTIFFImage:input_file <- [DW_OP_LLVM_entry_value 1] $rsi
	#DEBUG_VALUE: ReadTIFFImage:FrameNoInFile <- [DW_OP_LLVM_entry_value 1] $edx
	#DEBUG_VALUE: ReadTIFFImage:source <- [DW_OP_plus_uconst 136] [$rsp+0]
	#DEBUG_VALUE: ReadTIFFImage:buf <- $r14
	#DEBUG_VALUE: ReadTIFFImage:temp <- 0
	#DEBUG_VALUE: ReadTIFFImage:temp2 <- 0
	#DEBUG_VALUE: readTiff:path <- [DW_OP_plus_uconst 1280, DW_OP_stack_value] $rsp
	#DEBUG_VALUE: readImageData:p <- $rax
	#DEBUG_VALUE: readImageData:i <- $rdx
	#DEBUG_VALUE: readImageData:mp <- $rcx
	#DEBUG_VALUE: readImageData:p <- $rax
	#DEBUG_VALUE: readImageData:j <- undef
	.loc	0 209 19 is_stmt 1              # ldecod_src/io_tiff.c:209:19
	movq	ReadTIFFImage.t+16(%rip), %r8
.Ltmp448:
	#DEBUG_VALUE: getU16:t <- undef
	leaq	1(%r8), %r9
	movq	%r9, ReadTIFFImage.t+16(%rip)
	.loc	0 209 13 is_stmt 0              # ldecod_src/io_tiff.c:209:13
	movzbl	(%r8), %r9d
.Ltmp449:
	#DEBUG_VALUE: getU16:u <- [DW_OP_LLVM_fragment 0 8] undef
	.loc	0 210 19 is_stmt 1              # ldecod_src/io_tiff.c:210:19
	leaq	2(%r8), %r10
	movq	%r10, ReadTIFFImage.t+16(%rip)
.Ltmp450:
	#DEBUG_VALUE: getU16:u <- [DW_OP_LLVM_fragment 8 8] undef
	.loc	0 211 10                        # ldecod_src/io_tiff.c:211:10
	movzbl	1(%r8), %r8d
	shll	$8, %r8d
	orl	%r9d, %r8d
.Ltmp451:
	#DEBUG_VALUE: readImageData:p <- [DW_OP_plus_uconst 2, DW_OP_stack_value] $rax
	.loc	0 570 14                        # ldecod_src/io_tiff.c:570:14
	movw	%r8w, (%rax)
.Ltmp452:
	.loc	0 209 19                        # ldecod_src/io_tiff.c:209:19
	movq	ReadTIFFImage.t+16(%rip), %r8
	leaq	1(%r8), %r9
	movq	%r9, ReadTIFFImage.t+16(%rip)
	.loc	0 209 13 is_stmt 0              # ldecod_src/io_tiff.c:209:13
	movzbl	(%r8), %r9d
.Ltmp453:
	#DEBUG_VALUE: getU16:u <- [DW_OP_LLVM_fragment 0 8] undef
	.loc	0 210 19 is_stmt 1              # ldecod_src/io_tiff.c:210:19
	leaq	2(%r8), %r10
	movq	%r10, ReadTIFFImage.t+16(%rip)
.Ltmp454:
	#DEBUG_VALUE: getU16:u <- [DW_OP_LLVM_fragment 8 8] undef
	.loc	0 211 10                        # ldecod_src/io_tiff.c:211:10
	movzbl	1(%r8), %r8d
	shll	$8, %r8d
	orl	%r9d, %r8d
.Ltmp455:
	.loc	0 570 14                        # ldecod_src/io_tiff.c:570:14
	movw	%r8w, 2(%rax)
	.loc	0 570 11 is_stmt 0              # ldecod_src/io_tiff.c:570:11
	addq	$4, %rax
.Ltmp456:
	#DEBUG_VALUE: readImageData:p <- $rax
	.loc	0 568 7 is_stmt 1               # ldecod_src/io_tiff.c:568:7
	addl	$-2, %edi
	jne	.LBB4_78
.Ltmp457:
.LBB4_79:                               # %for.inc51.loopexit.i.i.unr-lcssa
                                        #   in Loop: Header=BB4_75 Depth=1
	#DEBUG_VALUE: ReadTIFFImage:p_Inp <- $r13
	#DEBUG_VALUE: ReadTIFFImage:input_file <- [DW_OP_LLVM_entry_value 1] $rsi
	#DEBUG_VALUE: ReadTIFFImage:FrameNoInFile <- [DW_OP_LLVM_entry_value 1] $edx
	#DEBUG_VALUE: ReadTIFFImage:source <- [DW_OP_plus_uconst 136] [$rsp+0]
	#DEBUG_VALUE: ReadTIFFImage:buf <- $r14
	#DEBUG_VALUE: ReadTIFFImage:temp <- 0
	#DEBUG_VALUE: ReadTIFFImage:temp2 <- 0
	#DEBUG_VALUE: readTiff:path <- [DW_OP_plus_uconst 1280, DW_OP_stack_value] $rsp
	#DEBUG_VALUE: readImageData:p <- $rax
	#DEBUG_VALUE: readImageData:i <- $rdx
	#DEBUG_VALUE: readImageData:mp <- $rcx
	testb	$2, %sil
	je	.LBB4_73
.Ltmp458:
# %bb.80:                               # %for.body44.i.i.epil
                                        #   in Loop: Header=BB4_75 Depth=1
	#DEBUG_VALUE: ReadTIFFImage:p_Inp <- $r13
	#DEBUG_VALUE: ReadTIFFImage:input_file <- [DW_OP_LLVM_entry_value 1] $rsi
	#DEBUG_VALUE: ReadTIFFImage:FrameNoInFile <- [DW_OP_LLVM_entry_value 1] $edx
	#DEBUG_VALUE: ReadTIFFImage:source <- [DW_OP_plus_uconst 136] [$rsp+0]
	#DEBUG_VALUE: ReadTIFFImage:buf <- $r14
	#DEBUG_VALUE: ReadTIFFImage:temp <- 0
	#DEBUG_VALUE: ReadTIFFImage:temp2 <- 0
	#DEBUG_VALUE: readTiff:path <- [DW_OP_plus_uconst 1280, DW_OP_stack_value] $rsp
	#DEBUG_VALUE: readImageData:p <- $rax
	#DEBUG_VALUE: readImageData:i <- $rdx
	#DEBUG_VALUE: readImageData:mp <- $rcx
