	.text
	.file	"mb_prediction.c"
	.file	0 "/home/yjs/workspace/x264-test/src" "ldecod_src/mb_prediction.c" md5 0x5255a9d6dde64f187a6e170711e38a4e
	.file	1 "ldecod_src/inc" "typedefs.h" md5 0xe1393d024b72e653f4e6dbeffdb0b154
	.file	2 "ldecod_src/inc" "block.h" md5 0xe90b7727b4f0f4492b5dc2d8d9d6a429
	.file	3 "ldecod_src/inc" "ifunctions.h" md5 0x279401589ed56df99e287ad9e5fc564b
	.file	4 "ldecod_src/inc" "global.h" md5 0xc4ca3c417c5616a2ff6b6266e7376fc1
	.file	5 "ldecod_src/inc" "frame.h" md5 0xfd6ca9e1c707932f749220576db72b57
	.file	6 "ldecod_src/inc" "io_video.h" md5 0x1141c07f1801ad27d87214c419749431
	.file	7 "ldecod_src/inc" "types.h" md5 0x64f87bd13f2911471c7313b4ac17e90c
	.file	8 "ldecod_src/inc" "defines.h" md5 0xf06de374c735b286d10ba4ea0c8c0a5d
	.globl	mb_pred_intra4x4                # -- Begin function mb_pred_intra4x4
	.p2align	4, 0x90
	.type	mb_pred_intra4x4,@function
mb_pred_intra4x4:                       # @mb_pred_intra4x4
.Lfunc_begin0:
	.loc	0 43 0                          # ldecod_src/mb_prediction.c:43:0
	.cfi_startproc
# %bb.0:                                # %entry
	#DEBUG_VALUE: mb_pred_intra4x4:currMB <- $rdi
	#DEBUG_VALUE: mb_pred_intra4x4:curr_plane <- $esi
	#DEBUG_VALUE: mb_pred_intra4x4:currImg <- $rdx
	#DEBUG_VALUE: mb_pred_intra4x4:dec_picture <- $rcx
	pushq	%rbp
	.cfi_def_cfa_offset 16
	pushq	%r15
	.cfi_def_cfa_offset 24
	pushq	%r14
	.cfi_def_cfa_offset 32
	pushq	%r13
	.cfi_def_cfa_offset 40
	pushq	%r12
	.cfi_def_cfa_offset 48
	pushq	%rbx
	.cfi_def_cfa_offset 56
	subq	$56, %rsp
	.cfi_def_cfa_offset 112
	.cfi_offset %rbx, -56
	.cfi_offset %r12, -48
	.cfi_offset %r13, -40
	.cfi_offset %r14, -32
	.cfi_offset %r15, -24
	.cfi_offset %rbp, -16
	movq	%rdx, 32(%rsp)                  # 8-byte Spill
.Ltmp0:
	#DEBUG_VALUE: mb_pred_intra4x4:currImg <- [DW_OP_plus_uconst 32] [$rsp+0]
	movq	%rdi, %rbx
.Ltmp1:
	#DEBUG_VALUE: mb_pred_intra4x4:currSlice <- undef
	movq	%rcx, 48(%rsp)                  # 8-byte Spill
.Ltmp2:
	#DEBUG_VALUE: mb_pred_intra4x4:dec_picture <- [DW_OP_plus_uconst 48] [$rsp+0]
	.loc	0 45 26 prologue_end            # ldecod_src/mb_prediction.c:45:26
	movl	268(%rcx), %ecx
.Ltmp3:
	#DEBUG_VALUE: mb_pred_intra4x4:yuv <- undef
	#DEBUG_VALUE: mb_pred_intra4x4:i <- 0
	#DEBUG_VALUE: mb_pred_intra4x4:j <- 0
	#DEBUG_VALUE: mb_pred_intra4x4:j4 <- 0
	#DEBUG_VALUE: mb_pred_intra4x4:i4 <- 0
	.loc	0 50 45                         # ldecod_src/mb_prediction.c:50:45
	cmpl	$0, 92(%rdi)
	.loc	0 50 24 is_stmt 0               # ldecod_src/mb_prediction.c:50:24
	jne	.LBB0_1
.Ltmp4:
# %bb.2:                                # %entry
	#DEBUG_VALUE: mb_pred_intra4x4:currMB <- $rbx
	#DEBUG_VALUE: mb_pred_intra4x4:curr_plane <- $esi
	#DEBUG_VALUE: mb_pred_intra4x4:currImg <- [DW_OP_plus_uconst 32] [$rsp+0]
	#DEBUG_VALUE: mb_pred_intra4x4:dec_picture <- [DW_OP_plus_uconst 48] [$rsp+0]
	#DEBUG_VALUE: mb_pred_intra4x4:i <- 0
	#DEBUG_VALUE: mb_pred_intra4x4:j <- 0
	#DEBUG_VALUE: mb_pred_intra4x4:j4 <- 0
	#DEBUG_VALUE: mb_pred_intra4x4:i4 <- 0
	.loc	0 0 24                          # ldecod_src/mb_prediction.c:0:24
	movq	itrans4x4@GOTPCREL(%rip), %rax
	jmp	.LBB0_3
.Ltmp5:
.LBB0_1:
	#DEBUG_VALUE: mb_pred_intra4x4:currMB <- $rbx
	#DEBUG_VALUE: mb_pred_intra4x4:curr_plane <- $esi
	#DEBUG_VALUE: mb_pred_intra4x4:currImg <- [DW_OP_plus_uconst 32] [$rsp+0]
	#DEBUG_VALUE: mb_pred_intra4x4:dec_picture <- [DW_OP_plus_uconst 48] [$rsp+0]
	#DEBUG_VALUE: mb_pred_intra4x4:i <- 0
	#DEBUG_VALUE: mb_pred_intra4x4:j <- 0
	#DEBUG_VALUE: mb_pred_intra4x4:j4 <- 0
	#DEBUG_VALUE: mb_pred_intra4x4:i4 <- 0
	.loc	0 50 24                         # ldecod_src/mb_prediction.c:50:24
	movq	Inv_Residual_trans_4x4@GOTPCREL(%rip), %rax
.Ltmp6:
.LBB0_3:                                # %entry
	#DEBUG_VALUE: mb_pred_intra4x4:currMB <- $rbx
	#DEBUG_VALUE: mb_pred_intra4x4:curr_plane <- $esi
	#DEBUG_VALUE: mb_pred_intra4x4:currImg <- [DW_OP_plus_uconst 32] [$rsp+0]
	#DEBUG_VALUE: mb_pred_intra4x4:dec_picture <- [DW_OP_plus_uconst 48] [$rsp+0]
	#DEBUG_VALUE: mb_pred_intra4x4:i <- 0
	#DEBUG_VALUE: mb_pred_intra4x4:j <- 0
	#DEBUG_VALUE: mb_pred_intra4x4:j4 <- 0
	#DEBUG_VALUE: mb_pred_intra4x4:i4 <- 0
	.loc	0 0 0                           # ldecod_src/mb_prediction.c:0:0
	movq	(%rbx), %rdx
.Ltmp7:
	#DEBUG_VALUE: mb_pred_intra4x4:currSlice <- $rdx
	movq	%rdx, 16(%rsp)                  # 8-byte Spill
	decl	%ecx
.Ltmp8:
	#DEBUG_VALUE: mb_pred_intra4x4:yuv <- $ecx
	movl	%ecx, 44(%rsp)                  # 4-byte Spill
	.loc	0 50 22                         # ldecod_src/mb_prediction.c:50:22
	movq	%rax, 432(%rbx)
.Ltmp9:
	#DEBUG_VALUE: mb_pred_intra4x4:block8x8 <- 0
	.loc	0 0 22                          # ldecod_src/mb_prediction.c:0:22
	movl	%esi, %eax
	movq	%rax, 24(%rsp)                  # 8-byte Spill
	movq	$0, 8(%rsp)                     # 8-byte Folded Spill
	movl	%esi, 4(%rsp)                   # 4-byte Spill
.Ltmp10:
	#DEBUG_VALUE: mb_pred_intra4x4:curr_plane <- [DW_OP_plus_uconst 4] [$rsp+0]
	.p2align	4, 0x90
.LBB0_4:                                # %for.body
                                        # =>This Inner Loop Header: Depth=1
	#DEBUG_VALUE: mb_pred_intra4x4:currMB <- $rbx
	#DEBUG_VALUE: mb_pred_intra4x4:curr_plane <- [DW_OP_plus_uconst 24] [$rsp+0]
	#DEBUG_VALUE: mb_pred_intra4x4:currImg <- [DW_OP_plus_uconst 32] [$rsp+0]
	#DEBUG_VALUE: mb_pred_intra4x4:dec_picture <- [DW_OP_plus_uconst 48] [$rsp+0]
	#DEBUG_VALUE: mb_pred_intra4x4:currSlice <- [DW_OP_plus_uconst 16, DW_OP_deref] $rsp
	#DEBUG_VALUE: mb_pred_intra4x4:yuv <- [DW_OP_plus_uconst 44, DW_OP_deref] $rsp
	#DEBUG_VALUE: mb_pred_intra4x4:block8x8 <- [DW_OP_plus_uconst 8, DW_OP_deref_size 8, DW_OP_consts 4, DW_OP_div, DW_OP_stack_value] $rsp
	#DEBUG_VALUE: mb_pred_intra4x4:k <- [DW_OP_plus_uconst 8, DW_OP_deref_size 8, DW_OP_stack_value] $rsp
	movq	8(%rsp), %rax                   # 8-byte Reload
.Ltmp11:
	.loc	0 56 13 is_stmt 1               # ldecod_src/mb_prediction.c:56:13
	movzbl	decode_block_scan(%rax), %r15d
	.loc	0 56 34 is_stmt 0               # ldecod_src/mb_prediction.c:56:34
	movl	%r15d, %r13d
	andl	$3, %r13d
.Ltmp12:
	#DEBUG_VALUE: mb_pred_intra4x4:i <- $r13d
	.loc	0 57 34 is_stmt 1               # ldecod_src/mb_prediction.c:57:34
	shrl	$2, %r15d
	.loc	0 57 40 is_stmt 0               # ldecod_src/mb_prediction.c:57:40
	andl	$3, %r15d
.Ltmp13:
	#DEBUG_VALUE: mb_pred_intra4x4:j <- $r15d
	.loc	0 59 17 is_stmt 1               # ldecod_src/mb_prediction.c:59:17
	leal	(,%r13,4), %r14d
.Ltmp14:
	#DEBUG_VALUE: mb_pred_intra4x4:ioff <- $r14d
	#DEBUG_VALUE: mb_pred_intra4x4:joff <- undef
	#DEBUG_VALUE: mb_pred_intra4x4:i4 <- undef
	.loc	0 62 22                         # ldecod_src/mb_prediction.c:62:22
	movslq	36(%rbx), %rbp
	.loc	0 62 30 is_stmt 0               # ldecod_src/mb_prediction.c:62:30
	addq	%r15, %rbp
.Ltmp15:
	#DEBUG_VALUE: mb_pred_intra4x4:j4 <- $ebp
	#DEBUG_VALUE: mb_pred_intra4x4:j_pos <- [DW_OP_constu 4, DW_OP_mul, DW_OP_stack_value] $ebp
	#DEBUG_VALUE: mb_pred_intra4x4:i_pos <- [DW_OP_constu 4, DW_OP_mul, DW_OP_stack_value] undef
                                        # kill: def $r15d killed $r15d killed $r15 def $r15
	.loc	0 60 17 is_stmt 1               # ldecod_src/mb_prediction.c:60:17
	shll	$2, %r15d
.Ltmp16:
	#DEBUG_VALUE: mb_pred_intra4x4:joff <- $r15d
	.loc	0 61 30                         # ldecod_src/mb_prediction.c:61:30
	addl	32(%rbx), %r13d
.Ltmp17:
	#DEBUG_VALUE: mb_pred_intra4x4:i_pos <- [DW_OP_constu 4, DW_OP_mul, DW_OP_stack_value] $r13d
	#DEBUG_VALUE: mb_pred_intra4x4:i4 <- $r13d
	.loc	0 68 11                         # ldecod_src/mb_prediction.c:68:11
	movq	%rbx, %rdi
	movl	4(%rsp), %esi                   # 4-byte Reload
	movl	%r14d, %edx
	movl	%r15d, %ecx
	movl	%r13d, %r8d
	movl	%ebp, %r9d
	callq	intrapred@PLT
.Ltmp18:
	.loc	0 68 58 is_stmt 0               # ldecod_src/mb_prediction.c:68:58
	cmpl	$1, %eax
.Ltmp19:
	.loc	0 68 11                         # ldecod_src/mb_prediction.c:68:11
	je	.LBB0_14
.Ltmp20:
# %bb.5:                                # %if.end
                                        #   in Loop: Header=BB0_4 Depth=1
	#DEBUG_VALUE: mb_pred_intra4x4:currMB <- $rbx
	#DEBUG_VALUE: mb_pred_intra4x4:curr_plane <- [DW_OP_plus_uconst 24] [$rsp+0]
	#DEBUG_VALUE: mb_pred_intra4x4:currImg <- [DW_OP_plus_uconst 32] [$rsp+0]
	#DEBUG_VALUE: mb_pred_intra4x4:dec_picture <- [DW_OP_plus_uconst 48] [$rsp+0]
	#DEBUG_VALUE: mb_pred_intra4x4:currSlice <- [DW_OP_plus_uconst 16, DW_OP_deref] $rsp
	#DEBUG_VALUE: mb_pred_intra4x4:yuv <- [DW_OP_plus_uconst 44, DW_OP_deref] $rsp
	#DEBUG_VALUE: mb_pred_intra4x4:j4 <- $ebp
	#DEBUG_VALUE: mb_pred_intra4x4:i4 <- $r13d
	#DEBUG_VALUE: mb_pred_intra4x4:block8x8 <- [DW_OP_plus_uconst 8, DW_OP_deref_size 8, DW_OP_consts 4, DW_OP_div, DW_OP_stack_value] $rsp
	#DEBUG_VALUE: mb_pred_intra4x4:k <- [DW_OP_plus_uconst 8, DW_OP_deref_size 8, DW_OP_stack_value] $rsp
	#DEBUG_VALUE: mb_pred_intra4x4:ioff <- $r14d
	#DEBUG_VALUE: mb_pred_intra4x4:joff <- $r15d
	#DEBUG_VALUE: mb_pred_intra4x4:j_pos <- [DW_OP_constu 4, DW_OP_mul, DW_OP_stack_value] $ebp
	#DEBUG_VALUE: mb_pred_intra4x4:i_pos <- [DW_OP_constu 4, DW_OP_mul, DW_OP_stack_value] $r13d
	.loc	0 64 18 is_stmt 1               # ldecod_src/mb_prediction.c:64:18
	shll	$2, %r13d
.Ltmp21:
	#DEBUG_VALUE: mb_pred_intra4x4:i_pos <- $r13d
	#DEBUG_VALUE: mb_pred_intra4x4:j_pos <- undef
	.loc	0 72 7                          # ldecod_src/mb_prediction.c:72:7
	movq	%rbx, %rdi
	movl	4(%rsp), %r12d                  # 4-byte Reload
	movl	%r12d, %esi
	movl	%r14d, %edx
	movl	%r15d, %ecx
	callq	*432(%rbx)
.Ltmp22:
	.loc	0 74 28                         # ldecod_src/mb_prediction.c:74:28
	shlq	$5, %rbp
.Ltmp23:
	addq	32(%rsp), %rbp                  # 8-byte Folded Reload
	movq	16(%rsp), %rax                  # 8-byte Reload
	.loc	0 74 56 is_stmt 0               # ldecod_src/mb_prediction.c:74:56
	movq	1256(%rax), %rax
	.loc	0 74 45                         # ldecod_src/mb_prediction.c:74:45
	shll	$3, %r15d
.Ltmp24:
	.loc	0 0 45                          # ldecod_src/mb_prediction.c:0:45
	movq	24(%rsp), %rcx                  # 8-byte Reload
	.loc	0 74 45                         # ldecod_src/mb_prediction.c:74:45
	addq	(%rax,%rcx,8), %r15
	.loc	0 74 7                          # ldecod_src/mb_prediction.c:74:7
	movq	%rbp, %rdi
	movq	%r15, %rsi
	movl	%r13d, %edx
	movl	%r14d, %ecx
	callq	copy_image_data_4x4@PLT
.Ltmp25:
	#DEBUG_VALUE: mb_pred_intra4x4:k <- [DW_OP_plus_uconst 8, DW_OP_deref_size 8, DW_OP_constu 1, DW_OP_or, DW_OP_stack_value] $rsp
	.loc	0 0 7                           # ldecod_src/mb_prediction.c:0:7
	movq	8(%rsp), %rax                   # 8-byte Reload
	.loc	0 56 13 is_stmt 1               # ldecod_src/mb_prediction.c:56:13
	movzbl	decode_block_scan+1(%rax), %r15d
	.loc	0 56 34 is_stmt 0               # ldecod_src/mb_prediction.c:56:34
	movl	%r15d, %r13d
.Ltmp26:
	andl	$3, %r13d
.Ltmp27:
	#DEBUG_VALUE: mb_pred_intra4x4:i <- $r13d
	.loc	0 57 34 is_stmt 1               # ldecod_src/mb_prediction.c:57:34
	shrl	$2, %r15d
	.loc	0 57 40 is_stmt 0               # ldecod_src/mb_prediction.c:57:40
	andl	$3, %r15d
.Ltmp28:
	#DEBUG_VALUE: mb_pred_intra4x4:j <- $r15d
	.loc	0 59 17 is_stmt 1               # ldecod_src/mb_prediction.c:59:17
	leal	(,%r13,4), %r14d
.Ltmp29:
	#DEBUG_VALUE: mb_pred_intra4x4:ioff <- $r14d
	#DEBUG_VALUE: mb_pred_intra4x4:joff <- undef
	#DEBUG_VALUE: mb_pred_intra4x4:i4 <- undef
	.loc	0 62 22                         # ldecod_src/mb_prediction.c:62:22
	movslq	36(%rbx), %rbp
	.loc	0 62 30 is_stmt 0               # ldecod_src/mb_prediction.c:62:30
	addq	%r15, %rbp
.Ltmp30:
	#DEBUG_VALUE: mb_pred_intra4x4:j4 <- $ebp
	#DEBUG_VALUE: mb_pred_intra4x4:j_pos <- [DW_OP_constu 4, DW_OP_mul, DW_OP_stack_value] $ebp
	#DEBUG_VALUE: mb_pred_intra4x4:i_pos <- [DW_OP_constu 4, DW_OP_mul, DW_OP_stack_value] undef
                                        # kill: def $r15d killed $r15d killed $r15 def $r15
	.loc	0 60 17 is_stmt 1               # ldecod_src/mb_prediction.c:60:17
	shll	$2, %r15d
.Ltmp31:
	#DEBUG_VALUE: mb_pred_intra4x4:joff <- $r15d
	.loc	0 61 30                         # ldecod_src/mb_prediction.c:61:30
	addl	32(%rbx), %r13d
.Ltmp32:
	#DEBUG_VALUE: mb_pred_intra4x4:i_pos <- [DW_OP_constu 4, DW_OP_mul, DW_OP_stack_value] $r13d
	#DEBUG_VALUE: mb_pred_intra4x4:i4 <- $r13d
	.loc	0 68 11                         # ldecod_src/mb_prediction.c:68:11
	movq	%rbx, %rdi
	movl	%r12d, %esi
	movl	%r14d, %edx
	movl	%r15d, %ecx
	movl	%r13d, %r8d
	movl	%ebp, %r9d
	callq	intrapred@PLT
.Ltmp33:
	.loc	0 68 58 is_stmt 0               # ldecod_src/mb_prediction.c:68:58
	cmpl	$1, %eax
.Ltmp34:
	.loc	0 68 11                         # ldecod_src/mb_prediction.c:68:11
	je	.LBB0_14
.Ltmp35:
# %bb.6:                                # %if.end.1
                                        #   in Loop: Header=BB0_4 Depth=1
	#DEBUG_VALUE: mb_pred_intra4x4:currMB <- $rbx
	#DEBUG_VALUE: mb_pred_intra4x4:curr_plane <- [DW_OP_plus_uconst 24] [$rsp+0]
	#DEBUG_VALUE: mb_pred_intra4x4:currImg <- [DW_OP_plus_uconst 32] [$rsp+0]
	#DEBUG_VALUE: mb_pred_intra4x4:dec_picture <- [DW_OP_plus_uconst 48] [$rsp+0]
	#DEBUG_VALUE: mb_pred_intra4x4:currSlice <- [DW_OP_plus_uconst 16, DW_OP_deref] $rsp
	#DEBUG_VALUE: mb_pred_intra4x4:yuv <- [DW_OP_plus_uconst 44, DW_OP_deref] $rsp
	#DEBUG_VALUE: mb_pred_intra4x4:j4 <- $ebp
	#DEBUG_VALUE: mb_pred_intra4x4:i4 <- $r13d
	#DEBUG_VALUE: mb_pred_intra4x4:block8x8 <- [DW_OP_plus_uconst 8, DW_OP_deref_size 8, DW_OP_consts 4, DW_OP_div, DW_OP_stack_value] $rsp
	#DEBUG_VALUE: mb_pred_intra4x4:k <- [DW_OP_plus_uconst 8, DW_OP_deref_size 8, DW_OP_constu 1, DW_OP_or, DW_OP_stack_value] $rsp
	#DEBUG_VALUE: mb_pred_intra4x4:ioff <- $r14d
	#DEBUG_VALUE: mb_pred_intra4x4:joff <- $r15d
	#DEBUG_VALUE: mb_pred_intra4x4:j_pos <- [DW_OP_constu 4, DW_OP_mul, DW_OP_stack_value] $ebp
	#DEBUG_VALUE: mb_pred_intra4x4:i_pos <- [DW_OP_constu 4, DW_OP_mul, DW_OP_stack_value] $r13d
	.loc	0 64 18 is_stmt 1               # ldecod_src/mb_prediction.c:64:18
	shll	$2, %r13d
.Ltmp36:
	#DEBUG_VALUE: mb_pred_intra4x4:i_pos <- $r13d
	#DEBUG_VALUE: mb_pred_intra4x4:j_pos <- undef
	.loc	0 72 7                          # ldecod_src/mb_prediction.c:72:7
	movq	%rbx, %rdi
	movl	4(%rsp), %r12d                  # 4-byte Reload
	movl	%r12d, %esi
	movl	%r14d, %edx
	movl	%r15d, %ecx
	callq	*432(%rbx)
.Ltmp37:
	.loc	0 74 28                         # ldecod_src/mb_prediction.c:74:28
	shlq	$5, %rbp
.Ltmp38:
	addq	32(%rsp), %rbp                  # 8-byte Folded Reload
	movq	16(%rsp), %rax                  # 8-byte Reload
	.loc	0 74 56 is_stmt 0               # ldecod_src/mb_prediction.c:74:56
	movq	1256(%rax), %rax
	.loc	0 74 45                         # ldecod_src/mb_prediction.c:74:45
	shll	$3, %r15d
.Ltmp39:
	.loc	0 0 45                          # ldecod_src/mb_prediction.c:0:45
	movq	24(%rsp), %rcx                  # 8-byte Reload
	.loc	0 74 45                         # ldecod_src/mb_prediction.c:74:45
	addq	(%rax,%rcx,8), %r15
	.loc	0 74 7                          # ldecod_src/mb_prediction.c:74:7
	movq	%rbp, %rdi
	movq	%r15, %rsi
	movl	%r13d, %edx
	movl	%r14d, %ecx
	callq	copy_image_data_4x4@PLT
.Ltmp40:
	#DEBUG_VALUE: mb_pred_intra4x4:k <- [DW_OP_plus_uconst 8, DW_OP_deref_size 8, DW_OP_constu 2, DW_OP_or, DW_OP_stack_value] $rsp
	.loc	0 0 7                           # ldecod_src/mb_prediction.c:0:7
	movq	8(%rsp), %rax                   # 8-byte Reload
	.loc	0 56 13 is_stmt 1               # ldecod_src/mb_prediction.c:56:13
	movzbl	decode_block_scan+2(%rax), %r15d
	.loc	0 56 34 is_stmt 0               # ldecod_src/mb_prediction.c:56:34
	movl	%r15d, %r13d
.Ltmp41:
	andl	$3, %r13d
.Ltmp42:
	#DEBUG_VALUE: mb_pred_intra4x4:i <- $r13d
	.loc	0 57 34 is_stmt 1               # ldecod_src/mb_prediction.c:57:34
	shrl	$2, %r15d
	.loc	0 57 40 is_stmt 0               # ldecod_src/mb_prediction.c:57:40
	andl	$3, %r15d
.Ltmp43:
	#DEBUG_VALUE: mb_pred_intra4x4:j <- $r15d
	.loc	0 59 17 is_stmt 1               # ldecod_src/mb_prediction.c:59:17
	leal	(,%r13,4), %r14d
.Ltmp44:
	#DEBUG_VALUE: mb_pred_intra4x4:ioff <- $r14d
	#DEBUG_VALUE: mb_pred_intra4x4:joff <- undef
	#DEBUG_VALUE: mb_pred_intra4x4:i4 <- undef
	.loc	0 62 22                         # ldecod_src/mb_prediction.c:62:22
	movslq	36(%rbx), %rbp
	.loc	0 62 30 is_stmt 0               # ldecod_src/mb_prediction.c:62:30
	addq	%r15, %rbp
.Ltmp45:
	#DEBUG_VALUE: mb_pred_intra4x4:j4 <- $ebp
	#DEBUG_VALUE: mb_pred_intra4x4:j_pos <- [DW_OP_constu 4, DW_OP_mul, DW_OP_stack_value] $ebp
	#DEBUG_VALUE: mb_pred_intra4x4:i_pos <- [DW_OP_constu 4, DW_OP_mul, DW_OP_stack_value] undef
                                        # kill: def $r15d killed $r15d killed $r15 def $r15
	.loc	0 60 17 is_stmt 1               # ldecod_src/mb_prediction.c:60:17
	shll	$2, %r15d
.Ltmp46:
	#DEBUG_VALUE: mb_pred_intra4x4:joff <- $r15d
	.loc	0 61 30                         # ldecod_src/mb_prediction.c:61:30
	addl	32(%rbx), %r13d
.Ltmp47:
	#DEBUG_VALUE: mb_pred_intra4x4:i_pos <- [DW_OP_constu 4, DW_OP_mul, DW_OP_stack_value] $r13d
	#DEBUG_VALUE: mb_pred_intra4x4:i4 <- $r13d
	.loc	0 68 11                         # ldecod_src/mb_prediction.c:68:11
	movq	%rbx, %rdi
	movl	%r12d, %esi
	movl	%r14d, %edx
	movl	%r15d, %ecx
	movl	%r13d, %r8d
	movl	%ebp, %r9d
	callq	intrapred@PLT
.Ltmp48:
	.loc	0 68 58 is_stmt 0               # ldecod_src/mb_prediction.c:68:58
	cmpl	$1, %eax
.Ltmp49:
	.loc	0 68 11                         # ldecod_src/mb_prediction.c:68:11
	je	.LBB0_14
.Ltmp50:
# %bb.7:                                # %if.end.2
                                        #   in Loop: Header=BB0_4 Depth=1
	#DEBUG_VALUE: mb_pred_intra4x4:currMB <- $rbx
	#DEBUG_VALUE: mb_pred_intra4x4:curr_plane <- [DW_OP_plus_uconst 24] [$rsp+0]
	#DEBUG_VALUE: mb_pred_intra4x4:currImg <- [DW_OP_plus_uconst 32] [$rsp+0]
	#DEBUG_VALUE: mb_pred_intra4x4:dec_picture <- [DW_OP_plus_uconst 48] [$rsp+0]
	#DEBUG_VALUE: mb_pred_intra4x4:currSlice <- [DW_OP_plus_uconst 16, DW_OP_deref] $rsp
	#DEBUG_VALUE: mb_pred_intra4x4:yuv <- [DW_OP_plus_uconst 44, DW_OP_deref] $rsp
	#DEBUG_VALUE: mb_pred_intra4x4:j4 <- $ebp
	#DEBUG_VALUE: mb_pred_intra4x4:i4 <- $r13d
	#DEBUG_VALUE: mb_pred_intra4x4:block8x8 <- [DW_OP_plus_uconst 8, DW_OP_deref_size 8, DW_OP_consts 4, DW_OP_div, DW_OP_stack_value] $rsp
	#DEBUG_VALUE: mb_pred_intra4x4:k <- [DW_OP_plus_uconst 8, DW_OP_deref_size 8, DW_OP_constu 2, DW_OP_or, DW_OP_stack_value] $rsp
	#DEBUG_VALUE: mb_pred_intra4x4:ioff <- $r14d
	#DEBUG_VALUE: mb_pred_intra4x4:joff <- $r15d
	#DEBUG_VALUE: mb_pred_intra4x4:j_pos <- [DW_OP_constu 4, DW_OP_mul, DW_OP_stack_value] $ebp
	#DEBUG_VALUE: mb_pred_intra4x4:i_pos <- [DW_OP_constu 4, DW_OP_mul, DW_OP_stack_value] $r13d
	.loc	0 64 18 is_stmt 1               # ldecod_src/mb_prediction.c:64:18
	shll	$2, %r13d
.Ltmp51:
	#DEBUG_VALUE: mb_pred_intra4x4:i_pos <- $r13d
	#DEBUG_VALUE: mb_pred_intra4x4:j_pos <- undef
	.loc	0 72 7                          # ldecod_src/mb_prediction.c:72:7
	movq	%rbx, %rdi
	movl	4(%rsp), %r12d                  # 4-byte Reload
	movl	%r12d, %esi
	movl	%r14d, %edx
	movl	%r15d, %ecx
	callq	*432(%rbx)
.Ltmp52:
	.loc	0 74 28                         # ldecod_src/mb_prediction.c:74:28
	shlq	$5, %rbp
.Ltmp53:
	addq	32(%rsp), %rbp                  # 8-byte Folded Reload
	movq	16(%rsp), %rax                  # 8-byte Reload
	.loc	0 74 56 is_stmt 0               # ldecod_src/mb_prediction.c:74:56
	movq	1256(%rax), %rax
	.loc	0 74 45                         # ldecod_src/mb_prediction.c:74:45
	shll	$3, %r15d
.Ltmp54:
	.loc	0 0 45                          # ldecod_src/mb_prediction.c:0:45
	movq	24(%rsp), %rcx                  # 8-byte Reload
	.loc	0 74 45                         # ldecod_src/mb_prediction.c:74:45
	addq	(%rax,%rcx,8), %r15
	.loc	0 74 7                          # ldecod_src/mb_prediction.c:74:7
	movq	%rbp, %rdi
	movq	%r15, %rsi
	movl	%r13d, %edx
	movl	%r14d, %ecx
	callq	copy_image_data_4x4@PLT
.Ltmp55:
	#DEBUG_VALUE: mb_pred_intra4x4:k <- [DW_OP_plus_uconst 8, DW_OP_deref_size 8, DW_OP_constu 3, DW_OP_or, DW_OP_stack_value] $rsp
	.loc	0 0 7                           # ldecod_src/mb_prediction.c:0:7
	movq	8(%rsp), %rax                   # 8-byte Reload
	.loc	0 56 13 is_stmt 1               # ldecod_src/mb_prediction.c:56:13
	movzbl	decode_block_scan+3(%rax), %r15d
	.loc	0 56 34 is_stmt 0               # ldecod_src/mb_prediction.c:56:34
	movl	%r15d, %r13d
.Ltmp56:
	andl	$3, %r13d
.Ltmp57:
	#DEBUG_VALUE: mb_pred_intra4x4:i <- $r13d
	.loc	0 57 34 is_stmt 1               # ldecod_src/mb_prediction.c:57:34
	shrl	$2, %r15d
	.loc	0 57 40 is_stmt 0               # ldecod_src/mb_prediction.c:57:40
	andl	$3, %r15d
.Ltmp58:
	#DEBUG_VALUE: mb_pred_intra4x4:j <- $r15d
	.loc	0 59 17 is_stmt 1               # ldecod_src/mb_prediction.c:59:17
	leal	(,%r13,4), %r14d
.Ltmp59:
	#DEBUG_VALUE: mb_pred_intra4x4:ioff <- $r14d
	#DEBUG_VALUE: mb_pred_intra4x4:joff <- undef
	#DEBUG_VALUE: mb_pred_intra4x4:i4 <- undef
	.loc	0 62 22                         # ldecod_src/mb_prediction.c:62:22
	movslq	36(%rbx), %rbp
	.loc	0 62 30 is_stmt 0               # ldecod_src/mb_prediction.c:62:30
	addq	%r15, %rbp
.Ltmp60:
	#DEBUG_VALUE: mb_pred_intra4x4:j4 <- $ebp
	#DEBUG_VALUE: mb_pred_intra4x4:j_pos <- [DW_OP_constu 4, DW_OP_mul, DW_OP_stack_value] $ebp
	#DEBUG_VALUE: mb_pred_intra4x4:i_pos <- [DW_OP_constu 4, DW_OP_mul, DW_OP_stack_value] undef
                                        # kill: def $r15d killed $r15d killed $r15 def $r15
	.loc	0 60 17 is_stmt 1               # ldecod_src/mb_prediction.c:60:17
	shll	$2, %r15d
.Ltmp61:
	#DEBUG_VALUE: mb_pred_intra4x4:joff <- $r15d
	.loc	0 61 30                         # ldecod_src/mb_prediction.c:61:30
	addl	32(%rbx), %r13d
.Ltmp62:
	#DEBUG_VALUE: mb_pred_intra4x4:i_pos <- [DW_OP_constu 4, DW_OP_mul, DW_OP_stack_value] $r13d
	#DEBUG_VALUE: mb_pred_intra4x4:i4 <- $r13d
	.loc	0 68 11                         # ldecod_src/mb_prediction.c:68:11
	movq	%rbx, %rdi
	movl	%r12d, %esi
	movl	%r14d, %edx
	movl	%r15d, %ecx
	movl	%r13d, %r8d
	movl	%ebp, %r9d
	callq	intrapred@PLT
.Ltmp63:
	.loc	0 68 58 is_stmt 0               # ldecod_src/mb_prediction.c:68:58
	cmpl	$1, %eax
.Ltmp64:
	.loc	0 68 11                         # ldecod_src/mb_prediction.c:68:11
	je	.LBB0_14
.Ltmp65:
# %bb.8:                                # %if.end.3
                                        #   in Loop: Header=BB0_4 Depth=1
	#DEBUG_VALUE: mb_pred_intra4x4:currMB <- $rbx
	#DEBUG_VALUE: mb_pred_intra4x4:curr_plane <- [DW_OP_plus_uconst 24] [$rsp+0]
	#DEBUG_VALUE: mb_pred_intra4x4:currImg <- [DW_OP_plus_uconst 32] [$rsp+0]
	#DEBUG_VALUE: mb_pred_intra4x4:dec_picture <- [DW_OP_plus_uconst 48] [$rsp+0]
	#DEBUG_VALUE: mb_pred_intra4x4:currSlice <- [DW_OP_plus_uconst 16, DW_OP_deref] $rsp
	#DEBUG_VALUE: mb_pred_intra4x4:yuv <- [DW_OP_plus_uconst 44, DW_OP_deref] $rsp
	#DEBUG_VALUE: mb_pred_intra4x4:j4 <- $ebp
	#DEBUG_VALUE: mb_pred_intra4x4:i4 <- $r13d
	#DEBUG_VALUE: mb_pred_intra4x4:block8x8 <- [DW_OP_plus_uconst 8, DW_OP_deref_size 8, DW_OP_consts 4, DW_OP_div, DW_OP_stack_value] $rsp
	#DEBUG_VALUE: mb_pred_intra4x4:k <- [DW_OP_plus_uconst 8, DW_OP_deref_size 8, DW_OP_constu 3, DW_OP_or, DW_OP_stack_value] $rsp
	#DEBUG_VALUE: mb_pred_intra4x4:ioff <- $r14d
	#DEBUG_VALUE: mb_pred_intra4x4:joff <- $r15d
	#DEBUG_VALUE: mb_pred_intra4x4:j_pos <- [DW_OP_constu 4, DW_OP_mul, DW_OP_stack_value] $ebp
	#DEBUG_VALUE: mb_pred_intra4x4:i_pos <- [DW_OP_constu 4, DW_OP_mul, DW_OP_stack_value] $r13d
	.loc	0 64 18 is_stmt 1               # ldecod_src/mb_prediction.c:64:18
	shll	$2, %r13d
.Ltmp66:
	#DEBUG_VALUE: mb_pred_intra4x4:i_pos <- $r13d
	#DEBUG_VALUE: mb_pred_intra4x4:j_pos <- undef
	.loc	0 72 7                          # ldecod_src/mb_prediction.c:72:7
	movq	%rbx, %rdi
	movl	4(%rsp), %esi                   # 4-byte Reload
	movl	%r14d, %edx
	movl	%r15d, %ecx
	callq	*432(%rbx)
.Ltmp67:
	.loc	0 74 28                         # ldecod_src/mb_prediction.c:74:28
	shlq	$5, %rbp
.Ltmp68:
	addq	32(%rsp), %rbp                  # 8-byte Folded Reload
	movq	16(%rsp), %rax                  # 8-byte Reload
	.loc	0 74 56 is_stmt 0               # ldecod_src/mb_prediction.c:74:56
	movq	1256(%rax), %rax
	.loc	0 74 45                         # ldecod_src/mb_prediction.c:74:45
	shll	$3, %r15d
.Ltmp69:
	.loc	0 0 45                          # ldecod_src/mb_prediction.c:0:45
	movq	24(%rsp), %rcx                  # 8-byte Reload
	.loc	0 74 45                         # ldecod_src/mb_prediction.c:74:45
	addq	(%rax,%rcx,8), %r15
	.loc	0 74 7                          # ldecod_src/mb_prediction.c:74:7
	movq	%rbp, %rdi
	movq	%r15, %rsi
	movl	%r13d, %edx
	movl	%r14d, %ecx
	callq	copy_image_data_4x4@PLT
.Ltmp70:
	#DEBUG_VALUE: mb_pred_intra4x4:k <- [DW_OP_plus_uconst 8, DW_OP_deref_size 8, DW_OP_plus_uconst 4, DW_OP_stack_value] $rsp
	#DEBUG_VALUE: mb_pred_intra4x4:block8x8 <- [DW_OP_plus_uconst 8, DW_OP_deref_size 8, DW_OP_consts 4, DW_OP_div, DW_OP_consts 1, DW_OP_plus, DW_OP_stack_value] $rsp
	.loc	0 0 7                           # ldecod_src/mb_prediction.c:0:7
	movq	8(%rsp), %rax                   # 8-byte Reload
.Ltmp71:
	.loc	0 52 3 is_stmt 1                # ldecod_src/mb_prediction.c:52:3
	addq	$4, %rax
	movq	%rax, 8(%rsp)                   # 8-byte Spill
.Ltmp72:
	#DEBUG_VALUE: mb_pred_intra4x4:k <- [DW_OP_plus_uconst 4, DW_OP_stack_value] undef
	#DEBUG_VALUE: mb_pred_intra4x4:block8x8 <- [DW_OP_consts 4, DW_OP_div, DW_OP_consts 1, DW_OP_plus, DW_OP_stack_value] undef
	.loc	0 52 31 is_stmt 0               # ldecod_src/mb_prediction.c:52:31
	cmpl	$16, %eax
.Ltmp73:
	.loc	0 52 3                          # ldecod_src/mb_prediction.c:52:3
	jne	.LBB0_4
.Ltmp74:
# %bb.9:                                # %for.end26
	#DEBUG_VALUE: mb_pred_intra4x4:currMB <- $rbx
	#DEBUG_VALUE: mb_pred_intra4x4:curr_plane <- [DW_OP_plus_uconst 24] [$rsp+0]
	#DEBUG_VALUE: mb_pred_intra4x4:currImg <- [DW_OP_plus_uconst 32] [$rsp+0]
	#DEBUG_VALUE: mb_pred_intra4x4:dec_picture <- [DW_OP_plus_uconst 48] [$rsp+0]
	#DEBUG_VALUE: mb_pred_intra4x4:currSlice <- [DW_OP_plus_uconst 16, DW_OP_deref] $rsp
	#DEBUG_VALUE: mb_pred_intra4x4:yuv <- [DW_OP_plus_uconst 44, DW_OP_deref] $rsp
	#DEBUG_VALUE: mb_pred_intra4x4:ioff <- $r14d
	#DEBUG_VALUE: mb_pred_intra4x4:i_pos <- $r13d
	.loc	0 0 3                           # ldecod_src/mb_prediction.c:0:3
	movq	48(%rsp), %rax                  # 8-byte Reload
.Ltmp75:
	.loc	0 79 21 is_stmt 1               # ldecod_src/mb_prediction.c:79:21
	movl	268(%rax), %eax
	.loc	0 79 50 is_stmt 0               # ldecod_src/mb_prediction.c:79:50
	testl	%eax, %eax
	je	.LBB0_12
.Ltmp76:
# %bb.10:                               # %for.end26
	#DEBUG_VALUE: mb_pred_intra4x4:currMB <- $rbx
	#DEBUG_VALUE: mb_pred_intra4x4:curr_plane <- [DW_OP_plus_uconst 24] [$rsp+0]
	#DEBUG_VALUE: mb_pred_intra4x4:currImg <- [DW_OP_plus_uconst 32] [$rsp+0]
	#DEBUG_VALUE: mb_pred_intra4x4:dec_picture <- [DW_OP_plus_uconst 48] [$rsp+0]
	#DEBUG_VALUE: mb_pred_intra4x4:currSlice <- [DW_OP_plus_uconst 16, DW_OP_deref] $rsp
	#DEBUG_VALUE: mb_pred_intra4x4:yuv <- [DW_OP_plus_uconst 44, DW_OP_deref] $rsp
	#DEBUG_VALUE: mb_pred_intra4x4:ioff <- $r14d
	#DEBUG_VALUE: mb_pred_intra4x4:i_pos <- $r13d
	cmpl	$3, %eax
	je	.LBB0_12
.Ltmp77:
# %bb.11:                               # %if.then33
	#DEBUG_VALUE: mb_pred_intra4x4:currMB <- $rbx
	#DEBUG_VALUE: mb_pred_intra4x4:curr_plane <- [DW_OP_plus_uconst 24] [$rsp+0]
	#DEBUG_VALUE: mb_pred_intra4x4:currImg <- [DW_OP_plus_uconst 32] [$rsp+0]
	#DEBUG_VALUE: mb_pred_intra4x4:dec_picture <- [DW_OP_plus_uconst 48] [$rsp+0]
	#DEBUG_VALUE: mb_pred_intra4x4:currSlice <- [DW_OP_plus_uconst 16, DW_OP_deref] $rsp
	#DEBUG_VALUE: mb_pred_intra4x4:yuv <- [DW_OP_plus_uconst 44, DW_OP_deref] $rsp
	#DEBUG_VALUE: mb_pred_intra4x4:ioff <- $r14d
	#DEBUG_VALUE: mb_pred_intra4x4:i_pos <- $r13d
	.loc	0 81 5 is_stmt 1                # ldecod_src/mb_prediction.c:81:5
	movq	%rbx, %rdi
	movl	44(%rsp), %esi                  # 4-byte Reload
	callq	intra_cr_decoding@PLT
.Ltmp78:
.LBB0_12:                               # %if.end34
	#DEBUG_VALUE: mb_pred_intra4x4:currMB <- $rbx
	#DEBUG_VALUE: mb_pred_intra4x4:curr_plane <- [DW_OP_plus_uconst 24] [$rsp+0]
	#DEBUG_VALUE: mb_pred_intra4x4:currImg <- [DW_OP_plus_uconst 32] [$rsp+0]
	#DEBUG_VALUE: mb_pred_intra4x4:dec_picture <- [DW_OP_plus_uconst 48] [$rsp+0]
	#DEBUG_VALUE: mb_pred_intra4x4:currSlice <- [DW_OP_plus_uconst 16, DW_OP_deref] $rsp
	#DEBUG_VALUE: mb_pred_intra4x4:yuv <- [DW_OP_plus_uconst 44, DW_OP_deref] $rsp
	#DEBUG_VALUE: mb_pred_intra4x4:ioff <- $r14d
	#DEBUG_VALUE: mb_pred_intra4x4:i_pos <- $r13d
	.loc	0 84 19                         # ldecod_src/mb_prediction.c:84:19
	cmpl	$0, 284(%rbx)
	movq	16(%rsp), %rax                  # 8-byte Reload
.Ltmp79:
	.loc	0 84 7 is_stmt 0                # ldecod_src/mb_prediction.c:84:7
	je	.LBB0_14
.Ltmp80:
# %bb.13:                               # %if.then37
	#DEBUG_VALUE: mb_pred_intra4x4:currMB <- $rbx
	#DEBUG_VALUE: mb_pred_intra4x4:curr_plane <- [DW_OP_plus_uconst 24] [$rsp+0]
	#DEBUG_VALUE: mb_pred_intra4x4:currImg <- [DW_OP_plus_uconst 32] [$rsp+0]
	#DEBUG_VALUE: mb_pred_intra4x4:dec_picture <- [DW_OP_plus_uconst 48] [$rsp+0]
	#DEBUG_VALUE: mb_pred_intra4x4:currSlice <- [DW_OP_plus_uconst 16, DW_OP_deref] $rsp
	#DEBUG_VALUE: mb_pred_intra4x4:yuv <- [DW_OP_plus_uconst 44, DW_OP_deref] $rsp
	#DEBUG_VALUE: mb_pred_intra4x4:ioff <- $r14d
	#DEBUG_VALUE: mb_pred_intra4x4:i_pos <- $r13d
	.loc	0 85 31 is_stmt 1               # ldecod_src/mb_prediction.c:85:31
	movl	$0, 1240(%rax)
.Ltmp81:
.LBB0_14:                               # %cleanup
	#DEBUG_VALUE: mb_pred_intra4x4:currMB <- $rbx
	#DEBUG_VALUE: mb_pred_intra4x4:curr_plane <- [DW_OP_plus_uconst 24] [$rsp+0]
	#DEBUG_VALUE: mb_pred_intra4x4:currImg <- [DW_OP_plus_uconst 32] [$rsp+0]
	#DEBUG_VALUE: mb_pred_intra4x4:dec_picture <- [DW_OP_plus_uconst 48] [$rsp+0]
	#DEBUG_VALUE: mb_pred_intra4x4:currSlice <- [DW_OP_plus_uconst 16, DW_OP_deref] $rsp
	#DEBUG_VALUE: mb_pred_intra4x4:yuv <- [DW_OP_plus_uconst 44, DW_OP_deref] $rsp
	#DEBUG_VALUE: mb_pred_intra4x4:ioff <- $r14d
	.loc	0 87 1                          # ldecod_src/mb_prediction.c:87:1
	movl	$1, %eax
	.loc	0 87 1 epilogue_begin is_stmt 0 # ldecod_src/mb_prediction.c:87:1
	addq	$56, %rsp
	.cfi_def_cfa_offset 56
	popq	%rbx
.Ltmp82:
	#DEBUG_VALUE: mb_pred_intra4x4:currMB <- [DW_OP_LLVM_entry_value 1] $rdi
	.cfi_def_cfa_offset 48
	popq	%r12
	.cfi_def_cfa_offset 40
	popq	%r13
	.cfi_def_cfa_offset 32
	popq	%r14
.Ltmp83:
	.cfi_def_cfa_offset 24
	popq	%r15
	.cfi_def_cfa_offset 16
	popq	%rbp
	.cfi_def_cfa_offset 8
	retq
.Ltmp84:
.Lfunc_end0:
	.size	mb_pred_intra4x4, .Lfunc_end0-mb_pred_intra4x4
	.cfi_endproc
	.file	9 "ldecod_src/inc" "intra4x4_pred.h" md5 0xe8e3ee4eeb2494c32873b5ed486f8eb9
	.file	10 "ldecod_src/inc" "parsetcommon.h" md5 0xd59d7e00f3aec3a23ed88314ae35b687
	.file	11 "ldecod_src/inc" "io_image.h" md5 0x8caef624e6f5391b0c6ab2984e7f77c6
	.file	12 "/usr/include/x86_64-linux-gnu/bits" "types.h" md5 0xd108b5f93a74c50510d7d9bc0ab36df9
	.file	13 "/usr/include/x86_64-linux-gnu/bits" "stdint-intn.h" md5 0x55bcbdc3159515ebd91d351a70d505f4
	.file	14 "ldecod_src/inc" "win32.h" md5 0x100def0ffeee72ecdc377183538a04bb
	.file	15 "ldecod_src/inc" "mbuffer.h" md5 0x1ba7faf5f978b0f36a8f480bbf7b3401
	.file	16 "ldecod_src/inc" "mc_prediction.h" md5 0xb29b7430ebaae75df281117d292611ae
                                        # -- End function
	.globl	mb_pred_intra16x16              # -- Begin function mb_pred_intra16x16
	.p2align	4, 0x90
	.type	mb_pred_intra16x16,@function
mb_pred_intra16x16:                     # @mb_pred_intra16x16
.Lfunc_begin1:
	.loc	0 91 0 is_stmt 1                # ldecod_src/mb_prediction.c:91:0
	.cfi_startproc
# %bb.0:                                # %entry
	#DEBUG_VALUE: mb_pred_intra16x16:currMB <- $rdi
	#DEBUG_VALUE: mb_pred_intra16x16:curr_plane <- $esi
	#DEBUG_VALUE: mb_pred_intra16x16:dec_picture <- $rdx
	pushq	%rbp
	.cfi_def_cfa_offset 16
	pushq	%r15
	.cfi_def_cfa_offset 24
	pushq	%r14
	.cfi_def_cfa_offset 32
	pushq	%rbx
	.cfi_def_cfa_offset 40
	pushq	%rax
	.cfi_def_cfa_offset 48
	.cfi_offset %rbx, -40
	.cfi_offset %r14, -32
	.cfi_offset %r15, -24
	.cfi_offset %rbp, -16
	movq	%rdx, %r14
	movl	%esi, %r15d
	movq	%rdi, %rbx
.Ltmp85:
	.loc	0 92 26 prologue_end            # ldecod_src/mb_prediction.c:92:26
	movl	268(%rdx), %ebp
.Ltmp86:
	#DEBUG_VALUE: mb_pred_intra16x16:yuv <- [DW_OP_constu 1, DW_OP_minus, DW_OP_stack_value] $ebp
	.loc	0 94 46                         # ldecod_src/mb_prediction.c:94:46
	movl	360(%rdi), %edx
.Ltmp87:
	#DEBUG_VALUE: mb_pred_intra16x16:dec_picture <- $r14
	.loc	0 94 3 is_stmt 0                # ldecod_src/mb_prediction.c:94:3
	callq	intrapred16x16@PLT
.Ltmp88:
	#DEBUG_VALUE: mb_pred_intra16x16:curr_plane <- $r15d
	#DEBUG_VALUE: mb_pred_intra16x16:currMB <- $rbx
	.loc	0 95 47 is_stmt 1               # ldecod_src/mb_prediction.c:95:47
	movzbl	360(%rbx), %eax
	.loc	0 95 23 is_stmt 0               # ldecod_src/mb_prediction.c:95:23
	movb	%al, 372(%rbx)
	.loc	0 98 3 is_stmt 1                # ldecod_src/mb_prediction.c:98:3
	movq	%rbx, %rdi
	movl	%r15d, %esi
	xorl	%edx, %edx
	callq	iMBtrans4x4@PLT
.Ltmp89:
	.loc	0 101 21                        # ldecod_src/mb_prediction.c:101:21
	movl	268(%r14), %eax
	.loc	0 101 50 is_stmt 0              # ldecod_src/mb_prediction.c:101:50
	testl	%eax, %eax
	je	.LBB1_3
.Ltmp90:
# %bb.1:                                # %entry
	#DEBUG_VALUE: mb_pred_intra16x16:currMB <- $rbx
	#DEBUG_VALUE: mb_pred_intra16x16:curr_plane <- $r15d
	#DEBUG_VALUE: mb_pred_intra16x16:dec_picture <- $r14
	#DEBUG_VALUE: mb_pred_intra16x16:yuv <- [DW_OP_constu 1, DW_OP_minus, DW_OP_stack_value] $ebp
	cmpl	$3, %eax
	je	.LBB1_3
.Ltmp91:
# %bb.2:                                # %if.then
	#DEBUG_VALUE: mb_pred_intra16x16:currMB <- $rbx
	#DEBUG_VALUE: mb_pred_intra16x16:curr_plane <- $r15d
	#DEBUG_VALUE: mb_pred_intra16x16:dec_picture <- $r14
	#DEBUG_VALUE: mb_pred_intra16x16:yuv <- [DW_OP_constu 1, DW_OP_minus, DW_OP_stack_value] $ebp
	.loc	0 92 44 is_stmt 1               # ldecod_src/mb_prediction.c:92:44
	decl	%ebp
.Ltmp92:
	#DEBUG_VALUE: mb_pred_intra16x16:yuv <- $ebp
	.loc	0 103 5                         # ldecod_src/mb_prediction.c:103:5
	movq	%rbx, %rdi
	movl	%ebp, %esi
	callq	intra_cr_decoding@PLT
.Ltmp93:
.LBB1_3:                                # %if.end
	#DEBUG_VALUE: mb_pred_intra16x16:currMB <- $rbx
	#DEBUG_VALUE: mb_pred_intra16x16:curr_plane <- $r15d
	#DEBUG_VALUE: mb_pred_intra16x16:dec_picture <- $r14
	.loc	0 106 11                        # ldecod_src/mb_prediction.c:106:11
	movq	(%rbx), %rax
	.loc	0 106 35 is_stmt 0              # ldecod_src/mb_prediction.c:106:35
	movl	$0, 1240(%rax)
	.loc	0 107 3 is_stmt 1               # ldecod_src/mb_prediction.c:107:3
	movl	$1, %eax
	.loc	0 107 3 epilogue_begin is_stmt 0 # ldecod_src/mb_prediction.c:107:3
	addq	$8, %rsp
	.cfi_def_cfa_offset 40
	popq	%rbx
.Ltmp94:
	#DEBUG_VALUE: mb_pred_intra16x16:currMB <- [DW_OP_LLVM_entry_value 1] $rdi
	.cfi_def_cfa_offset 32
	popq	%r14
.Ltmp95:
	#DEBUG_VALUE: mb_pred_intra16x16:dec_picture <- [DW_OP_LLVM_entry_value 1] $rdx
	.cfi_def_cfa_offset 24
	popq	%r15
.Ltmp96:
	#DEBUG_VALUE: mb_pred_intra16x16:curr_plane <- [DW_OP_LLVM_entry_value 1] $esi
	.cfi_def_cfa_offset 16
	popq	%rbp
	.cfi_def_cfa_offset 8
	retq
.Ltmp97:
.Lfunc_end1:
	.size	mb_pred_intra16x16, .Lfunc_end1-mb_pred_intra16x16
	.cfi_endproc
	.file	17 "ldecod_src/inc" "intra16x16_pred.h" md5 0x499bf2d3ddf9cf2931bc962ce568e2d6
                                        # -- End function
	.globl	mb_pred_intra8x8                # -- Begin function mb_pred_intra8x8
	.p2align	4, 0x90
	.type	mb_pred_intra8x8,@function
mb_pred_intra8x8:                       # @mb_pred_intra8x8
.Lfunc_begin2:
	.loc	0 111 0 is_stmt 1               # ldecod_src/mb_prediction.c:111:0
	.cfi_startproc
# %bb.0:                                # %entry
	#DEBUG_VALUE: mb_pred_intra8x8:currMB <- $rdi
	#DEBUG_VALUE: mb_pred_intra8x8:curr_plane <- $esi
	#DEBUG_VALUE: mb_pred_intra8x8:currImg <- $rdx
	#DEBUG_VALUE: mb_pred_intra8x8:dec_picture <- $rcx
	pushq	%rbp
	.cfi_def_cfa_offset 16
	pushq	%r15
	.cfi_def_cfa_offset 24
	pushq	%r14
	.cfi_def_cfa_offset 32
	pushq	%r13
	.cfi_def_cfa_offset 40
	pushq	%r12
	.cfi_def_cfa_offset 48
	pushq	%rbx
	.cfi_def_cfa_offset 56
	pushq	%rax
	.cfi_def_cfa_offset 64
	.cfi_offset %rbx, -56
	.cfi_offset %r12, -48
	.cfi_offset %r13, -40
	.cfi_offset %r14, -32
	.cfi_offset %r15, -24
	.cfi_offset %rbp, -16
	movq	%rcx, %r14
	movq	%rdx, %r15
	movl	%esi, %r12d
	movq	%rdi, %rbx
.Ltmp98:
	.loc	0 112 30 prologue_end           # ldecod_src/mb_prediction.c:112:30
	movq	(%rdi), %r13
.Ltmp99:
	#DEBUG_VALUE: mb_pred_intra8x8:currSlice <- $r13
	#DEBUG_VALUE: mb_pred_intra8x8:yuv <- [DW_OP_constu 1, DW_OP_minus, DW_OP_stack_value] undef
	.loc	0 116 45                        # ldecod_src/mb_prediction.c:116:45
	cmpl	$0, 92(%rdi)
	.loc	0 116 24 is_stmt 0              # ldecod_src/mb_prediction.c:116:24
	jne	.LBB2_1
.Ltmp100:
# %bb.2:                                # %entry
	#DEBUG_VALUE: mb_pred_intra8x8:currMB <- $rbx
	#DEBUG_VALUE: mb_pred_intra8x8:curr_plane <- $r12d
	#DEBUG_VALUE: mb_pred_intra8x8:currImg <- $r15
	#DEBUG_VALUE: mb_pred_intra8x8:dec_picture <- $r14
	#DEBUG_VALUE: mb_pred_intra8x8:currSlice <- $r13
	.loc	0 0 24                          # ldecod_src/mb_prediction.c:0:24
	movq	itrans8x8@GOTPCREL(%rip), %rax
	jmp	.LBB2_3
.Ltmp101:
.LBB2_1:
	#DEBUG_VALUE: mb_pred_intra8x8:currMB <- $rbx
	#DEBUG_VALUE: mb_pred_intra8x8:curr_plane <- $r12d
	#DEBUG_VALUE: mb_pred_intra8x8:currImg <- $r15
	#DEBUG_VALUE: mb_pred_intra8x8:dec_picture <- $r14
	#DEBUG_VALUE: mb_pred_intra8x8:currSlice <- $r13
	.loc	0 116 24                        # ldecod_src/mb_prediction.c:116:24
	movq	Inv_Residual_trans_8x8@GOTPCREL(%rip), %rax
.Ltmp102:
.LBB2_3:                                # %entry
	#DEBUG_VALUE: mb_pred_intra8x8:currMB <- $rbx
	#DEBUG_VALUE: mb_pred_intra8x8:curr_plane <- $r12d
	#DEBUG_VALUE: mb_pred_intra8x8:currImg <- $r15
	#DEBUG_VALUE: mb_pred_intra8x8:dec_picture <- $r14
	#DEBUG_VALUE: mb_pred_intra8x8:currSlice <- $r13
	.loc	0 0 0                           # ldecod_src/mb_prediction.c:0:0
	movl	268(%r14), %ecx
.Ltmp103:
	#DEBUG_VALUE: mb_pred_intra8x8:yuv <- [DW_OP_constu 1, DW_OP_minus, DW_OP_stack_value] $ecx
	movl	%ecx, 4(%rsp)                   # 4-byte Spill
	.loc	0 116 22                        # ldecod_src/mb_prediction.c:116:22
	movq	%rax, 440(%rbx)
.Ltmp104:
	#DEBUG_VALUE: mb_pred_intra8x8:block8x8 <- 0
	.loc	0 0 22                          # ldecod_src/mb_prediction.c:0:22
	movl	%r12d, %ebp
.Ltmp105:
	#DEBUG_VALUE: ioff <- 0
	#DEBUG_VALUE: joff <- 0
	.loc	0 125 5 is_stmt 1               # ldecod_src/mb_prediction.c:125:5
	movq	%rbx, %rdi
	movl	%r12d, %esi
	xorl	%edx, %edx
	xorl	%ecx, %ecx
.Ltmp106:
	callq	intrapred8x8@PLT
.Ltmp107:
	.loc	0 126 5                         # ldecod_src/mb_prediction.c:126:5
	movq	%rbx, %rdi
	movl	%r12d, %esi
	xorl	%edx, %edx
	xorl	%ecx, %ecx
	callq	*440(%rbx)
.Ltmp108:
	.loc	0 128 42                        # ldecod_src/mb_prediction.c:128:42
	movslq	48(%rbx), %rax
	.loc	0 128 26 is_stmt 0              # ldecod_src/mb_prediction.c:128:26
	leaq	(%r15,%rax,8), %rdi
	.loc	0 128 69                        # ldecod_src/mb_prediction.c:128:69
	movq	1256(%r13), %rax
	.loc	0 128 58                        # ldecod_src/mb_prediction.c:128:58
	movq	(%rax,%rbp,8), %rsi
	.loc	0 128 103                       # ldecod_src/mb_prediction.c:128:103
	movl	44(%rbx), %edx
	.loc	0 128 5                         # ldecod_src/mb_prediction.c:128:5
	xorl	%ecx, %ecx
	callq	copy_image_data_8x8@PLT
.Ltmp109:
	#DEBUG_VALUE: mb_pred_intra8x8:block8x8 <- 1
	#DEBUG_VALUE: ioff <- 8
	.loc	0 125 5 is_stmt 1               # ldecod_src/mb_prediction.c:125:5
	movq	%rbx, %rdi
	movl	%r12d, %esi
	movl	$8, %edx
	xorl	%ecx, %ecx
	callq	intrapred8x8@PLT
.Ltmp110:
	.loc	0 126 5                         # ldecod_src/mb_prediction.c:126:5
	movq	%rbx, %rdi
	movl	%r12d, %esi
	movl	$8, %edx
	xorl	%ecx, %ecx
	callq	*440(%rbx)
.Ltmp111:
	.loc	0 128 42                        # ldecod_src/mb_prediction.c:128:42
	movslq	48(%rbx), %rax
	.loc	0 128 26 is_stmt 0              # ldecod_src/mb_prediction.c:128:26
	leaq	(%r15,%rax,8), %rdi
	.loc	0 128 69                        # ldecod_src/mb_prediction.c:128:69
	movq	1256(%r13), %rax
	.loc	0 128 58                        # ldecod_src/mb_prediction.c:128:58
	movq	(%rax,%rbp,8), %rsi
	.loc	0 128 103                       # ldecod_src/mb_prediction.c:128:103
	movl	44(%rbx), %edx
	.loc	0 128 109                       # ldecod_src/mb_prediction.c:128:109
	addl	$8, %edx
	.loc	0 128 5                         # ldecod_src/mb_prediction.c:128:5
	movl	$8, %ecx
	callq	copy_image_data_8x8@PLT
.Ltmp112:
	#DEBUG_VALUE: mb_pred_intra8x8:block8x8 <- 2
	#DEBUG_VALUE: ioff <- 0
	#DEBUG_VALUE: joff <- 8
	.loc	0 125 5 is_stmt 1               # ldecod_src/mb_prediction.c:125:5
	movq	%rbx, %rdi
	movl	%r12d, %esi
	xorl	%edx, %edx
	movl	$8, %ecx
	callq	intrapred8x8@PLT
.Ltmp113:
	.loc	0 126 5                         # ldecod_src/mb_prediction.c:126:5
	movq	%rbx, %rdi
	movl	%r12d, %esi
	xorl	%edx, %edx
	movl	$8, %ecx
	callq	*440(%rbx)
.Ltmp114:
	.loc	0 128 42                        # ldecod_src/mb_prediction.c:128:42
	movslq	48(%rbx), %rax
	.loc	0 128 26 is_stmt 0              # ldecod_src/mb_prediction.c:128:26
	leaq	(%r15,%rax,8), %rdi
	addq	$64, %rdi
	.loc	0 128 69                        # ldecod_src/mb_prediction.c:128:69
	movq	1256(%r13), %rax
	.loc	0 128 58                        # ldecod_src/mb_prediction.c:128:58
	movq	(%rax,%rbp,8), %rsi
	addq	$64, %rsi
	.loc	0 128 103                       # ldecod_src/mb_prediction.c:128:103
	movl	44(%rbx), %edx
	.loc	0 128 5                         # ldecod_src/mb_prediction.c:128:5
	xorl	%ecx, %ecx
	callq	copy_image_data_8x8@PLT
.Ltmp115:
	#DEBUG_VALUE: mb_pred_intra8x8:block8x8 <- 3
	#DEBUG_VALUE: ioff <- 8
	.loc	0 125 5 is_stmt 1               # ldecod_src/mb_prediction.c:125:5
	movq	%rbx, %rdi
	movl	%r12d, %esi
	movl	$8, %edx
	movl	$8, %ecx
	callq	intrapred8x8@PLT
.Ltmp116:
	.loc	0 126 5                         # ldecod_src/mb_prediction.c:126:5
	movq	%rbx, %rdi
	movl	%r12d, %esi
	movl	$8, %edx
	movl	$8, %ecx
	callq	*440(%rbx)
.Ltmp117:
	.loc	0 128 42                        # ldecod_src/mb_prediction.c:128:42
	movslq	48(%rbx), %rax
	.loc	0 128 26 is_stmt 0              # ldecod_src/mb_prediction.c:128:26
	leaq	(%r15,%rax,8), %rdi
	addq	$64, %rdi
	.loc	0 128 69                        # ldecod_src/mb_prediction.c:128:69
	movq	1256(%r13), %rax
	.loc	0 128 58                        # ldecod_src/mb_prediction.c:128:58
	movq	(%rax,%rbp,8), %rsi
	addq	$64, %rsi
	.loc	0 128 103                       # ldecod_src/mb_prediction.c:128:103
	movl	44(%rbx), %edx
	.loc	0 128 109                       # ldecod_src/mb_prediction.c:128:109
	addl	$8, %edx
	.loc	0 128 5                         # ldecod_src/mb_prediction.c:128:5
	movl	$8, %ecx
	callq	copy_image_data_8x8@PLT
.Ltmp118:
	#DEBUG_VALUE: mb_pred_intra8x8:block8x8 <- 4
	.loc	0 131 21 is_stmt 1              # ldecod_src/mb_prediction.c:131:21
	movl	268(%r14), %eax
	.loc	0 131 50 is_stmt 0              # ldecod_src/mb_prediction.c:131:50
	testl	%eax, %eax
	je	.LBB2_6
.Ltmp119:
# %bb.4:                                # %entry
	#DEBUG_VALUE: mb_pred_intra8x8:currMB <- $rbx
	#DEBUG_VALUE: mb_pred_intra8x8:curr_plane <- $r12d
	#DEBUG_VALUE: mb_pred_intra8x8:currImg <- $r15
	#DEBUG_VALUE: mb_pred_intra8x8:dec_picture <- $r14
	#DEBUG_VALUE: mb_pred_intra8x8:currSlice <- $r13
	#DEBUG_VALUE: mb_pred_intra8x8:yuv <- [DW_OP_plus_uconst 4, DW_OP_deref, DW_OP_constu 1, DW_OP_minus, DW_OP_stack_value] $rsp
	#DEBUG_VALUE: mb_pred_intra8x8:block8x8 <- 4
	cmpl	$3, %eax
	je	.LBB2_6
.Ltmp120:
# %bb.5:                                # %if.then
	#DEBUG_VALUE: mb_pred_intra8x8:currMB <- $rbx
	#DEBUG_VALUE: mb_pred_intra8x8:curr_plane <- $r12d
	#DEBUG_VALUE: mb_pred_intra8x8:currImg <- $r15
	#DEBUG_VALUE: mb_pred_intra8x8:dec_picture <- $r14
	#DEBUG_VALUE: mb_pred_intra8x8:currSlice <- $r13
	#DEBUG_VALUE: mb_pred_intra8x8:yuv <- [DW_OP_plus_uconst 4, DW_OP_deref, DW_OP_constu 1, DW_OP_minus, DW_OP_stack_value] $rsp
	#DEBUG_VALUE: mb_pred_intra8x8:block8x8 <- 4
	.loc	0 0 50                          # ldecod_src/mb_prediction.c:0:50
	movl	4(%rsp), %esi                   # 4-byte Reload
	.loc	0 113 44 is_stmt 1              # ldecod_src/mb_prediction.c:113:44
	decl	%esi
.Ltmp121:
	#DEBUG_VALUE: mb_pred_intra8x8:yuv <- $esi
	.loc	0 133 5                         # ldecod_src/mb_prediction.c:133:5
	movq	%rbx, %rdi
	callq	intra_cr_decoding@PLT
.Ltmp122:
.LBB2_6:                                # %if.end
	#DEBUG_VALUE: mb_pred_intra8x8:currMB <- $rbx
	#DEBUG_VALUE: mb_pred_intra8x8:curr_plane <- $r12d
	#DEBUG_VALUE: mb_pred_intra8x8:currImg <- $r15
	#DEBUG_VALUE: mb_pred_intra8x8:dec_picture <- $r14
	#DEBUG_VALUE: mb_pred_intra8x8:currSlice <- $r13
	#DEBUG_VALUE: mb_pred_intra8x8:block8x8 <- 4
	.loc	0 136 19                        # ldecod_src/mb_prediction.c:136:19
	cmpl	$0, 284(%rbx)
.Ltmp123:
	.loc	0 136 7 is_stmt 0               # ldecod_src/mb_prediction.c:136:7
	je	.LBB2_8
.Ltmp124:
# %bb.7:                                # %if.then14
	#DEBUG_VALUE: mb_pred_intra8x8:currMB <- $rbx
	#DEBUG_VALUE: mb_pred_intra8x8:curr_plane <- $r12d
	#DEBUG_VALUE: mb_pred_intra8x8:currImg <- $r15
	#DEBUG_VALUE: mb_pred_intra8x8:dec_picture <- $r14
	#DEBUG_VALUE: mb_pred_intra8x8:currSlice <- $r13
	#DEBUG_VALUE: mb_pred_intra8x8:block8x8 <- 4
	.loc	0 137 29 is_stmt 1              # ldecod_src/mb_prediction.c:137:29
	movl	$0, 1240(%r13)
.Ltmp125:
.LBB2_8:                                # %if.end15
	#DEBUG_VALUE: mb_pred_intra8x8:currMB <- $rbx
	#DEBUG_VALUE: mb_pred_intra8x8:curr_plane <- $r12d
	#DEBUG_VALUE: mb_pred_intra8x8:currImg <- $r15
	#DEBUG_VALUE: mb_pred_intra8x8:dec_picture <- $r14
	#DEBUG_VALUE: mb_pred_intra8x8:currSlice <- $r13
	#DEBUG_VALUE: mb_pred_intra8x8:block8x8 <- 4
	.loc	0 138 3                         # ldecod_src/mb_prediction.c:138:3
	movl	$1, %eax
	.loc	0 138 3 epilogue_begin is_stmt 0 # ldecod_src/mb_prediction.c:138:3
	addq	$8, %rsp
	.cfi_def_cfa_offset 56
	popq	%rbx
.Ltmp126:
	#DEBUG_VALUE: mb_pred_intra8x8:currMB <- [DW_OP_LLVM_entry_value 1] $rdi
	.cfi_def_cfa_offset 48
	popq	%r12
.Ltmp127:
	#DEBUG_VALUE: mb_pred_intra8x8:curr_plane <- $ebp
	.cfi_def_cfa_offset 40
	popq	%r13
.Ltmp128:
	.cfi_def_cfa_offset 32
	popq	%r14
.Ltmp129:
	#DEBUG_VALUE: mb_pred_intra8x8:dec_picture <- [DW_OP_LLVM_entry_value 1] $rcx
	.cfi_def_cfa_offset 24
	popq	%r15
.Ltmp130:
	#DEBUG_VALUE: mb_pred_intra8x8:currImg <- [DW_OP_LLVM_entry_value 1] $rdx
	.cfi_def_cfa_offset 16
	popq	%rbp
.Ltmp131:
	#DEBUG_VALUE: mb_pred_intra8x8:curr_plane <- [DW_OP_LLVM_entry_value 1] $esi
	.cfi_def_cfa_offset 8
	retq
.Ltmp132:
.Lfunc_end2:
	.size	mb_pred_intra8x8, .Lfunc_end2-mb_pred_intra8x8
	.cfi_endproc
	.file	18 "ldecod_src/inc" "intra8x8_pred.h" md5 0xd97164f549fffd40a83d048016fbceef
                                        # -- End function
	.globl	mb_pred_skip                    # -- Begin function mb_pred_skip
	.p2align	4, 0x90
	.type	mb_pred_skip,@function
mb_pred_skip:                           # @mb_pred_skip
.Lfunc_begin3:
	.loc	0 229 0 is_stmt 1               # ldecod_src/mb_prediction.c:229:0
	.cfi_startproc
# %bb.0:                                # %entry
	#DEBUG_VALUE: mb_pred_skip:currMB <- $rdi
	#DEBUG_VALUE: mb_pred_skip:curr_plane <- $esi
	#DEBUG_VALUE: mb_pred_skip:currImg <- $rdx
	#DEBUG_VALUE: mb_pred_skip:dec_picture <- $rcx
	pushq	%rbp
	.cfi_def_cfa_offset 16
	pushq	%r15
	.cfi_def_cfa_offset 24
	pushq	%r14
	.cfi_def_cfa_offset 32
	pushq	%r13
	.cfi_def_cfa_offset 40
	pushq	%r12
	.cfi_def_cfa_offset 48
	pushq	%rbx
	.cfi_def_cfa_offset 56
	pushq	%rax
	.cfi_def_cfa_offset 64
	.cfi_offset %rbx, -56
	.cfi_offset %r12, -48
	.cfi_offset %r13, -40
	.cfi_offset %r14, -32
	.cfi_offset %r15, -24
	.cfi_offset %rbp, -16
	movq	%rcx, %r14
	movq	%rdx, %r15
	movl	%esi, %ebp
	movq	%rdi, %rbx
.Ltmp133:
	.loc	0 230 30 prologue_end           # ldecod_src/mb_prediction.c:230:30
	movq	(%rdi), %r13
.Ltmp134:
	#DEBUG_VALUE: mb_pred_skip:currSlice <- $r13
	.loc	0 231 36                        # ldecod_src/mb_prediction.c:231:36
	movq	8(%rdi), %r12
.Ltmp135:
	#DEBUG_VALUE: mb_pred_skip:p_Vid <- $r12
	.loc	0 233 3                         # ldecod_src/mb_prediction.c:233:3
	callq	set_chroma_vector
.Ltmp136:
	#DEBUG_VALUE: mb_pred_skip:dec_picture <- $r14
	#DEBUG_VALUE: mb_pred_skip:currImg <- $r15
	#DEBUG_VALUE: mb_pred_skip:curr_plane <- $ebp
	#DEBUG_VALUE: mb_pred_skip:currMB <- $rbx
	.loc	0 235 3                         # ldecod_src/mb_prediction.c:235:3
	movq	%rbx, %rdi
	movl	%ebp, %esi
	movq	%r14, %rdx
	xorl	%ecx, %ecx
	xorl	%r8d, %r8d
	xorl	%r9d, %r9d
	pushq	$16
	.cfi_adjust_cfa_offset 8
	pushq	$16
	.cfi_adjust_cfa_offset 8
	callq	perform_mc@PLT
.Ltmp137:
	addq	$16, %rsp
	.cfi_adjust_cfa_offset -16
	.loc	0 237 42                        # ldecod_src/mb_prediction.c:237:42
	movslq	48(%rbx), %rax
	.loc	0 237 26 is_stmt 0              # ldecod_src/mb_prediction.c:237:26
	leaq	(%r15,%rax,8), %rdi
	.loc	0 237 61                        # ldecod_src/mb_prediction.c:237:61
	movq	1248(%r13), %rax
	.loc	0 237 50                        # ldecod_src/mb_prediction.c:237:50
	movl	%ebp, %ecx
	movq	(%rax,%rcx,8), %rsi
	.loc	0 237 90                        # ldecod_src/mb_prediction.c:237:90
	movl	44(%rbx), %edx
	.loc	0 237 3                         # ldecod_src/mb_prediction.c:237:3
	xorl	%ecx, %ecx
	callq	copy_image_data_16x16@PLT
.Ltmp138:
	.loc	0 239 21 is_stmt 1              # ldecod_src/mb_prediction.c:239:21
	movl	268(%r14), %eax
	.loc	0 239 50 is_stmt 0              # ldecod_src/mb_prediction.c:239:50
	testl	%eax, %eax
	je	.LBB3_3
.Ltmp139:
# %bb.1:                                # %entry
	#DEBUG_VALUE: mb_pred_skip:currMB <- $rbx
	#DEBUG_VALUE: mb_pred_skip:curr_plane <- $ebp
	#DEBUG_VALUE: mb_pred_skip:currImg <- $r15
	#DEBUG_VALUE: mb_pred_skip:dec_picture <- $r14
	#DEBUG_VALUE: mb_pred_skip:currSlice <- $r13
	#DEBUG_VALUE: mb_pred_skip:p_Vid <- $r12
	cmpl	$3, %eax
	je	.LBB3_3
.Ltmp140:
# %bb.2:                                # %if.then
	#DEBUG_VALUE: mb_pred_skip:currMB <- $rbx
	#DEBUG_VALUE: mb_pred_skip:curr_plane <- $ebp
	#DEBUG_VALUE: mb_pred_skip:currImg <- $r15
	#DEBUG_VALUE: mb_pred_skip:dec_picture <- $r14
	#DEBUG_VALUE: mb_pred_skip:currSlice <- $r13
	#DEBUG_VALUE: mb_pred_skip:p_Vid <- $r12
	.loc	0 242 35 is_stmt 1              # ldecod_src/mb_prediction.c:242:35
	movq	136(%r14), %rax
	.loc	0 242 52 is_stmt 0              # ldecod_src/mb_prediction.c:242:52
	movslq	56(%rbx), %rdi
	.loc	0 242 22                        # ldecod_src/mb_prediction.c:242:22
	shlq	$3, %rdi
	addq	(%rax), %rdi
	.loc	0 242 73                        # ldecod_src/mb_prediction.c:242:73
	movq	1248(%r13), %rax
	.loc	0 242 62                        # ldecod_src/mb_prediction.c:242:62
	movq	8(%rax), %rsi
	.loc	0 242 93                        # ldecod_src/mb_prediction.c:242:93
	movl	52(%rbx), %edx
	.loc	0 242 105                       # ldecod_src/mb_prediction.c:242:105
	movl	849132(%r12), %r8d
	.loc	0 242 127                       # ldecod_src/mb_prediction.c:242:127
	movl	849136(%r12), %r9d
	.loc	0 242 5                         # ldecod_src/mb_prediction.c:242:5
	xorl	%ecx, %ecx
	callq	copy_image_data@PLT
.Ltmp141:
	.loc	0 243 35 is_stmt 1              # ldecod_src/mb_prediction.c:243:35
	movq	136(%r14), %rax
	.loc	0 243 52 is_stmt 0              # ldecod_src/mb_prediction.c:243:52
	movslq	56(%rbx), %rdi
	.loc	0 243 22                        # ldecod_src/mb_prediction.c:243:22
	shlq	$3, %rdi
	addq	8(%rax), %rdi
	.loc	0 243 73                        # ldecod_src/mb_prediction.c:243:73
	movq	1248(%r13), %rax
	.loc	0 243 62                        # ldecod_src/mb_prediction.c:243:62
	movq	16(%rax), %rsi
	.loc	0 243 93                        # ldecod_src/mb_prediction.c:243:93
	movl	52(%rbx), %edx
	.loc	0 243 105                       # ldecod_src/mb_prediction.c:243:105
	movl	849132(%r12), %r8d
	.loc	0 243 127                       # ldecod_src/mb_prediction.c:243:127
	movl	849136(%r12), %r9d
	.loc	0 243 5                         # ldecod_src/mb_prediction.c:243:5
	xorl	%ecx, %ecx
	callq	copy_image_data@PLT
.Ltmp142:
.LBB3_3:                                # %if.end
	#DEBUG_VALUE: mb_pred_skip:currMB <- $rbx
	#DEBUG_VALUE: mb_pred_skip:curr_plane <- $ebp
	#DEBUG_VALUE: mb_pred_skip:currImg <- $r15
	#DEBUG_VALUE: mb_pred_skip:dec_picture <- $r14
	#DEBUG_VALUE: mb_pred_skip:currSlice <- $r13
	#DEBUG_VALUE: mb_pred_skip:p_Vid <- $r12
	.loc	0 245 3 is_stmt 1               # ldecod_src/mb_prediction.c:245:3
	movl	$1, %eax
	.loc	0 245 3 epilogue_begin is_stmt 0 # ldecod_src/mb_prediction.c:245:3
	addq	$8, %rsp
	.cfi_def_cfa_offset 56
	popq	%rbx
.Ltmp143:
	#DEBUG_VALUE: mb_pred_skip:currMB <- [DW_OP_LLVM_entry_value 1] $rdi
	.cfi_def_cfa_offset 48
	popq	%r12
.Ltmp144:
	.cfi_def_cfa_offset 40
	popq	%r13
.Ltmp145:
	.cfi_def_cfa_offset 32
	popq	%r14
.Ltmp146:
	#DEBUG_VALUE: mb_pred_skip:dec_picture <- [DW_OP_LLVM_entry_value 1] $rcx
	.cfi_def_cfa_offset 24
	popq	%r15
.Ltmp147:
	#DEBUG_VALUE: mb_pred_skip:currImg <- [DW_OP_LLVM_entry_value 1] $rdx
	.cfi_def_cfa_offset 16
	popq	%rbp
.Ltmp148:
	#DEBUG_VALUE: mb_pred_skip:curr_plane <- [DW_OP_LLVM_entry_value 1] $esi
	.cfi_def_cfa_offset 8
	retq
.Ltmp149:
.Lfunc_end3:
	.size	mb_pred_skip, .Lfunc_end3-mb_pred_skip
	.cfi_endproc
                                        # -- End function
	.p2align	4, 0x90                         # -- Begin function set_chroma_vector
	.type	set_chroma_vector,@function
set_chroma_vector:                      # @set_chroma_vector
.Lfunc_begin4:
	.cfi_startproc
# %bb.0:                                # %entry
	#DEBUG_VALUE: set_chroma_vector:currMB <- $rdi
	.loc	0 144 30 prologue_end is_stmt 1 # ldecod_src/mb_prediction.c:144:30
	movq	(%rdi), %rax
.Ltmp150:
	#DEBUG_VALUE: set_chroma_vector:currSlice <- $rax
	.loc	0 145 36                        # ldecod_src/mb_prediction.c:145:36
	movq	8(%rdi), %rcx
.Ltmp151:
	#DEBUG_VALUE: set_chroma_vector:p_Vid <- $rcx
	.loc	0 147 8                         # ldecod_src/mb_prediction.c:147:8
	cmpl	$0, 128(%rax)
.Ltmp152:
	.loc	0 147 7 is_stmt 0               # ldecod_src/mb_prediction.c:147:7
	je	.LBB4_1
.Ltmp153:
# %bb.54:                               # %if.else104
	#DEBUG_VALUE: set_chroma_vector:currMB <- $rdi
	#DEBUG_VALUE: set_chroma_vector:currSlice <- $rax
	#DEBUG_VALUE: set_chroma_vector:p_Vid <- $rcx
	#DEBUG_VALUE: mb_nr <- undef
	.loc	0 196 9 is_stmt 1               # ldecod_src/mb_prediction.c:196:9
	cmpl	$0, 384(%rdi)
.Ltmp154:
	.loc	0 196 9 is_stmt 0               # ldecod_src/mb_prediction.c:196:9
	je	.LBB4_55
.Ltmp155:
# %bb.58:                               # %if.then108
	#DEBUG_VALUE: set_chroma_vector:currMB <- $rdi
	#DEBUG_VALUE: set_chroma_vector:currSlice <- $rax
	#DEBUG_VALUE: set_chroma_vector:p_Vid <- $rcx
	.loc	0 191 26 is_stmt 1              # ldecod_src/mb_prediction.c:191:26
	movl	24(%rdi), %r8d
.Ltmp156:
	#DEBUG_VALUE: mb_nr <- [DW_OP_constu 1, DW_OP_and, DW_OP_stack_value] $r8d
	#DEBUG_VALUE: mb_nr <- undef
	.loc	0 198 33                        # ldecod_src/mb_prediction.c:198:33
	movswq	114(%rdi), %rdx
.Ltmp157:
	#DEBUG_VALUE: list_offset <- undef
	#DEBUG_VALUE: l <- undef
	#DEBUG_VALUE: l <- $rdx
	#DEBUG_VALUE: k <- 0
	.loc	0 202 24                        # ldecod_src/mb_prediction.c:202:24
	movzbl	256(%rax,%rdx), %esi
	testb	$1, %r8b
	jne	.LBB4_59
.Ltmp158:
# %bb.65:                               # %for.cond116.preheader.us.preheader
	#DEBUG_VALUE: set_chroma_vector:currMB <- $rdi
	#DEBUG_VALUE: set_chroma_vector:currSlice <- $rax
	#DEBUG_VALUE: set_chroma_vector:p_Vid <- $rcx
	#DEBUG_VALUE: l <- $rdx
	#DEBUG_VALUE: k <- 0
	.loc	0 202 22 is_stmt 0              # ldecod_src/mb_prediction.c:202:22
	testb	%sil, %sil
.Ltmp159:
	.loc	0 202 9                         # ldecod_src/mb_prediction.c:202:9
	jle	.LBB4_66
.Ltmp160:
# %bb.69:                               # %for.body123.lr.ph.us
	#DEBUG_VALUE: set_chroma_vector:currMB <- $rdi
	#DEBUG_VALUE: set_chroma_vector:currSlice <- $rax
	#DEBUG_VALUE: set_chroma_vector:p_Vid <- $rcx
	#DEBUG_VALUE: l <- $rdx
	#DEBUG_VALUE: k <- 0
	movq	%rdx, %rsi
	shlq	$4, %rsi
	addq	%rax, %rsi
	addq	$13552, %rsi                    # imm = 0x34F0
	xorl	%r8d, %r8d
.Ltmp161:
	.p2align	4, 0x90
.LBB4_70:                               # %for.body123.us.us
                                        # =>This Inner Loop Header: Depth=1
	#DEBUG_VALUE: set_chroma_vector:currMB <- $rdi
	#DEBUG_VALUE: set_chroma_vector:currSlice <- $rax
	#DEBUG_VALUE: set_chroma_vector:p_Vid <- $rcx
	#DEBUG_VALUE: l <- $rdx
	#DEBUG_VALUE: k <- $r8
	.loc	0 204 28 is_stmt 1              # ldecod_src/mb_prediction.c:204:28
	movq	264(%rax,%rdx,8), %r9
	movq	(%r9,%r8,8), %r9
	.loc	0 204 62 is_stmt 0              # ldecod_src/mb_prediction.c:204:62
	cmpl	$2, (%r9)
	setne	%r9b
	addb	%r9b, %r9b
	addb	$-2, %r9b
	.loc	0 0 0                           # ldecod_src/mb_prediction.c:0:0
	movb	%r9b, (%rsi,%r8)
.Ltmp162:
	.loc	0 202 50 is_stmt 1              # ldecod_src/mb_prediction.c:202:50
	incq	%r8
.Ltmp163:
	#DEBUG_VALUE: k <- $r8
	.loc	0 202 24 is_stmt 0              # ldecod_src/mb_prediction.c:202:24
	movsbq	256(%rax,%rdx), %r9
	.loc	0 202 22                        # ldecod_src/mb_prediction.c:202:22
	cmpq	%r9, %r8
.Ltmp164:
	.loc	0 202 9                         # ldecod_src/mb_prediction.c:202:9
	jl	.LBB4_70
.Ltmp165:
.LBB4_66:                               # %for.inc169.us
	#DEBUG_VALUE: set_chroma_vector:currMB <- $rdi
	#DEBUG_VALUE: set_chroma_vector:currSlice <- $rax
	#DEBUG_VALUE: set_chroma_vector:p_Vid <- $rcx
	#DEBUG_VALUE: l <- $rdx
	#DEBUG_VALUE: l <- [DW_OP_plus_uconst 1, DW_OP_stack_value] $rdx
	#DEBUG_VALUE: k <- 0
	.loc	0 202 22                        # ldecod_src/mb_prediction.c:202:22
	cmpb	$0, 257(%rax,%rdx)
.Ltmp166:
	.loc	0 202 9                         # ldecod_src/mb_prediction.c:202:9
	jle	.LBB4_90
.Ltmp167:
# %bb.67:                               # %for.body123.lr.ph.us.1
	#DEBUG_VALUE: set_chroma_vector:currMB <- $rdi
	#DEBUG_VALUE: set_chroma_vector:currSlice <- $rax
	#DEBUG_VALUE: set_chroma_vector:p_Vid <- $rcx
	#DEBUG_VALUE: l <- [DW_OP_plus_uconst 1, DW_OP_stack_value] $rdx
	#DEBUG_VALUE: k <- 0
	movq	%rdx, %rsi
	shlq	$4, %rsi
	addq	%rax, %rsi
	addq	$13568, %rsi                    # imm = 0x3500
	xorl	%r8d, %r8d
.Ltmp168:
	.p2align	4, 0x90
.LBB4_68:                               # %for.body123.us.us.1
                                        # =>This Inner Loop Header: Depth=1
	#DEBUG_VALUE: set_chroma_vector:currMB <- $rdi
	#DEBUG_VALUE: set_chroma_vector:currSlice <- $rax
	#DEBUG_VALUE: set_chroma_vector:p_Vid <- $rcx
	#DEBUG_VALUE: l <- [DW_OP_plus_uconst 1, DW_OP_stack_value] $rdx
	#DEBUG_VALUE: k <- $r8
	.loc	0 204 28 is_stmt 1              # ldecod_src/mb_prediction.c:204:28
	movq	272(%rax,%rdx,8), %r9
	movq	(%r9,%r8,8), %r9
	.loc	0 204 62 is_stmt 0              # ldecod_src/mb_prediction.c:204:62
	cmpl	$2, (%r9)
	setne	%r9b
	addb	%r9b, %r9b
	addb	$-2, %r9b
	.loc	0 0 0                           # ldecod_src/mb_prediction.c:0:0
	movb	%r9b, (%rsi,%r8)
.Ltmp169:
	.loc	0 202 50 is_stmt 1              # ldecod_src/mb_prediction.c:202:50
	incq	%r8
.Ltmp170:
	#DEBUG_VALUE: k <- $r8
	.loc	0 202 24 is_stmt 0              # ldecod_src/mb_prediction.c:202:24
	movsbq	257(%rax,%rdx), %r9
	.loc	0 202 22                        # ldecod_src/mb_prediction.c:202:22
	cmpq	%r9, %r8
.Ltmp171:
	.loc	0 202 9                         # ldecod_src/mb_prediction.c:202:9
	jl	.LBB4_68
	jmp	.LBB4_90
.Ltmp172:
.LBB4_1:                                # %if.then
	#DEBUG_VALUE: set_chroma_vector:currMB <- $rdi
	#DEBUG_VALUE: set_chroma_vector:currSlice <- $rax
	#DEBUG_VALUE: set_chroma_vector:p_Vid <- $rcx
	.loc	0 149 19 is_stmt 1              # ldecod_src/mb_prediction.c:149:19
	movl	184(%rax), %edx
.Ltmp173:
	.loc	0 149 8 is_stmt 0               # ldecod_src/mb_prediction.c:149:8
	cmpl	$1, %edx
	je	.LBB4_6
.Ltmp174:
# %bb.2:                                # %if.then
	#DEBUG_VALUE: set_chroma_vector:currMB <- $rdi
	#DEBUG_VALUE: set_chroma_vector:currSlice <- $rax
	#DEBUG_VALUE: set_chroma_vector:p_Vid <- $rcx
	cmpl	$2, %edx
	jne	.LBB4_32
.Ltmp175:
# %bb.3:                                # %for.cond36.preheader
	#DEBUG_VALUE: set_chroma_vector:currMB <- $rdi
	#DEBUG_VALUE: set_chroma_vector:currSlice <- $rax
	#DEBUG_VALUE: set_chroma_vector:p_Vid <- $rcx
	#DEBUG_VALUE: l <- 0
	#DEBUG_VALUE: k <- 0
	.loc	0 168 24 is_stmt 1              # ldecod_src/mb_prediction.c:168:24
	movsbq	256(%rax), %rdx
	testq	%rdx, %rdx
.Ltmp176:
	.loc	0 168 9 is_stmt 0               # ldecod_src/mb_prediction.c:168:9
	jle	.LBB4_24
.Ltmp177:
# %bb.4:                                # %for.body47.lr.ph
	#DEBUG_VALUE: set_chroma_vector:currMB <- $rdi
	#DEBUG_VALUE: set_chroma_vector:currSlice <- $rax
	#DEBUG_VALUE: set_chroma_vector:p_Vid <- $rcx
	#DEBUG_VALUE: l <- 0
	#DEBUG_VALUE: k <- 0
	.loc	0 170 41 is_stmt 1              # ldecod_src/mb_prediction.c:170:41
	movq	264(%rax), %rsi
.Ltmp178:
	.loc	0 168 9                         # ldecod_src/mb_prediction.c:168:9
	cmpb	$1, %dl
	jne	.LBB4_20
.Ltmp179:
# %bb.5:
	#DEBUG_VALUE: set_chroma_vector:currMB <- $rdi
	#DEBUG_VALUE: set_chroma_vector:currSlice <- $rax
	#DEBUG_VALUE: set_chroma_vector:p_Vid <- $rcx
	#DEBUG_VALUE: l <- 0
	#DEBUG_VALUE: k <- 0
	.loc	0 0 9 is_stmt 0                 # ldecod_src/mb_prediction.c:0:9
	xorl	%r8d, %r8d
	.loc	0 168 9                         # ldecod_src/mb_prediction.c:168:9
	jmp	.LBB4_22
.Ltmp180:
.LBB4_55:                               # %for.cond173.preheader
	#DEBUG_VALUE: set_chroma_vector:currMB <- $rdi
	#DEBUG_VALUE: set_chroma_vector:currSlice <- $rax
	#DEBUG_VALUE: set_chroma_vector:p_Vid <- $rcx
	#DEBUG_VALUE: l <- 0
	#DEBUG_VALUE: k <- 0
	.loc	0 217 24 is_stmt 1              # ldecod_src/mb_prediction.c:217:24
	movsbq	256(%rax), %rdx
	testq	%rdx, %rdx
.Ltmp181:
	.loc	0 217 9 is_stmt 0               # ldecod_src/mb_prediction.c:217:9
	jle	.LBB4_79
.Ltmp182:
# %bb.56:                               # %iter.check
	#DEBUG_VALUE: set_chroma_vector:currMB <- $rdi
	#DEBUG_VALUE: set_chroma_vector:currSlice <- $rax
	#DEBUG_VALUE: set_chroma_vector:p_Vid <- $rcx
	#DEBUG_VALUE: l <- 0
	#DEBUG_VALUE: k <- 0
	cmpb	$8, %dl
	jae	.LBB4_71
.Ltmp183:
# %bb.57:
	#DEBUG_VALUE: set_chroma_vector:currMB <- $rdi
	#DEBUG_VALUE: set_chroma_vector:currSlice <- $rax
	#DEBUG_VALUE: set_chroma_vector:p_Vid <- $rcx
	#DEBUG_VALUE: l <- 0
	#DEBUG_VALUE: k <- 0
	.loc	0 0 9                           # ldecod_src/mb_prediction.c:0:9
	xorl	%esi, %esi
	.loc	0 217 9                         # ldecod_src/mb_prediction.c:217:9
	jmp	.LBB4_78
.Ltmp184:
.LBB4_59:                               # %for.cond116.preheader.preheader
	#DEBUG_VALUE: set_chroma_vector:currMB <- $rdi
	#DEBUG_VALUE: set_chroma_vector:currSlice <- $rax
	#DEBUG_VALUE: set_chroma_vector:p_Vid <- $rcx
	#DEBUG_VALUE: l <- $rdx
	#DEBUG_VALUE: k <- 0
	.loc	0 202 22 is_stmt 1              # ldecod_src/mb_prediction.c:202:22
	testb	%sil, %sil
.Ltmp185:
	.loc	0 202 9 is_stmt 0               # ldecod_src/mb_prediction.c:202:9
	jle	.LBB4_62
.Ltmp186:
# %bb.60:                               # %for.body123.lr.ph
	#DEBUG_VALUE: set_chroma_vector:currMB <- $rdi
	#DEBUG_VALUE: set_chroma_vector:currSlice <- $rax
	#DEBUG_VALUE: set_chroma_vector:p_Vid <- $rcx
	#DEBUG_VALUE: l <- $rdx
	#DEBUG_VALUE: k <- 0
	movq	%rdx, %rsi
	shlq	$4, %rsi
	addq	%rax, %rsi
	addq	$13552, %rsi                    # imm = 0x34F0
	xorl	%r8d, %r8d
.Ltmp187:
	.p2align	4, 0x90
.LBB4_61:                               # %for.body123
                                        # =>This Inner Loop Header: Depth=1
	#DEBUG_VALUE: set_chroma_vector:currMB <- $rdi
	#DEBUG_VALUE: set_chroma_vector:currSlice <- $rax
	#DEBUG_VALUE: set_chroma_vector:p_Vid <- $rcx
	#DEBUG_VALUE: l <- $rdx
	#DEBUG_VALUE: k <- $r8
	.loc	0 206 33 is_stmt 1              # ldecod_src/mb_prediction.c:206:33
	movq	264(%rax,%rdx,8), %r9
	movq	(%r9,%r8,8), %r9
	.loc	0 206 67 is_stmt 0              # ldecod_src/mb_prediction.c:206:67
	cmpl	$1, (%r9)
	sete	%r9b
	addb	%r9b, %r9b
	.loc	0 0 0                           # ldecod_src/mb_prediction.c:0:0
	movb	%r9b, (%rsi,%r8)
.Ltmp188:
	.loc	0 202 50 is_stmt 1              # ldecod_src/mb_prediction.c:202:50
	incq	%r8
.Ltmp189:
	#DEBUG_VALUE: k <- $r8
	.loc	0 202 24 is_stmt 0              # ldecod_src/mb_prediction.c:202:24
	movsbq	256(%rax,%rdx), %r9
	.loc	0 202 22                        # ldecod_src/mb_prediction.c:202:22
	cmpq	%r9, %r8
.Ltmp190:
	.loc	0 202 9                         # ldecod_src/mb_prediction.c:202:9
	jl	.LBB4_61
.Ltmp191:
.LBB4_62:                               # %for.inc169
	#DEBUG_VALUE: set_chroma_vector:currMB <- $rdi
	#DEBUG_VALUE: set_chroma_vector:currSlice <- $rax
	#DEBUG_VALUE: set_chroma_vector:p_Vid <- $rcx
	#DEBUG_VALUE: l <- $rdx
	#DEBUG_VALUE: l <- [DW_OP_plus_uconst 1, DW_OP_stack_value] $rdx
	#DEBUG_VALUE: k <- 0
	.loc	0 202 22                        # ldecod_src/mb_prediction.c:202:22
	cmpb	$0, 257(%rax,%rdx)
.Ltmp192:
	.loc	0 202 9                         # ldecod_src/mb_prediction.c:202:9
	jle	.LBB4_90
.Ltmp193:
# %bb.63:                               # %for.body123.lr.ph.1
	#DEBUG_VALUE: set_chroma_vector:currMB <- $rdi
	#DEBUG_VALUE: set_chroma_vector:currSlice <- $rax
	#DEBUG_VALUE: set_chroma_vector:p_Vid <- $rcx
	#DEBUG_VALUE: l <- [DW_OP_plus_uconst 1, DW_OP_stack_value] $rdx
	#DEBUG_VALUE: k <- 0
	movq	%rdx, %rsi
	shlq	$4, %rsi
	addq	%rax, %rsi
	addq	$13568, %rsi                    # imm = 0x3500
	xorl	%r8d, %r8d
.Ltmp194:
	.p2align	4, 0x90
.LBB4_64:                               # %for.body123.1
                                        # =>This Inner Loop Header: Depth=1
	#DEBUG_VALUE: set_chroma_vector:currMB <- $rdi
	#DEBUG_VALUE: set_chroma_vector:currSlice <- $rax
	#DEBUG_VALUE: set_chroma_vector:p_Vid <- $rcx
	#DEBUG_VALUE: l <- [DW_OP_plus_uconst 1, DW_OP_stack_value] $rdx
	#DEBUG_VALUE: k <- $r8
	.loc	0 206 33 is_stmt 1              # ldecod_src/mb_prediction.c:206:33
	movq	272(%rax,%rdx,8), %r9
	movq	(%r9,%r8,8), %r9
	.loc	0 206 67 is_stmt 0              # ldecod_src/mb_prediction.c:206:67
	cmpl	$1, (%r9)
	sete	%r9b
	addb	%r9b, %r9b
	.loc	0 0 0                           # ldecod_src/mb_prediction.c:0:0
	movb	%r9b, (%rsi,%r8)
.Ltmp195:
	.loc	0 202 50 is_stmt 1              # ldecod_src/mb_prediction.c:202:50
	incq	%r8
.Ltmp196:
	#DEBUG_VALUE: k <- $r8
	.loc	0 202 24 is_stmt 0              # ldecod_src/mb_prediction.c:202:24
	movsbq	257(%rax,%rdx), %r9
	.loc	0 202 22                        # ldecod_src/mb_prediction.c:202:22
	cmpq	%r9, %r8
.Ltmp197:
	.loc	0 202 9                         # ldecod_src/mb_prediction.c:202:9
	jl	.LBB4_64
	jmp	.LBB4_90
.Ltmp198:
.LBB4_6:                                # %for.cond.preheader
	#DEBUG_VALUE: set_chroma_vector:currMB <- $rdi
	#DEBUG_VALUE: set_chroma_vector:currSlice <- $rax
	#DEBUG_VALUE: set_chroma_vector:p_Vid <- $rcx
	#DEBUG_VALUE: l <- 0
	#DEBUG_VALUE: k <- 0
	.loc	0 154 24 is_stmt 1              # ldecod_src/mb_prediction.c:154:24
	movsbq	256(%rax), %rdx
	testq	%rdx, %rdx
.Ltmp199:
	.loc	0 154 9 is_stmt 0               # ldecod_src/mb_prediction.c:154:9
	jle	.LBB4_13
.Ltmp200:
# %bb.7:                                # %for.body7.lr.ph
	#DEBUG_VALUE: set_chroma_vector:currMB <- $rdi
	#DEBUG_VALUE: set_chroma_vector:currSlice <- $rax
	#DEBUG_VALUE: set_chroma_vector:p_Vid <- $rcx
	#DEBUG_VALUE: l <- 0
	#DEBUG_VALUE: k <- 0
	.loc	0 156 40 is_stmt 1              # ldecod_src/mb_prediction.c:156:40
	movq	264(%rax), %rsi
.Ltmp201:
	.loc	0 154 9                         # ldecod_src/mb_prediction.c:154:9
	cmpb	$1, %dl
	jne	.LBB4_9
.Ltmp202:
# %bb.8:
	#DEBUG_VALUE: set_chroma_vector:currMB <- $rdi
	#DEBUG_VALUE: set_chroma_vector:currSlice <- $rax
	#DEBUG_VALUE: set_chroma_vector:p_Vid <- $rcx
	#DEBUG_VALUE: l <- 0
	#DEBUG_VALUE: k <- 0
	.loc	0 0 9 is_stmt 0                 # ldecod_src/mb_prediction.c:0:9
	xorl	%r8d, %r8d
	.loc	0 154 9                         # ldecod_src/mb_prediction.c:154:9
	jmp	.LBB4_11
.Ltmp203:
.LBB4_32:                               # %for.cond79.preheader
	#DEBUG_VALUE: set_chroma_vector:currMB <- $rdi
	#DEBUG_VALUE: set_chroma_vector:currSlice <- $rax
	#DEBUG_VALUE: set_chroma_vector:p_Vid <- $rcx
	#DEBUG_VALUE: l <- 0
	#DEBUG_VALUE: k <- 0
	.loc	0 182 24 is_stmt 1              # ldecod_src/mb_prediction.c:182:24
	movsbq	256(%rax), %rdx
	testq	%rdx, %rdx
.Ltmp204:
	.loc	0 182 9 is_stmt 0               # ldecod_src/mb_prediction.c:182:9
	jle	.LBB4_43
.Ltmp205:
# %bb.33:                               # %iter.check406
	#DEBUG_VALUE: set_chroma_vector:currMB <- $rdi
	#DEBUG_VALUE: set_chroma_vector:currSlice <- $rax
	#DEBUG_VALUE: set_chroma_vector:p_Vid <- $rcx
	#DEBUG_VALUE: l <- 0
	#DEBUG_VALUE: k <- 0
	cmpb	$8, %dl
	jae	.LBB4_35
.Ltmp206:
# %bb.34:
	#DEBUG_VALUE: set_chroma_vector:currMB <- $rdi
	#DEBUG_VALUE: set_chroma_vector:currSlice <- $rax
	#DEBUG_VALUE: set_chroma_vector:p_Vid <- $rcx
	#DEBUG_VALUE: l <- 0
	#DEBUG_VALUE: k <- 0
	.loc	0 0 9                           # ldecod_src/mb_prediction.c:0:9
	xorl	%esi, %esi
	.loc	0 182 9                         # ldecod_src/mb_prediction.c:182:9
	jmp	.LBB4_42
.Ltmp207:
.LBB4_71:                               # %vector.main.loop.iter.check
	#DEBUG_VALUE: set_chroma_vector:currMB <- $rdi
	#DEBUG_VALUE: set_chroma_vector:currSlice <- $rax
	#DEBUG_VALUE: set_chroma_vector:p_Vid <- $rcx
	#DEBUG_VALUE: l <- 0
	#DEBUG_VALUE: k <- 0
	.loc	0 217 9 is_stmt 1               # ldecod_src/mb_prediction.c:217:9
	cmpb	$64, %dl
	jae	.LBB4_73
.Ltmp208:
# %bb.72:
	#DEBUG_VALUE: set_chroma_vector:currMB <- $rdi
	#DEBUG_VALUE: set_chroma_vector:currSlice <- $rax
	#DEBUG_VALUE: set_chroma_vector:p_Vid <- $rcx
	#DEBUG_VALUE: l <- 0
	#DEBUG_VALUE: k <- 0
	.loc	0 0 9 is_stmt 0                 # ldecod_src/mb_prediction.c:0:9
	xorl	%esi, %esi
	.loc	0 217 9                         # ldecod_src/mb_prediction.c:217:9
	jmp	.LBB4_75
.Ltmp209:
.LBB4_20:                               # %for.body47.lr.ph.new
	#DEBUG_VALUE: set_chroma_vector:currMB <- $rdi
	#DEBUG_VALUE: set_chroma_vector:currSlice <- $rax
	#DEBUG_VALUE: set_chroma_vector:p_Vid <- $rcx
	#DEBUG_VALUE: l <- 0
	#DEBUG_VALUE: k <- 0
	.loc	0 168 9 is_stmt 1               # ldecod_src/mb_prediction.c:168:9
	movl	%edx, %r9d
	andl	$126, %r9d
	xorl	%r8d, %r8d
.Ltmp210:
	.p2align	4, 0x90
.LBB4_21:                               # %for.body47
                                        # =>This Inner Loop Header: Depth=1
	#DEBUG_VALUE: set_chroma_vector:currMB <- $rdi
	#DEBUG_VALUE: set_chroma_vector:currSlice <- $rax
	#DEBUG_VALUE: set_chroma_vector:p_Vid <- $rcx
	#DEBUG_VALUE: l <- 0
	#DEBUG_VALUE: k <- $r8
	.loc	0 170 22                        # ldecod_src/mb_prediction.c:170:22
	movl	848876(%rcx), %r10d
	.loc	0 170 41 is_stmt 0              # ldecod_src/mb_prediction.c:170:41
	movq	(%rsi,%r8,8), %r11
	.loc	0 170 22                        # ldecod_src/mb_prediction.c:170:22
	cmpl	(%r11), %r10d
	setne	%r10b
	addb	%r10b, %r10b
	.loc	0 0 0                           # ldecod_src/mb_prediction.c:0:0
	movb	%r10b, 13552(%rax,%r8)
.Ltmp211:
	#DEBUG_VALUE: k <- [DW_OP_constu 1, DW_OP_or, DW_OP_stack_value] $r8
	.loc	0 170 22                        # ldecod_src/mb_prediction.c:170:22
	movl	848876(%rcx), %r10d
	.loc	0 170 41                        # ldecod_src/mb_prediction.c:170:41
	movq	8(%rsi,%r8,8), %r11
	.loc	0 170 22                        # ldecod_src/mb_prediction.c:170:22
	cmpl	(%r11), %r10d
	setne	%r10b
	addb	%r10b, %r10b
	.loc	0 0 0                           # ldecod_src/mb_prediction.c:0:0
	movb	%r10b, 13553(%rax,%r8)
.Ltmp212:
	.loc	0 168 50 is_stmt 1              # ldecod_src/mb_prediction.c:168:50
	addq	$2, %r8
.Ltmp213:
	#DEBUG_VALUE: k <- $r8
	.loc	0 168 9 is_stmt 0               # ldecod_src/mb_prediction.c:168:9
	cmpq	%r8, %r9
	jne	.LBB4_21
.Ltmp214:
.LBB4_22:                               # %for.inc73.loopexit.unr-lcssa
	#DEBUG_VALUE: set_chroma_vector:currMB <- $rdi
	#DEBUG_VALUE: set_chroma_vector:currSlice <- $rax
	#DEBUG_VALUE: set_chroma_vector:p_Vid <- $rcx
	#DEBUG_VALUE: l <- 0
	testb	$1, %dl
	je	.LBB4_24
.Ltmp215:
# %bb.23:                               # %for.body47.epil
	#DEBUG_VALUE: set_chroma_vector:currMB <- $rdi
	#DEBUG_VALUE: set_chroma_vector:currSlice <- $rax
	#DEBUG_VALUE: set_chroma_vector:p_Vid <- $rcx
	#DEBUG_VALUE: l <- 0
	#DEBUG_VALUE: k <- $r8
	.loc	0 170 22 is_stmt 1              # ldecod_src/mb_prediction.c:170:22
	movl	848876(%rcx), %edx
	.loc	0 170 41 is_stmt 0              # ldecod_src/mb_prediction.c:170:41
	movq	(%rsi,%r8,8), %rsi
	.loc	0 170 22                        # ldecod_src/mb_prediction.c:170:22
	cmpl	(%rsi), %edx
	setne	%dl
	addb	%dl, %dl
	.loc	0 0 0                           # ldecod_src/mb_prediction.c:0:0
	movb	%dl, 13552(%rax,%r8)
.Ltmp216:
	#DEBUG_VALUE: k <- [DW_OP_plus_uconst 1, DW_OP_stack_value] $r8
.LBB4_24:                               # %for.inc73
	#DEBUG_VALUE: set_chroma_vector:currMB <- $rdi
	#DEBUG_VALUE: set_chroma_vector:currSlice <- $rax
	#DEBUG_VALUE: set_chroma_vector:p_Vid <- $rcx
	#DEBUG_VALUE: l <- 0
	#DEBUG_VALUE: l <- 1
	#DEBUG_VALUE: k <- 0
	.loc	0 168 24 is_stmt 1              # ldecod_src/mb_prediction.c:168:24
	movsbq	257(%rax), %rdx
	testq	%rdx, %rdx
.Ltmp217:
	.loc	0 168 9 is_stmt 0               # ldecod_src/mb_prediction.c:168:9
	jle	.LBB4_90
.Ltmp218:
# %bb.25:                               # %for.body47.lr.ph.1
	#DEBUG_VALUE: set_chroma_vector:currMB <- $rdi
	#DEBUG_VALUE: set_chroma_vector:currSlice <- $rax
	#DEBUG_VALUE: set_chroma_vector:p_Vid <- $rcx
	#DEBUG_VALUE: l <- 1
	#DEBUG_VALUE: k <- 0
	.loc	0 170 41 is_stmt 1              # ldecod_src/mb_prediction.c:170:41
	movq	272(%rax), %rsi
.Ltmp219:
	.loc	0 168 9                         # ldecod_src/mb_prediction.c:168:9
	cmpb	$1, %dl
	jne	.LBB4_27
.Ltmp220:
# %bb.26:
	#DEBUG_VALUE: set_chroma_vector:currMB <- $rdi
	#DEBUG_VALUE: set_chroma_vector:currSlice <- $rax
	#DEBUG_VALUE: set_chroma_vector:p_Vid <- $rcx
	#DEBUG_VALUE: l <- 1
	#DEBUG_VALUE: k <- 0
	.loc	0 0 9 is_stmt 0                 # ldecod_src/mb_prediction.c:0:9
	xorl	%r8d, %r8d
	.loc	0 168 9                         # ldecod_src/mb_prediction.c:168:9
	jmp	.LBB4_29
.Ltmp221:
.LBB4_27:                               # %for.body47.lr.ph.1.new
	#DEBUG_VALUE: set_chroma_vector:currMB <- $rdi
	#DEBUG_VALUE: set_chroma_vector:currSlice <- $rax
	#DEBUG_VALUE: set_chroma_vector:p_Vid <- $rcx
	#DEBUG_VALUE: l <- 1
	#DEBUG_VALUE: k <- 0
	movl	%edx, %r9d
	andl	$126, %r9d
	xorl	%r8d, %r8d
.Ltmp222:
	.p2align	4, 0x90
.LBB4_28:                               # %for.body47.1
                                        # =>This Inner Loop Header: Depth=1
	#DEBUG_VALUE: set_chroma_vector:currMB <- $rdi
	#DEBUG_VALUE: set_chroma_vector:currSlice <- $rax
	#DEBUG_VALUE: set_chroma_vector:p_Vid <- $rcx
	#DEBUG_VALUE: l <- 1
	#DEBUG_VALUE: k <- $r8
	.loc	0 170 22 is_stmt 1              # ldecod_src/mb_prediction.c:170:22
	movl	848876(%rcx), %r10d
	.loc	0 170 41 is_stmt 0              # ldecod_src/mb_prediction.c:170:41
	movq	(%rsi,%r8,8), %r11
	.loc	0 170 22                        # ldecod_src/mb_prediction.c:170:22
	cmpl	(%r11), %r10d
	setne	%r10b
	addb	%r10b, %r10b
	.loc	0 0 0                           # ldecod_src/mb_prediction.c:0:0
	movb	%r10b, 13568(%rax,%r8)
.Ltmp223:
	#DEBUG_VALUE: k <- [DW_OP_constu 1, DW_OP_or, DW_OP_stack_value] $r8
	.loc	0 170 22                        # ldecod_src/mb_prediction.c:170:22
	movl	848876(%rcx), %r10d
	.loc	0 170 41                        # ldecod_src/mb_prediction.c:170:41
	movq	8(%rsi,%r8,8), %r11
	.loc	0 170 22                        # ldecod_src/mb_prediction.c:170:22
	cmpl	(%r11), %r10d
	setne	%r10b
	addb	%r10b, %r10b
	.loc	0 0 0                           # ldecod_src/mb_prediction.c:0:0
	movb	%r10b, 13569(%rax,%r8)
.Ltmp224:
	.loc	0 168 50 is_stmt 1              # ldecod_src/mb_prediction.c:168:50
	addq	$2, %r8
.Ltmp225:
	#DEBUG_VALUE: k <- $r8
	.loc	0 168 9 is_stmt 0               # ldecod_src/mb_prediction.c:168:9
	cmpq	%r8, %r9
	jne	.LBB4_28
.Ltmp226:
.LBB4_29:                               # %if.end197.loopexit458.unr-lcssa
	#DEBUG_VALUE: set_chroma_vector:currMB <- $rdi
	#DEBUG_VALUE: set_chroma_vector:currSlice <- $rax
	#DEBUG_VALUE: set_chroma_vector:p_Vid <- $rcx
	#DEBUG_VALUE: l <- 1
	testb	$1, %dl
	je	.LBB4_90
.Ltmp227:
# %bb.30:                               # %for.body47.1.epil
	#DEBUG_VALUE: set_chroma_vector:currMB <- $rdi
	#DEBUG_VALUE: set_chroma_vector:currSlice <- $rax
	#DEBUG_VALUE: set_chroma_vector:p_Vid <- $rcx
	#DEBUG_VALUE: l <- 1
	#DEBUG_VALUE: k <- $r8
	.loc	0 170 22 is_stmt 1              # ldecod_src/mb_prediction.c:170:22
	movl	848876(%rcx), %edx
	.loc	0 170 41 is_stmt 0              # ldecod_src/mb_prediction.c:170:41
	movq	(%rsi,%r8,8), %rsi
	.loc	0 170 22                        # ldecod_src/mb_prediction.c:170:22
	cmpl	(%rsi), %edx
	setne	%dl
	addb	%dl, %dl
.Ltmp228:
	.loc	0 0 0                           # ldecod_src/mb_prediction.c:0:0
	movb	%dl, 13568(%rax,%r8)
.Ltmp229:
	#DEBUG_VALUE: k <- [DW_OP_plus_uconst 1, DW_OP_stack_value] $r8
	jmp	.LBB4_90
.Ltmp230:
.LBB4_9:                                # %for.body7.lr.ph.new
	#DEBUG_VALUE: set_chroma_vector:currMB <- $rdi
	#DEBUG_VALUE: set_chroma_vector:currSlice <- $rax
	#DEBUG_VALUE: set_chroma_vector:p_Vid <- $rcx
	#DEBUG_VALUE: l <- 0
	#DEBUG_VALUE: k <- 0
	.loc	0 154 9 is_stmt 1               # ldecod_src/mb_prediction.c:154:9
	movl	%edx, %r9d
	andl	$126, %r9d
	xorl	%r8d, %r8d
.Ltmp231:
	.p2align	4, 0x90
.LBB4_10:                               # %for.body7
                                        # =>This Inner Loop Header: Depth=1
	#DEBUG_VALUE: set_chroma_vector:currMB <- $rdi
	#DEBUG_VALUE: set_chroma_vector:currSlice <- $rax
	#DEBUG_VALUE: set_chroma_vector:p_Vid <- $rcx
	#DEBUG_VALUE: l <- 0
	#DEBUG_VALUE: k <- $r8
	.loc	0 156 21                        # ldecod_src/mb_prediction.c:156:21
	movl	848876(%rcx), %r10d
	.loc	0 156 40 is_stmt 0              # ldecod_src/mb_prediction.c:156:40
	movq	(%rsi,%r8,8), %r11
	.loc	0 156 31                        # ldecod_src/mb_prediction.c:156:31
	cmpl	(%r11), %r10d
	sete	%r10b
	addb	%r10b, %r10b
	addb	$-2, %r10b
	.loc	0 0 0                           # ldecod_src/mb_prediction.c:0:0
	movb	%r10b, 13552(%rax,%r8)
.Ltmp232:
	#DEBUG_VALUE: k <- [DW_OP_constu 1, DW_OP_or, DW_OP_stack_value] $r8
	.loc	0 156 21                        # ldecod_src/mb_prediction.c:156:21
	movl	848876(%rcx), %r10d
	.loc	0 156 40                        # ldecod_src/mb_prediction.c:156:40
	movq	8(%rsi,%r8,8), %r11
	.loc	0 156 31                        # ldecod_src/mb_prediction.c:156:31
	cmpl	(%r11), %r10d
	sete	%r10b
	addb	%r10b, %r10b
	addb	$-2, %r10b
	.loc	0 0 0                           # ldecod_src/mb_prediction.c:0:0
	movb	%r10b, 13553(%rax,%r8)
.Ltmp233:
	.loc	0 154 50 is_stmt 1              # ldecod_src/mb_prediction.c:154:50
	addq	$2, %r8
.Ltmp234:
	#DEBUG_VALUE: k <- $r8
	.loc	0 154 9 is_stmt 0               # ldecod_src/mb_prediction.c:154:9
	cmpq	%r8, %r9
	jne	.LBB4_10
.Ltmp235:
.LBB4_11:                               # %for.inc26.loopexit.unr-lcssa
	#DEBUG_VALUE: set_chroma_vector:currMB <- $rdi
	#DEBUG_VALUE: set_chroma_vector:currSlice <- $rax
	#DEBUG_VALUE: set_chroma_vector:p_Vid <- $rcx
	#DEBUG_VALUE: l <- 0
	testb	$1, %dl
	je	.LBB4_13
.Ltmp236:
# %bb.12:                               # %for.body7.epil
	#DEBUG_VALUE: set_chroma_vector:currMB <- $rdi
	#DEBUG_VALUE: set_chroma_vector:currSlice <- $rax
	#DEBUG_VALUE: set_chroma_vector:p_Vid <- $rcx
	#DEBUG_VALUE: l <- 0
	#DEBUG_VALUE: k <- $r8
	.loc	0 156 21 is_stmt 1              # ldecod_src/mb_prediction.c:156:21
	movl	848876(%rcx), %edx
	.loc	0 156 40 is_stmt 0              # ldecod_src/mb_prediction.c:156:40
	movq	(%rsi,%r8,8), %rsi
	.loc	0 156 31                        # ldecod_src/mb_prediction.c:156:31
	cmpl	(%rsi), %edx
	sete	%dl
	addb	%dl, %dl
	addb	$-2, %dl
	.loc	0 0 0                           # ldecod_src/mb_prediction.c:0:0
	movb	%dl, 13552(%rax,%r8)
.Ltmp237:
	#DEBUG_VALUE: k <- [DW_OP_plus_uconst 1, DW_OP_stack_value] $r8
.LBB4_13:                               # %for.inc26
	#DEBUG_VALUE: set_chroma_vector:currMB <- $rdi
	#DEBUG_VALUE: set_chroma_vector:currSlice <- $rax
	#DEBUG_VALUE: set_chroma_vector:p_Vid <- $rcx
	#DEBUG_VALUE: l <- 0
	#DEBUG_VALUE: l <- 1
	#DEBUG_VALUE: k <- 0
	.loc	0 154 24 is_stmt 1              # ldecod_src/mb_prediction.c:154:24
	movsbq	257(%rax), %rdx
	testq	%rdx, %rdx
.Ltmp238:
	.loc	0 154 9 is_stmt 0               # ldecod_src/mb_prediction.c:154:9
	jle	.LBB4_90
.Ltmp239:
# %bb.14:                               # %for.body7.lr.ph.1
	#DEBUG_VALUE: set_chroma_vector:currMB <- $rdi
	#DEBUG_VALUE: set_chroma_vector:currSlice <- $rax
	#DEBUG_VALUE: set_chroma_vector:p_Vid <- $rcx
	#DEBUG_VALUE: l <- 1
	#DEBUG_VALUE: k <- 0
	.loc	0 156 40 is_stmt 1              # ldecod_src/mb_prediction.c:156:40
	movq	272(%rax), %rsi
.Ltmp240:
	.loc	0 154 9                         # ldecod_src/mb_prediction.c:154:9
	cmpb	$1, %dl
	jne	.LBB4_16
.Ltmp241:
# %bb.15:
	#DEBUG_VALUE: set_chroma_vector:currMB <- $rdi
	#DEBUG_VALUE: set_chroma_vector:currSlice <- $rax
	#DEBUG_VALUE: set_chroma_vector:p_Vid <- $rcx
	#DEBUG_VALUE: l <- 1
	#DEBUG_VALUE: k <- 0
	.loc	0 0 9 is_stmt 0                 # ldecod_src/mb_prediction.c:0:9
	xorl	%r8d, %r8d
	.loc	0 154 9                         # ldecod_src/mb_prediction.c:154:9
	jmp	.LBB4_18
.Ltmp242:
.LBB4_16:                               # %for.body7.lr.ph.1.new
	#DEBUG_VALUE: set_chroma_vector:currMB <- $rdi
	#DEBUG_VALUE: set_chroma_vector:currSlice <- $rax
	#DEBUG_VALUE: set_chroma_vector:p_Vid <- $rcx
	#DEBUG_VALUE: l <- 1
	#DEBUG_VALUE: k <- 0
	movl	%edx, %r9d
	andl	$126, %r9d
	xorl	%r8d, %r8d
.Ltmp243:
	.p2align	4, 0x90
.LBB4_17:                               # %for.body7.1
                                        # =>This Inner Loop Header: Depth=1
	#DEBUG_VALUE: set_chroma_vector:currMB <- $rdi
	#DEBUG_VALUE: set_chroma_vector:currSlice <- $rax
	#DEBUG_VALUE: set_chroma_vector:p_Vid <- $rcx
	#DEBUG_VALUE: l <- 1
	#DEBUG_VALUE: k <- $r8
	.loc	0 156 21 is_stmt 1              # ldecod_src/mb_prediction.c:156:21
	movl	848876(%rcx), %r10d
	.loc	0 156 40 is_stmt 0              # ldecod_src/mb_prediction.c:156:40
	movq	(%rsi,%r8,8), %r11
	.loc	0 156 31                        # ldecod_src/mb_prediction.c:156:31
	cmpl	(%r11), %r10d
	sete	%r10b
	addb	%r10b, %r10b
	addb	$-2, %r10b
	.loc	0 0 0                           # ldecod_src/mb_prediction.c:0:0
	movb	%r10b, 13568(%rax,%r8)
.Ltmp244:
	#DEBUG_VALUE: k <- [DW_OP_constu 1, DW_OP_or, DW_OP_stack_value] $r8
	.loc	0 156 21                        # ldecod_src/mb_prediction.c:156:21
	movl	848876(%rcx), %r10d
	.loc	0 156 40                        # ldecod_src/mb_prediction.c:156:40
	movq	8(%rsi,%r8,8), %r11
	.loc	0 156 31                        # ldecod_src/mb_prediction.c:156:31
	cmpl	(%r11), %r10d
	sete	%r10b
	addb	%r10b, %r10b
	addb	$-2, %r10b
	.loc	0 0 0                           # ldecod_src/mb_prediction.c:0:0
	movb	%r10b, 13569(%rax,%r8)
.Ltmp245:
	.loc	0 154 50 is_stmt 1              # ldecod_src/mb_prediction.c:154:50
	addq	$2, %r8
.Ltmp246:
	#DEBUG_VALUE: k <- $r8
	.loc	0 154 9 is_stmt 0               # ldecod_src/mb_prediction.c:154:9
	cmpq	%r8, %r9
	jne	.LBB4_17
.Ltmp247:
.LBB4_18:                               # %if.end197.loopexit457.unr-lcssa
	#DEBUG_VALUE: set_chroma_vector:currMB <- $rdi
	#DEBUG_VALUE: set_chroma_vector:currSlice <- $rax
	#DEBUG_VALUE: set_chroma_vector:p_Vid <- $rcx
	#DEBUG_VALUE: l <- 1
	testb	$1, %dl
	je	.LBB4_90
.Ltmp248:
# %bb.19:                               # %for.body7.1.epil
	#DEBUG_VALUE: set_chroma_vector:currMB <- $rdi
	#DEBUG_VALUE: set_chroma_vector:currSlice <- $rax
	#DEBUG_VALUE: set_chroma_vector:p_Vid <- $rcx
	#DEBUG_VALUE: l <- 1
	#DEBUG_VALUE: k <- $r8
	.loc	0 156 21 is_stmt 1              # ldecod_src/mb_prediction.c:156:21
	movl	848876(%rcx), %edx
	.loc	0 156 40 is_stmt 0              # ldecod_src/mb_prediction.c:156:40
	movq	(%rsi,%r8,8), %rsi
	.loc	0 156 31                        # ldecod_src/mb_prediction.c:156:31
	cmpl	(%rsi), %edx
	sete	%dl
	addb	%dl, %dl
	addb	$-2, %dl
.Ltmp249:
	.loc	0 0 0                           # ldecod_src/mb_prediction.c:0:0
	movb	%dl, 13568(%rax,%r8)
	#DEBUG_VALUE: k <- [DW_OP_plus_uconst 1, DW_OP_stack_value] undef
	jmp	.LBB4_90
.Ltmp250:
.LBB4_35:                               # %vector.main.loop.iter.check408
	#DEBUG_VALUE: set_chroma_vector:currMB <- $rdi
	#DEBUG_VALUE: set_chroma_vector:currSlice <- $rax
	#DEBUG_VALUE: set_chroma_vector:p_Vid <- $rcx
	#DEBUG_VALUE: l <- 0
	#DEBUG_VALUE: k <- 0
	.loc	0 182 9 is_stmt 1               # ldecod_src/mb_prediction.c:182:9
	cmpb	$64, %dl
	jae	.LBB4_37
.Ltmp251:
# %bb.36:
	#DEBUG_VALUE: set_chroma_vector:currMB <- $rdi
	#DEBUG_VALUE: set_chroma_vector:currSlice <- $rax
	#DEBUG_VALUE: set_chroma_vector:p_Vid <- $rcx
	#DEBUG_VALUE: l <- 0
	#DEBUG_VALUE: k <- 0
	.loc	0 0 9 is_stmt 0                 # ldecod_src/mb_prediction.c:0:9
	xorl	%esi, %esi
	.loc	0 182 9                         # ldecod_src/mb_prediction.c:182:9
	jmp	.LBB4_39
.Ltmp252:
.LBB4_73:                               # %vector.ph
	#DEBUG_VALUE: set_chroma_vector:currMB <- $rdi
	#DEBUG_VALUE: set_chroma_vector:currSlice <- $rax
	#DEBUG_VALUE: set_chroma_vector:p_Vid <- $rcx
	#DEBUG_VALUE: l <- 0
	#DEBUG_VALUE: k <- 0
	.loc	0 217 9 is_stmt 1               # ldecod_src/mb_prediction.c:217:9
	movl	%edx, %esi
	andl	$64, %esi
.Ltmp253:
	.loc	0 219 53                        # ldecod_src/mb_prediction.c:219:53
	xorps	%xmm0, %xmm0
	movups	%xmm0, 13552(%rax)
	movups	%xmm0, 13568(%rax)
	movups	%xmm0, 13584(%rax)
	movups	%xmm0, 13600(%rax)
.Ltmp254:
	.loc	0 217 9                         # ldecod_src/mb_prediction.c:217:9
	cmpq	%rdx, %rsi
	je	.LBB4_79
.Ltmp255:
# %bb.74:                               # %vec.epilog.iter.check
	#DEBUG_VALUE: set_chroma_vector:currMB <- $rdi
	#DEBUG_VALUE: set_chroma_vector:currSlice <- $rax
	#DEBUG_VALUE: set_chroma_vector:p_Vid <- $rcx
	#DEBUG_VALUE: l <- 0
	#DEBUG_VALUE: k <- 0
	testb	$56, %dl
	je	.LBB4_78
.Ltmp256:
.LBB4_75:                               # %vec.epilog.ph
	#DEBUG_VALUE: set_chroma_vector:currMB <- $rdi
	#DEBUG_VALUE: set_chroma_vector:currSlice <- $rax
	#DEBUG_VALUE: set_chroma_vector:p_Vid <- $rcx
	#DEBUG_VALUE: l <- 0
	#DEBUG_VALUE: k <- 0
	.loc	0 0 9 is_stmt 0                 # ldecod_src/mb_prediction.c:0:9
	movq	%rsi, %r8
	.loc	0 217 9                         # ldecod_src/mb_prediction.c:217:9
	movl	%edx, %esi
	andl	$120, %esi
.Ltmp257:
	.p2align	4, 0x90
.LBB4_76:                               # %vec.epilog.vector.body
                                        # =>This Inner Loop Header: Depth=1
	#DEBUG_VALUE: set_chroma_vector:currMB <- $rdi
	#DEBUG_VALUE: set_chroma_vector:currSlice <- $rax
	#DEBUG_VALUE: set_chroma_vector:p_Vid <- $rcx
	#DEBUG_VALUE: l <- 0
	#DEBUG_VALUE: k <- 0
	.loc	0 219 53 is_stmt 1              # ldecod_src/mb_prediction.c:219:53
	movq	$0, 13552(%rax,%r8)
.Ltmp258:
	.loc	0 217 50                        # ldecod_src/mb_prediction.c:217:50
	addq	$8, %r8
	cmpq	%r8, %rsi
	jne	.LBB4_76
.Ltmp259:
# %bb.77:                               # %vec.epilog.middle.block
	#DEBUG_VALUE: set_chroma_vector:currMB <- $rdi
	#DEBUG_VALUE: set_chroma_vector:currSlice <- $rax
	#DEBUG_VALUE: set_chroma_vector:p_Vid <- $rcx
	#DEBUG_VALUE: l <- 0
	#DEBUG_VALUE: k <- 0
	.loc	0 217 9 is_stmt 0               # ldecod_src/mb_prediction.c:217:9
	cmpq	%rdx, %rsi
	je	.LBB4_79
.Ltmp260:
	.p2align	4, 0x90
.LBB4_78:                               # %for.body184
                                        # =>This Inner Loop Header: Depth=1
	#DEBUG_VALUE: set_chroma_vector:currMB <- $rdi
	#DEBUG_VALUE: set_chroma_vector:currSlice <- $rax
	#DEBUG_VALUE: set_chroma_vector:p_Vid <- $rcx
	#DEBUG_VALUE: l <- 0
	#DEBUG_VALUE: k <- $rsi
	.loc	0 219 53 is_stmt 1              # ldecod_src/mb_prediction.c:219:53
	movb	$0, 13552(%rax,%rsi)
.Ltmp261:
	.loc	0 217 50                        # ldecod_src/mb_prediction.c:217:50
	incq	%rsi
.Ltmp262:
	#DEBUG_VALUE: k <- $rsi
	.loc	0 217 22 is_stmt 0              # ldecod_src/mb_prediction.c:217:22
	cmpq	%rdx, %rsi
.Ltmp263:
	.loc	0 217 9                         # ldecod_src/mb_prediction.c:217:9
	jb	.LBB4_78
.Ltmp264:
.LBB4_79:                               # %for.inc193
	#DEBUG_VALUE: set_chroma_vector:currMB <- $rdi
	#DEBUG_VALUE: set_chroma_vector:currSlice <- $rax
	#DEBUG_VALUE: set_chroma_vector:p_Vid <- $rcx
	#DEBUG_VALUE: l <- 0
	#DEBUG_VALUE: l <- 1
	#DEBUG_VALUE: k <- 0
	.loc	0 217 24                        # ldecod_src/mb_prediction.c:217:24
	movsbq	257(%rax), %rdx
	testq	%rdx, %rdx
.Ltmp265:
	.loc	0 217 9                         # ldecod_src/mb_prediction.c:217:9
	jle	.LBB4_90
.Ltmp266:
# %bb.80:                               # %iter.check379
	#DEBUG_VALUE: set_chroma_vector:currMB <- $rdi
	#DEBUG_VALUE: set_chroma_vector:currSlice <- $rax
	#DEBUG_VALUE: set_chroma_vector:p_Vid <- $rcx
	#DEBUG_VALUE: l <- 1
	#DEBUG_VALUE: k <- 0
	cmpb	$8, %dl
	jae	.LBB4_82
.Ltmp267:
# %bb.81:
	#DEBUG_VALUE: set_chroma_vector:currMB <- $rdi
	#DEBUG_VALUE: set_chroma_vector:currSlice <- $rax
	#DEBUG_VALUE: set_chroma_vector:p_Vid <- $rcx
	#DEBUG_VALUE: l <- 1
	#DEBUG_VALUE: k <- 0
	.loc	0 0 9                           # ldecod_src/mb_prediction.c:0:9
	xorl	%esi, %esi
	.loc	0 217 9                         # ldecod_src/mb_prediction.c:217:9
	jmp	.LBB4_89
.Ltmp268:
.LBB4_82:                               # %vector.main.loop.iter.check381
	#DEBUG_VALUE: set_chroma_vector:currMB <- $rdi
	#DEBUG_VALUE: set_chroma_vector:currSlice <- $rax
	#DEBUG_VALUE: set_chroma_vector:p_Vid <- $rcx
	#DEBUG_VALUE: l <- 1
	#DEBUG_VALUE: k <- 0
	cmpb	$64, %dl
	jae	.LBB4_84
.Ltmp269:
# %bb.83:
	#DEBUG_VALUE: set_chroma_vector:currMB <- $rdi
	#DEBUG_VALUE: set_chroma_vector:currSlice <- $rax
	#DEBUG_VALUE: set_chroma_vector:p_Vid <- $rcx
	#DEBUG_VALUE: l <- 1
	#DEBUG_VALUE: k <- 0
	.loc	0 0 9                           # ldecod_src/mb_prediction.c:0:9
	xorl	%esi, %esi
	.loc	0 217 9                         # ldecod_src/mb_prediction.c:217:9
	jmp	.LBB4_86
.Ltmp270:
.LBB4_84:                               # %vector.ph382
	#DEBUG_VALUE: set_chroma_vector:currMB <- $rdi
	#DEBUG_VALUE: set_chroma_vector:currSlice <- $rax
	#DEBUG_VALUE: set_chroma_vector:p_Vid <- $rcx
	#DEBUG_VALUE: l <- 1
	#DEBUG_VALUE: k <- 0
	movl	%edx, %esi
	andl	$64, %esi
.Ltmp271:
	.loc	0 219 53 is_stmt 1              # ldecod_src/mb_prediction.c:219:53
	xorps	%xmm0, %xmm0
	movups	%xmm0, 13568(%rax)
	movups	%xmm0, 13584(%rax)
	movups	%xmm0, 13600(%rax)
	movups	%xmm0, 13616(%rax)
.Ltmp272:
	.loc	0 217 9                         # ldecod_src/mb_prediction.c:217:9
	cmpq	%rdx, %rsi
	je	.LBB4_90
.Ltmp273:
# %bb.85:                               # %vec.epilog.iter.check392
	#DEBUG_VALUE: set_chroma_vector:currMB <- $rdi
	#DEBUG_VALUE: set_chroma_vector:currSlice <- $rax
	#DEBUG_VALUE: set_chroma_vector:p_Vid <- $rcx
	#DEBUG_VALUE: l <- 1
	#DEBUG_VALUE: k <- 0
	testb	$56, %dl
	je	.LBB4_89
.Ltmp274:
.LBB4_86:                               # %vec.epilog.ph391
	#DEBUG_VALUE: set_chroma_vector:currMB <- $rdi
	#DEBUG_VALUE: set_chroma_vector:currSlice <- $rax
	#DEBUG_VALUE: set_chroma_vector:p_Vid <- $rcx
	#DEBUG_VALUE: l <- 1
	#DEBUG_VALUE: k <- 0
	.loc	0 0 9 is_stmt 0                 # ldecod_src/mb_prediction.c:0:9
	movq	%rsi, %r8
	.loc	0 217 9                         # ldecod_src/mb_prediction.c:217:9
	movl	%edx, %esi
	andl	$120, %esi
.Ltmp275:
	.p2align	4, 0x90
.LBB4_87:                               # %vec.epilog.vector.body399
                                        # =>This Inner Loop Header: Depth=1
	#DEBUG_VALUE: set_chroma_vector:currMB <- $rdi
	#DEBUG_VALUE: set_chroma_vector:currSlice <- $rax
	#DEBUG_VALUE: set_chroma_vector:p_Vid <- $rcx
	#DEBUG_VALUE: l <- 1
	#DEBUG_VALUE: k <- 0
	.loc	0 219 53 is_stmt 1              # ldecod_src/mb_prediction.c:219:53
	movq	$0, 13568(%rax,%r8)
.Ltmp276:
	.loc	0 217 50                        # ldecod_src/mb_prediction.c:217:50
	addq	$8, %r8
	cmpq	%r8, %rsi
	jne	.LBB4_87
.Ltmp277:
# %bb.88:                               # %vec.epilog.middle.block389
	#DEBUG_VALUE: set_chroma_vector:currMB <- $rdi
	#DEBUG_VALUE: set_chroma_vector:currSlice <- $rax
	#DEBUG_VALUE: set_chroma_vector:p_Vid <- $rcx
	#DEBUG_VALUE: l <- 1
	#DEBUG_VALUE: k <- 0
	.loc	0 217 9 is_stmt 0               # ldecod_src/mb_prediction.c:217:9
	cmpq	%rdx, %rsi
	je	.LBB4_90
.Ltmp278:
	.p2align	4, 0x90
.LBB4_89:                               # %for.body184.1
                                        # =>This Inner Loop Header: Depth=1
	#DEBUG_VALUE: set_chroma_vector:currMB <- $rdi
	#DEBUG_VALUE: set_chroma_vector:currSlice <- $rax
	#DEBUG_VALUE: set_chroma_vector:p_Vid <- $rcx
	#DEBUG_VALUE: l <- 1
	#DEBUG_VALUE: k <- $rsi
	.loc	0 219 53 is_stmt 1              # ldecod_src/mb_prediction.c:219:53
	movb	$0, 13568(%rax,%rsi)
.Ltmp279:
	.loc	0 217 50                        # ldecod_src/mb_prediction.c:217:50
	incq	%rsi
.Ltmp280:
	#DEBUG_VALUE: k <- $rsi
	.loc	0 217 22 is_stmt 0              # ldecod_src/mb_prediction.c:217:22
	cmpq	%rdx, %rsi
.Ltmp281:
	.loc	0 217 9                         # ldecod_src/mb_prediction.c:217:9
	jb	.LBB4_89
	jmp	.LBB4_90
.Ltmp282:
.LBB4_37:                               # %vector.ph409
	#DEBUG_VALUE: set_chroma_vector:currMB <- $rdi
	#DEBUG_VALUE: set_chroma_vector:currSlice <- $rax
	#DEBUG_VALUE: set_chroma_vector:p_Vid <- $rcx
	#DEBUG_VALUE: l <- 0
	#DEBUG_VALUE: k <- 0
	.loc	0 182 9 is_stmt 1               # ldecod_src/mb_prediction.c:182:9
	movl	%edx, %esi
	andl	$64, %esi
.Ltmp283:
	.loc	0 184 53                        # ldecod_src/mb_prediction.c:184:53
	xorps	%xmm0, %xmm0
	movups	%xmm0, 13552(%rax)
	movups	%xmm0, 13568(%rax)
	movups	%xmm0, 13584(%rax)
	movups	%xmm0, 13600(%rax)
.Ltmp284:
	.loc	0 182 9                         # ldecod_src/mb_prediction.c:182:9
	cmpq	%rdx, %rsi
	je	.LBB4_43
.Ltmp285:
# %bb.38:                               # %vec.epilog.iter.check419
	#DEBUG_VALUE: set_chroma_vector:currMB <- $rdi
	#DEBUG_VALUE: set_chroma_vector:currSlice <- $rax
	#DEBUG_VALUE: set_chroma_vector:p_Vid <- $rcx
	#DEBUG_VALUE: l <- 0
	#DEBUG_VALUE: k <- 0
	testb	$56, %dl
	je	.LBB4_42
.Ltmp286:
.LBB4_39:                               # %vec.epilog.ph418
	#DEBUG_VALUE: set_chroma_vector:currMB <- $rdi
	#DEBUG_VALUE: set_chroma_vector:currSlice <- $rax
	#DEBUG_VALUE: set_chroma_vector:p_Vid <- $rcx
	#DEBUG_VALUE: l <- 0
	#DEBUG_VALUE: k <- 0
	.loc	0 0 9 is_stmt 0                 # ldecod_src/mb_prediction.c:0:9
	movq	%rsi, %r8
	.loc	0 182 9                         # ldecod_src/mb_prediction.c:182:9
	movl	%edx, %esi
	andl	$120, %esi
.Ltmp287:
	.p2align	4, 0x90
.LBB4_40:                               # %vec.epilog.vector.body426
                                        # =>This Inner Loop Header: Depth=1
	#DEBUG_VALUE: set_chroma_vector:currMB <- $rdi
	#DEBUG_VALUE: set_chroma_vector:currSlice <- $rax
	#DEBUG_VALUE: set_chroma_vector:p_Vid <- $rcx
	#DEBUG_VALUE: l <- 0
	#DEBUG_VALUE: k <- 0
	.loc	0 184 53 is_stmt 1              # ldecod_src/mb_prediction.c:184:53
	movq	$0, 13552(%rax,%r8)
.Ltmp288:
	.loc	0 182 50                        # ldecod_src/mb_prediction.c:182:50
	addq	$8, %r8
	cmpq	%r8, %rsi
	jne	.LBB4_40
.Ltmp289:
# %bb.41:                               # %vec.epilog.middle.block416
	#DEBUG_VALUE: set_chroma_vector:currMB <- $rdi
	#DEBUG_VALUE: set_chroma_vector:currSlice <- $rax
	#DEBUG_VALUE: set_chroma_vector:p_Vid <- $rcx
	#DEBUG_VALUE: l <- 0
	#DEBUG_VALUE: k <- 0
	.loc	0 182 9 is_stmt 0               # ldecod_src/mb_prediction.c:182:9
	cmpq	%rdx, %rsi
	je	.LBB4_43
.Ltmp290:
	.p2align	4, 0x90
.LBB4_42:                               # %for.body90
                                        # =>This Inner Loop Header: Depth=1
	#DEBUG_VALUE: set_chroma_vector:currMB <- $rdi
	#DEBUG_VALUE: set_chroma_vector:currSlice <- $rax
	#DEBUG_VALUE: set_chroma_vector:p_Vid <- $rcx
	#DEBUG_VALUE: l <- 0
	#DEBUG_VALUE: k <- $rsi
	.loc	0 184 53 is_stmt 1              # ldecod_src/mb_prediction.c:184:53
	movb	$0, 13552(%rax,%rsi)
.Ltmp291:
	.loc	0 182 50                        # ldecod_src/mb_prediction.c:182:50
	incq	%rsi
.Ltmp292:
	#DEBUG_VALUE: k <- $rsi
	.loc	0 182 22 is_stmt 0              # ldecod_src/mb_prediction.c:182:22
	cmpq	%rdx, %rsi
.Ltmp293:
	.loc	0 182 9                         # ldecod_src/mb_prediction.c:182:9
	jb	.LBB4_42
.Ltmp294:
.LBB4_43:                               # %for.inc99
	#DEBUG_VALUE: set_chroma_vector:currMB <- $rdi
	#DEBUG_VALUE: set_chroma_vector:currSlice <- $rax
	#DEBUG_VALUE: set_chroma_vector:p_Vid <- $rcx
	#DEBUG_VALUE: l <- 0
	#DEBUG_VALUE: l <- 1
	#DEBUG_VALUE: k <- 0
	.loc	0 182 24                        # ldecod_src/mb_prediction.c:182:24
	movsbq	257(%rax), %rdx
	testq	%rdx, %rdx
.Ltmp295:
	.loc	0 182 9                         # ldecod_src/mb_prediction.c:182:9
	jle	.LBB4_90
.Ltmp296:
# %bb.44:                               # %iter.check433
	#DEBUG_VALUE: set_chroma_vector:currMB <- $rdi
	#DEBUG_VALUE: set_chroma_vector:currSlice <- $rax
	#DEBUG_VALUE: set_chroma_vector:p_Vid <- $rcx
	#DEBUG_VALUE: l <- 1
	#DEBUG_VALUE: k <- 0
	cmpb	$8, %dl
	jae	.LBB4_46
.Ltmp297:
# %bb.45:
	#DEBUG_VALUE: set_chroma_vector:currMB <- $rdi
	#DEBUG_VALUE: set_chroma_vector:currSlice <- $rax
	#DEBUG_VALUE: set_chroma_vector:p_Vid <- $rcx
	#DEBUG_VALUE: l <- 1
	#DEBUG_VALUE: k <- 0
	.loc	0 0 9                           # ldecod_src/mb_prediction.c:0:9
	xorl	%esi, %esi
	.loc	0 182 9                         # ldecod_src/mb_prediction.c:182:9
	jmp	.LBB4_53
.Ltmp298:
.LBB4_46:                               # %vector.main.loop.iter.check435
	#DEBUG_VALUE: set_chroma_vector:currMB <- $rdi
	#DEBUG_VALUE: set_chroma_vector:currSlice <- $rax
	#DEBUG_VALUE: set_chroma_vector:p_Vid <- $rcx
	#DEBUG_VALUE: l <- 1
	#DEBUG_VALUE: k <- 0
	cmpb	$64, %dl
	jae	.LBB4_48
.Ltmp299:
# %bb.47:
	#DEBUG_VALUE: set_chroma_vector:currMB <- $rdi
	#DEBUG_VALUE: set_chroma_vector:currSlice <- $rax
	#DEBUG_VALUE: set_chroma_vector:p_Vid <- $rcx
	#DEBUG_VALUE: l <- 1
	#DEBUG_VALUE: k <- 0
	.loc	0 0 9                           # ldecod_src/mb_prediction.c:0:9
	xorl	%esi, %esi
	.loc	0 182 9                         # ldecod_src/mb_prediction.c:182:9
	jmp	.LBB4_50
.Ltmp300:
.LBB4_48:                               # %vector.ph436
	#DEBUG_VALUE: set_chroma_vector:currMB <- $rdi
	#DEBUG_VALUE: set_chroma_vector:currSlice <- $rax
	#DEBUG_VALUE: set_chroma_vector:p_Vid <- $rcx
	#DEBUG_VALUE: l <- 1
	#DEBUG_VALUE: k <- 0
	movl	%edx, %esi
	andl	$64, %esi
.Ltmp301:
	.loc	0 184 53 is_stmt 1              # ldecod_src/mb_prediction.c:184:53
	xorps	%xmm0, %xmm0
	movups	%xmm0, 13568(%rax)
	movups	%xmm0, 13584(%rax)
	movups	%xmm0, 13600(%rax)
	movups	%xmm0, 13616(%rax)
.Ltmp302:
	.loc	0 182 9                         # ldecod_src/mb_prediction.c:182:9
	cmpq	%rdx, %rsi
	je	.LBB4_90
.Ltmp303:
# %bb.49:                               # %vec.epilog.iter.check446
	#DEBUG_VALUE: set_chroma_vector:currMB <- $rdi
	#DEBUG_VALUE: set_chroma_vector:currSlice <- $rax
	#DEBUG_VALUE: set_chroma_vector:p_Vid <- $rcx
	#DEBUG_VALUE: l <- 1
	#DEBUG_VALUE: k <- 0
	testb	$56, %dl
	je	.LBB4_53
.Ltmp304:
.LBB4_50:                               # %vec.epilog.ph445
	#DEBUG_VALUE: set_chroma_vector:currMB <- $rdi
	#DEBUG_VALUE: set_chroma_vector:currSlice <- $rax
	#DEBUG_VALUE: set_chroma_vector:p_Vid <- $rcx
	#DEBUG_VALUE: l <- 1
	#DEBUG_VALUE: k <- 0
	.loc	0 0 9 is_stmt 0                 # ldecod_src/mb_prediction.c:0:9
	movq	%rsi, %r8
	.loc	0 182 9                         # ldecod_src/mb_prediction.c:182:9
	movl	%edx, %esi
	andl	$120, %esi
.Ltmp305:
	.p2align	4, 0x90
.LBB4_51:                               # %vec.epilog.vector.body453
                                        # =>This Inner Loop Header: Depth=1
	#DEBUG_VALUE: set_chroma_vector:currMB <- $rdi
	#DEBUG_VALUE: set_chroma_vector:currSlice <- $rax
	#DEBUG_VALUE: set_chroma_vector:p_Vid <- $rcx
	#DEBUG_VALUE: l <- 1
	#DEBUG_VALUE: k <- 0
	.loc	0 184 53 is_stmt 1              # ldecod_src/mb_prediction.c:184:53
	movq	$0, 13568(%rax,%r8)
.Ltmp306:
	.loc	0 182 50                        # ldecod_src/mb_prediction.c:182:50
	addq	$8, %r8
	cmpq	%r8, %rsi
	jne	.LBB4_51
.Ltmp307:
# %bb.52:                               # %vec.epilog.middle.block443
	#DEBUG_VALUE: set_chroma_vector:currMB <- $rdi
	#DEBUG_VALUE: set_chroma_vector:currSlice <- $rax
	#DEBUG_VALUE: set_chroma_vector:p_Vid <- $rcx
	#DEBUG_VALUE: l <- 1
	#DEBUG_VALUE: k <- 0
	.loc	0 182 9 is_stmt 0               # ldecod_src/mb_prediction.c:182:9
	cmpq	%rdx, %rsi
	je	.LBB4_90
.Ltmp308:
	.p2align	4, 0x90
.LBB4_53:                               # %for.body90.1
                                        # =>This Inner Loop Header: Depth=1
	#DEBUG_VALUE: set_chroma_vector:currMB <- $rdi
	#DEBUG_VALUE: set_chroma_vector:currSlice <- $rax
	#DEBUG_VALUE: set_chroma_vector:p_Vid <- $rcx
	#DEBUG_VALUE: l <- 1
	#DEBUG_VALUE: k <- $rsi
	.loc	0 184 53 is_stmt 1              # ldecod_src/mb_prediction.c:184:53
	movb	$0, 13568(%rax,%rsi)
.Ltmp309:
	.loc	0 182 50                        # ldecod_src/mb_prediction.c:182:50
	incq	%rsi
.Ltmp310:
	#DEBUG_VALUE: k <- $rsi
	.loc	0 182 22 is_stmt 0              # ldecod_src/mb_prediction.c:182:22
	cmpq	%rdx, %rsi
.Ltmp311:
	.loc	0 182 9                         # ldecod_src/mb_prediction.c:182:9
	jb	.LBB4_53
.Ltmp312:
.LBB4_90:                               # %if.end197
	#DEBUG_VALUE: set_chroma_vector:currMB <- $rdi
	#DEBUG_VALUE: set_chroma_vector:currSlice <- $rax
	#DEBUG_VALUE: set_chroma_vector:p_Vid <- $rcx
	.loc	0 225 51 is_stmt 1              # ldecod_src/mb_prediction.c:225:51
	cmpl	$0, 184(%rax)
	.loc	0 225 60 is_stmt 0              # ldecod_src/mb_prediction.c:225:60
	jne	.LBB4_92
.Ltmp313:
# %bb.91:                               # %lor.lhs.false
	#DEBUG_VALUE: set_chroma_vector:currMB <- $rdi
	#DEBUG_VALUE: set_chroma_vector:currSlice <- $rax
	#DEBUG_VALUE: set_chroma_vector:p_Vid <- $rcx
	.loc	0 225 63                        # ldecod_src/mb_prediction.c:225:63
	cmpl	$0, 384(%rdi)
	.loc	0 225 29                        # ldecod_src/mb_prediction.c:225:29
	je	.LBB4_93
.Ltmp314:
.LBB4_92:                               # %cond.true
	#DEBUG_VALUE: set_chroma_vector:currMB <- $rdi
	#DEBUG_VALUE: set_chroma_vector:currSlice <- $rax
	#DEBUG_VALUE: set_chroma_vector:p_Vid <- $rcx
	.loc	0 225 94                        # ldecod_src/mb_prediction.c:225:94
	movl	849216(%rcx), %ecx
.Ltmp315:
	.loc	0 225 104                       # ldecod_src/mb_prediction.c:225:104
	sarl	%ecx
	.loc	0 225 27                        # ldecod_src/mb_prediction.c:225:27
	movl	%ecx, 13336(%rax)
	.loc	0 226 1 is_stmt 1               # ldecod_src/mb_prediction.c:226:1
	retq
.Ltmp316:
.LBB4_93:                               # %cond.false
	#DEBUG_VALUE: set_chroma_vector:currMB <- $rdi
	#DEBUG_VALUE: set_chroma_vector:currSlice <- $rax
	#DEBUG_VALUE: set_chroma_vector:p_Vid <- $rcx
	.loc	0 225 118                       # ldecod_src/mb_prediction.c:225:118
	movl	849216(%rcx), %ecx
.Ltmp317:
	.loc	0 225 27 is_stmt 0              # ldecod_src/mb_prediction.c:225:27
	movl	%ecx, 13336(%rax)
	.loc	0 226 1 is_stmt 1               # ldecod_src/mb_prediction.c:226:1
	retq
.Ltmp318:
.Lfunc_end4:
	.size	set_chroma_vector, .Lfunc_end4-set_chroma_vector
	.cfi_endproc
                                        # -- End function
	.globl	mb_pred_sp_skip                 # -- Begin function mb_pred_sp_skip
	.p2align	4, 0x90
	.type	mb_pred_sp_skip,@function
mb_pred_sp_skip:                        # @mb_pred_sp_skip
.Lfunc_begin5:
	.loc	0 249 0                         # ldecod_src/mb_prediction.c:249:0
	.cfi_startproc
# %bb.0:                                # %entry
	#DEBUG_VALUE: mb_pred_sp_skip:currMB <- $rdi
	#DEBUG_VALUE: mb_pred_sp_skip:curr_plane <- $esi
	#DEBUG_VALUE: mb_pred_sp_skip:dec_picture <- $rdx
	pushq	%rbp
	.cfi_def_cfa_offset 16
	pushq	%r14
	.cfi_def_cfa_offset 24
	pushq	%rbx
	.cfi_def_cfa_offset 32
	.cfi_offset %rbx, -32
	.cfi_offset %r14, -24
	.cfi_offset %rbp, -16
	movq	%rdx, %rbx
	movl	%esi, %ebp
	movq	%rdi, %r14
.Ltmp319:
	.loc	0 250 3 prologue_end            # ldecod_src/mb_prediction.c:250:3
	callq	set_chroma_vector
.Ltmp320:
	#DEBUG_VALUE: mb_pred_sp_skip:dec_picture <- $rbx
	#DEBUG_VALUE: mb_pred_sp_skip:curr_plane <- $ebp
	#DEBUG_VALUE: mb_pred_sp_skip:currMB <- $r14
	.loc	0 252 3                         # ldecod_src/mb_prediction.c:252:3
	movq	%r14, %rdi
	movl	%ebp, %esi
	movq	%rbx, %rdx
	xorl	%ecx, %ecx
	xorl	%r8d, %r8d
	xorl	%r9d, %r9d
	pushq	$16
	.cfi_adjust_cfa_offset 8
	pushq	$16
	.cfi_adjust_cfa_offset 8
	callq	perform_mc@PLT
.Ltmp321:
	addq	$16, %rsp
	.cfi_adjust_cfa_offset -16
	.loc	0 253 3                         # ldecod_src/mb_prediction.c:253:3
	movq	%r14, %rdi
	movl	%ebp, %esi
	movl	$1, %edx
	callq	iTransform@PLT
.Ltmp322:
	.loc	0 254 3                         # ldecod_src/mb_prediction.c:254:3
	movl	$1, %eax
	.loc	0 254 3 epilogue_begin is_stmt 0 # ldecod_src/mb_prediction.c:254:3
	popq	%rbx
.Ltmp323:
	#DEBUG_VALUE: mb_pred_sp_skip:dec_picture <- [DW_OP_LLVM_entry_value 1] $rdx
	.cfi_def_cfa_offset 24
	popq	%r14
.Ltmp324:
	#DEBUG_VALUE: mb_pred_sp_skip:currMB <- [DW_OP_LLVM_entry_value 1] $rdi
	.cfi_def_cfa_offset 16
	popq	%rbp
.Ltmp325:
	#DEBUG_VALUE: mb_pred_sp_skip:curr_plane <- [DW_OP_LLVM_entry_value 1] $esi
	.cfi_def_cfa_offset 8
	retq
.Ltmp326:
.Lfunc_end5:
	.size	mb_pred_sp_skip, .Lfunc_end5-mb_pred_sp_skip
	.cfi_endproc
                                        # -- End function
	.globl	mb_pred_p_inter8x8              # -- Begin function mb_pred_p_inter8x8
	.p2align	4, 0x90
	.type	mb_pred_p_inter8x8,@function
mb_pred_p_inter8x8:                     # @mb_pred_p_inter8x8
.Lfunc_begin6:
	.loc	0 258 0 is_stmt 1               # ldecod_src/mb_prediction.c:258:0
	.cfi_startproc
# %bb.0:                                # %entry
	#DEBUG_VALUE: mb_pred_p_inter8x8:currMB <- $rdi
	#DEBUG_VALUE: mb_pred_p_inter8x8:curr_plane <- $esi
	#DEBUG_VALUE: mb_pred_p_inter8x8:dec_picture <- $rdx
	pushq	%rbp
	.cfi_def_cfa_offset 16
	pushq	%r15
	.cfi_def_cfa_offset 24
	pushq	%r14
	.cfi_def_cfa_offset 32
	pushq	%r13
	.cfi_def_cfa_offset 40
	pushq	%r12
	.cfi_def_cfa_offset 48
	pushq	%rbx
	.cfi_def_cfa_offset 56
	subq	$56, %rsp
	.cfi_def_cfa_offset 112
	.cfi_offset %rbx, -56
	.cfi_offset %r12, -48
	.cfi_offset %r13, -40
	.cfi_offset %r14, -32
	.cfi_offset %r15, -24
	.cfi_offset %rbp, -16
	movq	%rdx, %rbp
	movl	%esi, 28(%rsp)                  # 4-byte Spill
.Ltmp327:
	#DEBUG_VALUE: mb_pred_p_inter8x8:curr_plane <- [DW_OP_plus_uconst 28] [$rsp+0]
	movq	%rdi, %rbx
.Ltmp328:
	#DEBUG_VALUE: mb_pred_p_inter8x8:i <- 0
	#DEBUG_VALUE: mb_pred_p_inter8x8:j <- 0
	#DEBUG_VALUE: mb_pred_p_inter8x8:currSlice <- undef
	.loc	0 263 36 prologue_end           # ldecod_src/mb_prediction.c:263:36
	movq	8(%rdi), %rax
.Ltmp329:
	#DEBUG_VALUE: mb_pred_p_inter8x8:p_Vid <- $rax
	.loc	0 0 36 is_stmt 0                # ldecod_src/mb_prediction.c:0:36
	xorl	%ecx, %ecx
	.loc	0 264 25 is_stmt 1              # ldecod_src/mb_prediction.c:264:25
	cmpl	$3, 848776(%rax)
	.loc	0 264 37 is_stmt 0              # ldecod_src/mb_prediction.c:264:37
	jne	.LBB6_2
.Ltmp330:
# %bb.1:                                # %land.rhs
	#DEBUG_VALUE: mb_pred_p_inter8x8:currMB <- $rbx
	#DEBUG_VALUE: mb_pred_p_inter8x8:curr_plane <- [DW_OP_plus_uconst 28] [$rsp+0]
	#DEBUG_VALUE: mb_pred_p_inter8x8:dec_picture <- $rbp
	#DEBUG_VALUE: mb_pred_p_inter8x8:i <- 0
	#DEBUG_VALUE: mb_pred_p_inter8x8:j <- 0
	#DEBUG_VALUE: mb_pred_p_inter8x8:p_Vid <- $rax
	.loc	0 264 64                        # ldecod_src/mb_prediction.c:264:64
	xorl	%ecx, %ecx
	cmpl	$0, 96(%rbx)
	sete	%cl
.Ltmp331:
.LBB6_2:                                # %land.end
	#DEBUG_VALUE: mb_pred_p_inter8x8:currMB <- $rbx
	#DEBUG_VALUE: mb_pred_p_inter8x8:curr_plane <- [DW_OP_plus_uconst 28] [$rsp+0]
	#DEBUG_VALUE: mb_pred_p_inter8x8:dec_picture <- $rbp
	#DEBUG_VALUE: mb_pred_p_inter8x8:i <- 0
	#DEBUG_VALUE: mb_pred_p_inter8x8:j <- 0
	#DEBUG_VALUE: mb_pred_p_inter8x8:p_Vid <- $rax
	.loc	0 0 64                          # ldecod_src/mb_prediction.c:0:64
	movl	%ecx, 44(%rsp)                  # 4-byte Spill
	movq	(%rbx), %rax
.Ltmp332:
	#DEBUG_VALUE: mb_pred_p_inter8x8:currSlice <- $rax
	#DEBUG_VALUE: mb_pred_p_inter8x8:smb <- [DW_OP_plus_uconst 44, DW_OP_deref] $rsp
	movq	%rax, 48(%rsp)                  # 8-byte Spill
	.loc	0 266 3 is_stmt 1               # ldecod_src/mb_prediction.c:266:3
	movq	%rbx, %rdi
	callq	set_chroma_vector
.Ltmp333:
	#DEBUG_VALUE: mb_pred_p_inter8x8:block8x8 <- 0
	#DEBUG_VALUE: mb_pred_p_inter8x8:block8x8 <- 0
	.loc	0 270 20                        # ldecod_src/mb_prediction.c:270:20
	movzbl	364(%rbx), %eax
.Ltmp334:
	#DEBUG_VALUE: mv_mode <- [DW_OP_LLVM_convert 8 5, DW_OP_LLVM_convert 32 5, DW_OP_stack_value] $al
	.loc	0 0 20 is_stmt 0                # ldecod_src/mb_prediction.c:0:20
	movq	%rbx, 32(%rsp)                  # 8-byte Spill
.Ltmp335:
	#DEBUG_VALUE: mb_pred_p_inter8x8:currMB <- [DW_OP_plus_uconst 32] [$rsp+0]
	.loc	0 271 20 is_stmt 1              # ldecod_src/mb_prediction.c:271:20
	movsbl	368(%rbx), %ecx
.Ltmp336:
	#DEBUG_VALUE: k_start <- 0
	#DEBUG_VALUE: pred_dir <- $ecx
	.loc	0 0 20 is_stmt 0                # ldecod_src/mb_prediction.c:0:20
	movl	%ecx, 12(%rsp)                  # 4-byte Spill
.Ltmp337:
	#DEBUG_VALUE: pred_dir <- [DW_OP_plus_uconst 12, DW_OP_deref] $rsp
	.loc	0 274 26 is_stmt 1              # ldecod_src/mb_prediction.c:274:26
	xorl	%ecx, %ecx
	cmpb	$5, %al
	sete	%cl
	.loc	0 274 17 is_stmt 0              # ldecod_src/mb_prediction.c:274:17
	leal	1(%rcx), %edx
.Ltmp338:
	#DEBUG_VALUE: k_inc <- $edx
	.loc	0 0 17                          # ldecod_src/mb_prediction.c:0:17
	movq	%rdx, 16(%rsp)                  # 8-byte Spill
.Ltmp339:
	#DEBUG_VALUE: k_inc <- [DW_OP_plus_uconst 16, DW_OP_deref] $rsp
	.loc	0 275 17 is_stmt 1              # ldecod_src/mb_prediction.c:275:17
	orl	$2, %ecx
	cmpb	$7, %al
	movl	$4, %edx
	cmovnel	%ecx, %edx
	.loc	0 275 26 is_stmt 0              # ldecod_src/mb_prediction.c:275:26
	xorl	%ecx, %ecx
	cmpb	$4, %al
	sete	%cl
	movl	$1, %r15d
	.loc	0 275 17                        # ldecod_src/mb_prediction.c:275:17
	cmovnel	%edx, %r15d
.Ltmp340:
	#DEBUG_VALUE: k_end <- $r15d
	.loc	0 277 44 is_stmt 1              # ldecod_src/mb_prediction.c:277:44
	movl	%eax, %edx
	andb	$-2, %dl
	xorl	%esi, %esi
	cmpb	$4, %dl
	sete	%sil
	.loc	0 277 24 is_stmt 0              # ldecod_src/mb_prediction.c:277:24
	leal	4(,%rsi,4), %r12d
.Ltmp341:
	#DEBUG_VALUE: block_size_x <- $r12d
	.loc	0 278 34 is_stmt 1              # ldecod_src/mb_prediction.c:278:34
	cmpb	$6, %al
	.loc	0 278 24 is_stmt 0              # ldecod_src/mb_prediction.c:278:24
	leal	4(,%rcx,4), %eax
.Ltmp342:
	.loc	0 0 24                          # ldecod_src/mb_prediction.c:0:24
	movl	$8, %r13d
	.loc	0 278 24                        # ldecod_src/mb_prediction.c:278:24
	cmovnel	%eax, %r13d
.Ltmp343:
	#DEBUG_VALUE: block_size_y <- $r13d
	#DEBUG_VALUE: mb_pred_p_inter8x8:k <- 0
	.loc	0 0 24                          # ldecod_src/mb_prediction.c:0:24
	xorl	%r14d, %r14d
	movl	28(%rsp), %esi                  # 4-byte Reload
.Ltmp344:
	.p2align	4, 0x90
.LBB6_3:                                # %for.body36
                                        # =>This Inner Loop Header: Depth=1
	#DEBUG_VALUE: mb_pred_p_inter8x8:currMB <- [DW_OP_plus_uconst 32] [$rsp+0]
	#DEBUG_VALUE: mb_pred_p_inter8x8:curr_plane <- [DW_OP_plus_uconst 28] [$rsp+0]
	#DEBUG_VALUE: mb_pred_p_inter8x8:dec_picture <- $rbp
	#DEBUG_VALUE: mb_pred_p_inter8x8:currSlice <- [DW_OP_plus_uconst 48, DW_OP_deref] $rsp
	#DEBUG_VALUE: mb_pred_p_inter8x8:smb <- [DW_OP_plus_uconst 44, DW_OP_deref] $rsp
	#DEBUG_VALUE: mb_pred_p_inter8x8:block8x8 <- 0
	#DEBUG_VALUE: k_start <- 0
	#DEBUG_VALUE: pred_dir <- [DW_OP_plus_uconst 12, DW_OP_deref] $rsp
	#DEBUG_VALUE: k_inc <- [DW_OP_plus_uconst 16, DW_OP_deref] $rsp
	#DEBUG_VALUE: k_end <- $r15d
	#DEBUG_VALUE: block_size_x <- $r12d
	#DEBUG_VALUE: block_size_y <- $r13d
	#DEBUG_VALUE: mb_pred_p_inter8x8:k <- $r14
	.loc	0 282 13 is_stmt 1              # ldecod_src/mb_prediction.c:282:13
	movzbl	decode_block_scan(%r14), %r9d
	.loc	0 282 34 is_stmt 0              # ldecod_src/mb_prediction.c:282:34
	movl	%r9d, %r8d
	andl	$3, %r8d
.Ltmp345:
	#DEBUG_VALUE: mb_pred_p_inter8x8:i <- $r8d
	.loc	0 283 34 is_stmt 1              # ldecod_src/mb_prediction.c:283:34
	shrl	$2, %r9d
	.loc	0 283 40 is_stmt 0              # ldecod_src/mb_prediction.c:283:40
	andl	$3, %r9d
.Ltmp346:
	#DEBUG_VALUE: mb_pred_p_inter8x8:j <- $r9d
	.loc	0 0 40                          # ldecod_src/mb_prediction.c:0:40
	movq	32(%rsp), %rdi                  # 8-byte Reload
	.loc	0 284 7 is_stmt 1               # ldecod_src/mb_prediction.c:284:7
	movq	%rbp, %rdx
	movl	12(%rsp), %ecx                  # 4-byte Reload
	pushq	%r13
.Ltmp347:
	.cfi_adjust_cfa_offset 8
	pushq	%r12
	.cfi_adjust_cfa_offset 8
	movl	%esi, %ebx
	callq	perform_mc@PLT
.Ltmp348:
	.loc	0 0 7 is_stmt 0                 # ldecod_src/mb_prediction.c:0:7
	movl	%ebx, %esi
	.loc	0 284 7                         # ldecod_src/mb_prediction.c:284:7
	addq	$16, %rsp
.Ltmp349:
	.cfi_adjust_cfa_offset -16
	.loc	0 280 36 is_stmt 1              # ldecod_src/mb_prediction.c:280:36
	addq	16(%rsp), %r14                  # 8-byte Folded Reload
.Ltmp350:
	#DEBUG_VALUE: mb_pred_p_inter8x8:k <- $r14
	.loc	0 280 25 is_stmt 0              # ldecod_src/mb_prediction.c:280:25
	cmpl	%r14d, %r15d
.Ltmp351:
	.loc	0 280 5                         # ldecod_src/mb_prediction.c:280:5
	jg	.LBB6_3
.Ltmp352:
# %bb.4:                                # %for.end
	#DEBUG_VALUE: mb_pred_p_inter8x8:currMB <- [DW_OP_plus_uconst 32] [$rsp+0]
	#DEBUG_VALUE: mb_pred_p_inter8x8:curr_plane <- [DW_OP_plus_uconst 28] [$rsp+0]
	#DEBUG_VALUE: mb_pred_p_inter8x8:dec_picture <- $rbp
	#DEBUG_VALUE: mb_pred_p_inter8x8:currSlice <- [DW_OP_plus_uconst 48, DW_OP_deref] $rsp
	#DEBUG_VALUE: mb_pred_p_inter8x8:smb <- [DW_OP_plus_uconst 44, DW_OP_deref] $rsp
	#DEBUG_VALUE: mb_pred_p_inter8x8:block8x8 <- 0
	#DEBUG_VALUE: k_start <- 0
	#DEBUG_VALUE: pred_dir <- [DW_OP_plus_uconst 12, DW_OP_deref] $rsp
	#DEBUG_VALUE: k_inc <- [DW_OP_plus_uconst 16, DW_OP_deref] $rsp
	#DEBUG_VALUE: k_end <- $r15d
	#DEBUG_VALUE: block_size_x <- $r12d
	#DEBUG_VALUE: block_size_y <- $r13d
	#DEBUG_VALUE: mb_pred_p_inter8x8:k <- $r14
	#DEBUG_VALUE: mb_pred_p_inter8x8:block8x8 <- 1
	.loc	0 0 5                           # ldecod_src/mb_prediction.c:0:5
	movq	32(%rsp), %rcx                  # 8-byte Reload
	.loc	0 270 20 is_stmt 1              # ldecod_src/mb_prediction.c:270:20
	movzbl	365(%rcx), %eax
.Ltmp353:
	#DEBUG_VALUE: mv_mode <- [DW_OP_LLVM_convert 8 5, DW_OP_LLVM_convert 32 5, DW_OP_stack_value] $al
	.loc	0 271 20                        # ldecod_src/mb_prediction.c:271:20
	movsbl	369(%rcx), %ecx
.Ltmp354:
	#DEBUG_VALUE: k_start <- 4
	#DEBUG_VALUE: pred_dir <- $ecx
	.loc	0 0 20 is_stmt 0                # ldecod_src/mb_prediction.c:0:20
	movl	%ecx, 12(%rsp)                  # 4-byte Spill
.Ltmp355:
	#DEBUG_VALUE: pred_dir <- [DW_OP_plus_uconst 12, DW_OP_deref] $rsp
	.loc	0 274 26 is_stmt 1              # ldecod_src/mb_prediction.c:274:26
	xorl	%ecx, %ecx
	cmpb	$5, %al
	sete	%cl
	.loc	0 274 17 is_stmt 0              # ldecod_src/mb_prediction.c:274:17
	leal	1(%rcx), %edx
.Ltmp356:
	#DEBUG_VALUE: k_inc <- $edx
	.loc	0 0 17                          # ldecod_src/mb_prediction.c:0:17
	movq	%rdx, 16(%rsp)                  # 8-byte Spill
.Ltmp357:
	#DEBUG_VALUE: k_inc <- [DW_OP_plus_uconst 16, DW_OP_deref] $rsp
	.loc	0 275 17 is_stmt 1              # ldecod_src/mb_prediction.c:275:17
	orl	$6, %ecx
	cmpb	$7, %al
	movl	$8, %edx
	cmovel	%edx, %ecx
	.loc	0 275 26 is_stmt 0              # ldecod_src/mb_prediction.c:275:26
	xorl	%r8d, %r8d
	cmpb	$4, %al
	movl	$5, %r15d
.Ltmp358:
	.loc	0 275 17                        # ldecod_src/mb_prediction.c:275:17
	cmovnel	%ecx, %r15d
.Ltmp359:
	#DEBUG_VALUE: k_end <- $r15d
	.loc	0 275 26                        # ldecod_src/mb_prediction.c:275:26
	sete	%r8b
	.loc	0 277 44 is_stmt 1              # ldecod_src/mb_prediction.c:277:44
	movl	%eax, %ecx
	andb	$-2, %cl
	xorl	%edi, %edi
	cmpb	$4, %cl
	sete	%dil
	.loc	0 277 24 is_stmt 0              # ldecod_src/mb_prediction.c:277:24
	leal	4(,%rdi,4), %r12d
.Ltmp360:
	#DEBUG_VALUE: block_size_x <- $r12d
	.loc	0 278 34 is_stmt 1              # ldecod_src/mb_prediction.c:278:34
	cmpb	$6, %al
	.loc	0 278 24 is_stmt 0              # ldecod_src/mb_prediction.c:278:24
	leal	4(,%r8,4), %r13d
.Ltmp361:
	cmovel	%edx, %r13d
.Ltmp362:
	#DEBUG_VALUE: block_size_y <- $r13d
	#DEBUG_VALUE: mb_pred_p_inter8x8:k <- 4
	.loc	0 0 24                          # ldecod_src/mb_prediction.c:0:24
	movl	$4, %r14d
.Ltmp363:
	.p2align	4, 0x90
.LBB6_5:                                # %for.body36.1
                                        # =>This Inner Loop Header: Depth=1
	#DEBUG_VALUE: mb_pred_p_inter8x8:currMB <- [DW_OP_plus_uconst 32] [$rsp+0]
	#DEBUG_VALUE: mb_pred_p_inter8x8:curr_plane <- [DW_OP_plus_uconst 28] [$rsp+0]
	#DEBUG_VALUE: mb_pred_p_inter8x8:dec_picture <- $rbp
	#DEBUG_VALUE: mb_pred_p_inter8x8:currSlice <- [DW_OP_plus_uconst 48, DW_OP_deref] $rsp
	#DEBUG_VALUE: mb_pred_p_inter8x8:smb <- [DW_OP_plus_uconst 44, DW_OP_deref] $rsp
	#DEBUG_VALUE: mb_pred_p_inter8x8:block8x8 <- 1
	#DEBUG_VALUE: k_start <- 4
	#DEBUG_VALUE: pred_dir <- [DW_OP_plus_uconst 12, DW_OP_deref] $rsp
	#DEBUG_VALUE: k_inc <- [DW_OP_plus_uconst 16, DW_OP_deref] $rsp
	#DEBUG_VALUE: k_end <- $r15d
	#DEBUG_VALUE: block_size_x <- $r12d
	#DEBUG_VALUE: block_size_y <- $r13d
	#DEBUG_VALUE: mb_pred_p_inter8x8:k <- $r14
	.loc	0 282 13 is_stmt 1              # ldecod_src/mb_prediction.c:282:13
	movzbl	decode_block_scan(%r14), %r9d
	.loc	0 282 34 is_stmt 0              # ldecod_src/mb_prediction.c:282:34
	movl	%r9d, %r8d
	andl	$3, %r8d
.Ltmp364:
	#DEBUG_VALUE: mb_pred_p_inter8x8:i <- $r8d
	.loc	0 283 34 is_stmt 1              # ldecod_src/mb_prediction.c:283:34
	shrl	$2, %r9d
	.loc	0 283 40 is_stmt 0              # ldecod_src/mb_prediction.c:283:40
	andl	$3, %r9d
.Ltmp365:
	#DEBUG_VALUE: mb_pred_p_inter8x8:j <- $r9d
	.loc	0 0 40                          # ldecod_src/mb_prediction.c:0:40
	movq	32(%rsp), %rdi                  # 8-byte Reload
	.loc	0 284 7 is_stmt 1               # ldecod_src/mb_prediction.c:284:7
	movq	%rbp, %rdx
	movl	12(%rsp), %ecx                  # 4-byte Reload
	pushq	%r13
.Ltmp366:
	.cfi_adjust_cfa_offset 8
	pushq	%r12
	.cfi_adjust_cfa_offset 8
	callq	perform_mc@PLT
.Ltmp367:
	.loc	0 0 7 is_stmt 0                 # ldecod_src/mb_prediction.c:0:7
	movl	%ebx, %esi
	.loc	0 284 7                         # ldecod_src/mb_prediction.c:284:7
	addq	$16, %rsp
.Ltmp368:
	.cfi_adjust_cfa_offset -16
	.loc	0 280 36 is_stmt 1              # ldecod_src/mb_prediction.c:280:36
	addq	16(%rsp), %r14                  # 8-byte Folded Reload
.Ltmp369:
	#DEBUG_VALUE: mb_pred_p_inter8x8:k <- $r14
	.loc	0 280 25 is_stmt 0              # ldecod_src/mb_prediction.c:280:25
	cmpl	%r14d, %r15d
.Ltmp370:
	.loc	0 280 5                         # ldecod_src/mb_prediction.c:280:5
	jg	.LBB6_5
.Ltmp371:
# %bb.6:                                # %for.end.1
	#DEBUG_VALUE: mb_pred_p_inter8x8:currMB <- [DW_OP_plus_uconst 32] [$rsp+0]
	#DEBUG_VALUE: mb_pred_p_inter8x8:curr_plane <- [DW_OP_plus_uconst 28] [$rsp+0]
	#DEBUG_VALUE: mb_pred_p_inter8x8:dec_picture <- $rbp
	#DEBUG_VALUE: mb_pred_p_inter8x8:currSlice <- [DW_OP_plus_uconst 48, DW_OP_deref] $rsp
	#DEBUG_VALUE: mb_pred_p_inter8x8:smb <- [DW_OP_plus_uconst 44, DW_OP_deref] $rsp
	#DEBUG_VALUE: mb_pred_p_inter8x8:block8x8 <- 1
	#DEBUG_VALUE: k_start <- 4
	#DEBUG_VALUE: pred_dir <- [DW_OP_plus_uconst 12, DW_OP_deref] $rsp
	#DEBUG_VALUE: k_inc <- [DW_OP_plus_uconst 16, DW_OP_deref] $rsp
	#DEBUG_VALUE: k_end <- $r15d
	#DEBUG_VALUE: block_size_x <- $r12d
	#DEBUG_VALUE: block_size_y <- $r13d
	#DEBUG_VALUE: mb_pred_p_inter8x8:k <- $r14
	#DEBUG_VALUE: mb_pred_p_inter8x8:block8x8 <- 2
	.loc	0 0 5                           # ldecod_src/mb_prediction.c:0:5
	movq	32(%rsp), %rbx                  # 8-byte Reload
	.loc	0 270 20 is_stmt 1              # ldecod_src/mb_prediction.c:270:20
	movzbl	366(%rbx), %eax
.Ltmp372:
	#DEBUG_VALUE: mv_mode <- [DW_OP_LLVM_convert 8 5, DW_OP_LLVM_convert 32 5, DW_OP_stack_value] $al
	.loc	0 271 20                        # ldecod_src/mb_prediction.c:271:20
	movsbl	370(%rbx), %ecx
.Ltmp373:
	#DEBUG_VALUE: k_start <- 8
	#DEBUG_VALUE: pred_dir <- $ecx
	.loc	0 0 20 is_stmt 0                # ldecod_src/mb_prediction.c:0:20
	movl	%ecx, 12(%rsp)                  # 4-byte Spill
.Ltmp374:
	#DEBUG_VALUE: pred_dir <- [DW_OP_plus_uconst 12, DW_OP_deref] $rsp
	.loc	0 274 26 is_stmt 1              # ldecod_src/mb_prediction.c:274:26
	xorl	%ecx, %ecx
	cmpb	$5, %al
	sete	%cl
	.loc	0 274 17 is_stmt 0              # ldecod_src/mb_prediction.c:274:17
	leal	1(%rcx), %edx
.Ltmp375:
	#DEBUG_VALUE: k_inc <- $edx
	.loc	0 0 17                          # ldecod_src/mb_prediction.c:0:17
	movq	%rdx, 16(%rsp)                  # 8-byte Spill
.Ltmp376:
	#DEBUG_VALUE: k_inc <- [DW_OP_plus_uconst 16, DW_OP_deref] $rsp
	.loc	0 275 17 is_stmt 1              # ldecod_src/mb_prediction.c:275:17
	orl	$10, %ecx
	cmpb	$7, %al
	movl	$12, %edx
	cmovnel	%ecx, %edx
	.loc	0 275 26 is_stmt 0              # ldecod_src/mb_prediction.c:275:26
	xorl	%ecx, %ecx
	cmpb	$4, %al
	sete	%cl
	movl	$9, %r15d
.Ltmp377:
	.loc	0 275 17                        # ldecod_src/mb_prediction.c:275:17
	cmovnel	%edx, %r15d
.Ltmp378:
	#DEBUG_VALUE: k_end <- $r15d
	.loc	0 277 44 is_stmt 1              # ldecod_src/mb_prediction.c:277:44
	movl	%eax, %edx
	andb	$-2, %dl
	xorl	%edi, %edi
	cmpb	$4, %dl
	sete	%dil
	.loc	0 277 24 is_stmt 0              # ldecod_src/mb_prediction.c:277:24
	leal	4(,%rdi,4), %r12d
.Ltmp379:
	#DEBUG_VALUE: block_size_x <- $r12d
	.loc	0 278 34 is_stmt 1              # ldecod_src/mb_prediction.c:278:34
	cmpb	$6, %al
	.loc	0 278 24 is_stmt 0              # ldecod_src/mb_prediction.c:278:24
	leal	4(,%rcx,4), %eax
.Ltmp380:
	.loc	0 0 24                          # ldecod_src/mb_prediction.c:0:24
	movl	$8, %r13d
.Ltmp381:
	.loc	0 278 24                        # ldecod_src/mb_prediction.c:278:24
	cmovnel	%eax, %r13d
.Ltmp382:
	#DEBUG_VALUE: block_size_y <- $r13d
	#DEBUG_VALUE: mb_pred_p_inter8x8:k <- 8
	.loc	0 0 24                          # ldecod_src/mb_prediction.c:0:24
	movl	$8, %r14d
.Ltmp383:
	.p2align	4, 0x90
.LBB6_7:                                # %for.body36.2
                                        # =>This Inner Loop Header: Depth=1
	#DEBUG_VALUE: mb_pred_p_inter8x8:currMB <- [DW_OP_plus_uconst 32] [$rsp+0]
	#DEBUG_VALUE: mb_pred_p_inter8x8:curr_plane <- [DW_OP_plus_uconst 28] [$rsp+0]
	#DEBUG_VALUE: mb_pred_p_inter8x8:dec_picture <- $rbp
	#DEBUG_VALUE: mb_pred_p_inter8x8:currSlice <- [DW_OP_plus_uconst 48, DW_OP_deref] $rsp
	#DEBUG_VALUE: mb_pred_p_inter8x8:smb <- [DW_OP_plus_uconst 44, DW_OP_deref] $rsp
	#DEBUG_VALUE: mb_pred_p_inter8x8:block8x8 <- 2
	#DEBUG_VALUE: k_start <- 8
	#DEBUG_VALUE: pred_dir <- [DW_OP_plus_uconst 12, DW_OP_deref] $rsp
	#DEBUG_VALUE: k_inc <- [DW_OP_plus_uconst 16, DW_OP_deref] $rsp
	#DEBUG_VALUE: k_end <- $r15d
	#DEBUG_VALUE: block_size_x <- $r12d
	#DEBUG_VALUE: block_size_y <- $r13d
	#DEBUG_VALUE: mb_pred_p_inter8x8:k <- $r14
	.loc	0 282 13 is_stmt 1              # ldecod_src/mb_prediction.c:282:13
	movzbl	decode_block_scan(%r14), %r9d
	.loc	0 282 34 is_stmt 0              # ldecod_src/mb_prediction.c:282:34
	movl	%r9d, %r8d
	andl	$3, %r8d
.Ltmp384:
	#DEBUG_VALUE: mb_pred_p_inter8x8:i <- $r8d
	.loc	0 283 34 is_stmt 1              # ldecod_src/mb_prediction.c:283:34
	shrl	$2, %r9d
	.loc	0 283 40 is_stmt 0              # ldecod_src/mb_prediction.c:283:40
	andl	$3, %r9d
.Ltmp385:
	#DEBUG_VALUE: mb_pred_p_inter8x8:j <- $r9d
	.loc	0 284 7 is_stmt 1               # ldecod_src/mb_prediction.c:284:7
	movq	%rbx, %rdi
	movq	%rbp, %rdx
	movl	12(%rsp), %ecx                  # 4-byte Reload
	pushq	%r13
.Ltmp386:
	.cfi_adjust_cfa_offset 8
	pushq	%r12
	.cfi_adjust_cfa_offset 8
	callq	perform_mc@PLT
.Ltmp387:
	.loc	0 0 7 is_stmt 0                 # ldecod_src/mb_prediction.c:0:7
	movl	44(%rsp), %esi                  # 4-byte Reload
	.loc	0 284 7                         # ldecod_src/mb_prediction.c:284:7
	addq	$16, %rsp
.Ltmp388:
	.cfi_adjust_cfa_offset -16
	.loc	0 280 36 is_stmt 1              # ldecod_src/mb_prediction.c:280:36
	addq	16(%rsp), %r14                  # 8-byte Folded Reload
.Ltmp389:
	#DEBUG_VALUE: mb_pred_p_inter8x8:k <- $r14
	.loc	0 280 25 is_stmt 0              # ldecod_src/mb_prediction.c:280:25
	cmpl	%r14d, %r15d
.Ltmp390:
	.loc	0 280 5                         # ldecod_src/mb_prediction.c:280:5
	jg	.LBB6_7
.Ltmp391:
# %bb.8:                                # %for.end.2
	#DEBUG_VALUE: mb_pred_p_inter8x8:currMB <- [DW_OP_plus_uconst 32] [$rsp+0]
	#DEBUG_VALUE: mb_pred_p_inter8x8:curr_plane <- [DW_OP_plus_uconst 28] [$rsp+0]
	#DEBUG_VALUE: mb_pred_p_inter8x8:dec_picture <- $rbp
	#DEBUG_VALUE: mb_pred_p_inter8x8:currSlice <- [DW_OP_plus_uconst 48, DW_OP_deref] $rsp
	#DEBUG_VALUE: mb_pred_p_inter8x8:smb <- [DW_OP_plus_uconst 44, DW_OP_deref] $rsp
	#DEBUG_VALUE: mb_pred_p_inter8x8:block8x8 <- 2
	#DEBUG_VALUE: k_start <- 8
	#DEBUG_VALUE: pred_dir <- [DW_OP_plus_uconst 12, DW_OP_deref] $rsp
	#DEBUG_VALUE: k_inc <- [DW_OP_plus_uconst 16, DW_OP_deref] $rsp
	#DEBUG_VALUE: k_end <- $r15d
	#DEBUG_VALUE: block_size_x <- $r12d
	#DEBUG_VALUE: block_size_y <- $r13d
	#DEBUG_VALUE: mb_pred_p_inter8x8:k <- $r14
	#DEBUG_VALUE: mb_pred_p_inter8x8:block8x8 <- 3
	.loc	0 270 20 is_stmt 1              # ldecod_src/mb_prediction.c:270:20
	movzbl	367(%rbx), %eax
.Ltmp392:
	#DEBUG_VALUE: mv_mode <- [DW_OP_LLVM_convert 8 5, DW_OP_LLVM_convert 32 5, DW_OP_stack_value] $al
	.loc	0 271 20                        # ldecod_src/mb_prediction.c:271:20
	movsbl	371(%rbx), %ecx
.Ltmp393:
	#DEBUG_VALUE: k_start <- 12
	#DEBUG_VALUE: pred_dir <- $ecx
	.loc	0 0 20 is_stmt 0                # ldecod_src/mb_prediction.c:0:20
	movl	%ecx, 12(%rsp)                  # 4-byte Spill
.Ltmp394:
	#DEBUG_VALUE: pred_dir <- [DW_OP_plus_uconst 12, DW_OP_deref] $rsp
	.loc	0 274 26 is_stmt 1              # ldecod_src/mb_prediction.c:274:26
	xorl	%ecx, %ecx
	cmpb	$5, %al
	sete	%cl
	.loc	0 274 17 is_stmt 0              # ldecod_src/mb_prediction.c:274:17
	leal	1(%rcx), %edx
.Ltmp395:
	#DEBUG_VALUE: k_inc <- $edx
	.loc	0 0 17                          # ldecod_src/mb_prediction.c:0:17
	movq	%rdx, 16(%rsp)                  # 8-byte Spill
.Ltmp396:
	#DEBUG_VALUE: k_inc <- [DW_OP_plus_uconst 16, DW_OP_deref] $rsp
	.loc	0 275 17 is_stmt 1              # ldecod_src/mb_prediction.c:275:17
	orl	$14, %ecx
	cmpb	$7, %al
	movl	$16, %edx
	cmovnel	%ecx, %edx
	.loc	0 275 26 is_stmt 0              # ldecod_src/mb_prediction.c:275:26
	xorl	%ecx, %ecx
	cmpb	$4, %al
	sete	%cl
	movl	$13, %r15d
.Ltmp397:
	.loc	0 275 17                        # ldecod_src/mb_prediction.c:275:17
	cmovnel	%edx, %r15d
.Ltmp398:
	#DEBUG_VALUE: k_end <- $r15d
	.loc	0 277 44 is_stmt 1              # ldecod_src/mb_prediction.c:277:44
	movl	%eax, %edx
	andb	$-2, %dl
	xorl	%edi, %edi
	cmpb	$4, %dl
	sete	%dil
	.loc	0 277 24 is_stmt 0              # ldecod_src/mb_prediction.c:277:24
	leal	4(,%rdi,4), %r12d
.Ltmp399:
	#DEBUG_VALUE: block_size_x <- $r12d
	.loc	0 278 34 is_stmt 1              # ldecod_src/mb_prediction.c:278:34
	cmpb	$6, %al
	.loc	0 278 24 is_stmt 0              # ldecod_src/mb_prediction.c:278:24
	leal	4(,%rcx,4), %eax
.Ltmp400:
	.loc	0 0 24                          # ldecod_src/mb_prediction.c:0:24
	movl	$8, %r13d
.Ltmp401:
	.loc	0 278 24                        # ldecod_src/mb_prediction.c:278:24
	cmovnel	%eax, %r13d
.Ltmp402:
	#DEBUG_VALUE: block_size_y <- $r13d
	#DEBUG_VALUE: mb_pred_p_inter8x8:k <- 12
	.loc	0 0 24                          # ldecod_src/mb_prediction.c:0:24
	movl	$12, %r14d
.Ltmp403:
	.p2align	4, 0x90
.LBB6_9:                                # %for.body36.3
                                        # =>This Inner Loop Header: Depth=1
	#DEBUG_VALUE: mb_pred_p_inter8x8:currMB <- [DW_OP_plus_uconst 32] [$rsp+0]
	#DEBUG_VALUE: mb_pred_p_inter8x8:curr_plane <- [DW_OP_plus_uconst 28] [$rsp+0]
	#DEBUG_VALUE: mb_pred_p_inter8x8:dec_picture <- $rbp
	#DEBUG_VALUE: mb_pred_p_inter8x8:currSlice <- [DW_OP_plus_uconst 48, DW_OP_deref] $rsp
	#DEBUG_VALUE: mb_pred_p_inter8x8:smb <- [DW_OP_plus_uconst 44, DW_OP_deref] $rsp
	#DEBUG_VALUE: mb_pred_p_inter8x8:block8x8 <- 3
	#DEBUG_VALUE: k_start <- 12
	#DEBUG_VALUE: pred_dir <- [DW_OP_plus_uconst 12, DW_OP_deref] $rsp
	#DEBUG_VALUE: k_inc <- [DW_OP_plus_uconst 16, DW_OP_deref] $rsp
	#DEBUG_VALUE: k_end <- $r15d
	#DEBUG_VALUE: block_size_x <- $r12d
	#DEBUG_VALUE: block_size_y <- $r13d
	#DEBUG_VALUE: mb_pred_p_inter8x8:k <- $r14
	.loc	0 282 13 is_stmt 1              # ldecod_src/mb_prediction.c:282:13
	movzbl	decode_block_scan(%r14), %r9d
	.loc	0 282 34 is_stmt 0              # ldecod_src/mb_prediction.c:282:34
	movl	%r9d, %r8d
	andl	$3, %r8d
.Ltmp404:
	#DEBUG_VALUE: mb_pred_p_inter8x8:i <- $r8d
	.loc	0 283 34 is_stmt 1              # ldecod_src/mb_prediction.c:283:34
	shrl	$2, %r9d
	.loc	0 283 40 is_stmt 0              # ldecod_src/mb_prediction.c:283:40
	andl	$3, %r9d
.Ltmp405:
	#DEBUG_VALUE: mb_pred_p_inter8x8:j <- $r9d
	.loc	0 284 7 is_stmt 1               # ldecod_src/mb_prediction.c:284:7
	movq	%rbx, %rdi
	movq	%rbp, %rdx
	movl	12(%rsp), %ecx                  # 4-byte Reload
	pushq	%r13
.Ltmp406:
	.cfi_adjust_cfa_offset 8
	pushq	%r12
	.cfi_adjust_cfa_offset 8
	callq	perform_mc@PLT
.Ltmp407:
	.loc	0 0 7 is_stmt 0                 # ldecod_src/mb_prediction.c:0:7
	movl	44(%rsp), %esi                  # 4-byte Reload
	.loc	0 284 7                         # ldecod_src/mb_prediction.c:284:7
	addq	$16, %rsp
.Ltmp408:
	.cfi_adjust_cfa_offset -16
	.loc	0 280 36 is_stmt 1              # ldecod_src/mb_prediction.c:280:36
	addq	16(%rsp), %r14                  # 8-byte Folded Reload
.Ltmp409:
	#DEBUG_VALUE: mb_pred_p_inter8x8:k <- $r14
	.loc	0 280 25 is_stmt 0              # ldecod_src/mb_prediction.c:280:25
	cmpl	%r14d, %r15d
.Ltmp410:
	.loc	0 280 5                         # ldecod_src/mb_prediction.c:280:5
	jg	.LBB6_9
.Ltmp411:
# %bb.10:                               # %for.end.3
	#DEBUG_VALUE: mb_pred_p_inter8x8:currMB <- [DW_OP_plus_uconst 32] [$rsp+0]
	#DEBUG_VALUE: mb_pred_p_inter8x8:curr_plane <- [DW_OP_plus_uconst 28] [$rsp+0]
	#DEBUG_VALUE: mb_pred_p_inter8x8:dec_picture <- $rbp
	#DEBUG_VALUE: mb_pred_p_inter8x8:currSlice <- [DW_OP_plus_uconst 48, DW_OP_deref] $rsp
	#DEBUG_VALUE: mb_pred_p_inter8x8:smb <- [DW_OP_plus_uconst 44, DW_OP_deref] $rsp
	#DEBUG_VALUE: mb_pred_p_inter8x8:block8x8 <- 3
	#DEBUG_VALUE: mb_pred_p_inter8x8:k <- $r14
	#DEBUG_VALUE: mb_pred_p_inter8x8:block8x8 <- 4
	.loc	0 288 3 is_stmt 1               # ldecod_src/mb_prediction.c:288:3
	movq	%rbx, %rdi
	movl	44(%rsp), %edx                  # 4-byte Reload
	callq	iTransform@PLT
.Ltmp412:
	.loc	0 290 19                        # ldecod_src/mb_prediction.c:290:19
	cmpl	$0, 284(%rbx)
.Ltmp413:
	.loc	0 290 7 is_stmt 0               # ldecod_src/mb_prediction.c:290:7
	je	.LBB6_12
.Ltmp414:
# %bb.11:                               # %if.then
	#DEBUG_VALUE: mb_pred_p_inter8x8:currMB <- [DW_OP_plus_uconst 32] [$rsp+0]
	#DEBUG_VALUE: mb_pred_p_inter8x8:curr_plane <- [DW_OP_plus_uconst 28] [$rsp+0]
	#DEBUG_VALUE: mb_pred_p_inter8x8:dec_picture <- $rbp
	#DEBUG_VALUE: mb_pred_p_inter8x8:currSlice <- [DW_OP_plus_uconst 48, DW_OP_deref] $rsp
	#DEBUG_VALUE: mb_pred_p_inter8x8:smb <- [DW_OP_plus_uconst 44, DW_OP_deref] $rsp
	#DEBUG_VALUE: mb_pred_p_inter8x8:block8x8 <- 4
	#DEBUG_VALUE: mb_pred_p_inter8x8:k <- $r14
	.loc	0 0 7                           # ldecod_src/mb_prediction.c:0:7
	movq	48(%rsp), %rax                  # 8-byte Reload
.Ltmp415:
	.loc	0 291 31 is_stmt 1              # ldecod_src/mb_prediction.c:291:31
	movl	$0, 1240(%rax)
.Ltmp416:
.LBB6_12:                               # %if.end
	#DEBUG_VALUE: mb_pred_p_inter8x8:currMB <- [DW_OP_plus_uconst 32] [$rsp+0]
	#DEBUG_VALUE: mb_pred_p_inter8x8:curr_plane <- [DW_OP_plus_uconst 28] [$rsp+0]
	#DEBUG_VALUE: mb_pred_p_inter8x8:dec_picture <- $rbp
	#DEBUG_VALUE: mb_pred_p_inter8x8:currSlice <- [DW_OP_plus_uconst 48, DW_OP_deref] $rsp
	#DEBUG_VALUE: mb_pred_p_inter8x8:smb <- [DW_OP_plus_uconst 44, DW_OP_deref] $rsp
	#DEBUG_VALUE: mb_pred_p_inter8x8:block8x8 <- 4
	#DEBUG_VALUE: mb_pred_p_inter8x8:k <- $r14
	.loc	0 292 3                         # ldecod_src/mb_prediction.c:292:3
	movl	$1, %eax
	.loc	0 292 3 epilogue_begin is_stmt 0 # ldecod_src/mb_prediction.c:292:3
	addq	$56, %rsp
	.cfi_def_cfa_offset 56
	popq	%rbx
	.cfi_def_cfa_offset 48
	popq	%r12
	.cfi_def_cfa_offset 40
	popq	%r13
	.cfi_def_cfa_offset 32
	popq	%r14
.Ltmp417:
	.cfi_def_cfa_offset 24
	popq	%r15
	.cfi_def_cfa_offset 16
	popq	%rbp
.Ltmp418:
	#DEBUG_VALUE: mb_pred_p_inter8x8:dec_picture <- [DW_OP_LLVM_entry_value 1] $rdx
	.cfi_def_cfa_offset 8
	retq
.Ltmp419:
.Lfunc_end6:
	.size	mb_pred_p_inter8x8, .Lfunc_end6-mb_pred_p_inter8x8
	.cfi_endproc
                                        # -- End function
	.globl	mb_pred_p_inter16x16            # -- Begin function mb_pred_p_inter16x16
	.p2align	4, 0x90
	.type	mb_pred_p_inter16x16,@function
mb_pred_p_inter16x16:                   # @mb_pred_p_inter16x16
.Lfunc_begin7:
	.loc	0 296 0 is_stmt 1               # ldecod_src/mb_prediction.c:296:0
	.cfi_startproc
# %bb.0:                                # %entry
	#DEBUG_VALUE: mb_pred_p_inter16x16:currMB <- $rdi
	#DEBUG_VALUE: mb_pred_p_inter16x16:curr_plane <- $esi
	#DEBUG_VALUE: mb_pred_p_inter16x16:dec_picture <- $rdx
	pushq	%rbp
	.cfi_def_cfa_offset 16
	pushq	%r15
	.cfi_def_cfa_offset 24
	pushq	%r14
	.cfi_def_cfa_offset 32
	pushq	%r12
	.cfi_def_cfa_offset 40
	pushq	%rbx
	.cfi_def_cfa_offset 48
	.cfi_offset %rbx, -48
	.cfi_offset %r12, -40
	.cfi_offset %r14, -32
	.cfi_offset %r15, -24
	.cfi_offset %rbp, -16
	movq	%rdx, %r14
	movl	%esi, %ebp
	movq	%rdi, %rbx
.Ltmp420:
	.loc	0 298 30 prologue_end           # ldecod_src/mb_prediction.c:298:30
	movq	(%rdi), %r12
.Ltmp421:
	#DEBUG_VALUE: mb_pred_p_inter16x16:currSlice <- $r12
	.loc	0 297 22                        # ldecod_src/mb_prediction.c:297:22
	movq	8(%rdi), %rax
	.loc	0 297 34 is_stmt 0              # ldecod_src/mb_prediction.c:297:34
	xorl	%r15d, %r15d
	cmpl	$3, 848776(%rax)
	sete	%r15b
.Ltmp422:
	#DEBUG_VALUE: mb_pred_p_inter16x16:smb <- undef
	.loc	0 300 3 is_stmt 1               # ldecod_src/mb_prediction.c:300:3
	callq	set_chroma_vector
.Ltmp423:
	#DEBUG_VALUE: mb_pred_p_inter16x16:dec_picture <- $r14
	#DEBUG_VALUE: mb_pred_p_inter16x16:curr_plane <- $ebp
	#DEBUG_VALUE: mb_pred_p_inter16x16:currMB <- $rbx
	.loc	0 301 47                        # ldecod_src/mb_prediction.c:301:47
	movsbl	368(%rbx), %ecx
	.loc	0 301 3 is_stmt 0               # ldecod_src/mb_prediction.c:301:3
	movq	%rbx, %rdi
	movl	%ebp, %esi
	movq	%r14, %rdx
	xorl	%r8d, %r8d
	xorl	%r9d, %r9d
	pushq	$16
	.cfi_adjust_cfa_offset 8
	pushq	$16
	.cfi_adjust_cfa_offset 8
	callq	perform_mc@PLT
.Ltmp424:
	addq	$16, %rsp
	.cfi_adjust_cfa_offset -16
	.loc	0 302 3 is_stmt 1               # ldecod_src/mb_prediction.c:302:3
	movq	%rbx, %rdi
	movl	%ebp, %esi
	movl	%r15d, %edx
	callq	iTransform@PLT
.Ltmp425:
	.loc	0 304 19                        # ldecod_src/mb_prediction.c:304:19
	cmpl	$0, 284(%rbx)
.Ltmp426:
	.loc	0 304 7 is_stmt 0               # ldecod_src/mb_prediction.c:304:7
	je	.LBB7_2
.Ltmp427:
# %bb.1:                                # %if.then
	#DEBUG_VALUE: mb_pred_p_inter16x16:currMB <- $rbx
	#DEBUG_VALUE: mb_pred_p_inter16x16:curr_plane <- $ebp
	#DEBUG_VALUE: mb_pred_p_inter16x16:dec_picture <- $r14
	#DEBUG_VALUE: mb_pred_p_inter16x16:currSlice <- $r12
	.loc	0 305 31 is_stmt 1              # ldecod_src/mb_prediction.c:305:31
	movl	$0, 1240(%r12)
.Ltmp428:
.LBB7_2:                                # %if.end
	#DEBUG_VALUE: mb_pred_p_inter16x16:currMB <- $rbx
	#DEBUG_VALUE: mb_pred_p_inter16x16:curr_plane <- $ebp
	#DEBUG_VALUE: mb_pred_p_inter16x16:dec_picture <- $r14
	#DEBUG_VALUE: mb_pred_p_inter16x16:currSlice <- $r12
	.loc	0 306 3                         # ldecod_src/mb_prediction.c:306:3
	movl	$1, %eax
	.loc	0 306 3 epilogue_begin is_stmt 0 # ldecod_src/mb_prediction.c:306:3
	popq	%rbx
.Ltmp429:
	#DEBUG_VALUE: mb_pred_p_inter16x16:currMB <- [DW_OP_LLVM_entry_value 1] $rdi
	.cfi_def_cfa_offset 40
	popq	%r12
.Ltmp430:
	.cfi_def_cfa_offset 32
	popq	%r14
.Ltmp431:
	#DEBUG_VALUE: mb_pred_p_inter16x16:dec_picture <- [DW_OP_LLVM_entry_value 1] $rdx
	.cfi_def_cfa_offset 24
	popq	%r15
	.cfi_def_cfa_offset 16
	popq	%rbp
.Ltmp432:
	#DEBUG_VALUE: mb_pred_p_inter16x16:curr_plane <- [DW_OP_LLVM_entry_value 1] $esi
	.cfi_def_cfa_offset 8
	retq
.Ltmp433:
.Lfunc_end7:
	.size	mb_pred_p_inter16x16, .Lfunc_end7-mb_pred_p_inter16x16
	.cfi_endproc
                                        # -- End function
	.globl	mb_pred_p_inter16x8             # -- Begin function mb_pred_p_inter16x8
	.p2align	4, 0x90
	.type	mb_pred_p_inter16x8,@function
mb_pred_p_inter16x8:                    # @mb_pred_p_inter16x8
.Lfunc_begin8:
	.loc	0 310 0 is_stmt 1               # ldecod_src/mb_prediction.c:310:0
	.cfi_startproc
# %bb.0:                                # %entry
	#DEBUG_VALUE: mb_pred_p_inter16x8:currMB <- $rdi
	#DEBUG_VALUE: mb_pred_p_inter16x8:curr_plane <- $esi
	#DEBUG_VALUE: mb_pred_p_inter16x8:dec_picture <- $rdx
	pushq	%rbp
	.cfi_def_cfa_offset 16
	pushq	%r15
	.cfi_def_cfa_offset 24
	pushq	%r14
	.cfi_def_cfa_offset 32
	pushq	%r12
	.cfi_def_cfa_offset 40
	pushq	%rbx
	.cfi_def_cfa_offset 48
	.cfi_offset %rbx, -48
	.cfi_offset %r12, -40
	.cfi_offset %r14, -32
	.cfi_offset %r15, -24
	.cfi_offset %rbp, -16
	movq	%rdx, %r15
	movl	%esi, %ebp
	movq	%rdi, %rbx
.Ltmp434:
	.loc	0 312 30 prologue_end           # ldecod_src/mb_prediction.c:312:30
	movq	(%rdi), %r12
.Ltmp435:
	#DEBUG_VALUE: mb_pred_p_inter16x8:currSlice <- $r12
	.loc	0 311 22                        # ldecod_src/mb_prediction.c:311:22
	movq	8(%rdi), %rax
	.loc	0 311 34 is_stmt 0              # ldecod_src/mb_prediction.c:311:34
	xorl	%r14d, %r14d
	cmpl	$3, 848776(%rax)
	sete	%r14b
.Ltmp436:
	#DEBUG_VALUE: mb_pred_p_inter16x8:smb <- undef
	.loc	0 314 3 is_stmt 1               # ldecod_src/mb_prediction.c:314:3
	callq	set_chroma_vector
.Ltmp437:
	#DEBUG_VALUE: mb_pred_p_inter16x8:dec_picture <- $r15
	#DEBUG_VALUE: mb_pred_p_inter16x8:curr_plane <- $ebp
	#DEBUG_VALUE: mb_pred_p_inter16x8:currMB <- $rbx
	.loc	0 316 47                        # ldecod_src/mb_prediction.c:316:47
	movsbl	368(%rbx), %ecx
	.loc	0 316 3 is_stmt 0               # ldecod_src/mb_prediction.c:316:3
	movq	%rbx, %rdi
	movl	%ebp, %esi
	movq	%r15, %rdx
	xorl	%r8d, %r8d
	xorl	%r9d, %r9d
	pushq	$8
	.cfi_adjust_cfa_offset 8
	pushq	$16
	.cfi_adjust_cfa_offset 8
	callq	perform_mc@PLT
.Ltmp438:
	addq	$16, %rsp
	.cfi_adjust_cfa_offset -16
	.loc	0 317 47 is_stmt 1              # ldecod_src/mb_prediction.c:317:47
	movsbl	370(%rbx), %ecx
	.loc	0 317 3 is_stmt 0               # ldecod_src/mb_prediction.c:317:3
	movq	%rbx, %rdi
	movl	%ebp, %esi
	movq	%r15, %rdx
	xorl	%r8d, %r8d
	movl	$2, %r9d
	pushq	$8
	.cfi_adjust_cfa_offset 8
	pushq	$16
	.cfi_adjust_cfa_offset 8
	callq	perform_mc@PLT
.Ltmp439:
	addq	$16, %rsp
	.cfi_adjust_cfa_offset -16
	.loc	0 318 3 is_stmt 1               # ldecod_src/mb_prediction.c:318:3
	movq	%rbx, %rdi
	movl	%ebp, %esi
	movl	%r14d, %edx
	callq	iTransform@PLT
.Ltmp440:
	.loc	0 320 19                        # ldecod_src/mb_prediction.c:320:19
	cmpl	$0, 284(%rbx)
.Ltmp441:
	.loc	0 320 7 is_stmt 0               # ldecod_src/mb_prediction.c:320:7
	je	.LBB8_2
.Ltmp442:
# %bb.1:                                # %if.then
	#DEBUG_VALUE: mb_pred_p_inter16x8:currMB <- $rbx
	#DEBUG_VALUE: mb_pred_p_inter16x8:curr_plane <- $ebp
	#DEBUG_VALUE: mb_pred_p_inter16x8:dec_picture <- $r15
	#DEBUG_VALUE: mb_pred_p_inter16x8:currSlice <- $r12
	.loc	0 321 31 is_stmt 1              # ldecod_src/mb_prediction.c:321:31
	movl	$0, 1240(%r12)
.Ltmp443:
.LBB8_2:                                # %if.end
	#DEBUG_VALUE: mb_pred_p_inter16x8:currMB <- $rbx
	#DEBUG_VALUE: mb_pred_p_inter16x8:curr_plane <- $ebp
	#DEBUG_VALUE: mb_pred_p_inter16x8:dec_picture <- $r15
	#DEBUG_VALUE: mb_pred_p_inter16x8:currSlice <- $r12
	.loc	0 322 3                         # ldecod_src/mb_prediction.c:322:3
	movl	$1, %eax
	.loc	0 322 3 epilogue_begin is_stmt 0 # ldecod_src/mb_prediction.c:322:3
	popq	%rbx
.Ltmp444:
	#DEBUG_VALUE: mb_pred_p_inter16x8:currMB <- [DW_OP_LLVM_entry_value 1] $rdi
	.cfi_def_cfa_offset 40
	popq	%r12
.Ltmp445:
	.cfi_def_cfa_offset 32
	popq	%r14
	.cfi_def_cfa_offset 24
	popq	%r15
.Ltmp446:
	#DEBUG_VALUE: mb_pred_p_inter16x8:dec_picture <- [DW_OP_LLVM_entry_value 1] $rdx
	.cfi_def_cfa_offset 16
	popq	%rbp
.Ltmp447:
	#DEBUG_VALUE: mb_pred_p_inter16x8:curr_plane <- [DW_OP_LLVM_entry_value 1] $esi
	.cfi_def_cfa_offset 8
	retq
.Ltmp448:
.Lfunc_end8:
	.size	mb_pred_p_inter16x8, .Lfunc_end8-mb_pred_p_inter16x8
	.cfi_endproc
                                        # -- End function
	.globl	mb_pred_p_inter8x16             # -- Begin function mb_pred_p_inter8x16
	.p2align	4, 0x90
	.type	mb_pred_p_inter8x16,@function
mb_pred_p_inter8x16:                    # @mb_pred_p_inter8x16
.Lfunc_begin9:
	.loc	0 326 0 is_stmt 1               # ldecod_src/mb_prediction.c:326:0
	.cfi_startproc
# %bb.0:                                # %entry
	#DEBUG_VALUE: mb_pred_p_inter8x16:currMB <- $rdi
	#DEBUG_VALUE: mb_pred_p_inter8x16:curr_plane <- $esi
	#DEBUG_VALUE: mb_pred_p_inter8x16:dec_picture <- $rdx
	pushq	%rbp
	.cfi_def_cfa_offset 16
	pushq	%r15
	.cfi_def_cfa_offset 24
	pushq	%r14
	.cfi_def_cfa_offset 32
	pushq	%r12
	.cfi_def_cfa_offset 40
	pushq	%rbx
	.cfi_def_cfa_offset 48
	.cfi_offset %rbx, -48
	.cfi_offset %r12, -40
	.cfi_offset %r14, -32
	.cfi_offset %r15, -24
	.cfi_offset %rbp, -16
	movq	%rdx, %r15
	movl	%esi, %ebp
	movq	%rdi, %rbx
.Ltmp449:
	.loc	0 328 30 prologue_end           # ldecod_src/mb_prediction.c:328:30
	movq	(%rdi), %r12
.Ltmp450:
	#DEBUG_VALUE: mb_pred_p_inter8x16:currSlice <- $r12
	.loc	0 327 22                        # ldecod_src/mb_prediction.c:327:22
	movq	8(%rdi), %rax
	.loc	0 327 34 is_stmt 0              # ldecod_src/mb_prediction.c:327:34
	xorl	%r14d, %r14d
	cmpl	$3, 848776(%rax)
	sete	%r14b
.Ltmp451:
	#DEBUG_VALUE: mb_pred_p_inter8x16:smb <- undef
	.loc	0 330 3 is_stmt 1               # ldecod_src/mb_prediction.c:330:3
	callq	set_chroma_vector
.Ltmp452:
	#DEBUG_VALUE: mb_pred_p_inter8x16:dec_picture <- $r15
	#DEBUG_VALUE: mb_pred_p_inter8x16:curr_plane <- $ebp
	#DEBUG_VALUE: mb_pred_p_inter8x16:currMB <- $rbx
	.loc	0 332 47                        # ldecod_src/mb_prediction.c:332:47
	movsbl	368(%rbx), %ecx
	.loc	0 332 3 is_stmt 0               # ldecod_src/mb_prediction.c:332:3
	movq	%rbx, %rdi
	movl	%ebp, %esi
	movq	%r15, %rdx
	xorl	%r8d, %r8d
	xorl	%r9d, %r9d
	pushq	$16
	.cfi_adjust_cfa_offset 8
	pushq	$8
	.cfi_adjust_cfa_offset 8
	callq	perform_mc@PLT
.Ltmp453:
	addq	$16, %rsp
	.cfi_adjust_cfa_offset -16
	.loc	0 333 47 is_stmt 1              # ldecod_src/mb_prediction.c:333:47
	movsbl	369(%rbx), %ecx
	.loc	0 333 3 is_stmt 0               # ldecod_src/mb_prediction.c:333:3
	movq	%rbx, %rdi
	movl	%ebp, %esi
	movq	%r15, %rdx
	movl	$2, %r8d
	xorl	%r9d, %r9d
	pushq	$16
	.cfi_adjust_cfa_offset 8
	pushq	$8
	.cfi_adjust_cfa_offset 8
	callq	perform_mc@PLT
.Ltmp454:
	addq	$16, %rsp
	.cfi_adjust_cfa_offset -16
	.loc	0 334 3 is_stmt 1               # ldecod_src/mb_prediction.c:334:3
	movq	%rbx, %rdi
	movl	%ebp, %esi
	movl	%r14d, %edx
	callq	iTransform@PLT
.Ltmp455:
	.loc	0 336 19                        # ldecod_src/mb_prediction.c:336:19
	cmpl	$0, 284(%rbx)
.Ltmp456:
	.loc	0 336 7 is_stmt 0               # ldecod_src/mb_prediction.c:336:7
	je	.LBB9_2
.Ltmp457:
# %bb.1:                                # %if.then
	#DEBUG_VALUE: mb_pred_p_inter8x16:currMB <- $rbx
	#DEBUG_VALUE: mb_pred_p_inter8x16:curr_plane <- $ebp
	#DEBUG_VALUE: mb_pred_p_inter8x16:dec_picture <- $r15
	#DEBUG_VALUE: mb_pred_p_inter8x16:currSlice <- $r12
	.loc	0 337 31 is_stmt 1              # ldecod_src/mb_prediction.c:337:31
	movl	$0, 1240(%r12)
.Ltmp458:
.LBB9_2:                                # %if.end
	#DEBUG_VALUE: mb_pred_p_inter8x16:currMB <- $rbx
	#DEBUG_VALUE: mb_pred_p_inter8x16:curr_plane <- $ebp
	#DEBUG_VALUE: mb_pred_p_inter8x16:dec_picture <- $r15
	#DEBUG_VALUE: mb_pred_p_inter8x16:currSlice <- $r12
	.loc	0 338 3                         # ldecod_src/mb_prediction.c:338:3
	movl	$1, %eax
	.loc	0 338 3 epilogue_begin is_stmt 0 # ldecod_src/mb_prediction.c:338:3
	popq	%rbx
.Ltmp459:
	#DEBUG_VALUE: mb_pred_p_inter8x16:currMB <- [DW_OP_LLVM_entry_value 1] $rdi
	.cfi_def_cfa_offset 40
	popq	%r12
.Ltmp460:
	.cfi_def_cfa_offset 32
	popq	%r14
	.cfi_def_cfa_offset 24
	popq	%r15
.Ltmp461:
	#DEBUG_VALUE: mb_pred_p_inter8x16:dec_picture <- [DW_OP_LLVM_entry_value 1] $rdx
	.cfi_def_cfa_offset 16
	popq	%rbp
.Ltmp462:
	#DEBUG_VALUE: mb_pred_p_inter8x16:curr_plane <- [DW_OP_LLVM_entry_value 1] $esi
	.cfi_def_cfa_offset 8
	retq
.Ltmp463:
.Lfunc_end9:
	.size	mb_pred_p_inter8x16, .Lfunc_end9-mb_pred_p_inter8x16
	.cfi_endproc
                                        # -- End function
	.globl	mb_pred_b_d8x8temporal          # -- Begin function mb_pred_b_d8x8temporal
	.p2align	4, 0x90
	.type	mb_pred_b_d8x8temporal,@function
mb_pred_b_d8x8temporal:                 # @mb_pred_b_d8x8temporal
.Lfunc_begin10:
	.loc	0 349 0 is_stmt 1               # ldecod_src/mb_prediction.c:349:0
	.cfi_startproc
# %bb.0:                                # %entry
	#DEBUG_VALUE: mb_pred_b_d8x8temporal:currMB <- $rdi
	#DEBUG_VALUE: mb_pred_b_d8x8temporal:curr_plane <- $esi
	#DEBUG_VALUE: mb_pred_b_d8x8temporal:currImg <- $rdx
	#DEBUG_VALUE: mb_pred_b_d8x8temporal:dec_picture <- $rcx
	pushq	%rbp
	.cfi_def_cfa_offset 16
	pushq	%r15
	.cfi_def_cfa_offset 24
	pushq	%r14
	.cfi_def_cfa_offset 32
	pushq	%r13
	.cfi_def_cfa_offset 40
	pushq	%r12
	.cfi_def_cfa_offset 48
	pushq	%rbx
	.cfi_def_cfa_offset 56
	subq	$104, %rsp
	.cfi_def_cfa_offset 160
	.cfi_offset %rbx, -56
	.cfi_offset %r12, -48
	.cfi_offset %r13, -40
	.cfi_offset %r14, -32
	.cfi_offset %r15, -24
	.cfi_offset %rbp, -16
	movq	%rcx, 16(%rsp)                  # 8-byte Spill
.Ltmp464:
	#DEBUG_VALUE: mb_pred_b_d8x8temporal:dec_picture <- [DW_OP_plus_uconst 16] [$rsp+0]
	movq	%rdx, 48(%rsp)                  # 8-byte Spill
.Ltmp465:
	#DEBUG_VALUE: mb_pred_b_d8x8temporal:currImg <- [DW_OP_plus_uconst 48] [$rsp+0]
	movl	%esi, 12(%rsp)                  # 4-byte Spill
.Ltmp466:
	#DEBUG_VALUE: mb_pred_b_d8x8temporal:curr_plane <- [DW_OP_plus_uconst 12] [$rsp+0]
	movq	%rdi, %rbx
.Ltmp467:
	.loc	0 355 30 prologue_end           # ldecod_src/mb_prediction.c:355:30
	movq	(%rdi), %r13
.Ltmp468:
	#DEBUG_VALUE: mb_pred_b_d8x8temporal:currSlice <- $r13
	.loc	0 356 36                        # ldecod_src/mb_prediction.c:356:36
	movq	8(%rdi), %rax
.Ltmp469:
	#DEBUG_VALUE: mb_pred_b_d8x8temporal:p_Vid <- $rax
	#DEBUG_VALUE: mb_pred_b_d8x8temporal:mv_info <- 0
	#DEBUG_VALUE: mb_pred_b_d8x8temporal:colocated <- 0
	.loc	0 0 36 is_stmt 0                # ldecod_src/mb_prediction.c:0:36
	movq	%rax, 24(%rsp)                  # 8-byte Spill
.Ltmp470:
	#DEBUG_VALUE: mb_pred_b_d8x8temporal:p_Vid <- [DW_OP_plus_uconst 24, DW_OP_deref] $rsp
	.loc	0 359 29 is_stmt 1              # ldecod_src/mb_prediction.c:359:29
	movswq	114(%rdi), %rbp
.Ltmp471:
	#DEBUG_VALUE: mb_pred_b_d8x8temporal:list_offset <- undef
	.loc	0 360 29                        # ldecod_src/mb_prediction.c:360:29
	movq	264(%r13,%rbp,8), %rax
.Ltmp472:
	#DEBUG_VALUE: mb_pred_b_d8x8temporal:list0 <- $rax
	.loc	0 0 29 is_stmt 0                # ldecod_src/mb_prediction.c:0:29
	movq	%rax, 96(%rsp)                  # 8-byte Spill
.Ltmp473:
	#DEBUG_VALUE: mb_pred_b_d8x8temporal:list0 <- [DW_OP_plus_uconst 96, DW_OP_deref] $rsp
	.loc	0 361 29 is_stmt 1              # ldecod_src/mb_prediction.c:361:29
	movq	272(%r13,%rbp,8), %r15
.Ltmp474:
	#DEBUG_VALUE: mb_pred_b_d8x8temporal:list1 <- $r15
	.loc	0 363 3                         # ldecod_src/mb_prediction.c:363:3
	callq	set_chroma_vector
.Ltmp475:
	#DEBUG_VALUE: mb_pred_b_d8x8temporal:currMB <- $rbx
	#DEBUG_VALUE: mb_pred_b_d8x8temporal:block8x8 <- 0
	.loc	0 0 3 is_stmt 0                 # ldecod_src/mb_prediction.c:0:3
	leaq	336(%r13), %rax
	movq	%rax, 88(%rsp)                  # 8-byte Spill
	movl	$4, %eax
	movq	%rax, 40(%rsp)                  # 8-byte Spill
	xorl	%eax, %eax
	xorl	%r14d, %r14d
	jmp	.LBB10_2
.Ltmp476:
	.p2align	4, 0x90
.LBB10_1:                               # %for.body598.preheader
                                        #   in Loop: Header=BB10_2 Depth=1
	#DEBUG_VALUE: mb_pred_b_d8x8temporal:currMB <- $rbx
	#DEBUG_VALUE: mb_pred_b_d8x8temporal:curr_plane <- [DW_OP_plus_uconst 12] [$rsp+0]
	#DEBUG_VALUE: mb_pred_b_d8x8temporal:currImg <- [DW_OP_plus_uconst 48] [$rsp+0]
	#DEBUG_VALUE: mb_pred_b_d8x8temporal:dec_picture <- [DW_OP_plus_uconst 16] [$rsp+0]
	#DEBUG_VALUE: mb_pred_b_d8x8temporal:currSlice <- $r13
	#DEBUG_VALUE: mb_pred_b_d8x8temporal:p_Vid <- [DW_OP_plus_uconst 24, DW_OP_deref] $rsp
	#DEBUG_VALUE: mb_pred_b_d8x8temporal:list0 <- [DW_OP_plus_uconst 96, DW_OP_deref] $rsp
	#DEBUG_VALUE: mb_pred_b_d8x8temporal:list1 <- $r15
	#DEBUG_VALUE: mb_pred_b_d8x8temporal:block8x8 <- [DW_OP_plus_uconst 80, DW_OP_deref_size 8, DW_OP_stack_value] $rsp
	#DEBUG_VALUE: k_start <- [DW_OP_plus_uconst 80, DW_OP_deref_size 8, DW_OP_constu 2, DW_OP_shl, DW_OP_stack_value] $rsp
	#DEBUG_VALUE: k_end <- [DW_OP_plus_uconst 80, DW_OP_deref_size 8, DW_OP_constu 2, DW_OP_shl, DW_OP_constu 1, DW_OP_or, DW_OP_stack_value] $rsp
	#DEBUG_VALUE: mb_pred_b_d8x8temporal:k <- $r14
	#DEBUG_VALUE: pred_dir <- [DW_OP_plus_uconst 36, DW_OP_deref] $rsp
	#DEBUG_VALUE: mb_pred_b_d8x8temporal:k <- [DW_OP_plus_uconst 72, DW_OP_deref_size 8, DW_OP_stack_value] $rsp
	movq	72(%rsp), %r14                  # 8-byte Reload
.Ltmp477:
	.loc	0 526 17 is_stmt 1              # ldecod_src/mb_prediction.c:526:17
	movzbl	decode_block_scan(%r14), %r9d
	.loc	0 526 38 is_stmt 0              # ldecod_src/mb_prediction.c:526:38
	movl	%r9d, %r8d
	andl	$3, %r8d
.Ltmp478:
	#DEBUG_VALUE: i <- $r8d
	.loc	0 527 38 is_stmt 1              # ldecod_src/mb_prediction.c:527:38
	shrl	$2, %r9d
	.loc	0 527 44 is_stmt 0              # ldecod_src/mb_prediction.c:527:44
	andl	$3, %r9d
.Ltmp479:
	#DEBUG_VALUE: j <- $r9d
	.loc	0 528 7 is_stmt 1               # ldecod_src/mb_prediction.c:528:7
	movq	%rbx, %rdi
	movl	12(%rsp), %esi                  # 4-byte Reload
	movq	16(%rsp), %rdx                  # 8-byte Reload
	movl	36(%rsp), %ecx                  # 4-byte Reload
	pushq	$8
.Ltmp480:
	.cfi_adjust_cfa_offset 8
	pushq	$8
	.cfi_adjust_cfa_offset 8
	callq	perform_mc@PLT
.Ltmp481:
	#DEBUG_VALUE: mb_pred_b_d8x8temporal:k <- [DW_OP_plus_uconst 72, DW_OP_deref_size 8, DW_OP_plus_uconst 1, DW_OP_stack_value] $rsp
	addq	$16, %rsp
.Ltmp482:
	.cfi_adjust_cfa_offset -16
	.loc	0 0 7 is_stmt 0                 # ldecod_src/mb_prediction.c:0:7
	movq	80(%rsp), %rax                  # 8-byte Reload
.Ltmp483:
	.loc	0 366 40 is_stmt 1              # ldecod_src/mb_prediction.c:366:40
	incq	%rax
.Ltmp484:
	#DEBUG_VALUE: mb_pred_b_d8x8temporal:block8x8 <- $rax
	.loc	0 366 3 is_stmt 0               # ldecod_src/mb_prediction.c:366:3
	addq	$4, %r14
	addq	$4, 40(%rsp)                    # 8-byte Folded Spill
.Ltmp485:
	.loc	0 366 28                        # ldecod_src/mb_prediction.c:366:28
	cmpq	$4, %rax
.Ltmp486:
	.loc	0 366 3                         # ldecod_src/mb_prediction.c:366:3
	je	.LBB10_72
.Ltmp487:
.LBB10_2:                               # %for.body
                                        # =>This Loop Header: Depth=1
                                        #     Child Loop BB10_5 Depth 2
                                        #       Child Loop BB10_37 Depth 3
                                        #       Child Loop BB10_24 Depth 3
	#DEBUG_VALUE: mb_pred_b_d8x8temporal:currMB <- $rbx
	#DEBUG_VALUE: mb_pred_b_d8x8temporal:curr_plane <- [DW_OP_plus_uconst 12] [$rsp+0]
	#DEBUG_VALUE: mb_pred_b_d8x8temporal:currImg <- [DW_OP_plus_uconst 48] [$rsp+0]
	#DEBUG_VALUE: mb_pred_b_d8x8temporal:dec_picture <- [DW_OP_plus_uconst 16] [$rsp+0]
	#DEBUG_VALUE: mb_pred_b_d8x8temporal:currSlice <- $r13
	#DEBUG_VALUE: mb_pred_b_d8x8temporal:p_Vid <- [DW_OP_plus_uconst 24, DW_OP_deref] $rsp
	#DEBUG_VALUE: mb_pred_b_d8x8temporal:list0 <- [DW_OP_plus_uconst 96, DW_OP_deref] $rsp
	#DEBUG_VALUE: mb_pred_b_d8x8temporal:list1 <- $r15
	#DEBUG_VALUE: mb_pred_b_d8x8temporal:block8x8 <- $rax
	.loc	0 0 3                           # ldecod_src/mb_prediction.c:0:3
	movq	%rax, 80(%rsp)                  # 8-byte Spill
.Ltmp488:
	#DEBUG_VALUE: mb_pred_b_d8x8temporal:block8x8 <- [DW_OP_plus_uconst 80, DW_OP_deref_size 8, DW_OP_stack_value] $rsp
	.loc	0 368 20 is_stmt 1              # ldecod_src/mb_prediction.c:368:20
	movsbl	368(%rbx,%rax), %eax
.Ltmp489:
	#DEBUG_VALUE: k_start <- [DW_OP_plus_uconst 80, DW_OP_deref_size 8, DW_OP_constu 2, DW_OP_shl, DW_OP_stack_value] $rsp
	#DEBUG_VALUE: k_end <- [DW_OP_plus_uconst 80, DW_OP_deref_size 8, DW_OP_constu 2, DW_OP_shl, DW_OP_constu 1, DW_OP_or, DW_OP_stack_value] $rsp
	#DEBUG_VALUE: mb_pred_b_d8x8temporal:k <- [DW_OP_plus_uconst 80, DW_OP_deref_size 8, DW_OP_constu 2, DW_OP_shl, DW_OP_stack_value] $rsp
	#DEBUG_VALUE: pred_dir <- $eax
	.loc	0 0 20 is_stmt 0                # ldecod_src/mb_prediction.c:0:20
	movl	%eax, 36(%rsp)                  # 4-byte Spill
.Ltmp490:
	#DEBUG_VALUE: pred_dir <- [DW_OP_plus_uconst 36, DW_OP_deref] $rsp
	movq	%r14, 72(%rsp)                  # 8-byte Spill
	jmp	.LBB10_5
.Ltmp491:
	.p2align	4, 0x90
.LBB10_3:                               # %if.then290
                                        #   in Loop: Header=BB10_5 Depth=2
	#DEBUG_VALUE: mb_pred_b_d8x8temporal:currMB <- $rbx
	#DEBUG_VALUE: mb_pred_b_d8x8temporal:curr_plane <- [DW_OP_plus_uconst 12] [$rsp+0]
	#DEBUG_VALUE: mb_pred_b_d8x8temporal:currImg <- [DW_OP_plus_uconst 48] [$rsp+0]
	#DEBUG_VALUE: mb_pred_b_d8x8temporal:dec_picture <- [DW_OP_plus_uconst 16] [$rsp+0]
	#DEBUG_VALUE: mb_pred_b_d8x8temporal:currSlice <- $r13
	#DEBUG_VALUE: mb_pred_b_d8x8temporal:p_Vid <- [DW_OP_plus_uconst 24, DW_OP_deref] $rsp
	#DEBUG_VALUE: mb_pred_b_d8x8temporal:colocated <- $rax
	#DEBUG_VALUE: mb_pred_b_d8x8temporal:list0 <- [DW_OP_plus_uconst 96, DW_OP_deref] $rsp
	#DEBUG_VALUE: mb_pred_b_d8x8temporal:list1 <- $r15
	#DEBUG_VALUE: mb_pred_b_d8x8temporal:block8x8 <- [DW_OP_plus_uconst 80, DW_OP_deref_size 8, DW_OP_stack_value] $rsp
	#DEBUG_VALUE: k_start <- [DW_OP_plus_uconst 80, DW_OP_deref_size 8, DW_OP_constu 2, DW_OP_shl, DW_OP_stack_value] $rsp
	#DEBUG_VALUE: k_end <- [DW_OP_plus_uconst 80, DW_OP_deref_size 8, DW_OP_constu 2, DW_OP_shl, DW_OP_constu 1, DW_OP_or, DW_OP_stack_value] $rsp
	#DEBUG_VALUE: mb_pred_b_d8x8temporal:k <- $r14
	#DEBUG_VALUE: pred_dir <- [DW_OP_plus_uconst 36, DW_OP_deref] $rsp
	.loc	0 438 31 is_stmt 1              # ldecod_src/mb_prediction.c:438:31
	movw	$0, 24(%r12)
	movq	$0, 16(%r12)
	xorl	%eax, %eax
.Ltmp492:
	.loc	0 0 31 is_stmt 0                # ldecod_src/mb_prediction.c:0:31
	xorl	%ecx, %ecx
.Ltmp493:
.LBB10_4:                               # %if.end577
                                        #   in Loop: Header=BB10_5 Depth=2
	#DEBUG_VALUE: mb_pred_b_d8x8temporal:currMB <- $rbx
	#DEBUG_VALUE: mb_pred_b_d8x8temporal:curr_plane <- [DW_OP_plus_uconst 12] [$rsp+0]
	#DEBUG_VALUE: mb_pred_b_d8x8temporal:currImg <- [DW_OP_plus_uconst 48] [$rsp+0]
	#DEBUG_VALUE: mb_pred_b_d8x8temporal:dec_picture <- [DW_OP_plus_uconst 16] [$rsp+0]
	#DEBUG_VALUE: mb_pred_b_d8x8temporal:currSlice <- $r13
	#DEBUG_VALUE: mb_pred_b_d8x8temporal:p_Vid <- [DW_OP_plus_uconst 24, DW_OP_deref] $rsp
	#DEBUG_VALUE: mb_pred_b_d8x8temporal:list0 <- [DW_OP_plus_uconst 96, DW_OP_deref] $rsp
	#DEBUG_VALUE: mb_pred_b_d8x8temporal:list1 <- $r15
	#DEBUG_VALUE: mb_pred_b_d8x8temporal:block8x8 <- [DW_OP_plus_uconst 80, DW_OP_deref_size 8, DW_OP_stack_value] $rsp
	#DEBUG_VALUE: k_start <- [DW_OP_plus_uconst 80, DW_OP_deref_size 8, DW_OP_constu 2, DW_OP_shl, DW_OP_stack_value] $rsp
	#DEBUG_VALUE: k_end <- [DW_OP_plus_uconst 80, DW_OP_deref_size 8, DW_OP_constu 2, DW_OP_shl, DW_OP_constu 1, DW_OP_or, DW_OP_stack_value] $rsp
	#DEBUG_VALUE: mb_pred_b_d8x8temporal:k <- $r14
	#DEBUG_VALUE: pred_dir <- [DW_OP_plus_uconst 36, DW_OP_deref] $rsp
	.loc	0 520 34 is_stmt 1              # ldecod_src/mb_prediction.c:520:34
	movsbq	%cl, %rcx
	movq	96(%rsp), %rdx                  # 8-byte Reload
	movq	(%rdx,%rcx,8), %rcx
	.loc	0 520 32 is_stmt 0              # ldecod_src/mb_prediction.c:520:32
	movq	%rcx, (%r12)
	.loc	0 521 34 is_stmt 1              # ldecod_src/mb_prediction.c:521:34
	movsbq	%al, %rax
	movq	(%r15,%rax,8), %rax
	.loc	0 521 32 is_stmt 0              # ldecod_src/mb_prediction.c:521:32
	movq	%rax, 8(%r12)
.Ltmp494:
	.loc	0 373 55 is_stmt 1              # ldecod_src/mb_prediction.c:373:55
	incq	%r14
.Ltmp495:
	#DEBUG_VALUE: mb_pred_b_d8x8temporal:k <- $r14
	.loc	0 373 25 is_stmt 0              # ldecod_src/mb_prediction.c:373:25
	cmpq	40(%rsp), %r14                  # 8-byte Folded Reload
.Ltmp496:
	.loc	0 373 5                         # ldecod_src/mb_prediction.c:373:5
	je	.LBB10_1
.Ltmp497:
.LBB10_5:                               # %for.body16
                                        #   Parent Loop BB10_2 Depth=1
                                        # =>  This Loop Header: Depth=2
                                        #       Child Loop BB10_37 Depth 3
                                        #       Child Loop BB10_24 Depth 3
	#DEBUG_VALUE: mb_pred_b_d8x8temporal:currMB <- $rbx
	#DEBUG_VALUE: mb_pred_b_d8x8temporal:curr_plane <- [DW_OP_plus_uconst 12] [$rsp+0]
	#DEBUG_VALUE: mb_pred_b_d8x8temporal:currImg <- [DW_OP_plus_uconst 48] [$rsp+0]
	#DEBUG_VALUE: mb_pred_b_d8x8temporal:dec_picture <- [DW_OP_plus_uconst 16] [$rsp+0]
	#DEBUG_VALUE: mb_pred_b_d8x8temporal:currSlice <- $r13
	#DEBUG_VALUE: mb_pred_b_d8x8temporal:p_Vid <- [DW_OP_plus_uconst 24, DW_OP_deref] $rsp
	#DEBUG_VALUE: mb_pred_b_d8x8temporal:list0 <- [DW_OP_plus_uconst 96, DW_OP_deref] $rsp
	#DEBUG_VALUE: mb_pred_b_d8x8temporal:list1 <- $r15
	#DEBUG_VALUE: mb_pred_b_d8x8temporal:block8x8 <- [DW_OP_plus_uconst 80, DW_OP_deref_size 8, DW_OP_stack_value] $rsp
	#DEBUG_VALUE: k_start <- [DW_OP_plus_uconst 80, DW_OP_deref_size 8, DW_OP_constu 2, DW_OP_shl, DW_OP_stack_value] $rsp
	#DEBUG_VALUE: k_end <- [DW_OP_plus_uconst 80, DW_OP_deref_size 8, DW_OP_constu 2, DW_OP_shl, DW_OP_constu 1, DW_OP_or, DW_OP_stack_value] $rsp
	#DEBUG_VALUE: pred_dir <- [DW_OP_plus_uconst 36, DW_OP_deref] $rsp
	#DEBUG_VALUE: mb_pred_b_d8x8temporal:k <- $r14
	.loc	0 0 5                           # ldecod_src/mb_prediction.c:0:5
	movzbl	decode_block_scan(%r14), %ecx
.Ltmp498:
	.loc	0 376 34 is_stmt 1              # ldecod_src/mb_prediction.c:376:34
	movl	%ecx, %edx
	andl	$3, %edx
.Ltmp499:
	#DEBUG_VALUE: mb_pred_b_d8x8temporal:i <- $edx
	.loc	0 377 34                        # ldecod_src/mb_prediction.c:377:34
	shrl	$2, %ecx
	.loc	0 377 40 is_stmt 0              # ldecod_src/mb_prediction.c:377:40
	andl	$3, %ecx
.Ltmp500:
	#DEBUG_VALUE: mb_pred_b_d8x8temporal:j <- [DW_OP_LLVM_convert 64 7, DW_OP_LLVM_convert 32 7] $ecx
	.loc	0 378 22 is_stmt 1              # ldecod_src/mb_prediction.c:378:22
	movslq	32(%rbx), %rax
	.loc	0 378 30 is_stmt 0              # ldecod_src/mb_prediction.c:378:30
	addq	%rdx, %rax
.Ltmp501:
	#DEBUG_VALUE: mb_pred_b_d8x8temporal:i4 <- $eax
	.loc	0 379 22 is_stmt 1              # ldecod_src/mb_prediction.c:379:22
	movslq	36(%rbx), %rsi
	.loc	0 379 30 is_stmt 0              # ldecod_src/mb_prediction.c:379:30
	addq	%rcx, %rsi
.Ltmp502:
	#DEBUG_VALUE: mb_pred_b_d8x8temporal:j4 <- $rsi
	.loc	0 380 22 is_stmt 1              # ldecod_src/mb_prediction.c:380:22
	movslq	40(%rbx), %rdi
	.loc	0 380 34 is_stmt 0              # ldecod_src/mb_prediction.c:380:34
	addq	%rcx, %rdi
.Ltmp503:
	#DEBUG_VALUE: mb_pred_b_d8x8temporal:j6 <- $edi
	.loc	0 0 34                          # ldecod_src/mb_prediction.c:0:34
	movq	16(%rsp), %rcx                  # 8-byte Reload
.Ltmp504:
	.loc	0 381 31 is_stmt 1              # ldecod_src/mb_prediction.c:381:31
	movq	152(%rcx), %rcx
	.loc	0 381 18 is_stmt 0              # ldecod_src/mb_prediction.c:381:18
	movq	%rax, %rdx
.Ltmp505:
	shlq	$5, %rdx
	movq	(%rcx,%rsi,8), %r12
	addq	%rdx, %r12
.Ltmp506:
	#DEBUG_VALUE: mb_pred_b_d8x8temporal:mv_info <- undef
	.loc	0 382 20 is_stmt 1              # ldecod_src/mb_prediction.c:382:20
	movq	(%r15), %r9
	.loc	0 382 30 is_stmt 0              # ldecod_src/mb_prediction.c:382:30
	movq	152(%r9), %rcx
.Ltmp507:
	#DEBUG_VALUE: RSD:x <- $edi
	.loc	3 238 10 is_stmt 1              # ldecod_src/inc/ifunctions.h:238:10
	movl	%edi, %esi
.Ltmp508:
	andl	$-2, %esi
	movl	%edi, %r8d
	shrl	%r8d
	andl	$1, %r8d
	orl	%esi, %r8d
.Ltmp509:
	.loc	0 382 20                        # ldecod_src/mb_prediction.c:382:20
	movslq	%r8d, %r8
.Ltmp510:
	#DEBUG_VALUE: RSD:x <- $eax
	.loc	3 238 10                        # ldecod_src/inc/ifunctions.h:238:10
	movl	%eax, %esi
	andl	$-2, %esi
	shrl	%eax
.Ltmp511:
	andl	$1, %eax
	orl	%esi, %eax
.Ltmp512:
	.loc	0 382 20                        # ldecod_src/mb_prediction.c:382:20
	movslq	%eax, %rsi
	shlq	$5, %rsi
	movq	(%rcx,%r8,8), %rax
	addq	%rsi, %rax
.Ltmp513:
	#DEBUG_VALUE: mb_pred_b_d8x8temporal:colocated <- undef
	.loc	0 383 21                        # ldecod_src/mb_prediction.c:383:21
	movl	128(%r13), %ecx
	.loc	0 383 10 is_stmt 0              # ldecod_src/mb_prediction.c:383:10
	testl	%ecx, %ecx
.Ltmp514:
	.loc	0 383 10                        # ldecod_src/mb_prediction.c:383:10
	je	.LBB10_13
.Ltmp515:
# %bb.6:                                # %if.then
                                        #   in Loop: Header=BB10_5 Depth=2
	#DEBUG_VALUE: mb_pred_b_d8x8temporal:currMB <- $rbx
	#DEBUG_VALUE: mb_pred_b_d8x8temporal:curr_plane <- [DW_OP_plus_uconst 12] [$rsp+0]
	#DEBUG_VALUE: mb_pred_b_d8x8temporal:currImg <- [DW_OP_plus_uconst 48] [$rsp+0]
	#DEBUG_VALUE: mb_pred_b_d8x8temporal:dec_picture <- [DW_OP_plus_uconst 16] [$rsp+0]
	#DEBUG_VALUE: mb_pred_b_d8x8temporal:currSlice <- $r13
	#DEBUG_VALUE: mb_pred_b_d8x8temporal:p_Vid <- [DW_OP_plus_uconst 24, DW_OP_deref] $rsp
	#DEBUG_VALUE: mb_pred_b_d8x8temporal:list0 <- [DW_OP_plus_uconst 96, DW_OP_deref] $rsp
	#DEBUG_VALUE: mb_pred_b_d8x8temporal:list1 <- $r15
	#DEBUG_VALUE: mb_pred_b_d8x8temporal:block8x8 <- [DW_OP_plus_uconst 80, DW_OP_deref_size 8, DW_OP_stack_value] $rsp
	#DEBUG_VALUE: k_start <- [DW_OP_plus_uconst 80, DW_OP_deref_size 8, DW_OP_constu 2, DW_OP_shl, DW_OP_stack_value] $rsp
	#DEBUG_VALUE: k_end <- [DW_OP_plus_uconst 80, DW_OP_deref_size 8, DW_OP_constu 2, DW_OP_shl, DW_OP_constu 1, DW_OP_or, DW_OP_stack_value] $rsp
	#DEBUG_VALUE: mb_pred_b_d8x8temporal:k <- $r14
	#DEBUG_VALUE: pred_dir <- [DW_OP_plus_uconst 36, DW_OP_deref] $rsp
	#DEBUG_VALUE: mb_pred_b_d8x8temporal:j6 <- $edi
	.loc	0 386 13 is_stmt 1              # ldecod_src/mb_prediction.c:386:13
	cmpl	$0, 384(%rbx)
	.loc	0 386 30 is_stmt 0              # ldecod_src/mb_prediction.c:386:30
	jne	.LBB10_14
.Ltmp516:
# %bb.7:                                # %land.lhs.true
                                        #   in Loop: Header=BB10_5 Depth=2
	#DEBUG_VALUE: mb_pred_b_d8x8temporal:currMB <- $rbx
	#DEBUG_VALUE: mb_pred_b_d8x8temporal:curr_plane <- [DW_OP_plus_uconst 12] [$rsp+0]
	#DEBUG_VALUE: mb_pred_b_d8x8temporal:currImg <- [DW_OP_plus_uconst 48] [$rsp+0]
	#DEBUG_VALUE: mb_pred_b_d8x8temporal:dec_picture <- [DW_OP_plus_uconst 16] [$rsp+0]
	#DEBUG_VALUE: mb_pred_b_d8x8temporal:currSlice <- $r13
	#DEBUG_VALUE: mb_pred_b_d8x8temporal:p_Vid <- [DW_OP_plus_uconst 24, DW_OP_deref] $rsp
	#DEBUG_VALUE: mb_pred_b_d8x8temporal:list0 <- [DW_OP_plus_uconst 96, DW_OP_deref] $rsp
	#DEBUG_VALUE: mb_pred_b_d8x8temporal:list1 <- $r15
	#DEBUG_VALUE: mb_pred_b_d8x8temporal:block8x8 <- [DW_OP_plus_uconst 80, DW_OP_deref_size 8, DW_OP_stack_value] $rsp
	#DEBUG_VALUE: k_start <- [DW_OP_plus_uconst 80, DW_OP_deref_size 8, DW_OP_constu 2, DW_OP_shl, DW_OP_stack_value] $rsp
	#DEBUG_VALUE: k_end <- [DW_OP_plus_uconst 80, DW_OP_deref_size 8, DW_OP_constu 2, DW_OP_shl, DW_OP_constu 1, DW_OP_or, DW_OP_stack_value] $rsp
	#DEBUG_VALUE: mb_pred_b_d8x8temporal:k <- $r14
	#DEBUG_VALUE: pred_dir <- [DW_OP_plus_uconst 36, DW_OP_deref] $rsp
	#DEBUG_VALUE: mb_pred_b_d8x8temporal:j6 <- $edi
	.loc	0 386 35                        # ldecod_src/mb_prediction.c:386:35
	movq	272(%r13), %r8
	movq	(%r8), %r8
	.loc	0 386 64                        # ldecod_src/mb_prediction.c:386:64
	movl	388(%r8), %r9d
	.loc	0 386 98                        # ldecod_src/mb_prediction.c:386:98
	cmpl	$1, %r9d
	je	.LBB10_10
.Ltmp517:
# %bb.8:                                # %land.lhs.true
                                        #   in Loop: Header=BB10_5 Depth=2
	#DEBUG_VALUE: mb_pred_b_d8x8temporal:currMB <- $rbx
	#DEBUG_VALUE: mb_pred_b_d8x8temporal:curr_plane <- [DW_OP_plus_uconst 12] [$rsp+0]
	#DEBUG_VALUE: mb_pred_b_d8x8temporal:currImg <- [DW_OP_plus_uconst 48] [$rsp+0]
	#DEBUG_VALUE: mb_pred_b_d8x8temporal:dec_picture <- [DW_OP_plus_uconst 16] [$rsp+0]
	#DEBUG_VALUE: mb_pred_b_d8x8temporal:currSlice <- $r13
	#DEBUG_VALUE: mb_pred_b_d8x8temporal:p_Vid <- [DW_OP_plus_uconst 24, DW_OP_deref] $rsp
	#DEBUG_VALUE: mb_pred_b_d8x8temporal:list0 <- [DW_OP_plus_uconst 96, DW_OP_deref] $rsp
	#DEBUG_VALUE: mb_pred_b_d8x8temporal:list1 <- $r15
	#DEBUG_VALUE: mb_pred_b_d8x8temporal:block8x8 <- [DW_OP_plus_uconst 80, DW_OP_deref_size 8, DW_OP_stack_value] $rsp
	#DEBUG_VALUE: k_start <- [DW_OP_plus_uconst 80, DW_OP_deref_size 8, DW_OP_constu 2, DW_OP_shl, DW_OP_stack_value] $rsp
	#DEBUG_VALUE: k_end <- [DW_OP_plus_uconst 80, DW_OP_deref_size 8, DW_OP_constu 2, DW_OP_shl, DW_OP_constu 1, DW_OP_or, DW_OP_stack_value] $rsp
	#DEBUG_VALUE: mb_pred_b_d8x8temporal:k <- $r14
	#DEBUG_VALUE: pred_dir <- [DW_OP_plus_uconst 36, DW_OP_deref] $rsp
	#DEBUG_VALUE: mb_pred_b_d8x8temporal:j6 <- $edi
	cmpl	$3, %r9d
	jne	.LBB10_14
.Ltmp518:
# %bb.9:                                # %land.lhs.true45
                                        #   in Loop: Header=BB10_5 Depth=2
	#DEBUG_VALUE: mb_pred_b_d8x8temporal:currMB <- $rbx
	#DEBUG_VALUE: mb_pred_b_d8x8temporal:curr_plane <- [DW_OP_plus_uconst 12] [$rsp+0]
	#DEBUG_VALUE: mb_pred_b_d8x8temporal:currImg <- [DW_OP_plus_uconst 48] [$rsp+0]
	#DEBUG_VALUE: mb_pred_b_d8x8temporal:dec_picture <- [DW_OP_plus_uconst 16] [$rsp+0]
	#DEBUG_VALUE: mb_pred_b_d8x8temporal:currSlice <- $r13
	#DEBUG_VALUE: mb_pred_b_d8x8temporal:p_Vid <- [DW_OP_plus_uconst 24, DW_OP_deref] $rsp
	#DEBUG_VALUE: mb_pred_b_d8x8temporal:list0 <- [DW_OP_plus_uconst 96, DW_OP_deref] $rsp
	#DEBUG_VALUE: mb_pred_b_d8x8temporal:list1 <- $r15
	#DEBUG_VALUE: mb_pred_b_d8x8temporal:block8x8 <- [DW_OP_plus_uconst 80, DW_OP_deref_size 8, DW_OP_stack_value] $rsp
	#DEBUG_VALUE: k_start <- [DW_OP_plus_uconst 80, DW_OP_deref_size 8, DW_OP_constu 2, DW_OP_shl, DW_OP_stack_value] $rsp
	#DEBUG_VALUE: k_end <- [DW_OP_plus_uconst 80, DW_OP_deref_size 8, DW_OP_constu 2, DW_OP_shl, DW_OP_constu 1, DW_OP_or, DW_OP_stack_value] $rsp
	#DEBUG_VALUE: mb_pred_b_d8x8temporal:k <- $r14
	#DEBUG_VALUE: pred_dir <- [DW_OP_plus_uconst 36, DW_OP_deref] $rsp
	#DEBUG_VALUE: mb_pred_b_d8x8temporal:j6 <- $edi
	.loc	0 386 137                       # ldecod_src/mb_prediction.c:386:137
	movq	184(%r8), %r8
	.loc	0 386 154                       # ldecod_src/mb_prediction.c:386:154
	movslq	24(%rbx), %r9
	.loc	0 386 101                       # ldecod_src/mb_prediction.c:386:101
	cmpb	$0, (%r8,%r9)
	.loc	0 386 164                       # ldecod_src/mb_prediction.c:386:164
	je	.LBB10_14
.Ltmp519:
.LBB10_10:                              # %if.then60
                                        #   in Loop: Header=BB10_5 Depth=2
	#DEBUG_VALUE: mb_pred_b_d8x8temporal:currMB <- $rbx
	#DEBUG_VALUE: mb_pred_b_d8x8temporal:curr_plane <- [DW_OP_plus_uconst 12] [$rsp+0]
	#DEBUG_VALUE: mb_pred_b_d8x8temporal:currImg <- [DW_OP_plus_uconst 48] [$rsp+0]
	#DEBUG_VALUE: mb_pred_b_d8x8temporal:dec_picture <- [DW_OP_plus_uconst 16] [$rsp+0]
	#DEBUG_VALUE: mb_pred_b_d8x8temporal:currSlice <- $r13
	#DEBUG_VALUE: mb_pred_b_d8x8temporal:p_Vid <- [DW_OP_plus_uconst 24, DW_OP_deref] $rsp
	#DEBUG_VALUE: mb_pred_b_d8x8temporal:list0 <- [DW_OP_plus_uconst 96, DW_OP_deref] $rsp
	#DEBUG_VALUE: mb_pred_b_d8x8temporal:list1 <- $r15
	#DEBUG_VALUE: mb_pred_b_d8x8temporal:block8x8 <- [DW_OP_plus_uconst 80, DW_OP_deref_size 8, DW_OP_stack_value] $rsp
	#DEBUG_VALUE: k_start <- [DW_OP_plus_uconst 80, DW_OP_deref_size 8, DW_OP_constu 2, DW_OP_shl, DW_OP_stack_value] $rsp
	#DEBUG_VALUE: k_end <- [DW_OP_plus_uconst 80, DW_OP_deref_size 8, DW_OP_constu 2, DW_OP_shl, DW_OP_constu 1, DW_OP_or, DW_OP_stack_value] $rsp
	#DEBUG_VALUE: mb_pred_b_d8x8temporal:k <- $r14
	#DEBUG_VALUE: pred_dir <- [DW_OP_plus_uconst 36, DW_OP_deref] $rsp
	#DEBUG_VALUE: mb_pred_b_d8x8temporal:j6 <- $edi
	.loc	0 0 164                         # ldecod_src/mb_prediction.c:0:164
	movq	16(%rsp), %rax                  # 8-byte Reload
.Ltmp520:
	.loc	0 389 33 is_stmt 1              # ldecod_src/mb_prediction.c:389:33
	movl	4(%rax), %r9d
	.loc	0 389 99 is_stmt 0              # ldecod_src/mb_prediction.c:389:99
	movq	288(%r13), %r8
	.loc	0 389 39                        # ldecod_src/mb_prediction.c:389:39
	movq	304(%r13), %rax
	movq	(%rax), %rax
	.loc	0 389 37                        # ldecod_src/mb_prediction.c:389:37
	movl	%r9d, %r10d
	subl	4(%rax), %r10d
.Ltmp521:
	#DEBUG_VALUE: iabs:x <- $r10d
	#DEBUG_VALUE: iabs:y <- [DW_OP_constu 31, DW_OP_shra, DW_OP_stack_value] $r10d
	.loc	3 120 18 is_stmt 1              # ldecod_src/inc/ifunctions.h:120:18
	movl	%r10d, %r11d
	negl	%r11d
	cmovsl	%r10d, %r11d
.Ltmp522:
	.loc	0 389 99                        # ldecod_src/mb_prediction.c:389:99
	movq	(%r8), %r8
	.loc	0 389 98 is_stmt 0              # ldecod_src/mb_prediction.c:389:98
	subl	4(%r8), %r9d
.Ltmp523:
	#DEBUG_VALUE: iabs:x <- $r9d
	#DEBUG_VALUE: iabs:y <- [DW_OP_constu 31, DW_OP_shra, DW_OP_stack_value] $r9d
	.loc	3 120 18 is_stmt 1              # ldecod_src/inc/ifunctions.h:120:18
	movl	%r9d, %r10d
.Ltmp524:
	negl	%r10d
	cmovsl	%r9d, %r10d
.Ltmp525:
	.loc	0 0 0 is_stmt 0                 # ldecod_src/mb_prediction.c:0:0
	sarl	%edi
.Ltmp526:
	movq	24(%rsp), %r9                   # 8-byte Reload
.Ltmp527:
	movq	16(%r9), %r9
	movl	3144(%r9), %r9d
	movslq	%edi, %rdi
	.loc	0 389 74 is_stmt 1              # ldecod_src/mb_prediction.c:389:74
	cmpl	%r10d, %r11d
.Ltmp528:
	.loc	0 389 15 is_stmt 0              # ldecod_src/mb_prediction.c:389:15
	jbe	.LBB10_49
.Ltmp529:
# %bb.11:                               # %if.then75
                                        #   in Loop: Header=BB10_5 Depth=2
	#DEBUG_VALUE: mb_pred_b_d8x8temporal:currMB <- $rbx
	#DEBUG_VALUE: mb_pred_b_d8x8temporal:curr_plane <- [DW_OP_plus_uconst 12] [$rsp+0]
	#DEBUG_VALUE: mb_pred_b_d8x8temporal:currImg <- [DW_OP_plus_uconst 48] [$rsp+0]
	#DEBUG_VALUE: mb_pred_b_d8x8temporal:dec_picture <- [DW_OP_plus_uconst 16] [$rsp+0]
	#DEBUG_VALUE: mb_pred_b_d8x8temporal:currSlice <- $r13
	#DEBUG_VALUE: mb_pred_b_d8x8temporal:p_Vid <- [DW_OP_plus_uconst 24, DW_OP_deref] $rsp
	#DEBUG_VALUE: mb_pred_b_d8x8temporal:list0 <- [DW_OP_plus_uconst 96, DW_OP_deref] $rsp
	#DEBUG_VALUE: mb_pred_b_d8x8temporal:list1 <- $r15
	#DEBUG_VALUE: mb_pred_b_d8x8temporal:block8x8 <- [DW_OP_plus_uconst 80, DW_OP_deref_size 8, DW_OP_stack_value] $rsp
	#DEBUG_VALUE: k_start <- [DW_OP_plus_uconst 80, DW_OP_deref_size 8, DW_OP_constu 2, DW_OP_shl, DW_OP_stack_value] $rsp
	#DEBUG_VALUE: k_end <- [DW_OP_plus_uconst 80, DW_OP_deref_size 8, DW_OP_constu 2, DW_OP_shl, DW_OP_constu 1, DW_OP_or, DW_OP_stack_value] $rsp
	#DEBUG_VALUE: mb_pred_b_d8x8temporal:k <- $r14
	#DEBUG_VALUE: pred_dir <- [DW_OP_plus_uconst 36, DW_OP_deref] $rsp
	.loc	0 392 0 is_stmt 1               # ldecod_src/mb_prediction.c:392:0
	movq	152(%r8), %rax
	movq	(%rax,%rdi,8), %rax
.Ltmp530:
	.loc	0 0 0 is_stmt 0                 # ldecod_src/mb_prediction.c:0:0
	testl	%r9d, %r9d
.Ltmp531:
	.loc	0 391 26 is_stmt 1              # ldecod_src/mb_prediction.c:391:26
	jne	.LBB10_12
.Ltmp532:
.LBB10_62:                              # %cond.false
                                        #   in Loop: Header=BB10_5 Depth=2
	#DEBUG_VALUE: mb_pred_b_d8x8temporal:currMB <- $rbx
	#DEBUG_VALUE: mb_pred_b_d8x8temporal:curr_plane <- [DW_OP_plus_uconst 12] [$rsp+0]
	#DEBUG_VALUE: mb_pred_b_d8x8temporal:currImg <- [DW_OP_plus_uconst 48] [$rsp+0]
	#DEBUG_VALUE: mb_pred_b_d8x8temporal:dec_picture <- [DW_OP_plus_uconst 16] [$rsp+0]
	#DEBUG_VALUE: mb_pred_b_d8x8temporal:currSlice <- $r13
	#DEBUG_VALUE: mb_pred_b_d8x8temporal:p_Vid <- [DW_OP_plus_uconst 24, DW_OP_deref] $rsp
	#DEBUG_VALUE: mb_pred_b_d8x8temporal:list0 <- [DW_OP_plus_uconst 96, DW_OP_deref] $rsp
	#DEBUG_VALUE: mb_pred_b_d8x8temporal:list1 <- $r15
	#DEBUG_VALUE: mb_pred_b_d8x8temporal:block8x8 <- [DW_OP_plus_uconst 80, DW_OP_deref_size 8, DW_OP_stack_value] $rsp
	#DEBUG_VALUE: k_start <- [DW_OP_plus_uconst 80, DW_OP_deref_size 8, DW_OP_constu 2, DW_OP_shl, DW_OP_stack_value] $rsp
	#DEBUG_VALUE: k_end <- [DW_OP_plus_uconst 80, DW_OP_deref_size 8, DW_OP_constu 2, DW_OP_shl, DW_OP_constu 1, DW_OP_or, DW_OP_stack_value] $rsp
	#DEBUG_VALUE: mb_pred_b_d8x8temporal:k <- $r14
	#DEBUG_VALUE: pred_dir <- [DW_OP_plus_uconst 36, DW_OP_deref] $rsp
	.loc	0 0 0 is_stmt 0                 # ldecod_src/mb_prediction.c:0:0
	addq	%rdx, %rax
.Ltmp533:
	.loc	0 411 26 is_stmt 1              # ldecod_src/mb_prediction.c:411:26
	jmp	.LBB10_14
.Ltmp534:
	.p2align	4, 0x90
.LBB10_13:                              # %if.else125
                                        #   in Loop: Header=BB10_5 Depth=2
	#DEBUG_VALUE: mb_pred_b_d8x8temporal:currMB <- $rbx
	#DEBUG_VALUE: mb_pred_b_d8x8temporal:curr_plane <- [DW_OP_plus_uconst 12] [$rsp+0]
	#DEBUG_VALUE: mb_pred_b_d8x8temporal:currImg <- [DW_OP_plus_uconst 48] [$rsp+0]
	#DEBUG_VALUE: mb_pred_b_d8x8temporal:dec_picture <- [DW_OP_plus_uconst 16] [$rsp+0]
	#DEBUG_VALUE: mb_pred_b_d8x8temporal:currSlice <- $r13
	#DEBUG_VALUE: mb_pred_b_d8x8temporal:p_Vid <- [DW_OP_plus_uconst 24, DW_OP_deref] $rsp
	#DEBUG_VALUE: mb_pred_b_d8x8temporal:list0 <- [DW_OP_plus_uconst 96, DW_OP_deref] $rsp
	#DEBUG_VALUE: mb_pred_b_d8x8temporal:list1 <- $r15
	#DEBUG_VALUE: mb_pred_b_d8x8temporal:block8x8 <- [DW_OP_plus_uconst 80, DW_OP_deref_size 8, DW_OP_stack_value] $rsp
	#DEBUG_VALUE: k_start <- [DW_OP_plus_uconst 80, DW_OP_deref_size 8, DW_OP_constu 2, DW_OP_shl, DW_OP_stack_value] $rsp
	#DEBUG_VALUE: k_end <- [DW_OP_plus_uconst 80, DW_OP_deref_size 8, DW_OP_constu 2, DW_OP_shl, DW_OP_constu 1, DW_OP_or, DW_OP_stack_value] $rsp
	#DEBUG_VALUE: mb_pred_b_d8x8temporal:k <- $r14
	#DEBUG_VALUE: pred_dir <- [DW_OP_plus_uconst 36, DW_OP_deref] $rsp
	#DEBUG_VALUE: mb_pred_b_d8x8temporal:j6 <- $edi
	.loc	0 0 26 is_stmt 0                # ldecod_src/mb_prediction.c:0:26
	movq	24(%rsp), %r10                  # 8-byte Reload
	.loc	0 401 60 is_stmt 1              # ldecod_src/mb_prediction.c:401:60
	movq	16(%r10), %r10
	.loc	0 401 53 is_stmt 0              # ldecod_src/mb_prediction.c:401:53
	cmpl	$0, 3136(%r10)
	.loc	0 401 92                        # ldecod_src/mb_prediction.c:401:92
	jne	.LBB10_14
.Ltmp535:
# %bb.28:                               # %land.lhs.true128
                                        #   in Loop: Header=BB10_5 Depth=2
	#DEBUG_VALUE: mb_pred_b_d8x8temporal:currMB <- $rbx
	#DEBUG_VALUE: mb_pred_b_d8x8temporal:curr_plane <- [DW_OP_plus_uconst 12] [$rsp+0]
	#DEBUG_VALUE: mb_pred_b_d8x8temporal:currImg <- [DW_OP_plus_uconst 48] [$rsp+0]
	#DEBUG_VALUE: mb_pred_b_d8x8temporal:dec_picture <- [DW_OP_plus_uconst 16] [$rsp+0]
	#DEBUG_VALUE: mb_pred_b_d8x8temporal:currSlice <- $r13
	#DEBUG_VALUE: mb_pred_b_d8x8temporal:p_Vid <- [DW_OP_plus_uconst 24, DW_OP_deref] $rsp
	#DEBUG_VALUE: mb_pred_b_d8x8temporal:list0 <- [DW_OP_plus_uconst 96, DW_OP_deref] $rsp
	#DEBUG_VALUE: mb_pred_b_d8x8temporal:list1 <- $r15
	#DEBUG_VALUE: mb_pred_b_d8x8temporal:block8x8 <- [DW_OP_plus_uconst 80, DW_OP_deref_size 8, DW_OP_stack_value] $rsp
	#DEBUG_VALUE: k_start <- [DW_OP_plus_uconst 80, DW_OP_deref_size 8, DW_OP_constu 2, DW_OP_shl, DW_OP_stack_value] $rsp
	#DEBUG_VALUE: k_end <- [DW_OP_plus_uconst 80, DW_OP_deref_size 8, DW_OP_constu 2, DW_OP_shl, DW_OP_constu 1, DW_OP_or, DW_OP_stack_value] $rsp
	#DEBUG_VALUE: mb_pred_b_d8x8temporal:k <- $r14
	#DEBUG_VALUE: pred_dir <- [DW_OP_plus_uconst 36, DW_OP_deref] $rsp
	#DEBUG_VALUE: mb_pred_b_d8x8temporal:j6 <- $edi
	.loc	0 402 17 is_stmt 1              # ldecod_src/mb_prediction.c:402:17
	cmpl	$0, 176(%r13)
	.loc	0 402 43 is_stmt 0              # ldecod_src/mb_prediction.c:402:43
	je	.LBB10_58
.Ltmp536:
# %bb.29:                               # %land.lhs.true210
                                        #   in Loop: Header=BB10_5 Depth=2
	#DEBUG_VALUE: mb_pred_b_d8x8temporal:currMB <- $rbx
	#DEBUG_VALUE: mb_pred_b_d8x8temporal:curr_plane <- [DW_OP_plus_uconst 12] [$rsp+0]
	#DEBUG_VALUE: mb_pred_b_d8x8temporal:currImg <- [DW_OP_plus_uconst 48] [$rsp+0]
	#DEBUG_VALUE: mb_pred_b_d8x8temporal:dec_picture <- [DW_OP_plus_uconst 16] [$rsp+0]
	#DEBUG_VALUE: mb_pred_b_d8x8temporal:currSlice <- $r13
	#DEBUG_VALUE: mb_pred_b_d8x8temporal:p_Vid <- [DW_OP_plus_uconst 24, DW_OP_deref] $rsp
	#DEBUG_VALUE: mb_pred_b_d8x8temporal:list0 <- [DW_OP_plus_uconst 96, DW_OP_deref] $rsp
	#DEBUG_VALUE: mb_pred_b_d8x8temporal:list1 <- $r15
	#DEBUG_VALUE: mb_pred_b_d8x8temporal:block8x8 <- [DW_OP_plus_uconst 80, DW_OP_deref_size 8, DW_OP_stack_value] $rsp
	#DEBUG_VALUE: k_start <- [DW_OP_plus_uconst 80, DW_OP_deref_size 8, DW_OP_constu 2, DW_OP_shl, DW_OP_stack_value] $rsp
	#DEBUG_VALUE: k_end <- [DW_OP_plus_uconst 80, DW_OP_deref_size 8, DW_OP_constu 2, DW_OP_shl, DW_OP_constu 1, DW_OP_or, DW_OP_stack_value] $rsp
	#DEBUG_VALUE: mb_pred_b_d8x8temporal:k <- $r14
	#DEBUG_VALUE: pred_dir <- [DW_OP_plus_uconst 36, DW_OP_deref] $rsp
	#DEBUG_VALUE: mb_pred_b_d8x8temporal:j6 <- $edi
	.loc	0 415 98 is_stmt 1              # ldecod_src/mb_prediction.c:415:98
	movl	184(%r13), %r11d
	.loc	0 415 107 is_stmt 0             # ldecod_src/mb_prediction.c:415:107
	cmpl	(%r9), %r11d
	.loc	0 415 129                       # ldecod_src/mb_prediction.c:415:129
	je	.LBB10_14
.Ltmp537:
# %bb.30:                               # %land.lhs.true215
                                        #   in Loop: Header=BB10_5 Depth=2
	#DEBUG_VALUE: mb_pred_b_d8x8temporal:currMB <- $rbx
	#DEBUG_VALUE: mb_pred_b_d8x8temporal:curr_plane <- [DW_OP_plus_uconst 12] [$rsp+0]
	#DEBUG_VALUE: mb_pred_b_d8x8temporal:currImg <- [DW_OP_plus_uconst 48] [$rsp+0]
	#DEBUG_VALUE: mb_pred_b_d8x8temporal:dec_picture <- [DW_OP_plus_uconst 16] [$rsp+0]
	#DEBUG_VALUE: mb_pred_b_d8x8temporal:currSlice <- $r13
	#DEBUG_VALUE: mb_pred_b_d8x8temporal:p_Vid <- [DW_OP_plus_uconst 24, DW_OP_deref] $rsp
	#DEBUG_VALUE: mb_pred_b_d8x8temporal:list0 <- [DW_OP_plus_uconst 96, DW_OP_deref] $rsp
	#DEBUG_VALUE: mb_pred_b_d8x8temporal:list1 <- $r15
	#DEBUG_VALUE: mb_pred_b_d8x8temporal:block8x8 <- [DW_OP_plus_uconst 80, DW_OP_deref_size 8, DW_OP_stack_value] $rsp
	#DEBUG_VALUE: k_start <- [DW_OP_plus_uconst 80, DW_OP_deref_size 8, DW_OP_constu 2, DW_OP_shl, DW_OP_stack_value] $rsp
	#DEBUG_VALUE: k_end <- [DW_OP_plus_uconst 80, DW_OP_deref_size 8, DW_OP_constu 2, DW_OP_shl, DW_OP_constu 1, DW_OP_or, DW_OP_stack_value] $rsp
	#DEBUG_VALUE: mb_pred_b_d8x8temporal:k <- $r14
	#DEBUG_VALUE: pred_dir <- [DW_OP_plus_uconst 36, DW_OP_deref] $rsp
	#DEBUG_VALUE: mb_pred_b_d8x8temporal:j6 <- $edi
	.loc	0 415 132                       # ldecod_src/mb_prediction.c:415:132
	cmpl	$0, 96(%r9)
.Ltmp538:
	.loc	0 415 15                        # ldecod_src/mb_prediction.c:415:15
	je	.LBB10_14
.Ltmp539:
# %bb.31:                               # %if.then218
                                        #   in Loop: Header=BB10_5 Depth=2
	#DEBUG_VALUE: mb_pred_b_d8x8temporal:currMB <- $rbx
	#DEBUG_VALUE: mb_pred_b_d8x8temporal:curr_plane <- [DW_OP_plus_uconst 12] [$rsp+0]
	#DEBUG_VALUE: mb_pred_b_d8x8temporal:currImg <- [DW_OP_plus_uconst 48] [$rsp+0]
	#DEBUG_VALUE: mb_pred_b_d8x8temporal:dec_picture <- [DW_OP_plus_uconst 16] [$rsp+0]
	#DEBUG_VALUE: mb_pred_b_d8x8temporal:currSlice <- $r13
	#DEBUG_VALUE: mb_pred_b_d8x8temporal:p_Vid <- [DW_OP_plus_uconst 24, DW_OP_deref] $rsp
	#DEBUG_VALUE: mb_pred_b_d8x8temporal:list0 <- [DW_OP_plus_uconst 96, DW_OP_deref] $rsp
	#DEBUG_VALUE: mb_pred_b_d8x8temporal:list1 <- $r15
	#DEBUG_VALUE: mb_pred_b_d8x8temporal:block8x8 <- [DW_OP_plus_uconst 80, DW_OP_deref_size 8, DW_OP_stack_value] $rsp
	#DEBUG_VALUE: k_start <- [DW_OP_plus_uconst 80, DW_OP_deref_size 8, DW_OP_constu 2, DW_OP_shl, DW_OP_stack_value] $rsp
	#DEBUG_VALUE: k_end <- [DW_OP_plus_uconst 80, DW_OP_deref_size 8, DW_OP_constu 2, DW_OP_shl, DW_OP_constu 1, DW_OP_or, DW_OP_stack_value] $rsp
	#DEBUG_VALUE: mb_pred_b_d8x8temporal:k <- $r14
	#DEBUG_VALUE: pred_dir <- [DW_OP_plus_uconst 36, DW_OP_deref] $rsp
	#DEBUG_VALUE: mb_pred_b_d8x8temporal:j6 <- $edi
	.loc	0 0 0                           # ldecod_src/mb_prediction.c:0:0
	movl	3144(%r10), %eax
	movq	240(%r9), %r9
	.loc	0 417 36 is_stmt 1              # ldecod_src/mb_prediction.c:417:36
	cmpl	$1, %r11d
.Ltmp540:
	.loc	0 417 15 is_stmt 0              # ldecod_src/mb_prediction.c:417:15
	jne	.LBB10_66
.Ltmp541:
# %bb.32:                               # %if.then222
                                        #   in Loop: Header=BB10_5 Depth=2
	#DEBUG_VALUE: mb_pred_b_d8x8temporal:currMB <- $rbx
	#DEBUG_VALUE: mb_pred_b_d8x8temporal:curr_plane <- [DW_OP_plus_uconst 12] [$rsp+0]
	#DEBUG_VALUE: mb_pred_b_d8x8temporal:currImg <- [DW_OP_plus_uconst 48] [$rsp+0]
	#DEBUG_VALUE: mb_pred_b_d8x8temporal:dec_picture <- [DW_OP_plus_uconst 16] [$rsp+0]
	#DEBUG_VALUE: mb_pred_b_d8x8temporal:currSlice <- $r13
	#DEBUG_VALUE: mb_pred_b_d8x8temporal:p_Vid <- [DW_OP_plus_uconst 24, DW_OP_deref] $rsp
	#DEBUG_VALUE: mb_pred_b_d8x8temporal:list0 <- [DW_OP_plus_uconst 96, DW_OP_deref] $rsp
	#DEBUG_VALUE: mb_pred_b_d8x8temporal:list1 <- $r15
	#DEBUG_VALUE: mb_pred_b_d8x8temporal:block8x8 <- [DW_OP_plus_uconst 80, DW_OP_deref_size 8, DW_OP_stack_value] $rsp
	#DEBUG_VALUE: k_start <- [DW_OP_plus_uconst 80, DW_OP_deref_size 8, DW_OP_constu 2, DW_OP_shl, DW_OP_stack_value] $rsp
	#DEBUG_VALUE: k_end <- [DW_OP_plus_uconst 80, DW_OP_deref_size 8, DW_OP_constu 2, DW_OP_shl, DW_OP_constu 1, DW_OP_or, DW_OP_stack_value] $rsp
	#DEBUG_VALUE: mb_pred_b_d8x8temporal:k <- $r14
	#DEBUG_VALUE: pred_dir <- [DW_OP_plus_uconst 36, DW_OP_deref] $rsp
	#DEBUG_VALUE: mb_pred_b_d8x8temporal:j6 <- $edi
	.loc	0 420 0 is_stmt 1               # ldecod_src/mb_prediction.c:420:0
	movq	224(%r9), %r9
	movq	152(%r9), %r9
.Ltmp542:
	.loc	0 0 0 is_stmt 0                 # ldecod_src/mb_prediction.c:0:0
	testl	%eax, %eax
.Ltmp543:
	.loc	0 419 26 is_stmt 1              # ldecod_src/mb_prediction.c:419:26
	jne	.LBB10_67
.Ltmp544:
# %bb.33:                               # %cond.false236
                                        #   in Loop: Header=BB10_5 Depth=2
	#DEBUG_VALUE: mb_pred_b_d8x8temporal:currMB <- $rbx
	#DEBUG_VALUE: mb_pred_b_d8x8temporal:curr_plane <- [DW_OP_plus_uconst 12] [$rsp+0]
	#DEBUG_VALUE: mb_pred_b_d8x8temporal:currImg <- [DW_OP_plus_uconst 48] [$rsp+0]
	#DEBUG_VALUE: mb_pred_b_d8x8temporal:dec_picture <- [DW_OP_plus_uconst 16] [$rsp+0]
	#DEBUG_VALUE: mb_pred_b_d8x8temporal:currSlice <- $r13
	#DEBUG_VALUE: mb_pred_b_d8x8temporal:p_Vid <- [DW_OP_plus_uconst 24, DW_OP_deref] $rsp
	#DEBUG_VALUE: mb_pred_b_d8x8temporal:list0 <- [DW_OP_plus_uconst 96, DW_OP_deref] $rsp
	#DEBUG_VALUE: mb_pred_b_d8x8temporal:list1 <- $r15
	#DEBUG_VALUE: mb_pred_b_d8x8temporal:block8x8 <- [DW_OP_plus_uconst 80, DW_OP_deref_size 8, DW_OP_stack_value] $rsp
	#DEBUG_VALUE: k_start <- [DW_OP_plus_uconst 80, DW_OP_deref_size 8, DW_OP_constu 2, DW_OP_shl, DW_OP_stack_value] $rsp
	#DEBUG_VALUE: k_end <- [DW_OP_plus_uconst 80, DW_OP_deref_size 8, DW_OP_constu 2, DW_OP_shl, DW_OP_constu 1, DW_OP_or, DW_OP_stack_value] $rsp
	#DEBUG_VALUE: mb_pred_b_d8x8temporal:k <- $r14
	#DEBUG_VALUE: pred_dir <- [DW_OP_plus_uconst 36, DW_OP_deref] $rsp
	#DEBUG_VALUE: mb_pred_b_d8x8temporal:j6 <- $edi
	.loc	0 420 84                        # ldecod_src/mb_prediction.c:420:84
	addq	(%r9,%rdi,8), %rdx
	jmp	.LBB10_71
.Ltmp545:
.LBB10_49:                              # %if.else
                                        #   in Loop: Header=BB10_5 Depth=2
	#DEBUG_VALUE: mb_pred_b_d8x8temporal:currMB <- $rbx
	#DEBUG_VALUE: mb_pred_b_d8x8temporal:curr_plane <- [DW_OP_plus_uconst 12] [$rsp+0]
	#DEBUG_VALUE: mb_pred_b_d8x8temporal:currImg <- [DW_OP_plus_uconst 48] [$rsp+0]
	#DEBUG_VALUE: mb_pred_b_d8x8temporal:dec_picture <- [DW_OP_plus_uconst 16] [$rsp+0]
	#DEBUG_VALUE: mb_pred_b_d8x8temporal:currSlice <- $r13
	#DEBUG_VALUE: mb_pred_b_d8x8temporal:p_Vid <- [DW_OP_plus_uconst 24, DW_OP_deref] $rsp
	#DEBUG_VALUE: mb_pred_b_d8x8temporal:list0 <- [DW_OP_plus_uconst 96, DW_OP_deref] $rsp
	#DEBUG_VALUE: mb_pred_b_d8x8temporal:list1 <- $r15
	#DEBUG_VALUE: mb_pred_b_d8x8temporal:block8x8 <- [DW_OP_plus_uconst 80, DW_OP_deref_size 8, DW_OP_stack_value] $rsp
	#DEBUG_VALUE: k_start <- [DW_OP_plus_uconst 80, DW_OP_deref_size 8, DW_OP_constu 2, DW_OP_shl, DW_OP_stack_value] $rsp
	#DEBUG_VALUE: k_end <- [DW_OP_plus_uconst 80, DW_OP_deref_size 8, DW_OP_constu 2, DW_OP_shl, DW_OP_constu 1, DW_OP_or, DW_OP_stack_value] $rsp
	#DEBUG_VALUE: mb_pred_b_d8x8temporal:k <- $r14
	#DEBUG_VALUE: pred_dir <- [DW_OP_plus_uconst 36, DW_OP_deref] $rsp
	.loc	0 397 0                         # ldecod_src/mb_prediction.c:397:0
	movq	152(%rax), %rax
	movq	(%rax,%rdi,8), %rax
.Ltmp546:
	.loc	0 0 0 is_stmt 0                 # ldecod_src/mb_prediction.c:0:0
	testl	%r9d, %r9d
.Ltmp547:
	.loc	0 396 26 is_stmt 1              # ldecod_src/mb_prediction.c:396:26
	je	.LBB10_62
.Ltmp548:
.LBB10_12:                              # %cond.true
                                        #   in Loop: Header=BB10_5 Depth=2
	#DEBUG_VALUE: mb_pred_b_d8x8temporal:currMB <- $rbx
	#DEBUG_VALUE: mb_pred_b_d8x8temporal:curr_plane <- [DW_OP_plus_uconst 12] [$rsp+0]
	#DEBUG_VALUE: mb_pred_b_d8x8temporal:currImg <- [DW_OP_plus_uconst 48] [$rsp+0]
	#DEBUG_VALUE: mb_pred_b_d8x8temporal:dec_picture <- [DW_OP_plus_uconst 16] [$rsp+0]
	#DEBUG_VALUE: mb_pred_b_d8x8temporal:currSlice <- $r13
	#DEBUG_VALUE: mb_pred_b_d8x8temporal:p_Vid <- [DW_OP_plus_uconst 24, DW_OP_deref] $rsp
	#DEBUG_VALUE: mb_pred_b_d8x8temporal:list0 <- [DW_OP_plus_uconst 96, DW_OP_deref] $rsp
	#DEBUG_VALUE: mb_pred_b_d8x8temporal:list1 <- $r15
	#DEBUG_VALUE: mb_pred_b_d8x8temporal:block8x8 <- [DW_OP_plus_uconst 80, DW_OP_deref_size 8, DW_OP_stack_value] $rsp
	#DEBUG_VALUE: k_start <- [DW_OP_plus_uconst 80, DW_OP_deref_size 8, DW_OP_constu 2, DW_OP_shl, DW_OP_stack_value] $rsp
	#DEBUG_VALUE: k_end <- [DW_OP_plus_uconst 80, DW_OP_deref_size 8, DW_OP_constu 2, DW_OP_shl, DW_OP_constu 1, DW_OP_or, DW_OP_stack_value] $rsp
	#DEBUG_VALUE: mb_pred_b_d8x8temporal:k <- $r14
	#DEBUG_VALUE: pred_dir <- [DW_OP_plus_uconst 36, DW_OP_deref] $rsp
	.loc	0 0 0 is_stmt 0                 # ldecod_src/mb_prediction.c:0:0
	addq	%rsi, %rax
.Ltmp549:
	.p2align	4, 0x90
.LBB10_14:                              # %if.end276
                                        #   in Loop: Header=BB10_5 Depth=2
	#DEBUG_VALUE: mb_pred_b_d8x8temporal:currMB <- $rbx
	#DEBUG_VALUE: mb_pred_b_d8x8temporal:curr_plane <- [DW_OP_plus_uconst 12] [$rsp+0]
	#DEBUG_VALUE: mb_pred_b_d8x8temporal:currImg <- [DW_OP_plus_uconst 48] [$rsp+0]
	#DEBUG_VALUE: mb_pred_b_d8x8temporal:dec_picture <- [DW_OP_plus_uconst 16] [$rsp+0]
	#DEBUG_VALUE: mb_pred_b_d8x8temporal:currSlice <- $r13
	#DEBUG_VALUE: mb_pred_b_d8x8temporal:p_Vid <- [DW_OP_plus_uconst 24, DW_OP_deref] $rsp
	#DEBUG_VALUE: mb_pred_b_d8x8temporal:list0 <- [DW_OP_plus_uconst 96, DW_OP_deref] $rsp
	#DEBUG_VALUE: mb_pred_b_d8x8temporal:list1 <- $r15
	#DEBUG_VALUE: mb_pred_b_d8x8temporal:block8x8 <- [DW_OP_plus_uconst 80, DW_OP_deref_size 8, DW_OP_stack_value] $rsp
	#DEBUG_VALUE: k_start <- [DW_OP_plus_uconst 80, DW_OP_deref_size 8, DW_OP_constu 2, DW_OP_shl, DW_OP_stack_value] $rsp
	#DEBUG_VALUE: k_end <- [DW_OP_plus_uconst 80, DW_OP_deref_size 8, DW_OP_constu 2, DW_OP_shl, DW_OP_constu 1, DW_OP_or, DW_OP_stack_value] $rsp
	#DEBUG_VALUE: mb_pred_b_d8x8temporal:k <- $r14
	#DEBUG_VALUE: pred_dir <- [DW_OP_plus_uconst 36, DW_OP_deref] $rsp
	#DEBUG_VALUE: mb_pred_b_d8x8temporal:colocated <- $rax
	.loc	0 432 44 is_stmt 1              # ldecod_src/mb_prediction.c:432:44
	xorl	%edx, %edx
	cmpb	$-1, 24(%rax)
	sete	%dl
.Ltmp550:
	#DEBUG_VALUE: mb_pred_b_d8x8temporal:refList <- undef
	#DEBUG_VALUE: mb_pred_b_d8x8temporal:ref_idx <- [DW_OP_LLVM_convert 8 5, DW_OP_LLVM_convert 32 5, DW_OP_stack_value] undef
	.loc	0 435 17                        # ldecod_src/mb_prediction.c:435:17
	cmpb	$-1, 24(%rax,%rdx)
.Ltmp551:
	.loc	0 435 10 is_stmt 0              # ldecod_src/mb_prediction.c:435:10
	je	.LBB10_3
.Ltmp552:
# %bb.15:                               # %if.else298
                                        #   in Loop: Header=BB10_5 Depth=2
	#DEBUG_VALUE: mb_pred_b_d8x8temporal:currMB <- $rbx
	#DEBUG_VALUE: mb_pred_b_d8x8temporal:curr_plane <- [DW_OP_plus_uconst 12] [$rsp+0]
	#DEBUG_VALUE: mb_pred_b_d8x8temporal:currImg <- [DW_OP_plus_uconst 48] [$rsp+0]
	#DEBUG_VALUE: mb_pred_b_d8x8temporal:dec_picture <- [DW_OP_plus_uconst 16] [$rsp+0]
	#DEBUG_VALUE: mb_pred_b_d8x8temporal:currSlice <- $r13
	#DEBUG_VALUE: mb_pred_b_d8x8temporal:p_Vid <- [DW_OP_plus_uconst 24, DW_OP_deref] $rsp
	#DEBUG_VALUE: mb_pred_b_d8x8temporal:colocated <- $rax
	#DEBUG_VALUE: mb_pred_b_d8x8temporal:list0 <- [DW_OP_plus_uconst 96, DW_OP_deref] $rsp
	#DEBUG_VALUE: mb_pred_b_d8x8temporal:list1 <- $r15
	#DEBUG_VALUE: mb_pred_b_d8x8temporal:block8x8 <- [DW_OP_plus_uconst 80, DW_OP_deref_size 8, DW_OP_stack_value] $rsp
	#DEBUG_VALUE: k_start <- [DW_OP_plus_uconst 80, DW_OP_deref_size 8, DW_OP_constu 2, DW_OP_shl, DW_OP_stack_value] $rsp
	#DEBUG_VALUE: k_end <- [DW_OP_plus_uconst 80, DW_OP_deref_size 8, DW_OP_constu 2, DW_OP_shl, DW_OP_constu 1, DW_OP_or, DW_OP_stack_value] $rsp
	#DEBUG_VALUE: mb_pred_b_d8x8temporal:k <- $r14
	#DEBUG_VALUE: pred_dir <- [DW_OP_plus_uconst 36, DW_OP_deref] $rsp
	.loc	0 383 10 is_stmt 1              # ldecod_src/mb_prediction.c:383:10
	testl	%ecx, %ecx
.Ltmp553:
	#DEBUG_VALUE: mapped_idx <- 0
	.loc	0 447 43                        # ldecod_src/mb_prediction.c:447:43
	je	.LBB10_18
.Ltmp554:
# %bb.16:                               # %land.lhs.true301
                                        #   in Loop: Header=BB10_5 Depth=2
	#DEBUG_VALUE: mb_pred_b_d8x8temporal:currMB <- $rbx
	#DEBUG_VALUE: mb_pred_b_d8x8temporal:curr_plane <- [DW_OP_plus_uconst 12] [$rsp+0]
	#DEBUG_VALUE: mb_pred_b_d8x8temporal:currImg <- [DW_OP_plus_uconst 48] [$rsp+0]
	#DEBUG_VALUE: mb_pred_b_d8x8temporal:dec_picture <- [DW_OP_plus_uconst 16] [$rsp+0]
	#DEBUG_VALUE: mb_pred_b_d8x8temporal:currSlice <- $r13
	#DEBUG_VALUE: mb_pred_b_d8x8temporal:p_Vid <- [DW_OP_plus_uconst 24, DW_OP_deref] $rsp
	#DEBUG_VALUE: mb_pred_b_d8x8temporal:colocated <- $rax
	#DEBUG_VALUE: mb_pred_b_d8x8temporal:list0 <- [DW_OP_plus_uconst 96, DW_OP_deref] $rsp
	#DEBUG_VALUE: mb_pred_b_d8x8temporal:list1 <- $r15
	#DEBUG_VALUE: mb_pred_b_d8x8temporal:block8x8 <- [DW_OP_plus_uconst 80, DW_OP_deref_size 8, DW_OP_stack_value] $rsp
	#DEBUG_VALUE: k_start <- [DW_OP_plus_uconst 80, DW_OP_deref_size 8, DW_OP_constu 2, DW_OP_shl, DW_OP_stack_value] $rsp
	#DEBUG_VALUE: k_end <- [DW_OP_plus_uconst 80, DW_OP_deref_size 8, DW_OP_constu 2, DW_OP_shl, DW_OP_constu 1, DW_OP_or, DW_OP_stack_value] $rsp
	#DEBUG_VALUE: mb_pred_b_d8x8temporal:k <- $r14
	#DEBUG_VALUE: pred_dir <- [DW_OP_plus_uconst 36, DW_OP_deref] $rsp
	#DEBUG_VALUE: mapped_idx <- 0
	.loc	0 447 49 is_stmt 0              # ldecod_src/mb_prediction.c:447:49
	cmpl	$0, 384(%rbx)
	.loc	0 0 0                           # ldecod_src/mb_prediction.c:0:0
	movq	(%rax,%rdx,8), %rdi
	movl	(%rdi), %esi
	.loc	0 447 66                        # ldecod_src/mb_prediction.c:447:66
	je	.LBB10_21
.Ltmp555:
# %bb.17:                               # %land.lhs.true304
                                        #   in Loop: Header=BB10_5 Depth=2
	#DEBUG_VALUE: mb_pred_b_d8x8temporal:currMB <- $rbx
	#DEBUG_VALUE: mb_pred_b_d8x8temporal:curr_plane <- [DW_OP_plus_uconst 12] [$rsp+0]
	#DEBUG_VALUE: mb_pred_b_d8x8temporal:currImg <- [DW_OP_plus_uconst 48] [$rsp+0]
	#DEBUG_VALUE: mb_pred_b_d8x8temporal:dec_picture <- [DW_OP_plus_uconst 16] [$rsp+0]
	#DEBUG_VALUE: mb_pred_b_d8x8temporal:currSlice <- $r13
	#DEBUG_VALUE: mb_pred_b_d8x8temporal:p_Vid <- [DW_OP_plus_uconst 24, DW_OP_deref] $rsp
	#DEBUG_VALUE: mb_pred_b_d8x8temporal:colocated <- $rax
	#DEBUG_VALUE: mb_pred_b_d8x8temporal:list0 <- [DW_OP_plus_uconst 96, DW_OP_deref] $rsp
	#DEBUG_VALUE: mb_pred_b_d8x8temporal:list1 <- $r15
	#DEBUG_VALUE: mb_pred_b_d8x8temporal:block8x8 <- [DW_OP_plus_uconst 80, DW_OP_deref_size 8, DW_OP_stack_value] $rsp
	#DEBUG_VALUE: k_start <- [DW_OP_plus_uconst 80, DW_OP_deref_size 8, DW_OP_constu 2, DW_OP_shl, DW_OP_stack_value] $rsp
	#DEBUG_VALUE: k_end <- [DW_OP_plus_uconst 80, DW_OP_deref_size 8, DW_OP_constu 2, DW_OP_shl, DW_OP_constu 1, DW_OP_or, DW_OP_stack_value] $rsp
	#DEBUG_VALUE: mb_pred_b_d8x8temporal:k <- $r14
	#DEBUG_VALUE: pred_dir <- [DW_OP_plus_uconst 36, DW_OP_deref] $rsp
	#DEBUG_VALUE: mapped_idx <- 0
	.loc	0 0 0                           # ldecod_src/mb_prediction.c:0:0
	testl	%esi, %esi
	jne	.LBB10_35
	jmp	.LBB10_22
.Ltmp556:
	.p2align	4, 0x90
.LBB10_18:                              # %land.lhs.true323
                                        #   in Loop: Header=BB10_5 Depth=2
	#DEBUG_VALUE: mb_pred_b_d8x8temporal:currMB <- $rbx
	#DEBUG_VALUE: mb_pred_b_d8x8temporal:curr_plane <- [DW_OP_plus_uconst 12] [$rsp+0]
	#DEBUG_VALUE: mb_pred_b_d8x8temporal:currImg <- [DW_OP_plus_uconst 48] [$rsp+0]
	#DEBUG_VALUE: mb_pred_b_d8x8temporal:dec_picture <- [DW_OP_plus_uconst 16] [$rsp+0]
	#DEBUG_VALUE: mb_pred_b_d8x8temporal:currSlice <- $r13
	#DEBUG_VALUE: mb_pred_b_d8x8temporal:p_Vid <- [DW_OP_plus_uconst 24, DW_OP_deref] $rsp
	#DEBUG_VALUE: mb_pred_b_d8x8temporal:colocated <- $rax
	#DEBUG_VALUE: mb_pred_b_d8x8temporal:list0 <- [DW_OP_plus_uconst 96, DW_OP_deref] $rsp
	#DEBUG_VALUE: mb_pred_b_d8x8temporal:list1 <- $r15
	#DEBUG_VALUE: mb_pred_b_d8x8temporal:block8x8 <- [DW_OP_plus_uconst 80, DW_OP_deref_size 8, DW_OP_stack_value] $rsp
	#DEBUG_VALUE: k_start <- [DW_OP_plus_uconst 80, DW_OP_deref_size 8, DW_OP_constu 2, DW_OP_shl, DW_OP_stack_value] $rsp
	#DEBUG_VALUE: k_end <- [DW_OP_plus_uconst 80, DW_OP_deref_size 8, DW_OP_constu 2, DW_OP_shl, DW_OP_constu 1, DW_OP_or, DW_OP_stack_value] $rsp
	#DEBUG_VALUE: mb_pred_b_d8x8temporal:k <- $r14
	#DEBUG_VALUE: pred_dir <- [DW_OP_plus_uconst 36, DW_OP_deref] $rsp
	#DEBUG_VALUE: mapped_idx <- 0
	.loc	0 449 60 is_stmt 1              # ldecod_src/mb_prediction.c:449:60
	movl	176(%r13), %esi
	.loc	0 449 78 is_stmt 0              # ldecod_src/mb_prediction.c:449:78
	cmpl	$1, %esi
	je	.LBB10_34
.Ltmp557:
# %bb.19:                               # %land.lhs.true323
                                        #   in Loop: Header=BB10_5 Depth=2
	#DEBUG_VALUE: mb_pred_b_d8x8temporal:currMB <- $rbx
	#DEBUG_VALUE: mb_pred_b_d8x8temporal:curr_plane <- [DW_OP_plus_uconst 12] [$rsp+0]
	#DEBUG_VALUE: mb_pred_b_d8x8temporal:currImg <- [DW_OP_plus_uconst 48] [$rsp+0]
	#DEBUG_VALUE: mb_pred_b_d8x8temporal:dec_picture <- [DW_OP_plus_uconst 16] [$rsp+0]
	#DEBUG_VALUE: mb_pred_b_d8x8temporal:currSlice <- $r13
	#DEBUG_VALUE: mb_pred_b_d8x8temporal:p_Vid <- [DW_OP_plus_uconst 24, DW_OP_deref] $rsp
	#DEBUG_VALUE: mb_pred_b_d8x8temporal:colocated <- $rax
	#DEBUG_VALUE: mb_pred_b_d8x8temporal:list0 <- [DW_OP_plus_uconst 96, DW_OP_deref] $rsp
	#DEBUG_VALUE: mb_pred_b_d8x8temporal:list1 <- $r15
	#DEBUG_VALUE: mb_pred_b_d8x8temporal:block8x8 <- [DW_OP_plus_uconst 80, DW_OP_deref_size 8, DW_OP_stack_value] $rsp
	#DEBUG_VALUE: k_start <- [DW_OP_plus_uconst 80, DW_OP_deref_size 8, DW_OP_constu 2, DW_OP_shl, DW_OP_stack_value] $rsp
	#DEBUG_VALUE: k_end <- [DW_OP_plus_uconst 80, DW_OP_deref_size 8, DW_OP_constu 2, DW_OP_shl, DW_OP_constu 1, DW_OP_or, DW_OP_stack_value] $rsp
	#DEBUG_VALUE: mb_pred_b_d8x8temporal:k <- $r14
	#DEBUG_VALUE: pred_dir <- [DW_OP_plus_uconst 36, DW_OP_deref] $rsp
	#DEBUG_VALUE: mapped_idx <- 0
	testl	%esi, %esi
	jne	.LBB10_35
.Ltmp558:
# %bb.20:                               # %land.lhs.true327
                                        #   in Loop: Header=BB10_5 Depth=2
	#DEBUG_VALUE: mb_pred_b_d8x8temporal:currMB <- $rbx
	#DEBUG_VALUE: mb_pred_b_d8x8temporal:curr_plane <- [DW_OP_plus_uconst 12] [$rsp+0]
	#DEBUG_VALUE: mb_pred_b_d8x8temporal:currImg <- [DW_OP_plus_uconst 48] [$rsp+0]
	#DEBUG_VALUE: mb_pred_b_d8x8temporal:dec_picture <- [DW_OP_plus_uconst 16] [$rsp+0]
	#DEBUG_VALUE: mb_pred_b_d8x8temporal:currSlice <- $r13
	#DEBUG_VALUE: mb_pred_b_d8x8temporal:p_Vid <- [DW_OP_plus_uconst 24, DW_OP_deref] $rsp
	#DEBUG_VALUE: mb_pred_b_d8x8temporal:colocated <- $rax
	#DEBUG_VALUE: mb_pred_b_d8x8temporal:list0 <- [DW_OP_plus_uconst 96, DW_OP_deref] $rsp
	#DEBUG_VALUE: mb_pred_b_d8x8temporal:list1 <- $r15
	#DEBUG_VALUE: mb_pred_b_d8x8temporal:block8x8 <- [DW_OP_plus_uconst 80, DW_OP_deref_size 8, DW_OP_stack_value] $rsp
	#DEBUG_VALUE: k_start <- [DW_OP_plus_uconst 80, DW_OP_deref_size 8, DW_OP_constu 2, DW_OP_shl, DW_OP_stack_value] $rsp
	#DEBUG_VALUE: k_end <- [DW_OP_plus_uconst 80, DW_OP_deref_size 8, DW_OP_constu 2, DW_OP_shl, DW_OP_constu 1, DW_OP_or, DW_OP_stack_value] $rsp
	#DEBUG_VALUE: mb_pred_b_d8x8temporal:k <- $r14
	#DEBUG_VALUE: pred_dir <- [DW_OP_plus_uconst 36, DW_OP_deref] $rsp
	#DEBUG_VALUE: mapped_idx <- 0
	.loc	0 449 81                        # ldecod_src/mb_prediction.c:449:81
	movq	(%rax,%rdx,8), %rdi
	.loc	0 449 119                       # ldecod_src/mb_prediction.c:449:119
	cmpl	$0, (%rdi)
	.loc	0 450 14 is_stmt 1              # ldecod_src/mb_prediction.c:450:14
	jne	.LBB10_22
	jmp	.LBB10_35
.Ltmp559:
.LBB10_21:                              # %land.lhs.true313
                                        #   in Loop: Header=BB10_5 Depth=2
	#DEBUG_VALUE: mb_pred_b_d8x8temporal:currMB <- $rbx
	#DEBUG_VALUE: mb_pred_b_d8x8temporal:curr_plane <- [DW_OP_plus_uconst 12] [$rsp+0]
	#DEBUG_VALUE: mb_pred_b_d8x8temporal:currImg <- [DW_OP_plus_uconst 48] [$rsp+0]
	#DEBUG_VALUE: mb_pred_b_d8x8temporal:dec_picture <- [DW_OP_plus_uconst 16] [$rsp+0]
	#DEBUG_VALUE: mb_pred_b_d8x8temporal:currSlice <- $r13
	#DEBUG_VALUE: mb_pred_b_d8x8temporal:p_Vid <- [DW_OP_plus_uconst 24, DW_OP_deref] $rsp
	#DEBUG_VALUE: mb_pred_b_d8x8temporal:colocated <- $rax
	#DEBUG_VALUE: mb_pred_b_d8x8temporal:list0 <- [DW_OP_plus_uconst 96, DW_OP_deref] $rsp
	#DEBUG_VALUE: mb_pred_b_d8x8temporal:list1 <- $r15
	#DEBUG_VALUE: mb_pred_b_d8x8temporal:block8x8 <- [DW_OP_plus_uconst 80, DW_OP_deref_size 8, DW_OP_stack_value] $rsp
	#DEBUG_VALUE: k_start <- [DW_OP_plus_uconst 80, DW_OP_deref_size 8, DW_OP_constu 2, DW_OP_shl, DW_OP_stack_value] $rsp
	#DEBUG_VALUE: k_end <- [DW_OP_plus_uconst 80, DW_OP_deref_size 8, DW_OP_constu 2, DW_OP_shl, DW_OP_constu 1, DW_OP_or, DW_OP_stack_value] $rsp
	#DEBUG_VALUE: mb_pred_b_d8x8temporal:k <- $r14
	#DEBUG_VALUE: pred_dir <- [DW_OP_plus_uconst 36, DW_OP_deref] $rsp
	#DEBUG_VALUE: mapped_idx <- 0
	.loc	0 0 0 is_stmt 0                 # ldecod_src/mb_prediction.c:0:0
	testl	%esi, %esi
	.loc	0 448 119 is_stmt 1             # ldecod_src/mb_prediction.c:448:119
	je	.LBB10_35
.Ltmp560:
.LBB10_22:                              # %if.then345
                                        #   in Loop: Header=BB10_5 Depth=2
	#DEBUG_VALUE: mb_pred_b_d8x8temporal:currMB <- $rbx
	#DEBUG_VALUE: mb_pred_b_d8x8temporal:curr_plane <- [DW_OP_plus_uconst 12] [$rsp+0]
	#DEBUG_VALUE: mb_pred_b_d8x8temporal:currImg <- [DW_OP_plus_uconst 48] [$rsp+0]
	#DEBUG_VALUE: mb_pred_b_d8x8temporal:dec_picture <- [DW_OP_plus_uconst 16] [$rsp+0]
	#DEBUG_VALUE: mb_pred_b_d8x8temporal:currSlice <- $r13
	#DEBUG_VALUE: mb_pred_b_d8x8temporal:p_Vid <- [DW_OP_plus_uconst 24, DW_OP_deref] $rsp
	#DEBUG_VALUE: mb_pred_b_d8x8temporal:colocated <- $rax
	#DEBUG_VALUE: mb_pred_b_d8x8temporal:list0 <- [DW_OP_plus_uconst 96, DW_OP_deref] $rsp
	#DEBUG_VALUE: mb_pred_b_d8x8temporal:list1 <- $r15
	#DEBUG_VALUE: mb_pred_b_d8x8temporal:block8x8 <- [DW_OP_plus_uconst 80, DW_OP_deref_size 8, DW_OP_stack_value] $rsp
	#DEBUG_VALUE: k_start <- [DW_OP_plus_uconst 80, DW_OP_deref_size 8, DW_OP_constu 2, DW_OP_shl, DW_OP_stack_value] $rsp
	#DEBUG_VALUE: k_end <- [DW_OP_plus_uconst 80, DW_OP_deref_size 8, DW_OP_constu 2, DW_OP_shl, DW_OP_constu 1, DW_OP_or, DW_OP_stack_value] $rsp
	#DEBUG_VALUE: mb_pred_b_d8x8temporal:k <- $r14
	#DEBUG_VALUE: pred_dir <- [DW_OP_plus_uconst 36, DW_OP_deref] $rsp
	#DEBUG_VALUE: mapped_idx <- 0
	#DEBUG_VALUE: iref <- 0
	.loc	0 0 119 is_stmt 0               # ldecod_src/mb_prediction.c:0:119
	movl	136(%r13), %r8d
	movsbl	256(%r13,%rbp), %esi
	cmpl	%esi, %r8d
	cmovll	%r8d, %esi
	#DEBUG_VALUE: mapped_idx <- 0
.Ltmp561:
	.loc	0 452 31 is_stmt 1              # ldecod_src/mb_prediction.c:452:31
	testl	%esi, %esi
.Ltmp562:
	.loc	0 452 11 is_stmt 0              # ldecod_src/mb_prediction.c:452:11
	jle	.LBB10_40
.Ltmp563:
# %bb.23:                               # %for.body355.lr.ph
                                        #   in Loop: Header=BB10_5 Depth=2
	#DEBUG_VALUE: mb_pred_b_d8x8temporal:currMB <- $rbx
	#DEBUG_VALUE: mb_pred_b_d8x8temporal:curr_plane <- [DW_OP_plus_uconst 12] [$rsp+0]
	#DEBUG_VALUE: mb_pred_b_d8x8temporal:currImg <- [DW_OP_plus_uconst 48] [$rsp+0]
	#DEBUG_VALUE: mb_pred_b_d8x8temporal:dec_picture <- [DW_OP_plus_uconst 16] [$rsp+0]
	#DEBUG_VALUE: mb_pred_b_d8x8temporal:currSlice <- $r13
	#DEBUG_VALUE: mb_pred_b_d8x8temporal:p_Vid <- [DW_OP_plus_uconst 24, DW_OP_deref] $rsp
	#DEBUG_VALUE: mb_pred_b_d8x8temporal:colocated <- $rax
	#DEBUG_VALUE: mb_pred_b_d8x8temporal:list0 <- [DW_OP_plus_uconst 96, DW_OP_deref] $rsp
	#DEBUG_VALUE: mb_pred_b_d8x8temporal:list1 <- $r15
	#DEBUG_VALUE: mb_pred_b_d8x8temporal:block8x8 <- [DW_OP_plus_uconst 80, DW_OP_deref_size 8, DW_OP_stack_value] $rsp
	#DEBUG_VALUE: k_start <- [DW_OP_plus_uconst 80, DW_OP_deref_size 8, DW_OP_constu 2, DW_OP_shl, DW_OP_stack_value] $rsp
	#DEBUG_VALUE: k_end <- [DW_OP_plus_uconst 80, DW_OP_deref_size 8, DW_OP_constu 2, DW_OP_shl, DW_OP_constu 1, DW_OP_or, DW_OP_stack_value] $rsp
	#DEBUG_VALUE: mb_pred_b_d8x8temporal:k <- $r14
	#DEBUG_VALUE: pred_dir <- [DW_OP_plus_uconst 36, DW_OP_deref] $rsp
	#DEBUG_VALUE: mapped_idx <- 0
	#DEBUG_VALUE: iref <- 0
	.loc	0 0 11                          # ldecod_src/mb_prediction.c:0:11
	movq	264(%r13,%rbp,8), %r8
.Ltmp564:
	.loc	0 452 31                        # ldecod_src/mb_prediction.c:452:31
	movl	%esi, %r9d
	xorl	%esi, %esi
.Ltmp565:
	.p2align	4, 0x90
.LBB10_24:                              # %for.body355
                                        #   Parent Loop BB10_2 Depth=1
                                        #     Parent Loop BB10_5 Depth=2
                                        # =>    This Inner Loop Header: Depth=3
	#DEBUG_VALUE: mb_pred_b_d8x8temporal:currMB <- $rbx
	#DEBUG_VALUE: mb_pred_b_d8x8temporal:curr_plane <- [DW_OP_plus_uconst 12] [$rsp+0]
	#DEBUG_VALUE: mb_pred_b_d8x8temporal:currImg <- [DW_OP_plus_uconst 48] [$rsp+0]
	#DEBUG_VALUE: mb_pred_b_d8x8temporal:dec_picture <- [DW_OP_plus_uconst 16] [$rsp+0]
	#DEBUG_VALUE: mb_pred_b_d8x8temporal:currSlice <- $r13
	#DEBUG_VALUE: mb_pred_b_d8x8temporal:p_Vid <- [DW_OP_plus_uconst 24, DW_OP_deref] $rsp
	#DEBUG_VALUE: mb_pred_b_d8x8temporal:colocated <- $rax
	#DEBUG_VALUE: mb_pred_b_d8x8temporal:list0 <- [DW_OP_plus_uconst 96, DW_OP_deref] $rsp
	#DEBUG_VALUE: mb_pred_b_d8x8temporal:list1 <- $r15
	#DEBUG_VALUE: mb_pred_b_d8x8temporal:block8x8 <- [DW_OP_plus_uconst 80, DW_OP_deref_size 8, DW_OP_stack_value] $rsp
	#DEBUG_VALUE: k_start <- [DW_OP_plus_uconst 80, DW_OP_deref_size 8, DW_OP_constu 2, DW_OP_shl, DW_OP_stack_value] $rsp
	#DEBUG_VALUE: k_end <- [DW_OP_plus_uconst 80, DW_OP_deref_size 8, DW_OP_constu 2, DW_OP_shl, DW_OP_constu 1, DW_OP_or, DW_OP_stack_value] $rsp
	#DEBUG_VALUE: mb_pred_b_d8x8temporal:k <- $r14
	#DEBUG_VALUE: pred_dir <- [DW_OP_plus_uconst 36, DW_OP_deref] $rsp
	#DEBUG_VALUE: iref <- $rsi
	.loc	0 454 16 is_stmt 1              # ldecod_src/mb_prediction.c:454:16
	movq	(%r8,%rsi,8), %r10
	.loc	0 454 72 is_stmt 0              # ldecod_src/mb_prediction.c:454:72
	cmpq	%rdi, 224(%r10)
	.loc	0 454 103                       # ldecod_src/mb_prediction.c:454:103
	je	.LBB10_41
.Ltmp566:
# %bb.25:                               # %lor.lhs.false368
                                        #   in Loop: Header=BB10_24 Depth=3
	#DEBUG_VALUE: mb_pred_b_d8x8temporal:currMB <- $rbx
	#DEBUG_VALUE: mb_pred_b_d8x8temporal:curr_plane <- [DW_OP_plus_uconst 12] [$rsp+0]
	#DEBUG_VALUE: mb_pred_b_d8x8temporal:currImg <- [DW_OP_plus_uconst 48] [$rsp+0]
	#DEBUG_VALUE: mb_pred_b_d8x8temporal:dec_picture <- [DW_OP_plus_uconst 16] [$rsp+0]
	#DEBUG_VALUE: mb_pred_b_d8x8temporal:currSlice <- $r13
	#DEBUG_VALUE: mb_pred_b_d8x8temporal:p_Vid <- [DW_OP_plus_uconst 24, DW_OP_deref] $rsp
	#DEBUG_VALUE: mb_pred_b_d8x8temporal:colocated <- $rax
	#DEBUG_VALUE: mb_pred_b_d8x8temporal:list0 <- [DW_OP_plus_uconst 96, DW_OP_deref] $rsp
	#DEBUG_VALUE: mb_pred_b_d8x8temporal:list1 <- $r15
	#DEBUG_VALUE: mb_pred_b_d8x8temporal:block8x8 <- [DW_OP_plus_uconst 80, DW_OP_deref_size 8, DW_OP_stack_value] $rsp
	#DEBUG_VALUE: k_start <- [DW_OP_plus_uconst 80, DW_OP_deref_size 8, DW_OP_constu 2, DW_OP_shl, DW_OP_stack_value] $rsp
	#DEBUG_VALUE: k_end <- [DW_OP_plus_uconst 80, DW_OP_deref_size 8, DW_OP_constu 2, DW_OP_shl, DW_OP_constu 1, DW_OP_or, DW_OP_stack_value] $rsp
	#DEBUG_VALUE: mb_pred_b_d8x8temporal:k <- $r14
	#DEBUG_VALUE: pred_dir <- [DW_OP_plus_uconst 36, DW_OP_deref] $rsp
	#DEBUG_VALUE: iref <- $rsi
	.loc	0 455 75 is_stmt 1              # ldecod_src/mb_prediction.c:455:75
	cmpq	%rdi, 232(%r10)
	.loc	0 455 106 is_stmt 0             # ldecod_src/mb_prediction.c:455:106
	je	.LBB10_41
.Ltmp567:
# %bb.26:                               # %lor.lhs.false381
                                        #   in Loop: Header=BB10_24 Depth=3
	#DEBUG_VALUE: mb_pred_b_d8x8temporal:currMB <- $rbx
	#DEBUG_VALUE: mb_pred_b_d8x8temporal:curr_plane <- [DW_OP_plus_uconst 12] [$rsp+0]
	#DEBUG_VALUE: mb_pred_b_d8x8temporal:currImg <- [DW_OP_plus_uconst 48] [$rsp+0]
	#DEBUG_VALUE: mb_pred_b_d8x8temporal:dec_picture <- [DW_OP_plus_uconst 16] [$rsp+0]
	#DEBUG_VALUE: mb_pred_b_d8x8temporal:currSlice <- $r13
	#DEBUG_VALUE: mb_pred_b_d8x8temporal:p_Vid <- [DW_OP_plus_uconst 24, DW_OP_deref] $rsp
	#DEBUG_VALUE: mb_pred_b_d8x8temporal:colocated <- $rax
	#DEBUG_VALUE: mb_pred_b_d8x8temporal:list0 <- [DW_OP_plus_uconst 96, DW_OP_deref] $rsp
	#DEBUG_VALUE: mb_pred_b_d8x8temporal:list1 <- $r15
	#DEBUG_VALUE: mb_pred_b_d8x8temporal:block8x8 <- [DW_OP_plus_uconst 80, DW_OP_deref_size 8, DW_OP_stack_value] $rsp
	#DEBUG_VALUE: k_start <- [DW_OP_plus_uconst 80, DW_OP_deref_size 8, DW_OP_constu 2, DW_OP_shl, DW_OP_stack_value] $rsp
	#DEBUG_VALUE: k_end <- [DW_OP_plus_uconst 80, DW_OP_deref_size 8, DW_OP_constu 2, DW_OP_shl, DW_OP_constu 1, DW_OP_or, DW_OP_stack_value] $rsp
	#DEBUG_VALUE: mb_pred_b_d8x8temporal:k <- $r14
	#DEBUG_VALUE: pred_dir <- [DW_OP_plus_uconst 36, DW_OP_deref] $rsp
	#DEBUG_VALUE: iref <- $rsi
	.loc	0 456 68 is_stmt 1              # ldecod_src/mb_prediction.c:456:68
	cmpq	%rdi, 240(%r10)
.Ltmp568:
	.loc	0 454 16                        # ldecod_src/mb_prediction.c:454:16
	je	.LBB10_41
.Ltmp569:
# %bb.27:                               # %if.else395
                                        #   in Loop: Header=BB10_24 Depth=3
	#DEBUG_VALUE: mb_pred_b_d8x8temporal:currMB <- $rbx
	#DEBUG_VALUE: mb_pred_b_d8x8temporal:curr_plane <- [DW_OP_plus_uconst 12] [$rsp+0]
	#DEBUG_VALUE: mb_pred_b_d8x8temporal:currImg <- [DW_OP_plus_uconst 48] [$rsp+0]
	#DEBUG_VALUE: mb_pred_b_d8x8temporal:dec_picture <- [DW_OP_plus_uconst 16] [$rsp+0]
	#DEBUG_VALUE: mb_pred_b_d8x8temporal:currSlice <- $r13
	#DEBUG_VALUE: mb_pred_b_d8x8temporal:p_Vid <- [DW_OP_plus_uconst 24, DW_OP_deref] $rsp
	#DEBUG_VALUE: mb_pred_b_d8x8temporal:colocated <- $rax
	#DEBUG_VALUE: mb_pred_b_d8x8temporal:list0 <- [DW_OP_plus_uconst 96, DW_OP_deref] $rsp
	#DEBUG_VALUE: mb_pred_b_d8x8temporal:list1 <- $r15
	#DEBUG_VALUE: mb_pred_b_d8x8temporal:block8x8 <- [DW_OP_plus_uconst 80, DW_OP_deref_size 8, DW_OP_stack_value] $rsp
	#DEBUG_VALUE: k_start <- [DW_OP_plus_uconst 80, DW_OP_deref_size 8, DW_OP_constu 2, DW_OP_shl, DW_OP_stack_value] $rsp
	#DEBUG_VALUE: k_end <- [DW_OP_plus_uconst 80, DW_OP_deref_size 8, DW_OP_constu 2, DW_OP_shl, DW_OP_constu 1, DW_OP_or, DW_OP_stack_value] $rsp
	#DEBUG_VALUE: mb_pred_b_d8x8temporal:k <- $r14
	#DEBUG_VALUE: pred_dir <- [DW_OP_plus_uconst 36, DW_OP_deref] $rsp
	#DEBUG_VALUE: iref <- $rsi
	#DEBUG_VALUE: mapped_idx <- -135792468
	.loc	0 452 125                       # ldecod_src/mb_prediction.c:452:125
	incq	%rsi
.Ltmp570:
	#DEBUG_VALUE: iref <- $rsi
	.loc	0 452 31 is_stmt 0              # ldecod_src/mb_prediction.c:452:31
	cmpq	%rsi, %r9
.Ltmp571:
	.loc	0 452 11                        # ldecod_src/mb_prediction.c:452:11
	jne	.LBB10_24
	jmp	.LBB10_39
.Ltmp572:
.LBB10_34:                              # %land.lhs.true338
                                        #   in Loop: Header=BB10_5 Depth=2
	#DEBUG_VALUE: mb_pred_b_d8x8temporal:currMB <- $rbx
	#DEBUG_VALUE: mb_pred_b_d8x8temporal:curr_plane <- [DW_OP_plus_uconst 12] [$rsp+0]
	#DEBUG_VALUE: mb_pred_b_d8x8temporal:currImg <- [DW_OP_plus_uconst 48] [$rsp+0]
	#DEBUG_VALUE: mb_pred_b_d8x8temporal:dec_picture <- [DW_OP_plus_uconst 16] [$rsp+0]
	#DEBUG_VALUE: mb_pred_b_d8x8temporal:currSlice <- $r13
	#DEBUG_VALUE: mb_pred_b_d8x8temporal:p_Vid <- [DW_OP_plus_uconst 24, DW_OP_deref] $rsp
	#DEBUG_VALUE: mb_pred_b_d8x8temporal:colocated <- $rax
	#DEBUG_VALUE: mb_pred_b_d8x8temporal:list0 <- [DW_OP_plus_uconst 96, DW_OP_deref] $rsp
	#DEBUG_VALUE: mb_pred_b_d8x8temporal:list1 <- $r15
	#DEBUG_VALUE: mb_pred_b_d8x8temporal:block8x8 <- [DW_OP_plus_uconst 80, DW_OP_deref_size 8, DW_OP_stack_value] $rsp
	#DEBUG_VALUE: k_start <- [DW_OP_plus_uconst 80, DW_OP_deref_size 8, DW_OP_constu 2, DW_OP_shl, DW_OP_stack_value] $rsp
	#DEBUG_VALUE: k_end <- [DW_OP_plus_uconst 80, DW_OP_deref_size 8, DW_OP_constu 2, DW_OP_shl, DW_OP_constu 1, DW_OP_or, DW_OP_stack_value] $rsp
	#DEBUG_VALUE: mb_pred_b_d8x8temporal:k <- $r14
	#DEBUG_VALUE: pred_dir <- [DW_OP_plus_uconst 36, DW_OP_deref] $rsp
	#DEBUG_VALUE: mapped_idx <- 0
	.loc	0 450 49 is_stmt 1              # ldecod_src/mb_prediction.c:450:49
	movq	(%rax,%rdx,8), %rdi
	.loc	0 450 87 is_stmt 0              # ldecod_src/mb_prediction.c:450:87
	cmpl	$0, (%rdi)
.Ltmp573:
	.loc	0 447 13 is_stmt 1              # ldecod_src/mb_prediction.c:447:13
	je	.LBB10_22
.Ltmp574:
	.p2align	4, 0x90
.LBB10_35:                              # %if.else397
                                        #   in Loop: Header=BB10_5 Depth=2
	#DEBUG_VALUE: mb_pred_b_d8x8temporal:currMB <- $rbx
	#DEBUG_VALUE: mb_pred_b_d8x8temporal:curr_plane <- [DW_OP_plus_uconst 12] [$rsp+0]
	#DEBUG_VALUE: mb_pred_b_d8x8temporal:currImg <- [DW_OP_plus_uconst 48] [$rsp+0]
	#DEBUG_VALUE: mb_pred_b_d8x8temporal:dec_picture <- [DW_OP_plus_uconst 16] [$rsp+0]
	#DEBUG_VALUE: mb_pred_b_d8x8temporal:currSlice <- $r13
	#DEBUG_VALUE: mb_pred_b_d8x8temporal:p_Vid <- [DW_OP_plus_uconst 24, DW_OP_deref] $rsp
	#DEBUG_VALUE: mb_pred_b_d8x8temporal:colocated <- $rax
	#DEBUG_VALUE: mb_pred_b_d8x8temporal:list0 <- [DW_OP_plus_uconst 96, DW_OP_deref] $rsp
	#DEBUG_VALUE: mb_pred_b_d8x8temporal:list1 <- $r15
	#DEBUG_VALUE: mb_pred_b_d8x8temporal:block8x8 <- [DW_OP_plus_uconst 80, DW_OP_deref_size 8, DW_OP_stack_value] $rsp
	#DEBUG_VALUE: k_start <- [DW_OP_plus_uconst 80, DW_OP_deref_size 8, DW_OP_constu 2, DW_OP_shl, DW_OP_stack_value] $rsp
	#DEBUG_VALUE: k_end <- [DW_OP_plus_uconst 80, DW_OP_deref_size 8, DW_OP_constu 2, DW_OP_shl, DW_OP_constu 1, DW_OP_or, DW_OP_stack_value] $rsp
	#DEBUG_VALUE: mb_pred_b_d8x8temporal:k <- $r14
	#DEBUG_VALUE: pred_dir <- [DW_OP_plus_uconst 36, DW_OP_deref] $rsp
	#DEBUG_VALUE: mapped_idx <- 0
	#DEBUG_VALUE: iref <- 0
	.loc	0 0 13 is_stmt 0                # ldecod_src/mb_prediction.c:0:13
	movl	136(%r13), %edi
	movsbl	256(%r13,%rbp), %esi
	cmpl	%esi, %edi
	cmovll	%edi, %esi
	#DEBUG_VALUE: mapped_idx <- 0
.Ltmp575:
	.loc	0 469 31 is_stmt 1              # ldecod_src/mb_prediction.c:469:31
	testl	%esi, %esi
.Ltmp576:
	.loc	0 469 11 is_stmt 0              # ldecod_src/mb_prediction.c:469:11
	jle	.LBB10_40
.Ltmp577:
# %bb.36:                               # %for.body409.lr.ph
                                        #   in Loop: Header=BB10_5 Depth=2
	#DEBUG_VALUE: mb_pred_b_d8x8temporal:currMB <- $rbx
	#DEBUG_VALUE: mb_pred_b_d8x8temporal:curr_plane <- [DW_OP_plus_uconst 12] [$rsp+0]
	#DEBUG_VALUE: mb_pred_b_d8x8temporal:currImg <- [DW_OP_plus_uconst 48] [$rsp+0]
	#DEBUG_VALUE: mb_pred_b_d8x8temporal:dec_picture <- [DW_OP_plus_uconst 16] [$rsp+0]
	#DEBUG_VALUE: mb_pred_b_d8x8temporal:currSlice <- $r13
	#DEBUG_VALUE: mb_pred_b_d8x8temporal:p_Vid <- [DW_OP_plus_uconst 24, DW_OP_deref] $rsp
	#DEBUG_VALUE: mb_pred_b_d8x8temporal:colocated <- $rax
	#DEBUG_VALUE: mb_pred_b_d8x8temporal:list0 <- [DW_OP_plus_uconst 96, DW_OP_deref] $rsp
	#DEBUG_VALUE: mb_pred_b_d8x8temporal:list1 <- $r15
	#DEBUG_VALUE: mb_pred_b_d8x8temporal:block8x8 <- [DW_OP_plus_uconst 80, DW_OP_deref_size 8, DW_OP_stack_value] $rsp
	#DEBUG_VALUE: k_start <- [DW_OP_plus_uconst 80, DW_OP_deref_size 8, DW_OP_constu 2, DW_OP_shl, DW_OP_stack_value] $rsp
	#DEBUG_VALUE: k_end <- [DW_OP_plus_uconst 80, DW_OP_deref_size 8, DW_OP_constu 2, DW_OP_shl, DW_OP_constu 1, DW_OP_or, DW_OP_stack_value] $rsp
	#DEBUG_VALUE: mb_pred_b_d8x8temporal:k <- $r14
	#DEBUG_VALUE: pred_dir <- [DW_OP_plus_uconst 36, DW_OP_deref] $rsp
	#DEBUG_VALUE: mapped_idx <- 0
	#DEBUG_VALUE: iref <- 0
	.loc	0 0 11                          # ldecod_src/mb_prediction.c:0:11
	movq	264(%r13,%rbp,8), %rdi
	movq	(%rax,%rdx,8), %r8
.Ltmp578:
	.loc	0 469 31                        # ldecod_src/mb_prediction.c:469:31
	movl	%esi, %r9d
	xorl	%esi, %esi
.Ltmp579:
	.p2align	4, 0x90
.LBB10_37:                              # %for.body409
                                        #   Parent Loop BB10_2 Depth=1
                                        #     Parent Loop BB10_5 Depth=2
                                        # =>    This Inner Loop Header: Depth=3
	#DEBUG_VALUE: mb_pred_b_d8x8temporal:currMB <- $rbx
	#DEBUG_VALUE: mb_pred_b_d8x8temporal:curr_plane <- [DW_OP_plus_uconst 12] [$rsp+0]
	#DEBUG_VALUE: mb_pred_b_d8x8temporal:currImg <- [DW_OP_plus_uconst 48] [$rsp+0]
	#DEBUG_VALUE: mb_pred_b_d8x8temporal:dec_picture <- [DW_OP_plus_uconst 16] [$rsp+0]
	#DEBUG_VALUE: mb_pred_b_d8x8temporal:currSlice <- $r13
	#DEBUG_VALUE: mb_pred_b_d8x8temporal:p_Vid <- [DW_OP_plus_uconst 24, DW_OP_deref] $rsp
	#DEBUG_VALUE: mb_pred_b_d8x8temporal:colocated <- $rax
	#DEBUG_VALUE: mb_pred_b_d8x8temporal:list0 <- [DW_OP_plus_uconst 96, DW_OP_deref] $rsp
	#DEBUG_VALUE: mb_pred_b_d8x8temporal:list1 <- $r15
	#DEBUG_VALUE: mb_pred_b_d8x8temporal:block8x8 <- [DW_OP_plus_uconst 80, DW_OP_deref_size 8, DW_OP_stack_value] $rsp
	#DEBUG_VALUE: k_start <- [DW_OP_plus_uconst 80, DW_OP_deref_size 8, DW_OP_constu 2, DW_OP_shl, DW_OP_stack_value] $rsp
	#DEBUG_VALUE: k_end <- [DW_OP_plus_uconst 80, DW_OP_deref_size 8, DW_OP_constu 2, DW_OP_shl, DW_OP_constu 1, DW_OP_or, DW_OP_stack_value] $rsp
	#DEBUG_VALUE: mb_pred_b_d8x8temporal:k <- $r14
	#DEBUG_VALUE: pred_dir <- [DW_OP_plus_uconst 36, DW_OP_deref] $rsp
	#DEBUG_VALUE: iref <- $rsi
	.loc	0 471 61 is_stmt 1              # ldecod_src/mb_prediction.c:471:61
	cmpq	%r8, (%rdi,%rsi,8)
.Ltmp580:
	.loc	0 471 16 is_stmt 0              # ldecod_src/mb_prediction.c:471:16
	je	.LBB10_41
.Ltmp581:
# %bb.38:                               # %if.else422
                                        #   in Loop: Header=BB10_37 Depth=3
	#DEBUG_VALUE: mb_pred_b_d8x8temporal:currMB <- $rbx
	#DEBUG_VALUE: mb_pred_b_d8x8temporal:curr_plane <- [DW_OP_plus_uconst 12] [$rsp+0]
	#DEBUG_VALUE: mb_pred_b_d8x8temporal:currImg <- [DW_OP_plus_uconst 48] [$rsp+0]
	#DEBUG_VALUE: mb_pred_b_d8x8temporal:dec_picture <- [DW_OP_plus_uconst 16] [$rsp+0]
	#DEBUG_VALUE: mb_pred_b_d8x8temporal:currSlice <- $r13
	#DEBUG_VALUE: mb_pred_b_d8x8temporal:p_Vid <- [DW_OP_plus_uconst 24, DW_OP_deref] $rsp
	#DEBUG_VALUE: mb_pred_b_d8x8temporal:colocated <- $rax
	#DEBUG_VALUE: mb_pred_b_d8x8temporal:list0 <- [DW_OP_plus_uconst 96, DW_OP_deref] $rsp
	#DEBUG_VALUE: mb_pred_b_d8x8temporal:list1 <- $r15
	#DEBUG_VALUE: mb_pred_b_d8x8temporal:block8x8 <- [DW_OP_plus_uconst 80, DW_OP_deref_size 8, DW_OP_stack_value] $rsp
	#DEBUG_VALUE: k_start <- [DW_OP_plus_uconst 80, DW_OP_deref_size 8, DW_OP_constu 2, DW_OP_shl, DW_OP_stack_value] $rsp
	#DEBUG_VALUE: k_end <- [DW_OP_plus_uconst 80, DW_OP_deref_size 8, DW_OP_constu 2, DW_OP_shl, DW_OP_constu 1, DW_OP_or, DW_OP_stack_value] $rsp
	#DEBUG_VALUE: mb_pred_b_d8x8temporal:k <- $r14
	#DEBUG_VALUE: pred_dir <- [DW_OP_plus_uconst 36, DW_OP_deref] $rsp
	#DEBUG_VALUE: iref <- $rsi
	#DEBUG_VALUE: mapped_idx <- -135792468
	.loc	0 469 125 is_stmt 1             # ldecod_src/mb_prediction.c:469:125
	incq	%rsi
.Ltmp582:
	#DEBUG_VALUE: iref <- $rsi
	.loc	0 469 31 is_stmt 0              # ldecod_src/mb_prediction.c:469:31
	cmpq	%rsi, %r9
.Ltmp583:
	.loc	0 469 11                        # ldecod_src/mb_prediction.c:469:11
	jne	.LBB10_37
.Ltmp584:
.LBB10_39:                              # %if.then574
                                        #   in Loop: Header=BB10_5 Depth=2
	#DEBUG_VALUE: mb_pred_b_d8x8temporal:currMB <- $rbx
	#DEBUG_VALUE: mb_pred_b_d8x8temporal:curr_plane <- [DW_OP_plus_uconst 12] [$rsp+0]
	#DEBUG_VALUE: mb_pred_b_d8x8temporal:currImg <- [DW_OP_plus_uconst 48] [$rsp+0]
	#DEBUG_VALUE: mb_pred_b_d8x8temporal:dec_picture <- [DW_OP_plus_uconst 16] [$rsp+0]
	#DEBUG_VALUE: mb_pred_b_d8x8temporal:currSlice <- $r13
	#DEBUG_VALUE: mb_pred_b_d8x8temporal:p_Vid <- [DW_OP_plus_uconst 24, DW_OP_deref] $rsp
	#DEBUG_VALUE: mb_pred_b_d8x8temporal:colocated <- $rax
	#DEBUG_VALUE: mb_pred_b_d8x8temporal:list0 <- [DW_OP_plus_uconst 96, DW_OP_deref] $rsp
	#DEBUG_VALUE: mb_pred_b_d8x8temporal:list1 <- $r15
	#DEBUG_VALUE: mb_pred_b_d8x8temporal:block8x8 <- [DW_OP_plus_uconst 80, DW_OP_deref_size 8, DW_OP_stack_value] $rsp
	#DEBUG_VALUE: k_start <- [DW_OP_plus_uconst 80, DW_OP_deref_size 8, DW_OP_constu 2, DW_OP_shl, DW_OP_stack_value] $rsp
	#DEBUG_VALUE: k_end <- [DW_OP_plus_uconst 80, DW_OP_deref_size 8, DW_OP_constu 2, DW_OP_shl, DW_OP_constu 1, DW_OP_or, DW_OP_stack_value] $rsp
	#DEBUG_VALUE: mb_pred_b_d8x8temporal:k <- $r14
	#DEBUG_VALUE: pred_dir <- [DW_OP_plus_uconst 36, DW_OP_deref] $rsp
	#DEBUG_VALUE: mapped_idx <- -135792468
	#DEBUG_VALUE: iref <- $rsi
	#DEBUG_VALUE: mapped_idx <- undef
	.loc	0 515 11 is_stmt 1              # ldecod_src/mb_prediction.c:515:11
	movl	$.L.str, %edi
	movl	$-1111, %esi                    # imm = 0xFBA9
.Ltmp585:
	callq	error@PLT
.Ltmp586:
	.loc	0 520 47                        # ldecod_src/mb_prediction.c:520:47
	movzbl	24(%r12), %ecx
	.loc	0 521 47                        # ldecod_src/mb_prediction.c:521:47
	movzbl	25(%r12), %eax
	jmp	.LBB10_4
.Ltmp587:
	.p2align	4, 0x90
.LBB10_40:                              #   in Loop: Header=BB10_5 Depth=2
	#DEBUG_VALUE: mb_pred_b_d8x8temporal:currMB <- $rbx
	#DEBUG_VALUE: mb_pred_b_d8x8temporal:curr_plane <- [DW_OP_plus_uconst 12] [$rsp+0]
	#DEBUG_VALUE: mb_pred_b_d8x8temporal:currImg <- [DW_OP_plus_uconst 48] [$rsp+0]
	#DEBUG_VALUE: mb_pred_b_d8x8temporal:dec_picture <- [DW_OP_plus_uconst 16] [$rsp+0]
	#DEBUG_VALUE: mb_pred_b_d8x8temporal:currSlice <- $r13
	#DEBUG_VALUE: mb_pred_b_d8x8temporal:p_Vid <- [DW_OP_plus_uconst 24, DW_OP_deref] $rsp
	#DEBUG_VALUE: mb_pred_b_d8x8temporal:colocated <- $rax
	#DEBUG_VALUE: mb_pred_b_d8x8temporal:list0 <- [DW_OP_plus_uconst 96, DW_OP_deref] $rsp
	#DEBUG_VALUE: mb_pred_b_d8x8temporal:list1 <- $r15
	#DEBUG_VALUE: mb_pred_b_d8x8temporal:block8x8 <- [DW_OP_plus_uconst 80, DW_OP_deref_size 8, DW_OP_stack_value] $rsp
	#DEBUG_VALUE: k_start <- [DW_OP_plus_uconst 80, DW_OP_deref_size 8, DW_OP_constu 2, DW_OP_shl, DW_OP_stack_value] $rsp
	#DEBUG_VALUE: k_end <- [DW_OP_plus_uconst 80, DW_OP_deref_size 8, DW_OP_constu 2, DW_OP_shl, DW_OP_constu 1, DW_OP_or, DW_OP_stack_value] $rsp
	#DEBUG_VALUE: mb_pred_b_d8x8temporal:k <- $r14
	#DEBUG_VALUE: pred_dir <- [DW_OP_plus_uconst 36, DW_OP_deref] $rsp
	#DEBUG_VALUE: mapped_idx <- 0
	#DEBUG_VALUE: iref <- 0
	.loc	0 0 47 is_stmt 0                # ldecod_src/mb_prediction.c:0:47
	xorl	%esi, %esi
.Ltmp588:
.LBB10_41:                              # %if.then430
                                        #   in Loop: Header=BB10_5 Depth=2
	#DEBUG_VALUE: mb_pred_b_d8x8temporal:currMB <- $rbx
	#DEBUG_VALUE: mb_pred_b_d8x8temporal:curr_plane <- [DW_OP_plus_uconst 12] [$rsp+0]
	#DEBUG_VALUE: mb_pred_b_d8x8temporal:currImg <- [DW_OP_plus_uconst 48] [$rsp+0]
	#DEBUG_VALUE: mb_pred_b_d8x8temporal:dec_picture <- [DW_OP_plus_uconst 16] [$rsp+0]
	#DEBUG_VALUE: mb_pred_b_d8x8temporal:currSlice <- $r13
	#DEBUG_VALUE: mb_pred_b_d8x8temporal:p_Vid <- [DW_OP_plus_uconst 24, DW_OP_deref] $rsp
	#DEBUG_VALUE: mb_pred_b_d8x8temporal:colocated <- $rax
	#DEBUG_VALUE: mb_pred_b_d8x8temporal:list0 <- [DW_OP_plus_uconst 96, DW_OP_deref] $rsp
	#DEBUG_VALUE: mb_pred_b_d8x8temporal:list1 <- $r15
	#DEBUG_VALUE: mb_pred_b_d8x8temporal:block8x8 <- [DW_OP_plus_uconst 80, DW_OP_deref_size 8, DW_OP_stack_value] $rsp
	#DEBUG_VALUE: k_start <- [DW_OP_plus_uconst 80, DW_OP_deref_size 8, DW_OP_constu 2, DW_OP_shl, DW_OP_stack_value] $rsp
	#DEBUG_VALUE: k_end <- [DW_OP_plus_uconst 80, DW_OP_deref_size 8, DW_OP_constu 2, DW_OP_shl, DW_OP_constu 1, DW_OP_or, DW_OP_stack_value] $rsp
	#DEBUG_VALUE: mb_pred_b_d8x8temporal:k <- $r14
	#DEBUG_VALUE: pred_dir <- [DW_OP_plus_uconst 36, DW_OP_deref] $rsp
	#DEBUG_VALUE: mv_scale <- undef
	.loc	0 486 45 is_stmt 1              # ldecod_src/mb_prediction.c:486:45
	movswl	18(%rax,%rdx,4), %edi
.Ltmp589:
	#DEBUG_VALUE: mv_y <- $edi
	.loc	0 383 10                        # ldecod_src/mb_prediction.c:383:10
	testl	%ecx, %ecx
.Ltmp590:
	.loc	0 487 44                        # ldecod_src/mb_prediction.c:487:44
	je	.LBB10_44
.Ltmp591:
# %bb.42:                               # %land.lhs.true443
                                        #   in Loop: Header=BB10_5 Depth=2
	#DEBUG_VALUE: mb_pred_b_d8x8temporal:currMB <- $rbx
	#DEBUG_VALUE: mb_pred_b_d8x8temporal:curr_plane <- [DW_OP_plus_uconst 12] [$rsp+0]
	#DEBUG_VALUE: mb_pred_b_d8x8temporal:currImg <- [DW_OP_plus_uconst 48] [$rsp+0]
	#DEBUG_VALUE: mb_pred_b_d8x8temporal:dec_picture <- [DW_OP_plus_uconst 16] [$rsp+0]
	#DEBUG_VALUE: mb_pred_b_d8x8temporal:currSlice <- $r13
	#DEBUG_VALUE: mb_pred_b_d8x8temporal:p_Vid <- [DW_OP_plus_uconst 24, DW_OP_deref] $rsp
	#DEBUG_VALUE: mb_pred_b_d8x8temporal:colocated <- $rax
	#DEBUG_VALUE: mb_pred_b_d8x8temporal:list0 <- [DW_OP_plus_uconst 96, DW_OP_deref] $rsp
	#DEBUG_VALUE: mb_pred_b_d8x8temporal:list1 <- $r15
	#DEBUG_VALUE: mb_pred_b_d8x8temporal:block8x8 <- [DW_OP_plus_uconst 80, DW_OP_deref_size 8, DW_OP_stack_value] $rsp
	#DEBUG_VALUE: k_start <- [DW_OP_plus_uconst 80, DW_OP_deref_size 8, DW_OP_constu 2, DW_OP_shl, DW_OP_stack_value] $rsp
	#DEBUG_VALUE: k_end <- [DW_OP_plus_uconst 80, DW_OP_deref_size 8, DW_OP_constu 2, DW_OP_shl, DW_OP_constu 1, DW_OP_or, DW_OP_stack_value] $rsp
	#DEBUG_VALUE: mb_pred_b_d8x8temporal:k <- $r14
	#DEBUG_VALUE: pred_dir <- [DW_OP_plus_uconst 36, DW_OP_deref] $rsp
	#DEBUG_VALUE: mv_y <- $edi
	.loc	0 487 48 is_stmt 0              # ldecod_src/mb_prediction.c:487:48
	cmpl	$0, 384(%rbx)
	.loc	0 0 0                           # ldecod_src/mb_prediction.c:0:0
	movq	(%rax,%rdx,8), %rcx
	movl	(%rcx), %ecx
	.loc	0 487 65                        # ldecod_src/mb_prediction.c:487:65
	je	.LBB10_47
.Ltmp592:
# %bb.43:                               # %land.lhs.true474
                                        #   in Loop: Header=BB10_5 Depth=2
	#DEBUG_VALUE: mb_pred_b_d8x8temporal:currMB <- $rbx
	#DEBUG_VALUE: mb_pred_b_d8x8temporal:curr_plane <- [DW_OP_plus_uconst 12] [$rsp+0]
	#DEBUG_VALUE: mb_pred_b_d8x8temporal:currImg <- [DW_OP_plus_uconst 48] [$rsp+0]
	#DEBUG_VALUE: mb_pred_b_d8x8temporal:dec_picture <- [DW_OP_plus_uconst 16] [$rsp+0]
	#DEBUG_VALUE: mb_pred_b_d8x8temporal:currSlice <- $r13
	#DEBUG_VALUE: mb_pred_b_d8x8temporal:p_Vid <- [DW_OP_plus_uconst 24, DW_OP_deref] $rsp
	#DEBUG_VALUE: mb_pred_b_d8x8temporal:colocated <- $rax
	#DEBUG_VALUE: mb_pred_b_d8x8temporal:list0 <- [DW_OP_plus_uconst 96, DW_OP_deref] $rsp
	#DEBUG_VALUE: mb_pred_b_d8x8temporal:list1 <- $r15
	#DEBUG_VALUE: mb_pred_b_d8x8temporal:block8x8 <- [DW_OP_plus_uconst 80, DW_OP_deref_size 8, DW_OP_stack_value] $rsp
	#DEBUG_VALUE: k_start <- [DW_OP_plus_uconst 80, DW_OP_deref_size 8, DW_OP_constu 2, DW_OP_shl, DW_OP_stack_value] $rsp
	#DEBUG_VALUE: k_end <- [DW_OP_plus_uconst 80, DW_OP_deref_size 8, DW_OP_constu 2, DW_OP_shl, DW_OP_constu 1, DW_OP_or, DW_OP_stack_value] $rsp
	#DEBUG_VALUE: mb_pred_b_d8x8temporal:k <- $r14
	#DEBUG_VALUE: pred_dir <- [DW_OP_plus_uconst 36, DW_OP_deref] $rsp
	#DEBUG_VALUE: mv_y <- $edi
	.loc	0 0 0                           # ldecod_src/mb_prediction.c:0:0
	testl	%ecx, %ecx
	jne	.LBB10_53
	jmp	.LBB10_52
.Ltmp593:
.LBB10_44:                              # %land.lhs.true456
                                        #   in Loop: Header=BB10_5 Depth=2
	#DEBUG_VALUE: mb_pred_b_d8x8temporal:currMB <- $rbx
	#DEBUG_VALUE: mb_pred_b_d8x8temporal:curr_plane <- [DW_OP_plus_uconst 12] [$rsp+0]
	#DEBUG_VALUE: mb_pred_b_d8x8temporal:currImg <- [DW_OP_plus_uconst 48] [$rsp+0]
	#DEBUG_VALUE: mb_pred_b_d8x8temporal:dec_picture <- [DW_OP_plus_uconst 16] [$rsp+0]
	#DEBUG_VALUE: mb_pred_b_d8x8temporal:currSlice <- $r13
	#DEBUG_VALUE: mb_pred_b_d8x8temporal:p_Vid <- [DW_OP_plus_uconst 24, DW_OP_deref] $rsp
	#DEBUG_VALUE: mb_pred_b_d8x8temporal:colocated <- $rax
	#DEBUG_VALUE: mb_pred_b_d8x8temporal:list0 <- [DW_OP_plus_uconst 96, DW_OP_deref] $rsp
	#DEBUG_VALUE: mb_pred_b_d8x8temporal:list1 <- $r15
	#DEBUG_VALUE: mb_pred_b_d8x8temporal:block8x8 <- [DW_OP_plus_uconst 80, DW_OP_deref_size 8, DW_OP_stack_value] $rsp
	#DEBUG_VALUE: k_start <- [DW_OP_plus_uconst 80, DW_OP_deref_size 8, DW_OP_constu 2, DW_OP_shl, DW_OP_stack_value] $rsp
	#DEBUG_VALUE: k_end <- [DW_OP_plus_uconst 80, DW_OP_deref_size 8, DW_OP_constu 2, DW_OP_shl, DW_OP_constu 1, DW_OP_or, DW_OP_stack_value] $rsp
	#DEBUG_VALUE: mb_pred_b_d8x8temporal:k <- $r14
	#DEBUG_VALUE: pred_dir <- [DW_OP_plus_uconst 36, DW_OP_deref] $rsp
	#DEBUG_VALUE: mv_y <- $edi
	.loc	0 488 59 is_stmt 1              # ldecod_src/mb_prediction.c:488:59
	movl	176(%r13), %ecx
	.loc	0 488 77 is_stmt 0              # ldecod_src/mb_prediction.c:488:77
	cmpl	$1, %ecx
	je	.LBB10_51
.Ltmp594:
# %bb.45:                               # %land.lhs.true456
                                        #   in Loop: Header=BB10_5 Depth=2
	#DEBUG_VALUE: mb_pred_b_d8x8temporal:currMB <- $rbx
	#DEBUG_VALUE: mb_pred_b_d8x8temporal:curr_plane <- [DW_OP_plus_uconst 12] [$rsp+0]
	#DEBUG_VALUE: mb_pred_b_d8x8temporal:currImg <- [DW_OP_plus_uconst 48] [$rsp+0]
	#DEBUG_VALUE: mb_pred_b_d8x8temporal:dec_picture <- [DW_OP_plus_uconst 16] [$rsp+0]
	#DEBUG_VALUE: mb_pred_b_d8x8temporal:currSlice <- $r13
	#DEBUG_VALUE: mb_pred_b_d8x8temporal:p_Vid <- [DW_OP_plus_uconst 24, DW_OP_deref] $rsp
	#DEBUG_VALUE: mb_pred_b_d8x8temporal:colocated <- $rax
	#DEBUG_VALUE: mb_pred_b_d8x8temporal:list0 <- [DW_OP_plus_uconst 96, DW_OP_deref] $rsp
	#DEBUG_VALUE: mb_pred_b_d8x8temporal:list1 <- $r15
	#DEBUG_VALUE: mb_pred_b_d8x8temporal:block8x8 <- [DW_OP_plus_uconst 80, DW_OP_deref_size 8, DW_OP_stack_value] $rsp
	#DEBUG_VALUE: k_start <- [DW_OP_plus_uconst 80, DW_OP_deref_size 8, DW_OP_constu 2, DW_OP_shl, DW_OP_stack_value] $rsp
	#DEBUG_VALUE: k_end <- [DW_OP_plus_uconst 80, DW_OP_deref_size 8, DW_OP_constu 2, DW_OP_shl, DW_OP_constu 1, DW_OP_or, DW_OP_stack_value] $rsp
	#DEBUG_VALUE: mb_pred_b_d8x8temporal:k <- $r14
	#DEBUG_VALUE: pred_dir <- [DW_OP_plus_uconst 36, DW_OP_deref] $rsp
	#DEBUG_VALUE: mv_y <- $edi
	testl	%ecx, %ecx
	jne	.LBB10_53
.Ltmp595:
# %bb.46:                               # %land.lhs.true460
                                        #   in Loop: Header=BB10_5 Depth=2
	#DEBUG_VALUE: mb_pred_b_d8x8temporal:currMB <- $rbx
	#DEBUG_VALUE: mb_pred_b_d8x8temporal:curr_plane <- [DW_OP_plus_uconst 12] [$rsp+0]
	#DEBUG_VALUE: mb_pred_b_d8x8temporal:currImg <- [DW_OP_plus_uconst 48] [$rsp+0]
	#DEBUG_VALUE: mb_pred_b_d8x8temporal:dec_picture <- [DW_OP_plus_uconst 16] [$rsp+0]
	#DEBUG_VALUE: mb_pred_b_d8x8temporal:currSlice <- $r13
	#DEBUG_VALUE: mb_pred_b_d8x8temporal:p_Vid <- [DW_OP_plus_uconst 24, DW_OP_deref] $rsp
	#DEBUG_VALUE: mb_pred_b_d8x8temporal:colocated <- $rax
	#DEBUG_VALUE: mb_pred_b_d8x8temporal:list0 <- [DW_OP_plus_uconst 96, DW_OP_deref] $rsp
	#DEBUG_VALUE: mb_pred_b_d8x8temporal:list1 <- $r15
	#DEBUG_VALUE: mb_pred_b_d8x8temporal:block8x8 <- [DW_OP_plus_uconst 80, DW_OP_deref_size 8, DW_OP_stack_value] $rsp
	#DEBUG_VALUE: k_start <- [DW_OP_plus_uconst 80, DW_OP_deref_size 8, DW_OP_constu 2, DW_OP_shl, DW_OP_stack_value] $rsp
	#DEBUG_VALUE: k_end <- [DW_OP_plus_uconst 80, DW_OP_deref_size 8, DW_OP_constu 2, DW_OP_shl, DW_OP_constu 1, DW_OP_or, DW_OP_stack_value] $rsp
	#DEBUG_VALUE: mb_pred_b_d8x8temporal:k <- $r14
	#DEBUG_VALUE: pred_dir <- [DW_OP_plus_uconst 36, DW_OP_deref] $rsp
	#DEBUG_VALUE: mv_y <- $edi
	.loc	0 488 80                        # ldecod_src/mb_prediction.c:488:80
	movq	(%rax,%rdx,8), %rcx
	.loc	0 488 118                       # ldecod_src/mb_prediction.c:488:118
	cmpl	$0, (%rcx)
.Ltmp596:
	.loc	0 487 14 is_stmt 1              # ldecod_src/mb_prediction.c:487:14
	jne	.LBB10_48
	jmp	.LBB10_53
.Ltmp597:
.LBB10_47:                              # %land.lhs.true446
                                        #   in Loop: Header=BB10_5 Depth=2
	#DEBUG_VALUE: mb_pred_b_d8x8temporal:currMB <- $rbx
	#DEBUG_VALUE: mb_pred_b_d8x8temporal:curr_plane <- [DW_OP_plus_uconst 12] [$rsp+0]
	#DEBUG_VALUE: mb_pred_b_d8x8temporal:currImg <- [DW_OP_plus_uconst 48] [$rsp+0]
	#DEBUG_VALUE: mb_pred_b_d8x8temporal:dec_picture <- [DW_OP_plus_uconst 16] [$rsp+0]
	#DEBUG_VALUE: mb_pred_b_d8x8temporal:currSlice <- $r13
	#DEBUG_VALUE: mb_pred_b_d8x8temporal:p_Vid <- [DW_OP_plus_uconst 24, DW_OP_deref] $rsp
	#DEBUG_VALUE: mb_pred_b_d8x8temporal:colocated <- $rax
	#DEBUG_VALUE: mb_pred_b_d8x8temporal:list0 <- [DW_OP_plus_uconst 96, DW_OP_deref] $rsp
	#DEBUG_VALUE: mb_pred_b_d8x8temporal:list1 <- $r15
	#DEBUG_VALUE: mb_pred_b_d8x8temporal:block8x8 <- [DW_OP_plus_uconst 80, DW_OP_deref_size 8, DW_OP_stack_value] $rsp
	#DEBUG_VALUE: k_start <- [DW_OP_plus_uconst 80, DW_OP_deref_size 8, DW_OP_constu 2, DW_OP_shl, DW_OP_stack_value] $rsp
	#DEBUG_VALUE: k_end <- [DW_OP_plus_uconst 80, DW_OP_deref_size 8, DW_OP_constu 2, DW_OP_shl, DW_OP_constu 1, DW_OP_or, DW_OP_stack_value] $rsp
	#DEBUG_VALUE: mb_pred_b_d8x8temporal:k <- $r14
	#DEBUG_VALUE: pred_dir <- [DW_OP_plus_uconst 36, DW_OP_deref] $rsp
	#DEBUG_VALUE: mv_y <- $edi
	.loc	0 0 0 is_stmt 0                 # ldecod_src/mb_prediction.c:0:0
	testl	%ecx, %ecx
.Ltmp598:
	.loc	0 487 14                        # ldecod_src/mb_prediction.c:487:14
	je	.LBB10_53
.Ltmp599:
.LBB10_48:                              # %if.then467
                                        #   in Loop: Header=BB10_5 Depth=2
	#DEBUG_VALUE: mb_pred_b_d8x8temporal:currMB <- $rbx
	#DEBUG_VALUE: mb_pred_b_d8x8temporal:curr_plane <- [DW_OP_plus_uconst 12] [$rsp+0]
	#DEBUG_VALUE: mb_pred_b_d8x8temporal:currImg <- [DW_OP_plus_uconst 48] [$rsp+0]
	#DEBUG_VALUE: mb_pred_b_d8x8temporal:dec_picture <- [DW_OP_plus_uconst 16] [$rsp+0]
	#DEBUG_VALUE: mb_pred_b_d8x8temporal:currSlice <- $r13
	#DEBUG_VALUE: mb_pred_b_d8x8temporal:p_Vid <- [DW_OP_plus_uconst 24, DW_OP_deref] $rsp
	#DEBUG_VALUE: mb_pred_b_d8x8temporal:colocated <- $rax
	#DEBUG_VALUE: mb_pred_b_d8x8temporal:list0 <- [DW_OP_plus_uconst 96, DW_OP_deref] $rsp
	#DEBUG_VALUE: mb_pred_b_d8x8temporal:list1 <- $r15
	#DEBUG_VALUE: mb_pred_b_d8x8temporal:block8x8 <- [DW_OP_plus_uconst 80, DW_OP_deref_size 8, DW_OP_stack_value] $rsp
	#DEBUG_VALUE: k_start <- [DW_OP_plus_uconst 80, DW_OP_deref_size 8, DW_OP_constu 2, DW_OP_shl, DW_OP_stack_value] $rsp
	#DEBUG_VALUE: k_end <- [DW_OP_plus_uconst 80, DW_OP_deref_size 8, DW_OP_constu 2, DW_OP_shl, DW_OP_constu 1, DW_OP_or, DW_OP_stack_value] $rsp
	#DEBUG_VALUE: mb_pred_b_d8x8temporal:k <- $r14
	#DEBUG_VALUE: pred_dir <- [DW_OP_plus_uconst 36, DW_OP_deref] $rsp
	#DEBUG_VALUE: mv_y <- $edi
	.loc	0 489 18 is_stmt 1              # ldecod_src/mb_prediction.c:489:18
	addl	%edi, %edi
.Ltmp600:
	#DEBUG_VALUE: mv_y <- $edi
	.loc	0 489 13 is_stmt 0              # ldecod_src/mb_prediction.c:489:13
	jmp	.LBB10_53
.Ltmp601:
.LBB10_51:                              # %land.lhs.true488
                                        #   in Loop: Header=BB10_5 Depth=2
	#DEBUG_VALUE: mb_pred_b_d8x8temporal:currMB <- $rbx
	#DEBUG_VALUE: mb_pred_b_d8x8temporal:curr_plane <- [DW_OP_plus_uconst 12] [$rsp+0]
	#DEBUG_VALUE: mb_pred_b_d8x8temporal:currImg <- [DW_OP_plus_uconst 48] [$rsp+0]
	#DEBUG_VALUE: mb_pred_b_d8x8temporal:dec_picture <- [DW_OP_plus_uconst 16] [$rsp+0]
	#DEBUG_VALUE: mb_pred_b_d8x8temporal:currSlice <- $r13
	#DEBUG_VALUE: mb_pred_b_d8x8temporal:p_Vid <- [DW_OP_plus_uconst 24, DW_OP_deref] $rsp
	#DEBUG_VALUE: mb_pred_b_d8x8temporal:colocated <- $rax
	#DEBUG_VALUE: mb_pred_b_d8x8temporal:list0 <- [DW_OP_plus_uconst 96, DW_OP_deref] $rsp
	#DEBUG_VALUE: mb_pred_b_d8x8temporal:list1 <- $r15
	#DEBUG_VALUE: mb_pred_b_d8x8temporal:block8x8 <- [DW_OP_plus_uconst 80, DW_OP_deref_size 8, DW_OP_stack_value] $rsp
	#DEBUG_VALUE: k_start <- [DW_OP_plus_uconst 80, DW_OP_deref_size 8, DW_OP_constu 2, DW_OP_shl, DW_OP_stack_value] $rsp
	#DEBUG_VALUE: k_end <- [DW_OP_plus_uconst 80, DW_OP_deref_size 8, DW_OP_constu 2, DW_OP_shl, DW_OP_constu 1, DW_OP_or, DW_OP_stack_value] $rsp
	#DEBUG_VALUE: mb_pred_b_d8x8temporal:k <- $r14
	#DEBUG_VALUE: pred_dir <- [DW_OP_plus_uconst 36, DW_OP_deref] $rsp
	#DEBUG_VALUE: mv_y <- $edi
	.loc	0 491 85 is_stmt 1              # ldecod_src/mb_prediction.c:491:85
	movq	(%rax,%rdx,8), %rcx
	.loc	0 491 123 is_stmt 0             # ldecod_src/mb_prediction.c:491:123
	cmpl	$0, (%rcx)
.Ltmp602:
	.loc	0 490 19 is_stmt 1              # ldecod_src/mb_prediction.c:490:19
	jne	.LBB10_53
.Ltmp603:
.LBB10_52:                              # %if.then495
                                        #   in Loop: Header=BB10_5 Depth=2
	#DEBUG_VALUE: mb_pred_b_d8x8temporal:currMB <- $rbx
	#DEBUG_VALUE: mb_pred_b_d8x8temporal:curr_plane <- [DW_OP_plus_uconst 12] [$rsp+0]
	#DEBUG_VALUE: mb_pred_b_d8x8temporal:currImg <- [DW_OP_plus_uconst 48] [$rsp+0]
	#DEBUG_VALUE: mb_pred_b_d8x8temporal:dec_picture <- [DW_OP_plus_uconst 16] [$rsp+0]
	#DEBUG_VALUE: mb_pred_b_d8x8temporal:currSlice <- $r13
	#DEBUG_VALUE: mb_pred_b_d8x8temporal:p_Vid <- [DW_OP_plus_uconst 24, DW_OP_deref] $rsp
	#DEBUG_VALUE: mb_pred_b_d8x8temporal:colocated <- $rax
	#DEBUG_VALUE: mb_pred_b_d8x8temporal:list0 <- [DW_OP_plus_uconst 96, DW_OP_deref] $rsp
	#DEBUG_VALUE: mb_pred_b_d8x8temporal:list1 <- $r15
	#DEBUG_VALUE: mb_pred_b_d8x8temporal:block8x8 <- [DW_OP_plus_uconst 80, DW_OP_deref_size 8, DW_OP_stack_value] $rsp
	#DEBUG_VALUE: k_start <- [DW_OP_plus_uconst 80, DW_OP_deref_size 8, DW_OP_constu 2, DW_OP_shl, DW_OP_stack_value] $rsp
	#DEBUG_VALUE: k_end <- [DW_OP_plus_uconst 80, DW_OP_deref_size 8, DW_OP_constu 2, DW_OP_shl, DW_OP_constu 1, DW_OP_or, DW_OP_stack_value] $rsp
	#DEBUG_VALUE: mb_pred_b_d8x8temporal:k <- $r14
	#DEBUG_VALUE: pred_dir <- [DW_OP_plus_uconst 36, DW_OP_deref] $rsp
	#DEBUG_VALUE: mv_y <- $edi
	.loc	0 0 19 is_stmt 0                # ldecod_src/mb_prediction.c:0:19
	movzwl	%di, %ecx
.Ltmp604:
	.loc	0 492 18 is_stmt 1              # ldecod_src/mb_prediction.c:492:18
	shrl	$15, %ecx
	addl	%edi, %ecx
	movswl	%cx, %edi
.Ltmp605:
	sarl	%edi
.Ltmp606:
	#DEBUG_VALUE: mv_y <- $edi
	.p2align	4, 0x90
.LBB10_53:                              # %if.end497
                                        #   in Loop: Header=BB10_5 Depth=2
	#DEBUG_VALUE: mb_pred_b_d8x8temporal:currMB <- $rbx
	#DEBUG_VALUE: mb_pred_b_d8x8temporal:curr_plane <- [DW_OP_plus_uconst 12] [$rsp+0]
	#DEBUG_VALUE: mb_pred_b_d8x8temporal:currImg <- [DW_OP_plus_uconst 48] [$rsp+0]
	#DEBUG_VALUE: mb_pred_b_d8x8temporal:dec_picture <- [DW_OP_plus_uconst 16] [$rsp+0]
	#DEBUG_VALUE: mb_pred_b_d8x8temporal:currSlice <- $r13
	#DEBUG_VALUE: mb_pred_b_d8x8temporal:p_Vid <- [DW_OP_plus_uconst 24, DW_OP_deref] $rsp
	#DEBUG_VALUE: mb_pred_b_d8x8temporal:colocated <- $rax
	#DEBUG_VALUE: mb_pred_b_d8x8temporal:list0 <- [DW_OP_plus_uconst 96, DW_OP_deref] $rsp
	#DEBUG_VALUE: mb_pred_b_d8x8temporal:list1 <- $r15
	#DEBUG_VALUE: mb_pred_b_d8x8temporal:block8x8 <- [DW_OP_plus_uconst 80, DW_OP_deref_size 8, DW_OP_stack_value] $rsp
	#DEBUG_VALUE: k_start <- [DW_OP_plus_uconst 80, DW_OP_deref_size 8, DW_OP_constu 2, DW_OP_shl, DW_OP_stack_value] $rsp
	#DEBUG_VALUE: k_end <- [DW_OP_plus_uconst 80, DW_OP_deref_size 8, DW_OP_constu 2, DW_OP_shl, DW_OP_constu 1, DW_OP_or, DW_OP_stack_value] $rsp
	#DEBUG_VALUE: mb_pred_b_d8x8temporal:k <- $r14
	#DEBUG_VALUE: pred_dir <- [DW_OP_plus_uconst 36, DW_OP_deref] $rsp
	#DEBUG_VALUE: mv_y <- $edi
	.loc	0 0 0 is_stmt 0                 # ldecod_src/mb_prediction.c:0:0
	movq	%rbp, %r8
	shlq	$7, %r8
	addq	88(%rsp), %r8                   # 8-byte Folded Reload
	movslq	%esi, %rcx
	movl	(%r8,%rcx,4), %esi
.Ltmp607:
	#DEBUG_VALUE: mv_scale <- $esi
	#DEBUG_VALUE: mv_y <- $edi
	.loc	0 495 24 is_stmt 1              # ldecod_src/mb_prediction.c:495:24
	cmpl	$9999, %esi                     # imm = 0x270F
	.loc	0 495 32 is_stmt 0              # ldecod_src/mb_prediction.c:495:32
	je	.LBB10_55
.Ltmp608:
# %bb.54:                               # %lor.lhs.false500
                                        #   in Loop: Header=BB10_5 Depth=2
	#DEBUG_VALUE: mb_pred_b_d8x8temporal:currMB <- $rbx
	#DEBUG_VALUE: mb_pred_b_d8x8temporal:curr_plane <- [DW_OP_plus_uconst 12] [$rsp+0]
	#DEBUG_VALUE: mb_pred_b_d8x8temporal:currImg <- [DW_OP_plus_uconst 48] [$rsp+0]
	#DEBUG_VALUE: mb_pred_b_d8x8temporal:dec_picture <- [DW_OP_plus_uconst 16] [$rsp+0]
	#DEBUG_VALUE: mb_pred_b_d8x8temporal:currSlice <- $r13
	#DEBUG_VALUE: mb_pred_b_d8x8temporal:p_Vid <- [DW_OP_plus_uconst 24, DW_OP_deref] $rsp
	#DEBUG_VALUE: mb_pred_b_d8x8temporal:colocated <- $rax
	#DEBUG_VALUE: mb_pred_b_d8x8temporal:list0 <- [DW_OP_plus_uconst 96, DW_OP_deref] $rsp
	#DEBUG_VALUE: mb_pred_b_d8x8temporal:list1 <- $r15
	#DEBUG_VALUE: mb_pred_b_d8x8temporal:block8x8 <- [DW_OP_plus_uconst 80, DW_OP_deref_size 8, DW_OP_stack_value] $rsp
	#DEBUG_VALUE: k_start <- [DW_OP_plus_uconst 80, DW_OP_deref_size 8, DW_OP_constu 2, DW_OP_shl, DW_OP_stack_value] $rsp
	#DEBUG_VALUE: k_end <- [DW_OP_plus_uconst 80, DW_OP_deref_size 8, DW_OP_constu 2, DW_OP_shl, DW_OP_constu 1, DW_OP_or, DW_OP_stack_value] $rsp
	#DEBUG_VALUE: mb_pred_b_d8x8temporal:k <- $r14
	#DEBUG_VALUE: pred_dir <- [DW_OP_plus_uconst 36, DW_OP_deref] $rsp
	#DEBUG_VALUE: mv_scale <- $esi
	#DEBUG_VALUE: mv_y <- $edi
	.loc	0 495 35                        # ldecod_src/mb_prediction.c:495:35
	movq	264(%r13,%rbp,8), %r8
	movq	(%r8,%rcx,8), %r8
	cmpb	$0, 40(%r8)
.Ltmp609:
	.loc	0 495 15                        # ldecod_src/mb_prediction.c:495:15
	je	.LBB10_57
.Ltmp610:
.LBB10_55:                              # %if.then509
                                        #   in Loop: Header=BB10_5 Depth=2
	#DEBUG_VALUE: mb_pred_b_d8x8temporal:currMB <- $rbx
	#DEBUG_VALUE: mb_pred_b_d8x8temporal:curr_plane <- [DW_OP_plus_uconst 12] [$rsp+0]
	#DEBUG_VALUE: mb_pred_b_d8x8temporal:currImg <- [DW_OP_plus_uconst 48] [$rsp+0]
	#DEBUG_VALUE: mb_pred_b_d8x8temporal:dec_picture <- [DW_OP_plus_uconst 16] [$rsp+0]
	#DEBUG_VALUE: mb_pred_b_d8x8temporal:currSlice <- $r13
	#DEBUG_VALUE: mb_pred_b_d8x8temporal:p_Vid <- [DW_OP_plus_uconst 24, DW_OP_deref] $rsp
	#DEBUG_VALUE: mb_pred_b_d8x8temporal:colocated <- $rax
	#DEBUG_VALUE: mb_pred_b_d8x8temporal:list0 <- [DW_OP_plus_uconst 96, DW_OP_deref] $rsp
	#DEBUG_VALUE: mb_pred_b_d8x8temporal:list1 <- $r15
	#DEBUG_VALUE: mb_pred_b_d8x8temporal:block8x8 <- [DW_OP_plus_uconst 80, DW_OP_deref_size 8, DW_OP_stack_value] $rsp
	#DEBUG_VALUE: k_start <- [DW_OP_plus_uconst 80, DW_OP_deref_size 8, DW_OP_constu 2, DW_OP_shl, DW_OP_stack_value] $rsp
	#DEBUG_VALUE: k_end <- [DW_OP_plus_uconst 80, DW_OP_deref_size 8, DW_OP_constu 2, DW_OP_shl, DW_OP_constu 1, DW_OP_or, DW_OP_stack_value] $rsp
	#DEBUG_VALUE: mb_pred_b_d8x8temporal:k <- $r14
	#DEBUG_VALUE: pred_dir <- [DW_OP_plus_uconst 36, DW_OP_deref] $rsp
	#DEBUG_VALUE: mv_scale <- $esi
	#DEBUG_VALUE: mv_y <- $edi
	.loc	0 497 63 is_stmt 1              # ldecod_src/mb_prediction.c:497:63
	movzwl	16(%rax,%rdx,4), %eax
.Ltmp611:
	.loc	0 497 38 is_stmt 0              # ldecod_src/mb_prediction.c:497:38
	movw	%ax, 16(%r12)
	.loc	0 498 38 is_stmt 1              # ldecod_src/mb_prediction.c:498:38
	movw	%di, 18(%r12)
	.loc	0 499 35                        # ldecod_src/mb_prediction.c:499:35
	movl	$0, 20(%r12)
.Ltmp612:
.LBB10_56:                              # %if.end565
                                        #   in Loop: Header=BB10_5 Depth=2
	#DEBUG_VALUE: mb_pred_b_d8x8temporal:currMB <- $rbx
	#DEBUG_VALUE: mb_pred_b_d8x8temporal:curr_plane <- [DW_OP_plus_uconst 12] [$rsp+0]
	#DEBUG_VALUE: mb_pred_b_d8x8temporal:currImg <- [DW_OP_plus_uconst 48] [$rsp+0]
	#DEBUG_VALUE: mb_pred_b_d8x8temporal:dec_picture <- [DW_OP_plus_uconst 16] [$rsp+0]
	#DEBUG_VALUE: mb_pred_b_d8x8temporal:currSlice <- $r13
	#DEBUG_VALUE: mb_pred_b_d8x8temporal:p_Vid <- [DW_OP_plus_uconst 24, DW_OP_deref] $rsp
	#DEBUG_VALUE: mb_pred_b_d8x8temporal:list0 <- [DW_OP_plus_uconst 96, DW_OP_deref] $rsp
	#DEBUG_VALUE: mb_pred_b_d8x8temporal:list1 <- $r15
	#DEBUG_VALUE: mb_pred_b_d8x8temporal:block8x8 <- [DW_OP_plus_uconst 80, DW_OP_deref_size 8, DW_OP_stack_value] $rsp
	#DEBUG_VALUE: k_start <- [DW_OP_plus_uconst 80, DW_OP_deref_size 8, DW_OP_constu 2, DW_OP_shl, DW_OP_stack_value] $rsp
	#DEBUG_VALUE: k_end <- [DW_OP_plus_uconst 80, DW_OP_deref_size 8, DW_OP_constu 2, DW_OP_shl, DW_OP_constu 1, DW_OP_or, DW_OP_stack_value] $rsp
	#DEBUG_VALUE: mb_pred_b_d8x8temporal:k <- $r14
	#DEBUG_VALUE: pred_dir <- [DW_OP_plus_uconst 36, DW_OP_deref] $rsp
	#DEBUG_VALUE: mv_y <- $edi
	.loc	0 510 36                        # ldecod_src/mb_prediction.c:510:36
	movb	%cl, 24(%r12)
	.loc	0 511 36                        # ldecod_src/mb_prediction.c:511:36
	movb	$0, 25(%r12)
	xorl	%eax, %eax
	jmp	.LBB10_4
.Ltmp613:
.LBB10_57:                              # %if.else522
                                        #   in Loop: Header=BB10_5 Depth=2
	#DEBUG_VALUE: mb_pred_b_d8x8temporal:currMB <- $rbx
	#DEBUG_VALUE: mb_pred_b_d8x8temporal:curr_plane <- [DW_OP_plus_uconst 12] [$rsp+0]
	#DEBUG_VALUE: mb_pred_b_d8x8temporal:currImg <- [DW_OP_plus_uconst 48] [$rsp+0]
	#DEBUG_VALUE: mb_pred_b_d8x8temporal:dec_picture <- [DW_OP_plus_uconst 16] [$rsp+0]
	#DEBUG_VALUE: mb_pred_b_d8x8temporal:currSlice <- $r13
	#DEBUG_VALUE: mb_pred_b_d8x8temporal:p_Vid <- [DW_OP_plus_uconst 24, DW_OP_deref] $rsp
	#DEBUG_VALUE: mb_pred_b_d8x8temporal:colocated <- $rax
	#DEBUG_VALUE: mb_pred_b_d8x8temporal:list0 <- [DW_OP_plus_uconst 96, DW_OP_deref] $rsp
	#DEBUG_VALUE: mb_pred_b_d8x8temporal:list1 <- $r15
	#DEBUG_VALUE: mb_pred_b_d8x8temporal:block8x8 <- [DW_OP_plus_uconst 80, DW_OP_deref_size 8, DW_OP_stack_value] $rsp
	#DEBUG_VALUE: k_start <- [DW_OP_plus_uconst 80, DW_OP_deref_size 8, DW_OP_constu 2, DW_OP_shl, DW_OP_stack_value] $rsp
	#DEBUG_VALUE: k_end <- [DW_OP_plus_uconst 80, DW_OP_deref_size 8, DW_OP_constu 2, DW_OP_shl, DW_OP_constu 1, DW_OP_or, DW_OP_stack_value] $rsp
	#DEBUG_VALUE: mb_pred_b_d8x8temporal:k <- $r14
	#DEBUG_VALUE: pred_dir <- [DW_OP_plus_uconst 36, DW_OP_deref] $rsp
	#DEBUG_VALUE: mv_scale <- $esi
	#DEBUG_VALUE: mv_y <- $edi
	.loc	0 503 84                        # ldecod_src/mb_prediction.c:503:84
	movswl	16(%rax,%rdx,4), %r8d
	.loc	0 503 59 is_stmt 0              # ldecod_src/mb_prediction.c:503:59
	imull	%esi, %r8d
	.loc	0 503 89                        # ldecod_src/mb_prediction.c:503:89
	subl	$-128, %r8d
	.loc	0 503 97                        # ldecod_src/mb_prediction.c:503:97
	shrl	$8, %r8d
	.loc	0 503 38                        # ldecod_src/mb_prediction.c:503:38
	movw	%r8w, 16(%r12)
	.loc	0 504 59 is_stmt 1              # ldecod_src/mb_prediction.c:504:59
	imull	%edi, %esi
.Ltmp614:
	.loc	0 504 97 is_stmt 0              # ldecod_src/mb_prediction.c:504:97
	subl	$-128, %esi
	.loc	0 504 105                       # ldecod_src/mb_prediction.c:504:105
	shrl	$8, %esi
	.loc	0 504 38                        # ldecod_src/mb_prediction.c:504:38
	movw	%si, 18(%r12)
	.loc	0 506 74 is_stmt 1              # ldecod_src/mb_prediction.c:506:74
	subw	16(%rax,%rdx,4), %r8w
	.loc	0 506 38 is_stmt 0              # ldecod_src/mb_prediction.c:506:38
	movw	%r8w, 20(%r12)
	.loc	0 507 74 is_stmt 1              # ldecod_src/mb_prediction.c:507:74
	subl	%edi, %esi
	.loc	0 507 38 is_stmt 0              # ldecod_src/mb_prediction.c:507:38
	movw	%si, 22(%r12)
	jmp	.LBB10_56
.Ltmp615:
.LBB10_58:                              # %land.lhs.true130
                                        #   in Loop: Header=BB10_5 Depth=2
	#DEBUG_VALUE: mb_pred_b_d8x8temporal:currMB <- $rbx
	#DEBUG_VALUE: mb_pred_b_d8x8temporal:curr_plane <- [DW_OP_plus_uconst 12] [$rsp+0]
	#DEBUG_VALUE: mb_pred_b_d8x8temporal:currImg <- [DW_OP_plus_uconst 48] [$rsp+0]
	#DEBUG_VALUE: mb_pred_b_d8x8temporal:dec_picture <- [DW_OP_plus_uconst 16] [$rsp+0]
	#DEBUG_VALUE: mb_pred_b_d8x8temporal:currSlice <- $r13
	#DEBUG_VALUE: mb_pred_b_d8x8temporal:p_Vid <- [DW_OP_plus_uconst 24, DW_OP_deref] $rsp
	#DEBUG_VALUE: mb_pred_b_d8x8temporal:list0 <- [DW_OP_plus_uconst 96, DW_OP_deref] $rsp
	#DEBUG_VALUE: mb_pred_b_d8x8temporal:list1 <- $r15
	#DEBUG_VALUE: mb_pred_b_d8x8temporal:block8x8 <- [DW_OP_plus_uconst 80, DW_OP_deref_size 8, DW_OP_stack_value] $rsp
	#DEBUG_VALUE: k_start <- [DW_OP_plus_uconst 80, DW_OP_deref_size 8, DW_OP_constu 2, DW_OP_shl, DW_OP_stack_value] $rsp
	#DEBUG_VALUE: k_end <- [DW_OP_plus_uconst 80, DW_OP_deref_size 8, DW_OP_constu 2, DW_OP_shl, DW_OP_constu 1, DW_OP_or, DW_OP_stack_value] $rsp
	#DEBUG_VALUE: mb_pred_b_d8x8temporal:k <- $r14
	#DEBUG_VALUE: pred_dir <- [DW_OP_plus_uconst 36, DW_OP_deref] $rsp
	#DEBUG_VALUE: mb_pred_b_d8x8temporal:j6 <- $edi
	.loc	0 402 46 is_stmt 1              # ldecod_src/mb_prediction.c:402:46
	movq	272(%r13), %r8
	movq	(%r8), %r8
	.loc	0 402 86 is_stmt 0              # ldecod_src/mb_prediction.c:402:86
	cmpl	$0, 388(%r8)
.Ltmp616:
	.loc	0 401 52 is_stmt 1              # ldecod_src/mb_prediction.c:401:52
	je	.LBB10_14
.Ltmp617:
# %bb.59:                               # %if.then137
                                        #   in Loop: Header=BB10_5 Depth=2
	#DEBUG_VALUE: mb_pred_b_d8x8temporal:currMB <- $rbx
	#DEBUG_VALUE: mb_pred_b_d8x8temporal:curr_plane <- [DW_OP_plus_uconst 12] [$rsp+0]
	#DEBUG_VALUE: mb_pred_b_d8x8temporal:currImg <- [DW_OP_plus_uconst 48] [$rsp+0]
	#DEBUG_VALUE: mb_pred_b_d8x8temporal:dec_picture <- [DW_OP_plus_uconst 16] [$rsp+0]
	#DEBUG_VALUE: mb_pred_b_d8x8temporal:currSlice <- $r13
	#DEBUG_VALUE: mb_pred_b_d8x8temporal:p_Vid <- [DW_OP_plus_uconst 24, DW_OP_deref] $rsp
	#DEBUG_VALUE: mb_pred_b_d8x8temporal:list0 <- [DW_OP_plus_uconst 96, DW_OP_deref] $rsp
	#DEBUG_VALUE: mb_pred_b_d8x8temporal:list1 <- $r15
	#DEBUG_VALUE: mb_pred_b_d8x8temporal:block8x8 <- [DW_OP_plus_uconst 80, DW_OP_deref_size 8, DW_OP_stack_value] $rsp
	#DEBUG_VALUE: k_start <- [DW_OP_plus_uconst 80, DW_OP_deref_size 8, DW_OP_constu 2, DW_OP_shl, DW_OP_stack_value] $rsp
	#DEBUG_VALUE: k_end <- [DW_OP_plus_uconst 80, DW_OP_deref_size 8, DW_OP_constu 2, DW_OP_shl, DW_OP_constu 1, DW_OP_or, DW_OP_stack_value] $rsp
	#DEBUG_VALUE: mb_pred_b_d8x8temporal:k <- $r14
	#DEBUG_VALUE: pred_dir <- [DW_OP_plus_uconst 36, DW_OP_deref] $rsp
	#DEBUG_VALUE: mb_pred_b_d8x8temporal:j6 <- $edi
	.loc	0 0 52 is_stmt 0                # ldecod_src/mb_prediction.c:0:52
	movq	16(%rsp), %rax                  # 8-byte Reload
.Ltmp618:
	.loc	0 404 33 is_stmt 1              # ldecod_src/mb_prediction.c:404:33
	movl	4(%rax), %r8d
	.loc	0 404 102 is_stmt 0             # ldecod_src/mb_prediction.c:404:102
	movq	224(%r9), %r11
	.loc	0 404 49                        # ldecod_src/mb_prediction.c:404:49
	movq	232(%r9), %rax
	.loc	0 404 37                        # ldecod_src/mb_prediction.c:404:37
	movl	%r8d, %r9d
	movq	%rax, 56(%rsp)                  # 8-byte Spill
	subl	4(%rax), %r9d
.Ltmp619:
	#DEBUG_VALUE: iabs:x <- $r9d
	#DEBUG_VALUE: iabs:y <- [DW_OP_constu 31, DW_OP_shra, DW_OP_stack_value] $r9d
	.loc	3 120 18 is_stmt 1              # ldecod_src/inc/ifunctions.h:120:18
	movl	%r9d, %eax
	negl	%eax
	cmovsl	%r9d, %eax
	movq	%r11, 64(%rsp)                  # 8-byte Spill
.Ltmp620:
	.loc	0 404 91                        # ldecod_src/mb_prediction.c:404:91
	subl	4(%r11), %r8d
.Ltmp621:
	#DEBUG_VALUE: iabs:x <- $r8d
	#DEBUG_VALUE: iabs:y <- [DW_OP_constu 31, DW_OP_shra, DW_OP_stack_value] $r8d
	.loc	3 120 18                        # ldecod_src/inc/ifunctions.h:120:18
	movl	%r8d, %r11d
	negl	%r11d
	cmovsl	%r8d, %r11d
.Ltmp622:
	.loc	0 0 0 is_stmt 0                 # ldecod_src/mb_prediction.c:0:0
	sarl	%edi
.Ltmp623:
	movl	3144(%r10), %r9d
.Ltmp624:
	movslq	%edi, %rdi
	.loc	0 404 67 is_stmt 1              # ldecod_src/mb_prediction.c:404:67
	cmpl	%r11d, %eax
.Ltmp625:
	.loc	0 404 15 is_stmt 0              # ldecod_src/mb_prediction.c:404:15
	jbe	.LBB10_64
.Ltmp626:
# %bb.60:                               # %if.then150
                                        #   in Loop: Header=BB10_5 Depth=2
	#DEBUG_VALUE: mb_pred_b_d8x8temporal:currMB <- $rbx
	#DEBUG_VALUE: mb_pred_b_d8x8temporal:curr_plane <- [DW_OP_plus_uconst 12] [$rsp+0]
	#DEBUG_VALUE: mb_pred_b_d8x8temporal:currImg <- [DW_OP_plus_uconst 48] [$rsp+0]
	#DEBUG_VALUE: mb_pred_b_d8x8temporal:dec_picture <- [DW_OP_plus_uconst 16] [$rsp+0]
	#DEBUG_VALUE: mb_pred_b_d8x8temporal:currSlice <- $r13
	#DEBUG_VALUE: mb_pred_b_d8x8temporal:p_Vid <- [DW_OP_plus_uconst 24, DW_OP_deref] $rsp
