	.text
	.file	"mbuffer.c"
	.globl	dump_dpb                        # -- Begin function dump_dpb
	.p2align	4, 0x90
	.type	dump_dpb,@function
dump_dpb:                               # @dump_dpb
	.cfi_startproc
# %bb.0:                                # %entry
	retq
.Lfunc_end0:
	.size	dump_dpb, .Lfunc_end0-dump_dpb
	.cfi_endproc
                                        # -- End function
	.globl	getDpbSize                      # -- Begin function getDpbSize
	.p2align	4, 0x90
	.type	getDpbSize,@function
getDpbSize:                             # @getDpbSize
	.cfi_startproc
# %bb.0:                                # %entry
	pushq	%r14
	.cfi_def_cfa_offset 16
	pushq	%rbx
	.cfi_def_cfa_offset 24
	pushq	%rax
	.cfi_def_cfa_offset 32
	.cfi_offset %rbx, -24
	.cfi_offset %r14, -16
	movl	3128(%rdi), %eax
	incl	%eax
	movl	3132(%rdi), %edx
	incl	%edx
	imull	%eax, %edx
	cmpl	$0, 3136(%rdi)
	sete	%cl
	shll	%cl, %edx
	shll	$7, %edx
	leal	(%rdx,%rdx,2), %ebx
	movl	28(%rdi), %ecx
	addl	$-9, %ecx
	cmpl	$42, %ecx
	ja	.LBB1_14
# %bb.1:                                # %entry
	movl	$152064, %eax                   # imm = 0x25200
	jmpq	*.LJTI1_0(,%rcx,8)
.LBB1_5:                                # %sw.bb11
	movl	$912384, %eax                   # imm = 0xDEC00
	jmp	.LBB1_15
.LBB1_10:                               # %sw.bb18
	movl	$12582912, %eax                 # imm = 0xC00000
	jmp	.LBB1_15
.LBB1_7:                                # %sw.bb14
	movl	$3110400, %eax                  # imm = 0x2F7600
	jmp	.LBB1_15
.LBB1_11:                               # %sw.bb19
	movl	$13369344, %eax                 # imm = 0xCC0000
	jmp	.LBB1_15
.LBB1_9:                                # %sw.bb16
	movl	$7864320, %eax                  # imm = 0x780000
	jmp	.LBB1_15
.LBB1_2:                                # %sw.bb5
	movl	4(%rdi), %ecx
	cmpl	$100, %ecx
	setae	%dl
	cmpl	$44, %ecx
	sete	%cl
	orb	%dl, %cl
	jne	.LBB1_4
# %bb.3:                                # %land.lhs.true
	cmpl	$1, 20(%rdi)
	je	.LBB1_15
.LBB1_4:                                # %if.else
	movl	$345600, %eax                   # imm = 0x54600
	jmp	.LBB1_15
.LBB1_12:                               # %sw.bb20
	movl	$42393600, %eax                 # imm = 0x286E000
	jmp	.LBB1_15
.LBB1_6:                                # %sw.bb12
	movl	$1824768, %eax                  # imm = 0x1BD800
	jmp	.LBB1_15
.LBB1_13:                               # %sw.bb21
	movl	$70778880, %eax                 # imm = 0x4380000
	jmp	.LBB1_15
.LBB1_8:                                # %sw.bb15
	movl	$6912000, %eax                  # imm = 0x697800
	jmp	.LBB1_15
.LBB1_14:                               # %sw.default
	movq	%rdi, %r14
	movl	$.L.str, %edi
	movl	$500, %esi                      # imm = 0x1F4
	callq	error@PLT
	movq	%r14, %rdi
	xorl	%eax, %eax
.LBB1_15:                               # %sw.epilog
	xorl	%edx, %edx
	idivl	%ebx
	movl	%eax, %ecx
	cmpl	$16, %eax
	movl	$16, %eax
	cmovll	%ecx, %eax
	cmpl	$0, 3168(%rdi)
	je	.LBB1_20
# %bb.16:                               # %land.lhs.true23
	cmpl	$0, 4088(%rdi)
	je	.LBB1_20
# %bb.17:                               # %if.then25
	movl	4116(%rdi), %ecx
	cmpl	%eax, %ecx
	jle	.LBB1_19
# %bb.18:                               # %if.then28
	movq	%rdi, %rbx
	movl	$.L.str.1, %edi
	movl	$500, %esi                      # imm = 0x1F4
	callq	error@PLT
	movl	4116(%rbx), %ecx
.LBB1_19:                               # %if.end29
	cmpl	$2, %ecx
	movl	$1, %eax
	cmovgel	%ecx, %eax
.LBB1_20:                               # %if.end33
	addq	$8, %rsp
	.cfi_def_cfa_offset 24
	popq	%rbx
	.cfi_def_cfa_offset 16
	popq	%r14
	.cfi_def_cfa_offset 8
	retq
.Lfunc_end1:
	.size	getDpbSize, .Lfunc_end1-getDpbSize
	.cfi_endproc
	.section	.rodata,"a",@progbits
	.p2align	3, 0x0
.LJTI1_0:
	.quad	.LBB1_15
	.quad	.LBB1_15
	.quad	.LBB1_2
	.quad	.LBB1_5
	.quad	.LBB1_5
	.quad	.LBB1_14
	.quad	.LBB1_14
	.quad	.LBB1_14
	.quad	.LBB1_14
	.quad	.LBB1_14
	.quad	.LBB1_14
	.quad	.LBB1_5
	.quad	.LBB1_6
	.quad	.LBB1_7
	.quad	.LBB1_14
	.quad	.LBB1_14
	.quad	.LBB1_14
	.quad	.LBB1_14
	.quad	.LBB1_14
	.quad	.LBB1_14
	.quad	.LBB1_14
	.quad	.LBB1_7
	.quad	.LBB1_8
	.quad	.LBB1_9
	.quad	.LBB1_14
	.quad	.LBB1_14
	.quad	.LBB1_14
	.quad	.LBB1_14
	.quad	.LBB1_14
	.quad	.LBB1_14
	.quad	.LBB1_14
	.quad	.LBB1_10
	.quad	.LBB1_10
	.quad	.LBB1_11
	.quad	.LBB1_14
	.quad	.LBB1_14
	.quad	.LBB1_14
	.quad	.LBB1_14
	.quad	.LBB1_14
	.quad	.LBB1_14
	.quad	.LBB1_14
	.quad	.LBB1_12
	.quad	.LBB1_13
                                        # -- End function
	.text
	.globl	check_num_ref                   # -- Begin function check_num_ref
	.p2align	4, 0x90
	.type	check_num_ref,@function
check_num_ref:                          # @check_num_ref
	.cfi_startproc
# %bb.0:                                # %entry
	movl	48(%rdi), %eax
	addl	52(%rdi), %eax
	movl	4164(%rdi), %ecx
	cmpl	$2, %ecx
	movl	$1, %edx
	cmovgel	%ecx, %edx
	cmpl	%edx, %eax
	jle	.LBB2_1
# %bb.2:                                # %if.then
	movl	$.L.str.2, %edi
	movl	$500, %esi                      # imm = 0x1F4
	jmp	error@PLT                       # TAILCALL
.LBB2_1:                                # %if.end
	retq
.Lfunc_end2:
	.size	check_num_ref, .Lfunc_end2-check_num_ref
	.cfi_endproc
                                        # -- End function
	.globl	init_dpb                        # -- Begin function init_dpb
	.p2align	4, 0x90
	.type	init_dpb,@function
init_dpb:                               # @init_dpb
	.cfi_startproc
# %bb.0:                                # %entry
	pushq	%r15
	.cfi_def_cfa_offset 16
	pushq	%r14
	.cfi_def_cfa_offset 24
	pushq	%r12
	.cfi_def_cfa_offset 32
	pushq	%rbx
	.cfi_def_cfa_offset 40
	pushq	%rax
	.cfi_def_cfa_offset 48
	.cfi_offset %rbx, -40
	.cfi_offset %r12, -32
	.cfi_offset %r14, -24
	.cfi_offset %r15, -16
	movq	%rsi, %r14
	movq	%rdi, %rbx
	movq	16(%rdi), %r12
	movq	%rdi, (%rsi)
	cmpl	$0, 4160(%rsi)
	je	.LBB3_2
# %bb.1:                                # %if.then
	movq	%r14, %rdi
	callq	free_dpb
.LBB3_2:                                # %if.end
	movl	849084(%rbx), %eax
	cmpl	$128, %eax
	je	.LBB3_4
# %bb.3:                                # %if.end
	cmpl	$118, %eax
	jne	.LBB3_5
.LBB3_4:                                # %if.then5
	movq	%rbx, %rdi
	callq	GetMaxDecFrameBuffering
	movl	%eax, %r15d
	addl	$2, %r15d
	movl	%r15d, 40(%r14)
	movl	4(%r12), %eax
	cmpl	$128, %eax
	jne	.LBB3_7
	jmp	.LBB3_8
.LBB3_5:                                # %if.else
	movq	%r12, %rdi
	callq	getDpbSize
	movl	%eax, %r15d
	movl	%r15d, 40(%r14)
	movl	4(%r12), %eax
	cmpl	$128, %eax
	je	.LBB3_8
.LBB3_7:                                # %if.end8
	cmpl	$118, %eax
	jne	.LBB3_9
.LBB3_8:                                # %if.then14
	leal	2(,%r15,2), %r15d
	movl	%r15d, 40(%r14)
.LBB3_9:                                # %if.end18
	movl	3120(%r12), %eax
	movl	%eax, 4164(%r14)
	cmpl	%eax, 4124(%r12)
	jae	.LBB3_11
# %bb.10:                               # %if.then22
	movl	$.L.str.3, %edi
	movl	$1000, %esi                     # imm = 0x3E8
	callq	error@PLT
	movl	40(%r14), %r15d
.LBB3_11:                               # %if.end23
	movq	$0, 44(%r14)
	movq	$0, 4168(%r14)
	movl	$0, 52(%r14)
	movl	%r15d, %r12d
	movl	$8, %esi
	movq	%r12, %rdi
	callq	calloc@PLT
	movq	%rax, 16(%r14)
	testq	%rax, %rax
	jne	.LBB3_13
# %bb.12:                               # %if.then29
	movl	$.L.str.4, %edi
	callq	no_mem_exit@PLT
	movl	40(%r14), %r12d
	movl	%r12d, %r15d
.LBB3_13:                               # %if.end30
	movl	$8, %esi
	movq	%r12, %rdi
	callq	calloc@PLT
	movq	%rax, 24(%r14)
	testq	%rax, %rax
	jne	.LBB3_15
# %bb.14:                               # %if.then37
	movl	$.L.str.5, %edi
	callq	no_mem_exit@PLT
	movl	40(%r14), %r12d
	movl	%r12d, %r15d
.LBB3_15:                               # %if.end38
	movl	$8, %esi
	movq	%r12, %rdi
	callq	calloc@PLT
	movq	%rax, 32(%r14)
	testq	%rax, %rax
	jne	.LBB3_17
# %bb.16:                               # %if.then45
	movl	$.L.str.6, %edi
	callq	no_mem_exit@PLT
	movl	40(%r14), %r15d
.LBB3_17:                               # %if.end46
	testl	%r15d, %r15d
	je	.LBB3_22
# %bb.18:                               # %for.body.preheader
	xorl	%r12d, %r12d
	jmp	.LBB3_19
	.p2align	4, 0x90
.LBB3_21:                               # %alloc_frame_store.exit
                                        #   in Loop: Header=BB3_19 Depth=1
	movq	16(%r14), %rax
	movq	%r15, (%rax,%r12,8)
	movq	24(%r14), %rax
	movq	$0, (%rax,%r12,8)
	movq	32(%r14), %rax
	movq	$0, (%rax,%r12,8)
	movq	16(%r14), %rax
	movq	(%rax,%r12,8), %rax
	movl	$-1, 72(%rax)
	movq	16(%r14), %rax
	movq	(%rax,%r12,8), %rax
	movl	$0, 80(%rax)
	movq	16(%r14), %rax
	movq	(%rax,%r12,8), %rax
	movl	$0, 76(%rax)
	movq	16(%r14), %rax
	movq	(%rax,%r12,8), %rax
	movl	$0, 88(%rax)
	movq	16(%r14), %rax
	movq	(%rax,%r12,8), %rax
	movl	$0, 84(%rax)
	incq	%r12
	movl	40(%r14), %eax
	cmpq	%rax, %r12
	jae	.LBB3_22
.LBB3_19:                               # %for.body
                                        # =>This Inner Loop Header: Depth=1
	movl	$1, %edi
	movl	$96, %esi
	callq	calloc@PLT
	movq	%rax, %r15
	testq	%rax, %rax
	jne	.LBB3_21
# %bb.20:                               # %if.then.i
                                        #   in Loop: Header=BB3_19 Depth=1
	movl	$.L.str.10, %edi
	callq	no_mem_exit@PLT
	jmp	.LBB3_21
.LBB3_22:                               # %for.end
	movl	848780(%rbx), %edx
	movl	848784(%rbx), %ecx
	movl	848788(%rbx), %r8d
	movl	848792(%rbx), %r9d
	movq	%rbx, %rdi
	xorl	%esi, %esi
	callq	alloc_storable_picture
	movq	%rax, 856488(%rbx)
	movq	%rax, 224(%rax)
	movq	856488(%rbx), %rax
	movq	%rax, 232(%rax)
	movq	%rax, 240(%rax)
	movq	$-2147483648, 56(%r14)          # imm = 0x80000000
	movl	$0, 849028(%rbx)
	movl	$1, 4160(%r14)
	cmpl	$0, 849240(%rbx)
	je	.LBB3_26
# %bb.23:                               # %if.then89
	movl	$1, %edi
	movl	$96, %esi
	callq	calloc@PLT
	movq	%rax, %r14
	testq	%rax, %rax
	jne	.LBB3_25
# %bb.24:                               # %if.then.i160
	movl	$.L.str.10, %edi
	callq	no_mem_exit@PLT
.LBB3_25:                               # %alloc_frame_store.exit161
	movq	%r14, 856048(%rbx)
.LBB3_26:                               # %if.end91
	addq	$8, %rsp
	.cfi_def_cfa_offset 40
	popq	%rbx
	.cfi_def_cfa_offset 32
	popq	%r12
	.cfi_def_cfa_offset 24
	popq	%r14
	.cfi_def_cfa_offset 16
	popq	%r15
	.cfi_def_cfa_offset 8
	retq
.Lfunc_end3:
	.size	init_dpb, .Lfunc_end3-init_dpb
	.cfi_endproc
                                        # -- End function
	.globl	free_dpb                        # -- Begin function free_dpb
	.p2align	4, 0x90
	.type	free_dpb,@function
free_dpb:                               # @free_dpb
	.cfi_startproc
# %bb.0:                                # %entry
	pushq	%r15
	.cfi_def_cfa_offset 16
	pushq	%r14
	.cfi_def_cfa_offset 24
	pushq	%r12
	.cfi_def_cfa_offset 32
	pushq	%rbx
	.cfi_def_cfa_offset 40
	pushq	%rax
	.cfi_def_cfa_offset 48
	.cfi_offset %rbx, -40
	.cfi_offset %r12, -32
	.cfi_offset %r14, -24
	.cfi_offset %r15, -16
	movq	%rdi, %rbx
	movq	(%rdi), %r15
	movq	16(%rdi), %rdi
	testq	%rdi, %rdi
	je	.LBB4_14
# %bb.1:                                # %for.cond.preheader
	movl	40(%rbx), %eax
	testl	%eax, %eax
	je	.LBB4_13
# %bb.2:                                # %for.body.preheader
	xorl	%r12d, %r12d
	jmp	.LBB4_3
	.p2align	4, 0x90
.LBB4_10:                               # %if.end14.i
                                        #   in Loop: Header=BB4_3 Depth=1
	movq	%r14, %rdi
	callq	free@PLT
	movl	40(%rbx), %eax
.LBB4_11:                               # %free_frame_store.exit
                                        #   in Loop: Header=BB4_3 Depth=1
	incq	%r12
	movl	%eax, %ecx
	cmpq	%rcx, %r12
	jae	.LBB4_12
.LBB4_3:                                # %for.body
                                        # =>This Inner Loop Header: Depth=1
	movq	16(%rbx), %rcx
	movq	(%rcx,%r12,8), %r14
	testq	%r14, %r14
	je	.LBB4_11
# %bb.4:                                # %if.then.i
                                        #   in Loop: Header=BB4_3 Depth=1
	movq	48(%r14), %rdi
	testq	%rdi, %rdi
	je	.LBB4_6
# %bb.5:                                # %if.then2.i
                                        #   in Loop: Header=BB4_3 Depth=1
	callq	free_storable_picture
	movq	$0, 48(%r14)
.LBB4_6:                                # %if.end.i
                                        #   in Loop: Header=BB4_3 Depth=1
	movq	56(%r14), %rdi
	testq	%rdi, %rdi
	je	.LBB4_8
# %bb.7:                                # %if.then6.i
                                        #   in Loop: Header=BB4_3 Depth=1
	callq	free_storable_picture
	movq	$0, 56(%r14)
.LBB4_8:                                # %if.end9.i
                                        #   in Loop: Header=BB4_3 Depth=1
	movq	64(%r14), %rdi
	testq	%rdi, %rdi
	je	.LBB4_10
# %bb.9:                                # %if.then11.i
                                        #   in Loop: Header=BB4_3 Depth=1
	callq	free_storable_picture
	jmp	.LBB4_10
.LBB4_12:                               # %for.end.loopexit
	movq	16(%rbx), %rdi
.LBB4_13:                               # %for.end
	callq	free@PLT
	movq	$0, 16(%rbx)
.LBB4_14:                               # %if.end
	movq	24(%rbx), %rdi
	testq	%rdi, %rdi
	je	.LBB4_16
# %bb.15:                               # %if.then6
	callq	free@PLT
.LBB4_16:                               # %if.end8
	movq	32(%rbx), %rdi
	testq	%rdi, %rdi
	je	.LBB4_18
# %bb.17:                               # %if.then10
	callq	free@PLT
.LBB4_18:                               # %if.end12
	movq	$-2147483648, 56(%rbx)          # imm = 0x80000000
	movl	$0, 4160(%rbx)
	cmpl	$0, 849240(%r15)
	je	.LBB4_27
# %bb.19:                               # %if.then14
	movq	856048(%r15), %rbx
	testq	%rbx, %rbx
	je	.LBB4_27
# %bb.20:                               # %if.then.i34
	movq	48(%rbx), %rdi
	testq	%rdi, %rdi
	je	.LBB4_22
# %bb.21:                               # %if.then2.i37
	callq	free_storable_picture
	movq	$0, 48(%rbx)
.LBB4_22:                               # %if.end.i38
	movq	56(%rbx), %rdi
	testq	%rdi, %rdi
	je	.LBB4_24
# %bb.23:                               # %if.then6.i41
	callq	free_storable_picture
	movq	$0, 56(%rbx)
.LBB4_24:                               # %if.end9.i42
	movq	64(%rbx), %rdi
	testq	%rdi, %rdi
	je	.LBB4_26
# %bb.25:                               # %if.then11.i45
	callq	free_storable_picture
.LBB4_26:                               # %if.end14.i46
	movq	%rbx, %rdi
	callq	free@PLT
.LBB4_27:                               # %if.end15
	movq	856488(%r15), %rdi
	addq	$8, %rsp
	.cfi_def_cfa_offset 40
	popq	%rbx
	.cfi_def_cfa_offset 32
	popq	%r12
	.cfi_def_cfa_offset 24
	popq	%r14
	.cfi_def_cfa_offset 16
	popq	%r15
	.cfi_def_cfa_offset 8
	jmp	free_storable_picture           # TAILCALL
.Lfunc_end4:
	.size	free_dpb, .Lfunc_end4-free_dpb
	.cfi_endproc
                                        # -- End function
	.globl	GetMaxDecFrameBuffering         # -- Begin function GetMaxDecFrameBuffering
	.p2align	4, 0x90
	.type	GetMaxDecFrameBuffering,@function
GetMaxDecFrameBuffering:                # @GetMaxDecFrameBuffering
	.cfi_startproc
# %bb.0:                                # %entry
	pushq	%rbp
	.cfi_def_cfa_offset 16
	pushq	%r15
	.cfi_def_cfa_offset 24
	pushq	%r14
	.cfi_def_cfa_offset 32
	pushq	%r13
	.cfi_def_cfa_offset 40
	pushq	%r12
	.cfi_def_cfa_offset 48
	pushq	%rbx
	.cfi_def_cfa_offset 56
	pushq	%rax
	.cfi_def_cfa_offset 64
	.cfi_offset %rbx, -56
	.cfi_offset %r12, -48
	.cfi_offset %r13, -40
	.cfi_offset %r14, -32
	.cfi_offset %r15, -24
	.cfi_offset %rbp, -16
	movq	%rdi, %rbx
	leaq	4148(%rdi), %r12
	xorl	%r13d, %r13d
	movl	$1, %ebp
	xorl	%r15d, %r15d
	xorl	%r14d, %r14d
	jmp	.LBB5_1
	.p2align	4, 0x90
.LBB5_14:                               # %if.end38
                                        #   in Loop: Header=BB5_1 Depth=1
	cmpl	$2, %ecx
	cmovll	%ebp, %ecx
	movl	%ecx, %eax
.LBB5_15:                               # %if.end42
                                        #   in Loop: Header=BB5_1 Depth=1
	cmpl	%r14d, %eax
	cmovgl	%eax, %r14d
.LBB5_16:                               # %if.end46
                                        #   in Loop: Header=BB5_1 Depth=1
	addq	$4128, %r12                     # imm = 0x1020
	addq	$4664, %r13                     # imm = 0x1238
	cmpl	$149248, %r13d                  # imm = 0x24700
	je	.LBB5_17
.LBB5_1:                                # %for.body
                                        # =>This Inner Loop Header: Depth=1
	cmpl	$0, 703692(%rbx,%r13)
	je	.LBB5_9
# %bb.2:                                # %land.lhs.true
                                        #   in Loop: Header=BB5_1 Depth=1
	cmpl	$31, 699456(%rbx,%r13)
	ja	.LBB5_9
# %bb.3:                                # %if.then
                                        #   in Loop: Header=BB5_1 Depth=1
	movl	703548(%rbx,%r13), %eax
	cmpl	$0, 702592(%rbx,%r13)
	je	.LBB5_8
# %bb.4:                                # %land.lhs.true6
                                        #   in Loop: Header=BB5_1 Depth=1
	cmpl	$0, 703512(%rbx,%r13)
	je	.LBB5_8
# %bb.5:                                # %if.then9
                                        #   in Loop: Header=BB5_1 Depth=1
	movl	703540(%rbx,%r13), %ecx
	cmpl	%eax, %ecx
	jle	.LBB5_7
# %bb.6:                                # %if.then14
                                        #   in Loop: Header=BB5_1 Depth=1
	movl	$.L.str.1, %edi
	movl	$500, %esi                      # imm = 0x1F4
	callq	error@PLT
	movl	703540(%rbx,%r13), %ecx
.LBB5_7:                                # %if.end
                                        #   in Loop: Header=BB5_1 Depth=1
	cmpl	$2, %ecx
	cmovll	%ebp, %ecx
	movl	%ecx, %eax
.LBB5_8:                                # %if.end18
                                        #   in Loop: Header=BB5_1 Depth=1
	cmpl	%r15d, %eax
	cmovgl	%eax, %r15d
.LBB5_9:                                # %if.end22
                                        #   in Loop: Header=BB5_1 Depth=1
	cmpl	$0, -4124(%r12)
	je	.LBB5_16
# %bb.10:                               # %if.then25
                                        #   in Loop: Header=BB5_1 Depth=1
	movl	(%r12), %eax
	cmpl	$0, -956(%r12)
	je	.LBB5_15
# %bb.11:                               # %land.lhs.true29
                                        #   in Loop: Header=BB5_1 Depth=1
	cmpl	$0, -36(%r12)
	je	.LBB5_15
# %bb.12:                               # %if.then33
                                        #   in Loop: Header=BB5_1 Depth=1
	movl	-8(%r12), %ecx
	cmpl	%eax, %ecx
	jle	.LBB5_14
# %bb.13:                               # %if.then37
                                        #   in Loop: Header=BB5_1 Depth=1
	movl	$.L.str.1, %edi
	movl	$500, %esi                      # imm = 0x1F4
	callq	error@PLT
	movl	-8(%r12), %ecx
	jmp	.LBB5_14
.LBB5_17:                               # %for.end
	leal	(%r15,%r14), %eax
	testl	%r14d, %r14d
	movl	%r15d, %ecx
	cmovgl	%r14d, %ecx
	addl	%ecx, %ecx
	testl	%r15d, %r15d
	cmovlel	%ecx, %eax
	testl	%r14d, %r14d
	cmovlel	%ecx, %eax
	addq	$8, %rsp
	.cfi_def_cfa_offset 56
	popq	%rbx
	.cfi_def_cfa_offset 48
	popq	%r12
	.cfi_def_cfa_offset 40
	popq	%r13
	.cfi_def_cfa_offset 32
	popq	%r14
	.cfi_def_cfa_offset 24
	popq	%r15
	.cfi_def_cfa_offset 16
	popq	%rbp
	.cfi_def_cfa_offset 8
	retq
.Lfunc_end5:
	.size	GetMaxDecFrameBuffering, .Lfunc_end5-GetMaxDecFrameBuffering
	.cfi_endproc
                                        # -- End function
	.globl	alloc_frame_store               # -- Begin function alloc_frame_store
	.p2align	4, 0x90
	.type	alloc_frame_store,@function
alloc_frame_store:                      # @alloc_frame_store
	.cfi_startproc
# %bb.0:                                # %entry
	pushq	%rbx
	.cfi_def_cfa_offset 16
	.cfi_offset %rbx, -16
	movl	$1, %edi
	movl	$96, %esi
	callq	calloc@PLT
	testq	%rax, %rax
	je	.LBB6_1
# %bb.2:                                # %if.end
	popq	%rbx
	.cfi_def_cfa_offset 8
	retq
.LBB6_1:                                # %if.then
	.cfi_def_cfa_offset 16
	movl	$.L.str.10, %edi
	movq	%rax, %rbx
	callq	no_mem_exit@PLT
	movq	%rbx, %rax
	popq	%rbx
	.cfi_def_cfa_offset 8
	retq
.Lfunc_end6:
	.size	alloc_frame_store, .Lfunc_end6-alloc_frame_store
	.cfi_endproc
                                        # -- End function
	.globl	alloc_storable_picture          # -- Begin function alloc_storable_picture
	.p2align	4, 0x90
	.type	alloc_storable_picture,@function
alloc_storable_picture:                 # @alloc_storable_picture
	.cfi_startproc
# %bb.0:                                # %entry
	pushq	%rbp
	.cfi_def_cfa_offset 16
	pushq	%r15
	.cfi_def_cfa_offset 24
	pushq	%r14
	.cfi_def_cfa_offset 32
	pushq	%r13
	.cfi_def_cfa_offset 40
	pushq	%r12
	.cfi_def_cfa_offset 48
	pushq	%rbx
	.cfi_def_cfa_offset 56
	subq	$40, %rsp
	.cfi_def_cfa_offset 96
	.cfi_offset %rbx, -56
	.cfi_offset %r12, -48
	.cfi_offset %r13, -40
	.cfi_offset %r14, -32
	.cfi_offset %r15, -24
	.cfi_offset %rbp, -16
                                        # kill: def $r9d killed $r9d def $r9
	movq	%r9, 8(%rsp)                    # 8-byte Spill
                                        # kill: def $r8d killed $r8d def $r8
	movq	%r8, 32(%rsp)                   # 8-byte Spill
	movl	%ecx, %ebp
	movl	%edx, %r13d
	movl	%esi, %r12d
	movq	%rdi, %r14
	movq	16(%rdi), %r15
	movl	$1, %edi
	movl	$416, %esi                      # imm = 0x1A0
	callq	calloc@PLT
	movq	%rax, %rbx
	testq	%rax, %rax
	jne	.LBB7_2
# %bb.1:                                # %if.then
	movl	$.L.str.12, %edi
	callq	no_mem_exit@PLT
.LBB7_2:                                # %if.end
	testl	%r12d, %r12d
	je	.LBB7_4
# %bb.3:                                # %if.then3
	movl	%ebp, %eax
	shrl	$31, %eax
	addl	%ebp, %eax
	sarl	%eax
	movq	8(%rsp), %rdx                   # 8-byte Reload
	movl	%edx, %ecx
	shrl	$31, %ecx
	addl	%edx, %ecx
	sarl	%ecx
                                        # kill: def $ecx killed $ecx def $rcx
	movq	%rcx, 8(%rsp)                   # 8-byte Spill
	movl	%eax, %ebp
.LBB7_4:                                # %if.end5
	movl	%r12d, 28(%rsp)                 # 4-byte Spill
	movl	%ebp, %eax
	imull	%r13d, %eax
	leal	255(%rax), %ecx
	testl	%eax, %eax
	cmovnsl	%eax, %ecx
	sarl	$8, %ecx
	movl	%ecx, 108(%rbx)
	movq	$0, 136(%rbx)
	leaq	128(%rbx), %rdi
	movl	856840(%r14), %r8d
	movl	856844(%r14), %ecx
	movl	%ebp, %esi
	movl	%r13d, %edx
	callq	get_mem2DpelWithPad@PLT
	movl	856840(%r14), %eax
	leal	(%r13,%rax,2), %ecx
	movl	%ecx, 356(%rbx)
	movl	856844(%r14), %ecx
	leal	(%rbp,%rcx,2), %edx
	movl	%edx, 364(%rbx)
	cmpl	$0, 36(%r15)
	movq	32(%rsp), %r15                  # 8-byte Reload
	movq	8(%rsp), %r12                   # 8-byte Reload
	je	.LBB7_6
# %bb.5:                                # %if.then14
	leaq	136(%rbx), %rdi
	movl	856848(%r14), %r9d
	movl	856852(%r14), %r8d
	movl	$2, %esi
	movl	%r12d, %edx
	movl	%r15d, %ecx
	callq	get_mem3DpelWithPad@PLT
	movl	856840(%r14), %eax
	movl	856844(%r14), %ecx
.LBB7_6:                                # %if.end17
	movl	856848(%r14), %edx
	leal	(%r15,%rdx,2), %esi
	movl	%esi, 360(%rbx)
	movl	856852(%r14), %esi
	leal	(%r12,%rsi,2), %edi
	movl	%edi, 368(%rbx)
	movl	%ecx, 112(%rbx)
	movl	%eax, 116(%rbx)
	movl	%esi, 120(%rbx)
	movl	%edx, 124(%rbx)
	movl	849280(%r14), %eax
	movl	%eax, 56(%rbx)
	leaq	216(%rbx), %rdi
	leal	15(%rbp), %esi
	leal	15(%r13), %edx
	leal	3(%r13), %r15d
	testl	%r13d, %r13d
	cmovnsl	%r13d, %edx
	cmovnsl	%r13d, %r15d
	leal	3(%rbp), %r12d
	testl	%ebp, %ebp
	cmovnsl	%ebp, %esi
	cmovnsl	%ebp, %r12d
	sarl	$4, %esi
	sarl	$4, %edx
	callq	get_mem2Dshort@PLT
	leaq	152(%rbx), %rdi
	sarl	$2, %r12d
	sarl	$2, %r15d
	movl	%r12d, %esi
	movl	%r15d, %edx
	callq	get_mem2Dmp@PLT
	movl	%r12d, %eax
	imull	%r15d, %eax
	movslq	%eax, %rdi
	movl	$1, %esi
	movq	%rdi, 16(%rsp)                  # 8-byte Spill
	callq	calloc@PLT
	movq	%rax, 184(%rbx)
	testq	%rax, %rax
	jne	.LBB7_8
# %bb.7:                                # %if.then.i
	movl	$.L.str.11, %edi
	callq	no_mem_exit@PLT
.LBB7_8:                                # %alloc_pic_motion.exit
	cmpl	$0, 849280(%r14)
	je	.LBB7_15
# %bb.9:                                # %for.cond.preheader
	leaq	160(%rbx), %rdi
	movl	%r12d, %esi
	movl	%r15d, %edx
	callq	get_mem2Dmp@PLT
	movl	$1, %esi
	movq	16(%rsp), %rdi                  # 8-byte Reload
	callq	calloc@PLT
	movq	%rax, 192(%rbx)
	testq	%rax, %rax
	jne	.LBB7_11
# %bb.10:                               # %if.then.i188
	movl	$.L.str.11, %edi
	callq	no_mem_exit@PLT
.LBB7_11:                               # %alloc_pic_motion.exit189
	leaq	168(%rbx), %rdi
	movl	%r12d, %esi
	movl	%r15d, %edx
	callq	get_mem2Dmp@PLT
	movl	$1, %esi
	movq	16(%rsp), %rdi                  # 8-byte Reload
	callq	calloc@PLT
	movq	%rax, 200(%rbx)
	testq	%rax, %rax
	jne	.LBB7_13
# %bb.12:                               # %if.then.i188.1
	movl	$.L.str.11, %edi
	callq	no_mem_exit@PLT
.LBB7_13:                               # %alloc_pic_motion.exit189.1
	movq	%rbx, %rdi
	addq	$176, %rdi
	movl	%r12d, %esi
	movl	%r15d, %edx
	callq	get_mem2Dmp@PLT
	movl	$1, %esi
	movq	16(%rsp), %rdi                  # 8-byte Reload
	callq	calloc@PLT
	movq	%rax, 208(%rbx)
	testq	%rax, %rax
	jne	.LBB7_15
# %bb.14:                               # %if.then.i188.2
	movl	$.L.str.11, %edi
	callq	no_mem_exit@PLT
.LBB7_15:                               # %if.end52
	leal	-1(%r13), %eax
	leal	-1(%rbp), %ecx
	movq	32(%rsp), %r8                   # 8-byte Reload
	leal	-1(%r8), %edx
	movq	8(%rsp), %r9                    # 8-byte Reload
	leal	-1(%r9), %esi
	movl	$0, 20(%rbx)
	movq	$0, 44(%rbx)
	movl	$0, 52(%rbx)
	movw	$0, 60(%rbx)
	movq	$0, 28(%rbx)
	movq	$0, 33(%rbx)
	movl	$-1, 344(%rbx)
	movl	28(%rsp), %edi                  # 4-byte Reload
	movl	%edi, (%rbx)
	movl	%r13d, 64(%rbx)
	movl	%ebp, 68(%rbx)
	movl	%r8d, 72(%rbx)
	movl	%r9d, 76(%rbx)
	movl	%eax, 80(%rbx)
	movl	%ecx, 84(%rbx)
	movl	%edx, 88(%rbx)
	movl	%esi, 92(%rbx)
	movq	856488(%r14), %rax
	movq	%rax, 224(%rbx)
	movq	%rax, 232(%rbx)
	movq	%rax, 240(%rbx)
	movq	$0, 312(%rbx)
	movq	$0, 96(%rbx)
	movq	$0, 4(%rbx)
	movl	$0, 12(%rbx)
	movl	$0, 324(%rbx)
	testl	%edi, %edi
	je	.LBB7_21
# %bb.16:                               # %if.end52
	movq	16(%r14), %rax
	cmpl	$0, 3136(%rax)
	jne	.LBB7_21
# %bb.17:                               # %for.cond66.preheader
	movl	$33, %edi
	movl	$8, %esi
	callq	calloc@PLT
	movq	%rax, 400(%rbx)
	testq	%rax, %rax
	jne	.LBB7_19
# %bb.18:                               # %if.then76
	movl	$.L.str.13, %edi
	callq	no_mem_exit@PLT
.LBB7_19:                               # %for.inc78
	movl	$33, %edi
	movl	$8, %esi
	callq	calloc@PLT
	movq	%rax, 408(%rbx)
	testq	%rax, %rax
	jne	.LBB7_21
# %bb.20:                               # %if.then76.1
	movl	$.L.str.13, %edi
	callq	no_mem_exit@PLT
.LBB7_21:                               # %if.end81
	movq	%rbx, %rax
	addq	$40, %rsp
	.cfi_def_cfa_offset 56
	popq	%rbx
	.cfi_def_cfa_offset 48
	popq	%r12
	.cfi_def_cfa_offset 40
	popq	%r13
	.cfi_def_cfa_offset 32
	popq	%r14
	.cfi_def_cfa_offset 24
	popq	%r15
	.cfi_def_cfa_offset 16
	popq	%rbp
	.cfi_def_cfa_offset 8
	retq
.Lfunc_end7:
	.size	alloc_storable_picture, .Lfunc_end7-alloc_storable_picture
	.cfi_endproc
                                        # -- End function
	.globl	re_init_dpb                     # -- Begin function re_init_dpb
	.p2align	4, 0x90
	.type	re_init_dpb,@function
re_init_dpb:                            # @re_init_dpb
	.cfi_startproc
# %bb.0:                                # %entry
	pushq	%rbp
	.cfi_def_cfa_offset 16
	pushq	%r15
	.cfi_def_cfa_offset 24
	pushq	%r14
	.cfi_def_cfa_offset 32
	pushq	%r13
	.cfi_def_cfa_offset 40
	pushq	%r12
	.cfi_def_cfa_offset 48
	pushq	%rbx
	.cfi_def_cfa_offset 56
	pushq	%rax
	.cfi_def_cfa_offset 64
	.cfi_offset %rbx, -56
	.cfi_offset %r12, -48
	.cfi_offset %r13, -40
	.cfi_offset %r14, -32
	.cfi_offset %r15, -24
	.cfi_offset %rbp, -16
	movq	%rsi, %rbx
	movq	16(%rdi), %r15
	movl	849084(%rdi), %eax
	cmpl	$128, %eax
	je	.LBB8_2
# %bb.1:                                # %entry
	cmpl	$118, %eax
	jne	.LBB8_3
.LBB8_2:                                # %if.then
	callq	GetMaxDecFrameBuffering
	movl	%eax, %r14d
	addl	$2, %r14d
	movl	4(%r15), %eax
	cmpl	$128, %eax
	jne	.LBB8_5
	jmp	.LBB8_6
.LBB8_3:                                # %if.else
	movq	%r15, %rdi
	callq	getDpbSize
	movl	%eax, %r14d
	movl	4(%r15), %eax
	cmpl	$128, %eax
	je	.LBB8_6
.LBB8_5:                                # %if.end
	cmpl	$118, %eax
	jne	.LBB8_7
.LBB8_6:                                # %if.then10
	leal	2(,%r14,2), %r14d
.LBB8_7:                                # %if.end12
	movl	3120(%r15), %eax
	movl	%eax, 4164(%rbx)
	cmpl	40(%rbx), %r14d
	jle	.LBB8_22
# %bb.8:                                # %if.then15
	cmpl	%eax, 4124(%r15)
	jae	.LBB8_10
# %bb.9:                                # %if.then18
	movl	$.L.str.3, %edi
	movl	$1000, %esi                     # imm = 0x3E8
	callq	error@PLT
.LBB8_10:                               # %if.end19
	movq	16(%rbx), %rdi
	movslq	%r14d, %r15
	shlq	$3, %r15
	movq	%r15, %rsi
	callq	realloc@PLT
	movq	%rax, 16(%rbx)
	testq	%rax, %rax
	jne	.LBB8_12
# %bb.11:                               # %if.then25
	movl	$.L.str.7, %edi
	callq	no_mem_exit@PLT
.LBB8_12:                               # %if.end26
	movq	24(%rbx), %rdi
	movq	%r15, %rsi
	callq	realloc@PLT
	movq	%rax, 24(%rbx)
	testq	%rax, %rax
	jne	.LBB8_14
# %bb.13:                               # %if.then34
	movl	$.L.str.8, %edi
	callq	no_mem_exit@PLT
.LBB8_14:                               # %if.end35
	movq	32(%rbx), %rdi
	movq	%r15, %rsi
	callq	realloc@PLT
	movq	%rax, 32(%rbx)
	testq	%rax, %rax
	je	.LBB8_15
# %bb.16:                               # %if.end44
	movslq	40(%rbx), %r12
	cmpl	%r12d, %r14d
	jg	.LBB8_17
	jmp	.LBB8_21
.LBB8_15:                               # %if.then43
	movl	$.L.str.9, %edi
	callq	no_mem_exit@PLT
	movslq	40(%rbx), %r12
	cmpl	%r12d, %r14d
	jle	.LBB8_21
.LBB8_17:                               # %for.body.preheader
	movl	%r14d, %r13d
	subl	%r12d, %r13d
	shlq	$3, %r12
	xorl	%ebp, %ebp
	jmp	.LBB8_18
	.p2align	4, 0x90
.LBB8_20:                               # %alloc_frame_store.exit
                                        #   in Loop: Header=BB8_18 Depth=1
	movq	16(%rbx), %rax
	addq	%r12, %rax
	movq	%r15, (%rax,%rbp,8)
	movq	24(%rbx), %rax
	addq	%r12, %rax
	movq	$0, (%rax,%rbp,8)
	movq	32(%rbx), %rax
	addq	%r12, %rax
	movq	$0, (%rax,%rbp,8)
	movq	16(%rbx), %rax
	addq	%r12, %rax
	movq	(%rax,%rbp,8), %rax
	movl	$-1, 72(%rax)
	movq	16(%rbx), %rax
	addq	%r12, %rax
	movq	(%rax,%rbp,8), %rax
	movl	$0, 80(%rax)
	movq	16(%rbx), %rax
	addq	%r12, %rax
	movq	(%rax,%rbp,8), %rax
	movl	$0, 76(%rax)
	movq	16(%rbx), %rax
	addq	%r12, %rax
	movq	(%rax,%rbp,8), %rax
	movl	$0, 88(%rax)
	movq	16(%rbx), %rax
	addq	%r12, %rax
	movq	(%rax,%rbp,8), %rax
	movl	$0, 84(%rax)
	incq	%rbp
	cmpl	%ebp, %r13d
	je	.LBB8_21
.LBB8_18:                               # %for.body
                                        # =>This Inner Loop Header: Depth=1
	movl	$1, %edi
	movl	$96, %esi
	callq	calloc@PLT
	movq	%rax, %r15
	testq	%rax, %rax
	jne	.LBB8_20
# %bb.19:                               # %if.then.i
                                        #   in Loop: Header=BB8_18 Depth=1
	movl	$.L.str.10, %edi
	callq	no_mem_exit@PLT
	jmp	.LBB8_20
.LBB8_21:                               # %for.end
	movl	%r14d, 40(%rbx)
.LBB8_22:                               # %if.end78
	addq	$8, %rsp
	.cfi_def_cfa_offset 56
	popq	%rbx
	.cfi_def_cfa_offset 48
	popq	%r12
	.cfi_def_cfa_offset 40
	popq	%r13
	.cfi_def_cfa_offset 32
	popq	%r14
	.cfi_def_cfa_offset 24
	popq	%r15
	.cfi_def_cfa_offset 16
	popq	%rbp
	.cfi_def_cfa_offset 8
	retq
.Lfunc_end8:
	.size	re_init_dpb, .Lfunc_end8-re_init_dpb
	.cfi_endproc
                                        # -- End function
	.globl	free_frame_store                # -- Begin function free_frame_store
	.p2align	4, 0x90
	.type	free_frame_store,@function
free_frame_store:                       # @free_frame_store
	.cfi_startproc
# %bb.0:                                # %entry
	testq	%rdi, %rdi
	je	.LBB9_8
# %bb.1:                                # %if.then
	pushq	%rbx
	.cfi_def_cfa_offset 16
	.cfi_offset %rbx, -16
	movq	%rdi, %rbx
	movq	48(%rdi), %rdi
	testq	%rdi, %rdi
	je	.LBB9_3
# %bb.2:                                # %if.then2
	callq	free_storable_picture
	movq	$0, 48(%rbx)
.LBB9_3:                                # %if.end
	movq	56(%rbx), %rdi
	testq	%rdi, %rdi
	je	.LBB9_5
# %bb.4:                                # %if.then6
	callq	free_storable_picture
	movq	$0, 56(%rbx)
.LBB9_5:                                # %if.end9
	movq	64(%rbx), %rdi
	testq	%rdi, %rdi
	je	.LBB9_7
# %bb.6:                                # %if.then11
	callq	free_storable_picture
.LBB9_7:                                # %if.end14
	movq	%rbx, %rdi
	popq	%rbx
	.cfi_def_cfa_offset 8
	jmp	free@PLT                        # TAILCALL
.LBB9_8:                                # %if.end15
	.cfi_restore %rbx
	retq
.Lfunc_end9:
	.size	free_frame_store, .Lfunc_end9-free_frame_store
	.cfi_endproc
                                        # -- End function
	.globl	free_storable_picture           # -- Begin function free_storable_picture
	.p2align	4, 0x90
	.type	free_storable_picture,@function
free_storable_picture:                  # @free_storable_picture
	.cfi_startproc
# %bb.0:                                # %entry
	testq	%rdi, %rdi
	je	.LBB10_31
# %bb.1:                                # %if.then
	pushq	%rbx
	.cfi_def_cfa_offset 16
	.cfi_offset %rbx, -16
	movq	%rdi, %rbx
	movq	152(%rdi), %rdi
	testq	%rdi, %rdi
	je	.LBB10_3
# %bb.2:                                # %if.then2
	callq	free_mem2Dmp@PLT
	movq	$0, 152(%rbx)
.LBB10_3:                               # %if.end
	movq	184(%rbx), %rdi
	testq	%rdi, %rdi
	je	.LBB10_5
# %bb.4:                                # %if.then.i
	callq	free@PLT
	movq	$0, 184(%rbx)
.LBB10_5:                               # %free_pic_motion.exit
	cmpl	$0, 56(%rbx)
	je	.LBB10_18
# %bb.6:                                # %for.cond.preheader
	movq	160(%rbx), %rdi
	testq	%rdi, %rdi
	je	.LBB10_8
# %bb.7:                                # %if.then8
	callq	free_mem2Dmp@PLT
	movq	$0, 160(%rbx)
.LBB10_8:                               # %if.end15
	movq	192(%rbx), %rdi
	testq	%rdi, %rdi
	je	.LBB10_10
# %bb.9:                                # %if.then.i98
	callq	free@PLT
	movq	$0, 192(%rbx)
.LBB10_10:                              # %free_pic_motion.exit99
	movq	168(%rbx), %rdi
	testq	%rdi, %rdi
	je	.LBB10_12
# %bb.11:                               # %if.then8.1
	callq	free_mem2Dmp@PLT
	movq	$0, 168(%rbx)
.LBB10_12:                              # %if.end15.1
	movq	200(%rbx), %rdi
	testq	%rdi, %rdi
	je	.LBB10_14
# %bb.13:                               # %if.then.i98.1
	callq	free@PLT
	movq	$0, 200(%rbx)
.LBB10_14:                              # %free_pic_motion.exit99.1
	movq	176(%rbx), %rdi
	testq	%rdi, %rdi
	je	.LBB10_16
# %bb.15:                               # %if.then8.2
	callq	free_mem2Dmp@PLT
	movq	$0, 176(%rbx)
.LBB10_16:                              # %if.end15.2
	movq	208(%rbx), %rdi
	testq	%rdi, %rdi
	je	.LBB10_18
# %bb.17:                               # %if.then.i98.2
	callq	free@PLT
	movq	$0, 208(%rbx)
.LBB10_18:                              # %if.end18
	movq	128(%rbx), %rdi
	testq	%rdi, %rdi
	je	.LBB10_20
# %bb.19:                               # %if.then20
	movl	112(%rbx), %esi
	movl	116(%rbx), %edx
	callq	free_mem2DpelWithPad@PLT
	movq	$0, 128(%rbx)
.LBB10_20:                              # %if.end23
	movq	136(%rbx), %rdi
	testq	%rdi, %rdi
	je	.LBB10_22
# %bb.21:                               # %if.then25
	movl	120(%rbx), %esi
	movl	124(%rbx), %edx
	callq	free_mem3DpelWithPad@PLT
	movq	$0, 136(%rbx)
.LBB10_22:                              # %if.end28
	movq	216(%rbx), %rdi
	testq	%rdi, %rdi
	je	.LBB10_24
# %bb.23:                               # %if.then30
	callq	free_mem2Dshort@PLT
	movq	$0, 216(%rbx)
.LBB10_24:                              # %if.end33
	cmpl	$0, 324(%rbx)
	je	.LBB10_26
# %bb.25:                               # %if.then35
	movq	336(%rbx), %rdi
	callq	free@PLT
.LBB10_26:                              # %if.end36
	movq	400(%rbx), %rdi
	testq	%rdi, %rdi
	je	.LBB10_28
# %bb.27:                               # %if.then43
	callq	free@PLT
	movq	$0, 400(%rbx)
.LBB10_28:                              # %for.inc51
	movq	408(%rbx), %rdi
	testq	%rdi, %rdi
	je	.LBB10_30
# %bb.29:                               # %if.then43.1
	callq	free@PLT
.LBB10_30:                              # %for.inc51.1
	movq	%rbx, %rdi
	popq	%rbx
	.cfi_def_cfa_offset 8
	jmp	free@PLT                        # TAILCALL
.LBB10_31:                              # %if.end54
	.cfi_restore %rbx
	retq
.Lfunc_end10:
	.size	free_storable_picture, .Lfunc_end10-free_storable_picture
	.cfi_endproc
                                        # -- End function
	.globl	alloc_pic_motion                # -- Begin function alloc_pic_motion
	.p2align	4, 0x90
	.type	alloc_pic_motion,@function
alloc_pic_motion:                       # @alloc_pic_motion
	.cfi_startproc
# %bb.0:                                # %entry
	pushq	%rbx
	.cfi_def_cfa_offset 16
	.cfi_offset %rbx, -16
	movq	%rdi, %rbx
	imull	%edx, %esi
	movslq	%esi, %rdi
	movl	$1, %esi
	callq	calloc@PLT
	movq	%rax, (%rbx)
	testq	%rax, %rax
	je	.LBB11_2
# %bb.1:                                # %if.end
	popq	%rbx
	.cfi_def_cfa_offset 8
	retq
.LBB11_2:                               # %if.then
	.cfi_def_cfa_offset 16
	movl	$.L.str.11, %edi
	popq	%rbx
	.cfi_def_cfa_offset 8
	jmp	no_mem_exit@PLT                 # TAILCALL
.Lfunc_end11:
	.size	alloc_pic_motion, .Lfunc_end11-alloc_pic_motion
	.cfi_endproc
                                        # -- End function
	.globl	free_pic_motion                 # -- Begin function free_pic_motion
	.p2align	4, 0x90
	.type	free_pic_motion,@function
free_pic_motion:                        # @free_pic_motion
	.cfi_startproc
# %bb.0:                                # %entry
	pushq	%rbx
	.cfi_def_cfa_offset 16
	.cfi_offset %rbx, -16
	movq	%rdi, %rbx
	movq	(%rdi), %rdi
	testq	%rdi, %rdi
	je	.LBB12_2
# %bb.1:                                # %if.then
	callq	free@PLT
	movq	$0, (%rbx)
.LBB12_2:                               # %if.end
	popq	%rbx
	.cfi_def_cfa_offset 8
	retq
.Lfunc_end12:
	.size	free_pic_motion, .Lfunc_end12-free_pic_motion
	.cfi_endproc
                                        # -- End function
	.globl	is_short_ref                    # -- Begin function is_short_ref
	.p2align	4, 0x90
	.type	is_short_ref,@function
is_short_ref:                           # @is_short_ref
	.cfi_startproc
# %bb.0:                                # %entry
	cmpl	$0, 44(%rdi)
	je	.LBB13_1
# %bb.2:                                # %land.rhs
	xorl	%eax, %eax
	cmpb	$0, 40(%rdi)
	sete	%al
	retq
.LBB13_1:
	xorl	%eax, %eax
	retq
.Lfunc_end13:
	.size	is_short_ref, .Lfunc_end13-is_short_ref
	.cfi_endproc
                                        # -- End function
	.globl	is_long_ref                     # -- Begin function is_long_ref
	.p2align	4, 0x90
	.type	is_long_ref,@function
is_long_ref:                            # @is_long_ref
	.cfi_startproc
# %bb.0:                                # %entry
	cmpl	$0, 44(%rdi)
	je	.LBB14_1
# %bb.2:                                # %land.rhs
	xorl	%eax, %eax
	cmpb	$0, 40(%rdi)
	setne	%al
	retq
.LBB14_1:
	xorl	%eax, %eax
	retq
.Lfunc_end14:
	.size	is_long_ref, .Lfunc_end14-is_long_ref
	.cfi_endproc
                                        # -- End function
	.globl	gen_pic_list_from_frame_list    # -- Begin function gen_pic_list_from_frame_list
	.p2align	4, 0x90
	.type	gen_pic_list_from_frame_list,@function
gen_pic_list_from_frame_list:           # @gen_pic_list_from_frame_list
	.cfi_startproc
# %bb.0:                                # %entry
	pushq	%rbp
	.cfi_def_cfa_offset 16
	pushq	%r15
	.cfi_def_cfa_offset 24
	pushq	%r14
	.cfi_def_cfa_offset 32
	pushq	%r13
	.cfi_def_cfa_offset 40
	pushq	%r12
	.cfi_def_cfa_offset 48
	pushq	%rbx
	.cfi_def_cfa_offset 56
	subq	$40, %rsp
	.cfi_def_cfa_offset 96
	.cfi_offset %rbx, -56
	.cfi_offset %r12, -48
	.cfi_offset %r13, -40
	.cfi_offset %r14, -32
	.cfi_offset %r15, -24
	.cfi_offset %rbp, -16
	movq	%r8, 16(%rsp)                   # 8-byte Spill
	movq	%rcx, 8(%rsp)                   # 8-byte Spill
	movl	%edx, %ebp
	movq	%rsi, 24(%rsp)                  # 8-byte Spill
	testl	%r9d, %r9d
	movl	$is_short_ref, %eax
	movl	$is_long_ref, %r13d
	cmoveq	%rax, %r13
	xorl	%r14d, %r14d
	movl	$0, %r12d
	movl	%edi, 36(%rsp)                  # 4-byte Spill
	cmpl	$1, %edi
	jne	.LBB15_18
# %bb.1:                                # %while.cond.preheader
	testl	%ebp, %ebp
	jle	.LBB15_38
# %bb.2:                                # %for.cond.preheader.preheader
	movl	%ebp, %ebx
	negl	%ebx
	xorl	%r12d, %r12d
	xorl	%r14d, %r14d
	jmp	.LBB15_3
	.p2align	4, 0x90
.LBB15_16:                              #   in Loop: Header=BB15_3 Depth=1
	movl	%ebp, %r12d
.LBB15_17:                              # %for.end47
                                        #   in Loop: Header=BB15_3 Depth=1
	cmpl	%ebp, %r14d
	setl	%al
	cmpl	%ebp, %r12d
	setl	%cl
	orb	%al, %cl
	je	.LBB15_18
.LBB15_3:                               # %for.cond.preheader
                                        # =>This Loop Header: Depth=1
                                        #     Child Loop BB15_5 Depth 2
                                        #     Child Loop BB15_12 Depth 2
	cmpl	%ebp, %r14d
	jge	.LBB15_10
# %bb.4:                                # %for.body.preheader
                                        #   in Loop: Header=BB15_3 Depth=1
	movslq	%r14d, %rax
	incl	%r14d
	movq	24(%rsp), %rcx                  # 8-byte Reload
	leaq	(%rcx,%rax,8), %r15
	jmp	.LBB15_5
	.p2align	4, 0x90
.LBB15_8:                               # %for.inc
                                        #   in Loop: Header=BB15_5 Depth=2
	leal	(%rbx,%r14), %eax
	incl	%eax
	movl	%r14d, %ecx
	incl	%ecx
	addq	$8, %r15
	movl	%ecx, %r14d
	cmpl	$1, %eax
	je	.LBB15_9
.LBB15_5:                               # %for.body
                                        #   Parent Loop BB15_3 Depth=1
                                        # =>  This Inner Loop Header: Depth=2
	movq	(%r15), %rax
	testb	$1, (%rax)
	je	.LBB15_8
# %bb.6:                                # %if.then6
                                        #   in Loop: Header=BB15_5 Depth=2
	movq	56(%rax), %rdi
	callq	*%r13
	testl	%eax, %eax
	je	.LBB15_8
# %bb.7:                                # %if.then10
                                        #   in Loop: Header=BB15_3 Depth=1
	movq	(%r15), %rax
	movq	56(%rax), %rax
	movq	16(%rsp), %rdx                  # 8-byte Reload
	movsbq	(%rdx), %rcx
	movq	8(%rsp), %rsi                   # 8-byte Reload
	movq	%rax, (%rsi,%rcx,8)
	incb	(%rdx)
	.p2align	4, 0x90
.LBB15_10:                              # %for.end
                                        #   in Loop: Header=BB15_3 Depth=1
	cmpl	%ebp, %r12d
	jge	.LBB15_17
	jmp	.LBB15_11
	.p2align	4, 0x90
.LBB15_9:                               #   in Loop: Header=BB15_3 Depth=1
	movl	%ebp, %r14d
	cmpl	%ebp, %r12d
	jge	.LBB15_17
.LBB15_11:                              # %for.body23.preheader
                                        #   in Loop: Header=BB15_3 Depth=1
	movslq	%r12d, %rax
	incl	%r12d
	movq	24(%rsp), %rcx                  # 8-byte Reload
	leaq	(%rcx,%rax,8), %r15
	jmp	.LBB15_12
	.p2align	4, 0x90
.LBB15_15:                              # %for.inc45
                                        #   in Loop: Header=BB15_12 Depth=2
	leal	(%rbx,%r12), %eax
	incl	%eax
	movl	%r12d, %ecx
	incl	%ecx
	addq	$8, %r15
	movl	%ecx, %r12d
	cmpl	$1, %eax
	je	.LBB15_16
.LBB15_12:                              # %for.body23
                                        #   Parent Loop BB15_3 Depth=1
                                        # =>  This Inner Loop Header: Depth=2
	movq	(%r15), %rax
	testb	$2, (%rax)
	je	.LBB15_15
# %bb.13:                               # %if.then29
                                        #   in Loop: Header=BB15_12 Depth=2
	movq	64(%rax), %rdi
	callq	*%r13
	testl	%eax, %eax
	je	.LBB15_15
# %bb.14:                               # %if.then34
                                        #   in Loop: Header=BB15_3 Depth=1
	movq	(%r15), %rax
	movq	64(%rax), %rax
	movq	16(%rsp), %rdx                  # 8-byte Reload
	movsbq	(%rdx), %rcx
	movq	8(%rsp), %rsi                   # 8-byte Reload
	movq	%rax, (%rsi,%rcx,8)
	incb	(%rdx)
	jmp	.LBB15_17
.LBB15_18:                              # %if.end48
	cmpl	$2, 36(%rsp)                    # 4-byte Folded Reload
	jne	.LBB15_38
# %bb.19:                               # %while.cond52.preheader
	cmpl	%ebp, %r14d
	jl	.LBB15_21
# %bb.20:                               # %while.cond52.preheader
	cmpl	%ebp, %r12d
	jl	.LBB15_21
.LBB15_38:                              # %if.end119
	addq	$40, %rsp
	.cfi_def_cfa_offset 56
	popq	%rbx
	.cfi_def_cfa_offset 48
	popq	%r12
	.cfi_def_cfa_offset 40
	popq	%r13
	.cfi_def_cfa_offset 32
	popq	%r14
	.cfi_def_cfa_offset 24
	popq	%r15
	.cfi_def_cfa_offset 16
	popq	%rbp
	.cfi_def_cfa_offset 8
	retq
.LBB15_21:                              # %for.cond60.preheader.preheader
	.cfi_def_cfa_offset 96
	movl	%ebp, %ebx
	negl	%ebx
	.p2align	4, 0x90
.LBB15_22:                              # %for.cond60.preheader
                                        # =>This Loop Header: Depth=1
                                        #     Child Loop BB15_24 Depth 2
                                        #     Child Loop BB15_31 Depth 2
	cmpl	%ebp, %r12d
	jl	.LBB15_23
# %bb.29:                               # %for.end88
                                        #   in Loop: Header=BB15_22 Depth=1
	cmpl	%ebp, %r14d
	jl	.LBB15_30
.LBB15_36:                              # %for.end117
                                        #   in Loop: Header=BB15_22 Depth=1
	cmpl	%ebp, %r14d
	jl	.LBB15_22
.LBB15_37:                              # %for.end117
                                        #   in Loop: Header=BB15_22 Depth=1
	cmpl	%ebp, %r12d
	jl	.LBB15_22
	jmp	.LBB15_38
	.p2align	4, 0x90
.LBB15_23:                              # %for.body63.preheader
                                        #   in Loop: Header=BB15_22 Depth=1
	movslq	%r12d, %rax
	incl	%r12d
	movq	24(%rsp), %rcx                  # 8-byte Reload
	leaq	(%rcx,%rax,8), %r15
	jmp	.LBB15_24
	.p2align	4, 0x90
.LBB15_27:                              # %for.inc86
                                        #   in Loop: Header=BB15_24 Depth=2
	leal	(%rbx,%r12), %eax
	incl	%eax
	movl	%r12d, %ecx
	incl	%ecx
	addq	$8, %r15
	movl	%ecx, %r12d
	cmpl	$1, %eax
	je	.LBB15_28
.LBB15_24:                              # %for.body63
                                        #   Parent Loop BB15_22 Depth=1
                                        # =>  This Inner Loop Header: Depth=2
	movq	(%r15), %rax
	testb	$2, (%rax)
	je	.LBB15_27
# %bb.25:                               # %if.then69
                                        #   in Loop: Header=BB15_24 Depth=2
	movq	64(%rax), %rdi
	callq	*%r13
	testl	%eax, %eax
	je	.LBB15_27
# %bb.26:                               # %if.then75
                                        #   in Loop: Header=BB15_22 Depth=1
	movq	(%r15), %rax
	movq	64(%rax), %rax
	movq	16(%rsp), %rdx                  # 8-byte Reload
	movsbq	(%rdx), %rcx
	movq	8(%rsp), %rsi                   # 8-byte Reload
	movq	%rax, (%rsi,%rcx,8)
	incb	(%rdx)
	cmpl	%ebp, %r14d
	jge	.LBB15_36
	jmp	.LBB15_30
	.p2align	4, 0x90
.LBB15_28:                              #   in Loop: Header=BB15_22 Depth=1
	movl	%ebp, %r12d
	cmpl	%ebp, %r14d
	jge	.LBB15_36
.LBB15_30:                              # %for.body92.preheader
                                        #   in Loop: Header=BB15_22 Depth=1
	movslq	%r14d, %rax
	incl	%r14d
	movq	24(%rsp), %rcx                  # 8-byte Reload
	leaq	(%rcx,%rax,8), %r15
	jmp	.LBB15_31
	.p2align	4, 0x90
.LBB15_34:                              # %for.inc115
                                        #   in Loop: Header=BB15_31 Depth=2
	leal	(%rbx,%r14), %eax
	incl	%eax
	movl	%r14d, %ecx
	incl	%ecx
	addq	$8, %r15
	movl	%ecx, %r14d
	cmpl	$1, %eax
	je	.LBB15_35
.LBB15_31:                              # %for.body92
                                        #   Parent Loop BB15_22 Depth=1
                                        # =>  This Inner Loop Header: Depth=2
	movq	(%r15), %rax
	testb	$1, (%rax)
	je	.LBB15_34
# %bb.32:                               # %if.then98
                                        #   in Loop: Header=BB15_31 Depth=2
	movq	56(%rax), %rdi
	callq	*%r13
	testl	%eax, %eax
	je	.LBB15_34
# %bb.33:                               # %if.then104
                                        #   in Loop: Header=BB15_22 Depth=1
	movq	(%r15), %rax
	movq	56(%rax), %rax
	movq	16(%rsp), %rdx                  # 8-byte Reload
	movsbq	(%rdx), %rcx
	movq	8(%rsp), %rsi                   # 8-byte Reload
	movq	%rax, (%rsi,%rcx,8)
	incb	(%rdx)
	cmpl	%ebp, %r14d
	jge	.LBB15_37
	jmp	.LBB15_22
	.p2align	4, 0x90
.LBB15_35:                              #   in Loop: Header=BB15_22 Depth=1
	movl	%ebp, %r14d
	cmpl	%ebp, %r14d
	jge	.LBB15_37
	jmp	.LBB15_22
.Lfunc_end15:
	.size	gen_pic_list_from_frame_list, .Lfunc_end15-gen_pic_list_from_frame_list
	.cfi_endproc
                                        # -- End function
	.globl	update_pic_num                  # -- Begin function update_pic_num
	.p2align	4, 0x90
	.type	update_pic_num,@function
update_pic_num:                         # @update_pic_num
	.cfi_startproc
# %bb.0:                                # %entry
	movq	(%rdi), %rax
	movq	16(%rax), %rax
	movzbl	2068(%rax), %ecx
	addb	$4, %cl
	movl	$1, %edx
	shll	%cl, %edx
	movq	40(%rdi), %rax
	movl	184(%rdi), %ecx
	cmpl	$1, %ecx
	je	.LBB16_1
# %bb.2:                                # %entry
	testl	%ecx, %ecx
	jne	.LBB16_18
# %bb.3:                                # %for.cond.preheader
	movl	48(%rax), %esi
	testl	%esi, %esi
	je	.LBB16_12
# %bb.4:                                # %for.body.lr.ph
	xorl	%ecx, %ecx
	jmp	.LBB16_5
.LBB16_10:                              # %if.then15
                                        #   in Loop: Header=BB16_5 Depth=1
	subl	%r9d, %esi
	movl	%esi, 28(%r8)
	movq	24(%rax), %rsi
	movq	(%rsi,%rcx,8), %rsi
	movl	28(%rsi), %r8d
	movq	48(%rsi), %rsi
	movl	%r8d, 28(%rsi)
	movl	48(%rax), %esi
	.p2align	4, 0x90
.LBB16_11:                              # %for.inc
                                        #   in Loop: Header=BB16_5 Depth=1
	incq	%rcx
	movl	%esi, %r8d
	cmpq	%r8, %rcx
	jae	.LBB16_12
.LBB16_5:                               # %for.body
                                        # =>This Inner Loop Header: Depth=1
	movq	24(%rax), %r8
	movq	(%r8,%rcx,8), %r8
	cmpl	$3, (%r8)
	jne	.LBB16_11
# %bb.6:                                # %if.then6
                                        #   in Loop: Header=BB16_5 Depth=1
	movq	48(%r8), %r9
	cmpl	$0, 44(%r9)
	je	.LBB16_11
# %bb.7:                                # %land.lhs.true
                                        #   in Loop: Header=BB16_5 Depth=1
	cmpb	$0, 40(%r9)
	jne	.LBB16_11
# %bb.8:                                # %if.then15
                                        #   in Loop: Header=BB16_5 Depth=1
	movl	20(%r8), %esi
	movl	%edx, %r9d
	cmpl	172(%rdi), %esi
	ja	.LBB16_10
# %bb.9:                                # %if.then15
                                        #   in Loop: Header=BB16_5 Depth=1
	xorl	%r9d, %r9d
	jmp	.LBB16_10
.LBB16_12:                              # %for.cond47.preheader
	movl	52(%rax), %ecx
	testl	%ecx, %ecx
	je	.LBB16_36
# %bb.13:                               # %for.body49.lr.ph
	xorl	%edx, %edx
	jmp	.LBB16_14
	.p2align	4, 0x90
.LBB16_17:                              # %for.inc72
                                        #   in Loop: Header=BB16_14 Depth=1
	incq	%rdx
	movl	%ecx, %esi
	cmpq	%rsi, %rdx
	jae	.LBB16_36
.LBB16_14:                              # %for.body49
                                        # =>This Inner Loop Header: Depth=1
	movq	32(%rax), %rsi
	movq	(%rsi,%rdx,8), %rsi
	cmpl	$3, (%rsi)
	jne	.LBB16_17
# %bb.15:                               # %if.then54
                                        #   in Loop: Header=BB16_14 Depth=1
	movq	48(%rsi), %rsi
	cmpb	$0, 40(%rsi)
	je	.LBB16_17
# %bb.16:                               # %if.then61
                                        #   in Loop: Header=BB16_14 Depth=1
	movl	36(%rsi), %ecx
	movl	%ecx, 32(%rsi)
	movl	52(%rax), %ecx
	jmp	.LBB16_17
.LBB16_1:
	xorl	%esi, %esi
	cmpl	$0, 48(%rax)
	jne	.LBB16_20
	jmp	.LBB16_29
.LBB16_18:                              # %if.else79
	movl	$1, %esi
	xorl	%ecx, %ecx
	cmpl	$0, 48(%rax)
	je	.LBB16_29
.LBB16_20:                              # %for.body84.lr.ph
	xorl	%r8d, %r8d
	jmp	.LBB16_21
	.p2align	4, 0x90
.LBB16_28:                              # %for.inc151
                                        #   in Loop: Header=BB16_21 Depth=1
	incq	%r8
	movl	48(%rax), %r9d
	cmpq	%r9, %r8
	jae	.LBB16_29
.LBB16_21:                              # %for.body84
                                        # =>This Inner Loop Header: Depth=1
	movq	24(%rax), %r9
	movq	(%r9,%r8,8), %r9
	cmpl	$0, 4(%r9)
	je	.LBB16_28
# %bb.22:                               # %if.then89
                                        #   in Loop: Header=BB16_21 Depth=1
	movl	20(%r9), %r10d
	movl	%edx, %r11d
	cmpl	172(%rdi), %r10d
	ja	.LBB16_24
# %bb.23:                               # %if.then89
                                        #   in Loop: Header=BB16_21 Depth=1
	xorl	%r11d, %r11d
.LBB16_24:                              # %if.then89
                                        #   in Loop: Header=BB16_21 Depth=1
	subl	%r11d, %r10d
	movl	%r10d, 28(%r9)
	movq	24(%rax), %r9
	movq	(%r9,%r8,8), %r9
	movl	4(%r9), %r10d
	testb	$1, %r10b
	je	.LBB16_26
# %bb.25:                               # %if.then121
                                        #   in Loop: Header=BB16_21 Depth=1
	movl	28(%r9), %r10d
	leal	(%rcx,%r10,2), %r10d
	movq	56(%r9), %r9
	movl	%r10d, 28(%r9)
	movq	24(%rax), %r9
	movq	(%r9,%r8,8), %r9
	movl	4(%r9), %r10d
.LBB16_26:                              # %if.end131
                                        #   in Loop: Header=BB16_21 Depth=1
	testb	$2, %r10b
	je	.LBB16_28
# %bb.27:                               # %if.then138
                                        #   in Loop: Header=BB16_21 Depth=1
	movl	28(%r9), %r10d
	leal	(%rsi,%r10,2), %r10d
	movq	64(%r9), %r9
	movl	%r10d, 28(%r9)
	jmp	.LBB16_28
.LBB16_29:                              # %for.cond154.preheader
	cmpl	$0, 52(%rax)
	je	.LBB16_36
# %bb.30:                               # %for.body157.lr.ph
	xorl	%edx, %edx
	jmp	.LBB16_31
	.p2align	4, 0x90
.LBB16_35:                              # %for.inc198
                                        #   in Loop: Header=BB16_31 Depth=1
	incq	%rdx
	movl	52(%rax), %edi
	cmpq	%rdi, %rdx
	jae	.LBB16_36
.LBB16_31:                              # %for.body157
                                        # =>This Inner Loop Header: Depth=1
	movq	32(%rax), %rdi
	movq	(%rdi,%rdx,8), %rdi
	movl	8(%rdi), %r8d
	testb	$1, %r8b
	jne	.LBB16_32
# %bb.33:                               # %if.end177
                                        #   in Loop: Header=BB16_31 Depth=1
	testb	$2, %r8b
	je	.LBB16_35
	jmp	.LBB16_34
	.p2align	4, 0x90
.LBB16_32:                              # %if.then164
                                        #   in Loop: Header=BB16_31 Depth=1
	movq	56(%rdi), %rdi
	movl	36(%rdi), %r8d
	leal	(%rcx,%r8,2), %r8d
	movl	%r8d, 32(%rdi)
	movq	32(%rax), %rdi
	movq	(%rdi,%rdx,8), %rdi
	movl	8(%rdi), %r8d
	testb	$2, %r8b
	je	.LBB16_35
.LBB16_34:                              # %if.then184
                                        #   in Loop: Header=BB16_31 Depth=1
	movq	64(%rdi), %rdi
	movl	36(%rdi), %r8d
	leal	(%rsi,%r8,2), %r8d
	movl	%r8d, 32(%rdi)
	jmp	.LBB16_35
.LBB16_36:                              # %if.end201
	retq
.Lfunc_end16:
	.size	update_pic_num, .Lfunc_end16-update_pic_num
	.cfi_endproc
                                        # -- End function
	.globl	init_lists_i_slice              # -- Begin function init_lists_i_slice
	.p2align	4, 0x90
	.type	init_lists_i_slice,@function
init_lists_i_slice:                     # @init_lists_i_slice
	.cfi_startproc
# %bb.0:                                # %entry
	movq	$0, 13308(%rdi)
	movw	$0, 256(%rdi)
	retq
.Lfunc_end17:
	.size	init_lists_i_slice, .Lfunc_end17-init_lists_i_slice
	.cfi_endproc
                                        # -- End function
	.globl	init_lists_p_slice              # -- Begin function init_lists_p_slice
	.p2align	4, 0x90
	.type	init_lists_p_slice,@function
init_lists_p_slice:                     # @init_lists_p_slice
	.cfi_startproc
# %bb.0:                                # %entry
	pushq	%rbp
	.cfi_def_cfa_offset 16
	pushq	%r15
	.cfi_def_cfa_offset 24
	pushq	%r14
	.cfi_def_cfa_offset 32
	pushq	%r13
	.cfi_def_cfa_offset 40
	pushq	%r12
	.cfi_def_cfa_offset 48
	pushq	%rbx
	.cfi_def_cfa_offset 56
	subq	$40, %rsp
	.cfi_def_cfa_offset 96
	.cfi_offset %rbx, -56
	.cfi_offset %r12, -48
	.cfi_offset %r13, -40
	.cfi_offset %r14, -32
	.cfi_offset %r15, -24
	.cfi_offset %rbp, -16
	movq	%rdi, %rbx
	movq	(%rdi), %r13
	movq	40(%rdi), %r14
	movl	104(%rdi), %eax
	movl	%eax, 12(%rsp)                  # 4-byte Spill
	movl	1176(%rdi), %ebp
	movl	1184(%rdi), %eax
	movq	%rax, 24(%rsp)                  # 8-byte Spill
	movq	$0, 13308(%rdi)
	cmpl	$0, 184(%rdi)
	je	.LBB18_1
# %bb.20:                               # %if.else
	movl	40(%r14), %r12d
	movl	$8, %esi
	movq	%r12, %rdi
	callq	calloc@PLT
	movq	%rax, 16(%rsp)                  # 8-byte Spill
	testq	%rax, %rax
	jne	.LBB18_22
# %bb.21:                               # %if.then93
	movl	$.L.str.14, %edi
	callq	no_mem_exit@PLT
	movl	40(%r14), %r12d
.LBB18_22:                              # %if.end94
	movq	%r13, 32(%rsp)                  # 8-byte Spill
	movl	$8, %esi
	movq	%r12, %rdi
	callq	calloc@PLT
	movq	%rax, %r12
	testq	%rax, %rax
	jne	.LBB18_24
# %bb.23:                               # %if.then100
	movl	$.L.str.15, %edi
	callq	no_mem_exit@PLT
.LBB18_24:                              # %if.end101
	movl	48(%r14), %eax
	xorl	%r15d, %r15d
	movl	$0, %r13d
	testq	%rax, %rax
	movq	16(%rsp), %rdi                  # 8-byte Reload
	je	.LBB18_39
# %bb.25:                               # %for.body106.lr.ph
	movq	24(%r14), %rcx
	cmpl	$1, %eax
	jne	.LBB18_27
# %bb.26:
	xorl	%edx, %edx
	xorl	%r13d, %r13d
.LBB18_35:                              # %for.end128.loopexit.unr-lcssa
	testb	$1, %al
	je	.LBB18_39
# %bb.36:                               # %for.body106.epil
	movq	(%rcx,%rdx,8), %rax
	cmpl	$0, 4(%rax)
	je	.LBB18_39
# %bb.37:                               # %land.lhs.true111.epil
	cmpl	%ebp, 72(%rax)
	jne	.LBB18_39
# %bb.38:                               # %if.then118.epil
	movslq	%r13d, %rcx
	incl	%r13d
	movq	%rax, (%rdi,%rcx,8)
.LBB18_39:                              # %for.end128
	movslq	%r13d, %rsi
	movl	$8, %edx
	movl	$compare_fs_by_frame_num_desc, %ecx
	callq	qsort@PLT
	movq	16(%rsp), %r11                  # 8-byte Reload
	movb	$0, 256(%rbx)
	movl	184(%rbx), %esi
	movq	264(%rbx), %rax
	movl	$0, %ecx
	movl	$0, %edx
	cmpl	$1, %esi
	jne	.LBB18_59
# %bb.40:                               # %while.cond.preheader.i
	testl	%r13d, %r13d
	jle	.LBB18_81
# %bb.41:                               # %for.cond.preheader.i.preheader
	movl	%r13d, %edi
	negl	%edi
	xorl	%ecx, %ecx
	xorl	%edx, %edx
	xorl	%r15d, %r15d
	jmp	.LBB18_42
	.p2align	4, 0x90
.LBB18_57:                              #   in Loop: Header=BB18_42 Depth=1
	movl	%r13d, %edx
.LBB18_58:                              # %for.end47.i
                                        #   in Loop: Header=BB18_42 Depth=1
	cmpl	%r13d, %r15d
	setl	%r8b
	cmpl	%r13d, %edx
	setl	%r9b
	orb	%r8b, %r9b
	je	.LBB18_59
.LBB18_42:                              # %for.cond.preheader.i
                                        # =>This Loop Header: Depth=1
                                        #     Child Loop BB18_44 Depth 2
                                        #     Child Loop BB18_52 Depth 2
	cmpl	%r13d, %r15d
	jge	.LBB18_50
# %bb.43:                               # %for.body.preheader.i
                                        #   in Loop: Header=BB18_42 Depth=1
	movslq	%r15d, %r8
	incl	%r15d
	leaq	(%r11,%r8,8), %r8
	jmp	.LBB18_44
	.p2align	4, 0x90
.LBB18_48:                              # %for.inc.i
                                        #   in Loop: Header=BB18_44 Depth=2
	leal	(%rdi,%r15), %r9d
	incl	%r9d
	movl	%r15d, %r10d
	incl	%r10d
	addq	$8, %r8
	movl	%r10d, %r15d
	cmpl	$1, %r9d
	je	.LBB18_49
.LBB18_44:                              # %for.body.i
                                        #   Parent Loop BB18_42 Depth=1
                                        # =>  This Inner Loop Header: Depth=2
	movq	(%r8), %r9
	testb	$1, (%r9)
	je	.LBB18_48
# %bb.45:                               # %if.then6.i
                                        #   in Loop: Header=BB18_44 Depth=2
	movq	56(%r9), %r9
	cmpl	$0, 44(%r9)
	je	.LBB18_48
# %bb.46:                               # %is_short_ref.exit547
                                        #   in Loop: Header=BB18_44 Depth=2
	cmpb	$0, 40(%r9)
	jne	.LBB18_48
# %bb.47:                               # %if.then10.i
                                        #   in Loop: Header=BB18_42 Depth=1
	movsbq	%cl, %rcx
	movq	%r9, (%rax,%rcx,8)
	movzbl	256(%rbx), %ecx
	incb	%cl
	movb	%cl, 256(%rbx)
	jmp	.LBB18_50
	.p2align	4, 0x90
.LBB18_49:                              #   in Loop: Header=BB18_42 Depth=1
	movl	%r13d, %r15d
.LBB18_50:                              # %for.end.i
                                        #   in Loop: Header=BB18_42 Depth=1
	cmpl	%r13d, %edx
	jge	.LBB18_58
# %bb.51:                               # %for.body23.preheader.i
                                        #   in Loop: Header=BB18_42 Depth=1
	movslq	%edx, %r8
	incl	%edx
	leaq	(%r11,%r8,8), %r8
	jmp	.LBB18_52
	.p2align	4, 0x90
.LBB18_56:                              # %for.inc45.i
                                        #   in Loop: Header=BB18_52 Depth=2
	leal	(%rdi,%rdx), %r9d
	incl	%r9d
                                        # kill: def $edx killed $edx killed $rdx
	incl	%edx
	addq	$8, %r8
                                        # kill: def $edx killed $edx def $rdx
	cmpl	$1, %r9d
	je	.LBB18_57
.LBB18_52:                              # %for.body23.i
                                        #   Parent Loop BB18_42 Depth=1
                                        # =>  This Inner Loop Header: Depth=2
	movq	(%r8), %r9
	testb	$2, (%r9)
	je	.LBB18_56
# %bb.53:                               # %if.then29.i
                                        #   in Loop: Header=BB18_52 Depth=2
	movq	64(%r9), %r9
	cmpl	$0, 44(%r9)
	je	.LBB18_56
# %bb.54:                               # %is_short_ref.exit540
                                        #   in Loop: Header=BB18_52 Depth=2
	cmpb	$0, 40(%r9)
	jne	.LBB18_56
# %bb.55:                               # %if.then34.i
                                        #   in Loop: Header=BB18_42 Depth=1
	movsbq	%cl, %rcx
	movq	%r9, (%rax,%rcx,8)
	movzbl	256(%rbx), %ecx
	incb	%cl
	movb	%cl, 256(%rbx)
	jmp	.LBB18_58
.LBB18_59:                              # %if.end48.i
	cmpl	$2, %esi
	jne	.LBB18_81
# %bb.60:                               # %while.cond52.preheader.i
	cmpl	%r13d, %r15d
	jl	.LBB18_62
# %bb.61:                               # %while.cond52.preheader.i
	cmpl	%r13d, %edx
	jl	.LBB18_62
.LBB18_81:                              # %gen_pic_list_from_frame_list.exit
	movl	52(%r14), %eax
	xorl	%r13d, %r13d
	movl	$0, %r15d
	testq	%rax, %rax
	je	.LBB18_93
# %bb.82:                               # %for.body141.lr.ph
	movq	32(%r14), %rcx
	cmpl	$1, %eax
	jne	.LBB18_84
# %bb.83:
	xorl	%edx, %edx
	xorl	%r15d, %r15d
.LBB18_90:                              # %for.end158.loopexit.unr-lcssa
	testb	$1, %al
	je	.LBB18_93
# %bb.91:                               # %for.body141.epil
	movq	(%rcx,%rdx,8), %rax
	cmpl	%ebp, 72(%rax)
	jne	.LBB18_93
# %bb.92:                               # %if.then148.epil
	movslq	%r15d, %rcx
	incl	%r15d
	movq	%rax, (%r12,%rcx,8)
.LBB18_93:                              # %for.end158
	movslq	%r15d, %rsi
	movl	$8, %edx
	movl	$compare_fs_by_lt_pic_idx_asc, %ecx
	movq	%r12, %rdi
	callq	qsort@PLT
	movl	184(%rbx), %edx
	movq	264(%rbx), %rax
	movl	$0, %ecx
	cmpl	$1, %edx
	movq	16(%rsp), %r10                  # 8-byte Reload
	jne	.LBB18_113
# %bb.94:                               # %while.cond.preheader.i460
	testl	%r15d, %r15d
	jle	.LBB18_135
# %bb.95:                               # %for.cond.preheader.i462.preheader
	movl	%r15d, %esi
	negl	%esi
	xorl	%ecx, %ecx
	xorl	%r13d, %r13d
	jmp	.LBB18_96
	.p2align	4, 0x90
.LBB18_111:                             #   in Loop: Header=BB18_96 Depth=1
	movl	%r15d, %ecx
.LBB18_112:                             # %for.end47.i469
                                        #   in Loop: Header=BB18_96 Depth=1
	cmpl	%r15d, %r13d
	setl	%dil
	cmpl	%r15d, %ecx
	setl	%r8b
	orb	%dil, %r8b
	je	.LBB18_113
.LBB18_96:                              # %for.cond.preheader.i462
                                        # =>This Loop Header: Depth=1
                                        #     Child Loop BB18_98 Depth 2
                                        #     Child Loop BB18_106 Depth 2
	cmpl	%r15d, %r13d
	jge	.LBB18_104
# %bb.97:                               # %for.body.preheader.i494
                                        #   in Loop: Header=BB18_96 Depth=1
	movslq	%r13d, %rdi
	incl	%r13d
	leaq	(%r12,%rdi,8), %rdi
	jmp	.LBB18_98
	.p2align	4, 0x90
.LBB18_102:                             # %for.inc.i511
                                        #   in Loop: Header=BB18_98 Depth=2
	leal	(%rsi,%r13), %r8d
	incl	%r8d
	movl	%r13d, %r9d
	incl	%r9d
	addq	$8, %rdi
	movl	%r9d, %r13d
	cmpl	$1, %r8d
	je	.LBB18_103
.LBB18_98:                              # %for.body.i495
                                        #   Parent Loop BB18_96 Depth=1
                                        # =>  This Inner Loop Header: Depth=2
	movq	(%rdi), %r8
	testb	$1, (%r8)
	je	.LBB18_102
# %bb.99:                               # %if.then6.i500
                                        #   in Loop: Header=BB18_98 Depth=2
	movq	56(%r8), %r8
	cmpl	$0, 44(%r8)
	je	.LBB18_102
# %bb.100:                              # %is_long_ref.exit573
                                        #   in Loop: Header=BB18_98 Depth=2
	cmpb	$0, 40(%r8)
	je	.LBB18_102
# %bb.101:                              # %if.then10.i504
                                        #   in Loop: Header=BB18_96 Depth=1
	movsbq	256(%rbx), %rdi
	movq	%r8, (%rax,%rdi,8)
	incb	256(%rbx)
	jmp	.LBB18_104
	.p2align	4, 0x90
.LBB18_103:                             #   in Loop: Header=BB18_96 Depth=1
	movl	%r15d, %r13d
.LBB18_104:                             # %for.end.i466
                                        #   in Loop: Header=BB18_96 Depth=1
	cmpl	%r15d, %ecx
	jge	.LBB18_112
# %bb.105:                              # %for.body23.preheader.i473
                                        #   in Loop: Header=BB18_96 Depth=1
	movslq	%ecx, %rdi
	incl	%ecx
	leaq	(%r12,%rdi,8), %rdi
	jmp	.LBB18_106
	.p2align	4, 0x90
.LBB18_110:                             # %for.inc45.i490
                                        #   in Loop: Header=BB18_106 Depth=2
	leal	(%rsi,%rcx), %r8d
	incl	%r8d
                                        # kill: def $ecx killed $ecx killed $rcx
	incl	%ecx
	addq	$8, %rdi
                                        # kill: def $ecx killed $ecx def $rcx
	cmpl	$1, %r8d
	je	.LBB18_111
.LBB18_106:                             # %for.body23.i474
                                        #   Parent Loop BB18_96 Depth=1
                                        # =>  This Inner Loop Header: Depth=2
	movq	(%rdi), %r8
	testb	$2, (%r8)
	je	.LBB18_110
# %bb.107:                              # %if.then29.i479
                                        #   in Loop: Header=BB18_106 Depth=2
	movq	64(%r8), %r8
	cmpl	$0, 44(%r8)
	je	.LBB18_110
# %bb.108:                              # %is_long_ref.exit566
                                        #   in Loop: Header=BB18_106 Depth=2
	cmpb	$0, 40(%r8)
	je	.LBB18_110
# %bb.109:                              # %if.then34.i483
                                        #   in Loop: Header=BB18_96 Depth=1
	movsbq	256(%rbx), %rdi
	movq	%r8, (%rax,%rdi,8)
	incb	256(%rbx)
	jmp	.LBB18_112
.LBB18_113:                             # %if.end48.i400
	cmpl	$2, %edx
	jne	.LBB18_135
# %bb.114:                              # %while.cond52.preheader.i404
	cmpl	%r15d, %r13d
	jl	.LBB18_116
# %bb.115:                              # %while.cond52.preheader.i404
	cmpl	%r15d, %ecx
	jl	.LBB18_116
.LBB18_135:                             # %gen_pic_list_from_frame_list.exit515
	movq	%r10, %rdi
	callq	free@PLT
	movq	%r12, %rdi
	callq	free@PLT
	movq	32(%rsp), %r13                  # 8-byte Reload
	movb	$0, 257(%rbx)
	cmpl	$0, 32(%rbx)
	jne	.LBB18_162
	jmp	.LBB18_137
.LBB18_1:                               # %for.cond.preheader
	movl	48(%r14), %ecx
	testl	%ecx, %ecx
	je	.LBB18_2
# %bb.3:                                # %for.body.lr.ph
	xorl	%eax, %eax
	xorl	%r12d, %r12d
	jmp	.LBB18_4
	.p2align	4, 0x90
.LBB18_9:                               # %for.inc
                                        #   in Loop: Header=BB18_4 Depth=1
	incq	%rax
	movl	%ecx, %edx
	cmpq	%rdx, %rax
	jae	.LBB18_10
.LBB18_4:                               # %for.body
                                        # =>This Inner Loop Header: Depth=1
	movq	24(%r14), %rdx
	movq	(%rdx,%rax,8), %rdx
	cmpl	$3, (%rdx)
	jne	.LBB18_9
# %bb.5:                                # %if.then6
                                        #   in Loop: Header=BB18_4 Depth=1
	movq	48(%rdx), %rdx
	cmpl	$0, 44(%rdx)
	je	.LBB18_9
# %bb.6:                                # %land.lhs.true
                                        #   in Loop: Header=BB18_4 Depth=1
	cmpb	$0, 40(%rdx)
	jne	.LBB18_9
# %bb.7:                                # %land.lhs.true15
                                        #   in Loop: Header=BB18_4 Depth=1
	cmpl	%ebp, 344(%rdx)
	jne	.LBB18_9
# %bb.8:                                # %if.then22
                                        #   in Loop: Header=BB18_4 Depth=1
	movq	264(%rbx), %rcx
	movslq	%r12d, %rsi
	incl	%r12d
	movq	%rdx, (%rcx,%rsi,8)
	movl	48(%r14), %ecx
	jmp	.LBB18_9
.LBB18_27:                              # %for.body106.lr.ph.new
	movl	%eax, %esi
	andl	$-2, %esi
	xorl	%edx, %edx
	xorl	%r13d, %r13d
	jmp	.LBB18_28
	.p2align	4, 0x90
.LBB18_34:                              # %for.inc126.1
                                        #   in Loop: Header=BB18_28 Depth=1
	addq	$2, %rdx
	cmpq	%rdx, %rsi
	je	.LBB18_35
.LBB18_28:                              # %for.body106
                                        # =>This Inner Loop Header: Depth=1
	movq	(%rcx,%rdx,8), %r9
	cmpl	$0, 4(%r9)
	je	.LBB18_31
# %bb.29:                               # %land.lhs.true111
                                        #   in Loop: Header=BB18_28 Depth=1
	cmpl	%ebp, 72(%r9)
	jne	.LBB18_31
# %bb.30:                               # %if.then118
                                        #   in Loop: Header=BB18_28 Depth=1
	movslq	%r13d, %r8
	incl	%r13d
	movq	%r9, (%rdi,%r8,8)
.LBB18_31:                              # %for.inc126
                                        #   in Loop: Header=BB18_28 Depth=1
	movq	8(%rcx,%rdx,8), %r9
	cmpl	$0, 4(%r9)
	je	.LBB18_34
# %bb.32:                               # %land.lhs.true111.1
                                        #   in Loop: Header=BB18_28 Depth=1
	cmpl	%ebp, 72(%r9)
	jne	.LBB18_34
# %bb.33:                               # %if.then118.1
                                        #   in Loop: Header=BB18_28 Depth=1
	movslq	%r13d, %r8
	incl	%r13d
	movq	%r9, (%rdi,%r8,8)
	jmp	.LBB18_34
.LBB18_84:                              # %for.body141.lr.ph.new
	movl	%eax, %esi
	andl	$-2, %esi
	xorl	%edx, %edx
	xorl	%r15d, %r15d
	jmp	.LBB18_85
	.p2align	4, 0x90
.LBB18_89:                              # %for.inc156.1
                                        #   in Loop: Header=BB18_85 Depth=1
	addq	$2, %rdx
	cmpq	%rdx, %rsi
	je	.LBB18_90
.LBB18_85:                              # %for.body141
                                        # =>This Inner Loop Header: Depth=1
	movq	(%rcx,%rdx,8), %rdi
	cmpl	%ebp, 72(%rdi)
	je	.LBB18_86
# %bb.87:                               # %for.inc156
                                        #   in Loop: Header=BB18_85 Depth=1
	movq	8(%rcx,%rdx,8), %rdi
	cmpl	%ebp, 72(%rdi)
	jne	.LBB18_89
	jmp	.LBB18_88
	.p2align	4, 0x90
.LBB18_86:                              # %if.then148
                                        #   in Loop: Header=BB18_85 Depth=1
	movslq	%r15d, %r8
	incl	%r15d
	movq	%rdi, (%r12,%r8,8)
	movq	8(%rcx,%rdx,8), %rdi
	cmpl	%ebp, 72(%rdi)
	jne	.LBB18_89
.LBB18_88:                              # %if.then148.1
                                        #   in Loop: Header=BB18_85 Depth=1
	movslq	%r15d, %r8
	incl	%r15d
	movq	%rdi, (%r12,%r8,8)
	jmp	.LBB18_89
.LBB18_2:
	xorl	%r12d, %r12d
.LBB18_10:                              # %for.end
	movq	264(%rbx), %rdi
	movslq	%r12d, %r15
	movl	$8, %edx
	movl	$compare_pic_by_pic_num_desc, %ecx
	movq	%r15, %rsi
	callq	qsort@PLT
	movb	%r15b, 256(%rbx)
	movl	52(%r14), %ecx
	testl	%ecx, %ecx
	je	.LBB18_11
# %bb.12:                               # %for.body39.lr.ph
	xorl	%eax, %eax
	jmp	.LBB18_13
	.p2align	4, 0x90
.LBB18_17:                              # %for.inc73
                                        #   in Loop: Header=BB18_13 Depth=1
	incq	%rax
	movl	%ecx, %edx
	cmpq	%rdx, %rax
	jae	.LBB18_18
.LBB18_13:                              # %for.body39
                                        # =>This Inner Loop Header: Depth=1
	movq	32(%r14), %rdx
	movq	(%rdx,%rax,8), %rdx
	cmpl	$3, (%rdx)
	jne	.LBB18_17
# %bb.14:                               # %if.then45
                                        #   in Loop: Header=BB18_13 Depth=1
	movq	48(%rdx), %rdx
	cmpb	$0, 40(%rdx)
	je	.LBB18_17
# %bb.15:                               # %land.lhs.true53
                                        #   in Loop: Header=BB18_13 Depth=1
	cmpl	%ebp, 344(%rdx)
	jne	.LBB18_17
# %bb.16:                               # %if.then61
                                        #   in Loop: Header=BB18_13 Depth=1
	movq	264(%rbx), %rcx
	movslq	%r12d, %rsi
	incl	%r12d
	movq	%rdx, (%rcx,%rsi,8)
	movl	52(%r14), %ecx
	jmp	.LBB18_17
.LBB18_18:                              # %for.end75.loopexit
	movzbl	256(%rbx), %eax
	movl	%r12d, %r15d
	jmp	.LBB18_19
.LBB18_11:
	movl	%r15d, %eax
.LBB18_19:                              # %for.end75
	movsbq	%al, %rax
	leaq	(,%rax,8), %rdi
	addq	264(%rbx), %rdi
	movsbl	%al, %eax
	subl	%eax, %r12d
	movslq	%r12d, %rsi
	movl	$8, %edx
	movl	$compare_pic_by_lt_pic_num_asc, %ecx
	callq	qsort@PLT
	movb	%r15b, 256(%rbx)
	movb	$0, 257(%rbx)
	cmpl	$0, 32(%rbx)
	jne	.LBB18_162
.LBB18_137:                             # %if.then170
	movl	40(%r14), %edi
	movl	$8, %esi
	callq	calloc@PLT
	movq	%rax, 13320(%rbx)
	testq	%rax, %rax
	je	.LBB18_138
# %bb.139:                              # %if.end178
	leaq	13308(%rbx), %r8
	movl	184(%rbx), %esi
	testl	%esi, %esi
	je	.LBB18_140
.LBB18_145:                             # %if.else208
	movq	13320(%rbx), %rcx
	movq	%r14, %rdi
	xorl	%edx, %edx
	movl	12(%rsp), %r9d                  # 4-byte Reload
	pushq	24(%rsp)                        # 8-byte Folded Reload
	.cfi_adjust_cfa_offset 8
	pushq	%rbp
	.cfi_adjust_cfa_offset 8
	callq	append_interview_list
	addq	$16, %rsp
	.cfi_adjust_cfa_offset -16
	movl	184(%rbx), %esi
	movq	13320(%rbx), %rcx
	movl	13308(%rbx), %edx
	movq	264(%rbx), %rax
	cmpl	$2, %esi
	je	.LBB18_154
# %bb.146:                              # %if.else208
	cmpl	$1, %esi
	jne	.LBB18_162
# %bb.147:                              # %for.cond.preheader.i520
	testl	%edx, %edx
	jle	.LBB18_162
# %bb.148:                              # %for.body.preheader.i521
	movzbl	256(%rbx), %esi
	cmpl	$1, %edx
	jne	.LBB18_150
# %bb.149:
	xorl	%edi, %edi
	jmp	.LBB18_152
.LBB18_138:                             # %if.then177
	movl	$.L.str.16, %edi
	callq	no_mem_exit@PLT
	leaq	13308(%rbx), %r8
	movl	184(%rbx), %esi
	testl	%esi, %esi
	jne	.LBB18_145
.LBB18_140:                             # %if.then185
	movzbl	256(%rbx), %r15d
	movq	13320(%rbx), %rcx
	movq	%r14, %rdi
	xorl	%esi, %esi
	xorl	%edx, %edx
	movl	12(%rsp), %r9d                  # 4-byte Reload
	pushq	24(%rsp)                        # 8-byte Folded Reload
	.cfi_adjust_cfa_offset 8
	pushq	%rbp
	.cfi_adjust_cfa_offset 8
	callq	append_interview_list
	addq	$16, %rsp
	.cfi_adjust_cfa_offset -16
	cmpl	$0, 13308(%rbx)
	je	.LBB18_144
# %bb.141:                              # %for.body192.lr.ph
	movzbl	%r15b, %eax
	movsbq	%al, %rcx
	shlq	$3, %rcx
	xorl	%r15d, %r15d
	.p2align	4, 0x90
.LBB18_142:                             # %for.body192
                                        # =>This Inner Loop Header: Depth=1
	movq	13320(%rbx), %rdx
	movq	(%rdx,%r15,8), %rdx
	movq	48(%rdx), %rdx
	movq	264(%rbx), %rsi
	addq	%rcx, %rsi
	movq	%rdx, (%rsi,%r15,8)
	incq	%r15
	movl	13308(%rbx), %edx
	cmpq	%rdx, %r15
	jb	.LBB18_142
# %bb.143:                              # %for.end204.loopexit
	addl	%eax, %r15d
.LBB18_144:                             # %for.end204
	movb	%r15b, 256(%rbx)
	jmp	.LBB18_162
.LBB18_62:                              # %for.cond60.preheader.i.preheader
	movl	%r13d, %esi
	negl	%esi
	.p2align	4, 0x90
.LBB18_63:                              # %for.cond60.preheader.i
                                        # =>This Loop Header: Depth=1
                                        #     Child Loop BB18_65 Depth 2
                                        #     Child Loop BB18_73 Depth 2
	cmpl	%r13d, %edx
	jl	.LBB18_64
# %bb.71:                               # %for.end88.i
                                        #   in Loop: Header=BB18_63 Depth=1
	cmpl	%r13d, %r15d
	jl	.LBB18_72
.LBB18_79:                              # %for.end117.i
                                        #   in Loop: Header=BB18_63 Depth=1
	cmpl	%r13d, %r15d
	jl	.LBB18_63
.LBB18_80:                              # %for.end117.i
                                        #   in Loop: Header=BB18_63 Depth=1
	cmpl	%r13d, %edx
	jl	.LBB18_63
	jmp	.LBB18_81
	.p2align	4, 0x90
.LBB18_64:                              # %for.body63.preheader.i
                                        #   in Loop: Header=BB18_63 Depth=1
	movslq	%edx, %rdi
	incl	%edx
	leaq	(%r11,%rdi,8), %rdi
	jmp	.LBB18_65
	.p2align	4, 0x90
.LBB18_69:                              # %for.inc86.i
                                        #   in Loop: Header=BB18_65 Depth=2
	leal	(%rsi,%rdx), %r8d
	incl	%r8d
                                        # kill: def $edx killed $edx killed $rdx
	incl	%edx
	addq	$8, %rdi
                                        # kill: def $edx killed $edx def $rdx
	cmpl	$1, %r8d
	je	.LBB18_70
.LBB18_65:                              # %for.body63.i
                                        #   Parent Loop BB18_63 Depth=1
                                        # =>  This Inner Loop Header: Depth=2
	movq	(%rdi), %r8
	testb	$2, (%r8)
	je	.LBB18_69
# %bb.66:                               # %if.then69.i
                                        #   in Loop: Header=BB18_65 Depth=2
	movq	64(%r8), %r8
	cmpl	$0, 44(%r8)
	je	.LBB18_69
# %bb.67:                               # %is_short_ref.exit533
                                        #   in Loop: Header=BB18_65 Depth=2
	cmpb	$0, 40(%r8)
	jne	.LBB18_69
# %bb.68:                               # %if.then75.i
                                        #   in Loop: Header=BB18_63 Depth=1
	movsbq	%cl, %rcx
	movq	%r8, (%rax,%rcx,8)
	movzbl	256(%rbx), %ecx
	incb	%cl
	movb	%cl, 256(%rbx)
	cmpl	%r13d, %r15d
	jge	.LBB18_79
	jmp	.LBB18_72
	.p2align	4, 0x90
.LBB18_70:                              #   in Loop: Header=BB18_63 Depth=1
	movl	%r13d, %edx
	cmpl	%r13d, %r15d
	jge	.LBB18_79
.LBB18_72:                              # %for.body92.preheader.i
                                        #   in Loop: Header=BB18_63 Depth=1
	movslq	%r15d, %rdi
	incl	%r15d
	leaq	(%r11,%rdi,8), %rdi
	jmp	.LBB18_73
	.p2align	4, 0x90
.LBB18_77:                              # %for.inc115.i
                                        #   in Loop: Header=BB18_73 Depth=2
	leal	(%rsi,%r15), %r8d
	incl	%r8d
	movl	%r15d, %r9d
	incl	%r9d
	addq	$8, %rdi
	movl	%r9d, %r15d
	cmpl	$1, %r8d
	je	.LBB18_78
.LBB18_73:                              # %for.body92.i
                                        #   Parent Loop BB18_63 Depth=1
                                        # =>  This Inner Loop Header: Depth=2
	movq	(%rdi), %r8
	testb	$1, (%r8)
	je	.LBB18_77
# %bb.74:                               # %if.then98.i
                                        #   in Loop: Header=BB18_73 Depth=2
	movq	56(%r8), %r8
	cmpl	$0, 44(%r8)
	je	.LBB18_77
# %bb.75:                               # %is_short_ref.exit
                                        #   in Loop: Header=BB18_73 Depth=2
	cmpb	$0, 40(%r8)
	jne	.LBB18_77
# %bb.76:                               # %if.then104.i
                                        #   in Loop: Header=BB18_63 Depth=1
	movsbq	%cl, %rcx
	movq	%r8, (%rax,%rcx,8)
	movzbl	256(%rbx), %ecx
	incb	%cl
	movb	%cl, 256(%rbx)
	cmpl	%r13d, %r15d
	jge	.LBB18_80
	jmp	.LBB18_63
	.p2align	4, 0x90
.LBB18_78:                              #   in Loop: Header=BB18_63 Depth=1
	movl	%r13d, %r15d
	cmpl	%r13d, %r15d
	jge	.LBB18_80
	jmp	.LBB18_63
.LBB18_116:                             # %for.cond60.preheader.i407.preheader
	movl	%r15d, %edx
	negl	%edx
	.p2align	4, 0x90
.LBB18_117:                             # %for.cond60.preheader.i407
                                        # =>This Loop Header: Depth=1
                                        #     Child Loop BB18_119 Depth 2
                                        #     Child Loop BB18_127 Depth 2
	cmpl	%r15d, %ecx
	jl	.LBB18_118
# %bb.125:                              # %for.end88.i411
                                        #   in Loop: Header=BB18_117 Depth=1
	cmpl	%r15d, %r13d
	jl	.LBB18_126
.LBB18_133:                             # %for.end117.i414
                                        #   in Loop: Header=BB18_117 Depth=1
	cmpl	%r15d, %r13d
	jl	.LBB18_117
.LBB18_134:                             # %for.end117.i414
                                        #   in Loop: Header=BB18_117 Depth=1
	cmpl	%r15d, %ecx
	jl	.LBB18_117
	jmp	.LBB18_135
	.p2align	4, 0x90
.LBB18_118:                             # %for.body63.preheader.i439
                                        #   in Loop: Header=BB18_117 Depth=1
	movslq	%ecx, %rsi
	incl	%ecx
	leaq	(%r12,%rsi,8), %rsi
	jmp	.LBB18_119
	.p2align	4, 0x90
.LBB18_123:                             # %for.inc86.i456
                                        #   in Loop: Header=BB18_119 Depth=2
	leal	(%rdx,%rcx), %edi
	incl	%edi
                                        # kill: def $ecx killed $ecx killed $rcx
	incl	%ecx
	addq	$8, %rsi
                                        # kill: def $ecx killed $ecx def $rcx
	cmpl	$1, %edi
	je	.LBB18_124
.LBB18_119:                             # %for.body63.i440
                                        #   Parent Loop BB18_117 Depth=1
                                        # =>  This Inner Loop Header: Depth=2
	movq	(%rsi), %rdi
	testb	$2, (%rdi)
	je	.LBB18_123
# %bb.120:                              # %if.then69.i445
                                        #   in Loop: Header=BB18_119 Depth=2
	movq	64(%rdi), %rdi
	cmpl	$0, 44(%rdi)
	je	.LBB18_123
# %bb.121:                              # %is_long_ref.exit559
                                        #   in Loop: Header=BB18_119 Depth=2
	cmpb	$0, 40(%rdi)
	je	.LBB18_123
# %bb.122:                              # %if.then75.i449
                                        #   in Loop: Header=BB18_117 Depth=1
	movsbq	256(%rbx), %rsi
	movq	%rdi, (%rax,%rsi,8)
	incb	256(%rbx)
	cmpl	%r15d, %r13d
	jge	.LBB18_133
	jmp	.LBB18_126
	.p2align	4, 0x90
.LBB18_124:                             #   in Loop: Header=BB18_117 Depth=1
	movl	%r15d, %ecx
	cmpl	%r15d, %r13d
	jge	.LBB18_133
.LBB18_126:                             # %for.body92.preheader.i418
                                        #   in Loop: Header=BB18_117 Depth=1
	movslq	%r13d, %rsi
	incl	%r13d
	leaq	(%r12,%rsi,8), %rsi
	jmp	.LBB18_127
	.p2align	4, 0x90
.LBB18_131:                             # %for.inc115.i435
                                        #   in Loop: Header=BB18_127 Depth=2
	leal	(%rdx,%r13), %edi
	incl	%edi
	movl	%r13d, %r8d
	incl	%r8d
	addq	$8, %rsi
	movl	%r8d, %r13d
	cmpl	$1, %edi
	je	.LBB18_132
.LBB18_127:                             # %for.body92.i419
                                        #   Parent Loop BB18_117 Depth=1
                                        # =>  This Inner Loop Header: Depth=2
	movq	(%rsi), %rdi
	testb	$1, (%rdi)
	je	.LBB18_131
# %bb.128:                              # %if.then98.i424
                                        #   in Loop: Header=BB18_127 Depth=2
	movq	56(%rdi), %rdi
	cmpl	$0, 44(%rdi)
	je	.LBB18_131
# %bb.129:                              # %is_long_ref.exit
                                        #   in Loop: Header=BB18_127 Depth=2
	cmpb	$0, 40(%rdi)
	je	.LBB18_131
# %bb.130:                              # %if.then104.i428
                                        #   in Loop: Header=BB18_117 Depth=1
	movsbq	256(%rbx), %rsi
	movq	%rdi, (%rax,%rsi,8)
	incb	256(%rbx)
	cmpl	%r15d, %r13d
	jge	.LBB18_134
	jmp	.LBB18_117
	.p2align	4, 0x90
.LBB18_132:                             #   in Loop: Header=BB18_117 Depth=1
	movl	%r15d, %r13d
	cmpl	%r15d, %r13d
	jge	.LBB18_134
	jmp	.LBB18_117
.LBB18_154:                             # %if.then7.i
	testl	%edx, %edx
	jle	.LBB18_162
# %bb.155:                              # %for.body11.preheader.i
	movzbl	256(%rbx), %esi
	cmpl	$1, %edx
	jne	.LBB18_157
# %bb.156:
	xorl	%edi, %edi
	jmp	.LBB18_159
.LBB18_150:                             # %for.body.preheader.i521.new
	movl	%edx, %r8d
	andl	$2147483646, %r8d               # imm = 0x7FFFFFFE
	xorl	%edi, %edi
	.p2align	4, 0x90
.LBB18_151:                             # %for.body.i522
                                        # =>This Inner Loop Header: Depth=1
	movq	(%rcx,%rdi,8), %r9
	movq	56(%r9), %r9
	movsbq	%sil, %rsi
	movq	%r9, (%rax,%rsi,8)
	movzbl	256(%rbx), %esi
	incb	%sil
	movb	%sil, 256(%rbx)
	movq	8(%rcx,%rdi,8), %r9
	movq	56(%r9), %r9
	movsbq	%sil, %rsi
	movq	%r9, (%rax,%rsi,8)
	movzbl	256(%rbx), %esi
	incb	%sil
	movb	%sil, 256(%rbx)
	addq	$2, %rdi
	cmpq	%rdi, %r8
	jne	.LBB18_151
.LBB18_152:                             # %if.end220.loopexit.unr-lcssa
	testb	$1, %dl
	je	.LBB18_162
# %bb.153:                              # %for.body.i522.epil
	movq	(%rcx,%rdi,8), %rcx
	movq	56(%rcx), %rcx
	jmp	.LBB18_161
.LBB18_157:                             # %for.body11.preheader.i.new
	movl	%edx, %r8d
	andl	$2147483646, %r8d               # imm = 0x7FFFFFFE
	xorl	%edi, %edi
	.p2align	4, 0x90
.LBB18_158:                             # %for.body11.i
                                        # =>This Inner Loop Header: Depth=1
	movq	(%rcx,%rdi,8), %r9
	movq	64(%r9), %r9
	movsbq	%sil, %rsi
	movq	%r9, (%rax,%rsi,8)
	movzbl	256(%rbx), %esi
	incb	%sil
	movb	%sil, 256(%rbx)
	movq	8(%rcx,%rdi,8), %r9
	movq	64(%r9), %r9
	movsbq	%sil, %rsi
	movq	%r9, (%rax,%rsi,8)
	movzbl	256(%rbx), %esi
	incb	%sil
	movb	%sil, 256(%rbx)
	addq	$2, %rdi
	cmpq	%rdi, %r8
	jne	.LBB18_158
.LBB18_159:                             # %if.end220.loopexit715.unr-lcssa
	testb	$1, %dl
	je	.LBB18_162
# %bb.160:                              # %for.body11.i.epil
	movq	(%rcx,%rdi,8), %rcx
	movq	64(%rcx), %rcx
.LBB18_161:                             # %if.end220
	movsbq	%sil, %rdx
	movq	%rcx, (%rax,%rdx,8)
	incb	256(%rbx)
.LBB18_162:                             # %if.end220
	movsbl	256(%rbx), %ecx
	movl	136(%rbx), %edx
	movl	140(%rbx), %eax
	cmpl	%edx, %ecx
	cmovll	%ecx, %edx
	movb	%dl, 256(%rbx)
	movsbl	257(%rbx), %ecx
	cmpl	%eax, %ecx
	cmovll	%ecx, %eax
	movb	%al, 257(%rbx)
	movsbl	%dl, %ecx
	cmpl	$32, %ecx
	ja	.LBB18_166
# %bb.163:                              # %for.body244.lr.ph
	movl	%ecx, %eax
	movq	856488(%r13), %rcx
	incq	%rax
	movq	%rax, %rdx
	.p2align	4, 0x90
.LBB18_164:                             # %for.body244
                                        # =>This Inner Loop Header: Depth=1
	movq	264(%rbx), %rsi
	movq	%rcx, -8(%rsi,%rax,8)
	incq	%rdx
	cmpl	$33, %eax
	movq	%rdx, %rax
	jne	.LBB18_164
# %bb.165:                              # %for.end251.loopexit
	movzbl	257(%rbx), %eax
.LBB18_166:                             # %for.end251
	cmpb	$32, %al
	ja	.LBB18_169
# %bb.167:                              # %for.body258.lr.ph
	movzbl	%al, %eax
	movq	856488(%r13), %rcx
	incq	%rax
	movq	%rax, %rdx
	.p2align	4, 0x90
.LBB18_168:                             # %for.body258
                                        # =>This Inner Loop Header: Depth=1
	movq	272(%rbx), %rsi
	movq	%rcx, -8(%rsi,%rax,8)
	incq	%rdx
	cmpl	$33, %eax
	movq	%rdx, %rax
	jne	.LBB18_168
.LBB18_169:                             # %for.end266
	addq	$40, %rsp
	.cfi_def_cfa_offset 56
	popq	%rbx
	.cfi_def_cfa_offset 48
	popq	%r12
	.cfi_def_cfa_offset 40
	popq	%r13
	.cfi_def_cfa_offset 32
	popq	%r14
	.cfi_def_cfa_offset 24
	popq	%r15
	.cfi_def_cfa_offset 16
	popq	%rbp
	.cfi_def_cfa_offset 8
	retq
.Lfunc_end18:
	.size	init_lists_p_slice, .Lfunc_end18-init_lists_p_slice
	.cfi_endproc
                                        # -- End function
	.p2align	4, 0x90                         # -- Begin function compare_pic_by_pic_num_desc
	.type	compare_pic_by_pic_num_desc,@function
compare_pic_by_pic_num_desc:            # @compare_pic_by_pic_num_desc
	.cfi_startproc
# %bb.0:                                # %entry
	movq	(%rdi), %rax
	movl	28(%rax), %eax
	movq	(%rsi), %rcx
	movl	28(%rcx), %ecx
	xorl	%edx, %edx
	cmpl	%ecx, %eax
	setg	%dl
	negl	%edx
	cmpl	%ecx, %eax
	movl	$1, %eax
	cmovgel	%edx, %eax
	retq
.Lfunc_end19:
	.size	compare_pic_by_pic_num_desc, .Lfunc_end19-compare_pic_by_pic_num_desc
	.cfi_endproc
                                        # -- End function
	.p2align	4, 0x90                         # -- Begin function compare_pic_by_lt_pic_num_asc
	.type	compare_pic_by_lt_pic_num_asc,@function
compare_pic_by_lt_pic_num_asc:          # @compare_pic_by_lt_pic_num_asc
	.cfi_startproc
# %bb.0:                                # %entry
	movq	(%rdi), %rax
	movl	32(%rax), %eax
	movq	(%rsi), %rcx
	xorl	%edx, %edx
	cmpl	32(%rcx), %eax
	setg	%dl
	movl	$-1, %eax
	cmovgel	%edx, %eax
	retq
.Lfunc_end20:
	.size	compare_pic_by_lt_pic_num_asc, .Lfunc_end20-compare_pic_by_lt_pic_num_asc
	.cfi_endproc
                                        # -- End function
	.p2align	4, 0x90                         # -- Begin function compare_fs_by_frame_num_desc
	.type	compare_fs_by_frame_num_desc,@function
compare_fs_by_frame_num_desc:           # @compare_fs_by_frame_num_desc
	.cfi_startproc
# %bb.0:                                # %entry
	movq	(%rdi), %rax
	movl	28(%rax), %eax
	movq	(%rsi), %rcx
	movl	28(%rcx), %ecx
	xorl	%edx, %edx
	cmpl	%ecx, %eax
	setg	%dl
	negl	%edx
	cmpl	%ecx, %eax
	movl	$1, %eax
	cmovgel	%edx, %eax
	retq
.Lfunc_end21:
	.size	compare_fs_by_frame_num_desc, .Lfunc_end21-compare_fs_by_frame_num_desc
	.cfi_endproc
                                        # -- End function
	.p2align	4, 0x90                         # -- Begin function compare_fs_by_lt_pic_idx_asc
	.type	compare_fs_by_lt_pic_idx_asc,@function
compare_fs_by_lt_pic_idx_asc:           # @compare_fs_by_lt_pic_idx_asc
	.cfi_startproc
# %bb.0:                                # %entry
	movq	(%rdi), %rax
	movl	32(%rax), %eax
	movq	(%rsi), %rcx
	xorl	%edx, %edx
	cmpl	32(%rcx), %eax
	setg	%dl
	movl	$-1, %eax
	cmovgel	%edx, %eax
	retq
.Lfunc_end22:
	.size	compare_fs_by_lt_pic_idx_asc, .Lfunc_end22-compare_fs_by_lt_pic_idx_asc
	.cfi_endproc
                                        # -- End function
	.globl	append_interview_list           # -- Begin function append_interview_list
	.p2align	4, 0x90
	.type	append_interview_list,@function
append_interview_list:                  # @append_interview_list
	.cfi_startproc
# %bb.0:                                # %entry
	pushq	%rbp
	.cfi_def_cfa_offset 16
	pushq	%r15
	.cfi_def_cfa_offset 24
	pushq	%r14
	.cfi_def_cfa_offset 32
	pushq	%r13
	.cfi_def_cfa_offset 40
	pushq	%r12
	.cfi_def_cfa_offset 48
	pushq	%rbx
	.cfi_def_cfa_offset 56
	subq	$24, %rsp
	.cfi_def_cfa_offset 80
	.cfi_offset %rbx, -56
	.cfi_offset %r12, -48
	.cfi_offset %r13, -40
	.cfi_offset %r14, -32
	.cfi_offset %r15, -24
	.cfi_offset %rbp, -16
	movl	%r9d, 4(%rsp)                   # 4-byte Spill
	movq	%r8, 16(%rsp)                   # 8-byte Spill
	movq	%rcx, 8(%rsp)                   # 8-byte Spill
	movl	%edx, %r13d
	movl	%esi, %ebp
	movq	%rdi, %r12
	movl	88(%rsp), %ebx
	movl	80(%rsp), %esi
	movq	(%rdi), %r15
	movq	%r15, %rdi
	callq	GetVOIdx@PLT
	movl	%eax, %r14d
	testl	%eax, %eax
	jns	.LBB23_2
# %bb.1:                                # %if.then
	movl	$.L.str.30, %edi
	movl	%r14d, %esi
	xorl	%eax, %eax
	callq	printf@PLT
.LBB23_2:                               # %if.end
	xorl	%edx, %edx
	testl	%ebx, %ebx
	sete	%r8b
	xorl	%esi, %esi
	testl	%r13d, %r13d
	setne	%r11b
	xorl	%eax, %eax
	cmpl	$2, %ebp
	sete	%dil
	movl	44(%r12), %ecx
	testl	%ecx, %ecx
	je	.LBB23_23
# %bb.3:                                # %for.body.lr.ph
	movq	699416(%r15), %r9
	movslq	%r14d, %r10
	xorl	%r14d, %r14d
	testl	%r13d, %r13d
	setne	%r14b
	xorl	%r15d, %r15d
	testl	%ebx, %ebx
	sete	%r15b
	shll	$4, %r14d
	shll	$5, %r15d
	orl	%r14d, %r15d
	movq	4144(%r15,%r9), %r14
	movl	(%r14,%r10,4), %r14d
	testl	%r14d, %r14d
	jle	.LBB23_23
# %bb.4:                                # %for.body.us.preheader
	movb	%r11b, %sil
	shll	$4, %esi
	movb	%r8b, %dl
	shll	$5, %edx
	orl	%esi, %edx
	movq	4152(%rdx,%r9), %rdx
	movq	(%rdx,%r10,8), %rdx
	movb	%dil, %al
	movl	%r14d, %esi
	leaq	-1(%rsi), %rdi
	xorl	%r8d, %r8d
	jmp	.LBB23_5
.LBB23_21:                              # %if.then110.us
                                        #   in Loop: Header=BB23_5 Depth=1
	movq	16(%rsp), %r10                  # 8-byte Reload
	movslq	(%r10), %rcx
	movq	8(%rsp), %r11                   # 8-byte Reload
	movq	%r9, (%r11,%rcx,8)
	incl	(%r10)
	movl	44(%r12), %ecx
	.p2align	4, 0x90
.LBB23_22:                              # %for.inc.us
                                        #   in Loop: Header=BB23_5 Depth=1
	incq	%r8
	movl	%ecx, %r9d
	cmpq	%r9, %r8
	jae	.LBB23_23
.LBB23_5:                               # %for.body.us
                                        # =>This Loop Header: Depth=1
                                        #     Child Loop BB23_19 Depth 2
	testl	%ebp, %ebp
	je	.LBB23_9
# %bb.6:                                # %for.body.us
                                        #   in Loop: Header=BB23_5 Depth=1
	cmpl	$1, %ebp
	jne	.LBB23_11
# %bb.7:                                # %if.then62.us
                                        #   in Loop: Header=BB23_5 Depth=1
	movq	16(%r12), %r9
	movq	(%r9,%r8,8), %r9
	testb	$1, (%r9)
	je	.LBB23_22
# %bb.8:                                # %if.then68.us
                                        #   in Loop: Header=BB23_5 Depth=1
	leaq	56(%r9), %r10
	cmpl	$0, 76(%r9,%rax,4)
	jne	.LBB23_15
	jmp	.LBB23_22
	.p2align	4, 0x90
.LBB23_9:                               # %if.then48.us
                                        #   in Loop: Header=BB23_5 Depth=1
	movq	16(%r12), %r9
	movq	(%r9,%r8,8), %r9
	cmpl	$3, (%r9)
	jne	.LBB23_22
# %bb.10:                               # %if.then53.us
                                        #   in Loop: Header=BB23_5 Depth=1
	leaq	48(%r9), %r10
	cmpl	$0, 76(%r9,%rax,4)
	jne	.LBB23_15
	jmp	.LBB23_22
	.p2align	4, 0x90
.LBB23_11:                              # %if.else74.us
                                        #   in Loop: Header=BB23_5 Depth=1
	cmpl	$2, %ebp
	jne	.LBB23_22
# %bb.12:                               # %if.then77.us
                                        #   in Loop: Header=BB23_5 Depth=1
	movq	16(%r12), %r9
	movq	(%r9,%r8,8), %r9
	testb	$2, (%r9)
	je	.LBB23_22
# %bb.13:                               # %if.then84.us
                                        #   in Loop: Header=BB23_5 Depth=1
	leaq	64(%r9), %r10
	cmpl	$0, 76(%r9,%rax,4)
	je	.LBB23_22
	.p2align	4, 0x90
.LBB23_15:                              # %land.lhs.true.us
                                        #   in Loop: Header=BB23_5 Depth=1
	movq	(%r10), %r10
	movl	4(%rsp), %r11d                  # 4-byte Reload
	cmpl	%r11d, 4(%r10)
	jne	.LBB23_22
# %bb.16:                               # %if.then104.us
                                        #   in Loop: Header=BB23_5 Depth=1
	movl	72(%r9), %r10d
	cmpl	%r10d, (%rdx)
	je	.LBB23_21
# %bb.17:                               # %for.cond.i.us.preheader
                                        #   in Loop: Header=BB23_5 Depth=1
	xorl	%r11d, %r11d
	.p2align	4, 0x90
.LBB23_19:                              # %for.cond.i.us
                                        #   Parent Loop BB23_5 Depth=1
                                        # =>  This Inner Loop Header: Depth=2
	cmpq	%r11, %rdi
	je	.LBB23_22
# %bb.18:                               # %for.body.i.us
                                        #   in Loop: Header=BB23_19 Depth=2
	leaq	1(%r11), %r14
	cmpl	%r10d, 4(%rdx,%r11,4)
	movq	%r14, %r11
	jne	.LBB23_19
# %bb.20:                               # %is_view_id_in_ref_view_list.exit.us
                                        #   in Loop: Header=BB23_5 Depth=1
	cmpq	%rsi, %r14
	jb	.LBB23_21
	jmp	.LBB23_22
.LBB23_23:                              # %for.end
	addq	$24, %rsp
	.cfi_def_cfa_offset 56
	popq	%rbx
	.cfi_def_cfa_offset 48
	popq	%r12
	.cfi_def_cfa_offset 40
	popq	%r13
	.cfi_def_cfa_offset 32
	popq	%r14
	.cfi_def_cfa_offset 24
	popq	%r15
	.cfi_def_cfa_offset 16
	popq	%rbp
	.cfi_def_cfa_offset 8
	retq
.Lfunc_end23:
	.size	append_interview_list, .Lfunc_end23-append_interview_list
	.cfi_endproc
                                        # -- End function
	.globl	init_lists_b_slice              # -- Begin function init_lists_b_slice
	.p2align	4, 0x90
	.type	init_lists_b_slice,@function
init_lists_b_slice:                     # @init_lists_b_slice
	.cfi_startproc
# %bb.0:                                # %entry
	pushq	%rbp
	.cfi_def_cfa_offset 16
	pushq	%r15
	.cfi_def_cfa_offset 24
	pushq	%r14
	.cfi_def_cfa_offset 32
	pushq	%r13
	.cfi_def_cfa_offset 40
	pushq	%r12
	.cfi_def_cfa_offset 48
	pushq	%rbx
	.cfi_def_cfa_offset 56
	subq	$72, %rsp
	.cfi_def_cfa_offset 128
	.cfi_offset %rbx, -56
	.cfi_offset %r12, -48
	.cfi_offset %r13, -40
	.cfi_offset %r14, -32
	.cfi_offset %r15, -24
	.cfi_offset %rbp, -16
	movq	%rdi, %rbx
	movq	(%rdi), %r13
	movq	40(%rdi), %r12
	movl	104(%rdi), %eax
	movl	%eax, 28(%rsp)                  # 4-byte Spill
	movl	1176(%rdi), %edi
	movl	1184(%rbx), %ebp
	movq	$0, 13308(%rbx)
	cmpl	$0, 184(%rbx)
	movq	%rdi, 8(%rsp)                   # 8-byte Spill
	movq	%r12, 16(%rsp)                  # 8-byte Spill
	movq	%rbp, 64(%rsp)                  # 8-byte Spill
	je	.LBB24_1
# %bb.44:                               # %if.else
	movl	40(%r12), %r12d
	movl	$8, %esi
	movq	%r12, %rdi
	callq	calloc@PLT
	movq	%rax, %r15
	testq	%rax, %rax
	jne	.LBB24_46
# %bb.45:                               # %if.then220
	movl	$.L.str.14, %edi
	callq	no_mem_exit@PLT
	movq	16(%rsp), %rax                  # 8-byte Reload
	movl	40(%rax), %r12d
.LBB24_46:                              # %if.end221
	movq	%r13, 32(%rsp)                  # 8-byte Spill
	movl	$8, %esi
	movq	%r12, %rdi
	callq	calloc@PLT
	movq	%rax, 40(%rsp)                  # 8-byte Spill
	testq	%rax, %rax
	jne	.LBB24_48
# %bb.47:                               # %if.then227
	movl	$.L.str.17, %edi
	callq	no_mem_exit@PLT
	movq	16(%rsp), %rax                  # 8-byte Reload
	movl	40(%rax), %r12d
.LBB24_48:                              # %if.end228
	movl	$8, %esi
	movq	%r12, %rdi
	callq	calloc@PLT
	movq	%rax, %r13
	testq	%rax, %rax
	jne	.LBB24_50
# %bb.49:                               # %if.then234
	movl	$.L.str.15, %edi
	callq	no_mem_exit@PLT
.LBB24_50:                              # %if.end235
	movw	$256, 256(%rbx)                 # imm = 0x100
	movq	16(%rsp), %rcx                  # 8-byte Reload
	movl	48(%rcx), %eax
	testq	%rax, %rax
	je	.LBB24_51
# %bb.52:                               # %for.body244.lr.ph
	movq	24(%rcx), %rcx
	xorl	%edx, %edx
	xorl	%r12d, %r12d
	movq	8(%rsp), %r8                    # 8-byte Reload
	jmp	.LBB24_53
	.p2align	4, 0x90
.LBB24_57:                              # %for.inc274
                                        #   in Loop: Header=BB24_53 Depth=1
	incq	%rdx
	cmpq	%rax, %rdx
	jae	.LBB24_58
.LBB24_53:                              # %for.body244
                                        # =>This Inner Loop Header: Depth=1
	movq	(%rcx,%rdx,8), %rsi
	cmpl	$0, (%rsi)
	je	.LBB24_57
# %bb.54:                               # %if.then250
                                        #   in Loop: Header=BB24_53 Depth=1
	movl	104(%rbx), %edi
	cmpl	40(%rsi), %edi
	jl	.LBB24_57
# %bb.55:                               # %land.lhs.true258
                                        #   in Loop: Header=BB24_53 Depth=1
	cmpl	%r8d, 72(%rsi)
	jne	.LBB24_57
# %bb.56:                               # %if.then265
                                        #   in Loop: Header=BB24_53 Depth=1
	movslq	%r12d, %rdi
	incl	%r12d
	movq	%rsi, (%r15,%rdi,8)
	jmp	.LBB24_57
.LBB24_1:                               # %for.cond.preheader
	movl	48(%r12), %ecx
	testl	%ecx, %ecx
	je	.LBB24_2
# %bb.3:                                # %for.body.lr.ph
	xorl	%eax, %eax
	xorl	%r14d, %r14d
	jmp	.LBB24_4
	.p2align	4, 0x90
.LBB24_10:                              # %for.inc
                                        #   in Loop: Header=BB24_4 Depth=1
	incq	%rax
	movl	%ecx, %edx
	cmpq	%rdx, %rax
	jae	.LBB24_11
.LBB24_4:                               # %for.body
                                        # =>This Inner Loop Header: Depth=1
	movq	24(%r12), %rdx
	movq	(%rdx,%rax,8), %rdx
	cmpl	$3, (%rdx)
	jne	.LBB24_10
# %bb.5:                                # %if.then6
                                        #   in Loop: Header=BB24_4 Depth=1
	movq	48(%rdx), %rdx
	cmpl	$0, 44(%rdx)
	je	.LBB24_10
# %bb.6:                                # %land.lhs.true
                                        #   in Loop: Header=BB24_4 Depth=1
	cmpb	$0, 40(%rdx)
	jne	.LBB24_10
# %bb.7:                                # %land.lhs.true15
                                        #   in Loop: Header=BB24_4 Depth=1
	cmpl	%edi, 344(%rdx)
	jne	.LBB24_10
# %bb.8:                                # %if.then22
                                        #   in Loop: Header=BB24_4 Depth=1
	movl	76(%rbx), %esi
	cmpl	4(%rdx), %esi
	jl	.LBB24_10
# %bb.9:                                # %if.then28
                                        #   in Loop: Header=BB24_4 Depth=1
	movq	264(%rbx), %rcx
	movslq	%r14d, %rsi
	incl	%r14d
	movq	%rdx, (%rcx,%rsi,8)
	movl	48(%r12), %ecx
	jmp	.LBB24_10
.LBB24_51:
	xorl	%r12d, %r12d
.LBB24_58:                              # %for.end276
	movslq	%r12d, %rbp
	movl	$8, %edx
	movl	$compare_fs_by_poc_desc, %ecx
	movq	%r15, %rdi
	movq	%rbp, %rsi
	callq	qsort@PLT
	movq	8(%rsp), %r8                    # 8-byte Reload
	movq	16(%rsp), %rax                  # 8-byte Reload
	movl	48(%rax), %eax
	movl	%r12d, %r14d
	testq	%rax, %rax
	je	.LBB24_65
# %bb.59:                               # %for.body282.lr.ph
	movq	16(%rsp), %rcx                  # 8-byte Reload
	movq	24(%rcx), %rcx
	xorl	%edx, %edx
	movl	%r12d, %r14d
	jmp	.LBB24_60
	.p2align	4, 0x90
.LBB24_64:                              # %for.inc312
                                        #   in Loop: Header=BB24_60 Depth=1
	incq	%rdx
	cmpq	%rax, %rdx
	jae	.LBB24_65
.LBB24_60:                              # %for.body282
                                        # =>This Inner Loop Header: Depth=1
	movq	(%rcx,%rdx,8), %rsi
	cmpl	$0, (%rsi)
	je	.LBB24_64
# %bb.61:                               # %if.then288
                                        #   in Loop: Header=BB24_60 Depth=1
	movl	104(%rbx), %edi
	cmpl	40(%rsi), %edi
	jge	.LBB24_64
# %bb.62:                               # %land.lhs.true296
                                        #   in Loop: Header=BB24_60 Depth=1
	cmpl	%r8d, 72(%rsi)
	jne	.LBB24_64
# %bb.63:                               # %if.then303
                                        #   in Loop: Header=BB24_60 Depth=1
	movslq	%r14d, %rdi
	incl	%r14d
	movq	%rsi, (%r15,%rdi,8)
	jmp	.LBB24_64
.LBB24_65:                              # %for.end314
	leaq	(%r15,%rbp,8), %rdi
	movl	%r14d, %eax
	subl	%ebp, %eax
	movslq	%eax, %rsi
	movl	$8, %edx
	movl	$compare_fs_by_poc_asc, %ecx
	movq	%rdi, 56(%rsp)                  # 8-byte Spill
	movq	%rsi, 48(%rsp)                  # 8-byte Spill
	callq	qsort@PLT
	testl	%ebp, %ebp
	jle	.LBB24_73
# %bb.66:                               # %for.body322.preheader
	movl	%r12d, %eax
	cmpl	$7, %r12d
	ja	.LBB24_70
# %bb.67:
	xorl	%ecx, %ecx
	jmp	.LBB24_68
.LBB24_70:                              # %vector.ph
	movl	%eax, %ecx
	andl	$2147483640, %ecx               # imm = 0x7FFFFFF8
	movl	%eax, %edx
	shrl	$3, %edx
	andl	$268435455, %edx                # imm = 0xFFFFFFF
	shlq	$6, %rdx
	movslq	%r14d, %rsi
	shlq	$3, %rsi
	shlq	$3, %rbp
	subq	%rbp, %rsi
	movq	40(%rsp), %rdi                  # 8-byte Reload
	addq	%rdi, %rsi
	addq	$48, %rsi
	xorl	%edi, %edi
	.p2align	4, 0x90
.LBB24_71:                              # %vector.body
                                        # =>This Inner Loop Header: Depth=1
	movups	(%r15,%rdi), %xmm0
	movups	16(%r15,%rdi), %xmm1
	movups	32(%r15,%rdi), %xmm2
	movups	48(%r15,%rdi), %xmm3
	movups	%xmm0, -48(%rsi,%rdi)
	movups	%xmm1, -32(%rsi,%rdi)
	movups	%xmm2, -16(%rsi,%rdi)
	movups	%xmm3, (%rsi,%rdi)
	addq	$64, %rdi
	cmpq	%rdi, %rdx
	jne	.LBB24_71
# %bb.72:                               # %middle.block
	cmpl	%eax, %ecx
	je	.LBB24_73
.LBB24_68:                              # %for.body322.preheader1707
	movq	40(%rsp), %rdx                  # 8-byte Reload
	movq	48(%rsp), %rsi                  # 8-byte Reload
	leaq	(%rdx,%rsi,8), %rdx
	.p2align	4, 0x90
.LBB24_69:                              # %for.body322
                                        # =>This Inner Loop Header: Depth=1
	movq	(%r15,%rcx,8), %rsi
	movq	%rsi, (%rdx,%rcx,8)
	incq	%rcx
	cmpq	%rcx, %rax
	jne	.LBB24_69
.LBB24_73:                              # %for.cond332.preheader
	cmpl	%r12d, %r14d
	movq	40(%rsp), %rbp                  # 8-byte Reload
	jle	.LBB24_75
# %bb.74:                               # %for.body335.preheader
	notl	%r12d
	addl	%r14d, %r12d
	leaq	8(,%r12,8), %rdx
	movq	%rbp, %rdi
	movq	56(%rsp), %rsi                  # 8-byte Reload
	callq	memcpy@PLT
.LBB24_75:                              # %for.end343
	movw	$0, 256(%rbx)
	movl	184(%rbx), %edi
	movq	264(%rbx), %rax
	xorl	%ecx, %ecx
	movl	$0, %esi
	movl	$0, %edx
	cmpl	$1, %edi
	movq	8(%rsp), %r11                   # 8-byte Reload
	movq	16(%rsp), %r12                  # 8-byte Reload
	jne	.LBB24_95
# %bb.76:                               # %while.cond.preheader.i
	testl	%r14d, %r14d
	jle	.LBB24_117
# %bb.77:                               # %for.cond.preheader.i.preheader
	movl	%r14d, %r8d
	negl	%r8d
	xorl	%ecx, %ecx
	xorl	%edx, %edx
	xorl	%esi, %esi
	jmp	.LBB24_78
	.p2align	4, 0x90
.LBB24_93:                              #   in Loop: Header=BB24_78 Depth=1
	movl	%r14d, %edx
.LBB24_94:                              # %for.end47.i
                                        #   in Loop: Header=BB24_78 Depth=1
	cmpl	%r14d, %esi
	setl	%r9b
	cmpl	%r14d, %edx
	setl	%r10b
	orb	%r9b, %r10b
	je	.LBB24_95
.LBB24_78:                              # %for.cond.preheader.i
                                        # =>This Loop Header: Depth=1
                                        #     Child Loop BB24_80 Depth 2
                                        #     Child Loop BB24_88 Depth 2
	cmpl	%r14d, %esi
	jge	.LBB24_86
# %bb.79:                               # %for.body.preheader.i
                                        #   in Loop: Header=BB24_78 Depth=1
	movslq	%esi, %r9
	incl	%esi
	leaq	(%r15,%r9,8), %r9
	jmp	.LBB24_80
	.p2align	4, 0x90
.LBB24_84:                              # %for.inc.i
                                        #   in Loop: Header=BB24_80 Depth=2
	leal	(%r8,%rsi), %r10d
	incl	%r10d
                                        # kill: def $esi killed $esi killed $rsi
	incl	%esi
	addq	$8, %r9
                                        # kill: def $esi killed $esi def $rsi
	cmpl	$1, %r10d
	je	.LBB24_85
.LBB24_80:                              # %for.body.i
                                        #   Parent Loop BB24_78 Depth=1
                                        # =>  This Inner Loop Header: Depth=2
	movq	(%r9), %r10
	testb	$1, (%r10)
	je	.LBB24_84
# %bb.81:                               # %if.then6.i
                                        #   in Loop: Header=BB24_80 Depth=2
	movq	56(%r10), %r10
	cmpl	$0, 44(%r10)
	je	.LBB24_84
# %bb.82:                               # %is_short_ref.exit1283
                                        #   in Loop: Header=BB24_80 Depth=2
	cmpb	$0, 40(%r10)
	jne	.LBB24_84
# %bb.83:                               # %if.then10.i
                                        #   in Loop: Header=BB24_78 Depth=1
	movsbq	%cl, %rcx
	movq	%r10, (%rax,%rcx,8)
	movzbl	256(%rbx), %ecx
	incb	%cl
	movb	%cl, 256(%rbx)
	jmp	.LBB24_86
	.p2align	4, 0x90
.LBB24_85:                              #   in Loop: Header=BB24_78 Depth=1
	movl	%r14d, %esi
.LBB24_86:                              # %for.end.i
                                        #   in Loop: Header=BB24_78 Depth=1
	cmpl	%r14d, %edx
	jge	.LBB24_94
# %bb.87:                               # %for.body23.preheader.i
                                        #   in Loop: Header=BB24_78 Depth=1
	movslq	%edx, %r9
	incl	%edx
	leaq	(%r15,%r9,8), %r9
	jmp	.LBB24_88
	.p2align	4, 0x90
.LBB24_92:                              # %for.inc45.i
                                        #   in Loop: Header=BB24_88 Depth=2
	leal	(%r8,%rdx), %r10d
	incl	%r10d
                                        # kill: def $edx killed $edx killed $rdx
	incl	%edx
	addq	$8, %r9
                                        # kill: def $edx killed $edx def $rdx
	cmpl	$1, %r10d
	je	.LBB24_93
.LBB24_88:                              # %for.body23.i
                                        #   Parent Loop BB24_78 Depth=1
                                        # =>  This Inner Loop Header: Depth=2
	movq	(%r9), %r10
	testb	$2, (%r10)
	je	.LBB24_92
# %bb.89:                               # %if.then29.i
                                        #   in Loop: Header=BB24_88 Depth=2
	movq	64(%r10), %r10
	cmpl	$0, 44(%r10)
	je	.LBB24_92
# %bb.90:                               # %is_short_ref.exit1276
                                        #   in Loop: Header=BB24_88 Depth=2
	cmpb	$0, 40(%r10)
	jne	.LBB24_92
# %bb.91:                               # %if.then34.i
                                        #   in Loop: Header=BB24_78 Depth=1
	movsbq	%cl, %rcx
	movq	%r10, (%rax,%rcx,8)
	movzbl	256(%rbx), %ecx
	incb	%cl
	movb	%cl, 256(%rbx)
	jmp	.LBB24_94
.LBB24_95:                              # %if.end48.i
	cmpl	$2, %edi
	jne	.LBB24_117
# %bb.96:                               # %while.cond52.preheader.i
	cmpl	%r14d, %esi
	jl	.LBB24_98
# %bb.97:                               # %while.cond52.preheader.i
	cmpl	%r14d, %edx
	jl	.LBB24_98
.LBB24_117:                             # %gen_pic_list_from_frame_list.exit
	movl	184(%rbx), %esi
	movq	272(%rbx), %rax
	xorl	%edx, %edx
	movl	$0, %ecx
	cmpl	$1, %esi
	jne	.LBB24_137
# %bb.118:                              # %while.cond.preheader.i933
	testl	%r14d, %r14d
	jle	.LBB24_159
# %bb.119:                              # %for.cond.preheader.i935.preheader
	movl	%r14d, %edi
	negl	%edi
	xorl	%ecx, %ecx
	xorl	%edx, %edx
	jmp	.LBB24_120
	.p2align	4, 0x90
.LBB24_135:                             #   in Loop: Header=BB24_120 Depth=1
	movl	%r14d, %ecx
.LBB24_136:                             # %for.end47.i942
                                        #   in Loop: Header=BB24_120 Depth=1
	cmpl	%r14d, %edx
	setl	%r8b
	cmpl	%r14d, %ecx
	setl	%r9b
	orb	%r8b, %r9b
	je	.LBB24_137
.LBB24_120:                             # %for.cond.preheader.i935
                                        # =>This Loop Header: Depth=1
                                        #     Child Loop BB24_122 Depth 2
                                        #     Child Loop BB24_130 Depth 2
	cmpl	%r14d, %edx
	jge	.LBB24_128
# %bb.121:                              # %for.body.preheader.i967
                                        #   in Loop: Header=BB24_120 Depth=1
	movslq	%edx, %r8
	incl	%edx
	leaq	(,%r8,8), %r8
	addq	%rbp, %r8
	jmp	.LBB24_122
	.p2align	4, 0x90
.LBB24_126:                             # %for.inc.i984
                                        #   in Loop: Header=BB24_122 Depth=2
	leal	(%rdi,%rdx), %r9d
	incl	%r9d
                                        # kill: def $edx killed $edx killed $rdx
	incl	%edx
	addq	$8, %r8
                                        # kill: def $edx killed $edx def $rdx
	cmpl	$1, %r9d
	je	.LBB24_127
.LBB24_122:                             # %for.body.i968
                                        #   Parent Loop BB24_120 Depth=1
                                        # =>  This Inner Loop Header: Depth=2
	movq	(%r8), %r9
	testb	$1, (%r9)
	je	.LBB24_126
# %bb.123:                              # %if.then6.i973
                                        #   in Loop: Header=BB24_122 Depth=2
	movq	56(%r9), %r9
	cmpl	$0, 44(%r9)
	je	.LBB24_126
# %bb.124:                              # %is_short_ref.exit1311
                                        #   in Loop: Header=BB24_122 Depth=2
	cmpb	$0, 40(%r9)
	jne	.LBB24_126
# %bb.125:                              # %if.then10.i977
                                        #   in Loop: Header=BB24_120 Depth=1
	movsbq	257(%rbx), %r8
	movq	%r9, (%rax,%r8,8)
	incb	257(%rbx)
	jmp	.LBB24_128
	.p2align	4, 0x90
.LBB24_127:                             #   in Loop: Header=BB24_120 Depth=1
	movl	%r14d, %edx
.LBB24_128:                             # %for.end.i939
                                        #   in Loop: Header=BB24_120 Depth=1
	cmpl	%r14d, %ecx
	jge	.LBB24_136
# %bb.129:                              # %for.body23.preheader.i946
                                        #   in Loop: Header=BB24_120 Depth=1
	movslq	%ecx, %r8
	incl	%ecx
	leaq	(,%r8,8), %r8
	addq	%rbp, %r8
	jmp	.LBB24_130
	.p2align	4, 0x90
.LBB24_134:                             # %for.inc45.i963
                                        #   in Loop: Header=BB24_130 Depth=2
	leal	(%rdi,%rcx), %r9d
	incl	%r9d
                                        # kill: def $ecx killed $ecx killed $rcx
	incl	%ecx
	addq	$8, %r8
                                        # kill: def $ecx killed $ecx def $rcx
	cmpl	$1, %r9d
	je	.LBB24_135
.LBB24_130:                             # %for.body23.i947
                                        #   Parent Loop BB24_120 Depth=1
                                        # =>  This Inner Loop Header: Depth=2
	movq	(%r8), %r9
	testb	$2, (%r9)
	je	.LBB24_134
# %bb.131:                              # %if.then29.i952
                                        #   in Loop: Header=BB24_130 Depth=2
	movq	64(%r9), %r9
	cmpl	$0, 44(%r9)
	je	.LBB24_134
# %bb.132:                              # %is_short_ref.exit1304
                                        #   in Loop: Header=BB24_130 Depth=2
	cmpb	$0, 40(%r9)
	jne	.LBB24_134
# %bb.133:                              # %if.then34.i956
                                        #   in Loop: Header=BB24_120 Depth=1
	movsbq	257(%rbx), %r8
	movq	%r9, (%rax,%r8,8)
	incb	257(%rbx)
	jmp	.LBB24_136
.LBB24_137:                             # %if.end48.i873
	cmpl	$2, %esi
	jne	.LBB24_159
# %bb.138:                              # %while.cond52.preheader.i877
	cmpl	%r14d, %edx
	jl	.LBB24_140
# %bb.139:                              # %while.cond52.preheader.i877
	cmpl	%r14d, %ecx
	jl	.LBB24_140
.LBB24_159:                             # %gen_pic_list_from_frame_list.exit988
	movl	52(%r12), %eax
	xorl	%r14d, %r14d
	movl	$0, %ebp
	testq	%rax, %rax
	je	.LBB24_171
# %bb.160:                              # %for.body362.lr.ph
	movq	32(%r12), %rcx
	cmpl	$1, %eax
	jne	.LBB24_162
# %bb.161:
	xorl	%edx, %edx
	xorl	%ebp, %ebp
.LBB24_168:                             # %for.end379.loopexit.unr-lcssa
	testb	$1, %al
	je	.LBB24_171
# %bb.169:                              # %for.body362.epil
	movq	(%rcx,%rdx,8), %rax
	cmpl	%r11d, 72(%rax)
	jne	.LBB24_171
# %bb.170:                              # %if.then369.epil
	movslq	%ebp, %rcx
	incl	%ebp
	movq	%rax, (%r13,%rcx,8)
.LBB24_171:                             # %for.end379
	movslq	%ebp, %rsi
	movl	$8, %edx
	movl	$compare_fs_by_lt_pic_idx_asc, %ecx
	movq	%r13, %rdi
	callq	qsort@PLT
	movl	184(%rbx), %edx
	movq	264(%rbx), %rax
	movl	$0, %ecx
	cmpl	$1, %edx
	jne	.LBB24_191
# %bb.172:                              # %while.cond.preheader.i1050
	testl	%ebp, %ebp
	jle	.LBB24_253
# %bb.173:                              # %for.cond.preheader.i1052.preheader
	movl	%ebp, %esi
	negl	%esi
	xorl	%ecx, %ecx
	xorl	%r14d, %r14d
	jmp	.LBB24_174
	.p2align	4, 0x90
.LBB24_189:                             #   in Loop: Header=BB24_174 Depth=1
	movl	%ebp, %ecx
.LBB24_190:                             # %for.end47.i1059
                                        #   in Loop: Header=BB24_174 Depth=1
	cmpl	%ebp, %r14d
	setl	%dil
	cmpl	%ebp, %ecx
	setl	%r8b
	orb	%dil, %r8b
	je	.LBB24_191
.LBB24_174:                             # %for.cond.preheader.i1052
                                        # =>This Loop Header: Depth=1
                                        #     Child Loop BB24_176 Depth 2
                                        #     Child Loop BB24_184 Depth 2
	cmpl	%ebp, %r14d
	jge	.LBB24_182
# %bb.175:                              # %for.body.preheader.i1084
                                        #   in Loop: Header=BB24_174 Depth=1
	movslq	%r14d, %rdi
	incl	%r14d
	leaq	(,%rdi,8), %rdi
	addq	%r13, %rdi
	jmp	.LBB24_176
	.p2align	4, 0x90
.LBB24_180:                             # %for.inc.i1101
                                        #   in Loop: Header=BB24_176 Depth=2
	leal	(%rsi,%r14), %r8d
	incl	%r8d
	movl	%r14d, %r9d
	incl	%r9d
	addq	$8, %rdi
	movl	%r9d, %r14d
	cmpl	$1, %r8d
	je	.LBB24_181
.LBB24_176:                             # %for.body.i1085
                                        #   Parent Loop BB24_174 Depth=1
                                        # =>  This Inner Loop Header: Depth=2
	movq	(%rdi), %r8
	testb	$1, (%r8)
	je	.LBB24_180
# %bb.177:                              # %if.then6.i1090
                                        #   in Loop: Header=BB24_176 Depth=2
	movq	56(%r8), %r8
	cmpl	$0, 44(%r8)
	je	.LBB24_180
# %bb.178:                              # %is_long_ref.exit1337
                                        #   in Loop: Header=BB24_176 Depth=2
	cmpb	$0, 40(%r8)
	je	.LBB24_180
# %bb.179:                              # %if.then10.i1094
                                        #   in Loop: Header=BB24_174 Depth=1
	movsbq	256(%rbx), %rdi
	movq	%r8, (%rax,%rdi,8)
	incb	256(%rbx)
	jmp	.LBB24_182
	.p2align	4, 0x90
.LBB24_181:                             #   in Loop: Header=BB24_174 Depth=1
	movl	%ebp, %r14d
.LBB24_182:                             # %for.end.i1056
                                        #   in Loop: Header=BB24_174 Depth=1
	cmpl	%ebp, %ecx
	jge	.LBB24_190
# %bb.183:                              # %for.body23.preheader.i1063
                                        #   in Loop: Header=BB24_174 Depth=1
	movslq	%ecx, %rdi
	incl	%ecx
	leaq	(,%rdi,8), %rdi
	addq	%r13, %rdi
	jmp	.LBB24_184
	.p2align	4, 0x90
.LBB24_188:                             # %for.inc45.i1080
                                        #   in Loop: Header=BB24_184 Depth=2
	leal	(%rsi,%rcx), %r8d
	incl	%r8d
                                        # kill: def $ecx killed $ecx killed $rcx
	incl	%ecx
	addq	$8, %rdi
                                        # kill: def $ecx killed $ecx def $rcx
	cmpl	$1, %r8d
	je	.LBB24_189
.LBB24_184:                             # %for.body23.i1064
                                        #   Parent Loop BB24_174 Depth=1
                                        # =>  This Inner Loop Header: Depth=2
	movq	(%rdi), %r8
	testb	$2, (%r8)
	je	.LBB24_188
# %bb.185:                              # %if.then29.i1069
                                        #   in Loop: Header=BB24_184 Depth=2
	movq	64(%r8), %r8
	cmpl	$0, 44(%r8)
	je	.LBB24_188
# %bb.186:                              # %is_long_ref.exit1330
                                        #   in Loop: Header=BB24_184 Depth=2
	cmpb	$0, 40(%r8)
	je	.LBB24_188
# %bb.187:                              # %if.then34.i1073
                                        #   in Loop: Header=BB24_174 Depth=1
	movsbq	256(%rbx), %rdi
	movq	%r8, (%rax,%rdi,8)
	incb	256(%rbx)
	jmp	.LBB24_190
.LBB24_191:                             # %if.end48.i990
	cmpl	$2, %edx
	jne	.LBB24_213
# %bb.192:                              # %while.cond52.preheader.i994
	cmpl	%ebp, %r14d
	jl	.LBB24_194
# %bb.193:                              # %while.cond52.preheader.i994
	cmpl	%ebp, %ecx
	jl	.LBB24_194
.LBB24_213:                             # %gen_pic_list_from_frame_list.exit1105
	movl	184(%rbx), %ecx
	movq	272(%rbx), %rax
	cmpl	$2, %ecx
	je	.LBB24_234
# %bb.214:                              # %gen_pic_list_from_frame_list.exit1105
	cmpl	$1, %ecx
	jne	.LBB24_253
# %bb.215:                              # %while.cond.preheader.i1167
	testl	%ebp, %ebp
	jle	.LBB24_253
# %bb.216:                              # %for.cond.preheader.i1169.preheader
	movl	%ebp, %ecx
	negl	%ecx
	xorl	%edx, %edx
	xorl	%esi, %esi
	jmp	.LBB24_217
	.p2align	4, 0x90
.LBB24_232:                             #   in Loop: Header=BB24_217 Depth=1
	movl	%ebp, %edx
.LBB24_233:                             # %for.end47.i1176
                                        #   in Loop: Header=BB24_217 Depth=1
	cmpl	%ebp, %esi
	setl	%dil
	cmpl	%ebp, %edx
	setl	%r8b
	orb	%dil, %r8b
	je	.LBB24_253
.LBB24_217:                             # %for.cond.preheader.i1169
                                        # =>This Loop Header: Depth=1
                                        #     Child Loop BB24_219 Depth 2
                                        #     Child Loop BB24_227 Depth 2
	cmpl	%ebp, %esi
	jge	.LBB24_225
# %bb.218:                              # %for.body.preheader.i1201
                                        #   in Loop: Header=BB24_217 Depth=1
	movslq	%esi, %rdi
	incl	%esi
	leaq	(,%rdi,8), %rdi
	addq	%r13, %rdi
	jmp	.LBB24_219
	.p2align	4, 0x90
.LBB24_223:                             # %for.inc.i1218
                                        #   in Loop: Header=BB24_219 Depth=2
	leal	(%rcx,%rsi), %r8d
	incl	%r8d
                                        # kill: def $esi killed $esi killed $rsi
	incl	%esi
	addq	$8, %rdi
                                        # kill: def $esi killed $esi def $rsi
	cmpl	$1, %r8d
	je	.LBB24_224
.LBB24_219:                             # %for.body.i1202
                                        #   Parent Loop BB24_217 Depth=1
                                        # =>  This Inner Loop Header: Depth=2
	movq	(%rdi), %r8
	testb	$1, (%r8)
	je	.LBB24_223
# %bb.220:                              # %if.then6.i1207
                                        #   in Loop: Header=BB24_219 Depth=2
	movq	56(%r8), %r8
	cmpl	$0, 44(%r8)
	je	.LBB24_223
# %bb.221:                              # %is_long_ref.exit1365
                                        #   in Loop: Header=BB24_219 Depth=2
	cmpb	$0, 40(%r8)
	je	.LBB24_223
# %bb.222:                              # %if.then10.i1211
                                        #   in Loop: Header=BB24_217 Depth=1
	movsbq	257(%rbx), %rdi
	movq	%r8, (%rax,%rdi,8)
	incb	257(%rbx)
	jmp	.LBB24_225
	.p2align	4, 0x90
.LBB24_224:                             #   in Loop: Header=BB24_217 Depth=1
	movl	%ebp, %esi
.LBB24_225:                             # %for.end.i1173
                                        #   in Loop: Header=BB24_217 Depth=1
	cmpl	%ebp, %edx
	jge	.LBB24_233
# %bb.226:                              # %for.body23.preheader.i1180
                                        #   in Loop: Header=BB24_217 Depth=1
	movslq	%edx, %rdi
	incl	%edx
	leaq	(,%rdi,8), %rdi
	addq	%r13, %rdi
	jmp	.LBB24_227
	.p2align	4, 0x90
.LBB24_231:                             # %for.inc45.i1197
                                        #   in Loop: Header=BB24_227 Depth=2
	leal	(%rcx,%rdx), %r8d
	incl	%r8d
                                        # kill: def $edx killed $edx killed $rdx
	incl	%edx
	addq	$8, %rdi
                                        # kill: def $edx killed $edx def $rdx
	cmpl	$1, %r8d
	je	.LBB24_232
.LBB24_227:                             # %for.body23.i1181
                                        #   Parent Loop BB24_217 Depth=1
                                        # =>  This Inner Loop Header: Depth=2
	movq	(%rdi), %r8
	testb	$2, (%r8)
	je	.LBB24_231
# %bb.228:                              # %if.then29.i1186
                                        #   in Loop: Header=BB24_227 Depth=2
	movq	64(%r8), %r8
	cmpl	$0, 44(%r8)
	je	.LBB24_231
# %bb.229:                              # %is_long_ref.exit1358
                                        #   in Loop: Header=BB24_227 Depth=2
	cmpb	$0, 40(%r8)
	je	.LBB24_231
# %bb.230:                              # %if.then34.i1190
                                        #   in Loop: Header=BB24_217 Depth=1
	movsbq	257(%rbx), %rdi
	movq	%r8, (%rax,%rdi,8)
	incb	257(%rbx)
	jmp	.LBB24_233
.LBB24_162:                             # %for.body362.lr.ph.new
	movl	%eax, %esi
	andl	$-2, %esi
	xorl	%edx, %edx
	xorl	%ebp, %ebp
	jmp	.LBB24_163
	.p2align	4, 0x90
.LBB24_167:                             # %for.inc377.1
                                        #   in Loop: Header=BB24_163 Depth=1
	addq	$2, %rdx
	cmpq	%rdx, %rsi
	je	.LBB24_168
.LBB24_163:                             # %for.body362
                                        # =>This Inner Loop Header: Depth=1
	movq	(%rcx,%rdx,8), %rdi
	cmpl	%r11d, 72(%rdi)
	je	.LBB24_164
# %bb.165:                              # %for.inc377
                                        #   in Loop: Header=BB24_163 Depth=1
	movq	8(%rcx,%rdx,8), %rdi
	cmpl	%r11d, 72(%rdi)
	jne	.LBB24_167
	jmp	.LBB24_166
	.p2align	4, 0x90
.LBB24_164:                             # %if.then369
                                        #   in Loop: Header=BB24_163 Depth=1
	movslq	%ebp, %r8
	incl	%ebp
	movq	%rdi, (%r13,%r8,8)
	movq	8(%rcx,%rdx,8), %rdi
	cmpl	%r11d, 72(%rdi)
	jne	.LBB24_167
.LBB24_166:                             # %if.then369.1
                                        #   in Loop: Header=BB24_163 Depth=1
	movslq	%ebp, %r8
	incl	%ebp
	movq	%rdi, (%r13,%r8,8)
	jmp	.LBB24_167
.LBB24_234:                             # %while.cond52.preheader.i1111
	testl	%ebp, %ebp
	jle	.LBB24_253
# %bb.235:                              # %for.cond60.preheader.i1114.preheader
	movl	%ebp, %ecx
	negl	%ecx
	xorl	%edx, %edx
	xorl	%esi, %esi
	jmp	.LBB24_236
	.p2align	4, 0x90
.LBB24_251:                             #   in Loop: Header=BB24_236 Depth=1
	movl	%ebp, %esi
.LBB24_252:                             # %for.end117.i1121
                                        #   in Loop: Header=BB24_236 Depth=1
	cmpl	%ebp, %esi
	setl	%dil
	cmpl	%ebp, %edx
	setl	%r8b
	orb	%dil, %r8b
	je	.LBB24_253
.LBB24_236:                             # %for.cond60.preheader.i1114
                                        # =>This Loop Header: Depth=1
                                        #     Child Loop BB24_238 Depth 2
                                        #     Child Loop BB24_246 Depth 2
	cmpl	%ebp, %edx
	jge	.LBB24_244
# %bb.237:                              # %for.body63.preheader.i1146
                                        #   in Loop: Header=BB24_236 Depth=1
	movslq	%edx, %rdi
	incl	%edx
	leaq	(,%rdi,8), %rdi
	addq	%r13, %rdi
	jmp	.LBB24_238
	.p2align	4, 0x90
.LBB24_242:                             # %for.inc86.i1163
                                        #   in Loop: Header=BB24_238 Depth=2
	leal	(%rcx,%rdx), %r8d
	incl	%r8d
                                        # kill: def $edx killed $edx killed $rdx
	incl	%edx
	addq	$8, %rdi
                                        # kill: def $edx killed $edx def $rdx
	cmpl	$1, %r8d
	je	.LBB24_243
.LBB24_238:                             # %for.body63.i1147
                                        #   Parent Loop BB24_236 Depth=1
                                        # =>  This Inner Loop Header: Depth=2
	movq	(%rdi), %r8
	testb	$2, (%r8)
	je	.LBB24_242
# %bb.239:                              # %if.then69.i1152
                                        #   in Loop: Header=BB24_238 Depth=2
	movq	64(%r8), %r8
	cmpl	$0, 44(%r8)
	je	.LBB24_242
# %bb.240:                              # %is_long_ref.exit1351
                                        #   in Loop: Header=BB24_238 Depth=2
	cmpb	$0, 40(%r8)
	je	.LBB24_242
# %bb.241:                              # %if.then75.i1156
                                        #   in Loop: Header=BB24_236 Depth=1
	movsbq	257(%rbx), %rdi
	movq	%r8, (%rax,%rdi,8)
	incb	257(%rbx)
	jmp	.LBB24_244
	.p2align	4, 0x90
.LBB24_243:                             #   in Loop: Header=BB24_236 Depth=1
	movl	%ebp, %edx
.LBB24_244:                             # %for.end88.i1118
                                        #   in Loop: Header=BB24_236 Depth=1
	cmpl	%ebp, %esi
	jge	.LBB24_252
# %bb.245:                              # %for.body92.preheader.i1125
                                        #   in Loop: Header=BB24_236 Depth=1
	movslq	%esi, %rdi
	incl	%esi
	leaq	(,%rdi,8), %rdi
	addq	%r13, %rdi
	jmp	.LBB24_246
	.p2align	4, 0x90
.LBB24_250:                             # %for.inc115.i1142
                                        #   in Loop: Header=BB24_246 Depth=2
	leal	(%rcx,%rsi), %r8d
	incl	%r8d
                                        # kill: def $esi killed $esi killed $rsi
	incl	%esi
	addq	$8, %rdi
                                        # kill: def $esi killed $esi def $rsi
	cmpl	$1, %r8d
	je	.LBB24_251
.LBB24_246:                             # %for.body92.i1126
                                        #   Parent Loop BB24_236 Depth=1
                                        # =>  This Inner Loop Header: Depth=2
	movq	(%rdi), %r8
	testb	$1, (%r8)
	je	.LBB24_250
# %bb.247:                              # %if.then98.i1131
                                        #   in Loop: Header=BB24_246 Depth=2
	movq	56(%r8), %r8
	cmpl	$0, 44(%r8)
	je	.LBB24_250
# %bb.248:                              # %is_long_ref.exit1344
                                        #   in Loop: Header=BB24_246 Depth=2
	cmpb	$0, 40(%r8)
	je	.LBB24_250
# %bb.249:                              # %if.then104.i1135
                                        #   in Loop: Header=BB24_236 Depth=1
	movsbq	257(%rbx), %rdi
	movq	%r8, (%rax,%rdi,8)
	incb	257(%rbx)
	jmp	.LBB24_252
.LBB24_253:                             # %gen_pic_list_from_frame_list.exit1222
	movq	%r15, %rdi
	callq	free@PLT
	movq	40(%rsp), %rdi                  # 8-byte Reload
	callq	free@PLT
	movq	%r13, %rdi
	callq	free@PLT
	movzbl	256(%rbx), %eax
	movzbl	257(%rbx), %ebp
	movq	32(%rsp), %r13                  # 8-byte Reload
	jmp	.LBB24_254
.LBB24_2:
	xorl	%r14d, %r14d
.LBB24_11:                              # %for.end
	movq	264(%rbx), %rdi
	movslq	%r14d, %r15
	movl	$8, %edx
	movl	$compare_pic_by_poc_desc, %ecx
	movq	%r15, %rsi
	callq	qsort@PLT
	movq	8(%rsp), %rdi                   # 8-byte Reload
	movl	48(%r12), %eax
	movl	%r14d, %ebp
	testl	%eax, %eax
	je	.LBB24_20
# %bb.12:                               # %for.body45.lr.ph
	xorl	%ecx, %ecx
	movl	%r14d, %ebp
	jmp	.LBB24_13
	.p2align	4, 0x90
.LBB24_19:                              # %for.inc96
                                        #   in Loop: Header=BB24_13 Depth=1
	incq	%rcx
	movl	%eax, %edx
	cmpq	%rdx, %rcx
	jae	.LBB24_20
.LBB24_13:                              # %for.body45
                                        # =>This Inner Loop Header: Depth=1
	movq	24(%r12), %rdx
	movq	(%rdx,%rcx,8), %rdx
	cmpl	$3, (%rdx)
	jne	.LBB24_19
# %bb.14:                               # %if.then52
                                        #   in Loop: Header=BB24_13 Depth=1
	movq	48(%rdx), %rdx
	cmpl	$0, 44(%rdx)
	je	.LBB24_19
# %bb.15:                               # %land.lhs.true59
                                        #   in Loop: Header=BB24_13 Depth=1
	cmpb	$0, 40(%rdx)
	jne	.LBB24_19
# %bb.16:                               # %land.lhs.true66
                                        #   in Loop: Header=BB24_13 Depth=1
	cmpl	%edi, 344(%rdx)
	jne	.LBB24_19
# %bb.17:                               # %if.then74
                                        #   in Loop: Header=BB24_13 Depth=1
	movl	76(%rbx), %esi
	cmpl	4(%rdx), %esi
	jge	.LBB24_19
# %bb.18:                               # %if.then83
                                        #   in Loop: Header=BB24_13 Depth=1
	movq	264(%rbx), %rax
	movslq	%ebp, %rsi
	incl	%ebp
	movq	%rdx, (%rax,%rsi,8)
	movl	48(%r12), %eax
	jmp	.LBB24_19
.LBB24_20:                              # %for.end98
	leaq	(,%r15,8), %r12
	movq	264(%rbx), %rdi
	addq	%r12, %rdi
	movl	%ebp, %eax
	subl	%r15d, %eax
	movslq	%eax, %rsi
	movl	$8, %edx
	movl	$compare_pic_by_poc_asc, %ecx
	callq	qsort@PLT
	testl	%r15d, %r15d
	jle	.LBB24_26
# %bb.21:                               # %for.body107.lr.ph
	movl	%r14d, %edx
	movl	%edx, %eax
	andl	$3, %eax
	cmpl	$4, %r14d
	jae	.LBB24_34
# %bb.22:
	xorl	%ecx, %ecx
	jmp	.LBB24_23
.LBB24_98:                              # %for.cond60.preheader.i.preheader
	movl	%r14d, %edi
	negl	%edi
	.p2align	4, 0x90
.LBB24_99:                              # %for.cond60.preheader.i
                                        # =>This Loop Header: Depth=1
                                        #     Child Loop BB24_101 Depth 2
                                        #     Child Loop BB24_109 Depth 2
	cmpl	%r14d, %edx
	jl	.LBB24_100
# %bb.107:                              # %for.end88.i
                                        #   in Loop: Header=BB24_99 Depth=1
	cmpl	%r14d, %esi
	jl	.LBB24_108
.LBB24_115:                             # %for.end117.i
                                        #   in Loop: Header=BB24_99 Depth=1
	cmpl	%r14d, %esi
	jl	.LBB24_99
.LBB24_116:                             # %for.end117.i
                                        #   in Loop: Header=BB24_99 Depth=1
	cmpl	%r14d, %edx
	jl	.LBB24_99
	jmp	.LBB24_117
	.p2align	4, 0x90
.LBB24_100:                             # %for.body63.preheader.i
                                        #   in Loop: Header=BB24_99 Depth=1
	movslq	%edx, %r8
	incl	%edx
	leaq	(%r15,%r8,8), %r8
	jmp	.LBB24_101
	.p2align	4, 0x90
.LBB24_105:                             # %for.inc86.i
                                        #   in Loop: Header=BB24_101 Depth=2
	leal	(%rdi,%rdx), %r9d
	incl	%r9d
                                        # kill: def $edx killed $edx killed $rdx
	incl	%edx
	addq	$8, %r8
                                        # kill: def $edx killed $edx def $rdx
	cmpl	$1, %r9d
	je	.LBB24_106
.LBB24_101:                             # %for.body63.i
                                        #   Parent Loop BB24_99 Depth=1
                                        # =>  This Inner Loop Header: Depth=2
	movq	(%r8), %r9
	testb	$2, (%r9)
	je	.LBB24_105
# %bb.102:                              # %if.then69.i
                                        #   in Loop: Header=BB24_101 Depth=2
	movq	64(%r9), %r9
	cmpl	$0, 44(%r9)
	je	.LBB24_105
# %bb.103:                              # %is_short_ref.exit1269
                                        #   in Loop: Header=BB24_101 Depth=2
	cmpb	$0, 40(%r9)
	jne	.LBB24_105
# %bb.104:                              # %if.then75.i
                                        #   in Loop: Header=BB24_99 Depth=1
	movsbq	%cl, %rcx
	movq	%r9, (%rax,%rcx,8)
	movzbl	256(%rbx), %ecx
	incb	%cl
	movb	%cl, 256(%rbx)
	cmpl	%r14d, %esi
	jge	.LBB24_115
	jmp	.LBB24_108
	.p2align	4, 0x90
.LBB24_106:                             #   in Loop: Header=BB24_99 Depth=1
	movl	%r14d, %edx
	cmpl	%r14d, %esi
	jge	.LBB24_115
.LBB24_108:                             # %for.body92.preheader.i
                                        #   in Loop: Header=BB24_99 Depth=1
	movslq	%esi, %r8
	incl	%esi
	leaq	(%r15,%r8,8), %r8
	jmp	.LBB24_109
	.p2align	4, 0x90
.LBB24_113:                             # %for.inc115.i
                                        #   in Loop: Header=BB24_109 Depth=2
	leal	(%rdi,%rsi), %r9d
	incl	%r9d
                                        # kill: def $esi killed $esi killed $rsi
	incl	%esi
	addq	$8, %r8
                                        # kill: def $esi killed $esi def $rsi
	cmpl	$1, %r9d
	je	.LBB24_114
.LBB24_109:                             # %for.body92.i
                                        #   Parent Loop BB24_99 Depth=1
                                        # =>  This Inner Loop Header: Depth=2
	movq	(%r8), %r9
	testb	$1, (%r9)
	je	.LBB24_113
# %bb.110:                              # %if.then98.i
                                        #   in Loop: Header=BB24_109 Depth=2
	movq	56(%r9), %r9
	cmpl	$0, 44(%r9)
	je	.LBB24_113
# %bb.111:                              # %is_short_ref.exit
                                        #   in Loop: Header=BB24_109 Depth=2
	cmpb	$0, 40(%r9)
	jne	.LBB24_113
# %bb.112:                              # %if.then104.i
                                        #   in Loop: Header=BB24_99 Depth=1
	movsbq	%cl, %rcx
	movq	%r9, (%rax,%rcx,8)
	movzbl	256(%rbx), %ecx
	incb	%cl
	movb	%cl, 256(%rbx)
	cmpl	%r14d, %esi
	jge	.LBB24_116
	jmp	.LBB24_99
	.p2align	4, 0x90
.LBB24_114:                             #   in Loop: Header=BB24_99 Depth=1
	movl	%r14d, %esi
	cmpl	%r14d, %esi
	jge	.LBB24_116
	jmp	.LBB24_99
.LBB24_140:                             # %for.cond60.preheader.i880.preheader
	movl	%r14d, %esi
	negl	%esi
	.p2align	4, 0x90
.LBB24_141:                             # %for.cond60.preheader.i880
                                        # =>This Loop Header: Depth=1
                                        #     Child Loop BB24_143 Depth 2
                                        #     Child Loop BB24_151 Depth 2
	cmpl	%r14d, %ecx
	jl	.LBB24_142
# %bb.149:                              # %for.end88.i884
                                        #   in Loop: Header=BB24_141 Depth=1
	cmpl	%r14d, %edx
	jl	.LBB24_150
.LBB24_157:                             # %for.end117.i887
                                        #   in Loop: Header=BB24_141 Depth=1
	cmpl	%r14d, %edx
	jl	.LBB24_141
.LBB24_158:                             # %for.end117.i887
                                        #   in Loop: Header=BB24_141 Depth=1
	cmpl	%r14d, %ecx
	jl	.LBB24_141
	jmp	.LBB24_159
	.p2align	4, 0x90
.LBB24_142:                             # %for.body63.preheader.i912
                                        #   in Loop: Header=BB24_141 Depth=1
	movslq	%ecx, %rdi
	incl	%ecx
	leaq	(,%rdi,8), %rdi
	addq	%rbp, %rdi
	jmp	.LBB24_143
	.p2align	4, 0x90
.LBB24_147:                             # %for.inc86.i929
                                        #   in Loop: Header=BB24_143 Depth=2
	leal	(%rsi,%rcx), %r8d
	incl	%r8d
                                        # kill: def $ecx killed $ecx killed $rcx
	incl	%ecx
	addq	$8, %rdi
                                        # kill: def $ecx killed $ecx def $rcx
	cmpl	$1, %r8d
	je	.LBB24_148
.LBB24_143:                             # %for.body63.i913
                                        #   Parent Loop BB24_141 Depth=1
                                        # =>  This Inner Loop Header: Depth=2
	movq	(%rdi), %r8
	testb	$2, (%r8)
	je	.LBB24_147
# %bb.144:                              # %if.then69.i918
                                        #   in Loop: Header=BB24_143 Depth=2
	movq	64(%r8), %r8
	cmpl	$0, 44(%r8)
	je	.LBB24_147
# %bb.145:                              # %is_short_ref.exit1297
                                        #   in Loop: Header=BB24_143 Depth=2
	cmpb	$0, 40(%r8)
	jne	.LBB24_147
# %bb.146:                              # %if.then75.i922
                                        #   in Loop: Header=BB24_141 Depth=1
	movsbq	257(%rbx), %rdi
	movq	%r8, (%rax,%rdi,8)
	incb	257(%rbx)
	cmpl	%r14d, %edx
	jge	.LBB24_157
	jmp	.LBB24_150
	.p2align	4, 0x90
.LBB24_148:                             #   in Loop: Header=BB24_141 Depth=1
	movl	%r14d, %ecx
	cmpl	%r14d, %edx
	jge	.LBB24_157
.LBB24_150:                             # %for.body92.preheader.i891
                                        #   in Loop: Header=BB24_141 Depth=1
	movslq	%edx, %rdi
	incl	%edx
	leaq	(,%rdi,8), %rdi
	addq	%rbp, %rdi
	jmp	.LBB24_151
	.p2align	4, 0x90
.LBB24_155:                             # %for.inc115.i908
                                        #   in Loop: Header=BB24_151 Depth=2
	leal	(%rsi,%rdx), %r8d
	incl	%r8d
                                        # kill: def $edx killed $edx killed $rdx
	incl	%edx
	addq	$8, %rdi
                                        # kill: def $edx killed $edx def $rdx
	cmpl	$1, %r8d
	je	.LBB24_156
.LBB24_151:                             # %for.body92.i892
                                        #   Parent Loop BB24_141 Depth=1
                                        # =>  This Inner Loop Header: Depth=2
	movq	(%rdi), %r8
	testb	$1, (%r8)
	je	.LBB24_155
# %bb.152:                              # %if.then98.i897
                                        #   in Loop: Header=BB24_151 Depth=2
	movq	56(%r8), %r8
	cmpl	$0, 44(%r8)
	je	.LBB24_155
# %bb.153:                              # %is_short_ref.exit1290
                                        #   in Loop: Header=BB24_151 Depth=2
	cmpb	$0, 40(%r8)
	jne	.LBB24_155
# %bb.154:                              # %if.then104.i901
                                        #   in Loop: Header=BB24_141 Depth=1
	movsbq	257(%rbx), %rdi
	movq	%r8, (%rax,%rdi,8)
	incb	257(%rbx)
	cmpl	%r14d, %edx
	jge	.LBB24_158
	jmp	.LBB24_141
	.p2align	4, 0x90
.LBB24_156:                             #   in Loop: Header=BB24_141 Depth=1
	movl	%r14d, %edx
	cmpl	%r14d, %edx
	jge	.LBB24_158
	jmp	.LBB24_141
.LBB24_194:                             # %for.cond60.preheader.i997.preheader
	movl	%ebp, %edx
	negl	%edx
	.p2align	4, 0x90
.LBB24_195:                             # %for.cond60.preheader.i997
                                        # =>This Loop Header: Depth=1
                                        #     Child Loop BB24_197 Depth 2
                                        #     Child Loop BB24_205 Depth 2
	cmpl	%ebp, %ecx
	jl	.LBB24_196
# %bb.203:                              # %for.end88.i1001
                                        #   in Loop: Header=BB24_195 Depth=1
	cmpl	%ebp, %r14d
	jl	.LBB24_204
.LBB24_211:                             # %for.end117.i1004
                                        #   in Loop: Header=BB24_195 Depth=1
	cmpl	%ebp, %r14d
	jl	.LBB24_195
.LBB24_212:                             # %for.end117.i1004
                                        #   in Loop: Header=BB24_195 Depth=1
	cmpl	%ebp, %ecx
	jl	.LBB24_195
	jmp	.LBB24_213
	.p2align	4, 0x90
.LBB24_196:                             # %for.body63.preheader.i1029
                                        #   in Loop: Header=BB24_195 Depth=1
	movslq	%ecx, %rsi
	incl	%ecx
	leaq	(,%rsi,8), %rsi
	addq	%r13, %rsi
	jmp	.LBB24_197
	.p2align	4, 0x90
.LBB24_201:                             # %for.inc86.i1046
                                        #   in Loop: Header=BB24_197 Depth=2
	leal	(%rdx,%rcx), %edi
	incl	%edi
                                        # kill: def $ecx killed $ecx killed $rcx
	incl	%ecx
	addq	$8, %rsi
                                        # kill: def $ecx killed $ecx def $rcx
	cmpl	$1, %edi
	je	.LBB24_202
.LBB24_197:                             # %for.body63.i1030
                                        #   Parent Loop BB24_195 Depth=1
                                        # =>  This Inner Loop Header: Depth=2
	movq	(%rsi), %rdi
	testb	$2, (%rdi)
	je	.LBB24_201
# %bb.198:                              # %if.then69.i1035
                                        #   in Loop: Header=BB24_197 Depth=2
	movq	64(%rdi), %rdi
	cmpl	$0, 44(%rdi)
	je	.LBB24_201
# %bb.199:                              # %is_long_ref.exit1323
                                        #   in Loop: Header=BB24_197 Depth=2
	cmpb	$0, 40(%rdi)
	je	.LBB24_201
# %bb.200:                              # %if.then75.i1039
                                        #   in Loop: Header=BB24_195 Depth=1
	movsbq	256(%rbx), %rsi
	movq	%rdi, (%rax,%rsi,8)
	incb	256(%rbx)
	cmpl	%ebp, %r14d
	jge	.LBB24_211
	jmp	.LBB24_204
	.p2align	4, 0x90
.LBB24_202:                             #   in Loop: Header=BB24_195 Depth=1
	movl	%ebp, %ecx
	cmpl	%ebp, %r14d
	jge	.LBB24_211
.LBB24_204:                             # %for.body92.preheader.i1008
                                        #   in Loop: Header=BB24_195 Depth=1
	movslq	%r14d, %rsi
	incl	%r14d
	leaq	(,%rsi,8), %rsi
	addq	%r13, %rsi
	jmp	.LBB24_205
	.p2align	4, 0x90
.LBB24_209:                             # %for.inc115.i1025
                                        #   in Loop: Header=BB24_205 Depth=2
	leal	(%rdx,%r14), %edi
	incl	%edi
	movl	%r14d, %r8d
	incl	%r8d
	addq	$8, %rsi
	movl	%r8d, %r14d
	cmpl	$1, %edi
	je	.LBB24_210
.LBB24_205:                             # %for.body92.i1009
                                        #   Parent Loop BB24_195 Depth=1
                                        # =>  This Inner Loop Header: Depth=2
	movq	(%rsi), %rdi
	testb	$1, (%rdi)
	je	.LBB24_209
# %bb.206:                              # %if.then98.i1014
                                        #   in Loop: Header=BB24_205 Depth=2
	movq	56(%rdi), %rdi
	cmpl	$0, 44(%rdi)
	je	.LBB24_209
# %bb.207:                              # %is_long_ref.exit
                                        #   in Loop: Header=BB24_205 Depth=2
	cmpb	$0, 40(%rdi)
	je	.LBB24_209
# %bb.208:                              # %if.then104.i1018
                                        #   in Loop: Header=BB24_195 Depth=1
	movsbq	256(%rbx), %rsi
	movq	%rdi, (%rax,%rsi,8)
	incb	256(%rbx)
	cmpl	%ebp, %r14d
	jge	.LBB24_212
	jmp	.LBB24_195
	.p2align	4, 0x90
.LBB24_210:                             #   in Loop: Header=BB24_195 Depth=1
	movl	%ebp, %r14d
	cmpl	%ebp, %r14d
	jge	.LBB24_212
	jmp	.LBB24_195
.LBB24_34:                              # %for.body107.lr.ph.new
	andl	$2147483644, %edx               # imm = 0x7FFFFFFC
	movslq	%ebp, %rsi
	shlq	$3, %rsi
	subq	%r12, %rsi
	xorl	%ecx, %ecx
	.p2align	4, 0x90
.LBB24_35:                              # %for.body107
                                        # =>This Inner Loop Header: Depth=1
	movq	264(%rbx), %rdi
	movq	(%rdi,%rcx,8), %rdi
	movq	272(%rbx), %r8
	addq	%rsi, %r8
	movq	%rdi, (%r8,%rcx,8)
	movq	264(%rbx), %rdi
	movq	8(%rdi,%rcx,8), %rdi
	movq	272(%rbx), %r8
	addq	%rsi, %r8
	movq	%rdi, 8(%r8,%rcx,8)
	movq	264(%rbx), %rdi
	movq	16(%rdi,%rcx,8), %rdi
	movq	272(%rbx), %r8
	addq	%rsi, %r8
	movq	%rdi, 16(%r8,%rcx,8)
	movq	264(%rbx), %rdi
	movq	24(%rdi,%rcx,8), %rdi
	movq	272(%rbx), %r8
	addq	%rsi, %r8
	movq	%rdi, 24(%r8,%rcx,8)
	addq	$4, %rcx
	cmpq	%rcx, %rdx
	jne	.LBB24_35
.LBB24_23:                              # %for.cond120.preheader.loopexit.unr-lcssa
	testq	%rax, %rax
	je	.LBB24_26
# %bb.24:                               # %for.body107.epil.preheader
	movslq	%ebp, %rdx
	shlq	$3, %rdx
	subq	%r12, %rdx
	.p2align	4, 0x90
.LBB24_25:                              # %for.body107.epil
                                        # =>This Inner Loop Header: Depth=1
	movq	264(%rbx), %rsi
	movq	(%rsi,%rcx,8), %rsi
	movq	272(%rbx), %rdi
	addq	%rdx, %rdi
	movq	%rsi, (%rdi,%rcx,8)
	incq	%rcx
	decq	%rax
	jne	.LBB24_25
.LBB24_26:                              # %for.cond120.preheader
	movl	%ebp, %edx
	subl	%r14d, %edx
	movq	8(%rsp), %rdi                   # 8-byte Reload
	jle	.LBB24_32
# %bb.27:                               # %for.body123.lr.ph
	movslq	%ebp, %rax
	movq	%r15, %rcx
	testb	$1, %dl
	je	.LBB24_29
# %bb.28:                               # %for.body123.prol
	movq	264(%rbx), %rcx
	movq	272(%rbx), %rdx
	movq	(%rcx,%r15,8), %rcx
	movq	%rcx, (%rdx)
	leaq	1(%r15), %rcx
.LBB24_29:                              # %for.body123.prol.loopexit
	leaq	-1(%rax), %rdx
	cmpq	%r15, %rdx
	je	.LBB24_32
# %bb.30:                               # %for.body123.preheader
	negq	%r12
	.p2align	4, 0x90
.LBB24_31:                              # %for.body123
                                        # =>This Inner Loop Header: Depth=1
	movq	264(%rbx), %rdx
	movq	(%rdx,%rcx,8), %rdx
	movq	272(%rbx), %rsi
	addq	%r12, %rsi
	movq	%rdx, (%rsi,%rcx,8)
	movq	264(%rbx), %rdx
	movq	8(%rdx,%rcx,8), %rdx
	movq	272(%rbx), %rsi
	addq	%r12, %rsi
	movq	%rdx, 8(%rsi,%rcx,8)
	addq	$2, %rcx
	cmpq	%rcx, %rax
	jne	.LBB24_31
.LBB24_32:                              # %for.end135
	movb	%bpl, 257(%rbx)
	movb	%bpl, 256(%rbx)
	movq	16(%rsp), %r12                  # 8-byte Reload
	movl	52(%r12), %ecx
	testl	%ecx, %ecx
	je	.LBB24_33
# %bb.36:                               # %for.body143.lr.ph
	xorl	%eax, %eax
	jmp	.LBB24_37
	.p2align	4, 0x90
.LBB24_41:                              # %for.inc185
                                        #   in Loop: Header=BB24_37 Depth=1
	incq	%rax
	movl	%ecx, %edx
	cmpq	%rdx, %rax
	jae	.LBB24_42
.LBB24_37:                              # %for.body143
                                        # =>This Inner Loop Header: Depth=1
	movq	32(%r12), %rdx
	movq	(%rdx,%rax,8), %rdx
	cmpl	$3, (%rdx)
	jne	.LBB24_41
# %bb.38:                               # %if.then149
                                        #   in Loop: Header=BB24_37 Depth=1
	movq	48(%rdx), %rdx
	cmpb	$0, 40(%rdx)
	je	.LBB24_41
# %bb.39:                               # %land.lhs.true157
                                        #   in Loop: Header=BB24_37 Depth=1
	cmpl	%edi, 344(%rdx)
	jne	.LBB24_41
# %bb.40:                               # %if.then165
                                        #   in Loop: Header=BB24_37 Depth=1
	movq	264(%rbx), %rcx
	movslq	%ebp, %rsi
	movq	%rdx, (%rcx,%rsi,8)
	movq	32(%r12), %rcx
	movq	(%rcx,%rax,8), %rcx
	movq	48(%rcx), %rcx
	movq	272(%rbx), %rdx
	leal	1(%rsi), %ebp
	movq	%rcx, (%rdx,%rsi,8)
	movl	52(%r12), %ecx
	jmp	.LBB24_41
.LBB24_42:                              # %for.end187.loopexit
	movzbl	256(%rbx), %eax
	jmp	.LBB24_43
.LBB24_33:
	movl	%ebp, %eax
.LBB24_43:                              # %for.end187
	movsbq	%al, %rax
	leaq	(,%rax,8), %rdi
	addq	264(%rbx), %rdi
	movsbl	%al, %eax
	movl	%ebp, %ecx
	subl	%eax, %ecx
	movslq	%ecx, %rsi
	movl	$8, %edx
	movl	$compare_pic_by_lt_pic_num_asc, %ecx
	callq	qsort@PLT
	movsbq	256(%rbx), %rax
	leaq	(,%rax,8), %rdi
	addq	272(%rbx), %rdi
	movslq	%ebp, %rsi
	subq	%rax, %rsi
	movl	$8, %edx
	movl	$compare_pic_by_lt_pic_num_asc, %ecx
	callq	qsort@PLT
	movb	%bpl, 257(%rbx)
	movb	%bpl, 256(%rbx)
	movl	%ebp, %eax
.LBB24_254:                             # %if.end391
	cmpb	%bpl, %al
	setne	%cl
	cmpb	$2, %al
	setl	%al
	orb	%cl, %al
	jne	.LBB24_259
# %bb.255:                              # %for.cond407.preheader
	movq	264(%rbx), %rcx
	movq	272(%rbx), %rax
	movzbl	%bpl, %edx
	xorl	%esi, %esi
	.p2align	4, 0x90
.LBB24_257:                             # %for.body413
                                        # =>This Inner Loop Header: Depth=1
	movq	(%rcx,%rsi,8), %rdi
	cmpq	(%rax,%rsi,8), %rdi
	jne	.LBB24_259
# %bb.256:                              # %for.cond407
                                        #   in Loop: Header=BB24_257 Depth=1
	incq	%rsi
	cmpq	%rsi, %rdx
	jne	.LBB24_257
# %bb.258:                              # %if.then430
	movq	(%rax), %rcx
	movq	8(%rax), %rdx
	movq	%rdx, (%rax)
	movq	272(%rbx), %rax
	movq	%rcx, 8(%rax)
.LBB24_259:                             # %if.end444
	cmpl	$0, 32(%rbx)
	je	.LBB24_260
.LBB24_308:                             # %if.end540
	movsbl	256(%rbx), %ecx
	movl	136(%rbx), %edx
	movl	140(%rbx), %eax
	cmpl	%edx, %ecx
	cmovll	%ecx, %edx
	movb	%dl, 256(%rbx)
	movsbl	257(%rbx), %ecx
	cmpl	%eax, %ecx
	cmovll	%ecx, %eax
	movb	%al, 257(%rbx)
	movsbl	%dl, %ecx
	cmpl	$32, %ecx
	ja	.LBB24_312
# %bb.309:                              # %for.body564.lr.ph
	movl	%ecx, %eax
	movq	856488(%r13), %rcx
	incq	%rax
	movq	%rax, %rdx
	.p2align	4, 0x90
.LBB24_310:                             # %for.body564
                                        # =>This Inner Loop Header: Depth=1
	movq	264(%rbx), %rsi
	movq	%rcx, -8(%rsi,%rax,8)
	incq	%rdx
	cmpl	$33, %eax
	movq	%rdx, %rax
	jne	.LBB24_310
# %bb.311:                              # %for.end571.loopexit
	movzbl	257(%rbx), %eax
.LBB24_312:                             # %for.end571
	cmpb	$32, %al
	ja	.LBB24_315
# %bb.313:                              # %for.body578.lr.ph
	movzbl	%al, %eax
	movq	856488(%r13), %rcx
	incq	%rax
	movq	%rax, %rdx
	.p2align	4, 0x90
.LBB24_314:                             # %for.body578
                                        # =>This Inner Loop Header: Depth=1
	movq	272(%rbx), %rsi
	movq	%rcx, -8(%rsi,%rax,8)
	incq	%rdx
	cmpl	$33, %eax
	movq	%rdx, %rax
	jne	.LBB24_314
.LBB24_315:                             # %for.end586
	addq	$72, %rsp
	.cfi_def_cfa_offset 56
	popq	%rbx
	.cfi_def_cfa_offset 48
	popq	%r12
	.cfi_def_cfa_offset 40
	popq	%r13
	.cfi_def_cfa_offset 32
	popq	%r14
	.cfi_def_cfa_offset 24
	popq	%r15
	.cfi_def_cfa_offset 16
	popq	%rbp
	.cfi_def_cfa_offset 8
	retq
.LBB24_260:                             # %if.then447
	.cfi_def_cfa_offset 128
	movl	40(%r12), %edi
	movl	$8, %esi
	callq	calloc@PLT
	movq	%rax, 13320(%rbx)
	testq	%rax, %rax
	jne	.LBB24_262
# %bb.261:                              # %if.then454
	movl	$.L.str.16, %edi
	callq	no_mem_exit@PLT
.LBB24_262:                             # %if.end455
	movl	40(%r12), %edi
	movl	$8, %esi
	callq	calloc@PLT
	movq	%rax, 13328(%rbx)
	testq	%rax, %rax
	movq	64(%rsp), %rbp                  # 8-byte Reload
	jne	.LBB24_264
# %bb.263:                              # %if.then462
	movl	$.L.str.18, %edi
	callq	no_mem_exit@PLT
.LBB24_264:                             # %if.end463
	leaq	13308(%rbx), %r8
	leaq	13312(%rbx), %r14
	movl	184(%rbx), %esi
	testl	%esi, %esi
	je	.LBB24_265
# %bb.274:                              # %if.else518
	movq	13320(%rbx), %rcx
	movq	%r12, %rdi
	xorl	%edx, %edx
	movl	28(%rsp), %r9d                  # 4-byte Reload
	pushq	%rbp
	.cfi_adjust_cfa_offset 8
	pushq	16(%rsp)                        # 8-byte Folded Reload
	.cfi_adjust_cfa_offset 8
	callq	append_interview_list
	addq	$16, %rsp
	.cfi_adjust_cfa_offset -16
	movl	184(%rbx), %esi
	movq	13320(%rbx), %rcx
	movl	13308(%rbx), %edx
	movq	264(%rbx), %rax
	cmpl	$2, %esi
	je	.LBB24_283
# %bb.275:                              # %if.else518
	cmpl	$1, %esi
	movq	8(%rsp), %r10                   # 8-byte Reload
	jne	.LBB24_291
# %bb.276:                              # %for.cond.preheader.i1227
	testl	%edx, %edx
	jle	.LBB24_291
# %bb.277:                              # %for.body.preheader.i1228
	movzbl	256(%rbx), %esi
	cmpl	$1, %edx
	jne	.LBB24_279
# %bb.278:
	xorl	%edi, %edi
	jmp	.LBB24_281
.LBB24_265:                             # %if.then470
	movq	%r13, 32(%rsp)                  # 8-byte Spill
	movq	%r14, 16(%rsp)                  # 8-byte Spill
	movzbl	256(%rbx), %r14d
	movq	13320(%rbx), %rcx
	movq	%r12, %rdi
	xorl	%esi, %esi
	xorl	%edx, %edx
	movl	28(%rsp), %r13d                 # 4-byte Reload
	movl	%r13d, %r9d
	pushq	%rbp
	.cfi_adjust_cfa_offset 8
	movq	%r12, %r15
	movq	16(%rsp), %r12                  # 8-byte Reload
	pushq	%r12
	.cfi_adjust_cfa_offset 8
	callq	append_interview_list
	addq	$16, %rsp
	.cfi_adjust_cfa_offset -16
	movq	13328(%rbx), %rcx
	movq	%r15, %rdi
	xorl	%esi, %esi
	movl	$1, %edx
	movq	16(%rsp), %r8                   # 8-byte Reload
	movl	%r13d, %r9d
	pushq	%rbp
	.cfi_adjust_cfa_offset 8
	pushq	%r12
	.cfi_adjust_cfa_offset 8
	callq	append_interview_list
	addq	$16, %rsp
	.cfi_adjust_cfa_offset -16
	cmpl	$0, 13308(%rbx)
	je	.LBB24_269
# %bb.266:                              # %for.body479.lr.ph
	movzbl	%r14b, %eax
	movsbq	%al, %rcx
	shlq	$3, %rcx
	xorl	%r14d, %r14d
	.p2align	4, 0x90
.LBB24_267:                             # %for.body479
                                        # =>This Inner Loop Header: Depth=1
	movq	13320(%rbx), %rdx
	movq	(%rdx,%r14,8), %rdx
	movq	48(%rdx), %rdx
	movq	264(%rbx), %rsi
	addq	%rcx, %rsi
	movq	%rdx, (%rsi,%r14,8)
	incq	%r14
	movl	13308(%rbx), %edx
	cmpq	%rdx, %r14
	jb	.LBB24_267
# %bb.268:                              # %for.end491.loopexit
	addl	%eax, %r14d
.LBB24_269:                             # %for.end491
	movq	32(%rsp), %r13                  # 8-byte Reload
	movb	%r14b, 256(%rbx)
	movzbl	257(%rbx), %eax
	cmpl	$0, 13312(%rbx)
	je	.LBB24_273
# %bb.270:                              # %for.body502.lr.ph
	movzbl	%al, %ecx
	movsbq	%cl, %rdx
	shlq	$3, %rdx
	xorl	%eax, %eax
	.p2align	4, 0x90
.LBB24_271:                             # %for.body502
                                        # =>This Inner Loop Header: Depth=1
	movq	13328(%rbx), %rsi
	movq	(%rsi,%rax,8), %rsi
	movq	48(%rsi), %rsi
	movq	272(%rbx), %rdi
	addq	%rdx, %rdi
	movq	%rsi, (%rdi,%rax,8)
	incq	%rax
	movl	13312(%rbx), %esi
	cmpq	%rsi, %rax
	jb	.LBB24_271
# %bb.272:                              # %for.end514.loopexit
	addl	%ecx, %eax
.LBB24_273:                             # %for.end514
	movb	%al, 257(%rbx)
	jmp	.LBB24_308
.LBB24_283:                             # %if.then7.i
	testl	%edx, %edx
	movq	8(%rsp), %r10                   # 8-byte Reload
	jle	.LBB24_291
# %bb.284:                              # %for.body11.preheader.i
	movzbl	256(%rbx), %esi
	cmpl	$1, %edx
	jne	.LBB24_286
# %bb.285:
	xorl	%edi, %edi
	jmp	.LBB24_288
.LBB24_279:                             # %for.body.preheader.i1228.new
	movl	%edx, %r8d
	andl	$2147483646, %r8d               # imm = 0x7FFFFFFE
	xorl	%edi, %edi
	.p2align	4, 0x90
.LBB24_280:                             # %for.body.i1229
                                        # =>This Inner Loop Header: Depth=1
	movq	(%rcx,%rdi,8), %r9
	movq	56(%r9), %r9
	movsbq	%sil, %rsi
	movq	%r9, (%rax,%rsi,8)
	movzbl	256(%rbx), %esi
	incb	%sil
	movb	%sil, 256(%rbx)
	movq	8(%rcx,%rdi,8), %r9
	movq	56(%r9), %r9
	movsbq	%sil, %rsi
	movq	%r9, (%rax,%rsi,8)
	movzbl	256(%rbx), %esi
	incb	%sil
	movb	%sil, 256(%rbx)
	addq	$2, %rdi
	cmpq	%rdi, %r8
	jne	.LBB24_280
.LBB24_281:                             # %gen_pic_list_from_frame_interview_list.exit.loopexit.unr-lcssa
	testb	$1, %dl
	je	.LBB24_291
# %bb.282:                              # %for.body.i1229.epil
	movq	(%rcx,%rdi,8), %rcx
	movq	56(%rcx), %rcx
	jmp	.LBB24_290
.LBB24_286:                             # %for.body11.preheader.i.new
	movl	%edx, %r8d
	andl	$2147483646, %r8d               # imm = 0x7FFFFFFE
	xorl	%edi, %edi
	.p2align	4, 0x90
.LBB24_287:                             # %for.body11.i
                                        # =>This Inner Loop Header: Depth=1
	movq	(%rcx,%rdi,8), %r9
	movq	64(%r9), %r9
	movsbq	%sil, %rsi
	movq	%r9, (%rax,%rsi,8)
	movzbl	256(%rbx), %esi
	incb	%sil
	movb	%sil, 256(%rbx)
	movq	8(%rcx,%rdi,8), %r9
	movq	64(%r9), %r9
	movsbq	%sil, %rsi
	movq	%r9, (%rax,%rsi,8)
	movzbl	256(%rbx), %esi
	incb	%sil
	movb	%sil, 256(%rbx)
	addq	$2, %rdi
	cmpq	%rdi, %r8
	jne	.LBB24_287
.LBB24_288:                             # %gen_pic_list_from_frame_interview_list.exit.loopexit1673.unr-lcssa
	testb	$1, %dl
	je	.LBB24_291
# %bb.289:                              # %for.body11.i.epil
	movq	(%rcx,%rdi,8), %rcx
	movq	64(%rcx), %rcx
.LBB24_290:                             # %gen_pic_list_from_frame_interview_list.exit
	movsbq	%sil, %rdx
	movq	%rcx, (%rax,%rdx,8)
	incb	256(%rbx)
.LBB24_291:                             # %gen_pic_list_from_frame_interview_list.exit
	movl	184(%rbx), %esi
	movq	13328(%rbx), %rcx
	movq	%r12, %rdi
	movl	$1, %edx
	movq	%r14, %r8
	movl	28(%rsp), %r9d                  # 4-byte Reload
	pushq	%rbp
	.cfi_adjust_cfa_offset 8
	pushq	%r10
	.cfi_adjust_cfa_offset 8
	callq	append_interview_list
	addq	$16, %rsp
	.cfi_adjust_cfa_offset -16
	movl	184(%rbx), %esi
	movq	13328(%rbx), %rcx
	movl	13312(%rbx), %edx
	movq	272(%rbx), %rax
	cmpl	$2, %esi
	je	.LBB24_300
# %bb.292:                              # %gen_pic_list_from_frame_interview_list.exit
	cmpl	$1, %esi
	jne	.LBB24_308
# %bb.293:                              # %for.cond.preheader.i1247
	testl	%edx, %edx
	jle	.LBB24_308
# %bb.294:                              # %for.body.preheader.i1249
	movzbl	257(%rbx), %esi
	cmpl	$1, %edx
	jne	.LBB24_296
# %bb.295:
	xorl	%edi, %edi
	jmp	.LBB24_298
.LBB24_300:                             # %if.then7.i1233
	testl	%edx, %edx
	jle	.LBB24_308
# %bb.301:                              # %for.body11.preheader.i1235
	movzbl	257(%rbx), %esi
	cmpl	$1, %edx
	jne	.LBB24_303
# %bb.302:
	xorl	%edi, %edi
	jmp	.LBB24_305
.LBB24_296:                             # %for.body.preheader.i1249.new
	movl	%edx, %r8d
	andl	$2147483646, %r8d               # imm = 0x7FFFFFFE
	xorl	%edi, %edi
	.p2align	4, 0x90
.LBB24_297:                             # %for.body.i1252
                                        # =>This Inner Loop Header: Depth=1
	movq	(%rcx,%rdi,8), %r9
	movq	56(%r9), %r9
	movsbq	%sil, %rsi
	movq	%r9, (%rax,%rsi,8)
	movzbl	257(%rbx), %esi
	incb	%sil
	movb	%sil, 257(%rbx)
	movq	8(%rcx,%rdi,8), %r9
	movq	56(%r9), %r9
	movsbq	%sil, %rsi
	movq	%r9, (%rax,%rsi,8)
	movzbl	257(%rbx), %esi
	incb	%sil
	movb	%sil, 257(%rbx)
	addq	$2, %rdi
	cmpq	%rdi, %r8
	jne	.LBB24_297
.LBB24_298:                             # %if.end540.loopexit.unr-lcssa
	testb	$1, %dl
	je	.LBB24_308
# %bb.299:                              # %for.body.i1252.epil
	movq	(%rcx,%rdi,8), %rcx
	movq	56(%rcx), %rcx
	jmp	.LBB24_307
.LBB24_303:                             # %for.body11.preheader.i1235.new
	movl	%edx, %r8d
	andl	$2147483646, %r8d               # imm = 0x7FFFFFFE
	xorl	%edi, %edi
	.p2align	4, 0x90
.LBB24_304:                             # %for.body11.i1238
                                        # =>This Inner Loop Header: Depth=1
	movq	(%rcx,%rdi,8), %r9
	movq	64(%r9), %r9
	movsbq	%sil, %rsi
	movq	%r9, (%rax,%rsi,8)
	movzbl	257(%rbx), %esi
	incb	%sil
	movb	%sil, 257(%rbx)
	movq	8(%rcx,%rdi,8), %r9
	movq	64(%r9), %r9
	movsbq	%sil, %rsi
	movq	%r9, (%rax,%rsi,8)
	movzbl	257(%rbx), %esi
	incb	%sil
	movb	%sil, 257(%rbx)
	addq	$2, %rdi
	cmpq	%rdi, %r8
	jne	.LBB24_304
.LBB24_305:                             # %if.end540.loopexit1672.unr-lcssa
	testb	$1, %dl
	je	.LBB24_308
# %bb.306:                              # %for.body11.i1238.epil
	movq	(%rcx,%rdi,8), %rcx
	movq	64(%rcx), %rcx
.LBB24_307:                             # %if.end540
	movsbq	%sil, %rdx
	movq	%rcx, (%rax,%rdx,8)
	incb	257(%rbx)
	jmp	.LBB24_308
.Lfunc_end24:
	.size	init_lists_b_slice, .Lfunc_end24-init_lists_b_slice
	.cfi_endproc
                                        # -- End function
	.p2align	4, 0x90                         # -- Begin function compare_pic_by_poc_desc
	.type	compare_pic_by_poc_desc,@function
compare_pic_by_poc_desc:                # @compare_pic_by_poc_desc
	.cfi_startproc
# %bb.0:                                # %entry
	movq	(%rdi), %rax
	movl	4(%rax), %eax
	movq	(%rsi), %rcx
	movl	4(%rcx), %ecx
	xorl	%edx, %edx
	cmpl	%ecx, %eax
	setg	%dl
	negl	%edx
	cmpl	%ecx, %eax
	movl	$1, %eax
	cmovgel	%edx, %eax
	retq
.Lfunc_end25:
	.size	compare_pic_by_poc_desc, .Lfunc_end25-compare_pic_by_poc_desc
	.cfi_endproc
                                        # -- End function
	.p2align	4, 0x90                         # -- Begin function compare_pic_by_poc_asc
	.type	compare_pic_by_poc_asc,@function
compare_pic_by_poc_asc:                 # @compare_pic_by_poc_asc
	.cfi_startproc
# %bb.0:                                # %entry
	movq	(%rdi), %rax
	movl	4(%rax), %eax
	movq	(%rsi), %rcx
	xorl	%edx, %edx
	cmpl	4(%rcx), %eax
	setg	%dl
	movl	$-1, %eax
	cmovgel	%edx, %eax
	retq
.Lfunc_end26:
	.size	compare_pic_by_poc_asc, .Lfunc_end26-compare_pic_by_poc_asc
	.cfi_endproc
                                        # -- End function
	.p2align	4, 0x90                         # -- Begin function compare_fs_by_poc_desc
	.type	compare_fs_by_poc_desc,@function
compare_fs_by_poc_desc:                 # @compare_fs_by_poc_desc
	.cfi_startproc
# %bb.0:                                # %entry
	movq	(%rdi), %rax
	movl	40(%rax), %eax
	movq	(%rsi), %rcx
	movl	40(%rcx), %ecx
	xorl	%edx, %edx
	cmpl	%ecx, %eax
	setg	%dl
	negl	%edx
	cmpl	%ecx, %eax
	movl	$1, %eax
	cmovgel	%edx, %eax
	retq
.Lfunc_end27:
	.size	compare_fs_by_poc_desc, .Lfunc_end27-compare_fs_by_poc_desc
	.cfi_endproc
                                        # -- End function
	.p2align	4, 0x90                         # -- Begin function compare_fs_by_poc_asc
	.type	compare_fs_by_poc_asc,@function
compare_fs_by_poc_asc:                  # @compare_fs_by_poc_asc
	.cfi_startproc
# %bb.0:                                # %entry
	movq	(%rdi), %rax
	movl	40(%rax), %eax
	movq	(%rsi), %rcx
	xorl	%edx, %edx
	cmpl	40(%rcx), %eax
	setg	%dl
	movl	$-1, %eax
	cmovgel	%edx, %eax
	retq
.Lfunc_end28:
	.size	compare_fs_by_poc_asc, .Lfunc_end28-compare_fs_by_poc_asc
	.cfi_endproc
                                        # -- End function
	.globl	init_lists                      # -- Begin function init_lists
	.p2align	4, 0x90
	.type	init_lists,@function
init_lists:                             # @init_lists
	.cfi_startproc
# %bb.0:                                # %entry
	pushq	%rbp
	.cfi_def_cfa_offset 16
	pushq	%r15
	.cfi_def_cfa_offset 24
	pushq	%r14
	.cfi_def_cfa_offset 32
	pushq	%r13
	.cfi_def_cfa_offset 40
	pushq	%r12
	.cfi_def_cfa_offset 48
	pushq	%rbx
	.cfi_def_cfa_offset 56
	subq	$72, %rsp
	.cfi_def_cfa_offset 128
	.cfi_offset %rbx, -56
	.cfi_offset %r12, -48
	.cfi_offset %r13, -40
	.cfi_offset %r14, -32
	.cfi_offset %r15, -24
	.cfi_offset %rbp, -16
	movq	%rdi, %rbx
	movq	(%rdi), %r13
	movq	40(%rdi), %r14
	movl	104(%rdi), %ecx
	movl	1176(%rdi), %edi
	movl	1184(%rbx), %ebp
	movq	$0, 13308(%rbx)
	movl	164(%rbx), %eax
	cmpq	$4, %rax
	movq	%rdi, 8(%rsp)                   # 8-byte Spill
	ja	.LBB29_141
# %bb.1:                                # %entry
	jmpq	*.LJTI29_0(,%rax,8)
.LBB29_4:                               # %if.then13
	movl	%ecx, 20(%rsp)                  # 4-byte Spill
	cmpl	$0, 184(%rbx)
	movq	%rbp, 48(%rsp)                  # 8-byte Spill
	je	.LBB29_5
# %bb.24:                               # %if.else
	movl	40(%r14), %r12d
	movl	$8, %esi
	movq	%r12, %rdi
	callq	calloc@PLT
	movq	%rax, %r15
	testq	%rax, %rax
	jne	.LBB29_26
# %bb.25:                               # %if.then108
	movl	$.L.str.14, %edi
	callq	no_mem_exit@PLT
	movl	40(%r14), %r12d
.LBB29_26:                              # %if.end109
	movq	%r13, 24(%rsp)                  # 8-byte Spill
	movl	$8, %esi
	movq	%r12, %rdi
	callq	calloc@PLT
	movq	%rax, %r12
	testq	%rax, %rax
	jne	.LBB29_28
# %bb.27:                               # %if.then115
	movl	$.L.str.15, %edi
	callq	no_mem_exit@PLT
.LBB29_28:                              # %if.end116
	movl	48(%r14), %eax
	xorl	%r13d, %r13d
	movl	$0, %ebp
	testq	%rax, %rax
	je	.LBB29_43
# %bb.29:                               # %for.body121.lr.ph
	movq	24(%r14), %rcx
	cmpl	$1, %eax
	jne	.LBB29_31
# %bb.30:
	xorl	%edx, %edx
	xorl	%ebp, %ebp
.LBB29_39:                              # %for.end143.loopexit.unr-lcssa
	testb	$1, %al
	je	.LBB29_43
# %bb.40:                               # %for.body121.epil
	movq	(%rcx,%rdx,8), %rax
	cmpl	$0, 4(%rax)
	je	.LBB29_43
# %bb.41:                               # %land.lhs.true126.epil
	movq	8(%rsp), %rcx                   # 8-byte Reload
	cmpl	%ecx, 72(%rax)
	jne	.LBB29_43
# %bb.42:                               # %if.then133.epil
	movslq	%ebp, %rcx
	incl	%ebp
	movq	%rax, (%r15,%rcx,8)
.LBB29_43:                              # %for.end143
	movslq	%ebp, %rsi
	movl	$8, %edx
	movl	$compare_fs_by_frame_num_desc, %ecx
	movq	%r15, %rdi
	callq	qsort@PLT
	movb	$0, 256(%rbx)
	movl	184(%rbx), %esi
	movq	264(%rbx), %rax
	movl	$0, %ecx
	movl	$0, %edx
	cmpl	$1, %esi
	movq	8(%rsp), %r11                   # 8-byte Reload
	jne	.LBB29_63
# %bb.44:                               # %while.cond.preheader.i
	testl	%ebp, %ebp
	jle	.LBB29_85
# %bb.45:                               # %for.cond.preheader.i.preheader
	movl	%ebp, %edi
	negl	%edi
	xorl	%ecx, %ecx
	xorl	%edx, %edx
	xorl	%r13d, %r13d
	jmp	.LBB29_46
	.p2align	4, 0x90
.LBB29_61:                              #   in Loop: Header=BB29_46 Depth=1
	movl	%ebp, %edx
.LBB29_62:                              # %for.end47.i
                                        #   in Loop: Header=BB29_46 Depth=1
	cmpl	%ebp, %r13d
	setl	%r8b
	cmpl	%ebp, %edx
	setl	%r9b
	orb	%r8b, %r9b
	je	.LBB29_63
.LBB29_46:                              # %for.cond.preheader.i
                                        # =>This Loop Header: Depth=1
                                        #     Child Loop BB29_48 Depth 2
                                        #     Child Loop BB29_56 Depth 2
	cmpl	%ebp, %r13d
	jge	.LBB29_54
# %bb.47:                               # %for.body.preheader.i
                                        #   in Loop: Header=BB29_46 Depth=1
	movslq	%r13d, %r8
	incl	%r13d
	leaq	(%r15,%r8,8), %r8
	jmp	.LBB29_48
	.p2align	4, 0x90
.LBB29_52:                              # %for.inc.i
                                        #   in Loop: Header=BB29_48 Depth=2
	leal	(%rdi,%r13), %r9d
	incl	%r9d
	movl	%r13d, %r10d
	incl	%r10d
	addq	$8, %r8
	movl	%r10d, %r13d
	cmpl	$1, %r9d
	je	.LBB29_53
.LBB29_48:                              # %for.body.i
                                        #   Parent Loop BB29_46 Depth=1
                                        # =>  This Inner Loop Header: Depth=2
	movq	(%r8), %r9
	testb	$1, (%r9)
	je	.LBB29_52
# %bb.49:                               # %if.then6.i
                                        #   in Loop: Header=BB29_48 Depth=2
	movq	56(%r9), %r9
	cmpl	$0, 44(%r9)
	je	.LBB29_52
# %bb.50:                               # %is_short_ref.exit1960
                                        #   in Loop: Header=BB29_48 Depth=2
	cmpb	$0, 40(%r9)
	jne	.LBB29_52
# %bb.51:                               # %if.then10.i
                                        #   in Loop: Header=BB29_46 Depth=1
	movsbq	%cl, %rcx
	movq	%r9, (%rax,%rcx,8)
	movzbl	256(%rbx), %ecx
	incb	%cl
	movb	%cl, 256(%rbx)
	jmp	.LBB29_54
	.p2align	4, 0x90
.LBB29_53:                              #   in Loop: Header=BB29_46 Depth=1
	movl	%ebp, %r13d
.LBB29_54:                              # %for.end.i
                                        #   in Loop: Header=BB29_46 Depth=1
	cmpl	%ebp, %edx
	jge	.LBB29_62
# %bb.55:                               # %for.body23.preheader.i
                                        #   in Loop: Header=BB29_46 Depth=1
	movslq	%edx, %r8
	incl	%edx
	leaq	(%r15,%r8,8), %r8
	jmp	.LBB29_56
	.p2align	4, 0x90
.LBB29_60:                              # %for.inc45.i
                                        #   in Loop: Header=BB29_56 Depth=2
	leal	(%rdi,%rdx), %r9d
	incl	%r9d
                                        # kill: def $edx killed $edx killed $rdx
	incl	%edx
	addq	$8, %r8
                                        # kill: def $edx killed $edx def $rdx
	cmpl	$1, %r9d
	je	.LBB29_61
.LBB29_56:                              # %for.body23.i
                                        #   Parent Loop BB29_46 Depth=1
                                        # =>  This Inner Loop Header: Depth=2
	movq	(%r8), %r9
	testb	$2, (%r9)
	je	.LBB29_60
# %bb.57:                               # %if.then29.i
                                        #   in Loop: Header=BB29_56 Depth=2
	movq	64(%r9), %r9
	cmpl	$0, 44(%r9)
	je	.LBB29_60
# %bb.58:                               # %is_short_ref.exit1953
                                        #   in Loop: Header=BB29_56 Depth=2
	cmpb	$0, 40(%r9)
	jne	.LBB29_60
# %bb.59:                               # %if.then34.i
                                        #   in Loop: Header=BB29_46 Depth=1
	movsbq	%cl, %rcx
	movq	%r9, (%rax,%rcx,8)
	movzbl	256(%rbx), %ecx
	incb	%cl
	movb	%cl, 256(%rbx)
	jmp	.LBB29_62
.LBB29_2:                               # %if.then
	movw	$0, 256(%rbx)
	jmp	.LBB29_3
.LBB29_63:                              # %if.end48.i
	cmpl	$2, %esi
	jne	.LBB29_85
# %bb.64:                               # %while.cond52.preheader.i
	cmpl	%ebp, %r13d
	jl	.LBB29_66
# %bb.65:                               # %while.cond52.preheader.i
	cmpl	%ebp, %edx
	jl	.LBB29_66
.LBB29_85:                              # %gen_pic_list_from_frame_list.exit
	movl	52(%r14), %eax
	xorl	%r13d, %r13d
	movl	$0, %ebp
	testq	%rax, %rax
	je	.LBB29_97
# %bb.86:                               # %for.body156.lr.ph
	movq	32(%r14), %rcx
	cmpl	$1, %eax
	jne	.LBB29_88
# %bb.87:
	xorl	%edx, %edx
	xorl	%ebp, %ebp
.LBB29_94:                              # %for.end173.loopexit.unr-lcssa
	testb	$1, %al
	je	.LBB29_97
# %bb.95:                               # %for.body156.epil
	movq	(%rcx,%rdx,8), %rax
	cmpl	%r11d, 72(%rax)
	jne	.LBB29_97
# %bb.96:                               # %if.then163.epil
	movslq	%ebp, %rcx
	incl	%ebp
	movq	%rax, (%r12,%rcx,8)
.LBB29_97:                              # %for.end173
	movslq	%ebp, %rsi
	movl	$8, %edx
	movl	$compare_fs_by_lt_pic_idx_asc, %ecx
	movq	%r12, %rdi
	callq	qsort@PLT
	movl	184(%rbx), %edx
	movq	264(%rbx), %rax
	movl	$0, %ecx
	cmpl	$1, %edx
	jne	.LBB29_117
# %bb.98:                               # %while.cond.preheader.i1347
	testl	%ebp, %ebp
	jle	.LBB29_139
# %bb.99:                               # %for.cond.preheader.i1349.preheader
	movl	%ebp, %esi
	negl	%esi
	xorl	%ecx, %ecx
	xorl	%r13d, %r13d
	jmp	.LBB29_100
	.p2align	4, 0x90
.LBB29_115:                             #   in Loop: Header=BB29_100 Depth=1
	movl	%ebp, %ecx
.LBB29_116:                             # %for.end47.i1356
                                        #   in Loop: Header=BB29_100 Depth=1
	cmpl	%ebp, %r13d
	setl	%dil
	cmpl	%ebp, %ecx
	setl	%r8b
	orb	%dil, %r8b
	je	.LBB29_117
.LBB29_100:                             # %for.cond.preheader.i1349
                                        # =>This Loop Header: Depth=1
                                        #     Child Loop BB29_102 Depth 2
                                        #     Child Loop BB29_110 Depth 2
	cmpl	%ebp, %r13d
	jge	.LBB29_108
# %bb.101:                              # %for.body.preheader.i1381
                                        #   in Loop: Header=BB29_100 Depth=1
	movslq	%r13d, %rdi
	incl	%r13d
	leaq	(%r12,%rdi,8), %rdi
	jmp	.LBB29_102
	.p2align	4, 0x90
.LBB29_106:                             # %for.inc.i1398
                                        #   in Loop: Header=BB29_102 Depth=2
	leal	(%rsi,%r13), %r8d
	incl	%r8d
	movl	%r13d, %r9d
	incl	%r9d
	addq	$8, %rdi
	movl	%r9d, %r13d
	cmpl	$1, %r8d
	je	.LBB29_107
.LBB29_102:                             # %for.body.i1382
                                        #   Parent Loop BB29_100 Depth=1
                                        # =>  This Inner Loop Header: Depth=2
	movq	(%rdi), %r8
	testb	$1, (%r8)
	je	.LBB29_106
# %bb.103:                              # %if.then6.i1387
                                        #   in Loop: Header=BB29_102 Depth=2
	movq	56(%r8), %r8
	cmpl	$0, 44(%r8)
	je	.LBB29_106
# %bb.104:                              # %is_long_ref.exit1986
                                        #   in Loop: Header=BB29_102 Depth=2
	cmpb	$0, 40(%r8)
	je	.LBB29_106
# %bb.105:                              # %if.then10.i1391
                                        #   in Loop: Header=BB29_100 Depth=1
	movsbq	256(%rbx), %rdi
	movq	%r8, (%rax,%rdi,8)
	incb	256(%rbx)
	jmp	.LBB29_108
	.p2align	4, 0x90
.LBB29_107:                             #   in Loop: Header=BB29_100 Depth=1
	movl	%ebp, %r13d
.LBB29_108:                             # %for.end.i1353
                                        #   in Loop: Header=BB29_100 Depth=1
	cmpl	%ebp, %ecx
	jge	.LBB29_116
# %bb.109:                              # %for.body23.preheader.i1360
                                        #   in Loop: Header=BB29_100 Depth=1
	movslq	%ecx, %rdi
	incl	%ecx
	leaq	(%r12,%rdi,8), %rdi
	jmp	.LBB29_110
	.p2align	4, 0x90
.LBB29_114:                             # %for.inc45.i1377
                                        #   in Loop: Header=BB29_110 Depth=2
	leal	(%rsi,%rcx), %r8d
	incl	%r8d
                                        # kill: def $ecx killed $ecx killed $rcx
	incl	%ecx
	addq	$8, %rdi
                                        # kill: def $ecx killed $ecx def $rcx
	cmpl	$1, %r8d
	je	.LBB29_115
.LBB29_110:                             # %for.body23.i1361
                                        #   Parent Loop BB29_100 Depth=1
                                        # =>  This Inner Loop Header: Depth=2
	movq	(%rdi), %r8
	testb	$2, (%r8)
	je	.LBB29_114
# %bb.111:                              # %if.then29.i1366
                                        #   in Loop: Header=BB29_110 Depth=2
	movq	64(%r8), %r8
	cmpl	$0, 44(%r8)
	je	.LBB29_114
# %bb.112:                              # %is_long_ref.exit1979
                                        #   in Loop: Header=BB29_110 Depth=2
	cmpb	$0, 40(%r8)
	je	.LBB29_114
# %bb.113:                              # %if.then34.i1370
                                        #   in Loop: Header=BB29_100 Depth=1
	movsbq	256(%rbx), %rdi
	movq	%r8, (%rax,%rdi,8)
	incb	256(%rbx)
	jmp	.LBB29_116
.LBB29_117:                             # %if.end48.i1287
	cmpl	$2, %edx
	jne	.LBB29_139
# %bb.118:                              # %while.cond52.preheader.i1291
	cmpl	%ebp, %r13d
	jl	.LBB29_120
# %bb.119:                              # %while.cond52.preheader.i1291
	cmpl	%ebp, %ecx
	jl	.LBB29_120
.LBB29_139:                             # %gen_pic_list_from_frame_list.exit1402
	movq	%r15, %rdi
	callq	free@PLT
	movq	%r12, %rdi
	callq	free@PLT
	movq	24(%rsp), %r13                  # 8-byte Reload
	jmp	.LBB29_140
.LBB29_141:                             # %if.else183
	movl	%ecx, 20(%rsp)                  # 4-byte Spill
	cmpl	$0, 184(%rbx)
	movq	%r13, 24(%rsp)                  # 8-byte Spill
	movq	%rbp, 48(%rsp)                  # 8-byte Spill
	je	.LBB29_142
# %bb.185:                              # %if.else427
	movl	40(%r14), %r12d
	movl	$8, %esi
	movq	%r12, %rdi
	callq	calloc@PLT
	movq	%rax, %r15
	testq	%rax, %rax
	jne	.LBB29_187
# %bb.186:                              # %if.then433
	movl	$.L.str.14, %edi
	callq	no_mem_exit@PLT
	movl	40(%r14), %r12d
.LBB29_187:                             # %if.end434
	movl	$8, %esi
	movq	%r12, %rdi
	callq	calloc@PLT
	movq	%rax, 40(%rsp)                  # 8-byte Spill
	testq	%rax, %rax
	jne	.LBB29_189
# %bb.188:                              # %if.then440
	movl	$.L.str.17, %edi
	callq	no_mem_exit@PLT
	movl	40(%r14), %r12d
.LBB29_189:                             # %if.end441
	movl	$8, %esi
	movq	%r12, %rdi
	callq	calloc@PLT
	movq	%rax, 32(%rsp)                  # 8-byte Spill
	testq	%rax, %rax
	jne	.LBB29_191
# %bb.190:                              # %if.then447
	movl	$.L.str.15, %edi
	callq	no_mem_exit@PLT
.LBB29_191:                             # %if.end448
	movw	$256, 256(%rbx)                 # imm = 0x100
	movl	48(%r14), %eax
	testq	%rax, %rax
	je	.LBB29_192
# %bb.193:                              # %for.body457.lr.ph
	movq	24(%r14), %rcx
	xorl	%edx, %edx
	xorl	%r13d, %r13d
	movq	8(%rsp), %r8                    # 8-byte Reload
	jmp	.LBB29_194
	.p2align	4, 0x90
.LBB29_198:                             # %for.inc487
                                        #   in Loop: Header=BB29_194 Depth=1
	incq	%rdx
	cmpq	%rax, %rdx
	jae	.LBB29_199
.LBB29_194:                             # %for.body457
                                        # =>This Inner Loop Header: Depth=1
	movq	(%rcx,%rdx,8), %rsi
	cmpl	$0, (%rsi)
	je	.LBB29_198
# %bb.195:                              # %if.then463
                                        #   in Loop: Header=BB29_194 Depth=1
	movl	104(%rbx), %edi
	cmpl	40(%rsi), %edi
	jl	.LBB29_198
# %bb.196:                              # %land.lhs.true471
                                        #   in Loop: Header=BB29_194 Depth=1
	cmpl	%r8d, 72(%rsi)
	jne	.LBB29_198
# %bb.197:                              # %if.then478
                                        #   in Loop: Header=BB29_194 Depth=1
	movslq	%r13d, %rdi
	incl	%r13d
	movq	%rsi, (%r15,%rdi,8)
	jmp	.LBB29_198
.LBB29_5:                               # %for.cond.preheader
	movl	48(%r14), %ecx
	testl	%ecx, %ecx
	je	.LBB29_6
# %bb.7:                                # %for.body.lr.ph
	xorl	%eax, %eax
	xorl	%ebp, %ebp
	jmp	.LBB29_8
	.p2align	4, 0x90
.LBB29_13:                              # %for.inc
                                        #   in Loop: Header=BB29_8 Depth=1
	incq	%rax
	movl	%ecx, %edx
	cmpq	%rdx, %rax
	jae	.LBB29_14
.LBB29_8:                               # %for.body
                                        # =>This Inner Loop Header: Depth=1
	movq	24(%r14), %rdx
	movq	(%rdx,%rax,8), %rdx
	cmpl	$3, (%rdx)
	jne	.LBB29_13
# %bb.9:                                # %if.then19
                                        #   in Loop: Header=BB29_8 Depth=1
	movq	48(%rdx), %rdx
	cmpl	$0, 44(%rdx)
	je	.LBB29_13
# %bb.10:                               # %land.lhs.true
                                        #   in Loop: Header=BB29_8 Depth=1
	cmpb	$0, 40(%rdx)
	jne	.LBB29_13
# %bb.11:                               # %land.lhs.true28
                                        #   in Loop: Header=BB29_8 Depth=1
	cmpl	%edi, 344(%rdx)
	jne	.LBB29_13
# %bb.12:                               # %if.then35
                                        #   in Loop: Header=BB29_8 Depth=1
	movq	264(%rbx), %rcx
	movslq	%ebp, %rsi
	incl	%ebp
	movq	%rdx, (%rcx,%rsi,8)
	movl	48(%r14), %ecx
	jmp	.LBB29_13
.LBB29_31:                              # %for.body121.lr.ph.new
	movl	%eax, %esi
	andl	$-2, %esi
	xorl	%edx, %edx
	xorl	%ebp, %ebp
	movq	8(%rsp), %r9                    # 8-byte Reload
	jmp	.LBB29_32
	.p2align	4, 0x90
.LBB29_38:                              # %for.inc141.1
                                        #   in Loop: Header=BB29_32 Depth=1
	addq	$2, %rdx
	cmpq	%rdx, %rsi
	je	.LBB29_39
.LBB29_32:                              # %for.body121
                                        # =>This Inner Loop Header: Depth=1
	movq	(%rcx,%rdx,8), %rdi
	cmpl	$0, 4(%rdi)
	je	.LBB29_35
# %bb.33:                               # %land.lhs.true126
                                        #   in Loop: Header=BB29_32 Depth=1
	cmpl	%r9d, 72(%rdi)
	jne	.LBB29_35
# %bb.34:                               # %if.then133
                                        #   in Loop: Header=BB29_32 Depth=1
	movslq	%ebp, %r8
	incl	%ebp
	movq	%rdi, (%r15,%r8,8)
.LBB29_35:                              # %for.inc141
                                        #   in Loop: Header=BB29_32 Depth=1
	movq	8(%rcx,%rdx,8), %rdi
	cmpl	$0, 4(%rdi)
	je	.LBB29_38
# %bb.36:                               # %land.lhs.true126.1
                                        #   in Loop: Header=BB29_32 Depth=1
	cmpl	%r9d, 72(%rdi)
	jne	.LBB29_38
# %bb.37:                               # %if.then133.1
                                        #   in Loop: Header=BB29_32 Depth=1
	movslq	%ebp, %r8
	incl	%ebp
	movq	%rdi, (%r15,%r8,8)
	jmp	.LBB29_38
.LBB29_88:                              # %for.body156.lr.ph.new
	movl	%eax, %esi
	andl	$-2, %esi
	xorl	%edx, %edx
	xorl	%ebp, %ebp
	jmp	.LBB29_89
	.p2align	4, 0x90
.LBB29_93:                              # %for.inc171.1
                                        #   in Loop: Header=BB29_89 Depth=1
	addq	$2, %rdx
	cmpq	%rdx, %rsi
	je	.LBB29_94
.LBB29_89:                              # %for.body156
                                        # =>This Inner Loop Header: Depth=1
	movq	(%rcx,%rdx,8), %rdi
	cmpl	%r11d, 72(%rdi)
	je	.LBB29_90
# %bb.91:                               # %for.inc171
                                        #   in Loop: Header=BB29_89 Depth=1
	movq	8(%rcx,%rdx,8), %rdi
	cmpl	%r11d, 72(%rdi)
	jne	.LBB29_93
	jmp	.LBB29_92
	.p2align	4, 0x90
.LBB29_90:                              # %if.then163
                                        #   in Loop: Header=BB29_89 Depth=1
	movslq	%ebp, %r8
	incl	%ebp
	movq	%rdi, (%r12,%r8,8)
	movq	8(%rcx,%rdx,8), %rdi
	cmpl	%r11d, 72(%rdi)
	jne	.LBB29_93
.LBB29_92:                              # %if.then163.1
                                        #   in Loop: Header=BB29_89 Depth=1
	movslq	%ebp, %r8
	incl	%ebp
	movq	%rdi, (%r12,%r8,8)
	jmp	.LBB29_93
.LBB29_142:                             # %for.cond188.preheader
	movl	48(%r14), %ecx
	testl	%ecx, %ecx
	je	.LBB29_143
# %bb.144:                              # %for.body192.lr.ph
	xorl	%eax, %eax
	xorl	%r12d, %r12d
	jmp	.LBB29_145
	.p2align	4, 0x90
.LBB29_151:                             # %for.inc241
                                        #   in Loop: Header=BB29_145 Depth=1
	incq	%rax
	movl	%ecx, %edx
	cmpq	%rdx, %rax
	jae	.LBB29_152
.LBB29_145:                             # %for.body192
                                        # =>This Inner Loop Header: Depth=1
	movq	24(%r14), %rdx
	movq	(%rdx,%rax,8), %rdx
	cmpl	$3, (%rdx)
	jne	.LBB29_151
# %bb.146:                              # %if.then199
                                        #   in Loop: Header=BB29_145 Depth=1
	movq	48(%rdx), %rdx
	cmpl	$0, 44(%rdx)
	je	.LBB29_151
# %bb.147:                              # %land.lhs.true206
                                        #   in Loop: Header=BB29_145 Depth=1
	cmpb	$0, 40(%rdx)
	jne	.LBB29_151
# %bb.148:                              # %land.lhs.true213
                                        #   in Loop: Header=BB29_145 Depth=1
	cmpl	%edi, 344(%rdx)
	jne	.LBB29_151
# %bb.149:                              # %if.then221
                                        #   in Loop: Header=BB29_145 Depth=1
	movl	76(%rbx), %esi
	cmpl	4(%rdx), %esi
	jl	.LBB29_151
# %bb.150:                              # %if.then228
                                        #   in Loop: Header=BB29_145 Depth=1
	movq	264(%rbx), %rcx
	movslq	%r12d, %rsi
	incl	%r12d
	movq	%rdx, (%rcx,%rsi,8)
	movl	48(%r14), %ecx
	jmp	.LBB29_151
.LBB29_6:
	xorl	%ebp, %ebp
.LBB29_14:                              # %for.end
	movq	264(%rbx), %rdi
	movslq	%ebp, %r15
	movl	$8, %edx
	movl	$compare_pic_by_pic_num_desc, %ecx
	movq	%r15, %rsi
	callq	qsort@PLT
	movb	%r15b, 256(%rbx)
	movl	52(%r14), %ecx
	testl	%ecx, %ecx
	je	.LBB29_15
# %bb.16:                               # %for.body54.lr.ph
	xorl	%eax, %eax
	movq	8(%rsp), %rdi                   # 8-byte Reload
	jmp	.LBB29_17
	.p2align	4, 0x90
.LBB29_21:                              # %for.inc88
                                        #   in Loop: Header=BB29_17 Depth=1
	incq	%rax
	movl	%ecx, %edx
	cmpq	%rdx, %rax
	jae	.LBB29_22
.LBB29_17:                              # %for.body54
                                        # =>This Inner Loop Header: Depth=1
	movq	32(%r14), %rdx
	movq	(%rdx,%rax,8), %rdx
	cmpl	$3, (%rdx)
	jne	.LBB29_21
# %bb.18:                               # %if.then60
                                        #   in Loop: Header=BB29_17 Depth=1
	movq	48(%rdx), %rdx
	cmpb	$0, 40(%rdx)
	je	.LBB29_21
# %bb.19:                               # %land.lhs.true68
                                        #   in Loop: Header=BB29_17 Depth=1
	cmpl	%edi, 344(%rdx)
	jne	.LBB29_21
# %bb.20:                               # %if.then76
                                        #   in Loop: Header=BB29_17 Depth=1
	movq	264(%rbx), %rcx
	movslq	%ebp, %rsi
	incl	%ebp
	movq	%rdx, (%rcx,%rsi,8)
	movl	52(%r14), %ecx
	jmp	.LBB29_21
.LBB29_22:                              # %for.end90.loopexit
	movzbl	256(%rbx), %eax
	movl	%ebp, %r15d
	jmp	.LBB29_23
.LBB29_15:
	movl	%r15d, %eax
.LBB29_23:                              # %for.end90
	movsbq	%al, %rax
	leaq	(,%rax,8), %rdi
	addq	264(%rbx), %rdi
	movsbl	%al, %eax
	subl	%eax, %ebp
	movslq	%ebp, %rsi
	movl	$8, %edx
	movl	$compare_pic_by_lt_pic_num_asc, %ecx
	callq	qsort@PLT
	movb	%r15b, 256(%rbx)
.LBB29_140:                             # %if.end180
	movb	$0, 257(%rbx)
	xorl	%ebp, %ebp
	movzbl	256(%rbx), %eax
	cmpb	$2, %al
	jge	.LBB29_396
	jmp	.LBB29_406
.LBB29_66:                              # %for.cond60.preheader.i.preheader
	movl	%ebp, %esi
	negl	%esi
	.p2align	4, 0x90
.LBB29_67:                              # %for.cond60.preheader.i
                                        # =>This Loop Header: Depth=1
                                        #     Child Loop BB29_69 Depth 2
                                        #     Child Loop BB29_77 Depth 2
	cmpl	%ebp, %edx
	jl	.LBB29_68
# %bb.75:                               # %for.end88.i
                                        #   in Loop: Header=BB29_67 Depth=1
	cmpl	%ebp, %r13d
	jl	.LBB29_76
.LBB29_83:                              # %for.end117.i
                                        #   in Loop: Header=BB29_67 Depth=1
	cmpl	%ebp, %r13d
	jl	.LBB29_67
.LBB29_84:                              # %for.end117.i
                                        #   in Loop: Header=BB29_67 Depth=1
	cmpl	%ebp, %edx
	jl	.LBB29_67
	jmp	.LBB29_85
	.p2align	4, 0x90
.LBB29_68:                              # %for.body63.preheader.i
                                        #   in Loop: Header=BB29_67 Depth=1
	movslq	%edx, %rdi
	incl	%edx
	leaq	(%r15,%rdi,8), %rdi
	jmp	.LBB29_69
	.p2align	4, 0x90
.LBB29_73:                              # %for.inc86.i
                                        #   in Loop: Header=BB29_69 Depth=2
	leal	(%rsi,%rdx), %r8d
	incl	%r8d
                                        # kill: def $edx killed $edx killed $rdx
	incl	%edx
	addq	$8, %rdi
                                        # kill: def $edx killed $edx def $rdx
	cmpl	$1, %r8d
	je	.LBB29_74
.LBB29_69:                              # %for.body63.i
                                        #   Parent Loop BB29_67 Depth=1
                                        # =>  This Inner Loop Header: Depth=2
	movq	(%rdi), %r8
	testb	$2, (%r8)
	je	.LBB29_73
# %bb.70:                               # %if.then69.i
                                        #   in Loop: Header=BB29_69 Depth=2
	movq	64(%r8), %r8
	cmpl	$0, 44(%r8)
	je	.LBB29_73
# %bb.71:                               # %is_short_ref.exit1946
                                        #   in Loop: Header=BB29_69 Depth=2
	cmpb	$0, 40(%r8)
	jne	.LBB29_73
# %bb.72:                               # %if.then75.i
                                        #   in Loop: Header=BB29_67 Depth=1
	movsbq	%cl, %rcx
	movq	%r8, (%rax,%rcx,8)
	movzbl	256(%rbx), %ecx
	incb	%cl
	movb	%cl, 256(%rbx)
	cmpl	%ebp, %r13d
	jge	.LBB29_83
	jmp	.LBB29_76
	.p2align	4, 0x90
.LBB29_74:                              #   in Loop: Header=BB29_67 Depth=1
	movl	%ebp, %edx
	cmpl	%ebp, %r13d
	jge	.LBB29_83
.LBB29_76:                              # %for.body92.preheader.i
                                        #   in Loop: Header=BB29_67 Depth=1
	movslq	%r13d, %rdi
	incl	%r13d
	leaq	(%r15,%rdi,8), %rdi
	jmp	.LBB29_77
	.p2align	4, 0x90
.LBB29_81:                              # %for.inc115.i
                                        #   in Loop: Header=BB29_77 Depth=2
	leal	(%rsi,%r13), %r8d
	incl	%r8d
	movl	%r13d, %r9d
	incl	%r9d
	addq	$8, %rdi
	movl	%r9d, %r13d
	cmpl	$1, %r8d
	je	.LBB29_82
.LBB29_77:                              # %for.body92.i
                                        #   Parent Loop BB29_67 Depth=1
                                        # =>  This Inner Loop Header: Depth=2
	movq	(%rdi), %r8
	testb	$1, (%r8)
	je	.LBB29_81
# %bb.78:                               # %if.then98.i
                                        #   in Loop: Header=BB29_77 Depth=2
	movq	56(%r8), %r8
	cmpl	$0, 44(%r8)
	je	.LBB29_81
# %bb.79:                               # %is_short_ref.exit
                                        #   in Loop: Header=BB29_77 Depth=2
	cmpb	$0, 40(%r8)
	jne	.LBB29_81
# %bb.80:                               # %if.then104.i
                                        #   in Loop: Header=BB29_67 Depth=1
	movsbq	%cl, %rcx
	movq	%r8, (%rax,%rcx,8)
	movzbl	256(%rbx), %ecx
	incb	%cl
	movb	%cl, 256(%rbx)
	cmpl	%ebp, %r13d
	jge	.LBB29_84
	jmp	.LBB29_67
	.p2align	4, 0x90
.LBB29_82:                              #   in Loop: Header=BB29_67 Depth=1
	movl	%ebp, %r13d
	cmpl	%ebp, %r13d
	jge	.LBB29_84
	jmp	.LBB29_67
.LBB29_120:                             # %for.cond60.preheader.i1294.preheader
	movl	%ebp, %edx
	negl	%edx
	.p2align	4, 0x90
.LBB29_121:                             # %for.cond60.preheader.i1294
                                        # =>This Loop Header: Depth=1
                                        #     Child Loop BB29_123 Depth 2
                                        #     Child Loop BB29_131 Depth 2
	cmpl	%ebp, %ecx
	jl	.LBB29_122
# %bb.129:                              # %for.end88.i1298
                                        #   in Loop: Header=BB29_121 Depth=1
	cmpl	%ebp, %r13d
	jl	.LBB29_130
.LBB29_137:                             # %for.end117.i1301
                                        #   in Loop: Header=BB29_121 Depth=1
	cmpl	%ebp, %r13d
	jl	.LBB29_121
.LBB29_138:                             # %for.end117.i1301
                                        #   in Loop: Header=BB29_121 Depth=1
	cmpl	%ebp, %ecx
	jl	.LBB29_121
	jmp	.LBB29_139
	.p2align	4, 0x90
.LBB29_122:                             # %for.body63.preheader.i1326
                                        #   in Loop: Header=BB29_121 Depth=1
	movslq	%ecx, %rsi
	incl	%ecx
	leaq	(%r12,%rsi,8), %rsi
	jmp	.LBB29_123
	.p2align	4, 0x90
.LBB29_127:                             # %for.inc86.i1343
                                        #   in Loop: Header=BB29_123 Depth=2
	leal	(%rdx,%rcx), %edi
	incl	%edi
                                        # kill: def $ecx killed $ecx killed $rcx
	incl	%ecx
	addq	$8, %rsi
                                        # kill: def $ecx killed $ecx def $rcx
	cmpl	$1, %edi
	je	.LBB29_128
.LBB29_123:                             # %for.body63.i1327
                                        #   Parent Loop BB29_121 Depth=1
                                        # =>  This Inner Loop Header: Depth=2
	movq	(%rsi), %rdi
	testb	$2, (%rdi)
	je	.LBB29_127
# %bb.124:                              # %if.then69.i1332
                                        #   in Loop: Header=BB29_123 Depth=2
	movq	64(%rdi), %rdi
	cmpl	$0, 44(%rdi)
	je	.LBB29_127
# %bb.125:                              # %is_long_ref.exit1972
                                        #   in Loop: Header=BB29_123 Depth=2
	cmpb	$0, 40(%rdi)
	je	.LBB29_127
# %bb.126:                              # %if.then75.i1336
                                        #   in Loop: Header=BB29_121 Depth=1
	movsbq	256(%rbx), %rsi
	movq	%rdi, (%rax,%rsi,8)
	incb	256(%rbx)
	cmpl	%ebp, %r13d
	jge	.LBB29_137
	jmp	.LBB29_130
	.p2align	4, 0x90
.LBB29_128:                             #   in Loop: Header=BB29_121 Depth=1
	movl	%ebp, %ecx
	cmpl	%ebp, %r13d
	jge	.LBB29_137
.LBB29_130:                             # %for.body92.preheader.i1305
                                        #   in Loop: Header=BB29_121 Depth=1
	movslq	%r13d, %rsi
	incl	%r13d
	leaq	(%r12,%rsi,8), %rsi
	jmp	.LBB29_131
	.p2align	4, 0x90
.LBB29_135:                             # %for.inc115.i1322
                                        #   in Loop: Header=BB29_131 Depth=2
	leal	(%rdx,%r13), %edi
	incl	%edi
	movl	%r13d, %r8d
	incl	%r8d
	addq	$8, %rsi
	movl	%r8d, %r13d
	cmpl	$1, %edi
	je	.LBB29_136
.LBB29_131:                             # %for.body92.i1306
                                        #   Parent Loop BB29_121 Depth=1
                                        # =>  This Inner Loop Header: Depth=2
	movq	(%rsi), %rdi
	testb	$1, (%rdi)
	je	.LBB29_135
# %bb.132:                              # %if.then98.i1311
                                        #   in Loop: Header=BB29_131 Depth=2
	movq	56(%rdi), %rdi
	cmpl	$0, 44(%rdi)
	je	.LBB29_135
# %bb.133:                              # %is_long_ref.exit
                                        #   in Loop: Header=BB29_131 Depth=2
	cmpb	$0, 40(%rdi)
	je	.LBB29_135
# %bb.134:                              # %if.then104.i1315
                                        #   in Loop: Header=BB29_121 Depth=1
	movsbq	256(%rbx), %rsi
	movq	%rdi, (%rax,%rsi,8)
	incb	256(%rbx)
	cmpl	%ebp, %r13d
	jge	.LBB29_138
	jmp	.LBB29_121
	.p2align	4, 0x90
.LBB29_136:                             #   in Loop: Header=BB29_121 Depth=1
	movl	%ebp, %r13d
	cmpl	%ebp, %r13d
	jge	.LBB29_138
	jmp	.LBB29_121
.LBB29_192:
	xorl	%r13d, %r13d
.LBB29_199:                             # %for.end489
	movslq	%r13d, %rbp
	movl	$8, %edx
	movl	$compare_fs_by_poc_desc, %ecx
	movq	%r15, %rdi
	movq	%rbp, %rsi
	callq	qsort@PLT
	movq	8(%rsp), %r8                    # 8-byte Reload
	movl	48(%r14), %eax
	movl	%r13d, %r12d
	testq	%rax, %rax
	je	.LBB29_206
# %bb.200:                              # %for.body495.lr.ph
	movq	24(%r14), %rcx
	xorl	%edx, %edx
	movl	%r13d, %r12d
	jmp	.LBB29_201
	.p2align	4, 0x90
.LBB29_205:                             # %for.inc525
                                        #   in Loop: Header=BB29_201 Depth=1
	incq	%rdx
	cmpq	%rax, %rdx
	jae	.LBB29_206
.LBB29_201:                             # %for.body495
                                        # =>This Inner Loop Header: Depth=1
	movq	(%rcx,%rdx,8), %rsi
	cmpl	$0, (%rsi)
	je	.LBB29_205
# %bb.202:                              # %if.then501
                                        #   in Loop: Header=BB29_201 Depth=1
	movl	104(%rbx), %edi
	cmpl	40(%rsi), %edi
	jge	.LBB29_205
# %bb.203:                              # %land.lhs.true509
                                        #   in Loop: Header=BB29_201 Depth=1
	cmpl	%r8d, 72(%rsi)
	jne	.LBB29_205
# %bb.204:                              # %if.then516
                                        #   in Loop: Header=BB29_201 Depth=1
	movslq	%r12d, %rdi
	incl	%r12d
	movq	%rsi, (%r15,%rdi,8)
	jmp	.LBB29_205
.LBB29_206:                             # %for.end527
	leaq	(%r15,%rbp,8), %rdi
	movl	%r12d, %eax
	subl	%ebp, %eax
	movslq	%eax, %rsi
	movl	$8, %edx
	movl	$compare_fs_by_poc_asc, %ecx
	movq	%rdi, 64(%rsp)                  # 8-byte Spill
	movq	%rsi, 56(%rsp)                  # 8-byte Spill
	callq	qsort@PLT
	testl	%ebp, %ebp
	jle	.LBB29_214
# %bb.207:                              # %for.body535.preheader
	movl	%r13d, %eax
	cmpl	$7, %r13d
	ja	.LBB29_211
# %bb.208:
	xorl	%ecx, %ecx
	jmp	.LBB29_209
.LBB29_211:                             # %vector.ph
	movl	%eax, %ecx
	andl	$2147483640, %ecx               # imm = 0x7FFFFFF8
	movl	%eax, %edx
	shrl	$3, %edx
	andl	$268435455, %edx                # imm = 0xFFFFFFF
	shlq	$6, %rdx
	movslq	%r12d, %rsi
	shlq	$3, %rsi
	shlq	$3, %rbp
	subq	%rbp, %rsi
	movq	40(%rsp), %rdi                  # 8-byte Reload
	addq	%rdi, %rsi
	addq	$48, %rsi
	xorl	%edi, %edi
	.p2align	4, 0x90
.LBB29_212:                             # %vector.body
                                        # =>This Inner Loop Header: Depth=1
	movdqu	(%r15,%rdi), %xmm0
	movdqu	16(%r15,%rdi), %xmm1
	movdqu	32(%r15,%rdi), %xmm2
	movdqu	48(%r15,%rdi), %xmm3
	movdqu	%xmm0, -48(%rsi,%rdi)
	movdqu	%xmm1, -32(%rsi,%rdi)
	movdqu	%xmm2, -16(%rsi,%rdi)
	movdqu	%xmm3, (%rsi,%rdi)
	addq	$64, %rdi
	cmpq	%rdi, %rdx
	jne	.LBB29_212
# %bb.213:                              # %middle.block
	cmpl	%eax, %ecx
	je	.LBB29_214
.LBB29_209:                             # %for.body535.preheader2609
	movq	40(%rsp), %rdx                  # 8-byte Reload
	movq	56(%rsp), %rsi                  # 8-byte Reload
	leaq	(%rdx,%rsi,8), %rdx
	.p2align	4, 0x90
.LBB29_210:                             # %for.body535
                                        # =>This Inner Loop Header: Depth=1
	movq	(%r15,%rcx,8), %rsi
	movq	%rsi, (%rdx,%rcx,8)
	incq	%rcx
	cmpq	%rcx, %rax
	jne	.LBB29_210
.LBB29_214:                             # %for.cond545.preheader
	cmpl	%r13d, %r12d
	movq	40(%rsp), %rbp                  # 8-byte Reload
	jle	.LBB29_216
# %bb.215:                              # %for.body548.preheader
	notl	%r13d
	addl	%r12d, %r13d
	leaq	8(,%r13,8), %rdx
	movq	%rbp, %rdi
	movq	64(%rsp), %rsi                  # 8-byte Reload
	callq	memcpy@PLT
.LBB29_216:                             # %for.end556
	movw	$0, 256(%rbx)
	movl	184(%rbx), %edi
	movq	264(%rbx), %rax
	xorl	%ecx, %ecx
	movl	$0, %esi
	movl	$0, %edx
	cmpl	$1, %edi
	movq	24(%rsp), %r13                  # 8-byte Reload
	movq	8(%rsp), %r11                   # 8-byte Reload
	movq	32(%rsp), %r10                  # 8-byte Reload
	jne	.LBB29_236
# %bb.217:                              # %while.cond.preheader.i1464
	testl	%r12d, %r12d
	jle	.LBB29_258
# %bb.218:                              # %for.cond.preheader.i1466.preheader
	movl	%r12d, %r8d
	negl	%r8d
	xorl	%ecx, %ecx
	xorl	%edx, %edx
	xorl	%esi, %esi
	jmp	.LBB29_219
	.p2align	4, 0x90
.LBB29_234:                             #   in Loop: Header=BB29_219 Depth=1
	movl	%r12d, %edx
.LBB29_235:                             # %for.end47.i1473
                                        #   in Loop: Header=BB29_219 Depth=1
	cmpl	%r12d, %esi
	setl	%r9b
	cmpl	%r12d, %edx
	setl	%r10b
	orb	%r9b, %r10b
	movq	32(%rsp), %r10                  # 8-byte Reload
	je	.LBB29_236
.LBB29_219:                             # %for.cond.preheader.i1466
                                        # =>This Loop Header: Depth=1
                                        #     Child Loop BB29_221 Depth 2
                                        #     Child Loop BB29_229 Depth 2
	cmpl	%r12d, %esi
	jge	.LBB29_227
# %bb.220:                              # %for.body.preheader.i1498
                                        #   in Loop: Header=BB29_219 Depth=1
	movslq	%esi, %r9
	incl	%esi
	leaq	(%r15,%r9,8), %r9
	jmp	.LBB29_221
	.p2align	4, 0x90
.LBB29_225:                             # %for.inc.i1515
                                        #   in Loop: Header=BB29_221 Depth=2
	leal	(%r8,%rsi), %r10d
	incl	%r10d
                                        # kill: def $esi killed $esi killed $rsi
	incl	%esi
	addq	$8, %r9
                                        # kill: def $esi killed $esi def $rsi
	cmpl	$1, %r10d
	je	.LBB29_226
.LBB29_221:                             # %for.body.i1499
                                        #   Parent Loop BB29_219 Depth=1
                                        # =>  This Inner Loop Header: Depth=2
	movq	(%r9), %r10
	testb	$1, (%r10)
	je	.LBB29_225
# %bb.222:                              # %if.then6.i1504
                                        #   in Loop: Header=BB29_221 Depth=2
	movq	56(%r10), %r10
	cmpl	$0, 44(%r10)
	je	.LBB29_225
# %bb.223:                              # %is_short_ref.exit2014
                                        #   in Loop: Header=BB29_221 Depth=2
	cmpb	$0, 40(%r10)
	jne	.LBB29_225
# %bb.224:                              # %if.then10.i1508
                                        #   in Loop: Header=BB29_219 Depth=1
	movsbq	%cl, %rcx
	movq	%r10, (%rax,%rcx,8)
	movzbl	256(%rbx), %ecx
	incb	%cl
	movb	%cl, 256(%rbx)
	jmp	.LBB29_227
	.p2align	4, 0x90
.LBB29_226:                             #   in Loop: Header=BB29_219 Depth=1
	movl	%r12d, %esi
.LBB29_227:                             # %for.end.i1470
                                        #   in Loop: Header=BB29_219 Depth=1
	cmpl	%r12d, %edx
	jge	.LBB29_235
# %bb.228:                              # %for.body23.preheader.i1477
                                        #   in Loop: Header=BB29_219 Depth=1
	movslq	%edx, %r9
	incl	%edx
	leaq	(%r15,%r9,8), %r9
	jmp	.LBB29_229
	.p2align	4, 0x90
.LBB29_233:                             # %for.inc45.i1494
                                        #   in Loop: Header=BB29_229 Depth=2
	leal	(%r8,%rdx), %r10d
	incl	%r10d
                                        # kill: def $edx killed $edx killed $rdx
	incl	%edx
	addq	$8, %r9
                                        # kill: def $edx killed $edx def $rdx
	cmpl	$1, %r10d
	je	.LBB29_234
.LBB29_229:                             # %for.body23.i1478
                                        #   Parent Loop BB29_219 Depth=1
                                        # =>  This Inner Loop Header: Depth=2
	movq	(%r9), %r10
	testb	$2, (%r10)
	je	.LBB29_233
# %bb.230:                              # %if.then29.i1483
                                        #   in Loop: Header=BB29_229 Depth=2
	movq	64(%r10), %r10
	cmpl	$0, 44(%r10)
	je	.LBB29_233
# %bb.231:                              # %is_short_ref.exit2007
                                        #   in Loop: Header=BB29_229 Depth=2
	cmpb	$0, 40(%r10)
	jne	.LBB29_233
# %bb.232:                              # %if.then34.i1487
                                        #   in Loop: Header=BB29_219 Depth=1
	movsbq	%cl, %rcx
	movq	%r10, (%rax,%rcx,8)
	movzbl	256(%rbx), %ecx
	incb	%cl
	movb	%cl, 256(%rbx)
	jmp	.LBB29_235
.LBB29_236:                             # %if.end48.i1404
	cmpl	$2, %edi
	jne	.LBB29_258
# %bb.237:                              # %while.cond52.preheader.i1408
	cmpl	%r12d, %esi
	jl	.LBB29_239
# %bb.238:                              # %while.cond52.preheader.i1408
	cmpl	%r12d, %edx
	jl	.LBB29_239
.LBB29_258:                             # %gen_pic_list_from_frame_list.exit1519
	movl	184(%rbx), %esi
	movq	272(%rbx), %rax
	xorl	%edx, %edx
	movl	$0, %ecx
	cmpl	$1, %esi
	jne	.LBB29_278
# %bb.259:                              # %while.cond.preheader.i1581
	testl	%r12d, %r12d
	jle	.LBB29_300
# %bb.260:                              # %for.cond.preheader.i1583.preheader
	movl	%r12d, %edi
	negl	%edi
	xorl	%ecx, %ecx
	xorl	%edx, %edx
	jmp	.LBB29_261
	.p2align	4, 0x90
.LBB29_276:                             #   in Loop: Header=BB29_261 Depth=1
	movl	%r12d, %ecx
.LBB29_277:                             # %for.end47.i1590
                                        #   in Loop: Header=BB29_261 Depth=1
	cmpl	%r12d, %edx
	setl	%r8b
	cmpl	%r12d, %ecx
	setl	%r9b
	orb	%r8b, %r9b
	je	.LBB29_278
.LBB29_261:                             # %for.cond.preheader.i1583
                                        # =>This Loop Header: Depth=1
                                        #     Child Loop BB29_263 Depth 2
                                        #     Child Loop BB29_271 Depth 2
	cmpl	%r12d, %edx
	jge	.LBB29_269
# %bb.262:                              # %for.body.preheader.i1615
                                        #   in Loop: Header=BB29_261 Depth=1
	movslq	%edx, %r8
	incl	%edx
	leaq	(,%r8,8), %r8
	addq	%rbp, %r8
	jmp	.LBB29_263
	.p2align	4, 0x90
.LBB29_267:                             # %for.inc.i1632
                                        #   in Loop: Header=BB29_263 Depth=2
	leal	(%rdi,%rdx), %r9d
	incl	%r9d
                                        # kill: def $edx killed $edx killed $rdx
	incl	%edx
	addq	$8, %r8
                                        # kill: def $edx killed $edx def $rdx
	cmpl	$1, %r9d
	je	.LBB29_268
.LBB29_263:                             # %for.body.i1616
                                        #   Parent Loop BB29_261 Depth=1
                                        # =>  This Inner Loop Header: Depth=2
	movq	(%r8), %r9
	testb	$1, (%r9)
	je	.LBB29_267
# %bb.264:                              # %if.then6.i1621
                                        #   in Loop: Header=BB29_263 Depth=2
	movq	56(%r9), %r9
	cmpl	$0, 44(%r9)
	je	.LBB29_267
# %bb.265:                              # %is_short_ref.exit2042
                                        #   in Loop: Header=BB29_263 Depth=2
	cmpb	$0, 40(%r9)
	jne	.LBB29_267
# %bb.266:                              # %if.then10.i1625
                                        #   in Loop: Header=BB29_261 Depth=1
	movsbq	257(%rbx), %r8
	movq	%r9, (%rax,%r8,8)
	incb	257(%rbx)
	jmp	.LBB29_269
	.p2align	4, 0x90
.LBB29_268:                             #   in Loop: Header=BB29_261 Depth=1
	movl	%r12d, %edx
.LBB29_269:                             # %for.end.i1587
                                        #   in Loop: Header=BB29_261 Depth=1
	cmpl	%r12d, %ecx
	jge	.LBB29_277
# %bb.270:                              # %for.body23.preheader.i1594
                                        #   in Loop: Header=BB29_261 Depth=1
	movslq	%ecx, %r8
	incl	%ecx
	leaq	(,%r8,8), %r8
	addq	%rbp, %r8
	jmp	.LBB29_271
	.p2align	4, 0x90
.LBB29_275:                             # %for.inc45.i1611
                                        #   in Loop: Header=BB29_271 Depth=2
	leal	(%rdi,%rcx), %r9d
	incl	%r9d
                                        # kill: def $ecx killed $ecx killed $rcx
	incl	%ecx
	addq	$8, %r8
                                        # kill: def $ecx killed $ecx def $rcx
	cmpl	$1, %r9d
	je	.LBB29_276
.LBB29_271:                             # %for.body23.i1595
                                        #   Parent Loop BB29_261 Depth=1
                                        # =>  This Inner Loop Header: Depth=2
	movq	(%r8), %r9
	testb	$2, (%r9)
	je	.LBB29_275
# %bb.272:                              # %if.then29.i1600
                                        #   in Loop: Header=BB29_271 Depth=2
	movq	64(%r9), %r9
	cmpl	$0, 44(%r9)
	je	.LBB29_275
# %bb.273:                              # %is_short_ref.exit2035
                                        #   in Loop: Header=BB29_271 Depth=2
	cmpb	$0, 40(%r9)
	jne	.LBB29_275
# %bb.274:                              # %if.then34.i1604
                                        #   in Loop: Header=BB29_261 Depth=1
	movsbq	257(%rbx), %r8
	movq	%r9, (%rax,%r8,8)
	incb	257(%rbx)
	jmp	.LBB29_277
.LBB29_278:                             # %if.end48.i1521
	cmpl	$2, %esi
	jne	.LBB29_300
# %bb.279:                              # %while.cond52.preheader.i1525
	cmpl	%r12d, %edx
	jl	.LBB29_281
# %bb.280:                              # %while.cond52.preheader.i1525
	cmpl	%r12d, %ecx
	jl	.LBB29_281
.LBB29_300:                             # %gen_pic_list_from_frame_list.exit1636
	movl	52(%r14), %eax
	xorl	%r12d, %r12d
	movl	$0, %ebp
	testq	%rax, %rax
	je	.LBB29_312
# %bb.301:                              # %for.body575.lr.ph
	movq	32(%r14), %rcx
	cmpl	$1, %eax
	jne	.LBB29_303
# %bb.302:
	xorl	%edx, %edx
	xorl	%ebp, %ebp
.LBB29_309:                             # %for.end592.loopexit.unr-lcssa
	testb	$1, %al
	je	.LBB29_312
# %bb.310:                              # %for.body575.epil
	movq	(%rcx,%rdx,8), %rax
	cmpl	%r11d, 72(%rax)
	jne	.LBB29_312
# %bb.311:                              # %if.then582.epil
	movslq	%ebp, %rcx
	incl	%ebp
	movq	%rax, (%r10,%rcx,8)
.LBB29_312:                             # %for.end592
	movslq	%ebp, %rsi
	movl	$8, %edx
	movl	$compare_fs_by_lt_pic_idx_asc, %ecx
	movq	%r10, %rdi
	callq	qsort@PLT
	movq	32(%rsp), %r10                  # 8-byte Reload
	movl	184(%rbx), %edx
	movq	264(%rbx), %rax
	movl	$0, %ecx
	cmpl	$1, %edx
	jne	.LBB29_332
# %bb.313:                              # %while.cond.preheader.i1698
	testl	%ebp, %ebp
	jle	.LBB29_394
# %bb.314:                              # %for.cond.preheader.i1700.preheader
	movl	%ebp, %esi
	negl	%esi
	xorl	%ecx, %ecx
	xorl	%r12d, %r12d
	jmp	.LBB29_315
	.p2align	4, 0x90
.LBB29_330:                             #   in Loop: Header=BB29_315 Depth=1
	movl	%ebp, %ecx
.LBB29_331:                             # %for.end47.i1707
                                        #   in Loop: Header=BB29_315 Depth=1
	cmpl	%ebp, %r12d
	setl	%dil
	cmpl	%ebp, %ecx
	setl	%r8b
	orb	%dil, %r8b
	je	.LBB29_332
.LBB29_315:                             # %for.cond.preheader.i1700
                                        # =>This Loop Header: Depth=1
                                        #     Child Loop BB29_317 Depth 2
                                        #     Child Loop BB29_325 Depth 2
	cmpl	%ebp, %r12d
	jge	.LBB29_323
# %bb.316:                              # %for.body.preheader.i1732
                                        #   in Loop: Header=BB29_315 Depth=1
	movslq	%r12d, %rdi
	incl	%r12d
	leaq	(%r10,%rdi,8), %rdi
	jmp	.LBB29_317
	.p2align	4, 0x90
.LBB29_321:                             # %for.inc.i1749
                                        #   in Loop: Header=BB29_317 Depth=2
	leal	(%rsi,%r12), %r8d
	incl	%r8d
	movl	%r12d, %r9d
	incl	%r9d
	addq	$8, %rdi
	movl	%r9d, %r12d
	cmpl	$1, %r8d
	je	.LBB29_322
.LBB29_317:                             # %for.body.i1733
                                        #   Parent Loop BB29_315 Depth=1
                                        # =>  This Inner Loop Header: Depth=2
	movq	(%rdi), %r8
	testb	$1, (%r8)
	je	.LBB29_321
# %bb.318:                              # %if.then6.i1738
                                        #   in Loop: Header=BB29_317 Depth=2
	movq	56(%r8), %r8
	cmpl	$0, 44(%r8)
	je	.LBB29_321
# %bb.319:                              # %is_long_ref.exit2070
                                        #   in Loop: Header=BB29_317 Depth=2
	cmpb	$0, 40(%r8)
	je	.LBB29_321
# %bb.320:                              # %if.then10.i1742
                                        #   in Loop: Header=BB29_315 Depth=1
	movsbq	256(%rbx), %rdi
	movq	%r8, (%rax,%rdi,8)
	incb	256(%rbx)
	jmp	.LBB29_323
	.p2align	4, 0x90
.LBB29_322:                             #   in Loop: Header=BB29_315 Depth=1
	movl	%ebp, %r12d
.LBB29_323:                             # %for.end.i1704
                                        #   in Loop: Header=BB29_315 Depth=1
	cmpl	%ebp, %ecx
	jge	.LBB29_331
# %bb.324:                              # %for.body23.preheader.i1711
                                        #   in Loop: Header=BB29_315 Depth=1
	movslq	%ecx, %rdi
	incl	%ecx
	leaq	(%r10,%rdi,8), %rdi
	jmp	.LBB29_325
	.p2align	4, 0x90
.LBB29_329:                             # %for.inc45.i1728
                                        #   in Loop: Header=BB29_325 Depth=2
	leal	(%rsi,%rcx), %r8d
	incl	%r8d
                                        # kill: def $ecx killed $ecx killed $rcx
	incl	%ecx
	addq	$8, %rdi
                                        # kill: def $ecx killed $ecx def $rcx
	cmpl	$1, %r8d
	je	.LBB29_330
.LBB29_325:                             # %for.body23.i1712
                                        #   Parent Loop BB29_315 Depth=1
                                        # =>  This Inner Loop Header: Depth=2
	movq	(%rdi), %r8
	testb	$2, (%r8)
	je	.LBB29_329
# %bb.326:                              # %if.then29.i1717
                                        #   in Loop: Header=BB29_325 Depth=2
	movq	64(%r8), %r8
	cmpl	$0, 44(%r8)
	je	.LBB29_329
# %bb.327:                              # %is_long_ref.exit2063
                                        #   in Loop: Header=BB29_325 Depth=2
	cmpb	$0, 40(%r8)
	je	.LBB29_329
# %bb.328:                              # %if.then34.i1721
                                        #   in Loop: Header=BB29_315 Depth=1
	movsbq	256(%rbx), %rdi
	movq	%r8, (%rax,%rdi,8)
	incb	256(%rbx)
	jmp	.LBB29_331
.LBB29_332:                             # %if.end48.i1638
	cmpl	$2, %edx
	jne	.LBB29_354
# %bb.333:                              # %while.cond52.preheader.i1642
	cmpl	%ebp, %r12d
	jl	.LBB29_335
# %bb.334:                              # %while.cond52.preheader.i1642
	cmpl	%ebp, %ecx
	jl	.LBB29_335
.LBB29_354:                             # %gen_pic_list_from_frame_list.exit1753
	movl	184(%rbx), %ecx
	movq	272(%rbx), %rax
	cmpl	$2, %ecx
	je	.LBB29_375
# %bb.355:                              # %gen_pic_list_from_frame_list.exit1753
	cmpl	$1, %ecx
	jne	.LBB29_394
# %bb.356:                              # %while.cond.preheader.i1815
	testl	%ebp, %ebp
	jle	.LBB29_394
# %bb.357:                              # %for.cond.preheader.i1817.preheader
	movl	%ebp, %ecx
	negl	%ecx
	xorl	%edx, %edx
	xorl	%esi, %esi
	jmp	.LBB29_358
	.p2align	4, 0x90
.LBB29_373:                             #   in Loop: Header=BB29_358 Depth=1
	movl	%ebp, %edx
.LBB29_374:                             # %for.end47.i1824
                                        #   in Loop: Header=BB29_358 Depth=1
	cmpl	%ebp, %esi
	setl	%dil
	cmpl	%ebp, %edx
	setl	%r8b
	orb	%dil, %r8b
	je	.LBB29_394
.LBB29_358:                             # %for.cond.preheader.i1817
                                        # =>This Loop Header: Depth=1
                                        #     Child Loop BB29_360 Depth 2
                                        #     Child Loop BB29_368 Depth 2
	cmpl	%ebp, %esi
	jge	.LBB29_366
# %bb.359:                              # %for.body.preheader.i1849
                                        #   in Loop: Header=BB29_358 Depth=1
	movslq	%esi, %rdi
	incl	%esi
	leaq	(%r10,%rdi,8), %rdi
	jmp	.LBB29_360
	.p2align	4, 0x90
.LBB29_364:                             # %for.inc.i1866
                                        #   in Loop: Header=BB29_360 Depth=2
	leal	(%rcx,%rsi), %r8d
	incl	%r8d
                                        # kill: def $esi killed $esi killed $rsi
	incl	%esi
	addq	$8, %rdi
                                        # kill: def $esi killed $esi def $rsi
	cmpl	$1, %r8d
	je	.LBB29_365
.LBB29_360:                             # %for.body.i1850
                                        #   Parent Loop BB29_358 Depth=1
                                        # =>  This Inner Loop Header: Depth=2
	movq	(%rdi), %r8
	testb	$1, (%r8)
	je	.LBB29_364
# %bb.361:                              # %if.then6.i1855
                                        #   in Loop: Header=BB29_360 Depth=2
	movq	56(%r8), %r8
	cmpl	$0, 44(%r8)
	je	.LBB29_364
# %bb.362:                              # %is_long_ref.exit2098
                                        #   in Loop: Header=BB29_360 Depth=2
	cmpb	$0, 40(%r8)
	je	.LBB29_364
# %bb.363:                              # %if.then10.i1859
                                        #   in Loop: Header=BB29_358 Depth=1
	movsbq	257(%rbx), %rdi
	movq	%r8, (%rax,%rdi,8)
	incb	257(%rbx)
	jmp	.LBB29_366
	.p2align	4, 0x90
.LBB29_365:                             #   in Loop: Header=BB29_358 Depth=1
	movl	%ebp, %esi
.LBB29_366:                             # %for.end.i1821
                                        #   in Loop: Header=BB29_358 Depth=1
	cmpl	%ebp, %edx
	jge	.LBB29_374
# %bb.367:                              # %for.body23.preheader.i1828
                                        #   in Loop: Header=BB29_358 Depth=1
	movslq	%edx, %rdi
	incl	%edx
	leaq	(%r10,%rdi,8), %rdi
	jmp	.LBB29_368
	.p2align	4, 0x90
.LBB29_372:                             # %for.inc45.i1845
                                        #   in Loop: Header=BB29_368 Depth=2
	leal	(%rcx,%rdx), %r8d
	incl	%r8d
                                        # kill: def $edx killed $edx killed $rdx
	incl	%edx
	addq	$8, %rdi
                                        # kill: def $edx killed $edx def $rdx
	cmpl	$1, %r8d
	je	.LBB29_373
.LBB29_368:                             # %for.body23.i1829
                                        #   Parent Loop BB29_358 Depth=1
                                        # =>  This Inner Loop Header: Depth=2
	movq	(%rdi), %r8
	testb	$2, (%r8)
	je	.LBB29_372
# %bb.369:                              # %if.then29.i1834
                                        #   in Loop: Header=BB29_368 Depth=2
	movq	64(%r8), %r8
	cmpl	$0, 44(%r8)
	je	.LBB29_372
# %bb.370:                              # %is_long_ref.exit2091
                                        #   in Loop: Header=BB29_368 Depth=2
	cmpb	$0, 40(%r8)
	je	.LBB29_372
# %bb.371:                              # %if.then34.i1838
                                        #   in Loop: Header=BB29_358 Depth=1
	movsbq	257(%rbx), %rdi
	movq	%r8, (%rax,%rdi,8)
	incb	257(%rbx)
	jmp	.LBB29_374
.LBB29_303:                             # %for.body575.lr.ph.new
	movl	%eax, %esi
	andl	$-2, %esi
	xorl	%edx, %edx
	xorl	%ebp, %ebp
	jmp	.LBB29_304
	.p2align	4, 0x90
.LBB29_308:                             # %for.inc590.1
                                        #   in Loop: Header=BB29_304 Depth=1
	addq	$2, %rdx
	cmpq	%rdx, %rsi
	je	.LBB29_309
.LBB29_304:                             # %for.body575
                                        # =>This Inner Loop Header: Depth=1
	movq	(%rcx,%rdx,8), %rdi
	cmpl	%r11d, 72(%rdi)
	je	.LBB29_305
# %bb.306:                              # %for.inc590
                                        #   in Loop: Header=BB29_304 Depth=1
	movq	8(%rcx,%rdx,8), %rdi
	cmpl	%r11d, 72(%rdi)
	jne	.LBB29_308
	jmp	.LBB29_307
	.p2align	4, 0x90
.LBB29_305:                             # %if.then582
                                        #   in Loop: Header=BB29_304 Depth=1
	movslq	%ebp, %r8
	incl	%ebp
	movq	%rdi, (%r10,%r8,8)
	movq	8(%rcx,%rdx,8), %rdi
	cmpl	%r11d, 72(%rdi)
	jne	.LBB29_308
.LBB29_307:                             # %if.then582.1
                                        #   in Loop: Header=BB29_304 Depth=1
	movslq	%ebp, %r8
	incl	%ebp
	movq	%rdi, (%r10,%r8,8)
	jmp	.LBB29_308
.LBB29_375:                             # %while.cond52.preheader.i1759
	testl	%ebp, %ebp
	jle	.LBB29_394
# %bb.376:                              # %for.cond60.preheader.i1762.preheader
	movl	%ebp, %ecx
	negl	%ecx
	xorl	%edx, %edx
	xorl	%esi, %esi
	jmp	.LBB29_377
	.p2align	4, 0x90
.LBB29_392:                             #   in Loop: Header=BB29_377 Depth=1
	movl	%ebp, %esi
.LBB29_393:                             # %for.end117.i1769
                                        #   in Loop: Header=BB29_377 Depth=1
	cmpl	%ebp, %esi
	setl	%dil
	cmpl	%ebp, %edx
	setl	%r8b
	orb	%dil, %r8b
	je	.LBB29_394
.LBB29_377:                             # %for.cond60.preheader.i1762
                                        # =>This Loop Header: Depth=1
                                        #     Child Loop BB29_379 Depth 2
                                        #     Child Loop BB29_387 Depth 2
	cmpl	%ebp, %edx
	jge	.LBB29_385
# %bb.378:                              # %for.body63.preheader.i1794
                                        #   in Loop: Header=BB29_377 Depth=1
	movslq	%edx, %rdi
	incl	%edx
	leaq	(%r10,%rdi,8), %rdi
	jmp	.LBB29_379
	.p2align	4, 0x90
.LBB29_383:                             # %for.inc86.i1811
                                        #   in Loop: Header=BB29_379 Depth=2
	leal	(%rcx,%rdx), %r8d
	incl	%r8d
                                        # kill: def $edx killed $edx killed $rdx
	incl	%edx
	addq	$8, %rdi
                                        # kill: def $edx killed $edx def $rdx
	cmpl	$1, %r8d
	je	.LBB29_384
.LBB29_379:                             # %for.body63.i1795
                                        #   Parent Loop BB29_377 Depth=1
                                        # =>  This Inner Loop Header: Depth=2
	movq	(%rdi), %r8
	testb	$2, (%r8)
	je	.LBB29_383
# %bb.380:                              # %if.then69.i1800
                                        #   in Loop: Header=BB29_379 Depth=2
	movq	64(%r8), %r8
	cmpl	$0, 44(%r8)
	je	.LBB29_383
# %bb.381:                              # %is_long_ref.exit2084
                                        #   in Loop: Header=BB29_379 Depth=2
	cmpb	$0, 40(%r8)
	je	.LBB29_383
# %bb.382:                              # %if.then75.i1804
                                        #   in Loop: Header=BB29_377 Depth=1
	movsbq	257(%rbx), %rdi
	movq	%r8, (%rax,%rdi,8)
	incb	257(%rbx)
	jmp	.LBB29_385
	.p2align	4, 0x90
.LBB29_384:                             #   in Loop: Header=BB29_377 Depth=1
	movl	%ebp, %edx
.LBB29_385:                             # %for.end88.i1766
                                        #   in Loop: Header=BB29_377 Depth=1
	cmpl	%ebp, %esi
	jge	.LBB29_393
# %bb.386:                              # %for.body92.preheader.i1773
                                        #   in Loop: Header=BB29_377 Depth=1
	movslq	%esi, %rdi
	incl	%esi
	leaq	(%r10,%rdi,8), %rdi
	jmp	.LBB29_387
	.p2align	4, 0x90
.LBB29_391:                             # %for.inc115.i1790
                                        #   in Loop: Header=BB29_387 Depth=2
	leal	(%rcx,%rsi), %r8d
	incl	%r8d
                                        # kill: def $esi killed $esi killed $rsi
	incl	%esi
	addq	$8, %rdi
                                        # kill: def $esi killed $esi def $rsi
	cmpl	$1, %r8d
	je	.LBB29_392
.LBB29_387:                             # %for.body92.i1774
                                        #   Parent Loop BB29_377 Depth=1
                                        # =>  This Inner Loop Header: Depth=2
	movq	(%rdi), %r8
	testb	$1, (%r8)
	je	.LBB29_391
# %bb.388:                              # %if.then98.i1779
                                        #   in Loop: Header=BB29_387 Depth=2
	movq	56(%r8), %r8
	cmpl	$0, 44(%r8)
	je	.LBB29_391
# %bb.389:                              # %is_long_ref.exit2077
                                        #   in Loop: Header=BB29_387 Depth=2
	cmpb	$0, 40(%r8)
	je	.LBB29_391
# %bb.390:                              # %if.then104.i1783
                                        #   in Loop: Header=BB29_377 Depth=1
	movsbq	257(%rbx), %rdi
	movq	%r8, (%rax,%rdi,8)
	incb	257(%rbx)
	jmp	.LBB29_393
.LBB29_394:                             # %gen_pic_list_from_frame_list.exit1870
	movq	%r15, %rdi
	movq	%r10, %r15
	callq	free@PLT
	movq	40(%rsp), %rdi                  # 8-byte Reload
	callq	free@PLT
	movq	%r15, %rdi
	callq	free@PLT
	movzbl	257(%rbx), %ebp
	movzbl	256(%rbx), %eax
	cmpb	$2, %al
	jge	.LBB29_396
	jmp	.LBB29_406
.LBB29_143:
	xorl	%r12d, %r12d
.LBB29_152:                             # %for.end243
	movq	264(%rbx), %rdi
	movslq	%r12d, %r15
	movl	$8, %edx
	movl	$compare_pic_by_poc_desc, %ecx
	movq	%r15, %rsi
	callq	qsort@PLT
	movq	8(%rsp), %rdi                   # 8-byte Reload
	movl	48(%r14), %eax
	movl	%r12d, %ebp
	testl	%eax, %eax
	je	.LBB29_161
# %bb.153:                              # %for.body251.lr.ph
	xorl	%ecx, %ecx
	movl	%r12d, %ebp
	jmp	.LBB29_154
	.p2align	4, 0x90
.LBB29_160:                             # %for.inc302
                                        #   in Loop: Header=BB29_154 Depth=1
	incq	%rcx
	movl	%eax, %edx
	cmpq	%rdx, %rcx
	jae	.LBB29_161
.LBB29_154:                             # %for.body251
                                        # =>This Inner Loop Header: Depth=1
	movq	24(%r14), %rdx
	movq	(%rdx,%rcx,8), %rdx
	cmpl	$3, (%rdx)
	jne	.LBB29_160
# %bb.155:                              # %if.then258
                                        #   in Loop: Header=BB29_154 Depth=1
	movq	48(%rdx), %rdx
	cmpl	$0, 44(%rdx)
	je	.LBB29_160
# %bb.156:                              # %land.lhs.true265
                                        #   in Loop: Header=BB29_154 Depth=1
	cmpb	$0, 40(%rdx)
	jne	.LBB29_160
# %bb.157:                              # %land.lhs.true272
                                        #   in Loop: Header=BB29_154 Depth=1
	cmpl	%edi, 344(%rdx)
	jne	.LBB29_160
# %bb.158:                              # %if.then280
                                        #   in Loop: Header=BB29_154 Depth=1
	movl	76(%rbx), %esi
	cmpl	4(%rdx), %esi
	jge	.LBB29_160
# %bb.159:                              # %if.then289
                                        #   in Loop: Header=BB29_154 Depth=1
	movq	264(%rbx), %rax
	movslq	%ebp, %rsi
	incl	%ebp
	movq	%rdx, (%rax,%rsi,8)
	movl	48(%r14), %eax
	jmp	.LBB29_160
.LBB29_161:                             # %for.end304
	leaq	(,%r15,8), %r13
	movq	264(%rbx), %rdi
	addq	%r13, %rdi
	movl	%ebp, %eax
	subl	%r15d, %eax
	movslq	%eax, %rsi
	movl	$8, %edx
	movl	$compare_pic_by_poc_asc, %ecx
	callq	qsort@PLT
	testl	%r15d, %r15d
	jle	.LBB29_167
# %bb.162:                              # %for.body314.lr.ph
	movl	%r12d, %edx
	movl	%edx, %eax
	andl	$3, %eax
	cmpl	$4, %r12d
	jae	.LBB29_175
# %bb.163:
	xorl	%ecx, %ecx
	jmp	.LBB29_164
.LBB29_239:                             # %for.cond60.preheader.i1411.preheader
	movl	%r12d, %edi
	negl	%edi
	.p2align	4, 0x90
.LBB29_240:                             # %for.cond60.preheader.i1411
                                        # =>This Loop Header: Depth=1
                                        #     Child Loop BB29_242 Depth 2
                                        #     Child Loop BB29_250 Depth 2
	cmpl	%r12d, %edx
	jl	.LBB29_241
# %bb.248:                              # %for.end88.i1415
                                        #   in Loop: Header=BB29_240 Depth=1
	cmpl	%r12d, %esi
	jl	.LBB29_249
.LBB29_256:                             # %for.end117.i1418
                                        #   in Loop: Header=BB29_240 Depth=1
	cmpl	%r12d, %esi
	jl	.LBB29_240
.LBB29_257:                             # %for.end117.i1418
                                        #   in Loop: Header=BB29_240 Depth=1
	cmpl	%r12d, %edx
	jl	.LBB29_240
	jmp	.LBB29_258
	.p2align	4, 0x90
.LBB29_241:                             # %for.body63.preheader.i1443
                                        #   in Loop: Header=BB29_240 Depth=1
	movslq	%edx, %r8
	incl	%edx
	leaq	(%r15,%r8,8), %r8
	jmp	.LBB29_242
	.p2align	4, 0x90
.LBB29_246:                             # %for.inc86.i1460
                                        #   in Loop: Header=BB29_242 Depth=2
	leal	(%rdi,%rdx), %r9d
	incl	%r9d
                                        # kill: def $edx killed $edx killed $rdx
	incl	%edx
	addq	$8, %r8
                                        # kill: def $edx killed $edx def $rdx
	cmpl	$1, %r9d
	je	.LBB29_247
.LBB29_242:                             # %for.body63.i1444
                                        #   Parent Loop BB29_240 Depth=1
                                        # =>  This Inner Loop Header: Depth=2
	movq	(%r8), %r9
	testb	$2, (%r9)
	je	.LBB29_246
# %bb.243:                              # %if.then69.i1449
                                        #   in Loop: Header=BB29_242 Depth=2
	movq	64(%r9), %r9
	cmpl	$0, 44(%r9)
	je	.LBB29_246
# %bb.244:                              # %is_short_ref.exit2000
                                        #   in Loop: Header=BB29_242 Depth=2
	cmpb	$0, 40(%r9)
	jne	.LBB29_246
# %bb.245:                              # %if.then75.i1453
                                        #   in Loop: Header=BB29_240 Depth=1
	movsbq	%cl, %rcx
	movq	%r9, (%rax,%rcx,8)
	movzbl	256(%rbx), %ecx
	incb	%cl
	movb	%cl, 256(%rbx)
	cmpl	%r12d, %esi
	jge	.LBB29_256
	jmp	.LBB29_249
	.p2align	4, 0x90
.LBB29_247:                             #   in Loop: Header=BB29_240 Depth=1
	movl	%r12d, %edx
	cmpl	%r12d, %esi
	jge	.LBB29_256
.LBB29_249:                             # %for.body92.preheader.i1422
                                        #   in Loop: Header=BB29_240 Depth=1
	movslq	%esi, %r8
	incl	%esi
	leaq	(%r15,%r8,8), %r8
	jmp	.LBB29_250
	.p2align	4, 0x90
.LBB29_254:                             # %for.inc115.i1439
                                        #   in Loop: Header=BB29_250 Depth=2
	leal	(%rdi,%rsi), %r9d
	incl	%r9d
                                        # kill: def $esi killed $esi killed $rsi
	incl	%esi
	addq	$8, %r8
                                        # kill: def $esi killed $esi def $rsi
	cmpl	$1, %r9d
	je	.LBB29_255
.LBB29_250:                             # %for.body92.i1423
                                        #   Parent Loop BB29_240 Depth=1
                                        # =>  This Inner Loop Header: Depth=2
	movq	(%r8), %r9
	testb	$1, (%r9)
	je	.LBB29_254
# %bb.251:                              # %if.then98.i1428
                                        #   in Loop: Header=BB29_250 Depth=2
	movq	56(%r9), %r9
	cmpl	$0, 44(%r9)
	je	.LBB29_254
# %bb.252:                              # %is_short_ref.exit1993
                                        #   in Loop: Header=BB29_250 Depth=2
	cmpb	$0, 40(%r9)
	jne	.LBB29_254
# %bb.253:                              # %if.then104.i1432
                                        #   in Loop: Header=BB29_240 Depth=1
	movsbq	%cl, %rcx
	movq	%r9, (%rax,%rcx,8)
	movzbl	256(%rbx), %ecx
	incb	%cl
	movb	%cl, 256(%rbx)
	cmpl	%r12d, %esi
	jge	.LBB29_257
	jmp	.LBB29_240
	.p2align	4, 0x90
.LBB29_255:                             #   in Loop: Header=BB29_240 Depth=1
	movl	%r12d, %esi
	cmpl	%r12d, %esi
	jge	.LBB29_257
	jmp	.LBB29_240
.LBB29_281:                             # %for.cond60.preheader.i1528.preheader
	movl	%r12d, %esi
	negl	%esi
	.p2align	4, 0x90
.LBB29_282:                             # %for.cond60.preheader.i1528
                                        # =>This Loop Header: Depth=1
                                        #     Child Loop BB29_284 Depth 2
                                        #     Child Loop BB29_292 Depth 2
	cmpl	%r12d, %ecx
	jl	.LBB29_283
# %bb.290:                              # %for.end88.i1532
                                        #   in Loop: Header=BB29_282 Depth=1
	cmpl	%r12d, %edx
	jl	.LBB29_291
.LBB29_298:                             # %for.end117.i1535
                                        #   in Loop: Header=BB29_282 Depth=1
	cmpl	%r12d, %edx
	jl	.LBB29_282
.LBB29_299:                             # %for.end117.i1535
                                        #   in Loop: Header=BB29_282 Depth=1
	cmpl	%r12d, %ecx
	jl	.LBB29_282
	jmp	.LBB29_300
	.p2align	4, 0x90
.LBB29_283:                             # %for.body63.preheader.i1560
                                        #   in Loop: Header=BB29_282 Depth=1
	movslq	%ecx, %rdi
	incl	%ecx
	leaq	(,%rdi,8), %rdi
	addq	%rbp, %rdi
	jmp	.LBB29_284
	.p2align	4, 0x90
.LBB29_288:                             # %for.inc86.i1577
                                        #   in Loop: Header=BB29_284 Depth=2
	leal	(%rsi,%rcx), %r8d
	incl	%r8d
                                        # kill: def $ecx killed $ecx killed $rcx
	incl	%ecx
	addq	$8, %rdi
                                        # kill: def $ecx killed $ecx def $rcx
	cmpl	$1, %r8d
	je	.LBB29_289
.LBB29_284:                             # %for.body63.i1561
                                        #   Parent Loop BB29_282 Depth=1
                                        # =>  This Inner Loop Header: Depth=2
	movq	(%rdi), %r8
	testb	$2, (%r8)
	je	.LBB29_288
# %bb.285:                              # %if.then69.i1566
                                        #   in Loop: Header=BB29_284 Depth=2
	movq	64(%r8), %r8
	cmpl	$0, 44(%r8)
	je	.LBB29_288
# %bb.286:                              # %is_short_ref.exit2028
                                        #   in Loop: Header=BB29_284 Depth=2
	cmpb	$0, 40(%r8)
	jne	.LBB29_288
# %bb.287:                              # %if.then75.i1570
                                        #   in Loop: Header=BB29_282 Depth=1
	movsbq	257(%rbx), %rdi
	movq	%r8, (%rax,%rdi,8)
	incb	257(%rbx)
	cmpl	%r12d, %edx
	jge	.LBB29_298
	jmp	.LBB29_291
	.p2align	4, 0x90
.LBB29_289:                             #   in Loop: Header=BB29_282 Depth=1
	movl	%r12d, %ecx
	cmpl	%r12d, %edx
	jge	.LBB29_298
.LBB29_291:                             # %for.body92.preheader.i1539
                                        #   in Loop: Header=BB29_282 Depth=1
	movslq	%edx, %rdi
	incl	%edx
	leaq	(,%rdi,8), %rdi
	addq	%rbp, %rdi
	jmp	.LBB29_292
	.p2align	4, 0x90
.LBB29_296:                             # %for.inc115.i1556
                                        #   in Loop: Header=BB29_292 Depth=2
	leal	(%rsi,%rdx), %r8d
	incl	%r8d
                                        # kill: def $edx killed $edx killed $rdx
	incl	%edx
	addq	$8, %rdi
                                        # kill: def $edx killed $edx def $rdx
	cmpl	$1, %r8d
	je	.LBB29_297
.LBB29_292:                             # %for.body92.i1540
                                        #   Parent Loop BB29_282 Depth=1
                                        # =>  This Inner Loop Header: Depth=2
	movq	(%rdi), %r8
	testb	$1, (%r8)
	je	.LBB29_296
# %bb.293:                              # %if.then98.i1545
                                        #   in Loop: Header=BB29_292 Depth=2
	movq	56(%r8), %r8
	cmpl	$0, 44(%r8)
	je	.LBB29_296
# %bb.294:                              # %is_short_ref.exit2021
                                        #   in Loop: Header=BB29_292 Depth=2
	cmpb	$0, 40(%r8)
	jne	.LBB29_296
# %bb.295:                              # %if.then104.i1549
                                        #   in Loop: Header=BB29_282 Depth=1
	movsbq	257(%rbx), %rdi
	movq	%r8, (%rax,%rdi,8)
	incb	257(%rbx)
	cmpl	%r12d, %edx
	jge	.LBB29_299
	jmp	.LBB29_282
	.p2align	4, 0x90
.LBB29_297:                             #   in Loop: Header=BB29_282 Depth=1
	movl	%r12d, %edx
	cmpl	%r12d, %edx
	jge	.LBB29_299
	jmp	.LBB29_282
.LBB29_335:                             # %for.cond60.preheader.i1645.preheader
	movl	%ebp, %edx
	negl	%edx
	.p2align	4, 0x90
.LBB29_336:                             # %for.cond60.preheader.i1645
                                        # =>This Loop Header: Depth=1
                                        #     Child Loop BB29_338 Depth 2
                                        #     Child Loop BB29_346 Depth 2
	cmpl	%ebp, %ecx
	jl	.LBB29_337
# %bb.344:                              # %for.end88.i1649
                                        #   in Loop: Header=BB29_336 Depth=1
	cmpl	%ebp, %r12d
	jl	.LBB29_345
.LBB29_352:                             # %for.end117.i1652
                                        #   in Loop: Header=BB29_336 Depth=1
	cmpl	%ebp, %r12d
	jl	.LBB29_336
.LBB29_353:                             # %for.end117.i1652
                                        #   in Loop: Header=BB29_336 Depth=1
	cmpl	%ebp, %ecx
	jl	.LBB29_336
	jmp	.LBB29_354
	.p2align	4, 0x90
.LBB29_337:                             # %for.body63.preheader.i1677
                                        #   in Loop: Header=BB29_336 Depth=1
	movslq	%ecx, %rsi
	incl	%ecx
	leaq	(%r10,%rsi,8), %rsi
	jmp	.LBB29_338
	.p2align	4, 0x90
.LBB29_342:                             # %for.inc86.i1694
                                        #   in Loop: Header=BB29_338 Depth=2
	leal	(%rdx,%rcx), %edi
	incl	%edi
                                        # kill: def $ecx killed $ecx killed $rcx
	incl	%ecx
	addq	$8, %rsi
                                        # kill: def $ecx killed $ecx def $rcx
	cmpl	$1, %edi
	je	.LBB29_343
.LBB29_338:                             # %for.body63.i1678
                                        #   Parent Loop BB29_336 Depth=1
                                        # =>  This Inner Loop Header: Depth=2
	movq	(%rsi), %rdi
	testb	$2, (%rdi)
	je	.LBB29_342
# %bb.339:                              # %if.then69.i1683
                                        #   in Loop: Header=BB29_338 Depth=2
	movq	64(%rdi), %rdi
	cmpl	$0, 44(%rdi)
	je	.LBB29_342
# %bb.340:                              # %is_long_ref.exit2056
                                        #   in Loop: Header=BB29_338 Depth=2
	cmpb	$0, 40(%rdi)
	je	.LBB29_342
# %bb.341:                              # %if.then75.i1687
                                        #   in Loop: Header=BB29_336 Depth=1
	movsbq	256(%rbx), %rsi
	movq	%rdi, (%rax,%rsi,8)
	incb	256(%rbx)
	cmpl	%ebp, %r12d
	jge	.LBB29_352
	jmp	.LBB29_345
	.p2align	4, 0x90
.LBB29_343:                             #   in Loop: Header=BB29_336 Depth=1
	movl	%ebp, %ecx
	cmpl	%ebp, %r12d
	jge	.LBB29_352
.LBB29_345:                             # %for.body92.preheader.i1656
                                        #   in Loop: Header=BB29_336 Depth=1
	movslq	%r12d, %rsi
	incl	%r12d
	leaq	(%r10,%rsi,8), %rsi
	jmp	.LBB29_346
	.p2align	4, 0x90
.LBB29_350:                             # %for.inc115.i1673
                                        #   in Loop: Header=BB29_346 Depth=2
	leal	(%rdx,%r12), %edi
	incl	%edi
	movl	%r12d, %r8d
	incl	%r8d
	addq	$8, %rsi
	movl	%r8d, %r12d
	cmpl	$1, %edi
	je	.LBB29_351
.LBB29_346:                             # %for.body92.i1657
                                        #   Parent Loop BB29_336 Depth=1
                                        # =>  This Inner Loop Header: Depth=2
	movq	(%rsi), %rdi
	testb	$1, (%rdi)
	je	.LBB29_350
# %bb.347:                              # %if.then98.i1662
                                        #   in Loop: Header=BB29_346 Depth=2
	movq	56(%rdi), %rdi
	cmpl	$0, 44(%rdi)
	je	.LBB29_350
# %bb.348:                              # %is_long_ref.exit2049
                                        #   in Loop: Header=BB29_346 Depth=2
	cmpb	$0, 40(%rdi)
	je	.LBB29_350
# %bb.349:                              # %if.then104.i1666
                                        #   in Loop: Header=BB29_336 Depth=1
	movsbq	256(%rbx), %rsi
	movq	%rdi, (%rax,%rsi,8)
	incb	256(%rbx)
	cmpl	%ebp, %r12d
	jge	.LBB29_353
	jmp	.LBB29_336
	.p2align	4, 0x90
.LBB29_351:                             #   in Loop: Header=BB29_336 Depth=1
	movl	%ebp, %r12d
	cmpl	%ebp, %r12d
	jge	.LBB29_353
	jmp	.LBB29_336
.LBB29_175:                             # %for.body314.lr.ph.new
	andl	$2147483644, %edx               # imm = 0x7FFFFFFC
	movslq	%ebp, %rsi
	shlq	$3, %rsi
	subq	%r13, %rsi
	xorl	%ecx, %ecx
	.p2align	4, 0x90
.LBB29_176:                             # %for.body314
                                        # =>This Inner Loop Header: Depth=1
	movq	264(%rbx), %rdi
	movq	(%rdi,%rcx,8), %rdi
	movq	272(%rbx), %r8
	addq	%rsi, %r8
	movq	%rdi, (%r8,%rcx,8)
	movq	264(%rbx), %rdi
	movq	8(%rdi,%rcx,8), %rdi
	movq	272(%rbx), %r8
	addq	%rsi, %r8
	movq	%rdi, 8(%r8,%rcx,8)
	movq	264(%rbx), %rdi
	movq	16(%rdi,%rcx,8), %rdi
	movq	272(%rbx), %r8
	addq	%rsi, %r8
	movq	%rdi, 16(%r8,%rcx,8)
	movq	264(%rbx), %rdi
	movq	24(%rdi,%rcx,8), %rdi
	movq	272(%rbx), %r8
	addq	%rsi, %r8
	movq	%rdi, 24(%r8,%rcx,8)
	addq	$4, %rcx
	cmpq	%rcx, %rdx
	jne	.LBB29_176
.LBB29_164:                             # %for.cond327.preheader.loopexit.unr-lcssa
	testq	%rax, %rax
	je	.LBB29_167
# %bb.165:                              # %for.body314.epil.preheader
	movslq	%ebp, %rdx
	shlq	$3, %rdx
	subq	%r13, %rdx
	.p2align	4, 0x90
.LBB29_166:                             # %for.body314.epil
                                        # =>This Inner Loop Header: Depth=1
	movq	264(%rbx), %rsi
	movq	(%rsi,%rcx,8), %rsi
	movq	272(%rbx), %rdi
	addq	%rdx, %rdi
	movq	%rsi, (%rdi,%rcx,8)
	incq	%rcx
	decq	%rax
	jne	.LBB29_166
.LBB29_167:                             # %for.cond327.preheader
	movl	%ebp, %edx
	subl	%r12d, %edx
	movq	8(%rsp), %rdi                   # 8-byte Reload
	jle	.LBB29_173
# %bb.168:                              # %for.body330.lr.ph
	movslq	%ebp, %rax
	movq	%r15, %rcx
	testb	$1, %dl
	je	.LBB29_170
# %bb.169:                              # %for.body330.prol
	movq	264(%rbx), %rcx
	movq	272(%rbx), %rdx
	movq	(%rcx,%r15,8), %rcx
	movq	%rcx, (%rdx)
	leaq	1(%r15), %rcx
.LBB29_170:                             # %for.body330.prol.loopexit
	leaq	-1(%rax), %rdx
	cmpq	%r15, %rdx
	je	.LBB29_173
# %bb.171:                              # %for.body330.preheader
	negq	%r13
	.p2align	4, 0x90
.LBB29_172:                             # %for.body330
                                        # =>This Inner Loop Header: Depth=1
	movq	264(%rbx), %rdx
	movq	(%rdx,%rcx,8), %rdx
	movq	272(%rbx), %rsi
	addq	%r13, %rsi
	movq	%rdx, (%rsi,%rcx,8)
	movq	264(%rbx), %rdx
	movq	8(%rdx,%rcx,8), %rdx
	movq	272(%rbx), %rsi
	addq	%r13, %rsi
	movq	%rdx, 8(%rsi,%rcx,8)
	addq	$2, %rcx
	cmpq	%rcx, %rax
	jne	.LBB29_172
.LBB29_173:                             # %for.end342
	movb	%bpl, 257(%rbx)
	movb	%bpl, 256(%rbx)
	movl	52(%r14), %ecx
	testl	%ecx, %ecx
	je	.LBB29_174
# %bb.177:                              # %for.body352.lr.ph
	xorl	%eax, %eax
	movq	24(%rsp), %r13                  # 8-byte Reload
	jmp	.LBB29_178
	.p2align	4, 0x90
.LBB29_182:                             # %for.inc395
                                        #   in Loop: Header=BB29_178 Depth=1
	incq	%rax
	movl	%ecx, %edx
	cmpq	%rdx, %rax
	jae	.LBB29_183
.LBB29_178:                             # %for.body352
                                        # =>This Inner Loop Header: Depth=1
	movq	32(%r14), %rdx
	movq	(%rdx,%rax,8), %rdx
	cmpl	$3, (%rdx)
	jne	.LBB29_182
# %bb.179:                              # %if.then359
                                        #   in Loop: Header=BB29_178 Depth=1
	movq	48(%rdx), %rdx
	cmpb	$0, 40(%rdx)
	je	.LBB29_182
# %bb.180:                              # %land.lhs.true367
                                        #   in Loop: Header=BB29_178 Depth=1
	cmpl	%edi, 344(%rdx)
	jne	.LBB29_182
# %bb.181:                              # %if.then375
                                        #   in Loop: Header=BB29_178 Depth=1
	movq	264(%rbx), %rcx
	movslq	%ebp, %rsi
	movq	%rdx, (%rcx,%rsi,8)
	movq	32(%r14), %rcx
	movq	(%rcx,%rax,8), %rcx
	movq	48(%rcx), %rcx
	movq	272(%rbx), %rdx
	leal	1(%rsi), %ebp
	movq	%rcx, (%rdx,%rsi,8)
	movl	52(%r14), %ecx
	jmp	.LBB29_182
.LBB29_183:                             # %for.end397.loopexit
	movzbl	256(%rbx), %eax
	jmp	.LBB29_184
.LBB29_174:
	movl	%ebp, %eax
	movq	24(%rsp), %r13                  # 8-byte Reload
.LBB29_184:                             # %for.end397
	movsbq	%al, %rax
	leaq	(,%rax,8), %rdi
	addq	264(%rbx), %rdi
	movsbl	%al, %eax
	movl	%ebp, %ecx
	subl	%eax, %ecx
	movslq	%ecx, %rsi
	movl	$8, %edx
	movl	$compare_pic_by_lt_pic_num_asc, %ecx
	callq	qsort@PLT
	movsbq	256(%rbx), %rax
	leaq	(,%rax,8), %rdi
	addq	272(%rbx), %rdi
	movslq	%ebp, %rsi
	subq	%rax, %rsi
	movl	$8, %edx
	movl	$compare_pic_by_lt_pic_num_asc, %ecx
	callq	qsort@PLT
	movb	%bpl, 257(%rbx)
	movb	%bpl, 256(%rbx)
	movzbl	256(%rbx), %eax
	cmpb	$2, %al
	jl	.LBB29_406
.LBB29_396:                             # %if.end605
	cmpb	%bpl, %al
	jne	.LBB29_406
# %bb.397:                              # %for.cond621.preheader
	movq	264(%rbx), %rcx
	movq	272(%rbx), %rax
	movzbl	%bpl, %edx
	cmpb	$8, %bpl
	jae	.LBB29_399
# %bb.398:
	xorl	%esi, %esi
	xorl	%edi, %edi
	jmp	.LBB29_402
.LBB29_399:                             # %vector.ph2546
	movl	%edx, %esi
	andl	$-8, %esi
	leal	(,%rdx,8), %edi
	andl	$-64, %edi
	pxor	%xmm0, %xmm0
	xorl	%r8d, %r8d
	pcmpeqd	%xmm4, %xmm4
	pxor	%xmm3, %xmm3
	pxor	%xmm2, %xmm2
	pxor	%xmm1, %xmm1
	.p2align	4, 0x90
.LBB29_400:                             # %vector.body2550
                                        # =>This Inner Loop Header: Depth=1
	movdqu	(%rcx,%r8), %xmm5
	movdqu	16(%rcx,%r8), %xmm6
	movdqu	32(%rcx,%r8), %xmm7
	movdqu	48(%rcx,%r8), %xmm8
	movdqu	(%rax,%r8), %xmm9
	pcmpeqd	%xmm5, %xmm9
	movdqu	16(%rax,%r8), %xmm5
	pcmpeqd	%xmm6, %xmm5
	movdqu	32(%rax,%r8), %xmm6
	pcmpeqd	%xmm7, %xmm6
	movdqu	48(%rax,%r8), %xmm7
	pcmpeqd	%xmm8, %xmm7
	pshufd	$177, %xmm9, %xmm8              # xmm8 = xmm9[1,0,3,2]
	pand	%xmm9, %xmm8
	pxor	%xmm4, %xmm8
	por	%xmm8, %xmm0
	pshufd	$177, %xmm5, %xmm8              # xmm8 = xmm5[1,0,3,2]
	pand	%xmm5, %xmm8
	pxor	%xmm4, %xmm8
	por	%xmm8, %xmm3
	pshufd	$177, %xmm6, %xmm5              # xmm5 = xmm6[1,0,3,2]
	pand	%xmm6, %xmm5
	pxor	%xmm4, %xmm5
	por	%xmm5, %xmm2
	pshufd	$177, %xmm7, %xmm5              # xmm5 = xmm7[1,0,3,2]
	pand	%xmm7, %xmm5
	pxor	%xmm4, %xmm5
	por	%xmm5, %xmm1
	addq	$64, %r8
	cmpq	%r8, %rdi
	jne	.LBB29_400
# %bb.401:                              # %middle.block2543
	por	%xmm0, %xmm3
	por	%xmm3, %xmm2
	por	%xmm2, %xmm1
	psllq	$63, %xmm1
	movmskpd	%xmm1, %r8d
	xorl	%edi, %edi
	testl	%r8d, %r8d
	setne	%dil
	cmpl	%edx, %esi
	je	.LBB29_404
.LBB29_402:                             # %for.body627.preheader
	movl	$1, %r8d
	.p2align	4, 0x90
.LBB29_403:                             # %for.body627
                                        # =>This Inner Loop Header: Depth=1
	movq	(%rcx,%rsi,8), %r9
	cmpq	(%rax,%rsi,8), %r9
	cmovnel	%r8d, %edi
	incq	%rsi
	cmpq	%rsi, %rdx
	jne	.LBB29_403
.LBB29_404:                             # %for.end642
	testl	%edi, %edi
	je	.LBB29_405
.LBB29_406:                             # %if.end658
	cmpl	$0, 32(%rbx)
	je	.LBB29_407
.LBB29_417:                             # %if.end814
	movsbl	256(%rbx), %ecx
	movl	136(%rbx), %edx
	movl	140(%rbx), %eax
	cmpl	%edx, %ecx
	cmovll	%ecx, %edx
	movb	%dl, 256(%rbx)
	movsbl	257(%rbx), %ecx
	cmpl	%eax, %ecx
	cmovll	%ecx, %eax
	movb	%al, 257(%rbx)
	movsbl	%dl, %ecx
	cmpl	$32, %ecx
	ja	.LBB29_421
# %bb.418:                              # %for.body838.lr.ph
	movl	%ecx, %eax
	movq	856488(%r13), %rcx
	incq	%rax
	movq	%rax, %rdx
	.p2align	4, 0x90
.LBB29_419:                             # %for.body838
                                        # =>This Inner Loop Header: Depth=1
	movq	264(%rbx), %rsi
	movq	%rcx, -8(%rsi,%rax,8)
	incq	%rdx
	cmpl	$33, %eax
	movq	%rdx, %rax
	jne	.LBB29_419
# %bb.420:                              # %for.end845.loopexit
	movzbl	257(%rbx), %eax
.LBB29_421:                             # %for.end845
	cmpb	$32, %al
	ja	.LBB29_3
# %bb.422:                              # %for.body852.lr.ph
	movzbl	%al, %eax
	movq	856488(%r13), %rcx
	incq	%rax
	movq	%rax, %rdx
	.p2align	4, 0x90
.LBB29_423:                             # %for.body852
                                        # =>This Inner Loop Header: Depth=1
	movq	272(%rbx), %rsi
	movq	%rcx, -8(%rsi,%rax,8)
	incq	%rdx
	cmpl	$33, %eax
	movq	%rdx, %rax
	jne	.LBB29_423
.LBB29_3:                               # %cleanup
	addq	$72, %rsp
	.cfi_def_cfa_offset 56
	popq	%rbx
	.cfi_def_cfa_offset 48
	popq	%r12
	.cfi_def_cfa_offset 40
	popq	%r13
	.cfi_def_cfa_offset 32
	popq	%r14
	.cfi_def_cfa_offset 24
	popq	%r15
	.cfi_def_cfa_offset 16
	popq	%rbp
	.cfi_def_cfa_offset 8
	retq
.LBB29_405:                             # %if.then644
	.cfi_def_cfa_offset 128
	movq	(%rax), %rcx
	movq	8(%rax), %rdx
	movq	%rdx, (%rax)
	movq	272(%rbx), %rax
	movq	%rcx, 8(%rax)
	cmpl	$0, 32(%rbx)
	jne	.LBB29_417
.LBB29_407:                             # %if.then661
	leaq	13308(%rbx), %r12
	movl	164(%rbx), %eax
	cmpl	$3, %eax
	je	.LBB29_409
# %bb.408:                              # %if.then661
	testl	%eax, %eax
	jne	.LBB29_441
.LBB29_409:                             # %if.then669
	movl	40(%r14), %edi
	movl	$8, %esi
	callq	calloc@PLT
	movq	%rax, 13320(%rbx)
	testq	%rax, %rax
	movq	48(%rsp), %rbp                  # 8-byte Reload
	je	.LBB29_410
# %bb.411:                              # %if.end677
	movl	184(%rbx), %esi
	testl	%esi, %esi
	je	.LBB29_412
.LBB29_424:                             # %if.else707
	movq	13320(%rbx), %rcx
	movq	%r14, %rdi
	xorl	%edx, %edx
	movq	%r12, %r8
	movl	20(%rsp), %r9d                  # 4-byte Reload
	pushq	%rbp
	.cfi_adjust_cfa_offset 8
	pushq	16(%rsp)                        # 8-byte Folded Reload
	.cfi_adjust_cfa_offset 8
	callq	append_interview_list
	addq	$16, %rsp
	.cfi_adjust_cfa_offset -16
	movl	184(%rbx), %esi
	movq	13320(%rbx), %rcx
	movl	13308(%rbx), %edx
	movq	264(%rbx), %rax
	cmpl	$2, %esi
	je	.LBB29_433
# %bb.425:                              # %if.else707
	cmpl	$1, %esi
	jne	.LBB29_417
# %bb.426:                              # %for.cond.preheader.i1875
	testl	%edx, %edx
	jle	.LBB29_417
# %bb.427:                              # %for.body.preheader.i1876
	movzbl	256(%rbx), %esi
	cmpl	$1, %edx
	jne	.LBB29_429
# %bb.428:
	xorl	%edi, %edi
	jmp	.LBB29_431
.LBB29_441:                             # %if.else719
	movl	40(%r14), %edi
	movl	$8, %esi
	callq	calloc@PLT
	movq	%rax, 13320(%rbx)
	testq	%rax, %rax
	movq	48(%rsp), %rbp                  # 8-byte Reload
	jne	.LBB29_443
