	.text
	.file	"memalloc.c"
	.file	0 "/home/yjs/workspace/x264-test/src" "ldecod_src/memalloc.c" md5 0xdf14b31cd5090eadf61836081abf4127
	.file	1 "ldecod_src/inc" "types.h" md5 0x64f87bd13f2911471c7313b4ac17e90c
	.file	2 "ldecod_src/inc" "typedefs.h" md5 0xe1393d024b72e653f4e6dbeffdb0b154
	.file	3 "ldecod_src/inc" "distortion.h" md5 0x4a0bacf595bd1a578672eab86a0cc72b
	.file	4 "/usr/include/x86_64-linux-gnu/bits" "types.h" md5 0xd108b5f93a74c50510d7d9bc0ab36df9
	.file	5 "/usr/include/x86_64-linux-gnu/bits" "stdint-intn.h" md5 0x55bcbdc3159515ebd91d351a70d505f4
	.file	6 "ldecod_src/inc" "win32.h" md5 0x100def0ffeee72ecdc377183538a04bb
	.file	7 "ldecod_src/inc" "lagrangian.h" md5 0x8b7bf04cfb074afff52461c462d803e1
	.file	8 "ldecod_src/inc" "mbuffer.h" md5 0x1ba7faf5f978b0f36a8f480bbf7b3401
	.file	9 "ldecod_src/inc" "global.h" md5 0xc4ca3c417c5616a2ff6b6266e7376fc1
	.file	10 "ldecod_src/inc" "quant_params.h" md5 0xe63d1c6a2fb27627d8643dee4eda38e3
	.globl	init_top_bot_planes             # -- Begin function init_top_bot_planes
	.p2align	4, 0x90
	.type	init_top_bot_planes,@function
init_top_bot_planes:                    # @init_top_bot_planes
.Lfunc_begin0:
	.loc	0 30 0                          # ldecod_src/memalloc.c:30:0
	.cfi_startproc
# %bb.0:                                # %entry
	#DEBUG_VALUE: init_top_bot_planes:imgFrame <- $rdi
	#DEBUG_VALUE: init_top_bot_planes:dim0 <- $esi
	#DEBUG_VALUE: init_top_bot_planes:imgTopField <- $rdx
	#DEBUG_VALUE: init_top_bot_planes:imgBotField <- $rcx
	pushq	%rbp
	.cfi_def_cfa_offset 16
	pushq	%r15
	.cfi_def_cfa_offset 24
	pushq	%r14
	.cfi_def_cfa_offset 32
	pushq	%r13
	.cfi_def_cfa_offset 40
	pushq	%r12
	.cfi_def_cfa_offset 48
	pushq	%rbx
	.cfi_def_cfa_offset 56
	pushq	%rax
	.cfi_def_cfa_offset 64
	.cfi_offset %rbx, -56
	.cfi_offset %r12, -48
	.cfi_offset %r13, -40
	.cfi_offset %r14, -32
	.cfi_offset %r15, -24
	.cfi_offset %rbp, -16
	movq	%rcx, %r14
	movq	%rdx, %r12
	movl	%esi, %r15d
	movq	%rdi, %rbp
.Ltmp0:
	.loc	0 33 47 prologue_end            # ldecod_src/memalloc.c:33:47
	movl	%esi, %ebx
	sarl	%ebx
	.loc	0 33 42 is_stmt 0               # ldecod_src/memalloc.c:33:42
	movslq	%ebx, %r13
	.loc	0 33 52                         # ldecod_src/memalloc.c:33:52
	shlq	$3, %r13
	.loc	0 33 35                         # ldecod_src/memalloc.c:33:35
	movq	%r13, %rdi
.Ltmp1:
	#DEBUG_VALUE: init_top_bot_planes:imgFrame <- $rbp
	callq	malloc@PLT
.Ltmp2:
	#DEBUG_VALUE: init_top_bot_planes:imgBotField <- $r14
	#DEBUG_VALUE: init_top_bot_planes:imgTopField <- $r12
	#DEBUG_VALUE: init_top_bot_planes:dim0 <- $r15d
	.loc	0 33 22                         # ldecod_src/memalloc.c:33:22
	movq	%rax, (%r12)
	.loc	0 33 72                         # ldecod_src/memalloc.c:33:72
	testq	%rax, %rax
.Ltmp3:
	.loc	0 33 6                          # ldecod_src/memalloc.c:33:6
	jne	.LBB0_2
.Ltmp4:
# %bb.1:                                # %if.then
	#DEBUG_VALUE: init_top_bot_planes:imgFrame <- $rbp
	#DEBUG_VALUE: init_top_bot_planes:dim0 <- $r15d
	#DEBUG_VALUE: init_top_bot_planes:imgTopField <- $r12
	#DEBUG_VALUE: init_top_bot_planes:imgBotField <- $r14
	.loc	0 1833 4 is_stmt 1              # ldecod_src/memalloc.c:1833:4
	movq	errortext@GOTPCREL(%rip), %rdi
.Ltmp5:
	#DEBUG_VALUE: no_mem_exit:where <- undef
	movl	$300, %esi                      # imm = 0x12C
	movl	$.L.str.81, %edx
	movl	$.L.str, %ecx
	xorl	%eax, %eax
	callq	snprintf@PLT
.Ltmp6:
	.loc	0 1834 4                        # ldecod_src/memalloc.c:1834:4
	movq	errortext@GOTPCREL(%rip), %rdi
	movl	$100, %esi
	callq	error@PLT
.Ltmp7:
.LBB0_2:                                # %if.end
	#DEBUG_VALUE: init_top_bot_planes:imgFrame <- $rbp
	#DEBUG_VALUE: init_top_bot_planes:dim0 <- $r15d
	#DEBUG_VALUE: init_top_bot_planes:imgTopField <- $r12
	#DEBUG_VALUE: init_top_bot_planes:imgBotField <- $r14
	.loc	0 36 35                         # ldecod_src/memalloc.c:36:35
	movq	%r13, %rdi
	callq	malloc@PLT
.Ltmp8:
	.loc	0 36 22 is_stmt 0               # ldecod_src/memalloc.c:36:22
	movq	%rax, (%r14)
	.loc	0 36 72                         # ldecod_src/memalloc.c:36:72
	testq	%rax, %rax
.Ltmp9:
	.loc	0 36 6                          # ldecod_src/memalloc.c:36:6
	jne	.LBB0_4
.Ltmp10:
# %bb.3:                                # %if.then8
	#DEBUG_VALUE: init_top_bot_planes:imgFrame <- $rbp
	#DEBUG_VALUE: init_top_bot_planes:dim0 <- $r15d
	#DEBUG_VALUE: init_top_bot_planes:imgTopField <- $r12
	#DEBUG_VALUE: init_top_bot_planes:imgBotField <- $r14
	.loc	0 1833 4 is_stmt 1              # ldecod_src/memalloc.c:1833:4
	movq	errortext@GOTPCREL(%rip), %r13
.Ltmp11:
	#DEBUG_VALUE: no_mem_exit:where <- undef
	movl	$300, %esi                      # imm = 0x12C
	movl	$.L.str.81, %edx
	movl	$.L.str.1, %ecx
	movq	%r13, %rdi
	xorl	%eax, %eax
	callq	snprintf@PLT
.Ltmp12:
	.loc	0 1834 4                        # ldecod_src/memalloc.c:1834:4
	movq	%r13, %rdi
	movl	$100, %esi
	callq	error@PLT
.Ltmp13:
.LBB0_4:                                # %if.end9
	#DEBUG_VALUE: init_top_bot_planes:imgFrame <- $rbp
	#DEBUG_VALUE: init_top_bot_planes:dim0 <- $r15d
	#DEBUG_VALUE: init_top_bot_planes:imgTopField <- $r12
	#DEBUG_VALUE: init_top_bot_planes:imgBotField <- $r14
	#DEBUG_VALUE: init_top_bot_planes:i <- 0
	.loc	0 39 16                         # ldecod_src/memalloc.c:39:16
	testl	%ebx, %ebx
.Ltmp14:
	.loc	0 39 3 is_stmt 0                # ldecod_src/memalloc.c:39:3
	jle	.LBB0_11
.Ltmp15:
# %bb.5:                                # %for.body.preheader
	#DEBUG_VALUE: init_top_bot_planes:imgFrame <- $rbp
	#DEBUG_VALUE: init_top_bot_planes:dim0 <- $r15d
	#DEBUG_VALUE: init_top_bot_planes:imgTopField <- $r12
	#DEBUG_VALUE: init_top_bot_planes:imgBotField <- $r14
	#DEBUG_VALUE: init_top_bot_planes:i <- 0
	.loc	0 39 16                         # ldecod_src/memalloc.c:39:16
	movl	%ebx, %eax
.Ltmp16:
	.loc	0 39 3                          # ldecod_src/memalloc.c:39:3
	cmpl	$1, %ebx
	jne	.LBB0_7
.Ltmp17:
# %bb.6:
	#DEBUG_VALUE: init_top_bot_planes:imgFrame <- $rbp
	#DEBUG_VALUE: init_top_bot_planes:dim0 <- $r15d
	#DEBUG_VALUE: init_top_bot_planes:imgTopField <- $r12
	#DEBUG_VALUE: init_top_bot_planes:imgBotField <- $r14
	#DEBUG_VALUE: init_top_bot_planes:i <- 0
	.loc	0 0 3                           # ldecod_src/memalloc.c:0:3
	xorl	%ecx, %ecx
	.loc	0 39 3                          # ldecod_src/memalloc.c:39:3
	jmp	.LBB0_9
.Ltmp18:
.LBB0_7:                                # %for.body.preheader.new
	#DEBUG_VALUE: init_top_bot_planes:imgFrame <- $rbp
	#DEBUG_VALUE: init_top_bot_planes:dim0 <- $r15d
	#DEBUG_VALUE: init_top_bot_planes:imgTopField <- $r12
	#DEBUG_VALUE: init_top_bot_planes:imgBotField <- $r14
	#DEBUG_VALUE: init_top_bot_planes:i <- 0
	movl	%eax, %edx
	andl	$2147483646, %edx               # imm = 0x7FFFFFFE
	leaq	24(%rbp), %rsi
	xorl	%ecx, %ecx
.Ltmp19:
	.p2align	4, 0x90
.LBB0_8:                                # %for.body
                                        # =>This Inner Loop Header: Depth=1
	#DEBUG_VALUE: init_top_bot_planes:imgFrame <- $rbp
	#DEBUG_VALUE: init_top_bot_planes:dim0 <- $r15d
	#DEBUG_VALUE: init_top_bot_planes:imgTopField <- $r12
	#DEBUG_VALUE: init_top_bot_planes:imgBotField <- $r14
	#DEBUG_VALUE: init_top_bot_planes:i <- $rcx
	.loc	0 41 26 is_stmt 1               # ldecod_src/memalloc.c:41:26
	movq	-24(%rsi), %rdi
	.loc	0 41 6 is_stmt 0                # ldecod_src/memalloc.c:41:6
	movq	(%r12), %r8
	.loc	0 41 23                         # ldecod_src/memalloc.c:41:23
	movq	%rdi, (%r8,%rcx,8)
	.loc	0 42 26 is_stmt 1               # ldecod_src/memalloc.c:42:26
	movq	-16(%rsi), %rdi
	.loc	0 42 6 is_stmt 0                # ldecod_src/memalloc.c:42:6
	movq	(%r14), %r8
	.loc	0 42 23                         # ldecod_src/memalloc.c:42:23
	movq	%rdi, (%r8,%rcx,8)
.Ltmp20:
	#DEBUG_VALUE: init_top_bot_planes:i <- [DW_OP_constu 1, DW_OP_or, DW_OP_stack_value] $rcx
	.loc	0 41 26 is_stmt 1               # ldecod_src/memalloc.c:41:26
	movq	-8(%rsi), %rdi
	.loc	0 41 6 is_stmt 0                # ldecod_src/memalloc.c:41:6
	movq	(%r12), %r8
	.loc	0 41 23                         # ldecod_src/memalloc.c:41:23
	movq	%rdi, 8(%r8,%rcx,8)
	.loc	0 42 26 is_stmt 1               # ldecod_src/memalloc.c:42:26
	movq	(%rsi), %rdi
	.loc	0 42 6 is_stmt 0                # ldecod_src/memalloc.c:42:6
	movq	(%r14), %r8
	.loc	0 42 23                         # ldecod_src/memalloc.c:42:23
	movq	%rdi, 8(%r8,%rcx,8)
.Ltmp21:
	.loc	0 39 30 is_stmt 1               # ldecod_src/memalloc.c:39:30
	addq	$2, %rcx
.Ltmp22:
	#DEBUG_VALUE: init_top_bot_planes:i <- $rcx
	.loc	0 39 3 is_stmt 0                # ldecod_src/memalloc.c:39:3
	addq	$32, %rsi
	cmpq	%rcx, %rdx
	jne	.LBB0_8
.Ltmp23:
.LBB0_9:                                # %for.end.loopexit.unr-lcssa
	#DEBUG_VALUE: init_top_bot_planes:imgFrame <- $rbp
	#DEBUG_VALUE: init_top_bot_planes:dim0 <- $r15d
	#DEBUG_VALUE: init_top_bot_planes:imgTopField <- $r12
	#DEBUG_VALUE: init_top_bot_planes:imgBotField <- $r14
	testb	$1, %al
	je	.LBB0_11
.Ltmp24:
# %bb.10:                               # %for.body.epil
	#DEBUG_VALUE: init_top_bot_planes:imgFrame <- $rbp
	#DEBUG_VALUE: init_top_bot_planes:dim0 <- $r15d
	#DEBUG_VALUE: init_top_bot_planes:imgTopField <- $r12
	#DEBUG_VALUE: init_top_bot_planes:imgBotField <- $r14
	#DEBUG_VALUE: init_top_bot_planes:i <- $rcx
	.loc	0 41 26 is_stmt 1               # ldecod_src/memalloc.c:41:26
	movq	%rcx, %rax
	shlq	$4, %rax
	movq	(%rbp,%rax), %rdx
	.loc	0 41 6 is_stmt 0                # ldecod_src/memalloc.c:41:6
	movq	(%r12), %rsi
	.loc	0 41 23                         # ldecod_src/memalloc.c:41:23
	movq	%rdx, (%rsi,%rcx,8)
	.loc	0 42 26 is_stmt 1               # ldecod_src/memalloc.c:42:26
	movq	8(%rbp,%rax), %rax
	.loc	0 42 6 is_stmt 0                # ldecod_src/memalloc.c:42:6
	movq	(%r14), %rdx
	.loc	0 42 23                         # ldecod_src/memalloc.c:42:23
	movq	%rax, (%rdx,%rcx,8)
.Ltmp25:
	#DEBUG_VALUE: init_top_bot_planes:i <- [DW_OP_plus_uconst 1, DW_OP_stack_value] $rcx
.LBB0_11:                               # %for.end
	#DEBUG_VALUE: init_top_bot_planes:imgFrame <- $rbp
	#DEBUG_VALUE: init_top_bot_planes:dim0 <- $r15d
	#DEBUG_VALUE: init_top_bot_planes:imgTopField <- $r12
	#DEBUG_VALUE: init_top_bot_planes:imgBotField <- $r14
	.loc	0 45 15 is_stmt 1               # ldecod_src/memalloc.c:45:15
	shll	$3, %r15d
.Ltmp26:
	#DEBUG_VALUE: init_top_bot_planes:dim0 <- [DW_OP_LLVM_entry_value 1] $esi
	.loc	0 45 3 is_stmt 0                # ldecod_src/memalloc.c:45:3
	movl	%r15d, %eax
	.loc	0 45 3 epilogue_begin           # ldecod_src/memalloc.c:45:3
	addq	$8, %rsp
	.cfi_def_cfa_offset 56
	popq	%rbx
	.cfi_def_cfa_offset 48
	popq	%r12
.Ltmp27:
	#DEBUG_VALUE: init_top_bot_planes:imgTopField <- [DW_OP_LLVM_entry_value 1] $rdx
	.cfi_def_cfa_offset 40
	popq	%r13
	.cfi_def_cfa_offset 32
	popq	%r14
.Ltmp28:
	#DEBUG_VALUE: init_top_bot_planes:imgBotField <- [DW_OP_LLVM_entry_value 1] $rcx
	.cfi_def_cfa_offset 24
	popq	%r15
	.cfi_def_cfa_offset 16
	popq	%rbp
.Ltmp29:
	#DEBUG_VALUE: init_top_bot_planes:imgFrame <- [DW_OP_LLVM_entry_value 1] $rdi
	.cfi_def_cfa_offset 8
	retq
.Ltmp30:
.Lfunc_end0:
	.size	init_top_bot_planes, .Lfunc_end0-init_top_bot_planes
	.cfi_endproc
	.file	11 "/usr/include" "stdlib.h" md5 0x02258fad21adf111bb9df9825e61954a
	.file	12 "/home/yjs/workspace" "GPUISel-llvm/build/lib/clang/19/include/__stddef_size_t.h" md5 0x2c44e821a2b1951cde2eb0fb2e656867
	.file	13 "/usr/include" "stdio.h" md5 0xf31eefcc3f15835fc5a4023a625cf609
                                        # -- End function
	.globl	no_mem_exit                     # -- Begin function no_mem_exit
	.p2align	4, 0x90
	.type	no_mem_exit,@function
no_mem_exit:                            # @no_mem_exit
.Lfunc_begin1:
	.loc	0 1832 0 is_stmt 1              # ldecod_src/memalloc.c:1832:0
	.cfi_startproc
# %bb.0:                                # %entry
	#DEBUG_VALUE: no_mem_exit:where <- $rdi
	pushq	%rbx
	.cfi_def_cfa_offset 16
	.cfi_offset %rbx, -16
	movq	%rdi, %rcx
.Ltmp31:
	.loc	0 1833 4 prologue_end           # ldecod_src/memalloc.c:1833:4
	movq	errortext@GOTPCREL(%rip), %rbx
	movl	$300, %esi                      # imm = 0x12C
	movl	$.L.str.81, %edx
	movq	%rbx, %rdi
.Ltmp32:
	#DEBUG_VALUE: no_mem_exit:where <- $rcx
	xorl	%eax, %eax
	callq	snprintf@PLT
.Ltmp33:
	#DEBUG_VALUE: no_mem_exit:where <- [DW_OP_LLVM_entry_value 1] $rdi
	.loc	0 1834 4                        # ldecod_src/memalloc.c:1834:4
	movq	%rbx, %rdi
	movl	$100, %esi
	.loc	0 1834 4 epilogue_begin is_stmt 0 # ldecod_src/memalloc.c:1834:4
	popq	%rbx
	.cfi_def_cfa_offset 8
.Ltmp34:
	jmp	error@PLT                       # TAILCALL
.Ltmp35:
.Lfunc_end1:
	.size	no_mem_exit, .Lfunc_end1-no_mem_exit
	.cfi_endproc
                                        # -- End function
	.globl	free_top_bot_planes             # -- Begin function free_top_bot_planes
	.p2align	4, 0x90
	.type	free_top_bot_planes,@function
free_top_bot_planes:                    # @free_top_bot_planes
.Lfunc_begin2:
	.loc	0 57 0 is_stmt 1                # ldecod_src/memalloc.c:57:0
	.cfi_startproc
# %bb.0:                                # %entry
	#DEBUG_VALUE: free_top_bot_planes:imgTopField <- $rdi
	#DEBUG_VALUE: free_top_bot_planes:imgBotField <- $rsi
	pushq	%rbx
	.cfi_def_cfa_offset 16
	.cfi_offset %rbx, -16
	movq	%rsi, %rbx
.Ltmp36:
	.loc	0 58 3 prologue_end             # ldecod_src/memalloc.c:58:3
	callq	free@PLT
.Ltmp37:
	#DEBUG_VALUE: free_top_bot_planes:imgBotField <- $rbx
	#DEBUG_VALUE: free_top_bot_planes:imgTopField <- [DW_OP_LLVM_entry_value 1] $rdi
	.loc	0 59 3                          # ldecod_src/memalloc.c:59:3
	movq	%rbx, %rdi
	.loc	0 59 3 epilogue_begin is_stmt 0 # ldecod_src/memalloc.c:59:3
	popq	%rbx
.Ltmp38:
	#DEBUG_VALUE: free_top_bot_planes:imgBotField <- $rdi
	.cfi_def_cfa_offset 8
	jmp	free@PLT                        # TAILCALL
.Ltmp39:
.Lfunc_end2:
	.size	free_top_bot_planes, .Lfunc_end2-free_top_bot_planes
	.cfi_endproc
                                        # -- End function
	.globl	get_mem2Ddist                   # -- Begin function get_mem2Ddist
	.p2align	4, 0x90
	.type	get_mem2Ddist,@function
get_mem2Ddist:                          # @get_mem2Ddist
.Lfunc_begin3:
	.loc	0 71 0 is_stmt 1                # ldecod_src/memalloc.c:71:0
	.cfi_startproc
# %bb.0:                                # %entry
	#DEBUG_VALUE: get_mem2Ddist:array2D <- $rdi
	#DEBUG_VALUE: get_mem2Ddist:dim0 <- $esi
	#DEBUG_VALUE: get_mem2Ddist:dim1 <- $edx
	pushq	%rbp
	.cfi_def_cfa_offset 16
	pushq	%r15
	.cfi_def_cfa_offset 24
	pushq	%r14
	.cfi_def_cfa_offset 32
	pushq	%rbx
	.cfi_def_cfa_offset 40
	pushq	%rax
	.cfi_def_cfa_offset 48
	.cfi_offset %rbx, -40
	.cfi_offset %r14, -32
	.cfi_offset %r15, -24
	.cfi_offset %rbp, -16
	movl	%edx, %ebx
	movl	%esi, %ebp
	movq	%rdi, %r14
.Ltmp40:
	.loc	0 74 46 prologue_end            # ldecod_src/memalloc.c:74:46
	movslq	%esi, %rdi
.Ltmp41:
	#DEBUG_VALUE: get_mem2Ddist:array2D <- $r14
	.loc	0 74 51 is_stmt 0               # ldecod_src/memalloc.c:74:51
	shlq	$3, %rdi
	.loc	0 74 39                         # ldecod_src/memalloc.c:74:39
	callq	malloc@PLT
.Ltmp42:
	#DEBUG_VALUE: get_mem2Ddist:dim1 <- $ebx
	#DEBUG_VALUE: get_mem2Ddist:dim0 <- $ebp
	movq	%rax, %r15
	.loc	0 74 19                         # ldecod_src/memalloc.c:74:19
	movq	%rax, (%r14)
	.loc	0 74 85                         # ldecod_src/memalloc.c:74:85
	testq	%rax, %rax
.Ltmp43:
	.loc	0 74 6                          # ldecod_src/memalloc.c:74:6
	jne	.LBB3_2
.Ltmp44:
# %bb.1:                                # %if.then
	#DEBUG_VALUE: get_mem2Ddist:array2D <- $r14
	#DEBUG_VALUE: get_mem2Ddist:dim0 <- $ebp
	#DEBUG_VALUE: get_mem2Ddist:dim1 <- $ebx
	.loc	0 1833 4 is_stmt 1              # ldecod_src/memalloc.c:1833:4
	movq	errortext@GOTPCREL(%rip), %r15
.Ltmp45:
	#DEBUG_VALUE: no_mem_exit:where <- undef
	movl	$300, %esi                      # imm = 0x12C
	movl	$.L.str.81, %edx
	movl	$.L.str.2, %ecx
	movq	%r15, %rdi
	xorl	%eax, %eax
	callq	snprintf@PLT
.Ltmp46:
	.loc	0 1834 4                        # ldecod_src/memalloc.c:1834:4
	movq	%r15, %rdi
	movl	$100, %esi
	callq	error@PLT
.Ltmp47:
	.loc	0 76 9                          # ldecod_src/memalloc.c:76:9
	movq	(%r14), %r15
.Ltmp48:
.LBB3_2:                                # %if.end
	#DEBUG_VALUE: get_mem2Ddist:array2D <- $r14
	#DEBUG_VALUE: get_mem2Ddist:dim0 <- $ebp
	#DEBUG_VALUE: get_mem2Ddist:dim1 <- $ebx
	.loc	0 76 51 is_stmt 0               # ldecod_src/memalloc.c:76:51
	movl	%ebx, %eax
	imull	%ebp, %eax
	.loc	0 76 46                         # ldecod_src/memalloc.c:76:46
	movslq	%eax, %rdi
	.loc	0 76 39                         # ldecod_src/memalloc.c:76:39
	movl	$256, %esi                      # imm = 0x100
	callq	calloc@PLT
.Ltmp49:
	.loc	0 76 19                         # ldecod_src/memalloc.c:76:19
	movq	%rax, (%r15)
	.loc	0 76 85                         # ldecod_src/memalloc.c:76:85
	testq	%rax, %rax
.Ltmp50:
	.loc	0 76 6                          # ldecod_src/memalloc.c:76:6
	je	.LBB3_3
.Ltmp51:
# %bb.4:                                # %if.end8
	#DEBUG_VALUE: get_mem2Ddist:array2D <- $r14
	#DEBUG_VALUE: get_mem2Ddist:dim0 <- $ebp
	#DEBUG_VALUE: get_mem2Ddist:dim1 <- $ebx
	#DEBUG_VALUE: get_mem2Ddist:i <- 1
	.loc	0 79 17 is_stmt 1               # ldecod_src/memalloc.c:79:17
	cmpl	$2, %ebp
.Ltmp52:
	.loc	0 79 3 is_stmt 0                # ldecod_src/memalloc.c:79:3
	jge	.LBB3_5
	jmp	.LBB3_12
.Ltmp53:
.LBB3_3:                                # %if.then7
	#DEBUG_VALUE: get_mem2Ddist:array2D <- $r14
	#DEBUG_VALUE: get_mem2Ddist:dim0 <- $ebp
	#DEBUG_VALUE: get_mem2Ddist:dim1 <- $ebx
	.loc	0 1833 4 is_stmt 1              # ldecod_src/memalloc.c:1833:4
	movq	errortext@GOTPCREL(%rip), %r15
.Ltmp54:
	#DEBUG_VALUE: no_mem_exit:where <- undef
	movl	$300, %esi                      # imm = 0x12C
	movl	$.L.str.81, %edx
	movl	$.L.str.2, %ecx
	movq	%r15, %rdi
	xorl	%eax, %eax
	callq	snprintf@PLT
.Ltmp55:
	.loc	0 1834 4                        # ldecod_src/memalloc.c:1834:4
	movq	%r15, %rdi
	movl	$100, %esi
	callq	error@PLT
.Ltmp56:
	#DEBUG_VALUE: get_mem2Ddist:i <- 1
	.loc	0 79 17                         # ldecod_src/memalloc.c:79:17
	cmpl	$2, %ebp
.Ltmp57:
	.loc	0 79 3 is_stmt 0                # ldecod_src/memalloc.c:79:3
	jl	.LBB3_12
.Ltmp58:
.LBB3_5:                                # %for.body.lr.ph
	#DEBUG_VALUE: get_mem2Ddist:array2D <- $r14
	#DEBUG_VALUE: get_mem2Ddist:dim0 <- $ebp
	#DEBUG_VALUE: get_mem2Ddist:dim1 <- $ebx
	#DEBUG_VALUE: get_mem2Ddist:i <- 1
	.loc	0 0 3                           # ldecod_src/memalloc.c:0:3
	movslq	%ebx, %rax
.Ltmp59:
	.loc	0 79 17                         # ldecod_src/memalloc.c:79:17
	movl	%ebp, %edi
.Ltmp60:
	.loc	0 79 3                          # ldecod_src/memalloc.c:79:3
	leaq	-1(%rdi), %rsi
	addq	$-2, %rdi
	movl	%esi, %ecx
	andl	$3, %ecx
	movl	$1, %edx
	cmpq	$3, %rdi
	jb	.LBB3_9
.Ltmp61:
# %bb.6:                                # %for.body.lr.ph.new
	#DEBUG_VALUE: get_mem2Ddist:array2D <- $r14
	#DEBUG_VALUE: get_mem2Ddist:dim0 <- $ebp
	#DEBUG_VALUE: get_mem2Ddist:dim1 <- $ebx
	#DEBUG_VALUE: get_mem2Ddist:i <- 1
	andq	$-4, %rsi
	xorl	%edx, %edx
	movq	%rax, %rdi
	shlq	$8, %rdi
.Ltmp62:
	.p2align	4, 0x90
.LBB3_7:                                # %for.body
                                        # =>This Inner Loop Header: Depth=1
	#DEBUG_VALUE: get_mem2Ddist:array2D <- $r14
	#DEBUG_VALUE: get_mem2Ddist:dim0 <- $ebp
	#DEBUG_VALUE: get_mem2Ddist:dim1 <- $ebx
	#DEBUG_VALUE: get_mem2Ddist:i <- 1
	.loc	0 80 23 is_stmt 1               # ldecod_src/memalloc.c:80:23
	movq	(%r14), %r8
	movq	(%r8,%rdx,8), %r9
	.loc	0 80 38 is_stmt 0               # ldecod_src/memalloc.c:80:38
	addq	%rdi, %r9
	.loc	0 80 19                         # ldecod_src/memalloc.c:80:19
	movq	%r9, 8(%r8,%rdx,8)
	.loc	0 80 23                         # ldecod_src/memalloc.c:80:23
	movq	(%r14), %r8
	movq	8(%r8,%rdx,8), %r9
	.loc	0 80 38                         # ldecod_src/memalloc.c:80:38
	addq	%rdi, %r9
	.loc	0 80 19                         # ldecod_src/memalloc.c:80:19
	movq	%r9, 16(%r8,%rdx,8)
	.loc	0 80 23                         # ldecod_src/memalloc.c:80:23
	movq	(%r14), %r8
	movq	16(%r8,%rdx,8), %r9
	.loc	0 80 38                         # ldecod_src/memalloc.c:80:38
	addq	%rdi, %r9
	.loc	0 80 19                         # ldecod_src/memalloc.c:80:19
	movq	%r9, 24(%r8,%rdx,8)
	.loc	0 80 23                         # ldecod_src/memalloc.c:80:23
	movq	(%r14), %r8
	movq	24(%r8,%rdx,8), %r9
	.loc	0 80 38                         # ldecod_src/memalloc.c:80:38
	addq	%rdi, %r9
	.loc	0 80 19                         # ldecod_src/memalloc.c:80:19
	movq	%r9, 32(%r8,%rdx,8)
.Ltmp63:
	.loc	0 79 3 is_stmt 1                # ldecod_src/memalloc.c:79:3
	addq	$4, %rdx
	cmpq	%rdx, %rsi
	jne	.LBB3_7
.Ltmp64:
# %bb.8:                                # %for.end.loopexit.unr-lcssa.loopexit
	#DEBUG_VALUE: get_mem2Ddist:array2D <- $r14
	#DEBUG_VALUE: get_mem2Ddist:dim0 <- $ebp
	#DEBUG_VALUE: get_mem2Ddist:dim1 <- $ebx
	#DEBUG_VALUE: get_mem2Ddist:i <- 1
	incq	%rdx
.Ltmp65:
.LBB3_9:                                # %for.end.loopexit.unr-lcssa
	#DEBUG_VALUE: get_mem2Ddist:array2D <- $r14
	#DEBUG_VALUE: get_mem2Ddist:dim0 <- $ebp
	#DEBUG_VALUE: get_mem2Ddist:dim1 <- $ebx
	#DEBUG_VALUE: get_mem2Ddist:i <- 1
	testq	%rcx, %rcx
	je	.LBB3_12
.Ltmp66:
# %bb.10:                               # %for.body.epil.preheader
	#DEBUG_VALUE: get_mem2Ddist:array2D <- $r14
	#DEBUG_VALUE: get_mem2Ddist:dim0 <- $ebp
	#DEBUG_VALUE: get_mem2Ddist:dim1 <- $ebx
	#DEBUG_VALUE: get_mem2Ddist:i <- 1
	.loc	0 0 3 is_stmt 0                 # ldecod_src/memalloc.c:0:3
	shlq	$8, %rax
.Ltmp67:
	.p2align	4, 0x90
.LBB3_11:                               # %for.body.epil
                                        # =>This Inner Loop Header: Depth=1
	#DEBUG_VALUE: get_mem2Ddist:array2D <- $r14
	#DEBUG_VALUE: get_mem2Ddist:dim0 <- $ebp
	#DEBUG_VALUE: get_mem2Ddist:dim1 <- $ebx
	#DEBUG_VALUE: get_mem2Ddist:i <- $rdx
	.loc	0 80 23 is_stmt 1               # ldecod_src/memalloc.c:80:23
	movq	(%r14), %rsi
	movq	-8(%rsi,%rdx,8), %rdi
	.loc	0 80 38 is_stmt 0               # ldecod_src/memalloc.c:80:38
	addq	%rax, %rdi
	.loc	0 80 19                         # ldecod_src/memalloc.c:80:19
	movq	%rdi, (%rsi,%rdx,8)
	.loc	0 79 26 is_stmt 1               # ldecod_src/memalloc.c:79:26
	incq	%rdx
.Ltmp68:
	#DEBUG_VALUE: get_mem2Ddist:i <- $rdx
	.loc	0 79 3 is_stmt 0                # ldecod_src/memalloc.c:79:3
	decq	%rcx
	jne	.LBB3_11
.Ltmp69:
.LBB3_12:                               # %for.end
	#DEBUG_VALUE: get_mem2Ddist:array2D <- $r14
	#DEBUG_VALUE: get_mem2Ddist:dim0 <- $ebp
	#DEBUG_VALUE: get_mem2Ddist:dim1 <- $ebx
	.loc	0 82 49 is_stmt 1               # ldecod_src/memalloc.c:82:49
	shll	$8, %ebx
.Ltmp70:
	#DEBUG_VALUE: get_mem2Ddist:dim1 <- [DW_OP_LLVM_entry_value 1] $edx
	.loc	0 82 42 is_stmt 0               # ldecod_src/memalloc.c:82:42
	orl	$8, %ebx
	.loc	0 82 15                         # ldecod_src/memalloc.c:82:15
	imull	%ebp, %ebx
	.loc	0 82 3                          # ldecod_src/memalloc.c:82:3
	movl	%ebx, %eax
	.loc	0 82 3 epilogue_begin           # ldecod_src/memalloc.c:82:3
	addq	$8, %rsp
	.cfi_def_cfa_offset 40
	popq	%rbx
	.cfi_def_cfa_offset 32
	popq	%r14
.Ltmp71:
	#DEBUG_VALUE: get_mem2Ddist:array2D <- [DW_OP_LLVM_entry_value 1] $rdi
	.cfi_def_cfa_offset 24
	popq	%r15
	.cfi_def_cfa_offset 16
	popq	%rbp
.Ltmp72:
	#DEBUG_VALUE: get_mem2Ddist:dim0 <- [DW_OP_LLVM_entry_value 1] $esi
	.cfi_def_cfa_offset 8
	retq
.Ltmp73:
.Lfunc_end3:
	.size	get_mem2Ddist, .Lfunc_end3-get_mem2Ddist
	.cfi_endproc
                                        # -- End function
	.globl	get_mem2Dlm                     # -- Begin function get_mem2Dlm
	.p2align	4, 0x90
	.type	get_mem2Dlm,@function
get_mem2Dlm:                            # @get_mem2Dlm
.Lfunc_begin4:
	.loc	0 94 0 is_stmt 1                # ldecod_src/memalloc.c:94:0
	.cfi_startproc
# %bb.0:                                # %entry
	#DEBUG_VALUE: get_mem2Dlm:array2D <- $rdi
	#DEBUG_VALUE: get_mem2Dlm:dim0 <- $esi
	#DEBUG_VALUE: get_mem2Dlm:dim1 <- $edx
	pushq	%r15
	.cfi_def_cfa_offset 16
	pushq	%r14
	.cfi_def_cfa_offset 24
	pushq	%r12
	.cfi_def_cfa_offset 32
	pushq	%rbx
	.cfi_def_cfa_offset 40
	pushq	%rax
	.cfi_def_cfa_offset 48
	.cfi_offset %rbx, -40
	.cfi_offset %r12, -32
	.cfi_offset %r14, -24
	.cfi_offset %r15, -16
	movl	%edx, %r14d
	movl	%esi, %ebx
	movq	%rdi, %r15
.Ltmp74:
	.loc	0 97 44 prologue_end            # ldecod_src/memalloc.c:97:44
	movslq	%esi, %rdi
.Ltmp75:
	#DEBUG_VALUE: get_mem2Dlm:array2D <- $r15
	.loc	0 97 49 is_stmt 0               # ldecod_src/memalloc.c:97:49
	shlq	$3, %rdi
	.loc	0 97 37                         # ldecod_src/memalloc.c:97:37
	callq	malloc@PLT
.Ltmp76:
	#DEBUG_VALUE: get_mem2Dlm:dim1 <- $r14d
	#DEBUG_VALUE: get_mem2Dlm:dim0 <- $ebx
	movq	%rax, %r12
	.loc	0 97 19                         # ldecod_src/memalloc.c:97:19
	movq	%rax, (%r15)
	.loc	0 97 80                         # ldecod_src/memalloc.c:97:80
	testq	%rax, %rax
.Ltmp77:
	.loc	0 97 6                          # ldecod_src/memalloc.c:97:6
	jne	.LBB4_2
.Ltmp78:
# %bb.1:                                # %if.then
	#DEBUG_VALUE: get_mem2Dlm:array2D <- $r15
	#DEBUG_VALUE: get_mem2Dlm:dim0 <- $ebx
	#DEBUG_VALUE: get_mem2Dlm:dim1 <- $r14d
	.loc	0 1833 4 is_stmt 1              # ldecod_src/memalloc.c:1833:4
	movq	errortext@GOTPCREL(%rip), %r12
.Ltmp79:
	#DEBUG_VALUE: no_mem_exit:where <- undef
	movl	$300, %esi                      # imm = 0x12C
	movl	$.L.str.81, %edx
	movl	$.L.str.3, %ecx
	movq	%r12, %rdi
	xorl	%eax, %eax
	callq	snprintf@PLT
.Ltmp80:
	.loc	0 1834 4                        # ldecod_src/memalloc.c:1834:4
	movq	%r12, %rdi
	movl	$100, %esi
	callq	error@PLT
.Ltmp81:
	.loc	0 99 9                          # ldecod_src/memalloc.c:99:9
	movq	(%r15), %r12
.Ltmp82:
.LBB4_2:                                # %if.end
	#DEBUG_VALUE: get_mem2Dlm:array2D <- $r15
	#DEBUG_VALUE: get_mem2Dlm:dim0 <- $ebx
	#DEBUG_VALUE: get_mem2Dlm:dim1 <- $r14d
	.loc	0 99 49 is_stmt 0               # ldecod_src/memalloc.c:99:49
	movl	%r14d, %eax
	imull	%ebx, %eax
	.loc	0 99 44                         # ldecod_src/memalloc.c:99:44
	movslq	%eax, %rdi
	.loc	0 99 37                         # ldecod_src/memalloc.c:99:37
	movl	$48, %esi
	callq	calloc@PLT
.Ltmp83:
	.loc	0 99 19                         # ldecod_src/memalloc.c:99:19
	movq	%rax, (%r12)
	.loc	0 99 80                         # ldecod_src/memalloc.c:99:80
	testq	%rax, %rax
.Ltmp84:
	.loc	0 99 6                          # ldecod_src/memalloc.c:99:6
	je	.LBB4_3
.Ltmp85:
# %bb.4:                                # %if.end8
	#DEBUG_VALUE: get_mem2Dlm:array2D <- $r15
	#DEBUG_VALUE: get_mem2Dlm:dim0 <- $ebx
	#DEBUG_VALUE: get_mem2Dlm:dim1 <- $r14d
	#DEBUG_VALUE: get_mem2Dlm:i <- 1
	.loc	0 102 17 is_stmt 1              # ldecod_src/memalloc.c:102:17
	cmpl	$2, %ebx
.Ltmp86:
	.loc	0 102 3 is_stmt 0               # ldecod_src/memalloc.c:102:3
	jge	.LBB4_5
	jmp	.LBB4_12
.Ltmp87:
.LBB4_3:                                # %if.then7
	#DEBUG_VALUE: get_mem2Dlm:array2D <- $r15
	#DEBUG_VALUE: get_mem2Dlm:dim0 <- $ebx
	#DEBUG_VALUE: get_mem2Dlm:dim1 <- $r14d
	.loc	0 1833 4 is_stmt 1              # ldecod_src/memalloc.c:1833:4
	movq	errortext@GOTPCREL(%rip), %r12
.Ltmp88:
	#DEBUG_VALUE: no_mem_exit:where <- undef
	movl	$300, %esi                      # imm = 0x12C
	movl	$.L.str.81, %edx
	movl	$.L.str.3, %ecx
	movq	%r12, %rdi
	xorl	%eax, %eax
	callq	snprintf@PLT
.Ltmp89:
	.loc	0 1834 4                        # ldecod_src/memalloc.c:1834:4
	movq	%r12, %rdi
	movl	$100, %esi
	callq	error@PLT
.Ltmp90:
	#DEBUG_VALUE: get_mem2Dlm:i <- 1
	.loc	0 102 17                        # ldecod_src/memalloc.c:102:17
	cmpl	$2, %ebx
.Ltmp91:
	.loc	0 102 3 is_stmt 0               # ldecod_src/memalloc.c:102:3
	jl	.LBB4_12
.Ltmp92:
.LBB4_5:                                # %for.body.lr.ph
	#DEBUG_VALUE: get_mem2Dlm:array2D <- $r15
	#DEBUG_VALUE: get_mem2Dlm:dim0 <- $ebx
	#DEBUG_VALUE: get_mem2Dlm:dim1 <- $r14d
	#DEBUG_VALUE: get_mem2Dlm:i <- 1
	.loc	0 0 3                           # ldecod_src/memalloc.c:0:3
	movslq	%r14d, %rdx
.Ltmp93:
	.loc	0 102 17                        # ldecod_src/memalloc.c:102:17
	movl	%ebx, %edi
.Ltmp94:
	.loc	0 102 3                         # ldecod_src/memalloc.c:102:3
	leaq	-1(%rdi), %rsi
	addq	$-2, %rdi
	movl	%esi, %eax
	andl	$3, %eax
	movl	$1, %ecx
	cmpq	$3, %rdi
	jb	.LBB4_9
.Ltmp95:
# %bb.6:                                # %for.body.lr.ph.new
	#DEBUG_VALUE: get_mem2Dlm:array2D <- $r15
	#DEBUG_VALUE: get_mem2Dlm:dim0 <- $ebx
	#DEBUG_VALUE: get_mem2Dlm:dim1 <- $r14d
	#DEBUG_VALUE: get_mem2Dlm:i <- 1
	andq	$-4, %rsi
	xorl	%ecx, %ecx
	movq	%rdx, %rdi
	shlq	$4, %rdi
	leaq	(%rdi,%rdi,2), %rdi
.Ltmp96:
	.p2align	4, 0x90
.LBB4_7:                                # %for.body
                                        # =>This Inner Loop Header: Depth=1
	#DEBUG_VALUE: get_mem2Dlm:array2D <- $r15
	#DEBUG_VALUE: get_mem2Dlm:dim0 <- $ebx
	#DEBUG_VALUE: get_mem2Dlm:dim1 <- $r14d
	#DEBUG_VALUE: get_mem2Dlm:i <- 1
	.loc	0 103 23 is_stmt 1              # ldecod_src/memalloc.c:103:23
	movq	(%r15), %r8
	movq	(%r8,%rcx,8), %r9
	.loc	0 103 38 is_stmt 0              # ldecod_src/memalloc.c:103:38
	addq	%rdi, %r9
	.loc	0 103 19                        # ldecod_src/memalloc.c:103:19
	movq	%r9, 8(%r8,%rcx,8)
	.loc	0 103 23                        # ldecod_src/memalloc.c:103:23
	movq	(%r15), %r8
	movq	8(%r8,%rcx,8), %r9
	.loc	0 103 38                        # ldecod_src/memalloc.c:103:38
	addq	%rdi, %r9
	.loc	0 103 19                        # ldecod_src/memalloc.c:103:19
	movq	%r9, 16(%r8,%rcx,8)
	.loc	0 103 23                        # ldecod_src/memalloc.c:103:23
	movq	(%r15), %r8
	movq	16(%r8,%rcx,8), %r9
	.loc	0 103 38                        # ldecod_src/memalloc.c:103:38
	addq	%rdi, %r9
	.loc	0 103 19                        # ldecod_src/memalloc.c:103:19
	movq	%r9, 24(%r8,%rcx,8)
	.loc	0 103 23                        # ldecod_src/memalloc.c:103:23
	movq	(%r15), %r8
	movq	24(%r8,%rcx,8), %r9
	.loc	0 103 38                        # ldecod_src/memalloc.c:103:38
	addq	%rdi, %r9
	.loc	0 103 19                        # ldecod_src/memalloc.c:103:19
	movq	%r9, 32(%r8,%rcx,8)
.Ltmp97:
	.loc	0 102 3 is_stmt 1               # ldecod_src/memalloc.c:102:3
	addq	$4, %rcx
	cmpq	%rcx, %rsi
	jne	.LBB4_7
.Ltmp98:
# %bb.8:                                # %for.end.loopexit.unr-lcssa.loopexit
	#DEBUG_VALUE: get_mem2Dlm:array2D <- $r15
	#DEBUG_VALUE: get_mem2Dlm:dim0 <- $ebx
	#DEBUG_VALUE: get_mem2Dlm:dim1 <- $r14d
	#DEBUG_VALUE: get_mem2Dlm:i <- 1
	incq	%rcx
.Ltmp99:
.LBB4_9:                                # %for.end.loopexit.unr-lcssa
	#DEBUG_VALUE: get_mem2Dlm:array2D <- $r15
	#DEBUG_VALUE: get_mem2Dlm:dim0 <- $ebx
	#DEBUG_VALUE: get_mem2Dlm:dim1 <- $r14d
	#DEBUG_VALUE: get_mem2Dlm:i <- 1
	testq	%rax, %rax
	je	.LBB4_12
.Ltmp100:
# %bb.10:                               # %for.body.epil.preheader
	#DEBUG_VALUE: get_mem2Dlm:array2D <- $r15
	#DEBUG_VALUE: get_mem2Dlm:dim0 <- $ebx
	#DEBUG_VALUE: get_mem2Dlm:dim1 <- $r14d
	#DEBUG_VALUE: get_mem2Dlm:i <- 1
	.loc	0 0 3 is_stmt 0                 # ldecod_src/memalloc.c:0:3
	leaq	(%rdx,%rdx,2), %rdx
	shlq	$4, %rdx
.Ltmp101:
	.p2align	4, 0x90
.LBB4_11:                               # %for.body.epil
                                        # =>This Inner Loop Header: Depth=1
	#DEBUG_VALUE: get_mem2Dlm:array2D <- $r15
	#DEBUG_VALUE: get_mem2Dlm:dim0 <- $ebx
	#DEBUG_VALUE: get_mem2Dlm:dim1 <- $r14d
	#DEBUG_VALUE: get_mem2Dlm:i <- $rcx
	.loc	0 103 23 is_stmt 1              # ldecod_src/memalloc.c:103:23
	movq	(%r15), %rsi
	movq	-8(%rsi,%rcx,8), %rdi
	.loc	0 103 38 is_stmt 0              # ldecod_src/memalloc.c:103:38
	addq	%rdx, %rdi
	.loc	0 103 19                        # ldecod_src/memalloc.c:103:19
	movq	%rdi, (%rsi,%rcx,8)
	.loc	0 102 26 is_stmt 1              # ldecod_src/memalloc.c:102:26
	incq	%rcx
.Ltmp102:
	#DEBUG_VALUE: get_mem2Dlm:i <- $rcx
	.loc	0 102 3 is_stmt 0               # ldecod_src/memalloc.c:102:3
	decq	%rax
	jne	.LBB4_11
.Ltmp103:
.LBB4_12:                               # %for.end
	#DEBUG_VALUE: get_mem2Dlm:array2D <- $r15
	#DEBUG_VALUE: get_mem2Dlm:dim0 <- $ebx
	#DEBUG_VALUE: get_mem2Dlm:dim1 <- $r14d
	.loc	0 105 47 is_stmt 1              # ldecod_src/memalloc.c:105:47
	shll	$4, %r14d
.Ltmp104:
	#DEBUG_VALUE: get_mem2Dlm:dim1 <- [DW_OP_LLVM_entry_value 1] $edx
	.loc	0 105 40 is_stmt 0              # ldecod_src/memalloc.c:105:40
	leal	(%r14,%r14,2), %eax
	addl	$8, %eax
	.loc	0 105 15                        # ldecod_src/memalloc.c:105:15
	imull	%ebx, %eax
	.loc	0 105 3 epilogue_begin          # ldecod_src/memalloc.c:105:3
	addq	$8, %rsp
	.cfi_def_cfa_offset 40
	popq	%rbx
.Ltmp105:
	#DEBUG_VALUE: get_mem2Dlm:dim0 <- [DW_OP_LLVM_entry_value 1] $esi
	.cfi_def_cfa_offset 32
	popq	%r12
	.cfi_def_cfa_offset 24
	popq	%r14
	.cfi_def_cfa_offset 16
	popq	%r15
.Ltmp106:
	#DEBUG_VALUE: get_mem2Dlm:array2D <- [DW_OP_LLVM_entry_value 1] $rdi
	.cfi_def_cfa_offset 8
	retq
.Ltmp107:
.Lfunc_end4:
	.size	get_mem2Dlm, .Lfunc_end4-get_mem2Dlm
	.cfi_endproc
                                        # -- End function
	.globl	free_mem2Ddist                  # -- Begin function free_mem2Ddist
	.p2align	4, 0x90
	.type	free_mem2Ddist,@function
free_mem2Ddist:                         # @free_mem2Ddist
.Lfunc_begin5:
	.cfi_startproc
# %bb.0:                                # %entry
	#DEBUG_VALUE: free_mem2Ddist:array2D <- $rdi
	.loc	0 117 7 prologue_end is_stmt 1  # ldecod_src/memalloc.c:117:7
	testq	%rdi, %rdi
.Ltmp108:
	.loc	0 117 7 is_stmt 0               # ldecod_src/memalloc.c:117:7
	je	.LBB5_5
.Ltmp109:
# %bb.1:                                # %if.then
	#DEBUG_VALUE: free_mem2Ddist:array2D <- $rdi
	pushq	%rbx
	.cfi_def_cfa_offset 16
	.cfi_offset %rbx, -16
	movq	%rdi, %rbx
.Ltmp110:
	.loc	0 119 9 is_stmt 1               # ldecod_src/memalloc.c:119:9
	movq	(%rdi), %rdi
.Ltmp111:
	#DEBUG_VALUE: free_mem2Ddist:array2D <- $rbx
	testq	%rdi, %rdi
.Ltmp112:
	.loc	0 119 9 is_stmt 0               # ldecod_src/memalloc.c:119:9
	je	.LBB5_3
.Ltmp113:
# %bb.2:                                # %if.then2
	#DEBUG_VALUE: free_mem2Ddist:array2D <- $rbx
	.loc	0 120 7 is_stmt 1               # ldecod_src/memalloc.c:120:7
	callq	free@PLT
.Ltmp114:
	.loc	0 124 5                         # ldecod_src/memalloc.c:124:5
	movq	%rbx, %rdi
	.loc	0 124 5 epilogue_begin is_stmt 0 # ldecod_src/memalloc.c:124:5
	popq	%rbx
.Ltmp115:
	#DEBUG_VALUE: free_mem2Ddist:array2D <- $rdi
	.cfi_def_cfa_offset 8
	jmp	free@PLT                        # TAILCALL
.Ltmp116:
.LBB5_5:                                # %if.else3
	.cfi_restore %rbx
	#DEBUG_VALUE: free_mem2Ddist:array2D <- $rdi
	.loc	0 128 5 is_stmt 1               # ldecod_src/memalloc.c:128:5
	movl	$.L.str.4, %edi
.Ltmp117:
	#DEBUG_VALUE: free_mem2Ddist:array2D <- [DW_OP_LLVM_entry_value 1] $rdi
	movl	$100, %esi
.Ltmp118:
	jmp	error@PLT                       # TAILCALL
.Ltmp119:
.LBB5_3:                                # %if.else
	.cfi_def_cfa_offset 16
	.cfi_offset %rbx, -16
	#DEBUG_VALUE: free_mem2Ddist:array2D <- $rbx
	.loc	0 122 7                         # ldecod_src/memalloc.c:122:7
	movl	$.L.str.4, %edi
	movl	$100, %esi
	callq	error@PLT
.Ltmp120:
	.loc	0 124 5                         # ldecod_src/memalloc.c:124:5
	movq	%rbx, %rdi
	.loc	0 124 5 epilogue_begin is_stmt 0 # ldecod_src/memalloc.c:124:5
	popq	%rbx
.Ltmp121:
	#DEBUG_VALUE: free_mem2Ddist:array2D <- $rdi
	.cfi_def_cfa_offset 8
	jmp	free@PLT                        # TAILCALL
.Ltmp122:
.Lfunc_end5:
	.size	free_mem2Ddist, .Lfunc_end5-free_mem2Ddist
	.cfi_endproc
                                        # -- End function
	.globl	free_mem2Dlm                    # -- Begin function free_mem2Dlm
	.p2align	4, 0x90
	.type	free_mem2Dlm,@function
free_mem2Dlm:                           # @free_mem2Dlm
.Lfunc_begin6:
	.cfi_startproc
# %bb.0:                                # %entry
	#DEBUG_VALUE: free_mem2Dlm:array2D <- $rdi
	.loc	0 141 7 prologue_end is_stmt 1  # ldecod_src/memalloc.c:141:7
	testq	%rdi, %rdi
.Ltmp123:
	.loc	0 141 7 is_stmt 0               # ldecod_src/memalloc.c:141:7
	je	.LBB6_5
.Ltmp124:
# %bb.1:                                # %if.then
	#DEBUG_VALUE: free_mem2Dlm:array2D <- $rdi
	pushq	%rbx
	.cfi_def_cfa_offset 16
	.cfi_offset %rbx, -16
	movq	%rdi, %rbx
.Ltmp125:
	.loc	0 143 9 is_stmt 1               # ldecod_src/memalloc.c:143:9
	movq	(%rdi), %rdi
.Ltmp126:
	#DEBUG_VALUE: free_mem2Dlm:array2D <- $rbx
	testq	%rdi, %rdi
.Ltmp127:
	.loc	0 143 9 is_stmt 0               # ldecod_src/memalloc.c:143:9
	je	.LBB6_3
.Ltmp128:
# %bb.2:                                # %if.then2
	#DEBUG_VALUE: free_mem2Dlm:array2D <- $rbx
	.loc	0 144 7 is_stmt 1               # ldecod_src/memalloc.c:144:7
	callq	free@PLT
.Ltmp129:
	.loc	0 148 5                         # ldecod_src/memalloc.c:148:5
	movq	%rbx, %rdi
	.loc	0 148 5 epilogue_begin is_stmt 0 # ldecod_src/memalloc.c:148:5
	popq	%rbx
.Ltmp130:
	#DEBUG_VALUE: free_mem2Dlm:array2D <- $rdi
	.cfi_def_cfa_offset 8
	jmp	free@PLT                        # TAILCALL
.Ltmp131:
.LBB6_5:                                # %if.else3
	.cfi_restore %rbx
	#DEBUG_VALUE: free_mem2Dlm:array2D <- $rdi
	.loc	0 152 5 is_stmt 1               # ldecod_src/memalloc.c:152:5
	movl	$.L.str.5, %edi
.Ltmp132:
	#DEBUG_VALUE: free_mem2Dlm:array2D <- [DW_OP_LLVM_entry_value 1] $rdi
	movl	$100, %esi
.Ltmp133:
	jmp	error@PLT                       # TAILCALL
.Ltmp134:
.LBB6_3:                                # %if.else
	.cfi_def_cfa_offset 16
	.cfi_offset %rbx, -16
	#DEBUG_VALUE: free_mem2Dlm:array2D <- $rbx
	.loc	0 146 7                         # ldecod_src/memalloc.c:146:7
	movl	$.L.str.5, %edi
	movl	$100, %esi
	callq	error@PLT
.Ltmp135:
	.loc	0 148 5                         # ldecod_src/memalloc.c:148:5
	movq	%rbx, %rdi
	.loc	0 148 5 epilogue_begin is_stmt 0 # ldecod_src/memalloc.c:148:5
	popq	%rbx
.Ltmp136:
	#DEBUG_VALUE: free_mem2Dlm:array2D <- $rdi
	.cfi_def_cfa_offset 8
	jmp	free@PLT                        # TAILCALL
.Ltmp137:
.Lfunc_end6:
	.size	free_mem2Dlm, .Lfunc_end6-free_mem2Dlm
	.cfi_endproc
                                        # -- End function
	.globl	get_mem2Dmp                     # -- Begin function get_mem2Dmp
	.p2align	4, 0x90
	.type	get_mem2Dmp,@function
get_mem2Dmp:                            # @get_mem2Dmp
.Lfunc_begin7:
	.loc	0 165 0 is_stmt 1               # ldecod_src/memalloc.c:165:0
	.cfi_startproc
# %bb.0:                                # %entry
	#DEBUG_VALUE: get_mem2Dmp:array2D <- $rdi
	#DEBUG_VALUE: get_mem2Dmp:dim0 <- $esi
	#DEBUG_VALUE: get_mem2Dmp:dim1 <- $edx
	pushq	%rbp
	.cfi_def_cfa_offset 16
	pushq	%r15
	.cfi_def_cfa_offset 24
	pushq	%r14
	.cfi_def_cfa_offset 32
	pushq	%rbx
	.cfi_def_cfa_offset 40
	pushq	%rax
	.cfi_def_cfa_offset 48
	.cfi_offset %rbx, -40
	.cfi_offset %r14, -32
	.cfi_offset %r15, -24
	.cfi_offset %rbp, -16
	movl	%edx, %ebx
	movl	%esi, %ebp
	movq	%rdi, %r14
.Ltmp138:
	.loc	0 168 47 prologue_end           # ldecod_src/memalloc.c:168:47
	movslq	%esi, %rdi
.Ltmp139:
	#DEBUG_VALUE: get_mem2Dmp:array2D <- $r14
	.loc	0 168 52 is_stmt 0              # ldecod_src/memalloc.c:168:52
	shlq	$3, %rdi
	.loc	0 168 40                        # ldecod_src/memalloc.c:168:40
	callq	malloc@PLT
.Ltmp140:
	#DEBUG_VALUE: get_mem2Dmp:dim1 <- $ebx
	#DEBUG_VALUE: get_mem2Dmp:dim0 <- $ebp
	movq	%rax, %r15
	.loc	0 168 19                        # ldecod_src/memalloc.c:168:19
	movq	%rax, (%r14)
	.loc	0 168 86                        # ldecod_src/memalloc.c:168:86
	testq	%rax, %rax
.Ltmp141:
	.loc	0 168 6                         # ldecod_src/memalloc.c:168:6
	jne	.LBB7_2
.Ltmp142:
# %bb.1:                                # %if.then
	#DEBUG_VALUE: get_mem2Dmp:array2D <- $r14
	#DEBUG_VALUE: get_mem2Dmp:dim0 <- $ebp
	#DEBUG_VALUE: get_mem2Dmp:dim1 <- $ebx
	.loc	0 1833 4 is_stmt 1              # ldecod_src/memalloc.c:1833:4
	movq	errortext@GOTPCREL(%rip), %r15
.Ltmp143:
	#DEBUG_VALUE: no_mem_exit:where <- undef
	movl	$300, %esi                      # imm = 0x12C
	movl	$.L.str.81, %edx
	movl	$.L.str.6, %ecx
	movq	%r15, %rdi
	xorl	%eax, %eax
	callq	snprintf@PLT
.Ltmp144:
	.loc	0 1834 4                        # ldecod_src/memalloc.c:1834:4
	movq	%r15, %rdi
	movl	$100, %esi
	callq	error@PLT
.Ltmp145:
	.loc	0 170 9                         # ldecod_src/memalloc.c:170:9
	movq	(%r14), %r15
.Ltmp146:
.LBB7_2:                                # %if.end
	#DEBUG_VALUE: get_mem2Dmp:array2D <- $r14
	#DEBUG_VALUE: get_mem2Dmp:dim0 <- $ebp
	#DEBUG_VALUE: get_mem2Dmp:dim1 <- $ebx
	.loc	0 170 52 is_stmt 0              # ldecod_src/memalloc.c:170:52
	movl	%ebx, %eax
	imull	%ebp, %eax
	.loc	0 170 47                        # ldecod_src/memalloc.c:170:47
	movslq	%eax, %rdi
	.loc	0 170 40                        # ldecod_src/memalloc.c:170:40
	movl	$32, %esi
	callq	calloc@PLT
.Ltmp147:
	.loc	0 170 19                        # ldecod_src/memalloc.c:170:19
	movq	%rax, (%r15)
	.loc	0 170 86                        # ldecod_src/memalloc.c:170:86
	testq	%rax, %rax
.Ltmp148:
	.loc	0 170 6                         # ldecod_src/memalloc.c:170:6
	je	.LBB7_3
.Ltmp149:
# %bb.4:                                # %if.end8
	#DEBUG_VALUE: get_mem2Dmp:array2D <- $r14
	#DEBUG_VALUE: get_mem2Dmp:dim0 <- $ebp
	#DEBUG_VALUE: get_mem2Dmp:dim1 <- $ebx
	#DEBUG_VALUE: get_mem2Dmp:i <- 1
	.loc	0 173 17 is_stmt 1              # ldecod_src/memalloc.c:173:17
	cmpl	$2, %ebp
.Ltmp150:
	.loc	0 173 3 is_stmt 0               # ldecod_src/memalloc.c:173:3
	jge	.LBB7_5
	jmp	.LBB7_12
.Ltmp151:
.LBB7_3:                                # %if.then7
	#DEBUG_VALUE: get_mem2Dmp:array2D <- $r14
	#DEBUG_VALUE: get_mem2Dmp:dim0 <- $ebp
	#DEBUG_VALUE: get_mem2Dmp:dim1 <- $ebx
	.loc	0 1833 4 is_stmt 1              # ldecod_src/memalloc.c:1833:4
	movq	errortext@GOTPCREL(%rip), %r15
.Ltmp152:
	#DEBUG_VALUE: no_mem_exit:where <- undef
	movl	$300, %esi                      # imm = 0x12C
	movl	$.L.str.81, %edx
	movl	$.L.str.7, %ecx
	movq	%r15, %rdi
	xorl	%eax, %eax
	callq	snprintf@PLT
.Ltmp153:
	.loc	0 1834 4                        # ldecod_src/memalloc.c:1834:4
	movq	%r15, %rdi
	movl	$100, %esi
	callq	error@PLT
.Ltmp154:
	#DEBUG_VALUE: get_mem2Dmp:i <- 1
	.loc	0 173 17                        # ldecod_src/memalloc.c:173:17
	cmpl	$2, %ebp
.Ltmp155:
	.loc	0 173 3 is_stmt 0               # ldecod_src/memalloc.c:173:3
	jl	.LBB7_12
.Ltmp156:
.LBB7_5:                                # %for.body.lr.ph
	#DEBUG_VALUE: get_mem2Dmp:array2D <- $r14
	#DEBUG_VALUE: get_mem2Dmp:dim0 <- $ebp
	#DEBUG_VALUE: get_mem2Dmp:dim1 <- $ebx
	#DEBUG_VALUE: get_mem2Dmp:i <- 1
	.loc	0 0 3                           # ldecod_src/memalloc.c:0:3
	movslq	%ebx, %rax
.Ltmp157:
	.loc	0 173 17                        # ldecod_src/memalloc.c:173:17
	movl	%ebp, %edi
.Ltmp158:
	.loc	0 173 3                         # ldecod_src/memalloc.c:173:3
	leaq	-1(%rdi), %rsi
	addq	$-2, %rdi
	movl	%esi, %ecx
	andl	$3, %ecx
	movl	$1, %edx
	cmpq	$3, %rdi
	jb	.LBB7_9
.Ltmp159:
# %bb.6:                                # %for.body.lr.ph.new
	#DEBUG_VALUE: get_mem2Dmp:array2D <- $r14
	#DEBUG_VALUE: get_mem2Dmp:dim0 <- $ebp
	#DEBUG_VALUE: get_mem2Dmp:dim1 <- $ebx
	#DEBUG_VALUE: get_mem2Dmp:i <- 1
	andq	$-4, %rsi
	xorl	%edx, %edx
	movq	%rax, %rdi
	shlq	$5, %rdi
.Ltmp160:
	.p2align	4, 0x90
.LBB7_7:                                # %for.body
                                        # =>This Inner Loop Header: Depth=1
	#DEBUG_VALUE: get_mem2Dmp:array2D <- $r14
	#DEBUG_VALUE: get_mem2Dmp:dim0 <- $ebp
	#DEBUG_VALUE: get_mem2Dmp:dim1 <- $ebx
	#DEBUG_VALUE: get_mem2Dmp:i <- 1
	.loc	0 174 23 is_stmt 1              # ldecod_src/memalloc.c:174:23
	movq	(%r14), %r8
	movq	(%r8,%rdx,8), %r9
	.loc	0 174 38 is_stmt 0              # ldecod_src/memalloc.c:174:38
	addq	%rdi, %r9
	.loc	0 174 19                        # ldecod_src/memalloc.c:174:19
	movq	%r9, 8(%r8,%rdx,8)
	.loc	0 174 23                        # ldecod_src/memalloc.c:174:23
	movq	(%r14), %r8
	movq	8(%r8,%rdx,8), %r9
	.loc	0 174 38                        # ldecod_src/memalloc.c:174:38
	addq	%rdi, %r9
	.loc	0 174 19                        # ldecod_src/memalloc.c:174:19
	movq	%r9, 16(%r8,%rdx,8)
	.loc	0 174 23                        # ldecod_src/memalloc.c:174:23
	movq	(%r14), %r8
	movq	16(%r8,%rdx,8), %r9
	.loc	0 174 38                        # ldecod_src/memalloc.c:174:38
	addq	%rdi, %r9
	.loc	0 174 19                        # ldecod_src/memalloc.c:174:19
	movq	%r9, 24(%r8,%rdx,8)
	.loc	0 174 23                        # ldecod_src/memalloc.c:174:23
	movq	(%r14), %r8
	movq	24(%r8,%rdx,8), %r9
	.loc	0 174 38                        # ldecod_src/memalloc.c:174:38
	addq	%rdi, %r9
	.loc	0 174 19                        # ldecod_src/memalloc.c:174:19
	movq	%r9, 32(%r8,%rdx,8)
.Ltmp161:
	.loc	0 173 3 is_stmt 1               # ldecod_src/memalloc.c:173:3
	addq	$4, %rdx
	cmpq	%rdx, %rsi
	jne	.LBB7_7
.Ltmp162:
# %bb.8:                                # %for.end.loopexit.unr-lcssa.loopexit
	#DEBUG_VALUE: get_mem2Dmp:array2D <- $r14
	#DEBUG_VALUE: get_mem2Dmp:dim0 <- $ebp
	#DEBUG_VALUE: get_mem2Dmp:dim1 <- $ebx
	#DEBUG_VALUE: get_mem2Dmp:i <- 1
	incq	%rdx
.Ltmp163:
.LBB7_9:                                # %for.end.loopexit.unr-lcssa
	#DEBUG_VALUE: get_mem2Dmp:array2D <- $r14
	#DEBUG_VALUE: get_mem2Dmp:dim0 <- $ebp
	#DEBUG_VALUE: get_mem2Dmp:dim1 <- $ebx
	#DEBUG_VALUE: get_mem2Dmp:i <- 1
	testq	%rcx, %rcx
	je	.LBB7_12
.Ltmp164:
# %bb.10:                               # %for.body.epil.preheader
	#DEBUG_VALUE: get_mem2Dmp:array2D <- $r14
	#DEBUG_VALUE: get_mem2Dmp:dim0 <- $ebp
	#DEBUG_VALUE: get_mem2Dmp:dim1 <- $ebx
	#DEBUG_VALUE: get_mem2Dmp:i <- 1
	.loc	0 0 3 is_stmt 0                 # ldecod_src/memalloc.c:0:3
	shlq	$5, %rax
.Ltmp165:
	.p2align	4, 0x90
.LBB7_11:                               # %for.body.epil
                                        # =>This Inner Loop Header: Depth=1
	#DEBUG_VALUE: get_mem2Dmp:array2D <- $r14
	#DEBUG_VALUE: get_mem2Dmp:dim0 <- $ebp
	#DEBUG_VALUE: get_mem2Dmp:dim1 <- $ebx
	#DEBUG_VALUE: get_mem2Dmp:i <- $rdx
	.loc	0 174 23 is_stmt 1              # ldecod_src/memalloc.c:174:23
	movq	(%r14), %rsi
	movq	-8(%rsi,%rdx,8), %rdi
	.loc	0 174 38 is_stmt 0              # ldecod_src/memalloc.c:174:38
	addq	%rax, %rdi
	.loc	0 174 19                        # ldecod_src/memalloc.c:174:19
	movq	%rdi, (%rsi,%rdx,8)
	.loc	0 173 26 is_stmt 1              # ldecod_src/memalloc.c:173:26
	incq	%rdx
.Ltmp166:
	#DEBUG_VALUE: get_mem2Dmp:i <- $rdx
	.loc	0 173 3 is_stmt 0               # ldecod_src/memalloc.c:173:3
	decq	%rcx
	jne	.LBB7_11
.Ltmp167:
.LBB7_12:                               # %for.end
	#DEBUG_VALUE: get_mem2Dmp:array2D <- $r14
	#DEBUG_VALUE: get_mem2Dmp:dim0 <- $ebp
	#DEBUG_VALUE: get_mem2Dmp:dim1 <- $ebx
	.loc	0 176 50 is_stmt 1              # ldecod_src/memalloc.c:176:50
	shll	$5, %ebx
.Ltmp168:
	#DEBUG_VALUE: get_mem2Dmp:dim1 <- [DW_OP_LLVM_entry_value 1] $edx
	.loc	0 176 43 is_stmt 0              # ldecod_src/memalloc.c:176:43
	orl	$8, %ebx
	.loc	0 176 15                        # ldecod_src/memalloc.c:176:15
	imull	%ebp, %ebx
	.loc	0 176 3                         # ldecod_src/memalloc.c:176:3
	movl	%ebx, %eax
	.loc	0 176 3 epilogue_begin          # ldecod_src/memalloc.c:176:3
	addq	$8, %rsp
	.cfi_def_cfa_offset 40
	popq	%rbx
	.cfi_def_cfa_offset 32
	popq	%r14
.Ltmp169:
	#DEBUG_VALUE: get_mem2Dmp:array2D <- [DW_OP_LLVM_entry_value 1] $rdi
	.cfi_def_cfa_offset 24
	popq	%r15
	.cfi_def_cfa_offset 16
	popq	%rbp
.Ltmp170:
	#DEBUG_VALUE: get_mem2Dmp:dim0 <- [DW_OP_LLVM_entry_value 1] $esi
	.cfi_def_cfa_offset 8
	retq
.Ltmp171:
.Lfunc_end7:
	.size	get_mem2Dmp, .Lfunc_end7-get_mem2Dmp
	.cfi_endproc
                                        # -- End function
	.globl	get_mem3Dmp                     # -- Begin function get_mem3Dmp
	.p2align	4, 0x90
	.type	get_mem3Dmp,@function
get_mem3Dmp:                            # @get_mem3Dmp
.Lfunc_begin8:
	.loc	0 189 0 is_stmt 1               # ldecod_src/memalloc.c:189:0
	.cfi_startproc
# %bb.0:                                # %entry
	#DEBUG_VALUE: get_mem3Dmp:array3D <- $rdi
	#DEBUG_VALUE: get_mem3Dmp:dim0 <- $esi
	#DEBUG_VALUE: get_mem3Dmp:dim1 <- $edx
	#DEBUG_VALUE: get_mem3Dmp:dim2 <- $ecx
	pushq	%rbp
	.cfi_def_cfa_offset 16
	pushq	%r15
	.cfi_def_cfa_offset 24
	pushq	%r14
	.cfi_def_cfa_offset 32
	pushq	%r13
	.cfi_def_cfa_offset 40
	pushq	%r12
	.cfi_def_cfa_offset 48
	pushq	%rbx
	.cfi_def_cfa_offset 56
	pushq	%rax
	.cfi_def_cfa_offset 64
	.cfi_offset %rbx, -56
	.cfi_offset %r12, -48
	.cfi_offset %r13, -40
	.cfi_offset %r14, -32
	.cfi_offset %r15, -24
	.cfi_offset %rbp, -16
	movl	%ecx, %r12d
	movl	%edx, %r15d
	movl	%esi, %ebp
	movq	%rdi, %r14
.Ltmp172:
	.loc	0 190 21 prologue_end           # ldecod_src/memalloc.c:190:21
	movslq	%esi, %rbx
	.loc	0 190 26 is_stmt 0              # ldecod_src/memalloc.c:190:26
	shlq	$3, %rbx
.Ltmp173:
	#DEBUG_VALUE: get_mem3Dmp:mem_size <- [DW_OP_LLVM_convert 64 7, DW_OP_LLVM_convert 32 7, DW_OP_stack_value] $rbx
	.loc	0 192 40 is_stmt 1              # ldecod_src/memalloc.c:192:40
	movq	%rbx, %rdi
.Ltmp174:
	#DEBUG_VALUE: get_mem3Dmp:array3D <- $r14
	callq	malloc@PLT
.Ltmp175:
	#DEBUG_VALUE: get_mem3Dmp:dim2 <- $r12d
	#DEBUG_VALUE: get_mem3Dmp:dim1 <- $r15d
	#DEBUG_VALUE: get_mem3Dmp:dim0 <- $ebp
	.loc	0 192 18 is_stmt 0              # ldecod_src/memalloc.c:192:18
	movq	%rax, (%r14)
	.loc	0 192 82                        # ldecod_src/memalloc.c:192:82
	testq	%rax, %rax
.Ltmp176:
	.loc	0 192 6                         # ldecod_src/memalloc.c:192:6
	jne	.LBB8_2
.Ltmp177:
# %bb.1:                                # %if.then
	#DEBUG_VALUE: get_mem3Dmp:array3D <- $r14
	#DEBUG_VALUE: get_mem3Dmp:dim0 <- $ebp
	#DEBUG_VALUE: get_mem3Dmp:dim1 <- $r15d
	#DEBUG_VALUE: get_mem3Dmp:dim2 <- $r12d
	#DEBUG_VALUE: get_mem3Dmp:mem_size <- [DW_OP_LLVM_convert 64 7, DW_OP_LLVM_convert 32 7, DW_OP_stack_value] $rbx
	.loc	0 1833 4 is_stmt 1              # ldecod_src/memalloc.c:1833:4
	movq	errortext@GOTPCREL(%rip), %r13
.Ltmp178:
	#DEBUG_VALUE: no_mem_exit:where <- undef
	movl	$300, %esi                      # imm = 0x12C
	movl	$.L.str.81, %edx
	movl	$.L.str.8, %ecx
	movq	%r13, %rdi
	xorl	%eax, %eax
	callq	snprintf@PLT
.Ltmp179:
	.loc	0 1834 4                        # ldecod_src/memalloc.c:1834:4
	movq	%r13, %rdi
	movl	$100, %esi
	callq	error@PLT
.Ltmp180:
	.loc	0 195 27                        # ldecod_src/memalloc.c:195:27
	movq	(%r14), %rax
.Ltmp181:
.LBB8_2:                                # %if.end
	#DEBUG_VALUE: get_mem3Dmp:array3D <- $r14
	#DEBUG_VALUE: get_mem3Dmp:dim0 <- $ebp
	#DEBUG_VALUE: get_mem3Dmp:dim1 <- $r15d
	#DEBUG_VALUE: get_mem3Dmp:dim2 <- $r12d
	#DEBUG_VALUE: get_mem3Dmp:mem_size <- [DW_OP_LLVM_convert 64 7, DW_OP_LLVM_convert 32 7, DW_OP_stack_value] $rbx
	.loc	0 195 42 is_stmt 0              # ldecod_src/memalloc.c:195:42
	movl	%r15d, %esi
	imull	%ebp, %esi
	.loc	0 195 15                        # ldecod_src/memalloc.c:195:15
	movq	%rax, %rdi
	movl	%r12d, %edx
	callq	get_mem2Dmp
.Ltmp182:
	#DEBUG_VALUE: get_mem3Dmp:mem_size <- [DW_OP_LLVM_arg 0, DW_OP_LLVM_convert 64 7, DW_OP_LLVM_convert 32 7, DW_OP_LLVM_arg 1, DW_OP_plus, DW_OP_stack_value] $rbx, $eax
	#DEBUG_VALUE: get_mem3Dmp:i <- 1
	.loc	0 197 16 is_stmt 1              # ldecod_src/memalloc.c:197:16
	cmpl	$2, %ebp
.Ltmp183:
	.loc	0 197 3 is_stmt 0               # ldecod_src/memalloc.c:197:3
	jl	.LBB8_10
.Ltmp184:
# %bb.3:                                # %for.body.lr.ph
	#DEBUG_VALUE: get_mem3Dmp:array3D <- $r14
	#DEBUG_VALUE: get_mem3Dmp:dim0 <- $ebp
	#DEBUG_VALUE: get_mem3Dmp:dim1 <- $r15d
	#DEBUG_VALUE: get_mem3Dmp:dim2 <- $r12d
	#DEBUG_VALUE: get_mem3Dmp:mem_size <- [DW_OP_LLVM_arg 0, DW_OP_LLVM_convert 64 7, DW_OP_LLVM_convert 32 7, DW_OP_LLVM_arg 1, DW_OP_plus, DW_OP_stack_value] $rbx, $eax
	#DEBUG_VALUE: get_mem3Dmp:i <- 1
	.loc	0 0 3                           # ldecod_src/memalloc.c:0:3
	movslq	%r15d, %rcx
.Ltmp185:
	.loc	0 197 16                        # ldecod_src/memalloc.c:197:16
	movl	%ebp, %r8d
.Ltmp186:
	.loc	0 197 3                         # ldecod_src/memalloc.c:197:3
	leaq	-1(%r8), %rdi
	addq	$-2, %r8
	movl	%edi, %edx
	andl	$3, %edx
	movl	$1, %esi
	cmpq	$3, %r8
	jb	.LBB8_7
.Ltmp187:
# %bb.4:                                # %for.body.lr.ph.new
	#DEBUG_VALUE: get_mem3Dmp:array3D <- $r14
	#DEBUG_VALUE: get_mem3Dmp:dim0 <- $ebp
	#DEBUG_VALUE: get_mem3Dmp:dim1 <- $r15d
	#DEBUG_VALUE: get_mem3Dmp:dim2 <- $r12d
	#DEBUG_VALUE: get_mem3Dmp:mem_size <- [DW_OP_LLVM_arg 0, DW_OP_LLVM_convert 64 7, DW_OP_LLVM_convert 32 7, DW_OP_LLVM_arg 1, DW_OP_plus, DW_OP_stack_value] $rbx, $eax
	#DEBUG_VALUE: get_mem3Dmp:i <- 1
	andq	$-4, %rdi
	xorl	%esi, %esi
	leaq	(,%rcx,8), %r8
.Ltmp188:
	.p2align	4, 0x90
.LBB8_5:                                # %for.body
                                        # =>This Inner Loop Header: Depth=1
	#DEBUG_VALUE: get_mem3Dmp:array3D <- $r14
	#DEBUG_VALUE: get_mem3Dmp:dim0 <- $ebp
	#DEBUG_VALUE: get_mem3Dmp:dim1 <- $r15d
	#DEBUG_VALUE: get_mem3Dmp:dim2 <- $r12d
	#DEBUG_VALUE: get_mem3Dmp:mem_size <- [DW_OP_LLVM_arg 0, DW_OP_LLVM_convert 64 7, DW_OP_LLVM_convert 32 7, DW_OP_LLVM_arg 1, DW_OP_plus, DW_OP_stack_value] $rbx, $eax
	#DEBUG_VALUE: get_mem3Dmp:i <- 1
	.loc	0 198 22 is_stmt 1              # ldecod_src/memalloc.c:198:22
	movq	(%r14), %r9
	movq	(%r9,%rsi,8), %r10
	.loc	0 198 39 is_stmt 0              # ldecod_src/memalloc.c:198:39
	addq	%r8, %r10
	.loc	0 198 19                        # ldecod_src/memalloc.c:198:19
	movq	%r10, 8(%r9,%rsi,8)
	.loc	0 198 22                        # ldecod_src/memalloc.c:198:22
	movq	(%r14), %r9
	movq	8(%r9,%rsi,8), %r10
	.loc	0 198 39                        # ldecod_src/memalloc.c:198:39
	addq	%r8, %r10
	.loc	0 198 19                        # ldecod_src/memalloc.c:198:19
	movq	%r10, 16(%r9,%rsi,8)
	.loc	0 198 22                        # ldecod_src/memalloc.c:198:22
	movq	(%r14), %r9
	movq	16(%r9,%rsi,8), %r10
	.loc	0 198 39                        # ldecod_src/memalloc.c:198:39
	addq	%r8, %r10
	.loc	0 198 19                        # ldecod_src/memalloc.c:198:19
	movq	%r10, 24(%r9,%rsi,8)
	.loc	0 198 22                        # ldecod_src/memalloc.c:198:22
	movq	(%r14), %r9
	movq	24(%r9,%rsi,8), %r10
	.loc	0 198 39                        # ldecod_src/memalloc.c:198:39
	addq	%r8, %r10
	.loc	0 198 19                        # ldecod_src/memalloc.c:198:19
	movq	%r10, 32(%r9,%rsi,8)
.Ltmp189:
	.loc	0 197 3 is_stmt 1               # ldecod_src/memalloc.c:197:3
	addq	$4, %rsi
	cmpq	%rsi, %rdi
	jne	.LBB8_5
.Ltmp190:
# %bb.6:                                # %for.end.loopexit.unr-lcssa.loopexit
	#DEBUG_VALUE: get_mem3Dmp:array3D <- $r14
	#DEBUG_VALUE: get_mem3Dmp:dim0 <- $ebp
	#DEBUG_VALUE: get_mem3Dmp:dim1 <- $r15d
	#DEBUG_VALUE: get_mem3Dmp:dim2 <- $r12d
	#DEBUG_VALUE: get_mem3Dmp:mem_size <- [DW_OP_LLVM_arg 0, DW_OP_LLVM_convert 64 7, DW_OP_LLVM_convert 32 7, DW_OP_LLVM_arg 1, DW_OP_plus, DW_OP_stack_value] $rbx, $eax
	#DEBUG_VALUE: get_mem3Dmp:i <- 1
	incq	%rsi
.Ltmp191:
.LBB8_7:                                # %for.end.loopexit.unr-lcssa
	#DEBUG_VALUE: get_mem3Dmp:array3D <- $r14
	#DEBUG_VALUE: get_mem3Dmp:dim0 <- $ebp
	#DEBUG_VALUE: get_mem3Dmp:dim1 <- $r15d
	#DEBUG_VALUE: get_mem3Dmp:dim2 <- $r12d
	#DEBUG_VALUE: get_mem3Dmp:mem_size <- [DW_OP_LLVM_arg 0, DW_OP_LLVM_convert 64 7, DW_OP_LLVM_convert 32 7, DW_OP_LLVM_arg 1, DW_OP_plus, DW_OP_stack_value] $rbx, $eax
	#DEBUG_VALUE: get_mem3Dmp:i <- 1
	testq	%rdx, %rdx
	je	.LBB8_10
.Ltmp192:
# %bb.8:                                # %for.body.epil.preheader
	#DEBUG_VALUE: get_mem3Dmp:array3D <- $r14
	#DEBUG_VALUE: get_mem3Dmp:dim0 <- $ebp
	#DEBUG_VALUE: get_mem3Dmp:dim1 <- $r15d
	#DEBUG_VALUE: get_mem3Dmp:dim2 <- $r12d
	#DEBUG_VALUE: get_mem3Dmp:mem_size <- [DW_OP_LLVM_arg 0, DW_OP_LLVM_convert 64 7, DW_OP_LLVM_convert 32 7, DW_OP_LLVM_arg 1, DW_OP_plus, DW_OP_stack_value] $rbx, $eax
	#DEBUG_VALUE: get_mem3Dmp:i <- 1
	.loc	0 0 3 is_stmt 0                 # ldecod_src/memalloc.c:0:3
	shlq	$3, %rcx
.Ltmp193:
	.p2align	4, 0x90
.LBB8_9:                                # %for.body.epil
                                        # =>This Inner Loop Header: Depth=1
	#DEBUG_VALUE: get_mem3Dmp:array3D <- $r14
	#DEBUG_VALUE: get_mem3Dmp:dim0 <- $ebp
	#DEBUG_VALUE: get_mem3Dmp:dim1 <- $r15d
	#DEBUG_VALUE: get_mem3Dmp:dim2 <- $r12d
	#DEBUG_VALUE: get_mem3Dmp:mem_size <- [DW_OP_LLVM_arg 0, DW_OP_LLVM_convert 64 7, DW_OP_LLVM_convert 32 7, DW_OP_LLVM_arg 1, DW_OP_plus, DW_OP_stack_value] $rbx, $eax
	#DEBUG_VALUE: get_mem3Dmp:i <- $rsi
	.loc	0 198 22 is_stmt 1              # ldecod_src/memalloc.c:198:22
	movq	(%r14), %rdi
	movq	-8(%rdi,%rsi,8), %r8
	.loc	0 198 39 is_stmt 0              # ldecod_src/memalloc.c:198:39
	addq	%rcx, %r8
	.loc	0 198 19                        # ldecod_src/memalloc.c:198:19
	movq	%r8, (%rdi,%rsi,8)
	.loc	0 197 25 is_stmt 1              # ldecod_src/memalloc.c:197:25
	incq	%rsi
.Ltmp194:
	#DEBUG_VALUE: get_mem3Dmp:i <- $rsi
	.loc	0 197 3 is_stmt 0               # ldecod_src/memalloc.c:197:3
	decq	%rdx
	jne	.LBB8_9
.Ltmp195:
.LBB8_10:                               # %for.end
	#DEBUG_VALUE: get_mem3Dmp:array3D <- $r14
	#DEBUG_VALUE: get_mem3Dmp:dim0 <- $ebp
	#DEBUG_VALUE: get_mem3Dmp:dim1 <- $r15d
	#DEBUG_VALUE: get_mem3Dmp:dim2 <- $r12d
	#DEBUG_VALUE: get_mem3Dmp:mem_size <- [DW_OP_LLVM_arg 0, DW_OP_LLVM_convert 64 7, DW_OP_LLVM_convert 32 7, DW_OP_LLVM_arg 1, DW_OP_plus, DW_OP_stack_value] $rbx, $eax
	#DEBUG_VALUE: get_mem3Dmp:mem_size <- $ebx
	.loc	0 195 12 is_stmt 1              # ldecod_src/memalloc.c:195:12
	addl	%ebx, %eax
.Ltmp196:
	#DEBUG_VALUE: get_mem3Dmp:mem_size <- $eax
	.loc	0 200 3 epilogue_begin          # ldecod_src/memalloc.c:200:3
	addq	$8, %rsp
	.cfi_def_cfa_offset 56
	popq	%rbx
	.cfi_def_cfa_offset 48
	popq	%r12
.Ltmp197:
	#DEBUG_VALUE: get_mem3Dmp:dim2 <- [DW_OP_LLVM_entry_value 1] $ecx
	.cfi_def_cfa_offset 40
	popq	%r13
	.cfi_def_cfa_offset 32
	popq	%r14
.Ltmp198:
	#DEBUG_VALUE: get_mem3Dmp:array3D <- [DW_OP_LLVM_entry_value 1] $rdi
	.cfi_def_cfa_offset 24
	popq	%r15
.Ltmp199:
	#DEBUG_VALUE: get_mem3Dmp:dim1 <- [DW_OP_LLVM_entry_value 1] $edx
	.cfi_def_cfa_offset 16
	popq	%rbp
.Ltmp200:
	#DEBUG_VALUE: get_mem3Dmp:dim0 <- [DW_OP_LLVM_entry_value 1] $esi
	.cfi_def_cfa_offset 8
	retq
.Ltmp201:
.Lfunc_end8:
	.size	get_mem3Dmp, .Lfunc_end8-get_mem3Dmp
	.cfi_endproc
                                        # -- End function
	.globl	free_mem2Dmp                    # -- Begin function free_mem2Dmp
	.p2align	4, 0x90
	.type	free_mem2Dmp,@function
free_mem2Dmp:                           # @free_mem2Dmp
.Lfunc_begin9:
	.cfi_startproc
# %bb.0:                                # %entry
	#DEBUG_VALUE: free_mem2Dmp:array2D <- $rdi
	.loc	0 212 7 prologue_end            # ldecod_src/memalloc.c:212:7
	testq	%rdi, %rdi
.Ltmp202:
	.loc	0 212 7 is_stmt 0               # ldecod_src/memalloc.c:212:7
	je	.LBB9_5
.Ltmp203:
# %bb.1:                                # %if.then
	#DEBUG_VALUE: free_mem2Dmp:array2D <- $rdi
	pushq	%rbx
	.cfi_def_cfa_offset 16
	.cfi_offset %rbx, -16
	movq	%rdi, %rbx
.Ltmp204:
	.loc	0 214 9 is_stmt 1               # ldecod_src/memalloc.c:214:9
	movq	(%rdi), %rdi
.Ltmp205:
	#DEBUG_VALUE: free_mem2Dmp:array2D <- $rbx
	testq	%rdi, %rdi
.Ltmp206:
	.loc	0 214 9 is_stmt 0               # ldecod_src/memalloc.c:214:9
	je	.LBB9_3
.Ltmp207:
# %bb.2:                                # %if.then2
	#DEBUG_VALUE: free_mem2Dmp:array2D <- $rbx
	.loc	0 215 7 is_stmt 1               # ldecod_src/memalloc.c:215:7
	callq	free@PLT
.Ltmp208:
	.loc	0 219 5                         # ldecod_src/memalloc.c:219:5
	movq	%rbx, %rdi
	.loc	0 219 5 epilogue_begin is_stmt 0 # ldecod_src/memalloc.c:219:5
	popq	%rbx
.Ltmp209:
	#DEBUG_VALUE: free_mem2Dmp:array2D <- $rdi
	.cfi_def_cfa_offset 8
	jmp	free@PLT                        # TAILCALL
.Ltmp210:
.LBB9_5:                                # %if.else3
	.cfi_restore %rbx
	#DEBUG_VALUE: free_mem2Dmp:array2D <- $rdi
	.loc	0 223 5 is_stmt 1               # ldecod_src/memalloc.c:223:5
	movl	$.L.str.9, %edi
.Ltmp211:
	#DEBUG_VALUE: free_mem2Dmp:array2D <- [DW_OP_LLVM_entry_value 1] $rdi
	movl	$100, %esi
.Ltmp212:
	jmp	error@PLT                       # TAILCALL
.Ltmp213:
.LBB9_3:                                # %if.else
	.cfi_def_cfa_offset 16
	.cfi_offset %rbx, -16
	#DEBUG_VALUE: free_mem2Dmp:array2D <- $rbx
	.loc	0 217 7                         # ldecod_src/memalloc.c:217:7
	movl	$.L.str.9, %edi
	movl	$100, %esi
	callq	error@PLT
.Ltmp214:
	.loc	0 219 5                         # ldecod_src/memalloc.c:219:5
	movq	%rbx, %rdi
	.loc	0 219 5 epilogue_begin is_stmt 0 # ldecod_src/memalloc.c:219:5
	popq	%rbx
.Ltmp215:
	#DEBUG_VALUE: free_mem2Dmp:array2D <- $rdi
	.cfi_def_cfa_offset 8
	jmp	free@PLT                        # TAILCALL
.Ltmp216:
.Lfunc_end9:
	.size	free_mem2Dmp, .Lfunc_end9-free_mem2Dmp
	.cfi_endproc
                                        # -- End function
	.globl	free_mem3Dmp                    # -- Begin function free_mem3Dmp
	.p2align	4, 0x90
	.type	free_mem3Dmp,@function
free_mem3Dmp:                           # @free_mem3Dmp
.Lfunc_begin10:
	.cfi_startproc
# %bb.0:                                # %entry
	#DEBUG_VALUE: free_mem3Dmp:array3D <- $rdi
	.loc	0 237 7 prologue_end is_stmt 1  # ldecod_src/memalloc.c:237:7
	testq	%rdi, %rdi
.Ltmp217:
	.loc	0 237 7 is_stmt 0               # ldecod_src/memalloc.c:237:7
	je	.LBB10_8
.Ltmp218:
# %bb.1:                                # %if.then
	#DEBUG_VALUE: free_mem3Dmp:array3D <- $rdi
	pushq	%r14
	.cfi_def_cfa_offset 16
	pushq	%rbx
	.cfi_def_cfa_offset 24
	pushq	%rax
	.cfi_def_cfa_offset 32
	.cfi_offset %rbx, -24
	.cfi_offset %r14, -16
	movq	%rdi, %rbx
.Ltmp219:
	.loc	0 239 18 is_stmt 1              # ldecod_src/memalloc.c:239:18
	movq	(%rdi), %r14
.Ltmp220:
	#DEBUG_VALUE: free_mem2Dmp:array2D <- $r14
	.loc	0 212 7                         # ldecod_src/memalloc.c:212:7
	testq	%r14, %r14
.Ltmp221:
	.loc	0 212 7 is_stmt 0               # ldecod_src/memalloc.c:212:7
	je	.LBB10_6
.Ltmp222:
# %bb.2:                                # %if.then.i
	#DEBUG_VALUE: free_mem3Dmp:array3D <- $rbx
	#DEBUG_VALUE: free_mem2Dmp:array2D <- $r14
	.loc	0 214 9 is_stmt 1               # ldecod_src/memalloc.c:214:9
	movq	(%r14), %rdi
	testq	%rdi, %rdi
.Ltmp223:
	.loc	0 214 9 is_stmt 0               # ldecod_src/memalloc.c:214:9
	je	.LBB10_4
.Ltmp224:
# %bb.3:                                # %if.then2.i
	#DEBUG_VALUE: free_mem3Dmp:array3D <- $rbx
	#DEBUG_VALUE: free_mem2Dmp:array2D <- $r14
	.loc	0 215 7 is_stmt 1               # ldecod_src/memalloc.c:215:7
	callq	free@PLT
.Ltmp225:
	jmp	.LBB10_5
.Ltmp226:
.LBB10_8:                               # %if.else
	.cfi_def_cfa_offset 8
	.cfi_restore %rbx
	.cfi_restore %r14
	#DEBUG_VALUE: free_mem3Dmp:array3D <- $rdi
	.loc	0 244 5                         # ldecod_src/memalloc.c:244:5
	movl	$.L.str.10, %edi
.Ltmp227:
	#DEBUG_VALUE: free_mem3Dmp:array3D <- [DW_OP_LLVM_entry_value 1] $rdi
	movl	$100, %esi
.Ltmp228:
	jmp	error@PLT                       # TAILCALL
.Ltmp229:
.LBB10_6:                               # %if.else3.i
	.cfi_def_cfa_offset 32
	.cfi_offset %rbx, -24
	.cfi_offset %r14, -16
	#DEBUG_VALUE: free_mem3Dmp:array3D <- $rbx
	#DEBUG_VALUE: free_mem2Dmp:array2D <- $r14
	.loc	0 223 5                         # ldecod_src/memalloc.c:223:5
	movl	$.L.str.9, %edi
	movl	$100, %esi
	callq	error@PLT
.Ltmp230:
	.loc	0 0 5 is_stmt 0                 # ldecod_src/memalloc.c:0:5
	jmp	.LBB10_7
.Ltmp231:
.LBB10_4:                               # %if.else.i
	#DEBUG_VALUE: free_mem3Dmp:array3D <- $rbx
	#DEBUG_VALUE: free_mem2Dmp:array2D <- $r14
	.loc	0 217 7 is_stmt 1               # ldecod_src/memalloc.c:217:7
	movl	$.L.str.9, %edi
	movl	$100, %esi
	callq	error@PLT
.Ltmp232:
.LBB10_5:                               # %if.end.i
	#DEBUG_VALUE: free_mem3Dmp:array3D <- $rbx
	#DEBUG_VALUE: free_mem2Dmp:array2D <- $r14
	.loc	0 219 5                         # ldecod_src/memalloc.c:219:5
	movq	%r14, %rdi
	callq	free@PLT
.Ltmp233:
.LBB10_7:                               # %free_mem2Dmp.exit
	#DEBUG_VALUE: free_mem3Dmp:array3D <- $rbx
	.loc	0 240 5                         # ldecod_src/memalloc.c:240:5
	movq	%rbx, %rdi
	.loc	0 240 5 epilogue_begin is_stmt 0 # ldecod_src/memalloc.c:240:5
	addq	$8, %rsp
	.cfi_def_cfa_offset 24
	popq	%rbx
.Ltmp234:
	#DEBUG_VALUE: free_mem3Dmp:array3D <- $rdi
	.cfi_def_cfa_offset 16
	popq	%r14
	.cfi_def_cfa_offset 8
.Ltmp235:
	jmp	free@PLT                        # TAILCALL
.Ltmp236:
.Lfunc_end10:
	.size	free_mem3Dmp, .Lfunc_end10-free_mem3Dmp
	.cfi_endproc
                                        # -- End function
	.globl	get_mem2Dquant                  # -- Begin function get_mem2Dquant
	.p2align	4, 0x90
	.type	get_mem2Dquant,@function
get_mem2Dquant:                         # @get_mem2Dquant
.Lfunc_begin11:
	.loc	0 259 0 is_stmt 1               # ldecod_src/memalloc.c:259:0
	.cfi_startproc
# %bb.0:                                # %entry
	#DEBUG_VALUE: get_mem2Dquant:array2D <- $rdi
	#DEBUG_VALUE: get_mem2Dquant:dim0 <- $esi
	#DEBUG_VALUE: get_mem2Dquant:dim1 <- $edx
	pushq	%r15
	.cfi_def_cfa_offset 16
	pushq	%r14
	.cfi_def_cfa_offset 24
	pushq	%r12
	.cfi_def_cfa_offset 32
	pushq	%rbx
	.cfi_def_cfa_offset 40
	pushq	%rax
	.cfi_def_cfa_offset 48
	.cfi_offset %rbx, -40
	.cfi_offset %r12, -32
	.cfi_offset %r14, -24
	.cfi_offset %r15, -16
	movl	%edx, %r14d
	movl	%esi, %ebx
	movq	%rdi, %r15
.Ltmp237:
	.loc	0 262 49 prologue_end           # ldecod_src/memalloc.c:262:49
	movslq	%esi, %rdi
.Ltmp238:
	#DEBUG_VALUE: get_mem2Dquant:array2D <- $r15
	.loc	0 262 54 is_stmt 0              # ldecod_src/memalloc.c:262:54
	shlq	$3, %rdi
	.loc	0 262 42                        # ldecod_src/memalloc.c:262:42
	callq	malloc@PLT
.Ltmp239:
	#DEBUG_VALUE: get_mem2Dquant:dim1 <- $r14d
	#DEBUG_VALUE: get_mem2Dquant:dim0 <- $ebx
	movq	%rax, %r12
	.loc	0 262 19                        # ldecod_src/memalloc.c:262:19
	movq	%rax, (%r15)
	.loc	0 262 84                        # ldecod_src/memalloc.c:262:84
	testq	%rax, %rax
.Ltmp240:
	.loc	0 262 6                         # ldecod_src/memalloc.c:262:6
	jne	.LBB11_2
.Ltmp241:
# %bb.1:                                # %if.then
	#DEBUG_VALUE: get_mem2Dquant:array2D <- $r15
	#DEBUG_VALUE: get_mem2Dquant:dim0 <- $ebx
	#DEBUG_VALUE: get_mem2Dquant:dim1 <- $r14d
	.loc	0 1833 4 is_stmt 1              # ldecod_src/memalloc.c:1833:4
	movq	errortext@GOTPCREL(%rip), %r12
.Ltmp242:
	#DEBUG_VALUE: no_mem_exit:where <- undef
	movl	$300, %esi                      # imm = 0x12C
	movl	$.L.str.81, %edx
	movl	$.L.str.11, %ecx
	movq	%r12, %rdi
	xorl	%eax, %eax
	callq	snprintf@PLT
.Ltmp243:
	.loc	0 1834 4                        # ldecod_src/memalloc.c:1834:4
	movq	%r12, %rdi
	movl	$100, %esi
	callq	error@PLT
.Ltmp244:
	.loc	0 264 9                         # ldecod_src/memalloc.c:264:9
	movq	(%r15), %r12
.Ltmp245:
.LBB11_2:                               # %if.end
	#DEBUG_VALUE: get_mem2Dquant:array2D <- $r15
	#DEBUG_VALUE: get_mem2Dquant:dim0 <- $ebx
	#DEBUG_VALUE: get_mem2Dquant:dim1 <- $r14d
	.loc	0 264 54 is_stmt 0              # ldecod_src/memalloc.c:264:54
	movl	%r14d, %eax
	imull	%ebx, %eax
	.loc	0 264 49                        # ldecod_src/memalloc.c:264:49
	movslq	%eax, %rdi
	.loc	0 264 42                        # ldecod_src/memalloc.c:264:42
	movl	$12, %esi
	callq	calloc@PLT
.Ltmp246:
	.loc	0 264 19                        # ldecod_src/memalloc.c:264:19
	movq	%rax, (%r12)
	.loc	0 264 89                        # ldecod_src/memalloc.c:264:89
	testq	%rax, %rax
.Ltmp247:
	.loc	0 264 6                         # ldecod_src/memalloc.c:264:6
	je	.LBB11_3
.Ltmp248:
# %bb.4:                                # %if.end8
	#DEBUG_VALUE: get_mem2Dquant:array2D <- $r15
	#DEBUG_VALUE: get_mem2Dquant:dim0 <- $ebx
	#DEBUG_VALUE: get_mem2Dquant:dim1 <- $r14d
	#DEBUG_VALUE: get_mem2Dquant:i <- 1
	.loc	0 267 17 is_stmt 1              # ldecod_src/memalloc.c:267:17
	cmpl	$2, %ebx
.Ltmp249:
	.loc	0 267 3 is_stmt 0               # ldecod_src/memalloc.c:267:3
	jge	.LBB11_5
	jmp	.LBB11_12
.Ltmp250:
.LBB11_3:                               # %if.then7
	#DEBUG_VALUE: get_mem2Dquant:array2D <- $r15
	#DEBUG_VALUE: get_mem2Dquant:dim0 <- $ebx
	#DEBUG_VALUE: get_mem2Dquant:dim1 <- $r14d
	.loc	0 1833 4 is_stmt 1              # ldecod_src/memalloc.c:1833:4
	movq	errortext@GOTPCREL(%rip), %r12
.Ltmp251:
	#DEBUG_VALUE: no_mem_exit:where <- undef
	movl	$300, %esi                      # imm = 0x12C
	movl	$.L.str.81, %edx
	movl	$.L.str.11, %ecx
	movq	%r12, %rdi
	xorl	%eax, %eax
	callq	snprintf@PLT
.Ltmp252:
	.loc	0 1834 4                        # ldecod_src/memalloc.c:1834:4
	movq	%r12, %rdi
	movl	$100, %esi
	callq	error@PLT
.Ltmp253:
	#DEBUG_VALUE: get_mem2Dquant:i <- 1
	.loc	0 267 17                        # ldecod_src/memalloc.c:267:17
	cmpl	$2, %ebx
.Ltmp254:
	.loc	0 267 3 is_stmt 0               # ldecod_src/memalloc.c:267:3
	jl	.LBB11_12
.Ltmp255:
.LBB11_5:                               # %for.body.lr.ph
	#DEBUG_VALUE: get_mem2Dquant:array2D <- $r15
	#DEBUG_VALUE: get_mem2Dquant:dim0 <- $ebx
	#DEBUG_VALUE: get_mem2Dquant:dim1 <- $r14d
	#DEBUG_VALUE: get_mem2Dquant:i <- 1
	.loc	0 0 3                           # ldecod_src/memalloc.c:0:3
	movslq	%r14d, %rdx
.Ltmp256:
	.loc	0 267 17                        # ldecod_src/memalloc.c:267:17
	movl	%ebx, %edi
.Ltmp257:
	.loc	0 267 3                         # ldecod_src/memalloc.c:267:3
	leaq	-1(%rdi), %rsi
	addq	$-2, %rdi
	movl	%esi, %eax
	andl	$3, %eax
	movl	$1, %ecx
	cmpq	$3, %rdi
	jb	.LBB11_9
.Ltmp258:
# %bb.6:                                # %for.body.lr.ph.new
	#DEBUG_VALUE: get_mem2Dquant:array2D <- $r15
	#DEBUG_VALUE: get_mem2Dquant:dim0 <- $ebx
	#DEBUG_VALUE: get_mem2Dquant:dim1 <- $r14d
	#DEBUG_VALUE: get_mem2Dquant:i <- 1
	andq	$-4, %rsi
	xorl	%ecx, %ecx
	leaq	(,%rdx,4), %rdi
	leaq	(%rdi,%rdi,2), %rdi
.Ltmp259:
	.p2align	4, 0x90
.LBB11_7:                               # %for.body
                                        # =>This Inner Loop Header: Depth=1
	#DEBUG_VALUE: get_mem2Dquant:array2D <- $r15
	#DEBUG_VALUE: get_mem2Dquant:dim0 <- $ebx
	#DEBUG_VALUE: get_mem2Dquant:dim1 <- $r14d
	#DEBUG_VALUE: get_mem2Dquant:i <- 1
	.loc	0 268 23 is_stmt 1              # ldecod_src/memalloc.c:268:23
	movq	(%r15), %r8
	movq	(%r8,%rcx,8), %r9
	.loc	0 268 38 is_stmt 0              # ldecod_src/memalloc.c:268:38
	addq	%rdi, %r9
	.loc	0 268 19                        # ldecod_src/memalloc.c:268:19
	movq	%r9, 8(%r8,%rcx,8)
	.loc	0 268 23                        # ldecod_src/memalloc.c:268:23
	movq	(%r15), %r8
	movq	8(%r8,%rcx,8), %r9
	.loc	0 268 38                        # ldecod_src/memalloc.c:268:38
	addq	%rdi, %r9
	.loc	0 268 19                        # ldecod_src/memalloc.c:268:19
	movq	%r9, 16(%r8,%rcx,8)
	.loc	0 268 23                        # ldecod_src/memalloc.c:268:23
	movq	(%r15), %r8
	movq	16(%r8,%rcx,8), %r9
	.loc	0 268 38                        # ldecod_src/memalloc.c:268:38
	addq	%rdi, %r9
	.loc	0 268 19                        # ldecod_src/memalloc.c:268:19
	movq	%r9, 24(%r8,%rcx,8)
	.loc	0 268 23                        # ldecod_src/memalloc.c:268:23
	movq	(%r15), %r8
	movq	24(%r8,%rcx,8), %r9
	.loc	0 268 38                        # ldecod_src/memalloc.c:268:38
	addq	%rdi, %r9
	.loc	0 268 19                        # ldecod_src/memalloc.c:268:19
	movq	%r9, 32(%r8,%rcx,8)
.Ltmp260:
	.loc	0 267 3 is_stmt 1               # ldecod_src/memalloc.c:267:3
	addq	$4, %rcx
	cmpq	%rcx, %rsi
	jne	.LBB11_7
.Ltmp261:
# %bb.8:                                # %for.end.loopexit.unr-lcssa.loopexit
	#DEBUG_VALUE: get_mem2Dquant:array2D <- $r15
	#DEBUG_VALUE: get_mem2Dquant:dim0 <- $ebx
	#DEBUG_VALUE: get_mem2Dquant:dim1 <- $r14d
	#DEBUG_VALUE: get_mem2Dquant:i <- 1
	incq	%rcx
.Ltmp262:
.LBB11_9:                               # %for.end.loopexit.unr-lcssa
	#DEBUG_VALUE: get_mem2Dquant:array2D <- $r15
	#DEBUG_VALUE: get_mem2Dquant:dim0 <- $ebx
	#DEBUG_VALUE: get_mem2Dquant:dim1 <- $r14d
	#DEBUG_VALUE: get_mem2Dquant:i <- 1
	testq	%rax, %rax
	je	.LBB11_12
.Ltmp263:
# %bb.10:                               # %for.body.epil.preheader
	#DEBUG_VALUE: get_mem2Dquant:array2D <- $r15
	#DEBUG_VALUE: get_mem2Dquant:dim0 <- $ebx
	#DEBUG_VALUE: get_mem2Dquant:dim1 <- $r14d
	#DEBUG_VALUE: get_mem2Dquant:i <- 1
	.loc	0 0 3 is_stmt 0                 # ldecod_src/memalloc.c:0:3
	leaq	(%rdx,%rdx,2), %rdx
	shlq	$2, %rdx
.Ltmp264:
	.p2align	4, 0x90
.LBB11_11:                              # %for.body.epil
                                        # =>This Inner Loop Header: Depth=1
	#DEBUG_VALUE: get_mem2Dquant:array2D <- $r15
	#DEBUG_VALUE: get_mem2Dquant:dim0 <- $ebx
	#DEBUG_VALUE: get_mem2Dquant:dim1 <- $r14d
	#DEBUG_VALUE: get_mem2Dquant:i <- $rcx
	.loc	0 268 23 is_stmt 1              # ldecod_src/memalloc.c:268:23
	movq	(%r15), %rsi
	movq	-8(%rsi,%rcx,8), %rdi
	.loc	0 268 38 is_stmt 0              # ldecod_src/memalloc.c:268:38
	addq	%rdx, %rdi
	.loc	0 268 19                        # ldecod_src/memalloc.c:268:19
	movq	%rdi, (%rsi,%rcx,8)
	.loc	0 267 26 is_stmt 1              # ldecod_src/memalloc.c:267:26
	incq	%rcx
.Ltmp265:
	#DEBUG_VALUE: get_mem2Dquant:i <- $rcx
	.loc	0 267 3 is_stmt 0               # ldecod_src/memalloc.c:267:3
	decq	%rax
	jne	.LBB11_11
.Ltmp266:
.LBB11_12:                              # %for.end
	#DEBUG_VALUE: get_mem2Dquant:array2D <- $r15
	#DEBUG_VALUE: get_mem2Dquant:dim0 <- $ebx
	#DEBUG_VALUE: get_mem2Dquant:dim1 <- $r14d
	.loc	0 270 51 is_stmt 1              # ldecod_src/memalloc.c:270:51
	leal	(%r14,%r14,2), %eax
	.loc	0 270 44 is_stmt 0              # ldecod_src/memalloc.c:270:44
	leal	8(,%rax,4), %eax
	.loc	0 270 15                        # ldecod_src/memalloc.c:270:15
	imull	%ebx, %eax
	.loc	0 270 3 epilogue_begin          # ldecod_src/memalloc.c:270:3
	addq	$8, %rsp
	.cfi_def_cfa_offset 40
	popq	%rbx
.Ltmp267:
	#DEBUG_VALUE: get_mem2Dquant:dim0 <- [DW_OP_LLVM_entry_value 1] $esi
	.cfi_def_cfa_offset 32
	popq	%r12
	.cfi_def_cfa_offset 24
	popq	%r14
.Ltmp268:
	#DEBUG_VALUE: get_mem2Dquant:dim1 <- [DW_OP_LLVM_entry_value 1] $edx
	.cfi_def_cfa_offset 16
	popq	%r15
.Ltmp269:
	#DEBUG_VALUE: get_mem2Dquant:array2D <- [DW_OP_LLVM_entry_value 1] $rdi
	.cfi_def_cfa_offset 8
	retq
.Ltmp270:
.Lfunc_end11:
	.size	get_mem2Dquant, .Lfunc_end11-get_mem2Dquant
	.cfi_endproc
                                        # -- End function
	.globl	get_mem3Dquant                  # -- Begin function get_mem3Dquant
	.p2align	4, 0x90
	.type	get_mem3Dquant,@function
get_mem3Dquant:                         # @get_mem3Dquant
.Lfunc_begin12:
	.loc	0 283 0 is_stmt 1               # ldecod_src/memalloc.c:283:0
	.cfi_startproc
# %bb.0:                                # %entry
	#DEBUG_VALUE: get_mem3Dquant:array3D <- $rdi
	#DEBUG_VALUE: get_mem3Dquant:dim0 <- $esi
	#DEBUG_VALUE: get_mem3Dquant:dim1 <- $edx
	#DEBUG_VALUE: get_mem3Dquant:dim2 <- $ecx
	pushq	%rbp
	.cfi_def_cfa_offset 16
	pushq	%r15
	.cfi_def_cfa_offset 24
	pushq	%r14
	.cfi_def_cfa_offset 32
	pushq	%r13
	.cfi_def_cfa_offset 40
	pushq	%r12
	.cfi_def_cfa_offset 48
	pushq	%rbx
	.cfi_def_cfa_offset 56
	pushq	%rax
	.cfi_def_cfa_offset 64
	.cfi_offset %rbx, -56
	.cfi_offset %r12, -48
	.cfi_offset %r13, -40
	.cfi_offset %r14, -32
	.cfi_offset %r15, -24
	.cfi_offset %rbp, -16
	movl	%ecx, %r12d
	movl	%edx, %r15d
	movl	%esi, %ebp
	movq	%rdi, %r14
.Ltmp271:
	.loc	0 284 21 prologue_end           # ldecod_src/memalloc.c:284:21
	movslq	%esi, %rbx
	.loc	0 284 26 is_stmt 0              # ldecod_src/memalloc.c:284:26
	shlq	$3, %rbx
.Ltmp272:
	#DEBUG_VALUE: get_mem3Dquant:mem_size <- [DW_OP_LLVM_convert 64 7, DW_OP_LLVM_convert 32 7, DW_OP_stack_value] $rbx
	.loc	0 286 41 is_stmt 1              # ldecod_src/memalloc.c:286:41
	movq	%rbx, %rdi
.Ltmp273:
	#DEBUG_VALUE: get_mem3Dquant:array3D <- $r14
	callq	malloc@PLT
.Ltmp274:
	#DEBUG_VALUE: get_mem3Dquant:dim2 <- $r12d
	#DEBUG_VALUE: get_mem3Dquant:dim1 <- $r15d
	#DEBUG_VALUE: get_mem3Dquant:dim0 <- $ebp
	.loc	0 286 18 is_stmt 0              # ldecod_src/memalloc.c:286:18
	movq	%rax, (%r14)
	.loc	0 286 84                        # ldecod_src/memalloc.c:286:84
	testq	%rax, %rax
.Ltmp275:
	.loc	0 286 6                         # ldecod_src/memalloc.c:286:6
	jne	.LBB12_2
.Ltmp276:
# %bb.1:                                # %if.then
	#DEBUG_VALUE: get_mem3Dquant:array3D <- $r14
	#DEBUG_VALUE: get_mem3Dquant:dim0 <- $ebp
	#DEBUG_VALUE: get_mem3Dquant:dim1 <- $r15d
	#DEBUG_VALUE: get_mem3Dquant:dim2 <- $r12d
	#DEBUG_VALUE: get_mem3Dquant:mem_size <- [DW_OP_LLVM_convert 64 7, DW_OP_LLVM_convert 32 7, DW_OP_stack_value] $rbx
	.loc	0 1833 4 is_stmt 1              # ldecod_src/memalloc.c:1833:4
	movq	errortext@GOTPCREL(%rip), %r13
.Ltmp277:
	#DEBUG_VALUE: no_mem_exit:where <- undef
	movl	$300, %esi                      # imm = 0x12C
	movl	$.L.str.81, %edx
	movl	$.L.str.12, %ecx
	movq	%r13, %rdi
	xorl	%eax, %eax
	callq	snprintf@PLT
.Ltmp278:
	.loc	0 1834 4                        # ldecod_src/memalloc.c:1834:4
	movq	%r13, %rdi
	movl	$100, %esi
	callq	error@PLT
.Ltmp279:
	.loc	0 289 30                        # ldecod_src/memalloc.c:289:30
	movq	(%r14), %rax
.Ltmp280:
.LBB12_2:                               # %if.end
	#DEBUG_VALUE: get_mem3Dquant:array3D <- $r14
	#DEBUG_VALUE: get_mem3Dquant:dim0 <- $ebp
	#DEBUG_VALUE: get_mem3Dquant:dim1 <- $r15d
	#DEBUG_VALUE: get_mem3Dquant:dim2 <- $r12d
	#DEBUG_VALUE: get_mem3Dquant:mem_size <- [DW_OP_LLVM_convert 64 7, DW_OP_LLVM_convert 32 7, DW_OP_stack_value] $rbx
	.loc	0 289 45 is_stmt 0              # ldecod_src/memalloc.c:289:45
	movl	%r15d, %esi
	imull	%ebp, %esi
	.loc	0 289 15                        # ldecod_src/memalloc.c:289:15
	movq	%rax, %rdi
	movl	%r12d, %edx
	callq	get_mem2Dquant
.Ltmp281:
	#DEBUG_VALUE: get_mem3Dquant:mem_size <- [DW_OP_LLVM_arg 0, DW_OP_LLVM_convert 64 7, DW_OP_LLVM_convert 32 7, DW_OP_LLVM_arg 1, DW_OP_plus, DW_OP_stack_value] $rbx, $eax
	#DEBUG_VALUE: get_mem3Dquant:i <- 1
	.loc	0 291 16 is_stmt 1              # ldecod_src/memalloc.c:291:16
	cmpl	$2, %ebp
.Ltmp282:
	.loc	0 291 3 is_stmt 0               # ldecod_src/memalloc.c:291:3
	jl	.LBB12_10
.Ltmp283:
# %bb.3:                                # %for.body.lr.ph
	#DEBUG_VALUE: get_mem3Dquant:array3D <- $r14
	#DEBUG_VALUE: get_mem3Dquant:dim0 <- $ebp
	#DEBUG_VALUE: get_mem3Dquant:dim1 <- $r15d
	#DEBUG_VALUE: get_mem3Dquant:dim2 <- $r12d
	#DEBUG_VALUE: get_mem3Dquant:mem_size <- [DW_OP_LLVM_arg 0, DW_OP_LLVM_convert 64 7, DW_OP_LLVM_convert 32 7, DW_OP_LLVM_arg 1, DW_OP_plus, DW_OP_stack_value] $rbx, $eax
	#DEBUG_VALUE: get_mem3Dquant:i <- 1
	.loc	0 0 3                           # ldecod_src/memalloc.c:0:3
	movslq	%r15d, %rcx
.Ltmp284:
	.loc	0 291 16                        # ldecod_src/memalloc.c:291:16
	movl	%ebp, %r8d
.Ltmp285:
	.loc	0 291 3                         # ldecod_src/memalloc.c:291:3
	leaq	-1(%r8), %rdi
	addq	$-2, %r8
	movl	%edi, %edx
	andl	$3, %edx
	movl	$1, %esi
	cmpq	$3, %r8
	jb	.LBB12_7
.Ltmp286:
# %bb.4:                                # %for.body.lr.ph.new
	#DEBUG_VALUE: get_mem3Dquant:array3D <- $r14
	#DEBUG_VALUE: get_mem3Dquant:dim0 <- $ebp
	#DEBUG_VALUE: get_mem3Dquant:dim1 <- $r15d
	#DEBUG_VALUE: get_mem3Dquant:dim2 <- $r12d
	#DEBUG_VALUE: get_mem3Dquant:mem_size <- [DW_OP_LLVM_arg 0, DW_OP_LLVM_convert 64 7, DW_OP_LLVM_convert 32 7, DW_OP_LLVM_arg 1, DW_OP_plus, DW_OP_stack_value] $rbx, $eax
	#DEBUG_VALUE: get_mem3Dquant:i <- 1
	andq	$-4, %rdi
	xorl	%esi, %esi
	leaq	(,%rcx,8), %r8
.Ltmp287:
	.p2align	4, 0x90
.LBB12_5:                               # %for.body
                                        # =>This Inner Loop Header: Depth=1
	#DEBUG_VALUE: get_mem3Dquant:array3D <- $r14
	#DEBUG_VALUE: get_mem3Dquant:dim0 <- $ebp
	#DEBUG_VALUE: get_mem3Dquant:dim1 <- $r15d
	#DEBUG_VALUE: get_mem3Dquant:dim2 <- $r12d
	#DEBUG_VALUE: get_mem3Dquant:mem_size <- [DW_OP_LLVM_arg 0, DW_OP_LLVM_convert 64 7, DW_OP_LLVM_convert 32 7, DW_OP_LLVM_arg 1, DW_OP_plus, DW_OP_stack_value] $rbx, $eax
	#DEBUG_VALUE: get_mem3Dquant:i <- 1
	.loc	0 292 22 is_stmt 1              # ldecod_src/memalloc.c:292:22
	movq	(%r14), %r9
	movq	(%r9,%rsi,8), %r10
	.loc	0 292 39 is_stmt 0              # ldecod_src/memalloc.c:292:39
	addq	%r8, %r10
	.loc	0 292 19                        # ldecod_src/memalloc.c:292:19
	movq	%r10, 8(%r9,%rsi,8)
	.loc	0 292 22                        # ldecod_src/memalloc.c:292:22
	movq	(%r14), %r9
	movq	8(%r9,%rsi,8), %r10
	.loc	0 292 39                        # ldecod_src/memalloc.c:292:39
	addq	%r8, %r10
	.loc	0 292 19                        # ldecod_src/memalloc.c:292:19
	movq	%r10, 16(%r9,%rsi,8)
	.loc	0 292 22                        # ldecod_src/memalloc.c:292:22
	movq	(%r14), %r9
	movq	16(%r9,%rsi,8), %r10
	.loc	0 292 39                        # ldecod_src/memalloc.c:292:39
	addq	%r8, %r10
	.loc	0 292 19                        # ldecod_src/memalloc.c:292:19
	movq	%r10, 24(%r9,%rsi,8)
	.loc	0 292 22                        # ldecod_src/memalloc.c:292:22
	movq	(%r14), %r9
	movq	24(%r9,%rsi,8), %r10
	.loc	0 292 39                        # ldecod_src/memalloc.c:292:39
	addq	%r8, %r10
	.loc	0 292 19                        # ldecod_src/memalloc.c:292:19
	movq	%r10, 32(%r9,%rsi,8)
.Ltmp288:
	.loc	0 291 3 is_stmt 1               # ldecod_src/memalloc.c:291:3
	addq	$4, %rsi
	cmpq	%rsi, %rdi
	jne	.LBB12_5
.Ltmp289:
# %bb.6:                                # %for.end.loopexit.unr-lcssa.loopexit
	#DEBUG_VALUE: get_mem3Dquant:array3D <- $r14
	#DEBUG_VALUE: get_mem3Dquant:dim0 <- $ebp
	#DEBUG_VALUE: get_mem3Dquant:dim1 <- $r15d
	#DEBUG_VALUE: get_mem3Dquant:dim2 <- $r12d
	#DEBUG_VALUE: get_mem3Dquant:mem_size <- [DW_OP_LLVM_arg 0, DW_OP_LLVM_convert 64 7, DW_OP_LLVM_convert 32 7, DW_OP_LLVM_arg 1, DW_OP_plus, DW_OP_stack_value] $rbx, $eax
	#DEBUG_VALUE: get_mem3Dquant:i <- 1
	incq	%rsi
.Ltmp290:
.LBB12_7:                               # %for.end.loopexit.unr-lcssa
	#DEBUG_VALUE: get_mem3Dquant:array3D <- $r14
	#DEBUG_VALUE: get_mem3Dquant:dim0 <- $ebp
	#DEBUG_VALUE: get_mem3Dquant:dim1 <- $r15d
	#DEBUG_VALUE: get_mem3Dquant:dim2 <- $r12d
	#DEBUG_VALUE: get_mem3Dquant:mem_size <- [DW_OP_LLVM_arg 0, DW_OP_LLVM_convert 64 7, DW_OP_LLVM_convert 32 7, DW_OP_LLVM_arg 1, DW_OP_plus, DW_OP_stack_value] $rbx, $eax
	#DEBUG_VALUE: get_mem3Dquant:i <- 1
	testq	%rdx, %rdx
	je	.LBB12_10
.Ltmp291:
# %bb.8:                                # %for.body.epil.preheader
	#DEBUG_VALUE: get_mem3Dquant:array3D <- $r14
	#DEBUG_VALUE: get_mem3Dquant:dim0 <- $ebp
	#DEBUG_VALUE: get_mem3Dquant:dim1 <- $r15d
	#DEBUG_VALUE: get_mem3Dquant:dim2 <- $r12d
	#DEBUG_VALUE: get_mem3Dquant:mem_size <- [DW_OP_LLVM_arg 0, DW_OP_LLVM_convert 64 7, DW_OP_LLVM_convert 32 7, DW_OP_LLVM_arg 1, DW_OP_plus, DW_OP_stack_value] $rbx, $eax
	#DEBUG_VALUE: get_mem3Dquant:i <- 1
	.loc	0 0 3 is_stmt 0                 # ldecod_src/memalloc.c:0:3
	shlq	$3, %rcx
.Ltmp292:
	.p2align	4, 0x90
.LBB12_9:                               # %for.body.epil
                                        # =>This Inner Loop Header: Depth=1
	#DEBUG_VALUE: get_mem3Dquant:array3D <- $r14
	#DEBUG_VALUE: get_mem3Dquant:dim0 <- $ebp
	#DEBUG_VALUE: get_mem3Dquant:dim1 <- $r15d
	#DEBUG_VALUE: get_mem3Dquant:dim2 <- $r12d
	#DEBUG_VALUE: get_mem3Dquant:mem_size <- [DW_OP_LLVM_arg 0, DW_OP_LLVM_convert 64 7, DW_OP_LLVM_convert 32 7, DW_OP_LLVM_arg 1, DW_OP_plus, DW_OP_stack_value] $rbx, $eax
	#DEBUG_VALUE: get_mem3Dquant:i <- $rsi
	.loc	0 292 22 is_stmt 1              # ldecod_src/memalloc.c:292:22
	movq	(%r14), %rdi
	movq	-8(%rdi,%rsi,8), %r8
	.loc	0 292 39 is_stmt 0              # ldecod_src/memalloc.c:292:39
	addq	%rcx, %r8
	.loc	0 292 19                        # ldecod_src/memalloc.c:292:19
	movq	%r8, (%rdi,%rsi,8)
	.loc	0 291 25 is_stmt 1              # ldecod_src/memalloc.c:291:25
	incq	%rsi
.Ltmp293:
	#DEBUG_VALUE: get_mem3Dquant:i <- $rsi
	.loc	0 291 3 is_stmt 0               # ldecod_src/memalloc.c:291:3
	decq	%rdx
	jne	.LBB12_9
.Ltmp294:
.LBB12_10:                              # %for.end
	#DEBUG_VALUE: get_mem3Dquant:array3D <- $r14
	#DEBUG_VALUE: get_mem3Dquant:dim0 <- $ebp
	#DEBUG_VALUE: get_mem3Dquant:dim1 <- $r15d
	#DEBUG_VALUE: get_mem3Dquant:dim2 <- $r12d
	#DEBUG_VALUE: get_mem3Dquant:mem_size <- [DW_OP_LLVM_arg 0, DW_OP_LLVM_convert 64 7, DW_OP_LLVM_convert 32 7, DW_OP_LLVM_arg 1, DW_OP_plus, DW_OP_stack_value] $rbx, $eax
	#DEBUG_VALUE: get_mem3Dquant:mem_size <- $ebx
	.loc	0 289 12 is_stmt 1              # ldecod_src/memalloc.c:289:12
	addl	%ebx, %eax
.Ltmp295:
	#DEBUG_VALUE: get_mem3Dquant:mem_size <- $eax
	.loc	0 294 3 epilogue_begin          # ldecod_src/memalloc.c:294:3
	addq	$8, %rsp
	.cfi_def_cfa_offset 56
	popq	%rbx
	.cfi_def_cfa_offset 48
	popq	%r12
.Ltmp296:
	#DEBUG_VALUE: get_mem3Dquant:dim2 <- [DW_OP_LLVM_entry_value 1] $ecx
	.cfi_def_cfa_offset 40
	popq	%r13
	.cfi_def_cfa_offset 32
	popq	%r14
.Ltmp297:
	#DEBUG_VALUE: get_mem3Dquant:array3D <- [DW_OP_LLVM_entry_value 1] $rdi
	.cfi_def_cfa_offset 24
	popq	%r15
.Ltmp298:
	#DEBUG_VALUE: get_mem3Dquant:dim1 <- [DW_OP_LLVM_entry_value 1] $edx
	.cfi_def_cfa_offset 16
	popq	%rbp
.Ltmp299:
	#DEBUG_VALUE: get_mem3Dquant:dim0 <- [DW_OP_LLVM_entry_value 1] $esi
	.cfi_def_cfa_offset 8
	retq
.Ltmp300:
.Lfunc_end12:
	.size	get_mem3Dquant, .Lfunc_end12-get_mem3Dquant
	.cfi_endproc
                                        # -- End function
	.globl	get_mem4Dquant                  # -- Begin function get_mem4Dquant
	.p2align	4, 0x90
	.type	get_mem4Dquant,@function
get_mem4Dquant:                         # @get_mem4Dquant
.Lfunc_begin13:
	.loc	0 307 0                         # ldecod_src/memalloc.c:307:0
	.cfi_startproc
# %bb.0:                                # %entry
	#DEBUG_VALUE: get_mem4Dquant:array4D <- $rdi
	#DEBUG_VALUE: get_mem4Dquant:dim0 <- $esi
	#DEBUG_VALUE: get_mem4Dquant:dim1 <- $edx
	#DEBUG_VALUE: get_mem4Dquant:dim2 <- $ecx
	#DEBUG_VALUE: get_mem4Dquant:dim3 <- $r8d
	pushq	%rbp
	.cfi_def_cfa_offset 16
	pushq	%r15
	.cfi_def_cfa_offset 24
	pushq	%r14
	.cfi_def_cfa_offset 32
	pushq	%r13
	.cfi_def_cfa_offset 40
	pushq	%r12
	.cfi_def_cfa_offset 48
	pushq	%rbx
	.cfi_def_cfa_offset 56
	subq	$24, %rsp
	.cfi_def_cfa_offset 80
	.cfi_offset %rbx, -56
	.cfi_offset %r12, -48
	.cfi_offset %r13, -40
	.cfi_offset %r14, -32
	.cfi_offset %r15, -24
	.cfi_offset %rbp, -16
	movl	%r8d, 12(%rsp)                  # 4-byte Spill
.Ltmp301:
	#DEBUG_VALUE: get_mem4Dquant:dim3 <- [DW_OP_plus_uconst 12] [$rsp+0]
	movl	%ecx, %r12d
	movl	%edx, %r15d
	movl	%esi, %ebp
	movq	%rdi, %r14
.Ltmp302:
	.loc	0 308 21 prologue_end           # ldecod_src/memalloc.c:308:21
	movslq	%esi, %rbx
	.loc	0 308 26 is_stmt 0              # ldecod_src/memalloc.c:308:26
	shlq	$3, %rbx
.Ltmp303:
	#DEBUG_VALUE: get_mem4Dquant:mem_size <- [DW_OP_LLVM_convert 64 7, DW_OP_LLVM_convert 32 7, DW_OP_stack_value] $rbx
	.loc	0 310 42 is_stmt 1              # ldecod_src/memalloc.c:310:42
	movq	%rbx, %rdi
.Ltmp304:
	#DEBUG_VALUE: get_mem4Dquant:array4D <- $r14
	callq	malloc@PLT
.Ltmp305:
	#DEBUG_VALUE: get_mem4Dquant:dim2 <- $r12d
	#DEBUG_VALUE: get_mem4Dquant:dim1 <- $r15d
	#DEBUG_VALUE: get_mem4Dquant:dim0 <- $ebp
	movq	%rax, %r13
	.loc	0 310 18 is_stmt 0              # ldecod_src/memalloc.c:310:18
	movq	%rax, (%r14)
	.loc	0 310 86                        # ldecod_src/memalloc.c:310:86
	testq	%rax, %rax
.Ltmp306:
	.loc	0 310 6                         # ldecod_src/memalloc.c:310:6
	jne	.LBB13_2
.Ltmp307:
# %bb.1:                                # %if.then
	#DEBUG_VALUE: get_mem4Dquant:array4D <- $r14
	#DEBUG_VALUE: get_mem4Dquant:dim0 <- $ebp
	#DEBUG_VALUE: get_mem4Dquant:dim1 <- $r15d
	#DEBUG_VALUE: get_mem4Dquant:dim2 <- $r12d
	#DEBUG_VALUE: get_mem4Dquant:dim3 <- [DW_OP_plus_uconst 12] [$rsp+0]
	#DEBUG_VALUE: get_mem4Dquant:mem_size <- [DW_OP_LLVM_convert 64 7, DW_OP_LLVM_convert 32 7, DW_OP_stack_value] $rbx
	.loc	0 0 6                           # ldecod_src/memalloc.c:0:6
	movl	%r15d, %r13d
.Ltmp308:
	#DEBUG_VALUE: get_mem4Dquant:dim1 <- $r13d
	.loc	0 1833 4 is_stmt 1              # ldecod_src/memalloc.c:1833:4
	movq	errortext@GOTPCREL(%rip), %r15
.Ltmp309:
	#DEBUG_VALUE: no_mem_exit:where <- undef
	movl	$300, %esi                      # imm = 0x12C
	movl	$.L.str.81, %edx
	movl	$.L.str.13, %ecx
	movq	%r15, %rdi
	xorl	%eax, %eax
	callq	snprintf@PLT
.Ltmp310:
	.loc	0 1834 4                        # ldecod_src/memalloc.c:1834:4
	movq	%r15, %rdi
	movl	%r13d, %r15d
.Ltmp311:
	#DEBUG_VALUE: get_mem4Dquant:dim1 <- $r15d
	movl	$100, %esi
	callq	error@PLT
.Ltmp312:
	.loc	0 313 30                        # ldecod_src/memalloc.c:313:30
	movq	(%r14), %r13
.Ltmp313:
.LBB13_2:                               # %if.end
	#DEBUG_VALUE: get_mem4Dquant:array4D <- $r14
	#DEBUG_VALUE: get_mem4Dquant:dim0 <- $ebp
	#DEBUG_VALUE: get_mem4Dquant:dim1 <- $r15d
	#DEBUG_VALUE: get_mem4Dquant:dim2 <- $r12d
	#DEBUG_VALUE: get_mem4Dquant:dim3 <- [DW_OP_plus_uconst 12] [$rsp+0]
	#DEBUG_VALUE: get_mem4Dquant:mem_size <- [DW_OP_LLVM_convert 64 7, DW_OP_LLVM_convert 32 7, DW_OP_stack_value] $rbx
	.loc	0 0 30 is_stmt 0                # ldecod_src/memalloc.c:0:30
	movl	%r15d, 8(%rsp)                  # 4-byte Spill
.Ltmp314:
	#DEBUG_VALUE: get_mem4Dquant:dim1 <- [DW_OP_plus_uconst 8] [$rsp+0]
	.loc	0 313 45                        # ldecod_src/memalloc.c:313:45
	imull	%ebp, %r15d
.Ltmp315:
	#DEBUG_VALUE: get_mem3Dquant:dim0 <- $r15d
	#DEBUG_VALUE: get_mem3Dquant:array3D <- $r13
	#DEBUG_VALUE: get_mem3Dquant:dim1 <- $r12d
	#DEBUG_VALUE: get_mem3Dquant:dim2 <- [DW_OP_plus_uconst 12, DW_OP_deref] $rsp
	.loc	0 284 21 is_stmt 1              # ldecod_src/memalloc.c:284:21
	movslq	%r15d, %rdi
	.loc	0 284 26 is_stmt 0              # ldecod_src/memalloc.c:284:26
	shlq	$3, %rdi
.Ltmp316:
	#DEBUG_VALUE: get_mem3Dquant:mem_size <- [DW_OP_LLVM_convert 64 7, DW_OP_LLVM_convert 32 7, DW_OP_stack_value] $rdi
	.loc	0 0 26                          # ldecod_src/memalloc.c:0:26
	movq	%rdi, 16(%rsp)                  # 8-byte Spill
.Ltmp317:
	#DEBUG_VALUE: get_mem3Dquant:mem_size <- [DW_OP_plus_uconst 16, DW_OP_deref_size 8, DW_OP_LLVM_convert 64 7, DW_OP_LLVM_convert 32 7, DW_OP_stack_value] $rsp
	.loc	0 286 41 is_stmt 1              # ldecod_src/memalloc.c:286:41
	callq	malloc@PLT
.Ltmp318:
	.loc	0 286 18 is_stmt 0              # ldecod_src/memalloc.c:286:18
	movq	%rax, (%r13)
	.loc	0 286 84                        # ldecod_src/memalloc.c:286:84
	testq	%rax, %rax
.Ltmp319:
	.loc	0 286 6                         # ldecod_src/memalloc.c:286:6
	jne	.LBB13_4
.Ltmp320:
# %bb.3:                                # %if.then.i
	#DEBUG_VALUE: get_mem4Dquant:array4D <- $r14
	#DEBUG_VALUE: get_mem4Dquant:dim0 <- $ebp
	#DEBUG_VALUE: get_mem4Dquant:dim1 <- [DW_OP_plus_uconst 8] [$rsp+0]
	#DEBUG_VALUE: get_mem4Dquant:dim2 <- $r12d
	#DEBUG_VALUE: get_mem4Dquant:dim3 <- [DW_OP_plus_uconst 12] [$rsp+0]
	#DEBUG_VALUE: get_mem4Dquant:mem_size <- [DW_OP_LLVM_convert 64 7, DW_OP_LLVM_convert 32 7, DW_OP_stack_value] $rbx
	#DEBUG_VALUE: get_mem3Dquant:dim0 <- $r15d
	#DEBUG_VALUE: get_mem3Dquant:array3D <- $r13
	#DEBUG_VALUE: get_mem3Dquant:dim1 <- $r12d
	#DEBUG_VALUE: get_mem3Dquant:dim2 <- [DW_OP_plus_uconst 12, DW_OP_deref] $rsp
	#DEBUG_VALUE: get_mem3Dquant:mem_size <- [DW_OP_plus_uconst 16, DW_OP_deref_size 8, DW_OP_LLVM_convert 64 7, DW_OP_LLVM_convert 32 7, DW_OP_stack_value] $rsp
	.loc	0 1833 4 is_stmt 1              # ldecod_src/memalloc.c:1833:4
	movq	errortext@GOTPCREL(%rip), %rdi
.Ltmp321:
	#DEBUG_VALUE: no_mem_exit:where <- undef
	movl	$300, %esi                      # imm = 0x12C
	movl	$.L.str.81, %edx
	movl	$.L.str.12, %ecx
	xorl	%eax, %eax
	callq	snprintf@PLT
.Ltmp322:
	.loc	0 1834 4                        # ldecod_src/memalloc.c:1834:4
	movq	errortext@GOTPCREL(%rip), %rdi
	movl	$100, %esi
	callq	error@PLT
.Ltmp323:
	.loc	0 289 30                        # ldecod_src/memalloc.c:289:30
	movq	(%r13), %rax
.Ltmp324:
.LBB13_4:                               # %if.end.i
	#DEBUG_VALUE: get_mem4Dquant:array4D <- $r14
	#DEBUG_VALUE: get_mem4Dquant:dim0 <- $ebp
	#DEBUG_VALUE: get_mem4Dquant:dim1 <- [DW_OP_plus_uconst 8] [$rsp+0]
	#DEBUG_VALUE: get_mem4Dquant:dim2 <- $r12d
	#DEBUG_VALUE: get_mem4Dquant:dim3 <- [DW_OP_plus_uconst 12] [$rsp+0]
	#DEBUG_VALUE: get_mem4Dquant:mem_size <- [DW_OP_LLVM_convert 64 7, DW_OP_LLVM_convert 32 7, DW_OP_stack_value] $rbx
	#DEBUG_VALUE: get_mem3Dquant:dim0 <- $r15d
	#DEBUG_VALUE: get_mem3Dquant:array3D <- $r13
	#DEBUG_VALUE: get_mem3Dquant:dim1 <- $r12d
	#DEBUG_VALUE: get_mem3Dquant:dim2 <- [DW_OP_plus_uconst 12, DW_OP_deref] $rsp
	#DEBUG_VALUE: get_mem3Dquant:mem_size <- [DW_OP_plus_uconst 16, DW_OP_deref_size 8, DW_OP_LLVM_convert 64 7, DW_OP_LLVM_convert 32 7, DW_OP_stack_value] $rsp
	.loc	0 289 45 is_stmt 0              # ldecod_src/memalloc.c:289:45
	movl	%r15d, %esi
	imull	%r12d, %esi
	.loc	0 289 15                        # ldecod_src/memalloc.c:289:15
	movq	%rax, %rdi
	movl	12(%rsp), %edx                  # 4-byte Reload
	callq	get_mem2Dquant
.Ltmp325:
	#DEBUG_VALUE: get_mem3Dquant:mem_size <- [DW_OP_LLVM_arg 0, DW_OP_plus_uconst 16, DW_OP_deref, DW_OP_LLVM_convert 64 7, DW_OP_LLVM_convert 32 7, DW_OP_LLVM_arg 1, DW_OP_plus, DW_OP_stack_value] $rsp, $eax
	#DEBUG_VALUE: get_mem3Dquant:i <- 1
	.loc	0 291 16 is_stmt 1              # ldecod_src/memalloc.c:291:16
	cmpl	$2, %r15d
.Ltmp326:
	.loc	0 291 3 is_stmt 0               # ldecod_src/memalloc.c:291:3
	jl	.LBB13_12
.Ltmp327:
# %bb.5:                                # %for.body.lr.ph.i
	#DEBUG_VALUE: get_mem4Dquant:array4D <- $r14
	#DEBUG_VALUE: get_mem4Dquant:dim0 <- $ebp
	#DEBUG_VALUE: get_mem4Dquant:dim1 <- [DW_OP_plus_uconst 8] [$rsp+0]
	#DEBUG_VALUE: get_mem4Dquant:dim2 <- $r12d
	#DEBUG_VALUE: get_mem4Dquant:dim3 <- [DW_OP_plus_uconst 12] [$rsp+0]
	#DEBUG_VALUE: get_mem4Dquant:mem_size <- [DW_OP_LLVM_convert 64 7, DW_OP_LLVM_convert 32 7, DW_OP_stack_value] $rbx
	#DEBUG_VALUE: get_mem3Dquant:dim0 <- $r15d
	#DEBUG_VALUE: get_mem3Dquant:array3D <- $r13
	#DEBUG_VALUE: get_mem3Dquant:dim1 <- $r12d
	#DEBUG_VALUE: get_mem3Dquant:dim2 <- [DW_OP_plus_uconst 12, DW_OP_deref] $rsp
	#DEBUG_VALUE: get_mem3Dquant:mem_size <- [DW_OP_LLVM_arg 0, DW_OP_plus_uconst 16, DW_OP_deref, DW_OP_LLVM_convert 64 7, DW_OP_LLVM_convert 32 7, DW_OP_LLVM_arg 1, DW_OP_plus, DW_OP_stack_value] $rsp, $eax
	#DEBUG_VALUE: get_mem3Dquant:i <- 1
	.loc	0 0 3                           # ldecod_src/memalloc.c:0:3
	movslq	%r12d, %rcx
.Ltmp328:
	.loc	0 291 16                        # ldecod_src/memalloc.c:291:16
	movl	%r15d, %r8d
.Ltmp329:
	.loc	0 291 3                         # ldecod_src/memalloc.c:291:3
	leaq	-1(%r8), %rdi
	addq	$-2, %r8
	movl	%edi, %edx
	andl	$3, %edx
	movl	$1, %esi
	cmpq	$3, %r8
	jb	.LBB13_9
.Ltmp330:
# %bb.6:                                # %for.body.lr.ph.i.new
	#DEBUG_VALUE: get_mem4Dquant:array4D <- $r14
	#DEBUG_VALUE: get_mem4Dquant:dim0 <- $ebp
	#DEBUG_VALUE: get_mem4Dquant:dim1 <- [DW_OP_plus_uconst 8] [$rsp+0]
	#DEBUG_VALUE: get_mem4Dquant:dim2 <- $r12d
	#DEBUG_VALUE: get_mem4Dquant:dim3 <- [DW_OP_plus_uconst 12] [$rsp+0]
	#DEBUG_VALUE: get_mem4Dquant:mem_size <- [DW_OP_LLVM_convert 64 7, DW_OP_LLVM_convert 32 7, DW_OP_stack_value] $rbx
	#DEBUG_VALUE: get_mem3Dquant:dim0 <- $r15d
	#DEBUG_VALUE: get_mem3Dquant:array3D <- $r13
	#DEBUG_VALUE: get_mem3Dquant:dim1 <- $r12d
	#DEBUG_VALUE: get_mem3Dquant:dim2 <- [DW_OP_plus_uconst 12, DW_OP_deref] $rsp
	#DEBUG_VALUE: get_mem3Dquant:mem_size <- [DW_OP_LLVM_arg 0, DW_OP_plus_uconst 16, DW_OP_deref, DW_OP_LLVM_convert 64 7, DW_OP_LLVM_convert 32 7, DW_OP_LLVM_arg 1, DW_OP_plus, DW_OP_stack_value] $rsp, $eax
	#DEBUG_VALUE: get_mem3Dquant:i <- 1
	andq	$-4, %rdi
	xorl	%esi, %esi
	leaq	(,%rcx,8), %r8
.Ltmp331:
	.p2align	4, 0x90
.LBB13_7:                               # %for.body.i
                                        # =>This Inner Loop Header: Depth=1
	#DEBUG_VALUE: get_mem4Dquant:array4D <- $r14
	#DEBUG_VALUE: get_mem4Dquant:dim0 <- $ebp
	#DEBUG_VALUE: get_mem4Dquant:dim1 <- [DW_OP_plus_uconst 8] [$rsp+0]
	#DEBUG_VALUE: get_mem4Dquant:dim2 <- $r12d
	#DEBUG_VALUE: get_mem4Dquant:dim3 <- [DW_OP_plus_uconst 12] [$rsp+0]
	#DEBUG_VALUE: get_mem4Dquant:mem_size <- [DW_OP_LLVM_convert 64 7, DW_OP_LLVM_convert 32 7, DW_OP_stack_value] $rbx
	#DEBUG_VALUE: get_mem3Dquant:dim0 <- $r15d
	#DEBUG_VALUE: get_mem3Dquant:array3D <- $r13
	#DEBUG_VALUE: get_mem3Dquant:dim1 <- $r12d
	#DEBUG_VALUE: get_mem3Dquant:dim2 <- [DW_OP_plus_uconst 12, DW_OP_deref] $rsp
	#DEBUG_VALUE: get_mem3Dquant:mem_size <- [DW_OP_LLVM_arg 0, DW_OP_plus_uconst 16, DW_OP_deref, DW_OP_LLVM_convert 64 7, DW_OP_LLVM_convert 32 7, DW_OP_LLVM_arg 1, DW_OP_plus, DW_OP_stack_value] $rsp, $eax
	#DEBUG_VALUE: get_mem3Dquant:i <- 1
	.loc	0 292 22 is_stmt 1              # ldecod_src/memalloc.c:292:22
	movq	(%r13), %r9
	movq	(%r9,%rsi,8), %r10
	.loc	0 292 39 is_stmt 0              # ldecod_src/memalloc.c:292:39
	addq	%r8, %r10
	.loc	0 292 19                        # ldecod_src/memalloc.c:292:19
	movq	%r10, 8(%r9,%rsi,8)
	.loc	0 292 22                        # ldecod_src/memalloc.c:292:22
	movq	(%r13), %r9
	movq	8(%r9,%rsi,8), %r10
	.loc	0 292 39                        # ldecod_src/memalloc.c:292:39
	addq	%r8, %r10
	.loc	0 292 19                        # ldecod_src/memalloc.c:292:19
	movq	%r10, 16(%r9,%rsi,8)
	.loc	0 292 22                        # ldecod_src/memalloc.c:292:22
	movq	(%r13), %r9
	movq	16(%r9,%rsi,8), %r10
	.loc	0 292 39                        # ldecod_src/memalloc.c:292:39
	addq	%r8, %r10
	.loc	0 292 19                        # ldecod_src/memalloc.c:292:19
	movq	%r10, 24(%r9,%rsi,8)
	.loc	0 292 22                        # ldecod_src/memalloc.c:292:22
	movq	(%r13), %r9
	movq	24(%r9,%rsi,8), %r10
	.loc	0 292 39                        # ldecod_src/memalloc.c:292:39
	addq	%r8, %r10
	.loc	0 292 19                        # ldecod_src/memalloc.c:292:19
	movq	%r10, 32(%r9,%rsi,8)
.Ltmp332:
	.loc	0 291 3 is_stmt 1               # ldecod_src/memalloc.c:291:3
	addq	$4, %rsi
	cmpq	%rsi, %rdi
	jne	.LBB13_7
.Ltmp333:
# %bb.8:                                # %get_mem3Dquant.exit.loopexit.unr-lcssa.loopexit
	#DEBUG_VALUE: get_mem4Dquant:array4D <- $r14
	#DEBUG_VALUE: get_mem4Dquant:dim0 <- $ebp
	#DEBUG_VALUE: get_mem4Dquant:dim1 <- [DW_OP_plus_uconst 8] [$rsp+0]
	#DEBUG_VALUE: get_mem4Dquant:dim2 <- $r12d
	#DEBUG_VALUE: get_mem4Dquant:dim3 <- [DW_OP_plus_uconst 12] [$rsp+0]
	#DEBUG_VALUE: get_mem4Dquant:mem_size <- [DW_OP_LLVM_convert 64 7, DW_OP_LLVM_convert 32 7, DW_OP_stack_value] $rbx
	#DEBUG_VALUE: get_mem3Dquant:dim0 <- $r15d
	#DEBUG_VALUE: get_mem3Dquant:array3D <- $r13
	#DEBUG_VALUE: get_mem3Dquant:dim1 <- $r12d
	#DEBUG_VALUE: get_mem3Dquant:dim2 <- [DW_OP_plus_uconst 12, DW_OP_deref] $rsp
	#DEBUG_VALUE: get_mem3Dquant:mem_size <- [DW_OP_LLVM_arg 0, DW_OP_plus_uconst 16, DW_OP_deref, DW_OP_LLVM_convert 64 7, DW_OP_LLVM_convert 32 7, DW_OP_LLVM_arg 1, DW_OP_plus, DW_OP_stack_value] $rsp, $eax
	#DEBUG_VALUE: get_mem3Dquant:i <- 1
	incq	%rsi
.Ltmp334:
.LBB13_9:                               # %get_mem3Dquant.exit.loopexit.unr-lcssa
	#DEBUG_VALUE: get_mem4Dquant:array4D <- $r14
	#DEBUG_VALUE: get_mem4Dquant:dim0 <- $ebp
	#DEBUG_VALUE: get_mem4Dquant:dim1 <- [DW_OP_plus_uconst 8] [$rsp+0]
	#DEBUG_VALUE: get_mem4Dquant:dim2 <- $r12d
	#DEBUG_VALUE: get_mem4Dquant:dim3 <- [DW_OP_plus_uconst 12] [$rsp+0]
	#DEBUG_VALUE: get_mem4Dquant:mem_size <- [DW_OP_LLVM_convert 64 7, DW_OP_LLVM_convert 32 7, DW_OP_stack_value] $rbx
	#DEBUG_VALUE: get_mem3Dquant:dim0 <- $r15d
	#DEBUG_VALUE: get_mem3Dquant:array3D <- $r13
	#DEBUG_VALUE: get_mem3Dquant:dim1 <- $r12d
	#DEBUG_VALUE: get_mem3Dquant:dim2 <- [DW_OP_plus_uconst 12, DW_OP_deref] $rsp
	#DEBUG_VALUE: get_mem3Dquant:mem_size <- [DW_OP_LLVM_arg 0, DW_OP_plus_uconst 16, DW_OP_deref, DW_OP_LLVM_convert 64 7, DW_OP_LLVM_convert 32 7, DW_OP_LLVM_arg 1, DW_OP_plus, DW_OP_stack_value] $rsp, $eax
	#DEBUG_VALUE: get_mem3Dquant:i <- 1
	testq	%rdx, %rdx
	je	.LBB13_12
.Ltmp335:
# %bb.10:                               # %for.body.i.epil.preheader
	#DEBUG_VALUE: get_mem4Dquant:array4D <- $r14
	#DEBUG_VALUE: get_mem4Dquant:dim0 <- $ebp
	#DEBUG_VALUE: get_mem4Dquant:dim1 <- [DW_OP_plus_uconst 8] [$rsp+0]
	#DEBUG_VALUE: get_mem4Dquant:dim2 <- $r12d
	#DEBUG_VALUE: get_mem4Dquant:dim3 <- [DW_OP_plus_uconst 12] [$rsp+0]
	#DEBUG_VALUE: get_mem4Dquant:mem_size <- [DW_OP_LLVM_convert 64 7, DW_OP_LLVM_convert 32 7, DW_OP_stack_value] $rbx
	#DEBUG_VALUE: get_mem3Dquant:dim0 <- $r15d
	#DEBUG_VALUE: get_mem3Dquant:array3D <- $r13
	#DEBUG_VALUE: get_mem3Dquant:dim1 <- $r12d
	#DEBUG_VALUE: get_mem3Dquant:dim2 <- [DW_OP_plus_uconst 12, DW_OP_deref] $rsp
	#DEBUG_VALUE: get_mem3Dquant:mem_size <- [DW_OP_LLVM_arg 0, DW_OP_plus_uconst 16, DW_OP_deref, DW_OP_LLVM_convert 64 7, DW_OP_LLVM_convert 32 7, DW_OP_LLVM_arg 1, DW_OP_plus, DW_OP_stack_value] $rsp, $eax
	#DEBUG_VALUE: get_mem3Dquant:i <- 1
	.loc	0 0 3 is_stmt 0                 # ldecod_src/memalloc.c:0:3
	shlq	$3, %rcx
.Ltmp336:
	.p2align	4, 0x90
.LBB13_11:                              # %for.body.i.epil
                                        # =>This Inner Loop Header: Depth=1
	#DEBUG_VALUE: get_mem4Dquant:array4D <- $r14
	#DEBUG_VALUE: get_mem4Dquant:dim0 <- $ebp
	#DEBUG_VALUE: get_mem4Dquant:dim1 <- [DW_OP_plus_uconst 8] [$rsp+0]
	#DEBUG_VALUE: get_mem4Dquant:dim2 <- $r12d
	#DEBUG_VALUE: get_mem4Dquant:dim3 <- [DW_OP_plus_uconst 12] [$rsp+0]
	#DEBUG_VALUE: get_mem4Dquant:mem_size <- [DW_OP_LLVM_convert 64 7, DW_OP_LLVM_convert 32 7, DW_OP_stack_value] $rbx
	#DEBUG_VALUE: get_mem3Dquant:dim0 <- $r15d
	#DEBUG_VALUE: get_mem3Dquant:array3D <- $r13
	#DEBUG_VALUE: get_mem3Dquant:dim1 <- $r12d
	#DEBUG_VALUE: get_mem3Dquant:dim2 <- [DW_OP_plus_uconst 12, DW_OP_deref] $rsp
	#DEBUG_VALUE: get_mem3Dquant:mem_size <- [DW_OP_LLVM_arg 0, DW_OP_plus_uconst 16, DW_OP_deref, DW_OP_LLVM_convert 64 7, DW_OP_LLVM_convert 32 7, DW_OP_LLVM_arg 1, DW_OP_plus, DW_OP_stack_value] $rsp, $eax
	#DEBUG_VALUE: get_mem3Dquant:i <- $rsi
	.loc	0 292 22 is_stmt 1              # ldecod_src/memalloc.c:292:22
	movq	(%r13), %rdi
	movq	-8(%rdi,%rsi,8), %r8
	.loc	0 292 39 is_stmt 0              # ldecod_src/memalloc.c:292:39
	addq	%rcx, %r8
	.loc	0 292 19                        # ldecod_src/memalloc.c:292:19
	movq	%r8, (%rdi,%rsi,8)
	.loc	0 291 25 is_stmt 1              # ldecod_src/memalloc.c:291:25
	incq	%rsi
.Ltmp337:
	#DEBUG_VALUE: get_mem3Dquant:i <- $rsi
	.loc	0 291 3 is_stmt 0               # ldecod_src/memalloc.c:291:3
	decq	%rdx
	jne	.LBB13_11
.Ltmp338:
.LBB13_12:                              # %get_mem3Dquant.exit
	#DEBUG_VALUE: get_mem4Dquant:array4D <- $r14
	#DEBUG_VALUE: get_mem4Dquant:dim0 <- $ebp
	#DEBUG_VALUE: get_mem4Dquant:dim1 <- [DW_OP_plus_uconst 8] [$rsp+0]
	#DEBUG_VALUE: get_mem4Dquant:dim2 <- $r12d
	#DEBUG_VALUE: get_mem4Dquant:dim3 <- [DW_OP_plus_uconst 12] [$rsp+0]
	#DEBUG_VALUE: get_mem4Dquant:mem_size <- [DW_OP_LLVM_convert 64 7, DW_OP_LLVM_convert 32 7, DW_OP_stack_value] $rbx
	#DEBUG_VALUE: get_mem3Dquant:dim0 <- $r15d
	#DEBUG_VALUE: get_mem3Dquant:array3D <- $r13
	#DEBUG_VALUE: get_mem3Dquant:dim1 <- $r12d
	#DEBUG_VALUE: get_mem3Dquant:dim2 <- [DW_OP_plus_uconst 12, DW_OP_deref] $rsp
	#DEBUG_VALUE: get_mem3Dquant:mem_size <- [DW_OP_LLVM_arg 0, DW_OP_plus_uconst 16, DW_OP_deref, DW_OP_LLVM_convert 64 7, DW_OP_LLVM_convert 32 7, DW_OP_LLVM_arg 1, DW_OP_plus, DW_OP_stack_value] $rsp, $eax
	#DEBUG_VALUE: get_mem3Dquant:mem_size <- [DW_OP_LLVM_arg 0, DW_OP_LLVM_arg 1, DW_OP_plus_uconst 16, DW_OP_deref, DW_OP_LLVM_convert 64 7, DW_OP_LLVM_convert 32 7, DW_OP_plus, DW_OP_stack_value] $eax, $rsp
	#DEBUG_VALUE: get_mem4Dquant:mem_size <- [DW_OP_LLVM_arg 0, DW_OP_LLVM_convert 64 7, DW_OP_LLVM_convert 32 7, DW_OP_LLVM_arg 1, DW_OP_LLVM_arg 2, DW_OP_plus_uconst 16, DW_OP_deref, DW_OP_LLVM_convert 64 7, DW_OP_LLVM_convert 32 7, DW_OP_plus, DW_OP_plus, DW_OP_stack_value] $rbx, $eax, $rsp
	#DEBUG_VALUE: get_mem4Dquant:i <- 1
	.loc	0 315 16 is_stmt 1              # ldecod_src/memalloc.c:315:16
	cmpl	$2, %ebp
.Ltmp339:
	.loc	0 315 3 is_stmt 0               # ldecod_src/memalloc.c:315:3
	jl	.LBB13_20
.Ltmp340:
# %bb.13:                               # %for.body.lr.ph
	#DEBUG_VALUE: get_mem4Dquant:array4D <- $r14
	#DEBUG_VALUE: get_mem4Dquant:dim0 <- $ebp
	#DEBUG_VALUE: get_mem4Dquant:dim1 <- [DW_OP_plus_uconst 8] [$rsp+0]
	#DEBUG_VALUE: get_mem4Dquant:dim2 <- $r12d
	#DEBUG_VALUE: get_mem4Dquant:dim3 <- [DW_OP_plus_uconst 12] [$rsp+0]
	#DEBUG_VALUE: get_mem4Dquant:mem_size <- [DW_OP_LLVM_arg 0, DW_OP_LLVM_convert 64 7, DW_OP_LLVM_convert 32 7, DW_OP_LLVM_arg 1, DW_OP_LLVM_arg 2, DW_OP_plus_uconst 16, DW_OP_deref, DW_OP_LLVM_convert 64 7, DW_OP_LLVM_convert 32 7, DW_OP_plus, DW_OP_plus, DW_OP_stack_value] $rbx, $eax, $rsp
	#DEBUG_VALUE: get_mem4Dquant:i <- 1
	.loc	0 0 3                           # ldecod_src/memalloc.c:0:3
	movslq	8(%rsp), %rcx                   # 4-byte Folded Reload
.Ltmp341:
	.loc	0 315 16                        # ldecod_src/memalloc.c:315:16
	movl	%ebp, %r8d
.Ltmp342:
	.loc	0 315 3                         # ldecod_src/memalloc.c:315:3
	leaq	-1(%r8), %rdi
	addq	$-2, %r8
	movl	%edi, %edx
	andl	$3, %edx
	movl	$1, %esi
	cmpq	$3, %r8
	jb	.LBB13_17
.Ltmp343:
# %bb.14:                               # %for.body.lr.ph.new
	#DEBUG_VALUE: get_mem4Dquant:array4D <- $r14
	#DEBUG_VALUE: get_mem4Dquant:dim0 <- $ebp
	#DEBUG_VALUE: get_mem4Dquant:dim1 <- [DW_OP_plus_uconst 8] [$rsp+0]
	#DEBUG_VALUE: get_mem4Dquant:dim2 <- $r12d
	#DEBUG_VALUE: get_mem4Dquant:dim3 <- [DW_OP_plus_uconst 12] [$rsp+0]
	#DEBUG_VALUE: get_mem4Dquant:mem_size <- [DW_OP_LLVM_arg 0, DW_OP_LLVM_convert 64 7, DW_OP_LLVM_convert 32 7, DW_OP_LLVM_arg 1, DW_OP_LLVM_arg 2, DW_OP_plus_uconst 16, DW_OP_deref, DW_OP_LLVM_convert 64 7, DW_OP_LLVM_convert 32 7, DW_OP_plus, DW_OP_plus, DW_OP_stack_value] $rbx, $eax, $rsp
	#DEBUG_VALUE: get_mem4Dquant:i <- 1
	andq	$-4, %rdi
	xorl	%esi, %esi
	leaq	(,%rcx,8), %r8
.Ltmp344:
	.p2align	4, 0x90
.LBB13_15:                              # %for.body
                                        # =>This Inner Loop Header: Depth=1
	#DEBUG_VALUE: get_mem4Dquant:array4D <- $r14
	#DEBUG_VALUE: get_mem4Dquant:dim0 <- $ebp
	#DEBUG_VALUE: get_mem4Dquant:dim1 <- [DW_OP_plus_uconst 8] [$rsp+0]
	#DEBUG_VALUE: get_mem4Dquant:dim2 <- $r12d
	#DEBUG_VALUE: get_mem4Dquant:dim3 <- [DW_OP_plus_uconst 12] [$rsp+0]
	#DEBUG_VALUE: get_mem4Dquant:mem_size <- [DW_OP_LLVM_arg 0, DW_OP_LLVM_convert 64 7, DW_OP_LLVM_convert 32 7, DW_OP_LLVM_arg 1, DW_OP_LLVM_arg 2, DW_OP_plus_uconst 16, DW_OP_deref, DW_OP_LLVM_convert 64 7, DW_OP_LLVM_convert 32 7, DW_OP_plus, DW_OP_plus, DW_OP_stack_value] $rbx, $eax, $rsp
	#DEBUG_VALUE: get_mem4Dquant:i <- 1
	.loc	0 316 22 is_stmt 1              # ldecod_src/memalloc.c:316:22
	movq	(%r14), %r9
	movq	(%r9,%rsi,8), %r10
	.loc	0 316 39 is_stmt 0              # ldecod_src/memalloc.c:316:39
	addq	%r8, %r10
	.loc	0 316 19                        # ldecod_src/memalloc.c:316:19
	movq	%r10, 8(%r9,%rsi,8)
	.loc	0 316 22                        # ldecod_src/memalloc.c:316:22
	movq	(%r14), %r9
	movq	8(%r9,%rsi,8), %r10
	.loc	0 316 39                        # ldecod_src/memalloc.c:316:39
	addq	%r8, %r10
	.loc	0 316 19                        # ldecod_src/memalloc.c:316:19
	movq	%r10, 16(%r9,%rsi,8)
	.loc	0 316 22                        # ldecod_src/memalloc.c:316:22
	movq	(%r14), %r9
	movq	16(%r9,%rsi,8), %r10
	.loc	0 316 39                        # ldecod_src/memalloc.c:316:39
	addq	%r8, %r10
	.loc	0 316 19                        # ldecod_src/memalloc.c:316:19
	movq	%r10, 24(%r9,%rsi,8)
	.loc	0 316 22                        # ldecod_src/memalloc.c:316:22
	movq	(%r14), %r9
	movq	24(%r9,%rsi,8), %r10
	.loc	0 316 39                        # ldecod_src/memalloc.c:316:39
	addq	%r8, %r10
	.loc	0 316 19                        # ldecod_src/memalloc.c:316:19
	movq	%r10, 32(%r9,%rsi,8)
.Ltmp345:
	.loc	0 315 3 is_stmt 1               # ldecod_src/memalloc.c:315:3
	addq	$4, %rsi
	cmpq	%rsi, %rdi
	jne	.LBB13_15
.Ltmp346:
# %bb.16:                               # %for.end.loopexit.unr-lcssa.loopexit
	#DEBUG_VALUE: get_mem4Dquant:array4D <- $r14
	#DEBUG_VALUE: get_mem4Dquant:dim0 <- $ebp
	#DEBUG_VALUE: get_mem4Dquant:dim1 <- [DW_OP_plus_uconst 8] [$rsp+0]
	#DEBUG_VALUE: get_mem4Dquant:dim2 <- $r12d
	#DEBUG_VALUE: get_mem4Dquant:dim3 <- [DW_OP_plus_uconst 12] [$rsp+0]
	#DEBUG_VALUE: get_mem4Dquant:mem_size <- [DW_OP_LLVM_arg 0, DW_OP_LLVM_convert 64 7, DW_OP_LLVM_convert 32 7, DW_OP_LLVM_arg 1, DW_OP_LLVM_arg 2, DW_OP_plus_uconst 16, DW_OP_deref, DW_OP_LLVM_convert 64 7, DW_OP_LLVM_convert 32 7, DW_OP_plus, DW_OP_plus, DW_OP_stack_value] $rbx, $eax, $rsp
	#DEBUG_VALUE: get_mem4Dquant:i <- 1
	incq	%rsi
.Ltmp347:
.LBB13_17:                              # %for.end.loopexit.unr-lcssa
	#DEBUG_VALUE: get_mem4Dquant:array4D <- $r14
	#DEBUG_VALUE: get_mem4Dquant:dim0 <- $ebp
	#DEBUG_VALUE: get_mem4Dquant:dim1 <- [DW_OP_plus_uconst 8] [$rsp+0]
	#DEBUG_VALUE: get_mem4Dquant:dim2 <- $r12d
	#DEBUG_VALUE: get_mem4Dquant:dim3 <- [DW_OP_plus_uconst 12] [$rsp+0]
	#DEBUG_VALUE: get_mem4Dquant:mem_size <- [DW_OP_LLVM_arg 0, DW_OP_LLVM_convert 64 7, DW_OP_LLVM_convert 32 7, DW_OP_LLVM_arg 1, DW_OP_LLVM_arg 2, DW_OP_plus_uconst 16, DW_OP_deref, DW_OP_LLVM_convert 64 7, DW_OP_LLVM_convert 32 7, DW_OP_plus, DW_OP_plus, DW_OP_stack_value] $rbx, $eax, $rsp
	#DEBUG_VALUE: get_mem4Dquant:i <- 1
	testq	%rdx, %rdx
	je	.LBB13_20
.Ltmp348:
# %bb.18:                               # %for.body.epil.preheader
	#DEBUG_VALUE: get_mem4Dquant:array4D <- $r14
	#DEBUG_VALUE: get_mem4Dquant:dim0 <- $ebp
	#DEBUG_VALUE: get_mem4Dquant:dim1 <- [DW_OP_plus_uconst 8] [$rsp+0]
	#DEBUG_VALUE: get_mem4Dquant:dim2 <- $r12d
	#DEBUG_VALUE: get_mem4Dquant:dim3 <- [DW_OP_plus_uconst 12] [$rsp+0]
	#DEBUG_VALUE: get_mem4Dquant:mem_size <- [DW_OP_LLVM_arg 0, DW_OP_LLVM_convert 64 7, DW_OP_LLVM_convert 32 7, DW_OP_LLVM_arg 1, DW_OP_LLVM_arg 2, DW_OP_plus_uconst 16, DW_OP_deref, DW_OP_LLVM_convert 64 7, DW_OP_LLVM_convert 32 7, DW_OP_plus, DW_OP_plus, DW_OP_stack_value] $rbx, $eax, $rsp
	#DEBUG_VALUE: get_mem4Dquant:i <- 1
	.loc	0 0 3 is_stmt 0                 # ldecod_src/memalloc.c:0:3
	shlq	$3, %rcx
.Ltmp349:
	.p2align	4, 0x90
.LBB13_19:                              # %for.body.epil
                                        # =>This Inner Loop Header: Depth=1
	#DEBUG_VALUE: get_mem4Dquant:array4D <- $r14
	#DEBUG_VALUE: get_mem4Dquant:dim0 <- $ebp
	#DEBUG_VALUE: get_mem4Dquant:dim1 <- [DW_OP_plus_uconst 8] [$rsp+0]
	#DEBUG_VALUE: get_mem4Dquant:dim2 <- $r12d
	#DEBUG_VALUE: get_mem4Dquant:dim3 <- [DW_OP_plus_uconst 12] [$rsp+0]
	#DEBUG_VALUE: get_mem4Dquant:mem_size <- [DW_OP_LLVM_arg 0, DW_OP_LLVM_convert 64 7, DW_OP_LLVM_convert 32 7, DW_OP_LLVM_arg 1, DW_OP_LLVM_arg 2, DW_OP_plus_uconst 16, DW_OP_deref, DW_OP_LLVM_convert 64 7, DW_OP_LLVM_convert 32 7, DW_OP_plus, DW_OP_plus, DW_OP_stack_value] $rbx, $eax, $rsp
	#DEBUG_VALUE: get_mem3Dquant:dim0 <- $r15d
	#DEBUG_VALUE: get_mem3Dquant:array3D <- $r13
	#DEBUG_VALUE: get_mem3Dquant:dim1 <- $r12d
	#DEBUG_VALUE: get_mem3Dquant:dim2 <- [DW_OP_plus_uconst 12, DW_OP_deref] $rsp
	#DEBUG_VALUE: get_mem3Dquant:i <- [DW_OP_LLVM_arg 0, DW_OP_consts 18446744073709551615, DW_OP_LLVM_arg 1, DW_OP_LLVM_convert 2 7, DW_OP_plus, DW_OP_LLVM_convert 64 7, DW_OP_minus, DW_OP_consts 18446744073709551615, DW_OP_div, DW_OP_consts 4, DW_OP_mul, DW_OP_consts 1, DW_OP_plus, DW_OP_stack_value] $rdx, $ebp
	#DEBUG_VALUE: get_mem4Dquant:i <- $rsi
	.loc	0 316 22 is_stmt 1              # ldecod_src/memalloc.c:316:22
	movq	(%r14), %rdi
	movq	-8(%rdi,%rsi,8), %r8
	.loc	0 316 39 is_stmt 0              # ldecod_src/memalloc.c:316:39
	addq	%rcx, %r8
	.loc	0 316 19                        # ldecod_src/memalloc.c:316:19
	movq	%r8, (%rdi,%rsi,8)
	.loc	0 315 25 is_stmt 1              # ldecod_src/memalloc.c:315:25
	incq	%rsi
.Ltmp350:
	#DEBUG_VALUE: get_mem4Dquant:i <- $rsi
	.loc	0 315 3 is_stmt 0               # ldecod_src/memalloc.c:315:3
	decq	%rdx
	jne	.LBB13_19
.Ltmp351:
.LBB13_20:                              # %for.end
	#DEBUG_VALUE: get_mem4Dquant:array4D <- $r14
	#DEBUG_VALUE: get_mem4Dquant:dim0 <- $ebp
	#DEBUG_VALUE: get_mem4Dquant:dim1 <- [DW_OP_plus_uconst 8] [$rsp+0]
	#DEBUG_VALUE: get_mem4Dquant:dim2 <- $r12d
	#DEBUG_VALUE: get_mem4Dquant:dim3 <- [DW_OP_plus_uconst 12] [$rsp+0]
	#DEBUG_VALUE: get_mem4Dquant:mem_size <- [DW_OP_LLVM_arg 0, DW_OP_LLVM_convert 64 7, DW_OP_LLVM_convert 32 7, DW_OP_LLVM_arg 1, DW_OP_LLVM_arg 2, DW_OP_plus_uconst 16, DW_OP_deref, DW_OP_LLVM_convert 64 7, DW_OP_LLVM_convert 32 7, DW_OP_plus, DW_OP_plus, DW_OP_stack_value] $rbx, $eax, $rsp
	#DEBUG_VALUE: get_mem3Dquant:dim0 <- $r15d
	#DEBUG_VALUE: get_mem3Dquant:array3D <- $r13
	#DEBUG_VALUE: get_mem3Dquant:dim1 <- $r12d
	#DEBUG_VALUE: get_mem3Dquant:dim2 <- [DW_OP_plus_uconst 12, DW_OP_deref] $rsp
	#DEBUG_VALUE: get_mem4Dquant:mem_size <- undef
	#DEBUG_VALUE: get_mem3Dquant:mem_size <- undef
	#DEBUG_VALUE: get_mem4Dquant:mem_size <- $ebx
	.loc	0 289 12 is_stmt 1              # ldecod_src/memalloc.c:289:12
	addl	16(%rsp), %ebx                  # 4-byte Folded Reload
.Ltmp352:
	.loc	0 313 12                        # ldecod_src/memalloc.c:313:12
	addl	%eax, %ebx
.Ltmp353:
	#DEBUG_VALUE: get_mem4Dquant:mem_size <- $ebx
	.loc	0 318 3                         # ldecod_src/memalloc.c:318:3
	movl	%ebx, %eax
	.loc	0 318 3 epilogue_begin is_stmt 0 # ldecod_src/memalloc.c:318:3
	addq	$24, %rsp
	.cfi_def_cfa_offset 56
	popq	%rbx
.Ltmp354:
	#DEBUG_VALUE: get_mem4Dquant:mem_size <- $eax
	.cfi_def_cfa_offset 48
	popq	%r12
.Ltmp355:
	#DEBUG_VALUE: get_mem4Dquant:dim2 <- [DW_OP_LLVM_entry_value 1] $ecx
	.cfi_def_cfa_offset 40
	popq	%r13
.Ltmp356:
	.cfi_def_cfa_offset 32
	popq	%r14
.Ltmp357:
	#DEBUG_VALUE: get_mem4Dquant:array4D <- [DW_OP_LLVM_entry_value 1] $rdi
	.cfi_def_cfa_offset 24
	popq	%r15
.Ltmp358:
	.cfi_def_cfa_offset 16
	popq	%rbp
.Ltmp359:
	#DEBUG_VALUE: get_mem4Dquant:dim0 <- [DW_OP_LLVM_entry_value 1] $esi
	.cfi_def_cfa_offset 8
	retq
.Ltmp360:
.Lfunc_end13:
	.size	get_mem4Dquant, .Lfunc_end13-get_mem4Dquant
	.cfi_endproc
                                        # -- End function
	.globl	get_mem5Dquant                  # -- Begin function get_mem5Dquant
	.p2align	4, 0x90
	.type	get_mem5Dquant,@function
get_mem5Dquant:                         # @get_mem5Dquant
.Lfunc_begin14:
	.loc	0 331 0 is_stmt 1               # ldecod_src/memalloc.c:331:0
	.cfi_startproc
# %bb.0:                                # %entry
	#DEBUG_VALUE: get_mem5Dquant:array5D <- $rdi
	#DEBUG_VALUE: get_mem5Dquant:dim0 <- $esi
	#DEBUG_VALUE: get_mem5Dquant:dim1 <- $edx
	#DEBUG_VALUE: get_mem5Dquant:dim2 <- $ecx
	#DEBUG_VALUE: get_mem5Dquant:dim3 <- $r8d
	#DEBUG_VALUE: get_mem5Dquant:dim4 <- $r9d
	pushq	%rbp
	.cfi_def_cfa_offset 16
	pushq	%r15
	.cfi_def_cfa_offset 24
	pushq	%r14
	.cfi_def_cfa_offset 32
	pushq	%r13
	.cfi_def_cfa_offset 40
	pushq	%r12
	.cfi_def_cfa_offset 48
	pushq	%rbx
	.cfi_def_cfa_offset 56
	pushq	%rax
	.cfi_def_cfa_offset 64
	.cfi_offset %rbx, -56
	.cfi_offset %r12, -48
	.cfi_offset %r13, -40
	.cfi_offset %r14, -32
	.cfi_offset %r15, -24
	.cfi_offset %rbp, -16
	movl	%r9d, 4(%rsp)                   # 4-byte Spill
.Ltmp361:
	#DEBUG_VALUE: get_mem5Dquant:dim4 <- [DW_OP_plus_uconst 4] [$rsp+0]
	movl	%r8d, %r13d
	movl	%ecx, %r12d
	movl	%edx, %r15d
	movl	%esi, %ebp
	movq	%rdi, %r14
.Ltmp362:
	.loc	0 332 21 prologue_end           # ldecod_src/memalloc.c:332:21
	movslq	%esi, %rbx
	.loc	0 332 26 is_stmt 0              # ldecod_src/memalloc.c:332:26
	shlq	$3, %rbx
.Ltmp363:
	#DEBUG_VALUE: get_mem5Dquant:mem_size <- [DW_OP_LLVM_convert 64 7, DW_OP_LLVM_convert 32 7, DW_OP_stack_value] $rbx
	.loc	0 334 43 is_stmt 1              # ldecod_src/memalloc.c:334:43
	movq	%rbx, %rdi
.Ltmp364:
	#DEBUG_VALUE: get_mem5Dquant:array5D <- $r14
	callq	malloc@PLT
.Ltmp365:
	#DEBUG_VALUE: get_mem5Dquant:dim3 <- $r13d
	#DEBUG_VALUE: get_mem5Dquant:dim2 <- $r12d
	#DEBUG_VALUE: get_mem5Dquant:dim1 <- $r15d
	#DEBUG_VALUE: get_mem5Dquant:dim0 <- $ebp
	.loc	0 334 18 is_stmt 0              # ldecod_src/memalloc.c:334:18
	movq	%rax, (%r14)
	.loc	0 334 88                        # ldecod_src/memalloc.c:334:88
	testq	%rax, %rax
.Ltmp366:
	.loc	0 334 6                         # ldecod_src/memalloc.c:334:6
	jne	.LBB14_2
.Ltmp367:
# %bb.1:                                # %if.then
	#DEBUG_VALUE: get_mem5Dquant:array5D <- $r14
	#DEBUG_VALUE: get_mem5Dquant:dim0 <- $ebp
	#DEBUG_VALUE: get_mem5Dquant:dim1 <- $r15d
	#DEBUG_VALUE: get_mem5Dquant:dim2 <- $r12d
	#DEBUG_VALUE: get_mem5Dquant:dim3 <- $r13d
	#DEBUG_VALUE: get_mem5Dquant:dim4 <- [DW_OP_plus_uconst 4] [$rsp+0]
	#DEBUG_VALUE: get_mem5Dquant:mem_size <- [DW_OP_LLVM_convert 64 7, DW_OP_LLVM_convert 32 7, DW_OP_stack_value] $rbx
	.loc	0 1833 4 is_stmt 1              # ldecod_src/memalloc.c:1833:4
	movq	errortext@GOTPCREL(%rip), %rdi
.Ltmp368:
	#DEBUG_VALUE: no_mem_exit:where <- undef
	movl	$300, %esi                      # imm = 0x12C
	movl	$.L.str.81, %edx
	movl	$.L.str.14, %ecx
	xorl	%eax, %eax
	callq	snprintf@PLT
.Ltmp369:
	.loc	0 1834 4                        # ldecod_src/memalloc.c:1834:4
	movq	errortext@GOTPCREL(%rip), %rdi
	movl	$100, %esi
	callq	error@PLT
.Ltmp370:
	.loc	0 337 30                        # ldecod_src/memalloc.c:337:30
	movq	(%r14), %rax
.Ltmp371:
.LBB14_2:                               # %if.end
	#DEBUG_VALUE: get_mem5Dquant:array5D <- $r14
	#DEBUG_VALUE: get_mem5Dquant:dim0 <- $ebp
	#DEBUG_VALUE: get_mem5Dquant:dim1 <- $r15d
	#DEBUG_VALUE: get_mem5Dquant:dim2 <- $r12d
	#DEBUG_VALUE: get_mem5Dquant:dim3 <- $r13d
	#DEBUG_VALUE: get_mem5Dquant:dim4 <- [DW_OP_plus_uconst 4] [$rsp+0]
	#DEBUG_VALUE: get_mem5Dquant:mem_size <- [DW_OP_LLVM_convert 64 7, DW_OP_LLVM_convert 32 7, DW_OP_stack_value] $rbx
	.loc	0 337 45 is_stmt 0              # ldecod_src/memalloc.c:337:45
	movl	%r15d, %esi
	imull	%ebp, %esi
	.loc	0 337 15                        # ldecod_src/memalloc.c:337:15
	movq	%rax, %rdi
	movl	%r12d, %edx
	movl	%r13d, %ecx
	movl	4(%rsp), %r8d                   # 4-byte Reload
	callq	get_mem4Dquant
.Ltmp372:
	#DEBUG_VALUE: get_mem5Dquant:mem_size <- [DW_OP_LLVM_arg 0, DW_OP_LLVM_convert 64 7, DW_OP_LLVM_convert 32 7, DW_OP_LLVM_arg 1, DW_OP_plus, DW_OP_stack_value] $rbx, $eax
	#DEBUG_VALUE: get_mem5Dquant:i <- 1
	.loc	0 339 16 is_stmt 1              # ldecod_src/memalloc.c:339:16
	cmpl	$2, %ebp
.Ltmp373:
	.loc	0 339 3 is_stmt 0               # ldecod_src/memalloc.c:339:3
	jl	.LBB14_10
.Ltmp374:
# %bb.3:                                # %for.body.lr.ph
	#DEBUG_VALUE: get_mem5Dquant:array5D <- $r14
	#DEBUG_VALUE: get_mem5Dquant:dim0 <- $ebp
	#DEBUG_VALUE: get_mem5Dquant:dim1 <- $r15d
	#DEBUG_VALUE: get_mem5Dquant:dim2 <- $r12d
	#DEBUG_VALUE: get_mem5Dquant:dim3 <- $r13d
	#DEBUG_VALUE: get_mem5Dquant:dim4 <- [DW_OP_plus_uconst 4] [$rsp+0]
	#DEBUG_VALUE: get_mem5Dquant:mem_size <- [DW_OP_LLVM_arg 0, DW_OP_LLVM_convert 64 7, DW_OP_LLVM_convert 32 7, DW_OP_LLVM_arg 1, DW_OP_plus, DW_OP_stack_value] $rbx, $eax
	#DEBUG_VALUE: get_mem5Dquant:i <- 1
	.loc	0 0 3                           # ldecod_src/memalloc.c:0:3
	movslq	%r15d, %rcx
.Ltmp375:
	.loc	0 339 16                        # ldecod_src/memalloc.c:339:16
	movl	%ebp, %r8d
.Ltmp376:
	.loc	0 339 3                         # ldecod_src/memalloc.c:339:3
	leaq	-1(%r8), %rdi
	addq	$-2, %r8
	movl	%edi, %edx
	andl	$3, %edx
	movl	$1, %esi
	cmpq	$3, %r8
	jb	.LBB14_7
.Ltmp377:
# %bb.4:                                # %for.body.lr.ph.new
	#DEBUG_VALUE: get_mem5Dquant:array5D <- $r14
	#DEBUG_VALUE: get_mem5Dquant:dim0 <- $ebp
	#DEBUG_VALUE: get_mem5Dquant:dim1 <- $r15d
	#DEBUG_VALUE: get_mem5Dquant:dim2 <- $r12d
	#DEBUG_VALUE: get_mem5Dquant:dim3 <- $r13d
	#DEBUG_VALUE: get_mem5Dquant:dim4 <- [DW_OP_plus_uconst 4] [$rsp+0]
	#DEBUG_VALUE: get_mem5Dquant:mem_size <- [DW_OP_LLVM_arg 0, DW_OP_LLVM_convert 64 7, DW_OP_LLVM_convert 32 7, DW_OP_LLVM_arg 1, DW_OP_plus, DW_OP_stack_value] $rbx, $eax
	#DEBUG_VALUE: get_mem5Dquant:i <- 1
	andq	$-4, %rdi
	xorl	%esi, %esi
	leaq	(,%rcx,8), %r8
.Ltmp378:
	.p2align	4, 0x90
.LBB14_5:                               # %for.body
                                        # =>This Inner Loop Header: Depth=1
	#DEBUG_VALUE: get_mem5Dquant:array5D <- $r14
	#DEBUG_VALUE: get_mem5Dquant:dim0 <- $ebp
	#DEBUG_VALUE: get_mem5Dquant:dim1 <- $r15d
	#DEBUG_VALUE: get_mem5Dquant:dim2 <- $r12d
	#DEBUG_VALUE: get_mem5Dquant:dim3 <- $r13d
	#DEBUG_VALUE: get_mem5Dquant:dim4 <- [DW_OP_plus_uconst 4] [$rsp+0]
	#DEBUG_VALUE: get_mem5Dquant:mem_size <- [DW_OP_LLVM_arg 0, DW_OP_LLVM_convert 64 7, DW_OP_LLVM_convert 32 7, DW_OP_LLVM_arg 1, DW_OP_plus, DW_OP_stack_value] $rbx, $eax
	#DEBUG_VALUE: get_mem5Dquant:i <- 1
	.loc	0 340 22 is_stmt 1              # ldecod_src/memalloc.c:340:22
	movq	(%r14), %r9
	movq	(%r9,%rsi,8), %r10
	.loc	0 340 39 is_stmt 0              # ldecod_src/memalloc.c:340:39
	addq	%r8, %r10
	.loc	0 340 19                        # ldecod_src/memalloc.c:340:19
	movq	%r10, 8(%r9,%rsi,8)
	.loc	0 340 22                        # ldecod_src/memalloc.c:340:22
	movq	(%r14), %r9
	movq	8(%r9,%rsi,8), %r10
	.loc	0 340 39                        # ldecod_src/memalloc.c:340:39
	addq	%r8, %r10
	.loc	0 340 19                        # ldecod_src/memalloc.c:340:19
	movq	%r10, 16(%r9,%rsi,8)
	.loc	0 340 22                        # ldecod_src/memalloc.c:340:22
	movq	(%r14), %r9
	movq	16(%r9,%rsi,8), %r10
	.loc	0 340 39                        # ldecod_src/memalloc.c:340:39
	addq	%r8, %r10
	.loc	0 340 19                        # ldecod_src/memalloc.c:340:19
	movq	%r10, 24(%r9,%rsi,8)
	.loc	0 340 22                        # ldecod_src/memalloc.c:340:22
	movq	(%r14), %r9
	movq	24(%r9,%rsi,8), %r10
	.loc	0 340 39                        # ldecod_src/memalloc.c:340:39
	addq	%r8, %r10
	.loc	0 340 19                        # ldecod_src/memalloc.c:340:19
	movq	%r10, 32(%r9,%rsi,8)
.Ltmp379:
	.loc	0 339 3 is_stmt 1               # ldecod_src/memalloc.c:339:3
	addq	$4, %rsi
	cmpq	%rsi, %rdi
	jne	.LBB14_5
.Ltmp380:
# %bb.6:                                # %for.end.loopexit.unr-lcssa.loopexit
	#DEBUG_VALUE: get_mem5Dquant:array5D <- $r14
	#DEBUG_VALUE: get_mem5Dquant:dim0 <- $ebp
	#DEBUG_VALUE: get_mem5Dquant:dim1 <- $r15d
	#DEBUG_VALUE: get_mem5Dquant:dim2 <- $r12d
	#DEBUG_VALUE: get_mem5Dquant:dim3 <- $r13d
	#DEBUG_VALUE: get_mem5Dquant:dim4 <- [DW_OP_plus_uconst 4] [$rsp+0]
	#DEBUG_VALUE: get_mem5Dquant:mem_size <- [DW_OP_LLVM_arg 0, DW_OP_LLVM_convert 64 7, DW_OP_LLVM_convert 32 7, DW_OP_LLVM_arg 1, DW_OP_plus, DW_OP_stack_value] $rbx, $eax
	#DEBUG_VALUE: get_mem5Dquant:i <- 1
	incq	%rsi
.Ltmp381:
.LBB14_7:                               # %for.end.loopexit.unr-lcssa
	#DEBUG_VALUE: get_mem5Dquant:array5D <- $r14
	#DEBUG_VALUE: get_mem5Dquant:dim0 <- $ebp
	#DEBUG_VALUE: get_mem5Dquant:dim1 <- $r15d
	#DEBUG_VALUE: get_mem5Dquant:dim2 <- $r12d
	#DEBUG_VALUE: get_mem5Dquant:dim3 <- $r13d
	#DEBUG_VALUE: get_mem5Dquant:dim4 <- [DW_OP_plus_uconst 4] [$rsp+0]
	#DEBUG_VALUE: get_mem5Dquant:mem_size <- [DW_OP_LLVM_arg 0, DW_OP_LLVM_convert 64 7, DW_OP_LLVM_convert 32 7, DW_OP_LLVM_arg 1, DW_OP_plus, DW_OP_stack_value] $rbx, $eax
	#DEBUG_VALUE: get_mem5Dquant:i <- 1
	testq	%rdx, %rdx
	je	.LBB14_10
.Ltmp382:
# %bb.8:                                # %for.body.epil.preheader
	#DEBUG_VALUE: get_mem5Dquant:array5D <- $r14
	#DEBUG_VALUE: get_mem5Dquant:dim0 <- $ebp
	#DEBUG_VALUE: get_mem5Dquant:dim1 <- $r15d
	#DEBUG_VALUE: get_mem5Dquant:dim2 <- $r12d
	#DEBUG_VALUE: get_mem5Dquant:dim3 <- $r13d
	#DEBUG_VALUE: get_mem5Dquant:dim4 <- [DW_OP_plus_uconst 4] [$rsp+0]
	#DEBUG_VALUE: get_mem5Dquant:mem_size <- [DW_OP_LLVM_arg 0, DW_OP_LLVM_convert 64 7, DW_OP_LLVM_convert 32 7, DW_OP_LLVM_arg 1, DW_OP_plus, DW_OP_stack_value] $rbx, $eax
	#DEBUG_VALUE: get_mem5Dquant:i <- 1
	.loc	0 0 3 is_stmt 0                 # ldecod_src/memalloc.c:0:3
	shlq	$3, %rcx
.Ltmp383:
	.p2align	4, 0x90
.LBB14_9:                               # %for.body.epil
                                        # =>This Inner Loop Header: Depth=1
	#DEBUG_VALUE: get_mem5Dquant:array5D <- $r14
	#DEBUG_VALUE: get_mem5Dquant:dim0 <- $ebp
	#DEBUG_VALUE: get_mem5Dquant:dim1 <- $r15d
	#DEBUG_VALUE: get_mem5Dquant:dim2 <- $r12d
	#DEBUG_VALUE: get_mem5Dquant:dim3 <- $r13d
	#DEBUG_VALUE: get_mem5Dquant:dim4 <- [DW_OP_plus_uconst 4] [$rsp+0]
	#DEBUG_VALUE: get_mem5Dquant:mem_size <- [DW_OP_LLVM_arg 0, DW_OP_LLVM_convert 64 7, DW_OP_LLVM_convert 32 7, DW_OP_LLVM_arg 1, DW_OP_plus, DW_OP_stack_value] $rbx, $eax
	#DEBUG_VALUE: get_mem5Dquant:i <- $rsi
	.loc	0 340 22 is_stmt 1              # ldecod_src/memalloc.c:340:22
	movq	(%r14), %rdi
	movq	-8(%rdi,%rsi,8), %r8
	.loc	0 340 39 is_stmt 0              # ldecod_src/memalloc.c:340:39
	addq	%rcx, %r8
	.loc	0 340 19                        # ldecod_src/memalloc.c:340:19
	movq	%r8, (%rdi,%rsi,8)
	.loc	0 339 25 is_stmt 1              # ldecod_src/memalloc.c:339:25
	incq	%rsi
.Ltmp384:
	#DEBUG_VALUE: get_mem5Dquant:i <- $rsi
	.loc	0 339 3 is_stmt 0               # ldecod_src/memalloc.c:339:3
	decq	%rdx
	jne	.LBB14_9
.Ltmp385:
.LBB14_10:                              # %for.end
	#DEBUG_VALUE: get_mem5Dquant:array5D <- $r14
	#DEBUG_VALUE: get_mem5Dquant:dim0 <- $ebp
	#DEBUG_VALUE: get_mem5Dquant:dim1 <- $r15d
	#DEBUG_VALUE: get_mem5Dquant:dim2 <- $r12d
	#DEBUG_VALUE: get_mem5Dquant:dim3 <- $r13d
	#DEBUG_VALUE: get_mem5Dquant:dim4 <- [DW_OP_plus_uconst 4] [$rsp+0]
	#DEBUG_VALUE: get_mem5Dquant:mem_size <- [DW_OP_LLVM_arg 0, DW_OP_LLVM_convert 64 7, DW_OP_LLVM_convert 32 7, DW_OP_LLVM_arg 1, DW_OP_plus, DW_OP_stack_value] $rbx, $eax
	#DEBUG_VALUE: get_mem5Dquant:mem_size <- $ebx
	.loc	0 337 12 is_stmt 1              # ldecod_src/memalloc.c:337:12
	addl	%ebx, %eax
.Ltmp386:
	#DEBUG_VALUE: get_mem5Dquant:mem_size <- $eax
	.loc	0 342 3 epilogue_begin          # ldecod_src/memalloc.c:342:3
	addq	$8, %rsp
	.cfi_def_cfa_offset 56
	popq	%rbx
	.cfi_def_cfa_offset 48
	popq	%r12
.Ltmp387:
	#DEBUG_VALUE: get_mem5Dquant:dim2 <- [DW_OP_LLVM_entry_value 1] $ecx
	.cfi_def_cfa_offset 40
	popq	%r13
.Ltmp388:
	#DEBUG_VALUE: get_mem5Dquant:dim3 <- [DW_OP_LLVM_entry_value 1] $r8d
	.cfi_def_cfa_offset 32
	popq	%r14
.Ltmp389:
	#DEBUG_VALUE: get_mem5Dquant:array5D <- [DW_OP_LLVM_entry_value 1] $rdi
	.cfi_def_cfa_offset 24
	popq	%r15
.Ltmp390:
	#DEBUG_VALUE: get_mem5Dquant:dim1 <- [DW_OP_LLVM_entry_value 1] $edx
	.cfi_def_cfa_offset 16
	popq	%rbp
.Ltmp391:
	#DEBUG_VALUE: get_mem5Dquant:dim0 <- [DW_OP_LLVM_entry_value 1] $esi
	.cfi_def_cfa_offset 8
	retq
.Ltmp392:
.Lfunc_end14:
	.size	get_mem5Dquant, .Lfunc_end14-get_mem5Dquant
	.cfi_endproc
                                        # -- End function
	.globl	free_mem2Dquant                 # -- Begin function free_mem2Dquant
	.p2align	4, 0x90
	.type	free_mem2Dquant,@function
free_mem2Dquant:                        # @free_mem2Dquant
.Lfunc_begin15:
	.cfi_startproc
# %bb.0:                                # %entry
	#DEBUG_VALUE: free_mem2Dquant:array2D <- $rdi
	.loc	0 354 7 prologue_end            # ldecod_src/memalloc.c:354:7
	testq	%rdi, %rdi
.Ltmp393:
	.loc	0 354 7 is_stmt 0               # ldecod_src/memalloc.c:354:7
	je	.LBB15_5
.Ltmp394:
# %bb.1:                                # %if.then
	#DEBUG_VALUE: free_mem2Dquant:array2D <- $rdi
	pushq	%rbx
	.cfi_def_cfa_offset 16
	.cfi_offset %rbx, -16
	movq	%rdi, %rbx
.Ltmp395:
	.loc	0 356 9 is_stmt 1               # ldecod_src/memalloc.c:356:9
	movq	(%rdi), %rdi
.Ltmp396:
	#DEBUG_VALUE: free_mem2Dquant:array2D <- $rbx
	testq	%rdi, %rdi
.Ltmp397:
	.loc	0 356 9 is_stmt 0               # ldecod_src/memalloc.c:356:9
	je	.LBB15_3
.Ltmp398:
# %bb.2:                                # %if.then2
	#DEBUG_VALUE: free_mem2Dquant:array2D <- $rbx
	.loc	0 357 7 is_stmt 1               # ldecod_src/memalloc.c:357:7
	callq	free@PLT
.Ltmp399:
	.loc	0 361 5                         # ldecod_src/memalloc.c:361:5
	movq	%rbx, %rdi
	.loc	0 361 5 epilogue_begin is_stmt 0 # ldecod_src/memalloc.c:361:5
	popq	%rbx
.Ltmp400:
	#DEBUG_VALUE: free_mem2Dquant:array2D <- $rdi
	.cfi_def_cfa_offset 8
	jmp	free@PLT                        # TAILCALL
.Ltmp401:
.LBB15_5:                               # %if.else3
	.cfi_restore %rbx
	#DEBUG_VALUE: free_mem2Dquant:array2D <- $rdi
	.loc	0 365 5 is_stmt 1               # ldecod_src/memalloc.c:365:5
	movl	$.L.str.15, %edi
.Ltmp402:
	#DEBUG_VALUE: free_mem2Dquant:array2D <- [DW_OP_LLVM_entry_value 1] $rdi
	movl	$100, %esi
.Ltmp403:
	jmp	error@PLT                       # TAILCALL
.Ltmp404:
.LBB15_3:                               # %if.else
	.cfi_def_cfa_offset 16
	.cfi_offset %rbx, -16
	#DEBUG_VALUE: free_mem2Dquant:array2D <- $rbx
	.loc	0 359 7                         # ldecod_src/memalloc.c:359:7
	movl	$.L.str.15, %edi
	movl	$100, %esi
	callq	error@PLT
.Ltmp405:
	.loc	0 361 5                         # ldecod_src/memalloc.c:361:5
	movq	%rbx, %rdi
	.loc	0 361 5 epilogue_begin is_stmt 0 # ldecod_src/memalloc.c:361:5
	popq	%rbx
.Ltmp406:
	#DEBUG_VALUE: free_mem2Dquant:array2D <- $rdi
	.cfi_def_cfa_offset 8
	jmp	free@PLT                        # TAILCALL
.Ltmp407:
.Lfunc_end15:
	.size	free_mem2Dquant, .Lfunc_end15-free_mem2Dquant
	.cfi_endproc
                                        # -- End function
	.globl	free_mem3Dquant                 # -- Begin function free_mem3Dquant
	.p2align	4, 0x90
	.type	free_mem3Dquant,@function
free_mem3Dquant:                        # @free_mem3Dquant
.Lfunc_begin16:
	.cfi_startproc
# %bb.0:                                # %entry
	#DEBUG_VALUE: free_mem3Dquant:array3D <- $rdi
	.loc	0 379 7 prologue_end is_stmt 1  # ldecod_src/memalloc.c:379:7
	testq	%rdi, %rdi
.Ltmp408:
	.loc	0 379 7 is_stmt 0               # ldecod_src/memalloc.c:379:7
	je	.LBB16_8
.Ltmp409:
# %bb.1:                                # %if.then
	#DEBUG_VALUE: free_mem3Dquant:array3D <- $rdi
	pushq	%r14
	.cfi_def_cfa_offset 16
	pushq	%rbx
	.cfi_def_cfa_offset 24
	pushq	%rax
	.cfi_def_cfa_offset 32
	.cfi_offset %rbx, -24
	.cfi_offset %r14, -16
	movq	%rdi, %rbx
.Ltmp410:
	.loc	0 381 21 is_stmt 1              # ldecod_src/memalloc.c:381:21
	movq	(%rdi), %r14
.Ltmp411:
	#DEBUG_VALUE: free_mem2Dquant:array2D <- $r14
	.loc	0 354 7                         # ldecod_src/memalloc.c:354:7
	testq	%r14, %r14
.Ltmp412:
	.loc	0 354 7 is_stmt 0               # ldecod_src/memalloc.c:354:7
	je	.LBB16_6
.Ltmp413:
# %bb.2:                                # %if.then.i
	#DEBUG_VALUE: free_mem3Dquant:array3D <- $rbx
	#DEBUG_VALUE: free_mem2Dquant:array2D <- $r14
	.loc	0 356 9 is_stmt 1               # ldecod_src/memalloc.c:356:9
	movq	(%r14), %rdi
	testq	%rdi, %rdi
.Ltmp414:
	.loc	0 356 9 is_stmt 0               # ldecod_src/memalloc.c:356:9
	je	.LBB16_4
.Ltmp415:
# %bb.3:                                # %if.then2.i
	#DEBUG_VALUE: free_mem3Dquant:array3D <- $rbx
	#DEBUG_VALUE: free_mem2Dquant:array2D <- $r14
	.loc	0 357 7 is_stmt 1               # ldecod_src/memalloc.c:357:7
	callq	free@PLT
.Ltmp416:
	jmp	.LBB16_5
.Ltmp417:
.LBB16_8:                               # %if.else
	.cfi_def_cfa_offset 8
	.cfi_restore %rbx
	.cfi_restore %r14
	#DEBUG_VALUE: free_mem3Dquant:array3D <- $rdi
	.loc	0 386 5                         # ldecod_src/memalloc.c:386:5
	movl	$.L.str.16, %edi
.Ltmp418:
	#DEBUG_VALUE: free_mem3Dquant:array3D <- [DW_OP_LLVM_entry_value 1] $rdi
	movl	$100, %esi
.Ltmp419:
	jmp	error@PLT                       # TAILCALL
.Ltmp420:
.LBB16_6:                               # %if.else3.i
	.cfi_def_cfa_offset 32
	.cfi_offset %rbx, -24
	.cfi_offset %r14, -16
	#DEBUG_VALUE: free_mem3Dquant:array3D <- $rbx
	#DEBUG_VALUE: free_mem2Dquant:array2D <- $r14
	.loc	0 365 5                         # ldecod_src/memalloc.c:365:5
	movl	$.L.str.15, %edi
	movl	$100, %esi
	callq	error@PLT
.Ltmp421:
	.loc	0 0 5 is_stmt 0                 # ldecod_src/memalloc.c:0:5
	jmp	.LBB16_7
.Ltmp422:
.LBB16_4:                               # %if.else.i
	#DEBUG_VALUE: free_mem3Dquant:array3D <- $rbx
	#DEBUG_VALUE: free_mem2Dquant:array2D <- $r14
	.loc	0 359 7 is_stmt 1               # ldecod_src/memalloc.c:359:7
	movl	$.L.str.15, %edi
	movl	$100, %esi
	callq	error@PLT
.Ltmp423:
.LBB16_5:                               # %if.end.i
	#DEBUG_VALUE: free_mem3Dquant:array3D <- $rbx
	#DEBUG_VALUE: free_mem2Dquant:array2D <- $r14
	.loc	0 361 5                         # ldecod_src/memalloc.c:361:5
	movq	%r14, %rdi
	callq	free@PLT
.Ltmp424:
.LBB16_7:                               # %free_mem2Dquant.exit
	#DEBUG_VALUE: free_mem3Dquant:array3D <- $rbx
	.loc	0 382 5                         # ldecod_src/memalloc.c:382:5
	movq	%rbx, %rdi
	.loc	0 382 5 epilogue_begin is_stmt 0 # ldecod_src/memalloc.c:382:5
	addq	$8, %rsp
	.cfi_def_cfa_offset 24
	popq	%rbx
.Ltmp425:
	#DEBUG_VALUE: free_mem3Dquant:array3D <- $rdi
	.cfi_def_cfa_offset 16
	popq	%r14
	.cfi_def_cfa_offset 8
.Ltmp426:
	jmp	free@PLT                        # TAILCALL
.Ltmp427:
.Lfunc_end16:
	.size	free_mem3Dquant, .Lfunc_end16-free_mem3Dquant
	.cfi_endproc
                                        # -- End function
	.globl	free_mem4Dquant                 # -- Begin function free_mem4Dquant
	.p2align	4, 0x90
	.type	free_mem4Dquant,@function
free_mem4Dquant:                        # @free_mem4Dquant
.Lfunc_begin17:
	.cfi_startproc
# %bb.0:                                # %entry
	#DEBUG_VALUE: free_mem4Dquant:array4D <- $rdi
	.loc	0 399 7 prologue_end is_stmt 1  # ldecod_src/memalloc.c:399:7
	testq	%rdi, %rdi
.Ltmp428:
	.loc	0 399 7 is_stmt 0               # ldecod_src/memalloc.c:399:7
	je	.LBB17_11
.Ltmp429:
# %bb.1:                                # %if.then
	#DEBUG_VALUE: free_mem4Dquant:array4D <- $rdi
	pushq	%r15
	.cfi_def_cfa_offset 16
	pushq	%r14
	.cfi_def_cfa_offset 24
	pushq	%rbx
	.cfi_def_cfa_offset 32
	.cfi_offset %rbx, -32
	.cfi_offset %r14, -24
	.cfi_offset %r15, -16
	movq	%rdi, %rbx
.Ltmp430:
	.loc	0 401 21 is_stmt 1              # ldecod_src/memalloc.c:401:21
	movq	(%rdi), %r14
.Ltmp431:
	#DEBUG_VALUE: free_mem3Dquant:array3D <- $r14
	.loc	0 379 7                         # ldecod_src/memalloc.c:379:7
	testq	%r14, %r14
.Ltmp432:
	.loc	0 379 7 is_stmt 0               # ldecod_src/memalloc.c:379:7
	je	.LBB17_9
.Ltmp433:
# %bb.2:                                # %if.then.i
	#DEBUG_VALUE: free_mem4Dquant:array4D <- $rbx
	#DEBUG_VALUE: free_mem3Dquant:array3D <- $r14
	.loc	0 381 21 is_stmt 1              # ldecod_src/memalloc.c:381:21
	movq	(%r14), %r15
.Ltmp434:
	#DEBUG_VALUE: free_mem2Dquant:array2D <- $r15
	.loc	0 354 7                         # ldecod_src/memalloc.c:354:7
	testq	%r15, %r15
.Ltmp435:
	.loc	0 354 7 is_stmt 0               # ldecod_src/memalloc.c:354:7
	je	.LBB17_7
.Ltmp436:
# %bb.3:                                # %if.then.i.i
	#DEBUG_VALUE: free_mem4Dquant:array4D <- $rbx
	#DEBUG_VALUE: free_mem3Dquant:array3D <- $r14
	#DEBUG_VALUE: free_mem2Dquant:array2D <- $r15
	.loc	0 356 9 is_stmt 1               # ldecod_src/memalloc.c:356:9
	movq	(%r15), %rdi
	testq	%rdi, %rdi
.Ltmp437:
	.loc	0 356 9 is_stmt 0               # ldecod_src/memalloc.c:356:9
	je	.LBB17_5
.Ltmp438:
# %bb.4:                                # %if.then2.i.i
	#DEBUG_VALUE: free_mem4Dquant:array4D <- $rbx
	#DEBUG_VALUE: free_mem3Dquant:array3D <- $r14
	#DEBUG_VALUE: free_mem2Dquant:array2D <- $r15
	.loc	0 357 7 is_stmt 1               # ldecod_src/memalloc.c:357:7
	callq	free@PLT
.Ltmp439:
	jmp	.LBB17_6
.Ltmp440:
.LBB17_11:                              # %if.else
	.cfi_def_cfa_offset 8
	.cfi_restore %rbx
	.cfi_restore %r14
	.cfi_restore %r15
	#DEBUG_VALUE: free_mem4Dquant:array4D <- $rdi
	.loc	0 406 5                         # ldecod_src/memalloc.c:406:5
	movl	$.L.str.17, %edi
.Ltmp441:
	#DEBUG_VALUE: free_mem4Dquant:array4D <- [DW_OP_LLVM_entry_value 1] $rdi
	movl	$100, %esi
.Ltmp442:
	jmp	error@PLT                       # TAILCALL
.Ltmp443:
.LBB17_9:                               # %if.else.i
	.cfi_def_cfa_offset 32
	.cfi_offset %rbx, -32
	.cfi_offset %r14, -24
	.cfi_offset %r15, -16
	#DEBUG_VALUE: free_mem4Dquant:array4D <- $rbx
	#DEBUG_VALUE: free_mem3Dquant:array3D <- $r14
	.loc	0 386 5                         # ldecod_src/memalloc.c:386:5
	movl	$.L.str.16, %edi
	movl	$100, %esi
	callq	error@PLT
.Ltmp444:
	.loc	0 0 5 is_stmt 0                 # ldecod_src/memalloc.c:0:5
	jmp	.LBB17_10
.Ltmp445:
.LBB17_7:                               # %if.else3.i.i
	#DEBUG_VALUE: free_mem4Dquant:array4D <- $rbx
	#DEBUG_VALUE: free_mem3Dquant:array3D <- $r14
	#DEBUG_VALUE: free_mem2Dquant:array2D <- $r15
	.loc	0 365 5 is_stmt 1               # ldecod_src/memalloc.c:365:5
	movl	$.L.str.15, %edi
	movl	$100, %esi
	callq	error@PLT
.Ltmp446:
	.loc	0 0 5 is_stmt 0                 # ldecod_src/memalloc.c:0:5
	jmp	.LBB17_8
.Ltmp447:
.LBB17_5:                               # %if.else.i.i
	#DEBUG_VALUE: free_mem4Dquant:array4D <- $rbx
	#DEBUG_VALUE: free_mem3Dquant:array3D <- $r14
	#DEBUG_VALUE: free_mem2Dquant:array2D <- $r15
	.loc	0 359 7 is_stmt 1               # ldecod_src/memalloc.c:359:7
	movl	$.L.str.15, %edi
	movl	$100, %esi
	callq	error@PLT
.Ltmp448:
.LBB17_6:                               # %if.end.i.i
	#DEBUG_VALUE: free_mem4Dquant:array4D <- $rbx
	#DEBUG_VALUE: free_mem3Dquant:array3D <- $r14
	#DEBUG_VALUE: free_mem2Dquant:array2D <- $r15
	.loc	0 361 5                         # ldecod_src/memalloc.c:361:5
	movq	%r15, %rdi
	callq	free@PLT
.Ltmp449:
.LBB17_8:                               # %free_mem2Dquant.exit.i
	#DEBUG_VALUE: free_mem4Dquant:array4D <- $rbx
	#DEBUG_VALUE: free_mem3Dquant:array3D <- $r14
	.loc	0 382 5                         # ldecod_src/memalloc.c:382:5
	movq	%r14, %rdi
	callq	free@PLT
.Ltmp450:
.LBB17_10:                              # %free_mem3Dquant.exit
	#DEBUG_VALUE: free_mem4Dquant:array4D <- $rbx
	.loc	0 402 5                         # ldecod_src/memalloc.c:402:5
	movq	%rbx, %rdi
	.loc	0 402 5 epilogue_begin is_stmt 0 # ldecod_src/memalloc.c:402:5
	popq	%rbx
.Ltmp451:
	#DEBUG_VALUE: free_mem4Dquant:array4D <- $rdi
	.cfi_def_cfa_offset 24
	popq	%r14
	.cfi_def_cfa_offset 16
	popq	%r15
	.cfi_def_cfa_offset 8
.Ltmp452:
	jmp	free@PLT                        # TAILCALL
.Ltmp453:
.Lfunc_end17:
	.size	free_mem4Dquant, .Lfunc_end17-free_mem4Dquant
	.cfi_endproc
                                        # -- End function
	.globl	free_mem5Dquant                 # -- Begin function free_mem5Dquant
	.p2align	4, 0x90
	.type	free_mem5Dquant,@function
free_mem5Dquant:                        # @free_mem5Dquant
.Lfunc_begin18:
	.cfi_startproc
# %bb.0:                                # %entry
	#DEBUG_VALUE: free_mem5Dquant:array5D <- $rdi
	.loc	0 419 7 prologue_end is_stmt 1  # ldecod_src/memalloc.c:419:7
	testq	%rdi, %rdi
.Ltmp454:
	.loc	0 419 7 is_stmt 0               # ldecod_src/memalloc.c:419:7
	je	.LBB18_2
.Ltmp455:
# %bb.1:                                # %if.then
	#DEBUG_VALUE: free_mem5Dquant:array5D <- $rdi
	pushq	%rbx
	.cfi_def_cfa_offset 16
	.cfi_offset %rbx, -16
	.loc	0 421 21 is_stmt 1              # ldecod_src/memalloc.c:421:21
	movq	(%rdi), %rax
	movq	%rdi, %rbx
.Ltmp456:
	#DEBUG_VALUE: free_mem5Dquant:array5D <- $rbx
	.loc	0 421 5 is_stmt 0               # ldecod_src/memalloc.c:421:5
	movq	%rax, %rdi
	callq	free_mem4Dquant
.Ltmp457:
	.loc	0 422 5 is_stmt 1               # ldecod_src/memalloc.c:422:5
	movq	%rbx, %rdi
	.loc	0 422 5 epilogue_begin is_stmt 0 # ldecod_src/memalloc.c:422:5
	popq	%rbx
.Ltmp458:
	#DEBUG_VALUE: free_mem5Dquant:array5D <- $rdi
	.cfi_def_cfa_offset 8
	jmp	free@PLT                        # TAILCALL
.Ltmp459:
.LBB18_2:                               # %if.else
	.cfi_restore %rbx
	#DEBUG_VALUE: free_mem5Dquant:array5D <- $rdi
	.loc	0 426 5 is_stmt 1               # ldecod_src/memalloc.c:426:5
	movl	$.L.str.18, %edi
.Ltmp460:
	#DEBUG_VALUE: free_mem5Dquant:array5D <- [DW_OP_LLVM_entry_value 1] $rdi
	movl	$100, %esi
.Ltmp461:
	jmp	error@PLT                       # TAILCALL
.Ltmp462:
.Lfunc_end18:
	.size	free_mem5Dquant, .Lfunc_end18-free_mem5Dquant
	.cfi_endproc
                                        # -- End function
	.globl	get_mem2D_spp                   # -- Begin function get_mem2D_spp
	.p2align	4, 0x90
	.type	get_mem2D_spp,@function
get_mem2D_spp:                          # @get_mem2D_spp
.Lfunc_begin19:
	.loc	0 440 0                         # ldecod_src/memalloc.c:440:0
	.cfi_startproc
# %bb.0:                                # %entry
	#DEBUG_VALUE: get_mem2D_spp:array2D <- $rdi
	#DEBUG_VALUE: get_mem2D_spp:dim0 <- $esi
	#DEBUG_VALUE: get_mem2D_spp:dim1 <- $edx
	pushq	%r15
	.cfi_def_cfa_offset 16
	pushq	%r14
	.cfi_def_cfa_offset 24
	pushq	%r12
	.cfi_def_cfa_offset 32
	pushq	%rbx
	.cfi_def_cfa_offset 40
	pushq	%rax
	.cfi_def_cfa_offset 48
	.cfi_offset %rbx, -40
	.cfi_offset %r12, -32
	.cfi_offset %r14, -24
	.cfi_offset %r15, -16
	movl	%edx, %r14d
	movl	%esi, %ebx
	movq	%rdi, %r15
.Ltmp463:
	.loc	0 443 50 prologue_end           # ldecod_src/memalloc.c:443:50
	movslq	%esi, %rdi
.Ltmp464:
	#DEBUG_VALUE: get_mem2D_spp:array2D <- $r15
	.loc	0 443 55 is_stmt 0              # ldecod_src/memalloc.c:443:55
	shlq	$3, %rdi
	.loc	0 443 43                        # ldecod_src/memalloc.c:443:43
	callq	malloc@PLT
.Ltmp465:
	#DEBUG_VALUE: get_mem2D_spp:dim1 <- $r14d
	#DEBUG_VALUE: get_mem2D_spp:dim0 <- $ebx
	movq	%rax, %r12
	.loc	0 443 19                        # ldecod_src/memalloc.c:443:19
	movq	%rax, (%r15)
	.loc	0 443 92                        # ldecod_src/memalloc.c:443:92
	testq	%rax, %rax
.Ltmp466:
	.loc	0 443 6                         # ldecod_src/memalloc.c:443:6
	jne	.LBB19_2
.Ltmp467:
# %bb.1:                                # %if.then
	#DEBUG_VALUE: get_mem2D_spp:array2D <- $r15
	#DEBUG_VALUE: get_mem2D_spp:dim0 <- $ebx
	#DEBUG_VALUE: get_mem2D_spp:dim1 <- $r14d
	.loc	0 1833 4 is_stmt 1              # ldecod_src/memalloc.c:1833:4
	movq	errortext@GOTPCREL(%rip), %r12
.Ltmp468:
	#DEBUG_VALUE: no_mem_exit:where <- undef
	movl	$300, %esi                      # imm = 0x12C
	movl	$.L.str.81, %edx
	movl	$.L.str.19, %ecx
	movq	%r12, %rdi
	xorl	%eax, %eax
	callq	snprintf@PLT
.Ltmp469:
	.loc	0 1834 4                        # ldecod_src/memalloc.c:1834:4
	movq	%r12, %rdi
	movl	$100, %esi
	callq	error@PLT
.Ltmp470:
	.loc	0 445 9                         # ldecod_src/memalloc.c:445:9
	movq	(%r15), %r12
.Ltmp471:
.LBB19_2:                               # %if.end
	#DEBUG_VALUE: get_mem2D_spp:array2D <- $r15
	#DEBUG_VALUE: get_mem2D_spp:dim0 <- $ebx
	#DEBUG_VALUE: get_mem2D_spp:dim1 <- $r14d
	.loc	0 445 55 is_stmt 0              # ldecod_src/memalloc.c:445:55
	movl	%r14d, %eax
	imull	%ebx, %eax
	.loc	0 445 50                        # ldecod_src/memalloc.c:445:50
	movslq	%eax, %rdi
	.loc	0 445 43                        # ldecod_src/memalloc.c:445:43
	movl	$8, %esi
	callq	calloc@PLT
.Ltmp472:
	.loc	0 445 19                        # ldecod_src/memalloc.c:445:19
	movq	%rax, (%r12)
	.loc	0 445 92                        # ldecod_src/memalloc.c:445:92
	testq	%rax, %rax
.Ltmp473:
	.loc	0 445 6                         # ldecod_src/memalloc.c:445:6
	je	.LBB19_3
.Ltmp474:
# %bb.4:                                # %if.end8
	#DEBUG_VALUE: get_mem2D_spp:array2D <- $r15
	#DEBUG_VALUE: get_mem2D_spp:dim0 <- $ebx
	#DEBUG_VALUE: get_mem2D_spp:dim1 <- $r14d
	#DEBUG_VALUE: get_mem2D_spp:i <- 1
	.loc	0 448 17 is_stmt 1              # ldecod_src/memalloc.c:448:17
	cmpl	$2, %ebx
.Ltmp475:
	.loc	0 448 3 is_stmt 0               # ldecod_src/memalloc.c:448:3
	jge	.LBB19_5
	jmp	.LBB19_12
.Ltmp476:
.LBB19_3:                               # %if.then7
	#DEBUG_VALUE: get_mem2D_spp:array2D <- $r15
	#DEBUG_VALUE: get_mem2D_spp:dim0 <- $ebx
	#DEBUG_VALUE: get_mem2D_spp:dim1 <- $r14d
	.loc	0 1833 4 is_stmt 1              # ldecod_src/memalloc.c:1833:4
	movq	errortext@GOTPCREL(%rip), %r12
.Ltmp477:
	#DEBUG_VALUE: no_mem_exit:where <- undef
	movl	$300, %esi                      # imm = 0x12C
	movl	$.L.str.81, %edx
	movl	$.L.str.19, %ecx
	movq	%r12, %rdi
	xorl	%eax, %eax
	callq	snprintf@PLT
.Ltmp478:
	.loc	0 1834 4                        # ldecod_src/memalloc.c:1834:4
	movq	%r12, %rdi
	movl	$100, %esi
	callq	error@PLT
.Ltmp479:
	#DEBUG_VALUE: get_mem2D_spp:i <- 1
	.loc	0 448 17                        # ldecod_src/memalloc.c:448:17
	cmpl	$2, %ebx
.Ltmp480:
	.loc	0 448 3 is_stmt 0               # ldecod_src/memalloc.c:448:3
	jl	.LBB19_12
.Ltmp481:
.LBB19_5:                               # %for.body.lr.ph
	#DEBUG_VALUE: get_mem2D_spp:array2D <- $r15
	#DEBUG_VALUE: get_mem2D_spp:dim0 <- $ebx
	#DEBUG_VALUE: get_mem2D_spp:dim1 <- $r14d
	#DEBUG_VALUE: get_mem2D_spp:i <- 1
	.loc	0 0 3                           # ldecod_src/memalloc.c:0:3
	movslq	%r14d, %rax
.Ltmp482:
	.loc	0 448 17                        # ldecod_src/memalloc.c:448:17
	movl	%ebx, %edi
.Ltmp483:
	.loc	0 448 3                         # ldecod_src/memalloc.c:448:3
	leaq	-1(%rdi), %rsi
	addq	$-2, %rdi
	movl	%esi, %ecx
	andl	$3, %ecx
	movl	$1, %edx
	cmpq	$3, %rdi
	jb	.LBB19_9
.Ltmp484:
# %bb.6:                                # %for.body.lr.ph.new
	#DEBUG_VALUE: get_mem2D_spp:array2D <- $r15
	#DEBUG_VALUE: get_mem2D_spp:dim0 <- $ebx
	#DEBUG_VALUE: get_mem2D_spp:dim1 <- $r14d
	#DEBUG_VALUE: get_mem2D_spp:i <- 1
	andq	$-4, %rsi
	xorl	%edx, %edx
	leaq	(,%rax,8), %rdi
.Ltmp485:
	.p2align	4, 0x90
.LBB19_7:                               # %for.body
                                        # =>This Inner Loop Header: Depth=1
	#DEBUG_VALUE: get_mem2D_spp:array2D <- $r15
	#DEBUG_VALUE: get_mem2D_spp:dim0 <- $ebx
	#DEBUG_VALUE: get_mem2D_spp:dim1 <- $r14d
	#DEBUG_VALUE: get_mem2D_spp:i <- 1
	.loc	0 449 23 is_stmt 1              # ldecod_src/memalloc.c:449:23
	movq	(%r15), %r8
	movq	(%r8,%rdx,8), %r9
	.loc	0 449 38 is_stmt 0              # ldecod_src/memalloc.c:449:38
	addq	%rdi, %r9
	.loc	0 449 19                        # ldecod_src/memalloc.c:449:19
	movq	%r9, 8(%r8,%rdx,8)
	.loc	0 449 23                        # ldecod_src/memalloc.c:449:23
	movq	(%r15), %r8
	movq	8(%r8,%rdx,8), %r9
	.loc	0 449 38                        # ldecod_src/memalloc.c:449:38
	addq	%rdi, %r9
	.loc	0 449 19                        # ldecod_src/memalloc.c:449:19
	movq	%r9, 16(%r8,%rdx,8)
	.loc	0 449 23                        # ldecod_src/memalloc.c:449:23
	movq	(%r15), %r8
	movq	16(%r8,%rdx,8), %r9
	.loc	0 449 38                        # ldecod_src/memalloc.c:449:38
	addq	%rdi, %r9
	.loc	0 449 19                        # ldecod_src/memalloc.c:449:19
	movq	%r9, 24(%r8,%rdx,8)
	.loc	0 449 23                        # ldecod_src/memalloc.c:449:23
	movq	(%r15), %r8
	movq	24(%r8,%rdx,8), %r9
	.loc	0 449 38                        # ldecod_src/memalloc.c:449:38
	addq	%rdi, %r9
	.loc	0 449 19                        # ldecod_src/memalloc.c:449:19
	movq	%r9, 32(%r8,%rdx,8)
.Ltmp486:
	.loc	0 448 3 is_stmt 1               # ldecod_src/memalloc.c:448:3
	addq	$4, %rdx
	cmpq	%rdx, %rsi
	jne	.LBB19_7
.Ltmp487:
# %bb.8:                                # %for.end.loopexit.unr-lcssa.loopexit
	#DEBUG_VALUE: get_mem2D_spp:array2D <- $r15
	#DEBUG_VALUE: get_mem2D_spp:dim0 <- $ebx
	#DEBUG_VALUE: get_mem2D_spp:dim1 <- $r14d
	#DEBUG_VALUE: get_mem2D_spp:i <- 1
	incq	%rdx
.Ltmp488:
.LBB19_9:                               # %for.end.loopexit.unr-lcssa
	#DEBUG_VALUE: get_mem2D_spp:array2D <- $r15
	#DEBUG_VALUE: get_mem2D_spp:dim0 <- $ebx
	#DEBUG_VALUE: get_mem2D_spp:dim1 <- $r14d
	#DEBUG_VALUE: get_mem2D_spp:i <- 1
	testq	%rcx, %rcx
	je	.LBB19_12
.Ltmp489:
# %bb.10:                               # %for.body.epil.preheader
	#DEBUG_VALUE: get_mem2D_spp:array2D <- $r15
	#DEBUG_VALUE: get_mem2D_spp:dim0 <- $ebx
	#DEBUG_VALUE: get_mem2D_spp:dim1 <- $r14d
	#DEBUG_VALUE: get_mem2D_spp:i <- 1
	.loc	0 0 3 is_stmt 0                 # ldecod_src/memalloc.c:0:3
	shlq	$3, %rax
.Ltmp490:
	.p2align	4, 0x90
.LBB19_11:                              # %for.body.epil
                                        # =>This Inner Loop Header: Depth=1
	#DEBUG_VALUE: get_mem2D_spp:array2D <- $r15
	#DEBUG_VALUE: get_mem2D_spp:dim0 <- $ebx
	#DEBUG_VALUE: get_mem2D_spp:dim1 <- $r14d
	#DEBUG_VALUE: get_mem2D_spp:i <- $rdx
	.loc	0 449 23 is_stmt 1              # ldecod_src/memalloc.c:449:23
	movq	(%r15), %rsi
	movq	-8(%rsi,%rdx,8), %rdi
	.loc	0 449 38 is_stmt 0              # ldecod_src/memalloc.c:449:38
	addq	%rax, %rdi
	.loc	0 449 19                        # ldecod_src/memalloc.c:449:19
	movq	%rdi, (%rsi,%rdx,8)
	.loc	0 448 26 is_stmt 1              # ldecod_src/memalloc.c:448:26
	incq	%rdx
.Ltmp491:
	#DEBUG_VALUE: get_mem2D_spp:i <- $rdx
	.loc	0 448 3 is_stmt 0               # ldecod_src/memalloc.c:448:3
	decq	%rcx
	jne	.LBB19_11
.Ltmp492:
.LBB19_12:                              # %for.end
	#DEBUG_VALUE: get_mem2D_spp:array2D <- $r15
	#DEBUG_VALUE: get_mem2D_spp:dim0 <- $ebx
	#DEBUG_VALUE: get_mem2D_spp:dim1 <- $r14d
	.loc	0 451 46 is_stmt 1              # ldecod_src/memalloc.c:451:46
	leal	8(,%r14,8), %eax
	.loc	0 451 15 is_stmt 0              # ldecod_src/memalloc.c:451:15
	imull	%ebx, %eax
	.loc	0 451 3 epilogue_begin          # ldecod_src/memalloc.c:451:3
	addq	$8, %rsp
	.cfi_def_cfa_offset 40
	popq	%rbx
.Ltmp493:
	#DEBUG_VALUE: get_mem2D_spp:dim0 <- [DW_OP_LLVM_entry_value 1] $esi
	.cfi_def_cfa_offset 32
	popq	%r12
	.cfi_def_cfa_offset 24
	popq	%r14
.Ltmp494:
	#DEBUG_VALUE: get_mem2D_spp:dim1 <- [DW_OP_LLVM_entry_value 1] $edx
	.cfi_def_cfa_offset 16
	popq	%r15
.Ltmp495:
	#DEBUG_VALUE: get_mem2D_spp:array2D <- [DW_OP_LLVM_entry_value 1] $rdi
	.cfi_def_cfa_offset 8
	retq
.Ltmp496:
.Lfunc_end19:
	.size	get_mem2D_spp, .Lfunc_end19-get_mem2D_spp
	.cfi_endproc
                                        # -- End function
	.globl	get_mem3D_spp                   # -- Begin function get_mem3D_spp
	.p2align	4, 0x90
	.type	get_mem3D_spp,@function
get_mem3D_spp:                          # @get_mem3D_spp
.Lfunc_begin20:
	.loc	0 464 0 is_stmt 1               # ldecod_src/memalloc.c:464:0
	.cfi_startproc
# %bb.0:                                # %entry
	#DEBUG_VALUE: get_mem3D_spp:array3D <- $rdi
	#DEBUG_VALUE: get_mem3D_spp:dim0 <- $esi
	#DEBUG_VALUE: get_mem3D_spp:dim1 <- $edx
	#DEBUG_VALUE: get_mem3D_spp:dim2 <- $ecx
	pushq	%rbp
	.cfi_def_cfa_offset 16
	pushq	%r15
	.cfi_def_cfa_offset 24
	pushq	%r14
	.cfi_def_cfa_offset 32
	pushq	%r13
	.cfi_def_cfa_offset 40
	pushq	%r12
	.cfi_def_cfa_offset 48
	pushq	%rbx
	.cfi_def_cfa_offset 56
	pushq	%rax
	.cfi_def_cfa_offset 64
	.cfi_offset %rbx, -56
	.cfi_offset %r12, -48
	.cfi_offset %r13, -40
	.cfi_offset %r14, -32
	.cfi_offset %r15, -24
	.cfi_offset %rbp, -16
	movl	%ecx, %r12d
	movl	%edx, %r15d
	movl	%esi, %ebp
	movq	%rdi, %r14
.Ltmp497:
	.loc	0 465 21 prologue_end           # ldecod_src/memalloc.c:465:21
	movslq	%esi, %rbx
	.loc	0 465 26 is_stmt 0              # ldecod_src/memalloc.c:465:26
	shlq	$3, %rbx
.Ltmp498:
	#DEBUG_VALUE: get_mem3D_spp:mem_size <- [DW_OP_LLVM_convert 64 7, DW_OP_LLVM_convert 32 7, DW_OP_stack_value] $rbx
	.loc	0 467 43 is_stmt 1              # ldecod_src/memalloc.c:467:43
	movq	%rbx, %rdi
.Ltmp499:
	#DEBUG_VALUE: get_mem3D_spp:array3D <- $r14
	callq	malloc@PLT
.Ltmp500:
	#DEBUG_VALUE: get_mem3D_spp:dim2 <- $r12d
	#DEBUG_VALUE: get_mem3D_spp:dim1 <- $r15d
	#DEBUG_VALUE: get_mem3D_spp:dim0 <- $ebp
	.loc	0 467 18 is_stmt 0              # ldecod_src/memalloc.c:467:18
	movq	%rax, (%r14)
	.loc	0 467 88                        # ldecod_src/memalloc.c:467:88
	testq	%rax, %rax
.Ltmp501:
	.loc	0 467 6                         # ldecod_src/memalloc.c:467:6
	jne	.LBB20_2
.Ltmp502:
# %bb.1:                                # %if.then
	#DEBUG_VALUE: get_mem3D_spp:array3D <- $r14
	#DEBUG_VALUE: get_mem3D_spp:dim0 <- $ebp
	#DEBUG_VALUE: get_mem3D_spp:dim1 <- $r15d
	#DEBUG_VALUE: get_mem3D_spp:dim2 <- $r12d
	#DEBUG_VALUE: get_mem3D_spp:mem_size <- [DW_OP_LLVM_convert 64 7, DW_OP_LLVM_convert 32 7, DW_OP_stack_value] $rbx
	.loc	0 1833 4 is_stmt 1              # ldecod_src/memalloc.c:1833:4
	movq	errortext@GOTPCREL(%rip), %r13
.Ltmp503:
	#DEBUG_VALUE: no_mem_exit:where <- undef
	movl	$300, %esi                      # imm = 0x12C
	movl	$.L.str.81, %edx
	movl	$.L.str.20, %ecx
	movq	%r13, %rdi
	xorl	%eax, %eax
	callq	snprintf@PLT
.Ltmp504:
	.loc	0 1834 4                        # ldecod_src/memalloc.c:1834:4
	movq	%r13, %rdi
	movl	$100, %esi
	callq	error@PLT
.Ltmp505:
	.loc	0 470 29                        # ldecod_src/memalloc.c:470:29
	movq	(%r14), %rax
.Ltmp506:
.LBB20_2:                               # %if.end
	#DEBUG_VALUE: get_mem3D_spp:array3D <- $r14
	#DEBUG_VALUE: get_mem3D_spp:dim0 <- $ebp
	#DEBUG_VALUE: get_mem3D_spp:dim1 <- $r15d
	#DEBUG_VALUE: get_mem3D_spp:dim2 <- $r12d
	#DEBUG_VALUE: get_mem3D_spp:mem_size <- [DW_OP_LLVM_convert 64 7, DW_OP_LLVM_convert 32 7, DW_OP_stack_value] $rbx
	.loc	0 470 44 is_stmt 0              # ldecod_src/memalloc.c:470:44
	movl	%r15d, %esi
	imull	%ebp, %esi
	.loc	0 470 15                        # ldecod_src/memalloc.c:470:15
	movq	%rax, %rdi
	movl	%r12d, %edx
	callq	get_mem2D_spp
.Ltmp507:
	#DEBUG_VALUE: get_mem3D_spp:mem_size <- [DW_OP_LLVM_arg 0, DW_OP_LLVM_convert 64 7, DW_OP_LLVM_convert 32 7, DW_OP_LLVM_arg 1, DW_OP_plus, DW_OP_stack_value] $rbx, $eax
	#DEBUG_VALUE: get_mem3D_spp:i <- 1
	.loc	0 472 16 is_stmt 1              # ldecod_src/memalloc.c:472:16
	cmpl	$2, %ebp
.Ltmp508:
	.loc	0 472 3 is_stmt 0               # ldecod_src/memalloc.c:472:3
	jl	.LBB20_10
.Ltmp509:
# %bb.3:                                # %for.body.lr.ph
	#DEBUG_VALUE: get_mem3D_spp:array3D <- $r14
	#DEBUG_VALUE: get_mem3D_spp:dim0 <- $ebp
	#DEBUG_VALUE: get_mem3D_spp:dim1 <- $r15d
	#DEBUG_VALUE: get_mem3D_spp:dim2 <- $r12d
	#DEBUG_VALUE: get_mem3D_spp:mem_size <- [DW_OP_LLVM_arg 0, DW_OP_LLVM_convert 64 7, DW_OP_LLVM_convert 32 7, DW_OP_LLVM_arg 1, DW_OP_plus, DW_OP_stack_value] $rbx, $eax
	#DEBUG_VALUE: get_mem3D_spp:i <- 1
	.loc	0 0 3                           # ldecod_src/memalloc.c:0:3
	movslq	%r15d, %rcx
.Ltmp510:
	.loc	0 472 16                        # ldecod_src/memalloc.c:472:16
	movl	%ebp, %r8d
.Ltmp511:
	.loc	0 472 3                         # ldecod_src/memalloc.c:472:3
	leaq	-1(%r8), %rdi
	addq	$-2, %r8
	movl	%edi, %edx
	andl	$3, %edx
	movl	$1, %esi
	cmpq	$3, %r8
	jb	.LBB20_7
.Ltmp512:
# %bb.4:                                # %for.body.lr.ph.new
	#DEBUG_VALUE: get_mem3D_spp:array3D <- $r14
	#DEBUG_VALUE: get_mem3D_spp:dim0 <- $ebp
	#DEBUG_VALUE: get_mem3D_spp:dim1 <- $r15d
	#DEBUG_VALUE: get_mem3D_spp:dim2 <- $r12d
	#DEBUG_VALUE: get_mem3D_spp:mem_size <- [DW_OP_LLVM_arg 0, DW_OP_LLVM_convert 64 7, DW_OP_LLVM_convert 32 7, DW_OP_LLVM_arg 1, DW_OP_plus, DW_OP_stack_value] $rbx, $eax
	#DEBUG_VALUE: get_mem3D_spp:i <- 1
	andq	$-4, %rdi
	xorl	%esi, %esi
	leaq	(,%rcx,8), %r8
.Ltmp513:
	.p2align	4, 0x90
.LBB20_5:                               # %for.body
                                        # =>This Inner Loop Header: Depth=1
	#DEBUG_VALUE: get_mem3D_spp:array3D <- $r14
	#DEBUG_VALUE: get_mem3D_spp:dim0 <- $ebp
	#DEBUG_VALUE: get_mem3D_spp:dim1 <- $r15d
	#DEBUG_VALUE: get_mem3D_spp:dim2 <- $r12d
	#DEBUG_VALUE: get_mem3D_spp:mem_size <- [DW_OP_LLVM_arg 0, DW_OP_LLVM_convert 64 7, DW_OP_LLVM_convert 32 7, DW_OP_LLVM_arg 1, DW_OP_plus, DW_OP_stack_value] $rbx, $eax
	#DEBUG_VALUE: get_mem3D_spp:i <- 1
	.loc	0 473 22 is_stmt 1              # ldecod_src/memalloc.c:473:22
	movq	(%r14), %r9
	movq	(%r9,%rsi,8), %r10
	.loc	0 473 39 is_stmt 0              # ldecod_src/memalloc.c:473:39
	addq	%r8, %r10
	.loc	0 473 19                        # ldecod_src/memalloc.c:473:19
	movq	%r10, 8(%r9,%rsi,8)
	.loc	0 473 22                        # ldecod_src/memalloc.c:473:22
	movq	(%r14), %r9
	movq	8(%r9,%rsi,8), %r10
	.loc	0 473 39                        # ldecod_src/memalloc.c:473:39
	addq	%r8, %r10
	.loc	0 473 19                        # ldecod_src/memalloc.c:473:19
	movq	%r10, 16(%r9,%rsi,8)
	.loc	0 473 22                        # ldecod_src/memalloc.c:473:22
	movq	(%r14), %r9
	movq	16(%r9,%rsi,8), %r10
	.loc	0 473 39                        # ldecod_src/memalloc.c:473:39
	addq	%r8, %r10
	.loc	0 473 19                        # ldecod_src/memalloc.c:473:19
	movq	%r10, 24(%r9,%rsi,8)
	.loc	0 473 22                        # ldecod_src/memalloc.c:473:22
	movq	(%r14), %r9
	movq	24(%r9,%rsi,8), %r10
	.loc	0 473 39                        # ldecod_src/memalloc.c:473:39
	addq	%r8, %r10
	.loc	0 473 19                        # ldecod_src/memalloc.c:473:19
	movq	%r10, 32(%r9,%rsi,8)
.Ltmp514:
	.loc	0 472 3 is_stmt 1               # ldecod_src/memalloc.c:472:3
	addq	$4, %rsi
	cmpq	%rsi, %rdi
	jne	.LBB20_5
.Ltmp515:
# %bb.6:                                # %for.end.loopexit.unr-lcssa.loopexit
	#DEBUG_VALUE: get_mem3D_spp:array3D <- $r14
	#DEBUG_VALUE: get_mem3D_spp:dim0 <- $ebp
	#DEBUG_VALUE: get_mem3D_spp:dim1 <- $r15d
	#DEBUG_VALUE: get_mem3D_spp:dim2 <- $r12d
	#DEBUG_VALUE: get_mem3D_spp:mem_size <- [DW_OP_LLVM_arg 0, DW_OP_LLVM_convert 64 7, DW_OP_LLVM_convert 32 7, DW_OP_LLVM_arg 1, DW_OP_plus, DW_OP_stack_value] $rbx, $eax
	#DEBUG_VALUE: get_mem3D_spp:i <- 1
	incq	%rsi
.Ltmp516:
.LBB20_7:                               # %for.end.loopexit.unr-lcssa
	#DEBUG_VALUE: get_mem3D_spp:array3D <- $r14
	#DEBUG_VALUE: get_mem3D_spp:dim0 <- $ebp
	#DEBUG_VALUE: get_mem3D_spp:dim1 <- $r15d
	#DEBUG_VALUE: get_mem3D_spp:dim2 <- $r12d
	#DEBUG_VALUE: get_mem3D_spp:mem_size <- [DW_OP_LLVM_arg 0, DW_OP_LLVM_convert 64 7, DW_OP_LLVM_convert 32 7, DW_OP_LLVM_arg 1, DW_OP_plus, DW_OP_stack_value] $rbx, $eax
	#DEBUG_VALUE: get_mem3D_spp:i <- 1
	testq	%rdx, %rdx
	je	.LBB20_10
.Ltmp517:
# %bb.8:                                # %for.body.epil.preheader
	#DEBUG_VALUE: get_mem3D_spp:array3D <- $r14
	#DEBUG_VALUE: get_mem3D_spp:dim0 <- $ebp
	#DEBUG_VALUE: get_mem3D_spp:dim1 <- $r15d
	#DEBUG_VALUE: get_mem3D_spp:dim2 <- $r12d
	#DEBUG_VALUE: get_mem3D_spp:mem_size <- [DW_OP_LLVM_arg 0, DW_OP_LLVM_convert 64 7, DW_OP_LLVM_convert 32 7, DW_OP_LLVM_arg 1, DW_OP_plus, DW_OP_stack_value] $rbx, $eax
	#DEBUG_VALUE: get_mem3D_spp:i <- 1
	.loc	0 0 3 is_stmt 0                 # ldecod_src/memalloc.c:0:3
	shlq	$3, %rcx
.Ltmp518:
	.p2align	4, 0x90
.LBB20_9:                               # %for.body.epil
                                        # =>This Inner Loop Header: Depth=1
	#DEBUG_VALUE: get_mem3D_spp:array3D <- $r14
	#DEBUG_VALUE: get_mem3D_spp:dim0 <- $ebp
	#DEBUG_VALUE: get_mem3D_spp:dim1 <- $r15d
	#DEBUG_VALUE: get_mem3D_spp:dim2 <- $r12d
	#DEBUG_VALUE: get_mem3D_spp:mem_size <- [DW_OP_LLVM_arg 0, DW_OP_LLVM_convert 64 7, DW_OP_LLVM_convert 32 7, DW_OP_LLVM_arg 1, DW_OP_plus, DW_OP_stack_value] $rbx, $eax
	#DEBUG_VALUE: get_mem3D_spp:i <- $rsi
	.loc	0 473 22 is_stmt 1              # ldecod_src/memalloc.c:473:22
	movq	(%r14), %rdi
	movq	-8(%rdi,%rsi,8), %r8
	.loc	0 473 39 is_stmt 0              # ldecod_src/memalloc.c:473:39
	addq	%rcx, %r8
	.loc	0 473 19                        # ldecod_src/memalloc.c:473:19
	movq	%r8, (%rdi,%rsi,8)
	.loc	0 472 25 is_stmt 1              # ldecod_src/memalloc.c:472:25
	incq	%rsi
.Ltmp519:
	#DEBUG_VALUE: get_mem3D_spp:i <- $rsi
	.loc	0 472 3 is_stmt 0               # ldecod_src/memalloc.c:472:3
	decq	%rdx
	jne	.LBB20_9
.Ltmp520:
.LBB20_10:                              # %for.end
	#DEBUG_VALUE: get_mem3D_spp:array3D <- $r14
	#DEBUG_VALUE: get_mem3D_spp:dim0 <- $ebp
	#DEBUG_VALUE: get_mem3D_spp:dim1 <- $r15d
	#DEBUG_VALUE: get_mem3D_spp:dim2 <- $r12d
	#DEBUG_VALUE: get_mem3D_spp:mem_size <- [DW_OP_LLVM_arg 0, DW_OP_LLVM_convert 64 7, DW_OP_LLVM_convert 32 7, DW_OP_LLVM_arg 1, DW_OP_plus, DW_OP_stack_value] $rbx, $eax
	#DEBUG_VALUE: get_mem3D_spp:mem_size <- $ebx
	.loc	0 470 12 is_stmt 1              # ldecod_src/memalloc.c:470:12
	addl	%ebx, %eax
.Ltmp521:
	#DEBUG_VALUE: get_mem3D_spp:mem_size <- $eax
	.loc	0 475 3 epilogue_begin          # ldecod_src/memalloc.c:475:3
	addq	$8, %rsp
	.cfi_def_cfa_offset 56
	popq	%rbx
	.cfi_def_cfa_offset 48
	popq	%r12
.Ltmp522:
	#DEBUG_VALUE: get_mem3D_spp:dim2 <- [DW_OP_LLVM_entry_value 1] $ecx
	.cfi_def_cfa_offset 40
	popq	%r13
	.cfi_def_cfa_offset 32
	popq	%r14
.Ltmp523:
	#DEBUG_VALUE: get_mem3D_spp:array3D <- [DW_OP_LLVM_entry_value 1] $rdi
	.cfi_def_cfa_offset 24
	popq	%r15
.Ltmp524:
	#DEBUG_VALUE: get_mem3D_spp:dim1 <- [DW_OP_LLVM_entry_value 1] $edx
	.cfi_def_cfa_offset 16
	popq	%rbp
.Ltmp525:
	#DEBUG_VALUE: get_mem3D_spp:dim0 <- [DW_OP_LLVM_entry_value 1] $esi
	.cfi_def_cfa_offset 8
	retq
.Ltmp526:
.Lfunc_end20:
	.size	get_mem3D_spp, .Lfunc_end20-get_mem3D_spp
	.cfi_endproc
                                        # -- End function
	.globl	get_mem2Dmv                     # -- Begin function get_mem2Dmv
	.p2align	4, 0x90
	.type	get_mem2Dmv,@function
get_mem2Dmv:                            # @get_mem2Dmv
.Lfunc_begin21:
	.loc	0 487 0                         # ldecod_src/memalloc.c:487:0
	.cfi_startproc
# %bb.0:                                # %entry
	#DEBUG_VALUE: get_mem2Dmv:array2D <- $rdi
	#DEBUG_VALUE: get_mem2Dmv:dim0 <- $esi
	#DEBUG_VALUE: get_mem2Dmv:dim1 <- $edx
	pushq	%r15
	.cfi_def_cfa_offset 16
	pushq	%r14
	.cfi_def_cfa_offset 24
	pushq	%r12
	.cfi_def_cfa_offset 32
	pushq	%rbx
	.cfi_def_cfa_offset 40
	pushq	%rax
	.cfi_def_cfa_offset 48
	.cfi_offset %rbx, -40
	.cfi_offset %r12, -32
	.cfi_offset %r14, -24
	.cfi_offset %r15, -16
	movl	%edx, %r14d
	movl	%esi, %ebx
	movq	%rdi, %r15
.Ltmp527:
	.loc	0 490 44 prologue_end           # ldecod_src/memalloc.c:490:44
	movslq	%esi, %rdi
.Ltmp528:
	#DEBUG_VALUE: get_mem2Dmv:array2D <- $r15
	.loc	0 490 49 is_stmt 0              # ldecod_src/memalloc.c:490:49
	shlq	$3, %rdi
	.loc	0 490 37                        # ldecod_src/memalloc.c:490:37
	callq	malloc@PLT
.Ltmp529:
	#DEBUG_VALUE: get_mem2Dmv:dim1 <- $r14d
	#DEBUG_VALUE: get_mem2Dmv:dim0 <- $ebx
	movq	%rax, %r12
	.loc	0 490 19                        # ldecod_src/memalloc.c:490:19
	movq	%rax, (%r15)
	.loc	0 490 80                        # ldecod_src/memalloc.c:490:80
	testq	%rax, %rax
.Ltmp530:
	.loc	0 490 6                         # ldecod_src/memalloc.c:490:6
	jne	.LBB21_2
.Ltmp531:
# %bb.1:                                # %if.then
	#DEBUG_VALUE: get_mem2Dmv:array2D <- $r15
	#DEBUG_VALUE: get_mem2Dmv:dim0 <- $ebx
	#DEBUG_VALUE: get_mem2Dmv:dim1 <- $r14d
	.loc	0 1833 4 is_stmt 1              # ldecod_src/memalloc.c:1833:4
	movq	errortext@GOTPCREL(%rip), %r12
.Ltmp532:
	#DEBUG_VALUE: no_mem_exit:where <- undef
	movl	$300, %esi                      # imm = 0x12C
	movl	$.L.str.81, %edx
	movl	$.L.str.6, %ecx
	movq	%r12, %rdi
	xorl	%eax, %eax
	callq	snprintf@PLT
.Ltmp533:
	.loc	0 1834 4                        # ldecod_src/memalloc.c:1834:4
	movq	%r12, %rdi
	movl	$100, %esi
	callq	error@PLT
.Ltmp534:
	.loc	0 492 9                         # ldecod_src/memalloc.c:492:9
	movq	(%r15), %r12
.Ltmp535:
.LBB21_2:                               # %if.end
	#DEBUG_VALUE: get_mem2Dmv:array2D <- $r15
	#DEBUG_VALUE: get_mem2Dmv:dim0 <- $ebx
	#DEBUG_VALUE: get_mem2Dmv:dim1 <- $r14d
	.loc	0 492 49 is_stmt 0              # ldecod_src/memalloc.c:492:49
	movl	%r14d, %eax
	imull	%ebx, %eax
	.loc	0 492 44                        # ldecod_src/memalloc.c:492:44
	movslq	%eax, %rdi
	.loc	0 492 37                        # ldecod_src/memalloc.c:492:37
	movl	$4, %esi
	callq	calloc@PLT
.Ltmp536:
	.loc	0 492 19                        # ldecod_src/memalloc.c:492:19
	movq	%rax, (%r12)
	.loc	0 492 80                        # ldecod_src/memalloc.c:492:80
	testq	%rax, %rax
.Ltmp537:
	.loc	0 492 6                         # ldecod_src/memalloc.c:492:6
	je	.LBB21_3
.Ltmp538:
# %bb.4:                                # %if.end8
	#DEBUG_VALUE: get_mem2Dmv:array2D <- $r15
	#DEBUG_VALUE: get_mem2Dmv:dim0 <- $ebx
	#DEBUG_VALUE: get_mem2Dmv:dim1 <- $r14d
	#DEBUG_VALUE: get_mem2Dmv:i <- 1
	.loc	0 495 17 is_stmt 1              # ldecod_src/memalloc.c:495:17
	cmpl	$2, %ebx
.Ltmp539:
	.loc	0 495 3 is_stmt 0               # ldecod_src/memalloc.c:495:3
	jge	.LBB21_5
	jmp	.LBB21_12
.Ltmp540:
.LBB21_3:                               # %if.then7
	#DEBUG_VALUE: get_mem2Dmv:array2D <- $r15
	#DEBUG_VALUE: get_mem2Dmv:dim0 <- $ebx
	#DEBUG_VALUE: get_mem2Dmv:dim1 <- $r14d
	.loc	0 1833 4 is_stmt 1              # ldecod_src/memalloc.c:1833:4
	movq	errortext@GOTPCREL(%rip), %r12
.Ltmp541:
	#DEBUG_VALUE: no_mem_exit:where <- undef
	movl	$300, %esi                      # imm = 0x12C
	movl	$.L.str.81, %edx
	movl	$.L.str.6, %ecx
	movq	%r12, %rdi
	xorl	%eax, %eax
	callq	snprintf@PLT
.Ltmp542:
	.loc	0 1834 4                        # ldecod_src/memalloc.c:1834:4
	movq	%r12, %rdi
	movl	$100, %esi
	callq	error@PLT
.Ltmp543:
	#DEBUG_VALUE: get_mem2Dmv:i <- 1
	.loc	0 495 17                        # ldecod_src/memalloc.c:495:17
	cmpl	$2, %ebx
.Ltmp544:
	.loc	0 495 3 is_stmt 0               # ldecod_src/memalloc.c:495:3
	jl	.LBB21_12
.Ltmp545:
.LBB21_5:                               # %for.body.lr.ph
	#DEBUG_VALUE: get_mem2Dmv:array2D <- $r15
	#DEBUG_VALUE: get_mem2Dmv:dim0 <- $ebx
	#DEBUG_VALUE: get_mem2Dmv:dim1 <- $r14d
	#DEBUG_VALUE: get_mem2Dmv:i <- 1
	.loc	0 0 3                           # ldecod_src/memalloc.c:0:3
	movslq	%r14d, %rax
.Ltmp546:
	.loc	0 495 17                        # ldecod_src/memalloc.c:495:17
	movl	%ebx, %edi
.Ltmp547:
	.loc	0 495 3                         # ldecod_src/memalloc.c:495:3
	leaq	-1(%rdi), %rsi
	addq	$-2, %rdi
	movl	%esi, %ecx
	andl	$3, %ecx
	movl	$1, %edx
	cmpq	$3, %rdi
	jb	.LBB21_9
.Ltmp548:
# %bb.6:                                # %for.body.lr.ph.new
	#DEBUG_VALUE: get_mem2Dmv:array2D <- $r15
	#DEBUG_VALUE: get_mem2Dmv:dim0 <- $ebx
	#DEBUG_VALUE: get_mem2Dmv:dim1 <- $r14d
	#DEBUG_VALUE: get_mem2Dmv:i <- 1
	andq	$-4, %rsi
	xorl	%edx, %edx
	leaq	(,%rax,4), %rdi
.Ltmp549:
	.p2align	4, 0x90
.LBB21_7:                               # %for.body
                                        # =>This Inner Loop Header: Depth=1
	#DEBUG_VALUE: get_mem2Dmv:array2D <- $r15
	#DEBUG_VALUE: get_mem2Dmv:dim0 <- $ebx
	#DEBUG_VALUE: get_mem2Dmv:dim1 <- $r14d
	#DEBUG_VALUE: get_mem2Dmv:i <- 1
	.loc	0 496 23 is_stmt 1              # ldecod_src/memalloc.c:496:23
	movq	(%r15), %r8
	movq	(%r8,%rdx,8), %r9
	.loc	0 496 38 is_stmt 0              # ldecod_src/memalloc.c:496:38
	addq	%rdi, %r9
	.loc	0 496 19                        # ldecod_src/memalloc.c:496:19
	movq	%r9, 8(%r8,%rdx,8)
	.loc	0 496 23                        # ldecod_src/memalloc.c:496:23
	movq	(%r15), %r8
	movq	8(%r8,%rdx,8), %r9
	.loc	0 496 38                        # ldecod_src/memalloc.c:496:38
	addq	%rdi, %r9
	.loc	0 496 19                        # ldecod_src/memalloc.c:496:19
	movq	%r9, 16(%r8,%rdx,8)
	.loc	0 496 23                        # ldecod_src/memalloc.c:496:23
	movq	(%r15), %r8
	movq	16(%r8,%rdx,8), %r9
	.loc	0 496 38                        # ldecod_src/memalloc.c:496:38
	addq	%rdi, %r9
	.loc	0 496 19                        # ldecod_src/memalloc.c:496:19
	movq	%r9, 24(%r8,%rdx,8)
	.loc	0 496 23                        # ldecod_src/memalloc.c:496:23
	movq	(%r15), %r8
	movq	24(%r8,%rdx,8), %r9
	.loc	0 496 38                        # ldecod_src/memalloc.c:496:38
	addq	%rdi, %r9
	.loc	0 496 19                        # ldecod_src/memalloc.c:496:19
	movq	%r9, 32(%r8,%rdx,8)
.Ltmp550:
	.loc	0 495 3 is_stmt 1               # ldecod_src/memalloc.c:495:3
	addq	$4, %rdx
	cmpq	%rdx, %rsi
	jne	.LBB21_7
.Ltmp551:
# %bb.8:                                # %for.end.loopexit.unr-lcssa.loopexit
	#DEBUG_VALUE: get_mem2Dmv:array2D <- $r15
	#DEBUG_VALUE: get_mem2Dmv:dim0 <- $ebx
	#DEBUG_VALUE: get_mem2Dmv:dim1 <- $r14d
	#DEBUG_VALUE: get_mem2Dmv:i <- 1
	incq	%rdx
.Ltmp552:
.LBB21_9:                               # %for.end.loopexit.unr-lcssa
	#DEBUG_VALUE: get_mem2Dmv:array2D <- $r15
	#DEBUG_VALUE: get_mem2Dmv:dim0 <- $ebx
	#DEBUG_VALUE: get_mem2Dmv:dim1 <- $r14d
	#DEBUG_VALUE: get_mem2Dmv:i <- 1
	testq	%rcx, %rcx
	je	.LBB21_12
.Ltmp553:
# %bb.10:                               # %for.body.epil.preheader
	#DEBUG_VALUE: get_mem2Dmv:array2D <- $r15
	#DEBUG_VALUE: get_mem2Dmv:dim0 <- $ebx
	#DEBUG_VALUE: get_mem2Dmv:dim1 <- $r14d
	#DEBUG_VALUE: get_mem2Dmv:i <- 1
	.loc	0 0 3 is_stmt 0                 # ldecod_src/memalloc.c:0:3
	shlq	$2, %rax
.Ltmp554:
	.p2align	4, 0x90
.LBB21_11:                              # %for.body.epil
                                        # =>This Inner Loop Header: Depth=1
	#DEBUG_VALUE: get_mem2Dmv:array2D <- $r15
	#DEBUG_VALUE: get_mem2Dmv:dim0 <- $ebx
	#DEBUG_VALUE: get_mem2Dmv:dim1 <- $r14d
	#DEBUG_VALUE: get_mem2Dmv:i <- $rdx
	.loc	0 496 23 is_stmt 1              # ldecod_src/memalloc.c:496:23
	movq	(%r15), %rsi
	movq	-8(%rsi,%rdx,8), %rdi
	.loc	0 496 38 is_stmt 0              # ldecod_src/memalloc.c:496:38
	addq	%rax, %rdi
	.loc	0 496 19                        # ldecod_src/memalloc.c:496:19
	movq	%rdi, (%rsi,%rdx,8)
	.loc	0 495 26 is_stmt 1              # ldecod_src/memalloc.c:495:26
	incq	%rdx
.Ltmp555:
	#DEBUG_VALUE: get_mem2Dmv:i <- $rdx
	.loc	0 495 3 is_stmt 0               # ldecod_src/memalloc.c:495:3
	decq	%rcx
	jne	.LBB21_11
.Ltmp556:
.LBB21_12:                              # %for.end
	#DEBUG_VALUE: get_mem2Dmv:array2D <- $r15
	#DEBUG_VALUE: get_mem2Dmv:dim0 <- $ebx
	#DEBUG_VALUE: get_mem2Dmv:dim1 <- $r14d
	.loc	0 498 40 is_stmt 1              # ldecod_src/memalloc.c:498:40
	leal	8(,%r14,4), %eax
	.loc	0 498 15 is_stmt 0              # ldecod_src/memalloc.c:498:15
	imull	%ebx, %eax
	.loc	0 498 3 epilogue_begin          # ldecod_src/memalloc.c:498:3
	addq	$8, %rsp
	.cfi_def_cfa_offset 40
	popq	%rbx
.Ltmp557:
	#DEBUG_VALUE: get_mem2Dmv:dim0 <- [DW_OP_LLVM_entry_value 1] $esi
	.cfi_def_cfa_offset 32
	popq	%r12
	.cfi_def_cfa_offset 24
	popq	%r14
.Ltmp558:
	#DEBUG_VALUE: get_mem2Dmv:dim1 <- [DW_OP_LLVM_entry_value 1] $edx
	.cfi_def_cfa_offset 16
	popq	%r15
.Ltmp559:
	#DEBUG_VALUE: get_mem2Dmv:array2D <- [DW_OP_LLVM_entry_value 1] $rdi
	.cfi_def_cfa_offset 8
	retq
.Ltmp560:
.Lfunc_end21:
	.size	get_mem2Dmv, .Lfunc_end21-get_mem2Dmv
	.cfi_endproc
                                        # -- End function
	.globl	get_mem3Dmv                     # -- Begin function get_mem3Dmv
	.p2align	4, 0x90
	.type	get_mem3Dmv,@function
get_mem3Dmv:                            # @get_mem3Dmv
.Lfunc_begin22:
	.loc	0 511 0 is_stmt 1               # ldecod_src/memalloc.c:511:0
	.cfi_startproc
# %bb.0:                                # %entry
	#DEBUG_VALUE: get_mem3Dmv:array3D <- $rdi
	#DEBUG_VALUE: get_mem3Dmv:dim0 <- $esi
	#DEBUG_VALUE: get_mem3Dmv:dim1 <- $edx
	#DEBUG_VALUE: get_mem3Dmv:dim2 <- $ecx
	pushq	%rbp
	.cfi_def_cfa_offset 16
	pushq	%r15
	.cfi_def_cfa_offset 24
	pushq	%r14
	.cfi_def_cfa_offset 32
	pushq	%r13
	.cfi_def_cfa_offset 40
	pushq	%r12
	.cfi_def_cfa_offset 48
	pushq	%rbx
	.cfi_def_cfa_offset 56
	pushq	%rax
	.cfi_def_cfa_offset 64
	.cfi_offset %rbx, -56
	.cfi_offset %r12, -48
	.cfi_offset %r13, -40
	.cfi_offset %r14, -32
	.cfi_offset %r15, -24
	.cfi_offset %rbp, -16
	movl	%ecx, %r12d
	movl	%edx, %r15d
	movl	%esi, %ebp
	movq	%rdi, %r14
.Ltmp561:
	.loc	0 512 21 prologue_end           # ldecod_src/memalloc.c:512:21
	movslq	%esi, %rbx
	.loc	0 512 26 is_stmt 0              # ldecod_src/memalloc.c:512:26
	shlq	$3, %rbx
.Ltmp562:
	#DEBUG_VALUE: get_mem3Dmv:mem_size <- [DW_OP_LLVM_convert 64 7, DW_OP_LLVM_convert 32 7, DW_OP_stack_value] $rbx
	.loc	0 514 37 is_stmt 1              # ldecod_src/memalloc.c:514:37
	movq	%rbx, %rdi
.Ltmp563:
	#DEBUG_VALUE: get_mem3Dmv:array3D <- $r14
	callq	malloc@PLT
.Ltmp564:
	#DEBUG_VALUE: get_mem3Dmv:dim2 <- $r12d
	#DEBUG_VALUE: get_mem3Dmv:dim1 <- $r15d
	#DEBUG_VALUE: get_mem3Dmv:dim0 <- $ebp
	.loc	0 514 18 is_stmt 0              # ldecod_src/memalloc.c:514:18
	movq	%rax, (%r14)
	.loc	0 514 76                        # ldecod_src/memalloc.c:514:76
	testq	%rax, %rax
.Ltmp565:
	.loc	0 514 6                         # ldecod_src/memalloc.c:514:6
	jne	.LBB22_2
.Ltmp566:
# %bb.1:                                # %if.then
	#DEBUG_VALUE: get_mem3Dmv:array3D <- $r14
	#DEBUG_VALUE: get_mem3Dmv:dim0 <- $ebp
	#DEBUG_VALUE: get_mem3Dmv:dim1 <- $r15d
	#DEBUG_VALUE: get_mem3Dmv:dim2 <- $r12d
	#DEBUG_VALUE: get_mem3Dmv:mem_size <- [DW_OP_LLVM_convert 64 7, DW_OP_LLVM_convert 32 7, DW_OP_stack_value] $rbx
	.loc	0 1833 4 is_stmt 1              # ldecod_src/memalloc.c:1833:4
	movq	errortext@GOTPCREL(%rip), %r13
.Ltmp567:
	#DEBUG_VALUE: no_mem_exit:where <- undef
	movl	$300, %esi                      # imm = 0x12C
	movl	$.L.str.81, %edx
	movl	$.L.str.21, %ecx
	movq	%r13, %rdi
	xorl	%eax, %eax
	callq	snprintf@PLT
.Ltmp568:
	.loc	0 1834 4                        # ldecod_src/memalloc.c:1834:4
	movq	%r13, %rdi
	movl	$100, %esi
	callq	error@PLT
.Ltmp569:
	.loc	0 517 27                        # ldecod_src/memalloc.c:517:27
	movq	(%r14), %rax
.Ltmp570:
.LBB22_2:                               # %if.end
	#DEBUG_VALUE: get_mem3Dmv:array3D <- $r14
	#DEBUG_VALUE: get_mem3Dmv:dim0 <- $ebp
	#DEBUG_VALUE: get_mem3Dmv:dim1 <- $r15d
	#DEBUG_VALUE: get_mem3Dmv:dim2 <- $r12d
	#DEBUG_VALUE: get_mem3Dmv:mem_size <- [DW_OP_LLVM_convert 64 7, DW_OP_LLVM_convert 32 7, DW_OP_stack_value] $rbx
	.loc	0 517 42 is_stmt 0              # ldecod_src/memalloc.c:517:42
	movl	%r15d, %esi
	imull	%ebp, %esi
	.loc	0 517 15                        # ldecod_src/memalloc.c:517:15
	movq	%rax, %rdi
	movl	%r12d, %edx
	callq	get_mem2Dmv
.Ltmp571:
	#DEBUG_VALUE: get_mem3Dmv:mem_size <- [DW_OP_LLVM_arg 0, DW_OP_LLVM_convert 64 7, DW_OP_LLVM_convert 32 7, DW_OP_LLVM_arg 1, DW_OP_plus, DW_OP_stack_value] $rbx, $eax
	#DEBUG_VALUE: get_mem3Dmv:i <- 1
	.loc	0 519 16 is_stmt 1              # ldecod_src/memalloc.c:519:16
	cmpl	$2, %ebp
.Ltmp572:
	.loc	0 519 3 is_stmt 0               # ldecod_src/memalloc.c:519:3
	jl	.LBB22_10
.Ltmp573:
# %bb.3:                                # %for.body.lr.ph
	#DEBUG_VALUE: get_mem3Dmv:array3D <- $r14
	#DEBUG_VALUE: get_mem3Dmv:dim0 <- $ebp
	#DEBUG_VALUE: get_mem3Dmv:dim1 <- $r15d
	#DEBUG_VALUE: get_mem3Dmv:dim2 <- $r12d
	#DEBUG_VALUE: get_mem3Dmv:mem_size <- [DW_OP_LLVM_arg 0, DW_OP_LLVM_convert 64 7, DW_OP_LLVM_convert 32 7, DW_OP_LLVM_arg 1, DW_OP_plus, DW_OP_stack_value] $rbx, $eax
	#DEBUG_VALUE: get_mem3Dmv:i <- 1
	.loc	0 0 3                           # ldecod_src/memalloc.c:0:3
	movslq	%r15d, %rcx
.Ltmp574:
	.loc	0 519 16                        # ldecod_src/memalloc.c:519:16
	movl	%ebp, %r8d
.Ltmp575:
	.loc	0 519 3                         # ldecod_src/memalloc.c:519:3
	leaq	-1(%r8), %rdi
	addq	$-2, %r8
	movl	%edi, %edx
	andl	$3, %edx
	movl	$1, %esi
	cmpq	$3, %r8
	jb	.LBB22_7
.Ltmp576:
# %bb.4:                                # %for.body.lr.ph.new
	#DEBUG_VALUE: get_mem3Dmv:array3D <- $r14
	#DEBUG_VALUE: get_mem3Dmv:dim0 <- $ebp
	#DEBUG_VALUE: get_mem3Dmv:dim1 <- $r15d
	#DEBUG_VALUE: get_mem3Dmv:dim2 <- $r12d
	#DEBUG_VALUE: get_mem3Dmv:mem_size <- [DW_OP_LLVM_arg 0, DW_OP_LLVM_convert 64 7, DW_OP_LLVM_convert 32 7, DW_OP_LLVM_arg 1, DW_OP_plus, DW_OP_stack_value] $rbx, $eax
	#DEBUG_VALUE: get_mem3Dmv:i <- 1
	andq	$-4, %rdi
	xorl	%esi, %esi
	leaq	(,%rcx,8), %r8
.Ltmp577:
	.p2align	4, 0x90
.LBB22_5:                               # %for.body
                                        # =>This Inner Loop Header: Depth=1
	#DEBUG_VALUE: get_mem3Dmv:array3D <- $r14
	#DEBUG_VALUE: get_mem3Dmv:dim0 <- $ebp
	#DEBUG_VALUE: get_mem3Dmv:dim1 <- $r15d
	#DEBUG_VALUE: get_mem3Dmv:dim2 <- $r12d
	#DEBUG_VALUE: get_mem3Dmv:mem_size <- [DW_OP_LLVM_arg 0, DW_OP_LLVM_convert 64 7, DW_OP_LLVM_convert 32 7, DW_OP_LLVM_arg 1, DW_OP_plus, DW_OP_stack_value] $rbx, $eax
	#DEBUG_VALUE: get_mem3Dmv:i <- 1
	.loc	0 520 22 is_stmt 1              # ldecod_src/memalloc.c:520:22
	movq	(%r14), %r9
	movq	(%r9,%rsi,8), %r10
	.loc	0 520 39 is_stmt 0              # ldecod_src/memalloc.c:520:39
	addq	%r8, %r10
	.loc	0 520 19                        # ldecod_src/memalloc.c:520:19
	movq	%r10, 8(%r9,%rsi,8)
	.loc	0 520 22                        # ldecod_src/memalloc.c:520:22
	movq	(%r14), %r9
	movq	8(%r9,%rsi,8), %r10
	.loc	0 520 39                        # ldecod_src/memalloc.c:520:39
	addq	%r8, %r10
	.loc	0 520 19                        # ldecod_src/memalloc.c:520:19
	movq	%r10, 16(%r9,%rsi,8)
	.loc	0 520 22                        # ldecod_src/memalloc.c:520:22
	movq	(%r14), %r9
	movq	16(%r9,%rsi,8), %r10
	.loc	0 520 39                        # ldecod_src/memalloc.c:520:39
	addq	%r8, %r10
	.loc	0 520 19                        # ldecod_src/memalloc.c:520:19
	movq	%r10, 24(%r9,%rsi,8)
	.loc	0 520 22                        # ldecod_src/memalloc.c:520:22
	movq	(%r14), %r9
	movq	24(%r9,%rsi,8), %r10
	.loc	0 520 39                        # ldecod_src/memalloc.c:520:39
	addq	%r8, %r10
	.loc	0 520 19                        # ldecod_src/memalloc.c:520:19
	movq	%r10, 32(%r9,%rsi,8)
.Ltmp578:
	.loc	0 519 3 is_stmt 1               # ldecod_src/memalloc.c:519:3
	addq	$4, %rsi
	cmpq	%rsi, %rdi
	jne	.LBB22_5
.Ltmp579:
# %bb.6:                                # %for.end.loopexit.unr-lcssa.loopexit
	#DEBUG_VALUE: get_mem3Dmv:array3D <- $r14
	#DEBUG_VALUE: get_mem3Dmv:dim0 <- $ebp
	#DEBUG_VALUE: get_mem3Dmv:dim1 <- $r15d
	#DEBUG_VALUE: get_mem3Dmv:dim2 <- $r12d
	#DEBUG_VALUE: get_mem3Dmv:mem_size <- [DW_OP_LLVM_arg 0, DW_OP_LLVM_convert 64 7, DW_OP_LLVM_convert 32 7, DW_OP_LLVM_arg 1, DW_OP_plus, DW_OP_stack_value] $rbx, $eax
	#DEBUG_VALUE: get_mem3Dmv:i <- 1
	incq	%rsi
.Ltmp580:
.LBB22_7:                               # %for.end.loopexit.unr-lcssa
	#DEBUG_VALUE: get_mem3Dmv:array3D <- $r14
	#DEBUG_VALUE: get_mem3Dmv:dim0 <- $ebp
	#DEBUG_VALUE: get_mem3Dmv:dim1 <- $r15d
	#DEBUG_VALUE: get_mem3Dmv:dim2 <- $r12d
	#DEBUG_VALUE: get_mem3Dmv:mem_size <- [DW_OP_LLVM_arg 0, DW_OP_LLVM_convert 64 7, DW_OP_LLVM_convert 32 7, DW_OP_LLVM_arg 1, DW_OP_plus, DW_OP_stack_value] $rbx, $eax
	#DEBUG_VALUE: get_mem3Dmv:i <- 1
	testq	%rdx, %rdx
	je	.LBB22_10
.Ltmp581:
# %bb.8:                                # %for.body.epil.preheader
	#DEBUG_VALUE: get_mem3Dmv:array3D <- $r14
	#DEBUG_VALUE: get_mem3Dmv:dim0 <- $ebp
	#DEBUG_VALUE: get_mem3Dmv:dim1 <- $r15d
	#DEBUG_VALUE: get_mem3Dmv:dim2 <- $r12d
	#DEBUG_VALUE: get_mem3Dmv:mem_size <- [DW_OP_LLVM_arg 0, DW_OP_LLVM_convert 64 7, DW_OP_LLVM_convert 32 7, DW_OP_LLVM_arg 1, DW_OP_plus, DW_OP_stack_value] $rbx, $eax
	#DEBUG_VALUE: get_mem3Dmv:i <- 1
	.loc	0 0 3 is_stmt 0                 # ldecod_src/memalloc.c:0:3
	shlq	$3, %rcx
.Ltmp582:
	.p2align	4, 0x90
.LBB22_9:                               # %for.body.epil
                                        # =>This Inner Loop Header: Depth=1
	#DEBUG_VALUE: get_mem3Dmv:array3D <- $r14
	#DEBUG_VALUE: get_mem3Dmv:dim0 <- $ebp
	#DEBUG_VALUE: get_mem3Dmv:dim1 <- $r15d
	#DEBUG_VALUE: get_mem3Dmv:dim2 <- $r12d
	#DEBUG_VALUE: get_mem3Dmv:mem_size <- [DW_OP_LLVM_arg 0, DW_OP_LLVM_convert 64 7, DW_OP_LLVM_convert 32 7, DW_OP_LLVM_arg 1, DW_OP_plus, DW_OP_stack_value] $rbx, $eax
	#DEBUG_VALUE: get_mem3Dmv:i <- $rsi
	.loc	0 520 22 is_stmt 1              # ldecod_src/memalloc.c:520:22
	movq	(%r14), %rdi
	movq	-8(%rdi,%rsi,8), %r8
	.loc	0 520 39 is_stmt 0              # ldecod_src/memalloc.c:520:39
	addq	%rcx, %r8
	.loc	0 520 19                        # ldecod_src/memalloc.c:520:19
	movq	%r8, (%rdi,%rsi,8)
	.loc	0 519 25 is_stmt 1              # ldecod_src/memalloc.c:519:25
	incq	%rsi
.Ltmp583:
	#DEBUG_VALUE: get_mem3Dmv:i <- $rsi
	.loc	0 519 3 is_stmt 0               # ldecod_src/memalloc.c:519:3
	decq	%rdx
	jne	.LBB22_9
.Ltmp584:
.LBB22_10:                              # %for.end
	#DEBUG_VALUE: get_mem3Dmv:array3D <- $r14
	#DEBUG_VALUE: get_mem3Dmv:dim0 <- $ebp
	#DEBUG_VALUE: get_mem3Dmv:dim1 <- $r15d
	#DEBUG_VALUE: get_mem3Dmv:dim2 <- $r12d
	#DEBUG_VALUE: get_mem3Dmv:mem_size <- [DW_OP_LLVM_arg 0, DW_OP_LLVM_convert 64 7, DW_OP_LLVM_convert 32 7, DW_OP_LLVM_arg 1, DW_OP_plus, DW_OP_stack_value] $rbx, $eax
	#DEBUG_VALUE: get_mem3Dmv:mem_size <- $ebx
	.loc	0 517 12 is_stmt 1              # ldecod_src/memalloc.c:517:12
	addl	%ebx, %eax
.Ltmp585:
	#DEBUG_VALUE: get_mem3Dmv:mem_size <- $eax
	.loc	0 522 3 epilogue_begin          # ldecod_src/memalloc.c:522:3
	addq	$8, %rsp
	.cfi_def_cfa_offset 56
	popq	%rbx
	.cfi_def_cfa_offset 48
	popq	%r12
.Ltmp586:
	#DEBUG_VALUE: get_mem3Dmv:dim2 <- [DW_OP_LLVM_entry_value 1] $ecx
	.cfi_def_cfa_offset 40
	popq	%r13
	.cfi_def_cfa_offset 32
	popq	%r14
.Ltmp587:
	#DEBUG_VALUE: get_mem3Dmv:array3D <- [DW_OP_LLVM_entry_value 1] $rdi
	.cfi_def_cfa_offset 24
	popq	%r15
.Ltmp588:
	#DEBUG_VALUE: get_mem3Dmv:dim1 <- [DW_OP_LLVM_entry_value 1] $edx
	.cfi_def_cfa_offset 16
	popq	%rbp
.Ltmp589:
	#DEBUG_VALUE: get_mem3Dmv:dim0 <- [DW_OP_LLVM_entry_value 1] $esi
	.cfi_def_cfa_offset 8
	retq
.Ltmp590:
.Lfunc_end22:
	.size	get_mem3Dmv, .Lfunc_end22-get_mem3Dmv
	.cfi_endproc
                                        # -- End function
	.globl	get_mem4Dmv                     # -- Begin function get_mem4Dmv
	.p2align	4, 0x90
	.type	get_mem4Dmv,@function
get_mem4Dmv:                            # @get_mem4Dmv
.Lfunc_begin23:
	.loc	0 535 0                         # ldecod_src/memalloc.c:535:0
	.cfi_startproc
# %bb.0:                                # %entry
	#DEBUG_VALUE: get_mem4Dmv:array4D <- $rdi
	#DEBUG_VALUE: get_mem4Dmv:dim0 <- $esi
	#DEBUG_VALUE: get_mem4Dmv:dim1 <- $edx
	#DEBUG_VALUE: get_mem4Dmv:dim2 <- $ecx
	#DEBUG_VALUE: get_mem4Dmv:dim3 <- $r8d
	pushq	%rbp
	.cfi_def_cfa_offset 16
	pushq	%r15
	.cfi_def_cfa_offset 24
	pushq	%r14
	.cfi_def_cfa_offset 32
	pushq	%r13
	.cfi_def_cfa_offset 40
	pushq	%r12
	.cfi_def_cfa_offset 48
	pushq	%rbx
	.cfi_def_cfa_offset 56
	subq	$24, %rsp
	.cfi_def_cfa_offset 80
	.cfi_offset %rbx, -56
	.cfi_offset %r12, -48
	.cfi_offset %r13, -40
	.cfi_offset %r14, -32
	.cfi_offset %r15, -24
	.cfi_offset %rbp, -16
	movl	%r8d, 12(%rsp)                  # 4-byte Spill
.Ltmp591:
	#DEBUG_VALUE: get_mem4Dmv:dim3 <- [DW_OP_plus_uconst 12] [$rsp+0]
	movl	%ecx, %r12d
	movl	%edx, %r15d
	movl	%esi, %ebp
	movq	%rdi, %r14
.Ltmp592:
	.loc	0 536 21 prologue_end           # ldecod_src/memalloc.c:536:21
	movslq	%esi, %rbx
	.loc	0 536 26 is_stmt 0              # ldecod_src/memalloc.c:536:26
	shlq	$3, %rbx
.Ltmp593:
	#DEBUG_VALUE: get_mem4Dmv:mem_size <- [DW_OP_LLVM_convert 64 7, DW_OP_LLVM_convert 32 7, DW_OP_stack_value] $rbx
	.loc	0 538 38 is_stmt 1              # ldecod_src/memalloc.c:538:38
	movq	%rbx, %rdi
.Ltmp594:
	#DEBUG_VALUE: get_mem4Dmv:array4D <- $r14
	callq	malloc@PLT
.Ltmp595:
	#DEBUG_VALUE: get_mem4Dmv:dim2 <- $r12d
	#DEBUG_VALUE: get_mem4Dmv:dim1 <- $r15d
	#DEBUG_VALUE: get_mem4Dmv:dim0 <- $ebp
	movq	%rax, %r13
	.loc	0 538 18 is_stmt 0              # ldecod_src/memalloc.c:538:18
	movq	%rax, (%r14)
	.loc	0 538 78                        # ldecod_src/memalloc.c:538:78
	testq	%rax, %rax
.Ltmp596:
	.loc	0 538 6                         # ldecod_src/memalloc.c:538:6
	jne	.LBB23_2
.Ltmp597:
# %bb.1:                                # %if.then
	#DEBUG_VALUE: get_mem4Dmv:array4D <- $r14
	#DEBUG_VALUE: get_mem4Dmv:dim0 <- $ebp
	#DEBUG_VALUE: get_mem4Dmv:dim1 <- $r15d
	#DEBUG_VALUE: get_mem4Dmv:dim2 <- $r12d
	#DEBUG_VALUE: get_mem4Dmv:dim3 <- [DW_OP_plus_uconst 12] [$rsp+0]
	#DEBUG_VALUE: get_mem4Dmv:mem_size <- [DW_OP_LLVM_convert 64 7, DW_OP_LLVM_convert 32 7, DW_OP_stack_value] $rbx
	.loc	0 0 6                           # ldecod_src/memalloc.c:0:6
	movl	%r15d, %r13d
.Ltmp598:
	#DEBUG_VALUE: get_mem4Dmv:dim1 <- $r13d
	.loc	0 1833 4 is_stmt 1              # ldecod_src/memalloc.c:1833:4
	movq	errortext@GOTPCREL(%rip), %r15
.Ltmp599:
	#DEBUG_VALUE: no_mem_exit:where <- undef
	movl	$300, %esi                      # imm = 0x12C
	movl	$.L.str.81, %edx
	movl	$.L.str.22, %ecx
	movq	%r15, %rdi
	xorl	%eax, %eax
	callq	snprintf@PLT
.Ltmp600:
	.loc	0 1834 4                        # ldecod_src/memalloc.c:1834:4
	movq	%r15, %rdi
	movl	%r13d, %r15d
.Ltmp601:
	#DEBUG_VALUE: get_mem4Dmv:dim1 <- $r15d
	movl	$100, %esi
	callq	error@PLT
.Ltmp602:
	.loc	0 541 27                        # ldecod_src/memalloc.c:541:27
	movq	(%r14), %r13
.Ltmp603:
.LBB23_2:                               # %if.end
	#DEBUG_VALUE: get_mem4Dmv:array4D <- $r14
	#DEBUG_VALUE: get_mem4Dmv:dim0 <- $ebp
	#DEBUG_VALUE: get_mem4Dmv:dim1 <- $r15d
	#DEBUG_VALUE: get_mem4Dmv:dim2 <- $r12d
	#DEBUG_VALUE: get_mem4Dmv:dim3 <- [DW_OP_plus_uconst 12] [$rsp+0]
	#DEBUG_VALUE: get_mem4Dmv:mem_size <- [DW_OP_LLVM_convert 64 7, DW_OP_LLVM_convert 32 7, DW_OP_stack_value] $rbx
	.loc	0 0 27 is_stmt 0                # ldecod_src/memalloc.c:0:27
	movl	%r15d, 8(%rsp)                  # 4-byte Spill
.Ltmp604:
	#DEBUG_VALUE: get_mem4Dmv:dim1 <- [DW_OP_plus_uconst 8] [$rsp+0]
	.loc	0 541 42                        # ldecod_src/memalloc.c:541:42
	imull	%ebp, %r15d
.Ltmp605:
	#DEBUG_VALUE: get_mem3Dmv:dim0 <- $r15d
	#DEBUG_VALUE: get_mem3Dmv:array3D <- $r13
	#DEBUG_VALUE: get_mem3Dmv:dim1 <- $r12d
	#DEBUG_VALUE: get_mem3Dmv:dim2 <- [DW_OP_plus_uconst 12, DW_OP_deref] $rsp
	.loc	0 512 21 is_stmt 1              # ldecod_src/memalloc.c:512:21
	movslq	%r15d, %rdi
	.loc	0 512 26 is_stmt 0              # ldecod_src/memalloc.c:512:26
	shlq	$3, %rdi
.Ltmp606:
	#DEBUG_VALUE: get_mem3Dmv:mem_size <- [DW_OP_LLVM_convert 64 7, DW_OP_LLVM_convert 32 7, DW_OP_stack_value] $rdi
	.loc	0 0 26                          # ldecod_src/memalloc.c:0:26
	movq	%rdi, 16(%rsp)                  # 8-byte Spill
.Ltmp607:
	#DEBUG_VALUE: get_mem3Dmv:mem_size <- [DW_OP_plus_uconst 16, DW_OP_deref_size 8, DW_OP_LLVM_convert 64 7, DW_OP_LLVM_convert 32 7, DW_OP_stack_value] $rsp
	.loc	0 514 37 is_stmt 1              # ldecod_src/memalloc.c:514:37
	callq	malloc@PLT
.Ltmp608:
	.loc	0 514 18 is_stmt 0              # ldecod_src/memalloc.c:514:18
	movq	%rax, (%r13)
	.loc	0 514 76                        # ldecod_src/memalloc.c:514:76
	testq	%rax, %rax
.Ltmp609:
	.loc	0 514 6                         # ldecod_src/memalloc.c:514:6
	jne	.LBB23_4
.Ltmp610:
# %bb.3:                                # %if.then.i
	#DEBUG_VALUE: get_mem4Dmv:array4D <- $r14
	#DEBUG_VALUE: get_mem4Dmv:dim0 <- $ebp
	#DEBUG_VALUE: get_mem4Dmv:dim1 <- [DW_OP_plus_uconst 8] [$rsp+0]
	#DEBUG_VALUE: get_mem4Dmv:dim2 <- $r12d
	#DEBUG_VALUE: get_mem4Dmv:dim3 <- [DW_OP_plus_uconst 12] [$rsp+0]
	#DEBUG_VALUE: get_mem4Dmv:mem_size <- [DW_OP_LLVM_convert 64 7, DW_OP_LLVM_convert 32 7, DW_OP_stack_value] $rbx
	#DEBUG_VALUE: get_mem3Dmv:dim0 <- $r15d
	#DEBUG_VALUE: get_mem3Dmv:array3D <- $r13
	#DEBUG_VALUE: get_mem3Dmv:dim1 <- $r12d
	#DEBUG_VALUE: get_mem3Dmv:dim2 <- [DW_OP_plus_uconst 12, DW_OP_deref] $rsp
	#DEBUG_VALUE: get_mem3Dmv:mem_size <- [DW_OP_plus_uconst 16, DW_OP_deref_size 8, DW_OP_LLVM_convert 64 7, DW_OP_LLVM_convert 32 7, DW_OP_stack_value] $rsp
	.loc	0 1833 4 is_stmt 1              # ldecod_src/memalloc.c:1833:4
	movq	errortext@GOTPCREL(%rip), %rdi
.Ltmp611:
	#DEBUG_VALUE: no_mem_exit:where <- undef
	movl	$300, %esi                      # imm = 0x12C
	movl	$.L.str.81, %edx
	movl	$.L.str.21, %ecx
	xorl	%eax, %eax
	callq	snprintf@PLT
.Ltmp612:
	.loc	0 1834 4                        # ldecod_src/memalloc.c:1834:4
	movq	errortext@GOTPCREL(%rip), %rdi
	movl	$100, %esi
	callq	error@PLT
.Ltmp613:
	.loc	0 517 27                        # ldecod_src/memalloc.c:517:27
	movq	(%r13), %rax
.Ltmp614:
.LBB23_4:                               # %if.end.i
	#DEBUG_VALUE: get_mem4Dmv:array4D <- $r14
	#DEBUG_VALUE: get_mem4Dmv:dim0 <- $ebp
	#DEBUG_VALUE: get_mem4Dmv:dim1 <- [DW_OP_plus_uconst 8] [$rsp+0]
	#DEBUG_VALUE: get_mem4Dmv:dim2 <- $r12d
	#DEBUG_VALUE: get_mem4Dmv:dim3 <- [DW_OP_plus_uconst 12] [$rsp+0]
	#DEBUG_VALUE: get_mem4Dmv:mem_size <- [DW_OP_LLVM_convert 64 7, DW_OP_LLVM_convert 32 7, DW_OP_stack_value] $rbx
	#DEBUG_VALUE: get_mem3Dmv:dim0 <- $r15d
	#DEBUG_VALUE: get_mem3Dmv:array3D <- $r13
	#DEBUG_VALUE: get_mem3Dmv:dim1 <- $r12d
	#DEBUG_VALUE: get_mem3Dmv:dim2 <- [DW_OP_plus_uconst 12, DW_OP_deref] $rsp
	#DEBUG_VALUE: get_mem3Dmv:mem_size <- [DW_OP_plus_uconst 16, DW_OP_deref_size 8, DW_OP_LLVM_convert 64 7, DW_OP_LLVM_convert 32 7, DW_OP_stack_value] $rsp
	.loc	0 517 42 is_stmt 0              # ldecod_src/memalloc.c:517:42
	movl	%r15d, %esi
	imull	%r12d, %esi
	.loc	0 517 15                        # ldecod_src/memalloc.c:517:15
	movq	%rax, %rdi
	movl	12(%rsp), %edx                  # 4-byte Reload
	callq	get_mem2Dmv
.Ltmp615:
	#DEBUG_VALUE: get_mem3Dmv:mem_size <- [DW_OP_LLVM_arg 0, DW_OP_plus_uconst 16, DW_OP_deref, DW_OP_LLVM_convert 64 7, DW_OP_LLVM_convert 32 7, DW_OP_LLVM_arg 1, DW_OP_plus, DW_OP_stack_value] $rsp, $eax
	#DEBUG_VALUE: get_mem3Dmv:i <- 1
	.loc	0 519 16 is_stmt 1              # ldecod_src/memalloc.c:519:16
	cmpl	$2, %r15d
.Ltmp616:
	.loc	0 519 3 is_stmt 0               # ldecod_src/memalloc.c:519:3
	jl	.LBB23_12
.Ltmp617:
# %bb.5:                                # %for.body.lr.ph.i
	#DEBUG_VALUE: get_mem4Dmv:array4D <- $r14
	#DEBUG_VALUE: get_mem4Dmv:dim0 <- $ebp
	#DEBUG_VALUE: get_mem4Dmv:dim1 <- [DW_OP_plus_uconst 8] [$rsp+0]
	#DEBUG_VALUE: get_mem4Dmv:dim2 <- $r12d
	#DEBUG_VALUE: get_mem4Dmv:dim3 <- [DW_OP_plus_uconst 12] [$rsp+0]
	#DEBUG_VALUE: get_mem4Dmv:mem_size <- [DW_OP_LLVM_convert 64 7, DW_OP_LLVM_convert 32 7, DW_OP_stack_value] $rbx
	#DEBUG_VALUE: get_mem3Dmv:dim0 <- $r15d
	#DEBUG_VALUE: get_mem3Dmv:array3D <- $r13
	#DEBUG_VALUE: get_mem3Dmv:dim1 <- $r12d
	#DEBUG_VALUE: get_mem3Dmv:dim2 <- [DW_OP_plus_uconst 12, DW_OP_deref] $rsp
	#DEBUG_VALUE: get_mem3Dmv:mem_size <- [DW_OP_LLVM_arg 0, DW_OP_plus_uconst 16, DW_OP_deref, DW_OP_LLVM_convert 64 7, DW_OP_LLVM_convert 32 7, DW_OP_LLVM_arg 1, DW_OP_plus, DW_OP_stack_value] $rsp, $eax
	#DEBUG_VALUE: get_mem3Dmv:i <- 1
	.loc	0 0 3                           # ldecod_src/memalloc.c:0:3
	movslq	%r12d, %rcx
.Ltmp618:
	.loc	0 519 16                        # ldecod_src/memalloc.c:519:16
	movl	%r15d, %r8d
.Ltmp619:
	.loc	0 519 3                         # ldecod_src/memalloc.c:519:3
	leaq	-1(%r8), %rdi
	addq	$-2, %r8
	movl	%edi, %edx
	andl	$3, %edx
	movl	$1, %esi
	cmpq	$3, %r8
	jb	.LBB23_9
.Ltmp620:
# %bb.6:                                # %for.body.lr.ph.i.new
	#DEBUG_VALUE: get_mem4Dmv:array4D <- $r14
	#DEBUG_VALUE: get_mem4Dmv:dim0 <- $ebp
	#DEBUG_VALUE: get_mem4Dmv:dim1 <- [DW_OP_plus_uconst 8] [$rsp+0]
	#DEBUG_VALUE: get_mem4Dmv:dim2 <- $r12d
	#DEBUG_VALUE: get_mem4Dmv:dim3 <- [DW_OP_plus_uconst 12] [$rsp+0]
	#DEBUG_VALUE: get_mem4Dmv:mem_size <- [DW_OP_LLVM_convert 64 7, DW_OP_LLVM_convert 32 7, DW_OP_stack_value] $rbx
	#DEBUG_VALUE: get_mem3Dmv:dim0 <- $r15d
	#DEBUG_VALUE: get_mem3Dmv:array3D <- $r13
	#DEBUG_VALUE: get_mem3Dmv:dim1 <- $r12d
	#DEBUG_VALUE: get_mem3Dmv:dim2 <- [DW_OP_plus_uconst 12, DW_OP_deref] $rsp
	#DEBUG_VALUE: get_mem3Dmv:mem_size <- [DW_OP_LLVM_arg 0, DW_OP_plus_uconst 16, DW_OP_deref, DW_OP_LLVM_convert 64 7, DW_OP_LLVM_convert 32 7, DW_OP_LLVM_arg 1, DW_OP_plus, DW_OP_stack_value] $rsp, $eax
	#DEBUG_VALUE: get_mem3Dmv:i <- 1
	andq	$-4, %rdi
	xorl	%esi, %esi
	leaq	(,%rcx,8), %r8
.Ltmp621:
	.p2align	4, 0x90
.LBB23_7:                               # %for.body.i
                                        # =>This Inner Loop Header: Depth=1
	#DEBUG_VALUE: get_mem4Dmv:array4D <- $r14
	#DEBUG_VALUE: get_mem4Dmv:dim0 <- $ebp
	#DEBUG_VALUE: get_mem4Dmv:dim1 <- [DW_OP_plus_uconst 8] [$rsp+0]
	#DEBUG_VALUE: get_mem4Dmv:dim2 <- $r12d
	#DEBUG_VALUE: get_mem4Dmv:dim3 <- [DW_OP_plus_uconst 12] [$rsp+0]
	#DEBUG_VALUE: get_mem4Dmv:mem_size <- [DW_OP_LLVM_convert 64 7, DW_OP_LLVM_convert 32 7, DW_OP_stack_value] $rbx
	#DEBUG_VALUE: get_mem3Dmv:dim0 <- $r15d
	#DEBUG_VALUE: get_mem3Dmv:array3D <- $r13
	#DEBUG_VALUE: get_mem3Dmv:dim1 <- $r12d
	#DEBUG_VALUE: get_mem3Dmv:dim2 <- [DW_OP_plus_uconst 12, DW_OP_deref] $rsp
	#DEBUG_VALUE: get_mem3Dmv:mem_size <- [DW_OP_LLVM_arg 0, DW_OP_plus_uconst 16, DW_OP_deref, DW_OP_LLVM_convert 64 7, DW_OP_LLVM_convert 32 7, DW_OP_LLVM_arg 1, DW_OP_plus, DW_OP_stack_value] $rsp, $eax
	#DEBUG_VALUE: get_mem3Dmv:i <- 1
	.loc	0 520 22 is_stmt 1              # ldecod_src/memalloc.c:520:22
	movq	(%r13), %r9
	movq	(%r9,%rsi,8), %r10
	.loc	0 520 39 is_stmt 0              # ldecod_src/memalloc.c:520:39
	addq	%r8, %r10
	.loc	0 520 19                        # ldecod_src/memalloc.c:520:19
	movq	%r10, 8(%r9,%rsi,8)
	.loc	0 520 22                        # ldecod_src/memalloc.c:520:22
	movq	(%r13), %r9
	movq	8(%r9,%rsi,8), %r10
	.loc	0 520 39                        # ldecod_src/memalloc.c:520:39
	addq	%r8, %r10
	.loc	0 520 19                        # ldecod_src/memalloc.c:520:19
	movq	%r10, 16(%r9,%rsi,8)
	.loc	0 520 22                        # ldecod_src/memalloc.c:520:22
	movq	(%r13), %r9
	movq	16(%r9,%rsi,8), %r10
	.loc	0 520 39                        # ldecod_src/memalloc.c:520:39
	addq	%r8, %r10
	.loc	0 520 19                        # ldecod_src/memalloc.c:520:19
	movq	%r10, 24(%r9,%rsi,8)
	.loc	0 520 22                        # ldecod_src/memalloc.c:520:22
	movq	(%r13), %r9
	movq	24(%r9,%rsi,8), %r10
	.loc	0 520 39                        # ldecod_src/memalloc.c:520:39
	addq	%r8, %r10
	.loc	0 520 19                        # ldecod_src/memalloc.c:520:19
	movq	%r10, 32(%r9,%rsi,8)
.Ltmp622:
	.loc	0 519 3 is_stmt 1               # ldecod_src/memalloc.c:519:3
	addq	$4, %rsi
	cmpq	%rsi, %rdi
	jne	.LBB23_7
.Ltmp623:
# %bb.8:                                # %get_mem3Dmv.exit.loopexit.unr-lcssa.loopexit
	#DEBUG_VALUE: get_mem4Dmv:array4D <- $r14
	#DEBUG_VALUE: get_mem4Dmv:dim0 <- $ebp
	#DEBUG_VALUE: get_mem4Dmv:dim1 <- [DW_OP_plus_uconst 8] [$rsp+0]
	#DEBUG_VALUE: get_mem4Dmv:dim2 <- $r12d
	#DEBUG_VALUE: get_mem4Dmv:dim3 <- [DW_OP_plus_uconst 12] [$rsp+0]
	#DEBUG_VALUE: get_mem4Dmv:mem_size <- [DW_OP_LLVM_convert 64 7, DW_OP_LLVM_convert 32 7, DW_OP_stack_value] $rbx
	#DEBUG_VALUE: get_mem3Dmv:dim0 <- $r15d
	#DEBUG_VALUE: get_mem3Dmv:array3D <- $r13
	#DEBUG_VALUE: get_mem3Dmv:dim1 <- $r12d
	#DEBUG_VALUE: get_mem3Dmv:dim2 <- [DW_OP_plus_uconst 12, DW_OP_deref] $rsp
	#DEBUG_VALUE: get_mem3Dmv:mem_size <- [DW_OP_LLVM_arg 0, DW_OP_plus_uconst 16, DW_OP_deref, DW_OP_LLVM_convert 64 7, DW_OP_LLVM_convert 32 7, DW_OP_LLVM_arg 1, DW_OP_plus, DW_OP_stack_value] $rsp, $eax
	#DEBUG_VALUE: get_mem3Dmv:i <- 1
	incq	%rsi
.Ltmp624:
.LBB23_9:                               # %get_mem3Dmv.exit.loopexit.unr-lcssa
	#DEBUG_VALUE: get_mem4Dmv:array4D <- $r14
	#DEBUG_VALUE: get_mem4Dmv:dim0 <- $ebp
	#DEBUG_VALUE: get_mem4Dmv:dim1 <- [DW_OP_plus_uconst 8] [$rsp+0]
	#DEBUG_VALUE: get_mem4Dmv:dim2 <- $r12d
	#DEBUG_VALUE: get_mem4Dmv:dim3 <- [DW_OP_plus_uconst 12] [$rsp+0]
	#DEBUG_VALUE: get_mem4Dmv:mem_size <- [DW_OP_LLVM_convert 64 7, DW_OP_LLVM_convert 32 7, DW_OP_stack_value] $rbx
	#DEBUG_VALUE: get_mem3Dmv:dim0 <- $r15d
	#DEBUG_VALUE: get_mem3Dmv:array3D <- $r13
	#DEBUG_VALUE: get_mem3Dmv:dim1 <- $r12d
	#DEBUG_VALUE: get_mem3Dmv:dim2 <- [DW_OP_plus_uconst 12, DW_OP_deref] $rsp
	#DEBUG_VALUE: get_mem3Dmv:mem_size <- [DW_OP_LLVM_arg 0, DW_OP_plus_uconst 16, DW_OP_deref, DW_OP_LLVM_convert 64 7, DW_OP_LLVM_convert 32 7, DW_OP_LLVM_arg 1, DW_OP_plus, DW_OP_stack_value] $rsp, $eax
	#DEBUG_VALUE: get_mem3Dmv:i <- 1
	testq	%rdx, %rdx
	je	.LBB23_12
.Ltmp625:
# %bb.10:                               # %for.body.i.epil.preheader
	#DEBUG_VALUE: get_mem4Dmv:array4D <- $r14
	#DEBUG_VALUE: get_mem4Dmv:dim0 <- $ebp
	#DEBUG_VALUE: get_mem4Dmv:dim1 <- [DW_OP_plus_uconst 8] [$rsp+0]
	#DEBUG_VALUE: get_mem4Dmv:dim2 <- $r12d
	#DEBUG_VALUE: get_mem4Dmv:dim3 <- [DW_OP_plus_uconst 12] [$rsp+0]
	#DEBUG_VALUE: get_mem4Dmv:mem_size <- [DW_OP_LLVM_convert 64 7, DW_OP_LLVM_convert 32 7, DW_OP_stack_value] $rbx
	#DEBUG_VALUE: get_mem3Dmv:dim0 <- $r15d
	#DEBUG_VALUE: get_mem3Dmv:array3D <- $r13
	#DEBUG_VALUE: get_mem3Dmv:dim1 <- $r12d
	#DEBUG_VALUE: get_mem3Dmv:dim2 <- [DW_OP_plus_uconst 12, DW_OP_deref] $rsp
	#DEBUG_VALUE: get_mem3Dmv:mem_size <- [DW_OP_LLVM_arg 0, DW_OP_plus_uconst 16, DW_OP_deref, DW_OP_LLVM_convert 64 7, DW_OP_LLVM_convert 32 7, DW_OP_LLVM_arg 1, DW_OP_plus, DW_OP_stack_value] $rsp, $eax
	#DEBUG_VALUE: get_mem3Dmv:i <- 1
	.loc	0 0 3 is_stmt 0                 # ldecod_src/memalloc.c:0:3
	shlq	$3, %rcx
.Ltmp626:
	.p2align	4, 0x90
.LBB23_11:                              # %for.body.i.epil
                                        # =>This Inner Loop Header: Depth=1
	#DEBUG_VALUE: get_mem4Dmv:array4D <- $r14
	#DEBUG_VALUE: get_mem4Dmv:dim0 <- $ebp
	#DEBUG_VALUE: get_mem4Dmv:dim1 <- [DW_OP_plus_uconst 8] [$rsp+0]
	#DEBUG_VALUE: get_mem4Dmv:dim2 <- $r12d
	#DEBUG_VALUE: get_mem4Dmv:dim3 <- [DW_OP_plus_uconst 12] [$rsp+0]
	#DEBUG_VALUE: get_mem4Dmv:mem_size <- [DW_OP_LLVM_convert 64 7, DW_OP_LLVM_convert 32 7, DW_OP_stack_value] $rbx
	#DEBUG_VALUE: get_mem3Dmv:dim0 <- $r15d
	#DEBUG_VALUE: get_mem3Dmv:array3D <- $r13
	#DEBUG_VALUE: get_mem3Dmv:dim1 <- $r12d
	#DEBUG_VALUE: get_mem3Dmv:dim2 <- [DW_OP_plus_uconst 12, DW_OP_deref] $rsp
	#DEBUG_VALUE: get_mem3Dmv:mem_size <- [DW_OP_LLVM_arg 0, DW_OP_plus_uconst 16, DW_OP_deref, DW_OP_LLVM_convert 64 7, DW_OP_LLVM_convert 32 7, DW_OP_LLVM_arg 1, DW_OP_plus, DW_OP_stack_value] $rsp, $eax
	#DEBUG_VALUE: get_mem3Dmv:i <- $rsi
	.loc	0 520 22 is_stmt 1              # ldecod_src/memalloc.c:520:22
	movq	(%r13), %rdi
	movq	-8(%rdi,%rsi,8), %r8
	.loc	0 520 39 is_stmt 0              # ldecod_src/memalloc.c:520:39
	addq	%rcx, %r8
	.loc	0 520 19                        # ldecod_src/memalloc.c:520:19
	movq	%r8, (%rdi,%rsi,8)
	.loc	0 519 25 is_stmt 1              # ldecod_src/memalloc.c:519:25
	incq	%rsi
.Ltmp627:
	#DEBUG_VALUE: get_mem3Dmv:i <- $rsi
	.loc	0 519 3 is_stmt 0               # ldecod_src/memalloc.c:519:3
	decq	%rdx
	jne	.LBB23_11
.Ltmp628:
.LBB23_12:                              # %get_mem3Dmv.exit
	#DEBUG_VALUE: get_mem4Dmv:array4D <- $r14
	#DEBUG_VALUE: get_mem4Dmv:dim0 <- $ebp
	#DEBUG_VALUE: get_mem4Dmv:dim1 <- [DW_OP_plus_uconst 8] [$rsp+0]
	#DEBUG_VALUE: get_mem4Dmv:dim2 <- $r12d
	#DEBUG_VALUE: get_mem4Dmv:dim3 <- [DW_OP_plus_uconst 12] [$rsp+0]
	#DEBUG_VALUE: get_mem4Dmv:mem_size <- [DW_OP_LLVM_convert 64 7, DW_OP_LLVM_convert 32 7, DW_OP_stack_value] $rbx
	#DEBUG_VALUE: get_mem3Dmv:dim0 <- $r15d
	#DEBUG_VALUE: get_mem3Dmv:array3D <- $r13
	#DEBUG_VALUE: get_mem3Dmv:dim1 <- $r12d
	#DEBUG_VALUE: get_mem3Dmv:dim2 <- [DW_OP_plus_uconst 12, DW_OP_deref] $rsp
	#DEBUG_VALUE: get_mem3Dmv:mem_size <- [DW_OP_LLVM_arg 0, DW_OP_plus_uconst 16, DW_OP_deref, DW_OP_LLVM_convert 64 7, DW_OP_LLVM_convert 32 7, DW_OP_LLVM_arg 1, DW_OP_plus, DW_OP_stack_value] $rsp, $eax
	#DEBUG_VALUE: get_mem3Dmv:mem_size <- [DW_OP_LLVM_arg 0, DW_OP_LLVM_arg 1, DW_OP_plus_uconst 16, DW_OP_deref, DW_OP_LLVM_convert 64 7, DW_OP_LLVM_convert 32 7, DW_OP_plus, DW_OP_stack_value] $eax, $rsp
	#DEBUG_VALUE: get_mem4Dmv:mem_size <- [DW_OP_LLVM_arg 0, DW_OP_LLVM_convert 64 7, DW_OP_LLVM_convert 32 7, DW_OP_LLVM_arg 1, DW_OP_LLVM_arg 2, DW_OP_plus_uconst 16, DW_OP_deref, DW_OP_LLVM_convert 64 7, DW_OP_LLVM_convert 32 7, DW_OP_plus, DW_OP_plus, DW_OP_stack_value] $rbx, $eax, $rsp
	#DEBUG_VALUE: get_mem4Dmv:i <- 1
	.loc	0 543 16 is_stmt 1              # ldecod_src/memalloc.c:543:16
	cmpl	$2, %ebp
.Ltmp629:
	.loc	0 543 3 is_stmt 0               # ldecod_src/memalloc.c:543:3
	jl	.LBB23_20
.Ltmp630:
# %bb.13:                               # %for.body.lr.ph
	#DEBUG_VALUE: get_mem4Dmv:array4D <- $r14
	#DEBUG_VALUE: get_mem4Dmv:dim0 <- $ebp
	#DEBUG_VALUE: get_mem4Dmv:dim1 <- [DW_OP_plus_uconst 8] [$rsp+0]
	#DEBUG_VALUE: get_mem4Dmv:dim2 <- $r12d
	#DEBUG_VALUE: get_mem4Dmv:dim3 <- [DW_OP_plus_uconst 12] [$rsp+0]
	#DEBUG_VALUE: get_mem4Dmv:mem_size <- [DW_OP_LLVM_arg 0, DW_OP_LLVM_convert 64 7, DW_OP_LLVM_convert 32 7, DW_OP_LLVM_arg 1, DW_OP_LLVM_arg 2, DW_OP_plus_uconst 16, DW_OP_deref, DW_OP_LLVM_convert 64 7, DW_OP_LLVM_convert 32 7, DW_OP_plus, DW_OP_plus, DW_OP_stack_value] $rbx, $eax, $rsp
	#DEBUG_VALUE: get_mem4Dmv:i <- 1
	.loc	0 0 3                           # ldecod_src/memalloc.c:0:3
	movslq	8(%rsp), %rcx                   # 4-byte Folded Reload
.Ltmp631:
	.loc	0 543 16                        # ldecod_src/memalloc.c:543:16
	movl	%ebp, %r8d
.Ltmp632:
	.loc	0 543 3                         # ldecod_src/memalloc.c:543:3
	leaq	-1(%r8), %rdi
	addq	$-2, %r8
	movl	%edi, %edx
	andl	$3, %edx
	movl	$1, %esi
	cmpq	$3, %r8
	jb	.LBB23_17
.Ltmp633:
# %bb.14:                               # %for.body.lr.ph.new
	#DEBUG_VALUE: get_mem4Dmv:array4D <- $r14
	#DEBUG_VALUE: get_mem4Dmv:dim0 <- $ebp
	#DEBUG_VALUE: get_mem4Dmv:dim1 <- [DW_OP_plus_uconst 8] [$rsp+0]
	#DEBUG_VALUE: get_mem4Dmv:dim2 <- $r12d
	#DEBUG_VALUE: get_mem4Dmv:dim3 <- [DW_OP_plus_uconst 12] [$rsp+0]
	#DEBUG_VALUE: get_mem4Dmv:mem_size <- [DW_OP_LLVM_arg 0, DW_OP_LLVM_convert 64 7, DW_OP_LLVM_convert 32 7, DW_OP_LLVM_arg 1, DW_OP_LLVM_arg 2, DW_OP_plus_uconst 16, DW_OP_deref, DW_OP_LLVM_convert 64 7, DW_OP_LLVM_convert 32 7, DW_OP_plus, DW_OP_plus, DW_OP_stack_value] $rbx, $eax, $rsp
	#DEBUG_VALUE: get_mem4Dmv:i <- 1
	andq	$-4, %rdi
	xorl	%esi, %esi
	leaq	(,%rcx,8), %r8
.Ltmp634:
	.p2align	4, 0x90
.LBB23_15:                              # %for.body
                                        # =>This Inner Loop Header: Depth=1
	#DEBUG_VALUE: get_mem4Dmv:array4D <- $r14
	#DEBUG_VALUE: get_mem4Dmv:dim0 <- $ebp
	#DEBUG_VALUE: get_mem4Dmv:dim1 <- [DW_OP_plus_uconst 8] [$rsp+0]
	#DEBUG_VALUE: get_mem4Dmv:dim2 <- $r12d
	#DEBUG_VALUE: get_mem4Dmv:dim3 <- [DW_OP_plus_uconst 12] [$rsp+0]
	#DEBUG_VALUE: get_mem4Dmv:mem_size <- [DW_OP_LLVM_arg 0, DW_OP_LLVM_convert 64 7, DW_OP_LLVM_convert 32 7, DW_OP_LLVM_arg 1, DW_OP_LLVM_arg 2, DW_OP_plus_uconst 16, DW_OP_deref, DW_OP_LLVM_convert 64 7, DW_OP_LLVM_convert 32 7, DW_OP_plus, DW_OP_plus, DW_OP_stack_value] $rbx, $eax, $rsp
	#DEBUG_VALUE: get_mem4Dmv:i <- 1
	.loc	0 544 22 is_stmt 1              # ldecod_src/memalloc.c:544:22
	movq	(%r14), %r9
	movq	(%r9,%rsi,8), %r10
	.loc	0 544 39 is_stmt 0              # ldecod_src/memalloc.c:544:39
	addq	%r8, %r10
	.loc	0 544 19                        # ldecod_src/memalloc.c:544:19
	movq	%r10, 8(%r9,%rsi,8)
	.loc	0 544 22                        # ldecod_src/memalloc.c:544:22
	movq	(%r14), %r9
	movq	8(%r9,%rsi,8), %r10
	.loc	0 544 39                        # ldecod_src/memalloc.c:544:39
	addq	%r8, %r10
	.loc	0 544 19                        # ldecod_src/memalloc.c:544:19
	movq	%r10, 16(%r9,%rsi,8)
	.loc	0 544 22                        # ldecod_src/memalloc.c:544:22
	movq	(%r14), %r9
	movq	16(%r9,%rsi,8), %r10
	.loc	0 544 39                        # ldecod_src/memalloc.c:544:39
	addq	%r8, %r10
	.loc	0 544 19                        # ldecod_src/memalloc.c:544:19
	movq	%r10, 24(%r9,%rsi,8)
	.loc	0 544 22                        # ldecod_src/memalloc.c:544:22
	movq	(%r14), %r9
	movq	24(%r9,%rsi,8), %r10
	.loc	0 544 39                        # ldecod_src/memalloc.c:544:39
	addq	%r8, %r10
	.loc	0 544 19                        # ldecod_src/memalloc.c:544:19
	movq	%r10, 32(%r9,%rsi,8)
.Ltmp635:
	.loc	0 543 3 is_stmt 1               # ldecod_src/memalloc.c:543:3
	addq	$4, %rsi
	cmpq	%rsi, %rdi
	jne	.LBB23_15
.Ltmp636:
# %bb.16:                               # %for.end.loopexit.unr-lcssa.loopexit
	#DEBUG_VALUE: get_mem4Dmv:array4D <- $r14
	#DEBUG_VALUE: get_mem4Dmv:dim0 <- $ebp
	#DEBUG_VALUE: get_mem4Dmv:dim1 <- [DW_OP_plus_uconst 8] [$rsp+0]
	#DEBUG_VALUE: get_mem4Dmv:dim2 <- $r12d
	#DEBUG_VALUE: get_mem4Dmv:dim3 <- [DW_OP_plus_uconst 12] [$rsp+0]
	#DEBUG_VALUE: get_mem4Dmv:mem_size <- [DW_OP_LLVM_arg 0, DW_OP_LLVM_convert 64 7, DW_OP_LLVM_convert 32 7, DW_OP_LLVM_arg 1, DW_OP_LLVM_arg 2, DW_OP_plus_uconst 16, DW_OP_deref, DW_OP_LLVM_convert 64 7, DW_OP_LLVM_convert 32 7, DW_OP_plus, DW_OP_plus, DW_OP_stack_value] $rbx, $eax, $rsp
	#DEBUG_VALUE: get_mem4Dmv:i <- 1
	incq	%rsi
.Ltmp637:
.LBB23_17:                              # %for.end.loopexit.unr-lcssa
	#DEBUG_VALUE: get_mem4Dmv:array4D <- $r14
	#DEBUG_VALUE: get_mem4Dmv:dim0 <- $ebp
	#DEBUG_VALUE: get_mem4Dmv:dim1 <- [DW_OP_plus_uconst 8] [$rsp+0]
	#DEBUG_VALUE: get_mem4Dmv:dim2 <- $r12d
	#DEBUG_VALUE: get_mem4Dmv:dim3 <- [DW_OP_plus_uconst 12] [$rsp+0]
	#DEBUG_VALUE: get_mem4Dmv:mem_size <- [DW_OP_LLVM_arg 0, DW_OP_LLVM_convert 64 7, DW_OP_LLVM_convert 32 7, DW_OP_LLVM_arg 1, DW_OP_LLVM_arg 2, DW_OP_plus_uconst 16, DW_OP_deref, DW_OP_LLVM_convert 64 7, DW_OP_LLVM_convert 32 7, DW_OP_plus, DW_OP_plus, DW_OP_stack_value] $rbx, $eax, $rsp
	#DEBUG_VALUE: get_mem4Dmv:i <- 1
	testq	%rdx, %rdx
	je	.LBB23_20
.Ltmp638:
# %bb.18:                               # %for.body.epil.preheader
	#DEBUG_VALUE: get_mem4Dmv:array4D <- $r14
	#DEBUG_VALUE: get_mem4Dmv:dim0 <- $ebp
	#DEBUG_VALUE: get_mem4Dmv:dim1 <- [DW_OP_plus_uconst 8] [$rsp+0]
	#DEBUG_VALUE: get_mem4Dmv:dim2 <- $r12d
	#DEBUG_VALUE: get_mem4Dmv:dim3 <- [DW_OP_plus_uconst 12] [$rsp+0]
	#DEBUG_VALUE: get_mem4Dmv:mem_size <- [DW_OP_LLVM_arg 0, DW_OP_LLVM_convert 64 7, DW_OP_LLVM_convert 32 7, DW_OP_LLVM_arg 1, DW_OP_LLVM_arg 2, DW_OP_plus_uconst 16, DW_OP_deref, DW_OP_LLVM_convert 64 7, DW_OP_LLVM_convert 32 7, DW_OP_plus, DW_OP_plus, DW_OP_stack_value] $rbx, $eax, $rsp
	#DEBUG_VALUE: get_mem4Dmv:i <- 1
	.loc	0 0 3 is_stmt 0                 # ldecod_src/memalloc.c:0:3
	shlq	$3, %rcx
.Ltmp639:
	.p2align	4, 0x90
.LBB23_19:                              # %for.body.epil
                                        # =>This Inner Loop Header: Depth=1
	#DEBUG_VALUE: get_mem4Dmv:array4D <- $r14
	#DEBUG_VALUE: get_mem4Dmv:dim0 <- $ebp
	#DEBUG_VALUE: get_mem4Dmv:dim1 <- [DW_OP_plus_uconst 8] [$rsp+0]
	#DEBUG_VALUE: get_mem4Dmv:dim2 <- $r12d
	#DEBUG_VALUE: get_mem4Dmv:dim3 <- [DW_OP_plus_uconst 12] [$rsp+0]
	#DEBUG_VALUE: get_mem4Dmv:mem_size <- [DW_OP_LLVM_arg 0, DW_OP_LLVM_convert 64 7, DW_OP_LLVM_convert 32 7, DW_OP_LLVM_arg 1, DW_OP_LLVM_arg 2, DW_OP_plus_uconst 16, DW_OP_deref, DW_OP_LLVM_convert 64 7, DW_OP_LLVM_convert 32 7, DW_OP_plus, DW_OP_plus, DW_OP_stack_value] $rbx, $eax, $rsp
	#DEBUG_VALUE: get_mem3Dmv:dim0 <- $r15d
	#DEBUG_VALUE: get_mem3Dmv:array3D <- $r13
	#DEBUG_VALUE: get_mem3Dmv:dim1 <- $r12d
	#DEBUG_VALUE: get_mem3Dmv:dim2 <- [DW_OP_plus_uconst 12, DW_OP_deref] $rsp
	#DEBUG_VALUE: get_mem3Dmv:i <- [DW_OP_LLVM_arg 0, DW_OP_consts 18446744073709551615, DW_OP_LLVM_arg 1, DW_OP_LLVM_convert 2 7, DW_OP_plus, DW_OP_LLVM_convert 64 7, DW_OP_minus, DW_OP_consts 18446744073709551615, DW_OP_div, DW_OP_consts 4, DW_OP_mul, DW_OP_consts 1, DW_OP_plus, DW_OP_stack_value] $rdx, $ebp
	#DEBUG_VALUE: get_mem4Dmv:i <- $rsi
	.loc	0 544 22 is_stmt 1              # ldecod_src/memalloc.c:544:22
	movq	(%r14), %rdi
	movq	-8(%rdi,%rsi,8), %r8
	.loc	0 544 39 is_stmt 0              # ldecod_src/memalloc.c:544:39
	addq	%rcx, %r8
	.loc	0 544 19                        # ldecod_src/memalloc.c:544:19
	movq	%r8, (%rdi,%rsi,8)
	.loc	0 543 25 is_stmt 1              # ldecod_src/memalloc.c:543:25
	incq	%rsi
.Ltmp640:
	#DEBUG_VALUE: get_mem4Dmv:i <- $rsi
	.loc	0 543 3 is_stmt 0               # ldecod_src/memalloc.c:543:3
	decq	%rdx
	jne	.LBB23_19
.Ltmp641:
.LBB23_20:                              # %for.end
	#DEBUG_VALUE: get_mem4Dmv:array4D <- $r14
	#DEBUG_VALUE: get_mem4Dmv:dim0 <- $ebp
	#DEBUG_VALUE: get_mem4Dmv:dim1 <- [DW_OP_plus_uconst 8] [$rsp+0]
	#DEBUG_VALUE: get_mem4Dmv:dim2 <- $r12d
	#DEBUG_VALUE: get_mem4Dmv:dim3 <- [DW_OP_plus_uconst 12] [$rsp+0]
	#DEBUG_VALUE: get_mem4Dmv:mem_size <- [DW_OP_LLVM_arg 0, DW_OP_LLVM_convert 64 7, DW_OP_LLVM_convert 32 7, DW_OP_LLVM_arg 1, DW_OP_LLVM_arg 2, DW_OP_plus_uconst 16, DW_OP_deref, DW_OP_LLVM_convert 64 7, DW_OP_LLVM_convert 32 7, DW_OP_plus, DW_OP_plus, DW_OP_stack_value] $rbx, $eax, $rsp
	#DEBUG_VALUE: get_mem3Dmv:dim0 <- $r15d
	#DEBUG_VALUE: get_mem3Dmv:array3D <- $r13
	#DEBUG_VALUE: get_mem3Dmv:dim1 <- $r12d
	#DEBUG_VALUE: get_mem3Dmv:dim2 <- [DW_OP_plus_uconst 12, DW_OP_deref] $rsp
	#DEBUG_VALUE: get_mem4Dmv:mem_size <- undef
	#DEBUG_VALUE: get_mem3Dmv:mem_size <- undef
	#DEBUG_VALUE: get_mem4Dmv:mem_size <- $ebx
	.loc	0 517 12 is_stmt 1              # ldecod_src/memalloc.c:517:12
	addl	16(%rsp), %ebx                  # 4-byte Folded Reload
.Ltmp642:
	.loc	0 541 12                        # ldecod_src/memalloc.c:541:12
	addl	%eax, %ebx
.Ltmp643:
	#DEBUG_VALUE: get_mem4Dmv:mem_size <- $ebx
	.loc	0 546 3                         # ldecod_src/memalloc.c:546:3
	movl	%ebx, %eax
	.loc	0 546 3 epilogue_begin is_stmt 0 # ldecod_src/memalloc.c:546:3
	addq	$24, %rsp
	.cfi_def_cfa_offset 56
	popq	%rbx
.Ltmp644:
	#DEBUG_VALUE: get_mem4Dmv:mem_size <- $eax
	.cfi_def_cfa_offset 48
	popq	%r12
.Ltmp645:
	#DEBUG_VALUE: get_mem4Dmv:dim2 <- [DW_OP_LLVM_entry_value 1] $ecx
	.cfi_def_cfa_offset 40
	popq	%r13
.Ltmp646:
	.cfi_def_cfa_offset 32
	popq	%r14
.Ltmp647:
	#DEBUG_VALUE: get_mem4Dmv:array4D <- [DW_OP_LLVM_entry_value 1] $rdi
	.cfi_def_cfa_offset 24
	popq	%r15
.Ltmp648:
	.cfi_def_cfa_offset 16
	popq	%rbp
.Ltmp649:
	#DEBUG_VALUE: get_mem4Dmv:dim0 <- [DW_OP_LLVM_entry_value 1] $esi
	.cfi_def_cfa_offset 8
	retq
.Ltmp650:
.Lfunc_end23:
	.size	get_mem4Dmv, .Lfunc_end23-get_mem4Dmv
	.cfi_endproc
                                        # -- End function
	.globl	get_mem5Dmv                     # -- Begin function get_mem5Dmv
	.p2align	4, 0x90
	.type	get_mem5Dmv,@function
get_mem5Dmv:                            # @get_mem5Dmv
.Lfunc_begin24:
	.loc	0 559 0 is_stmt 1               # ldecod_src/memalloc.c:559:0
	.cfi_startproc
# %bb.0:                                # %entry
	#DEBUG_VALUE: get_mem5Dmv:array5D <- $rdi
	#DEBUG_VALUE: get_mem5Dmv:dim0 <- $esi
	#DEBUG_VALUE: get_mem5Dmv:dim1 <- $edx
	#DEBUG_VALUE: get_mem5Dmv:dim2 <- $ecx
	#DEBUG_VALUE: get_mem5Dmv:dim3 <- $r8d
	#DEBUG_VALUE: get_mem5Dmv:dim4 <- $r9d
	pushq	%rbp
	.cfi_def_cfa_offset 16
	pushq	%r15
	.cfi_def_cfa_offset 24
	pushq	%r14
	.cfi_def_cfa_offset 32
	pushq	%r13
	.cfi_def_cfa_offset 40
	pushq	%r12
	.cfi_def_cfa_offset 48
	pushq	%rbx
	.cfi_def_cfa_offset 56
	pushq	%rax
	.cfi_def_cfa_offset 64
	.cfi_offset %rbx, -56
	.cfi_offset %r12, -48
	.cfi_offset %r13, -40
	.cfi_offset %r14, -32
	.cfi_offset %r15, -24
	.cfi_offset %rbp, -16
	movl	%r9d, 4(%rsp)                   # 4-byte Spill
.Ltmp651:
	#DEBUG_VALUE: get_mem5Dmv:dim4 <- [DW_OP_plus_uconst 4] [$rsp+0]
	movl	%r8d, %r13d
	movl	%ecx, %r12d
	movl	%edx, %r15d
	movl	%esi, %ebp
	movq	%rdi, %r14
.Ltmp652:
	.loc	0 560 21 prologue_end           # ldecod_src/memalloc.c:560:21
	movslq	%esi, %rbx
	.loc	0 560 26 is_stmt 0              # ldecod_src/memalloc.c:560:26
	shlq	$3, %rbx
.Ltmp653:
	#DEBUG_VALUE: get_mem5Dmv:mem_size <- [DW_OP_LLVM_convert 64 7, DW_OP_LLVM_convert 32 7, DW_OP_stack_value] $rbx
	.loc	0 562 39 is_stmt 1              # ldecod_src/memalloc.c:562:39
	movq	%rbx, %rdi
.Ltmp654:
	#DEBUG_VALUE: get_mem5Dmv:array5D <- $r14
	callq	malloc@PLT
.Ltmp655:
	#DEBUG_VALUE: get_mem5Dmv:dim3 <- $r13d
	#DEBUG_VALUE: get_mem5Dmv:dim2 <- $r12d
	#DEBUG_VALUE: get_mem5Dmv:dim1 <- $r15d
	#DEBUG_VALUE: get_mem5Dmv:dim0 <- $ebp
	.loc	0 562 18 is_stmt 0              # ldecod_src/memalloc.c:562:18
	movq	%rax, (%r14)
	.loc	0 562 80                        # ldecod_src/memalloc.c:562:80
	testq	%rax, %rax
.Ltmp656:
	.loc	0 562 6                         # ldecod_src/memalloc.c:562:6
	jne	.LBB24_2
.Ltmp657:
# %bb.1:                                # %if.then
	#DEBUG_VALUE: get_mem5Dmv:array5D <- $r14
	#DEBUG_VALUE: get_mem5Dmv:dim0 <- $ebp
	#DEBUG_VALUE: get_mem5Dmv:dim1 <- $r15d
	#DEBUG_VALUE: get_mem5Dmv:dim2 <- $r12d
	#DEBUG_VALUE: get_mem5Dmv:dim3 <- $r13d
	#DEBUG_VALUE: get_mem5Dmv:dim4 <- [DW_OP_plus_uconst 4] [$rsp+0]
	#DEBUG_VALUE: get_mem5Dmv:mem_size <- [DW_OP_LLVM_convert 64 7, DW_OP_LLVM_convert 32 7, DW_OP_stack_value] $rbx
	.loc	0 1833 4 is_stmt 1              # ldecod_src/memalloc.c:1833:4
	movq	errortext@GOTPCREL(%rip), %rdi
.Ltmp658:
	#DEBUG_VALUE: no_mem_exit:where <- undef
	movl	$300, %esi                      # imm = 0x12C
	movl	$.L.str.81, %edx
	movl	$.L.str.23, %ecx
	xorl	%eax, %eax
	callq	snprintf@PLT
.Ltmp659:
	.loc	0 1834 4                        # ldecod_src/memalloc.c:1834:4
	movq	errortext@GOTPCREL(%rip), %rdi
	movl	$100, %esi
	callq	error@PLT
.Ltmp660:
	.loc	0 565 27                        # ldecod_src/memalloc.c:565:27
	movq	(%r14), %rax
.Ltmp661:
.LBB24_2:                               # %if.end
	#DEBUG_VALUE: get_mem5Dmv:array5D <- $r14
	#DEBUG_VALUE: get_mem5Dmv:dim0 <- $ebp
	#DEBUG_VALUE: get_mem5Dmv:dim1 <- $r15d
	#DEBUG_VALUE: get_mem5Dmv:dim2 <- $r12d
	#DEBUG_VALUE: get_mem5Dmv:dim3 <- $r13d
	#DEBUG_VALUE: get_mem5Dmv:dim4 <- [DW_OP_plus_uconst 4] [$rsp+0]
	#DEBUG_VALUE: get_mem5Dmv:mem_size <- [DW_OP_LLVM_convert 64 7, DW_OP_LLVM_convert 32 7, DW_OP_stack_value] $rbx
	.loc	0 565 42 is_stmt 0              # ldecod_src/memalloc.c:565:42
	movl	%r15d, %esi
	imull	%ebp, %esi
	.loc	0 565 15                        # ldecod_src/memalloc.c:565:15
	movq	%rax, %rdi
	movl	%r12d, %edx
	movl	%r13d, %ecx
	movl	4(%rsp), %r8d                   # 4-byte Reload
	callq	get_mem4Dmv
.Ltmp662:
	#DEBUG_VALUE: get_mem5Dmv:mem_size <- [DW_OP_LLVM_arg 0, DW_OP_LLVM_convert 64 7, DW_OP_LLVM_convert 32 7, DW_OP_LLVM_arg 1, DW_OP_plus, DW_OP_stack_value] $rbx, $eax
	#DEBUG_VALUE: get_mem5Dmv:i <- 1
	.loc	0 567 16 is_stmt 1              # ldecod_src/memalloc.c:567:16
	cmpl	$2, %ebp
.Ltmp663:
	.loc	0 567 3 is_stmt 0               # ldecod_src/memalloc.c:567:3
	jl	.LBB24_10
.Ltmp664:
# %bb.3:                                # %for.body.lr.ph
	#DEBUG_VALUE: get_mem5Dmv:array5D <- $r14
	#DEBUG_VALUE: get_mem5Dmv:dim0 <- $ebp
	#DEBUG_VALUE: get_mem5Dmv:dim1 <- $r15d
	#DEBUG_VALUE: get_mem5Dmv:dim2 <- $r12d
	#DEBUG_VALUE: get_mem5Dmv:dim3 <- $r13d
	#DEBUG_VALUE: get_mem5Dmv:dim4 <- [DW_OP_plus_uconst 4] [$rsp+0]
	#DEBUG_VALUE: get_mem5Dmv:mem_size <- [DW_OP_LLVM_arg 0, DW_OP_LLVM_convert 64 7, DW_OP_LLVM_convert 32 7, DW_OP_LLVM_arg 1, DW_OP_plus, DW_OP_stack_value] $rbx, $eax
	#DEBUG_VALUE: get_mem5Dmv:i <- 1
	.loc	0 0 3                           # ldecod_src/memalloc.c:0:3
	movslq	%r15d, %rcx
.Ltmp665:
	.loc	0 567 16                        # ldecod_src/memalloc.c:567:16
	movl	%ebp, %r8d
.Ltmp666:
	.loc	0 567 3                         # ldecod_src/memalloc.c:567:3
	leaq	-1(%r8), %rdi
	addq	$-2, %r8
	movl	%edi, %edx
	andl	$3, %edx
	movl	$1, %esi
	cmpq	$3, %r8
	jb	.LBB24_7
.Ltmp667:
# %bb.4:                                # %for.body.lr.ph.new
	#DEBUG_VALUE: get_mem5Dmv:array5D <- $r14
	#DEBUG_VALUE: get_mem5Dmv:dim0 <- $ebp
	#DEBUG_VALUE: get_mem5Dmv:dim1 <- $r15d
	#DEBUG_VALUE: get_mem5Dmv:dim2 <- $r12d
	#DEBUG_VALUE: get_mem5Dmv:dim3 <- $r13d
	#DEBUG_VALUE: get_mem5Dmv:dim4 <- [DW_OP_plus_uconst 4] [$rsp+0]
	#DEBUG_VALUE: get_mem5Dmv:mem_size <- [DW_OP_LLVM_arg 0, DW_OP_LLVM_convert 64 7, DW_OP_LLVM_convert 32 7, DW_OP_LLVM_arg 1, DW_OP_plus, DW_OP_stack_value] $rbx, $eax
	#DEBUG_VALUE: get_mem5Dmv:i <- 1
	andq	$-4, %rdi
	xorl	%esi, %esi
	leaq	(,%rcx,8), %r8
.Ltmp668:
	.p2align	4, 0x90
.LBB24_5:                               # %for.body
                                        # =>This Inner Loop Header: Depth=1
	#DEBUG_VALUE: get_mem5Dmv:array5D <- $r14
	#DEBUG_VALUE: get_mem5Dmv:dim0 <- $ebp
	#DEBUG_VALUE: get_mem5Dmv:dim1 <- $r15d
	#DEBUG_VALUE: get_mem5Dmv:dim2 <- $r12d
	#DEBUG_VALUE: get_mem5Dmv:dim3 <- $r13d
	#DEBUG_VALUE: get_mem5Dmv:dim4 <- [DW_OP_plus_uconst 4] [$rsp+0]
	#DEBUG_VALUE: get_mem5Dmv:mem_size <- [DW_OP_LLVM_arg 0, DW_OP_LLVM_convert 64 7, DW_OP_LLVM_convert 32 7, DW_OP_LLVM_arg 1, DW_OP_plus, DW_OP_stack_value] $rbx, $eax
	#DEBUG_VALUE: get_mem5Dmv:i <- 1
	.loc	0 568 22 is_stmt 1              # ldecod_src/memalloc.c:568:22
	movq	(%r14), %r9
	movq	(%r9,%rsi,8), %r10
	.loc	0 568 39 is_stmt 0              # ldecod_src/memalloc.c:568:39
	addq	%r8, %r10
	.loc	0 568 19                        # ldecod_src/memalloc.c:568:19
	movq	%r10, 8(%r9,%rsi,8)
	.loc	0 568 22                        # ldecod_src/memalloc.c:568:22
	movq	(%r14), %r9
	movq	8(%r9,%rsi,8), %r10
	.loc	0 568 39                        # ldecod_src/memalloc.c:568:39
	addq	%r8, %r10
	.loc	0 568 19                        # ldecod_src/memalloc.c:568:19
	movq	%r10, 16(%r9,%rsi,8)
	.loc	0 568 22                        # ldecod_src/memalloc.c:568:22
	movq	(%r14), %r9
	movq	16(%r9,%rsi,8), %r10
	.loc	0 568 39                        # ldecod_src/memalloc.c:568:39
	addq	%r8, %r10
	.loc	0 568 19                        # ldecod_src/memalloc.c:568:19
	movq	%r10, 24(%r9,%rsi,8)
	.loc	0 568 22                        # ldecod_src/memalloc.c:568:22
	movq	(%r14), %r9
	movq	24(%r9,%rsi,8), %r10
	.loc	0 568 39                        # ldecod_src/memalloc.c:568:39
	addq	%r8, %r10
	.loc	0 568 19                        # ldecod_src/memalloc.c:568:19
	movq	%r10, 32(%r9,%rsi,8)
.Ltmp669:
	.loc	0 567 3 is_stmt 1               # ldecod_src/memalloc.c:567:3
	addq	$4, %rsi
	cmpq	%rsi, %rdi
	jne	.LBB24_5
.Ltmp670:
# %bb.6:                                # %for.end.loopexit.unr-lcssa.loopexit
	#DEBUG_VALUE: get_mem5Dmv:array5D <- $r14
	#DEBUG_VALUE: get_mem5Dmv:dim0 <- $ebp
	#DEBUG_VALUE: get_mem5Dmv:dim1 <- $r15d
	#DEBUG_VALUE: get_mem5Dmv:dim2 <- $r12d
	#DEBUG_VALUE: get_mem5Dmv:dim3 <- $r13d
	#DEBUG_VALUE: get_mem5Dmv:dim4 <- [DW_OP_plus_uconst 4] [$rsp+0]
	#DEBUG_VALUE: get_mem5Dmv:mem_size <- [DW_OP_LLVM_arg 0, DW_OP_LLVM_convert 64 7, DW_OP_LLVM_convert 32 7, DW_OP_LLVM_arg 1, DW_OP_plus, DW_OP_stack_value] $rbx, $eax
	#DEBUG_VALUE: get_mem5Dmv:i <- 1
	incq	%rsi
.Ltmp671:
.LBB24_7:                               # %for.end.loopexit.unr-lcssa
	#DEBUG_VALUE: get_mem5Dmv:array5D <- $r14
	#DEBUG_VALUE: get_mem5Dmv:dim0 <- $ebp
	#DEBUG_VALUE: get_mem5Dmv:dim1 <- $r15d
	#DEBUG_VALUE: get_mem5Dmv:dim2 <- $r12d
	#DEBUG_VALUE: get_mem5Dmv:dim3 <- $r13d
	#DEBUG_VALUE: get_mem5Dmv:dim4 <- [DW_OP_plus_uconst 4] [$rsp+0]
	#DEBUG_VALUE: get_mem5Dmv:mem_size <- [DW_OP_LLVM_arg 0, DW_OP_LLVM_convert 64 7, DW_OP_LLVM_convert 32 7, DW_OP_LLVM_arg 1, DW_OP_plus, DW_OP_stack_value] $rbx, $eax
	#DEBUG_VALUE: get_mem5Dmv:i <- 1
	testq	%rdx, %rdx
	je	.LBB24_10
.Ltmp672:
# %bb.8:                                # %for.body.epil.preheader
	#DEBUG_VALUE: get_mem5Dmv:array5D <- $r14
	#DEBUG_VALUE: get_mem5Dmv:dim0 <- $ebp
	#DEBUG_VALUE: get_mem5Dmv:dim1 <- $r15d
	#DEBUG_VALUE: get_mem5Dmv:dim2 <- $r12d
	#DEBUG_VALUE: get_mem5Dmv:dim3 <- $r13d
	#DEBUG_VALUE: get_mem5Dmv:dim4 <- [DW_OP_plus_uconst 4] [$rsp+0]
	#DEBUG_VALUE: get_mem5Dmv:mem_size <- [DW_OP_LLVM_arg 0, DW_OP_LLVM_convert 64 7, DW_OP_LLVM_convert 32 7, DW_OP_LLVM_arg 1, DW_OP_plus, DW_OP_stack_value] $rbx, $eax
	#DEBUG_VALUE: get_mem5Dmv:i <- 1
	.loc	0 0 3 is_stmt 0                 # ldecod_src/memalloc.c:0:3
	shlq	$3, %rcx
.Ltmp673:
	.p2align	4, 0x90
.LBB24_9:                               # %for.body.epil
                                        # =>This Inner Loop Header: Depth=1
	#DEBUG_VALUE: get_mem5Dmv:array5D <- $r14
	#DEBUG_VALUE: get_mem5Dmv:dim0 <- $ebp
	#DEBUG_VALUE: get_mem5Dmv:dim1 <- $r15d
	#DEBUG_VALUE: get_mem5Dmv:dim2 <- $r12d
	#DEBUG_VALUE: get_mem5Dmv:dim3 <- $r13d
	#DEBUG_VALUE: get_mem5Dmv:dim4 <- [DW_OP_plus_uconst 4] [$rsp+0]
	#DEBUG_VALUE: get_mem5Dmv:mem_size <- [DW_OP_LLVM_arg 0, DW_OP_LLVM_convert 64 7, DW_OP_LLVM_convert 32 7, DW_OP_LLVM_arg 1, DW_OP_plus, DW_OP_stack_value] $rbx, $eax
	#DEBUG_VALUE: get_mem5Dmv:i <- $rsi
	.loc	0 568 22 is_stmt 1              # ldecod_src/memalloc.c:568:22
	movq	(%r14), %rdi
	movq	-8(%rdi,%rsi,8), %r8
	.loc	0 568 39 is_stmt 0              # ldecod_src/memalloc.c:568:39
	addq	%rcx, %r8
	.loc	0 568 19                        # ldecod_src/memalloc.c:568:19
	movq	%r8, (%rdi,%rsi,8)
	.loc	0 567 25 is_stmt 1              # ldecod_src/memalloc.c:567:25
	incq	%rsi
.Ltmp674:
	#DEBUG_VALUE: get_mem5Dmv:i <- $rsi
	.loc	0 567 3 is_stmt 0               # ldecod_src/memalloc.c:567:3
	decq	%rdx
	jne	.LBB24_9
.Ltmp675:
.LBB24_10:                              # %for.end
	#DEBUG_VALUE: get_mem5Dmv:array5D <- $r14
	#DEBUG_VALUE: get_mem5Dmv:dim0 <- $ebp
	#DEBUG_VALUE: get_mem5Dmv:dim1 <- $r15d
	#DEBUG_VALUE: get_mem5Dmv:dim2 <- $r12d
	#DEBUG_VALUE: get_mem5Dmv:dim3 <- $r13d
	#DEBUG_VALUE: get_mem5Dmv:dim4 <- [DW_OP_plus_uconst 4] [$rsp+0]
	#DEBUG_VALUE: get_mem5Dmv:mem_size <- [DW_OP_LLVM_arg 0, DW_OP_LLVM_convert 64 7, DW_OP_LLVM_convert 32 7, DW_OP_LLVM_arg 1, DW_OP_plus, DW_OP_stack_value] $rbx, $eax
	#DEBUG_VALUE: get_mem5Dmv:mem_size <- $ebx
	.loc	0 565 12 is_stmt 1              # ldecod_src/memalloc.c:565:12
	addl	%ebx, %eax
.Ltmp676:
	#DEBUG_VALUE: get_mem5Dmv:mem_size <- $eax
	.loc	0 570 3 epilogue_begin          # ldecod_src/memalloc.c:570:3
	addq	$8, %rsp
	.cfi_def_cfa_offset 56
	popq	%rbx
	.cfi_def_cfa_offset 48
	popq	%r12
.Ltmp677:
	#DEBUG_VALUE: get_mem5Dmv:dim2 <- [DW_OP_LLVM_entry_value 1] $ecx
	.cfi_def_cfa_offset 40
	popq	%r13
.Ltmp678:
	#DEBUG_VALUE: get_mem5Dmv:dim3 <- [DW_OP_LLVM_entry_value 1] $r8d
	.cfi_def_cfa_offset 32
	popq	%r14
.Ltmp679:
	#DEBUG_VALUE: get_mem5Dmv:array5D <- [DW_OP_LLVM_entry_value 1] $rdi
	.cfi_def_cfa_offset 24
	popq	%r15
.Ltmp680:
	#DEBUG_VALUE: get_mem5Dmv:dim1 <- [DW_OP_LLVM_entry_value 1] $edx
	.cfi_def_cfa_offset 16
	popq	%rbp
.Ltmp681:
	#DEBUG_VALUE: get_mem5Dmv:dim0 <- [DW_OP_LLVM_entry_value 1] $esi
	.cfi_def_cfa_offset 8
	retq
.Ltmp682:
.Lfunc_end24:
	.size	get_mem5Dmv, .Lfunc_end24-get_mem5Dmv
	.cfi_endproc
                                        # -- End function
	.globl	get_mem6Dmv                     # -- Begin function get_mem6Dmv
	.p2align	4, 0x90
	.type	get_mem6Dmv,@function
get_mem6Dmv:                            # @get_mem6Dmv
.Lfunc_begin25:
	.loc	0 583 0                         # ldecod_src/memalloc.c:583:0
	.cfi_startproc
# %bb.0:                                # %entry
	#DEBUG_VALUE: get_mem6Dmv:array6D <- $rdi
	#DEBUG_VALUE: get_mem6Dmv:dim0 <- $esi
	#DEBUG_VALUE: get_mem6Dmv:dim1 <- $edx
	#DEBUG_VALUE: get_mem6Dmv:dim2 <- $ecx
	#DEBUG_VALUE: get_mem6Dmv:dim3 <- $r8d
	#DEBUG_VALUE: get_mem6Dmv:dim4 <- $r9d
	pushq	%rbp
	.cfi_def_cfa_offset 16
	pushq	%r15
	.cfi_def_cfa_offset 24
	pushq	%r14
	.cfi_def_cfa_offset 32
	pushq	%r13
	.cfi_def_cfa_offset 40
	pushq	%r12
	.cfi_def_cfa_offset 48
	pushq	%rbx
	.cfi_def_cfa_offset 56
	subq	$24, %rsp
	.cfi_def_cfa_offset 80
	.cfi_offset %rbx, -56
	.cfi_offset %r12, -48
	.cfi_offset %r13, -40
	.cfi_offset %r14, -32
	.cfi_offset %r15, -24
	.cfi_offset %rbp, -16
.Ltmp683:
	#DEBUG_VALUE: get_mem6Dmv:dim5 <- [DW_OP_plus_uconst 80] [$rsp+0]
	movl	%r9d, 12(%rsp)                  # 4-byte Spill
.Ltmp684:
	#DEBUG_VALUE: get_mem6Dmv:dim4 <- [DW_OP_plus_uconst 12] [$rsp+0]
	movl	%r8d, 8(%rsp)                   # 4-byte Spill
.Ltmp685:
	#DEBUG_VALUE: get_mem6Dmv:dim3 <- [DW_OP_plus_uconst 8] [$rsp+0]
	movl	%ecx, %r12d
	movl	%edx, %r15d
	movl	%esi, %ebp
	movq	%rdi, %r14
.Ltmp686:
	.loc	0 584 21 prologue_end           # ldecod_src/memalloc.c:584:21
	movslq	%esi, %rbx
	.loc	0 584 26 is_stmt 0              # ldecod_src/memalloc.c:584:26
	shlq	$3, %rbx
.Ltmp687:
	#DEBUG_VALUE: get_mem6Dmv:mem_size <- [DW_OP_LLVM_convert 64 7, DW_OP_LLVM_convert 32 7, DW_OP_stack_value] $rbx
	.loc	0 586 40 is_stmt 1              # ldecod_src/memalloc.c:586:40
	movq	%rbx, %rdi
.Ltmp688:
	#DEBUG_VALUE: get_mem6Dmv:array6D <- $r14
	callq	malloc@PLT
.Ltmp689:
	#DEBUG_VALUE: get_mem6Dmv:dim2 <- $r12d
	#DEBUG_VALUE: get_mem6Dmv:dim1 <- $r15d
	#DEBUG_VALUE: get_mem6Dmv:dim0 <- $ebp
	movq	%rax, %r13
	.loc	0 586 18 is_stmt 0              # ldecod_src/memalloc.c:586:18
	movq	%rax, (%r14)
	.loc	0 586 82                        # ldecod_src/memalloc.c:586:82
	testq	%rax, %rax
.Ltmp690:
	.loc	0 586 6                         # ldecod_src/memalloc.c:586:6
	jne	.LBB25_2
.Ltmp691:
# %bb.1:                                # %if.then
	#DEBUG_VALUE: get_mem6Dmv:array6D <- $r14
	#DEBUG_VALUE: get_mem6Dmv:dim0 <- $ebp
	#DEBUG_VALUE: get_mem6Dmv:dim1 <- $r15d
	#DEBUG_VALUE: get_mem6Dmv:dim2 <- $r12d
	#DEBUG_VALUE: get_mem6Dmv:dim3 <- [DW_OP_plus_uconst 8] [$rsp+0]
	#DEBUG_VALUE: get_mem6Dmv:dim4 <- [DW_OP_plus_uconst 12] [$rsp+0]
	#DEBUG_VALUE: get_mem6Dmv:dim5 <- [DW_OP_plus_uconst 80] [$rsp+0]
	#DEBUG_VALUE: get_mem6Dmv:mem_size <- [DW_OP_LLVM_convert 64 7, DW_OP_LLVM_convert 32 7, DW_OP_stack_value] $rbx
	.loc	0 0 6                           # ldecod_src/memalloc.c:0:6
	movl	%r15d, %r13d
.Ltmp692:
	#DEBUG_VALUE: get_mem6Dmv:dim1 <- $r13d
	.loc	0 1833 4 is_stmt 1              # ldecod_src/memalloc.c:1833:4
	movq	errortext@GOTPCREL(%rip), %r15
.Ltmp693:
	#DEBUG_VALUE: no_mem_exit:where <- undef
	movl	$300, %esi                      # imm = 0x12C
	movl	$.L.str.81, %edx
	movl	$.L.str.24, %ecx
	movq	%r15, %rdi
	xorl	%eax, %eax
	callq	snprintf@PLT
.Ltmp694:
	.loc	0 1834 4                        # ldecod_src/memalloc.c:1834:4
	movq	%r15, %rdi
	movl	%r13d, %r15d
.Ltmp695:
	#DEBUG_VALUE: get_mem6Dmv:dim1 <- $r15d
	movl	$100, %esi
	callq	error@PLT
.Ltmp696:
	.loc	0 589 27                        # ldecod_src/memalloc.c:589:27
	movq	(%r14), %r13
.Ltmp697:
.LBB25_2:                               # %if.end
	#DEBUG_VALUE: get_mem6Dmv:array6D <- $r14
	#DEBUG_VALUE: get_mem6Dmv:dim0 <- $ebp
	#DEBUG_VALUE: get_mem6Dmv:dim1 <- $r15d
	#DEBUG_VALUE: get_mem6Dmv:dim2 <- $r12d
	#DEBUG_VALUE: get_mem6Dmv:dim3 <- [DW_OP_plus_uconst 8] [$rsp+0]
	#DEBUG_VALUE: get_mem6Dmv:dim4 <- [DW_OP_plus_uconst 12] [$rsp+0]
	#DEBUG_VALUE: get_mem6Dmv:dim5 <- [DW_OP_plus_uconst 80] [$rsp+0]
	#DEBUG_VALUE: get_mem6Dmv:mem_size <- [DW_OP_LLVM_convert 64 7, DW_OP_LLVM_convert 32 7, DW_OP_stack_value] $rbx
	.loc	0 0 27 is_stmt 0                # ldecod_src/memalloc.c:0:27
	movl	%r15d, 4(%rsp)                  # 4-byte Spill
.Ltmp698:
	#DEBUG_VALUE: get_mem6Dmv:dim1 <- [DW_OP_plus_uconst 4] [$rsp+0]
	.loc	0 589 42                        # ldecod_src/memalloc.c:589:42
	imull	%ebp, %r15d
.Ltmp699:
	#DEBUG_VALUE: get_mem5Dmv:dim0 <- $r15d
	#DEBUG_VALUE: get_mem5Dmv:array5D <- $r13
	#DEBUG_VALUE: get_mem5Dmv:dim1 <- $r12d
	#DEBUG_VALUE: get_mem5Dmv:dim2 <- [DW_OP_plus_uconst 8, DW_OP_deref] $rsp
	#DEBUG_VALUE: get_mem5Dmv:dim3 <- [DW_OP_plus_uconst 12, DW_OP_deref] $rsp
	#DEBUG_VALUE: get_mem5Dmv:dim4 <- undef
	.loc	0 560 21 is_stmt 1              # ldecod_src/memalloc.c:560:21
	movslq	%r15d, %rdi
	.loc	0 560 26 is_stmt 0              # ldecod_src/memalloc.c:560:26
	shlq	$3, %rdi
.Ltmp700:
	#DEBUG_VALUE: get_mem5Dmv:mem_size <- [DW_OP_LLVM_convert 64 7, DW_OP_LLVM_convert 32 7, DW_OP_stack_value] $rdi
	.loc	0 0 26                          # ldecod_src/memalloc.c:0:26
	movq	%rdi, 16(%rsp)                  # 8-byte Spill
.Ltmp701:
	#DEBUG_VALUE: get_mem5Dmv:mem_size <- [DW_OP_plus_uconst 16, DW_OP_deref_size 8, DW_OP_LLVM_convert 64 7, DW_OP_LLVM_convert 32 7, DW_OP_stack_value] $rsp
	.loc	0 562 39 is_stmt 1              # ldecod_src/memalloc.c:562:39
	callq	malloc@PLT
.Ltmp702:
	.loc	0 562 18 is_stmt 0              # ldecod_src/memalloc.c:562:18
	movq	%rax, (%r13)
	.loc	0 562 80                        # ldecod_src/memalloc.c:562:80
	testq	%rax, %rax
.Ltmp703:
	.loc	0 562 6                         # ldecod_src/memalloc.c:562:6
	jne	.LBB25_4
.Ltmp704:
# %bb.3:                                # %if.then.i
	#DEBUG_VALUE: get_mem6Dmv:array6D <- $r14
	#DEBUG_VALUE: get_mem6Dmv:dim0 <- $ebp
	#DEBUG_VALUE: get_mem6Dmv:dim1 <- [DW_OP_plus_uconst 4] [$rsp+0]
	#DEBUG_VALUE: get_mem6Dmv:dim2 <- $r12d
	#DEBUG_VALUE: get_mem6Dmv:dim3 <- [DW_OP_plus_uconst 8] [$rsp+0]
	#DEBUG_VALUE: get_mem6Dmv:dim4 <- [DW_OP_plus_uconst 12] [$rsp+0]
	#DEBUG_VALUE: get_mem6Dmv:dim5 <- [DW_OP_plus_uconst 80] [$rsp+0]
	#DEBUG_VALUE: get_mem6Dmv:mem_size <- [DW_OP_LLVM_convert 64 7, DW_OP_LLVM_convert 32 7, DW_OP_stack_value] $rbx
	#DEBUG_VALUE: get_mem5Dmv:dim0 <- $r15d
	#DEBUG_VALUE: get_mem5Dmv:array5D <- $r13
	#DEBUG_VALUE: get_mem5Dmv:dim1 <- $r12d
	#DEBUG_VALUE: get_mem5Dmv:dim2 <- [DW_OP_plus_uconst 8, DW_OP_deref] $rsp
	#DEBUG_VALUE: get_mem5Dmv:dim3 <- [DW_OP_plus_uconst 12, DW_OP_deref] $rsp
	#DEBUG_VALUE: get_mem5Dmv:mem_size <- [DW_OP_plus_uconst 16, DW_OP_deref_size 8, DW_OP_LLVM_convert 64 7, DW_OP_LLVM_convert 32 7, DW_OP_stack_value] $rsp
	.loc	0 1833 4 is_stmt 1              # ldecod_src/memalloc.c:1833:4
	movq	errortext@GOTPCREL(%rip), %rdi
.Ltmp705:
	#DEBUG_VALUE: no_mem_exit:where <- undef
	movl	$300, %esi                      # imm = 0x12C
	movl	$.L.str.81, %edx
	movl	$.L.str.23, %ecx
	xorl	%eax, %eax
	callq	snprintf@PLT
.Ltmp706:
	.loc	0 1834 4                        # ldecod_src/memalloc.c:1834:4
	movq	errortext@GOTPCREL(%rip), %rdi
	movl	$100, %esi
	callq	error@PLT
.Ltmp707:
	.loc	0 565 27                        # ldecod_src/memalloc.c:565:27
	movq	(%r13), %rax
.Ltmp708:
.LBB25_4:                               # %if.end.i
	#DEBUG_VALUE: get_mem6Dmv:array6D <- $r14
	#DEBUG_VALUE: get_mem6Dmv:dim0 <- $ebp
	#DEBUG_VALUE: get_mem6Dmv:dim1 <- [DW_OP_plus_uconst 4] [$rsp+0]
	#DEBUG_VALUE: get_mem6Dmv:dim2 <- $r12d
	#DEBUG_VALUE: get_mem6Dmv:dim3 <- [DW_OP_plus_uconst 8] [$rsp+0]
	#DEBUG_VALUE: get_mem6Dmv:dim4 <- [DW_OP_plus_uconst 12] [$rsp+0]
	#DEBUG_VALUE: get_mem6Dmv:dim5 <- [DW_OP_plus_uconst 80] [$rsp+0]
	#DEBUG_VALUE: get_mem6Dmv:mem_size <- [DW_OP_LLVM_convert 64 7, DW_OP_LLVM_convert 32 7, DW_OP_stack_value] $rbx
	#DEBUG_VALUE: get_mem5Dmv:dim0 <- $r15d
	#DEBUG_VALUE: get_mem5Dmv:array5D <- $r13
	#DEBUG_VALUE: get_mem5Dmv:dim1 <- $r12d
	#DEBUG_VALUE: get_mem5Dmv:dim2 <- [DW_OP_plus_uconst 8, DW_OP_deref] $rsp
	#DEBUG_VALUE: get_mem5Dmv:dim3 <- [DW_OP_plus_uconst 12, DW_OP_deref] $rsp
	#DEBUG_VALUE: get_mem5Dmv:mem_size <- [DW_OP_plus_uconst 16, DW_OP_deref_size 8, DW_OP_LLVM_convert 64 7, DW_OP_LLVM_convert 32 7, DW_OP_stack_value] $rsp
	.loc	0 565 42 is_stmt 0              # ldecod_src/memalloc.c:565:42
	movl	%r15d, %esi
	imull	%r12d, %esi
	.loc	0 565 15                        # ldecod_src/memalloc.c:565:15
	movq	%rax, %rdi
	movl	8(%rsp), %edx                   # 4-byte Reload
	movl	12(%rsp), %ecx                  # 4-byte Reload
	movl	80(%rsp), %r8d
	callq	get_mem4Dmv
.Ltmp709:
	#DEBUG_VALUE: get_mem5Dmv:mem_size <- [DW_OP_LLVM_arg 0, DW_OP_plus_uconst 16, DW_OP_deref, DW_OP_LLVM_convert 64 7, DW_OP_LLVM_convert 32 7, DW_OP_LLVM_arg 1, DW_OP_plus, DW_OP_stack_value] $rsp, $eax
	#DEBUG_VALUE: get_mem5Dmv:i <- 1
	.loc	0 567 16 is_stmt 1              # ldecod_src/memalloc.c:567:16
	cmpl	$2, %r15d
.Ltmp710:
	.loc	0 567 3 is_stmt 0               # ldecod_src/memalloc.c:567:3
	jl	.LBB25_12
.Ltmp711:
# %bb.5:                                # %for.body.lr.ph.i
	#DEBUG_VALUE: get_mem6Dmv:array6D <- $r14
	#DEBUG_VALUE: get_mem6Dmv:dim0 <- $ebp
	#DEBUG_VALUE: get_mem6Dmv:dim1 <- [DW_OP_plus_uconst 4] [$rsp+0]
	#DEBUG_VALUE: get_mem6Dmv:dim2 <- $r12d
	#DEBUG_VALUE: get_mem6Dmv:dim3 <- [DW_OP_plus_uconst 8] [$rsp+0]
	#DEBUG_VALUE: get_mem6Dmv:dim4 <- [DW_OP_plus_uconst 12] [$rsp+0]
	#DEBUG_VALUE: get_mem6Dmv:dim5 <- [DW_OP_plus_uconst 80] [$rsp+0]
	#DEBUG_VALUE: get_mem6Dmv:mem_size <- [DW_OP_LLVM_convert 64 7, DW_OP_LLVM_convert 32 7, DW_OP_stack_value] $rbx
	#DEBUG_VALUE: get_mem5Dmv:dim0 <- $r15d
	#DEBUG_VALUE: get_mem5Dmv:array5D <- $r13
	#DEBUG_VALUE: get_mem5Dmv:dim1 <- $r12d
	#DEBUG_VALUE: get_mem5Dmv:dim2 <- [DW_OP_plus_uconst 8, DW_OP_deref] $rsp
	#DEBUG_VALUE: get_mem5Dmv:dim3 <- [DW_OP_plus_uconst 12, DW_OP_deref] $rsp
	#DEBUG_VALUE: get_mem5Dmv:mem_size <- [DW_OP_LLVM_arg 0, DW_OP_plus_uconst 16, DW_OP_deref, DW_OP_LLVM_convert 64 7, DW_OP_LLVM_convert 32 7, DW_OP_LLVM_arg 1, DW_OP_plus, DW_OP_stack_value] $rsp, $eax
	#DEBUG_VALUE: get_mem5Dmv:i <- 1
	.loc	0 0 3                           # ldecod_src/memalloc.c:0:3
	movslq	%r12d, %rcx
.Ltmp712:
	.loc	0 567 16                        # ldecod_src/memalloc.c:567:16
	movl	%r15d, %r8d
.Ltmp713:
	.loc	0 567 3                         # ldecod_src/memalloc.c:567:3
	leaq	-1(%r8), %rdi
	addq	$-2, %r8
	movl	%edi, %edx
	andl	$3, %edx
	movl	$1, %esi
	cmpq	$3, %r8
	jb	.LBB25_9
.Ltmp714:
# %bb.6:                                # %for.body.lr.ph.i.new
	#DEBUG_VALUE: get_mem6Dmv:array6D <- $r14
	#DEBUG_VALUE: get_mem6Dmv:dim0 <- $ebp
	#DEBUG_VALUE: get_mem6Dmv:dim1 <- [DW_OP_plus_uconst 4] [$rsp+0]
	#DEBUG_VALUE: get_mem6Dmv:dim2 <- $r12d
	#DEBUG_VALUE: get_mem6Dmv:dim3 <- [DW_OP_plus_uconst 8] [$rsp+0]
	#DEBUG_VALUE: get_mem6Dmv:dim4 <- [DW_OP_plus_uconst 12] [$rsp+0]
	#DEBUG_VALUE: get_mem6Dmv:dim5 <- [DW_OP_plus_uconst 80] [$rsp+0]
	#DEBUG_VALUE: get_mem6Dmv:mem_size <- [DW_OP_LLVM_convert 64 7, DW_OP_LLVM_convert 32 7, DW_OP_stack_value] $rbx
	#DEBUG_VALUE: get_mem5Dmv:dim0 <- $r15d
	#DEBUG_VALUE: get_mem5Dmv:array5D <- $r13
	#DEBUG_VALUE: get_mem5Dmv:dim1 <- $r12d
	#DEBUG_VALUE: get_mem5Dmv:dim2 <- [DW_OP_plus_uconst 8, DW_OP_deref] $rsp
	#DEBUG_VALUE: get_mem5Dmv:dim3 <- [DW_OP_plus_uconst 12, DW_OP_deref] $rsp
	#DEBUG_VALUE: get_mem5Dmv:mem_size <- [DW_OP_LLVM_arg 0, DW_OP_plus_uconst 16, DW_OP_deref, DW_OP_LLVM_convert 64 7, DW_OP_LLVM_convert 32 7, DW_OP_LLVM_arg 1, DW_OP_plus, DW_OP_stack_value] $rsp, $eax
	#DEBUG_VALUE: get_mem5Dmv:i <- 1
	andq	$-4, %rdi
	xorl	%esi, %esi
	leaq	(,%rcx,8), %r8
.Ltmp715:
	.p2align	4, 0x90
.LBB25_7:                               # %for.body.i
                                        # =>This Inner Loop Header: Depth=1
	#DEBUG_VALUE: get_mem6Dmv:array6D <- $r14
	#DEBUG_VALUE: get_mem6Dmv:dim0 <- $ebp
	#DEBUG_VALUE: get_mem6Dmv:dim1 <- [DW_OP_plus_uconst 4] [$rsp+0]
	#DEBUG_VALUE: get_mem6Dmv:dim2 <- $r12d
	#DEBUG_VALUE: get_mem6Dmv:dim3 <- [DW_OP_plus_uconst 8] [$rsp+0]
	#DEBUG_VALUE: get_mem6Dmv:dim4 <- [DW_OP_plus_uconst 12] [$rsp+0]
	#DEBUG_VALUE: get_mem6Dmv:dim5 <- [DW_OP_plus_uconst 80] [$rsp+0]
	#DEBUG_VALUE: get_mem6Dmv:mem_size <- [DW_OP_LLVM_convert 64 7, DW_OP_LLVM_convert 32 7, DW_OP_stack_value] $rbx
	#DEBUG_VALUE: get_mem5Dmv:dim0 <- $r15d
	#DEBUG_VALUE: get_mem5Dmv:array5D <- $r13
	#DEBUG_VALUE: get_mem5Dmv:dim1 <- $r12d
	#DEBUG_VALUE: get_mem5Dmv:dim2 <- [DW_OP_plus_uconst 8, DW_OP_deref] $rsp
	#DEBUG_VALUE: get_mem5Dmv:dim3 <- [DW_OP_plus_uconst 12, DW_OP_deref] $rsp
	#DEBUG_VALUE: get_mem5Dmv:mem_size <- [DW_OP_LLVM_arg 0, DW_OP_plus_uconst 16, DW_OP_deref, DW_OP_LLVM_convert 64 7, DW_OP_LLVM_convert 32 7, DW_OP_LLVM_arg 1, DW_OP_plus, DW_OP_stack_value] $rsp, $eax
	#DEBUG_VALUE: get_mem5Dmv:i <- 1
	.loc	0 568 22 is_stmt 1              # ldecod_src/memalloc.c:568:22
	movq	(%r13), %r9
	movq	(%r9,%rsi,8), %r10
	.loc	0 568 39 is_stmt 0              # ldecod_src/memalloc.c:568:39
	addq	%r8, %r10
	.loc	0 568 19                        # ldecod_src/memalloc.c:568:19
	movq	%r10, 8(%r9,%rsi,8)
	.loc	0 568 22                        # ldecod_src/memalloc.c:568:22
	movq	(%r13), %r9
	movq	8(%r9,%rsi,8), %r10
	.loc	0 568 39                        # ldecod_src/memalloc.c:568:39
	addq	%r8, %r10
	.loc	0 568 19                        # ldecod_src/memalloc.c:568:19
	movq	%r10, 16(%r9,%rsi,8)
	.loc	0 568 22                        # ldecod_src/memalloc.c:568:22
	movq	(%r13), %r9
	movq	16(%r9,%rsi,8), %r10
	.loc	0 568 39                        # ldecod_src/memalloc.c:568:39
	addq	%r8, %r10
	.loc	0 568 19                        # ldecod_src/memalloc.c:568:19
	movq	%r10, 24(%r9,%rsi,8)
	.loc	0 568 22                        # ldecod_src/memalloc.c:568:22
	movq	(%r13), %r9
	movq	24(%r9,%rsi,8), %r10
	.loc	0 568 39                        # ldecod_src/memalloc.c:568:39
	addq	%r8, %r10
	.loc	0 568 19                        # ldecod_src/memalloc.c:568:19
	movq	%r10, 32(%r9,%rsi,8)
.Ltmp716:
	.loc	0 567 3 is_stmt 1               # ldecod_src/memalloc.c:567:3
	addq	$4, %rsi
	cmpq	%rsi, %rdi
	jne	.LBB25_7
.Ltmp717:
# %bb.8:                                # %get_mem5Dmv.exit.loopexit.unr-lcssa.loopexit
	#DEBUG_VALUE: get_mem6Dmv:array6D <- $r14
	#DEBUG_VALUE: get_mem6Dmv:dim0 <- $ebp
	#DEBUG_VALUE: get_mem6Dmv:dim1 <- [DW_OP_plus_uconst 4] [$rsp+0]
	#DEBUG_VALUE: get_mem6Dmv:dim2 <- $r12d
	#DEBUG_VALUE: get_mem6Dmv:dim3 <- [DW_OP_plus_uconst 8] [$rsp+0]
	#DEBUG_VALUE: get_mem6Dmv:dim4 <- [DW_OP_plus_uconst 12] [$rsp+0]
	#DEBUG_VALUE: get_mem6Dmv:dim5 <- [DW_OP_plus_uconst 80] [$rsp+0]
	#DEBUG_VALUE: get_mem6Dmv:mem_size <- [DW_OP_LLVM_convert 64 7, DW_OP_LLVM_convert 32 7, DW_OP_stack_value] $rbx
	#DEBUG_VALUE: get_mem5Dmv:dim0 <- $r15d
	#DEBUG_VALUE: get_mem5Dmv:array5D <- $r13
	#DEBUG_VALUE: get_mem5Dmv:dim1 <- $r12d
	#DEBUG_VALUE: get_mem5Dmv:dim2 <- [DW_OP_plus_uconst 8, DW_OP_deref] $rsp
	#DEBUG_VALUE: get_mem5Dmv:dim3 <- [DW_OP_plus_uconst 12, DW_OP_deref] $rsp
	#DEBUG_VALUE: get_mem5Dmv:mem_size <- [DW_OP_LLVM_arg 0, DW_OP_plus_uconst 16, DW_OP_deref, DW_OP_LLVM_convert 64 7, DW_OP_LLVM_convert 32 7, DW_OP_LLVM_arg 1, DW_OP_plus, DW_OP_stack_value] $rsp, $eax
	#DEBUG_VALUE: get_mem5Dmv:i <- 1
	incq	%rsi
.Ltmp718:
.LBB25_9:                               # %get_mem5Dmv.exit.loopexit.unr-lcssa
	#DEBUG_VALUE: get_mem6Dmv:array6D <- $r14
	#DEBUG_VALUE: get_mem6Dmv:dim0 <- $ebp
	#DEBUG_VALUE: get_mem6Dmv:dim1 <- [DW_OP_plus_uconst 4] [$rsp+0]
	#DEBUG_VALUE: get_mem6Dmv:dim2 <- $r12d
	#DEBUG_VALUE: get_mem6Dmv:dim3 <- [DW_OP_plus_uconst 8] [$rsp+0]
	#DEBUG_VALUE: get_mem6Dmv:dim4 <- [DW_OP_plus_uconst 12] [$rsp+0]
	#DEBUG_VALUE: get_mem6Dmv:dim5 <- [DW_OP_plus_uconst 80] [$rsp+0]
	#DEBUG_VALUE: get_mem6Dmv:mem_size <- [DW_OP_LLVM_convert 64 7, DW_OP_LLVM_convert 32 7, DW_OP_stack_value] $rbx
	#DEBUG_VALUE: get_mem5Dmv:dim0 <- $r15d
	#DEBUG_VALUE: get_mem5Dmv:array5D <- $r13
	#DEBUG_VALUE: get_mem5Dmv:dim1 <- $r12d
	#DEBUG_VALUE: get_mem5Dmv:dim2 <- [DW_OP_plus_uconst 8, DW_OP_deref] $rsp
	#DEBUG_VALUE: get_mem5Dmv:dim3 <- [DW_OP_plus_uconst 12, DW_OP_deref] $rsp
	#DEBUG_VALUE: get_mem5Dmv:mem_size <- [DW_OP_LLVM_arg 0, DW_OP_plus_uconst 16, DW_OP_deref, DW_OP_LLVM_convert 64 7, DW_OP_LLVM_convert 32 7, DW_OP_LLVM_arg 1, DW_OP_plus, DW_OP_stack_value] $rsp, $eax
	#DEBUG_VALUE: get_mem5Dmv:i <- 1
	testq	%rdx, %rdx
	je	.LBB25_12
.Ltmp719:
# %bb.10:                               # %for.body.i.epil.preheader
	#DEBUG_VALUE: get_mem6Dmv:array6D <- $r14
	#DEBUG_VALUE: get_mem6Dmv:dim0 <- $ebp
	#DEBUG_VALUE: get_mem6Dmv:dim1 <- [DW_OP_plus_uconst 4] [$rsp+0]
	#DEBUG_VALUE: get_mem6Dmv:dim2 <- $r12d
	#DEBUG_VALUE: get_mem6Dmv:dim3 <- [DW_OP_plus_uconst 8] [$rsp+0]
	#DEBUG_VALUE: get_mem6Dmv:dim4 <- [DW_OP_plus_uconst 12] [$rsp+0]
	#DEBUG_VALUE: get_mem6Dmv:dim5 <- [DW_OP_plus_uconst 80] [$rsp+0]
	#DEBUG_VALUE: get_mem6Dmv:mem_size <- [DW_OP_LLVM_convert 64 7, DW_OP_LLVM_convert 32 7, DW_OP_stack_value] $rbx
	#DEBUG_VALUE: get_mem5Dmv:dim0 <- $r15d
	#DEBUG_VALUE: get_mem5Dmv:array5D <- $r13
	#DEBUG_VALUE: get_mem5Dmv:dim1 <- $r12d
	#DEBUG_VALUE: get_mem5Dmv:dim2 <- [DW_OP_plus_uconst 8, DW_OP_deref] $rsp
	#DEBUG_VALUE: get_mem5Dmv:dim3 <- [DW_OP_plus_uconst 12, DW_OP_deref] $rsp
	#DEBUG_VALUE: get_mem5Dmv:mem_size <- [DW_OP_LLVM_arg 0, DW_OP_plus_uconst 16, DW_OP_deref, DW_OP_LLVM_convert 64 7, DW_OP_LLVM_convert 32 7, DW_OP_LLVM_arg 1, DW_OP_plus, DW_OP_stack_value] $rsp, $eax
	#DEBUG_VALUE: get_mem5Dmv:i <- 1
	.loc	0 0 3 is_stmt 0                 # ldecod_src/memalloc.c:0:3
	shlq	$3, %rcx
.Ltmp720:
	.p2align	4, 0x90
.LBB25_11:                              # %for.body.i.epil
                                        # =>This Inner Loop Header: Depth=1
	#DEBUG_VALUE: get_mem6Dmv:array6D <- $r14
	#DEBUG_VALUE: get_mem6Dmv:dim0 <- $ebp
	#DEBUG_VALUE: get_mem6Dmv:dim1 <- [DW_OP_plus_uconst 4] [$rsp+0]
	#DEBUG_VALUE: get_mem6Dmv:dim2 <- $r12d
	#DEBUG_VALUE: get_mem6Dmv:dim3 <- [DW_OP_plus_uconst 8] [$rsp+0]
	#DEBUG_VALUE: get_mem6Dmv:dim4 <- [DW_OP_plus_uconst 12] [$rsp+0]
	#DEBUG_VALUE: get_mem6Dmv:dim5 <- [DW_OP_plus_uconst 80] [$rsp+0]
	#DEBUG_VALUE: get_mem6Dmv:mem_size <- [DW_OP_LLVM_convert 64 7, DW_OP_LLVM_convert 32 7, DW_OP_stack_value] $rbx
	#DEBUG_VALUE: get_mem5Dmv:dim0 <- $r15d
	#DEBUG_VALUE: get_mem5Dmv:array5D <- $r13
	#DEBUG_VALUE: get_mem5Dmv:dim1 <- $r12d
	#DEBUG_VALUE: get_mem5Dmv:dim2 <- [DW_OP_plus_uconst 8, DW_OP_deref] $rsp
	#DEBUG_VALUE: get_mem5Dmv:dim3 <- [DW_OP_plus_uconst 12, DW_OP_deref] $rsp
	#DEBUG_VALUE: get_mem5Dmv:mem_size <- [DW_OP_LLVM_arg 0, DW_OP_plus_uconst 16, DW_OP_deref, DW_OP_LLVM_convert 64 7, DW_OP_LLVM_convert 32 7, DW_OP_LLVM_arg 1, DW_OP_plus, DW_OP_stack_value] $rsp, $eax
	#DEBUG_VALUE: get_mem5Dmv:i <- $rsi
	.loc	0 568 22 is_stmt 1              # ldecod_src/memalloc.c:568:22
	movq	(%r13), %rdi
	movq	-8(%rdi,%rsi,8), %r8
	.loc	0 568 39 is_stmt 0              # ldecod_src/memalloc.c:568:39
	addq	%rcx, %r8
	.loc	0 568 19                        # ldecod_src/memalloc.c:568:19
	movq	%r8, (%rdi,%rsi,8)
	.loc	0 567 25 is_stmt 1              # ldecod_src/memalloc.c:567:25
	incq	%rsi
.Ltmp721:
	#DEBUG_VALUE: get_mem5Dmv:i <- $rsi
	.loc	0 567 3 is_stmt 0               # ldecod_src/memalloc.c:567:3
	decq	%rdx
	jne	.LBB25_11
.Ltmp722:
.LBB25_12:                              # %get_mem5Dmv.exit
	#DEBUG_VALUE: get_mem6Dmv:array6D <- $r14
	#DEBUG_VALUE: get_mem6Dmv:dim0 <- $ebp
	#DEBUG_VALUE: get_mem6Dmv:dim1 <- [DW_OP_plus_uconst 4] [$rsp+0]
	#DEBUG_VALUE: get_mem6Dmv:dim2 <- $r12d
	#DEBUG_VALUE: get_mem6Dmv:dim3 <- [DW_OP_plus_uconst 8] [$rsp+0]
	#DEBUG_VALUE: get_mem6Dmv:dim4 <- [DW_OP_plus_uconst 12] [$rsp+0]
	#DEBUG_VALUE: get_mem6Dmv:dim5 <- [DW_OP_plus_uconst 80] [$rsp+0]
	#DEBUG_VALUE: get_mem6Dmv:mem_size <- [DW_OP_LLVM_convert 64 7, DW_OP_LLVM_convert 32 7, DW_OP_stack_value] $rbx
	#DEBUG_VALUE: get_mem5Dmv:dim0 <- $r15d
	#DEBUG_VALUE: get_mem5Dmv:array5D <- $r13
	#DEBUG_VALUE: get_mem5Dmv:dim1 <- $r12d
	#DEBUG_VALUE: get_mem5Dmv:dim2 <- [DW_OP_plus_uconst 8, DW_OP_deref] $rsp
	#DEBUG_VALUE: get_mem5Dmv:dim3 <- [DW_OP_plus_uconst 12, DW_OP_deref] $rsp
	#DEBUG_VALUE: get_mem5Dmv:mem_size <- [DW_OP_LLVM_arg 0, DW_OP_plus_uconst 16, DW_OP_deref, DW_OP_LLVM_convert 64 7, DW_OP_LLVM_convert 32 7, DW_OP_LLVM_arg 1, DW_OP_plus, DW_OP_stack_value] $rsp, $eax
	#DEBUG_VALUE: get_mem5Dmv:mem_size <- [DW_OP_LLVM_arg 0, DW_OP_LLVM_arg 1, DW_OP_plus_uconst 16, DW_OP_deref, DW_OP_LLVM_convert 64 7, DW_OP_LLVM_convert 32 7, DW_OP_plus, DW_OP_stack_value] $eax, $rsp
	#DEBUG_VALUE: get_mem6Dmv:mem_size <- [DW_OP_LLVM_arg 0, DW_OP_LLVM_convert 64 7, DW_OP_LLVM_convert 32 7, DW_OP_LLVM_arg 1, DW_OP_LLVM_arg 2, DW_OP_plus_uconst 16, DW_OP_deref, DW_OP_LLVM_convert 64 7, DW_OP_LLVM_convert 32 7, DW_OP_plus, DW_OP_plus, DW_OP_stack_value] $rbx, $eax, $rsp
	#DEBUG_VALUE: get_mem6Dmv:i <- 1
	.loc	0 591 16 is_stmt 1              # ldecod_src/memalloc.c:591:16
	cmpl	$2, %ebp
.Ltmp723:
	.loc	0 591 3 is_stmt 0               # ldecod_src/memalloc.c:591:3
	jl	.LBB25_20
.Ltmp724:
# %bb.13:                               # %for.body.lr.ph
	#DEBUG_VALUE: get_mem6Dmv:array6D <- $r14
	#DEBUG_VALUE: get_mem6Dmv:dim0 <- $ebp
	#DEBUG_VALUE: get_mem6Dmv:dim1 <- [DW_OP_plus_uconst 4] [$rsp+0]
	#DEBUG_VALUE: get_mem6Dmv:dim2 <- $r12d
	#DEBUG_VALUE: get_mem6Dmv:dim3 <- [DW_OP_plus_uconst 8] [$rsp+0]
	#DEBUG_VALUE: get_mem6Dmv:dim4 <- [DW_OP_plus_uconst 12] [$rsp+0]
	#DEBUG_VALUE: get_mem6Dmv:dim5 <- [DW_OP_plus_uconst 80] [$rsp+0]
	#DEBUG_VALUE: get_mem6Dmv:mem_size <- [DW_OP_LLVM_arg 0, DW_OP_LLVM_convert 64 7, DW_OP_LLVM_convert 32 7, DW_OP_LLVM_arg 1, DW_OP_LLVM_arg 2, DW_OP_plus_uconst 16, DW_OP_deref, DW_OP_LLVM_convert 64 7, DW_OP_LLVM_convert 32 7, DW_OP_plus, DW_OP_plus, DW_OP_stack_value] $rbx, $eax, $rsp
	#DEBUG_VALUE: get_mem6Dmv:i <- 1
	.loc	0 0 3                           # ldecod_src/memalloc.c:0:3
	movslq	4(%rsp), %rcx                   # 4-byte Folded Reload
.Ltmp725:
	.loc	0 591 16                        # ldecod_src/memalloc.c:591:16
	movl	%ebp, %r8d
.Ltmp726:
	.loc	0 591 3                         # ldecod_src/memalloc.c:591:3
	leaq	-1(%r8), %rdi
	addq	$-2, %r8
	movl	%edi, %edx
	andl	$3, %edx
	movl	$1, %esi
	cmpq	$3, %r8
	jb	.LBB25_17
.Ltmp727:
# %bb.14:                               # %for.body.lr.ph.new
	#DEBUG_VALUE: get_mem6Dmv:array6D <- $r14
	#DEBUG_VALUE: get_mem6Dmv:dim0 <- $ebp
	#DEBUG_VALUE: get_mem6Dmv:dim1 <- [DW_OP_plus_uconst 4] [$rsp+0]
	#DEBUG_VALUE: get_mem6Dmv:dim2 <- $r12d
	#DEBUG_VALUE: get_mem6Dmv:dim3 <- [DW_OP_plus_uconst 8] [$rsp+0]
	#DEBUG_VALUE: get_mem6Dmv:dim4 <- [DW_OP_plus_uconst 12] [$rsp+0]
	#DEBUG_VALUE: get_mem6Dmv:dim5 <- [DW_OP_plus_uconst 80] [$rsp+0]
	#DEBUG_VALUE: get_mem6Dmv:mem_size <- [DW_OP_LLVM_arg 0, DW_OP_LLVM_convert 64 7, DW_OP_LLVM_convert 32 7, DW_OP_LLVM_arg 1, DW_OP_LLVM_arg 2, DW_OP_plus_uconst 16, DW_OP_deref, DW_OP_LLVM_convert 64 7, DW_OP_LLVM_convert 32 7, DW_OP_plus, DW_OP_plus, DW_OP_stack_value] $rbx, $eax, $rsp
	#DEBUG_VALUE: get_mem6Dmv:i <- 1
	andq	$-4, %rdi
	xorl	%esi, %esi
	leaq	(,%rcx,8), %r8
.Ltmp728:
	.p2align	4, 0x90
.LBB25_15:                              # %for.body
                                        # =>This Inner Loop Header: Depth=1
	#DEBUG_VALUE: get_mem6Dmv:array6D <- $r14
	#DEBUG_VALUE: get_mem6Dmv:dim0 <- $ebp
	#DEBUG_VALUE: get_mem6Dmv:dim1 <- [DW_OP_plus_uconst 4] [$rsp+0]
	#DEBUG_VALUE: get_mem6Dmv:dim2 <- $r12d
	#DEBUG_VALUE: get_mem6Dmv:dim3 <- [DW_OP_plus_uconst 8] [$rsp+0]
	#DEBUG_VALUE: get_mem6Dmv:dim4 <- [DW_OP_plus_uconst 12] [$rsp+0]
	#DEBUG_VALUE: get_mem6Dmv:dim5 <- [DW_OP_plus_uconst 80] [$rsp+0]
	#DEBUG_VALUE: get_mem6Dmv:mem_size <- [DW_OP_LLVM_arg 0, DW_OP_LLVM_convert 64 7, DW_OP_LLVM_convert 32 7, DW_OP_LLVM_arg 1, DW_OP_LLVM_arg 2, DW_OP_plus_uconst 16, DW_OP_deref, DW_OP_LLVM_convert 64 7, DW_OP_LLVM_convert 32 7, DW_OP_plus, DW_OP_plus, DW_OP_stack_value] $rbx, $eax, $rsp
	#DEBUG_VALUE: get_mem6Dmv:i <- 1
	.loc	0 592 22 is_stmt 1              # ldecod_src/memalloc.c:592:22
	movq	(%r14), %r9
	movq	(%r9,%rsi,8), %r10
	.loc	0 592 39 is_stmt 0              # ldecod_src/memalloc.c:592:39
	addq	%r8, %r10
	.loc	0 592 19                        # ldecod_src/memalloc.c:592:19
	movq	%r10, 8(%r9,%rsi,8)
	.loc	0 592 22                        # ldecod_src/memalloc.c:592:22
	movq	(%r14), %r9
	movq	8(%r9,%rsi,8), %r10
	.loc	0 592 39                        # ldecod_src/memalloc.c:592:39
	addq	%r8, %r10
	.loc	0 592 19                        # ldecod_src/memalloc.c:592:19
	movq	%r10, 16(%r9,%rsi,8)
	.loc	0 592 22                        # ldecod_src/memalloc.c:592:22
	movq	(%r14), %r9
	movq	16(%r9,%rsi,8), %r10
	.loc	0 592 39                        # ldecod_src/memalloc.c:592:39
	addq	%r8, %r10
	.loc	0 592 19                        # ldecod_src/memalloc.c:592:19
	movq	%r10, 24(%r9,%rsi,8)
	.loc	0 592 22                        # ldecod_src/memalloc.c:592:22
	movq	(%r14), %r9
	movq	24(%r9,%rsi,8), %r10
	.loc	0 592 39                        # ldecod_src/memalloc.c:592:39
	addq	%r8, %r10
	.loc	0 592 19                        # ldecod_src/memalloc.c:592:19
	movq	%r10, 32(%r9,%rsi,8)
.Ltmp729:
	.loc	0 591 3 is_stmt 1               # ldecod_src/memalloc.c:591:3
	addq	$4, %rsi
	cmpq	%rsi, %rdi
	jne	.LBB25_15
.Ltmp730:
# %bb.16:                               # %for.end.loopexit.unr-lcssa.loopexit
	#DEBUG_VALUE: get_mem6Dmv:array6D <- $r14
	#DEBUG_VALUE: get_mem6Dmv:dim0 <- $ebp
	#DEBUG_VALUE: get_mem6Dmv:dim1 <- [DW_OP_plus_uconst 4] [$rsp+0]
	#DEBUG_VALUE: get_mem6Dmv:dim2 <- $r12d
	#DEBUG_VALUE: get_mem6Dmv:dim3 <- [DW_OP_plus_uconst 8] [$rsp+0]
	#DEBUG_VALUE: get_mem6Dmv:dim4 <- [DW_OP_plus_uconst 12] [$rsp+0]
	#DEBUG_VALUE: get_mem6Dmv:dim5 <- [DW_OP_plus_uconst 80] [$rsp+0]
	#DEBUG_VALUE: get_mem6Dmv:mem_size <- [DW_OP_LLVM_arg 0, DW_OP_LLVM_convert 64 7, DW_OP_LLVM_convert 32 7, DW_OP_LLVM_arg 1, DW_OP_LLVM_arg 2, DW_OP_plus_uconst 16, DW_OP_deref, DW_OP_LLVM_convert 64 7, DW_OP_LLVM_convert 32 7, DW_OP_plus, DW_OP_plus, DW_OP_stack_value] $rbx, $eax, $rsp
	#DEBUG_VALUE: get_mem6Dmv:i <- 1
	incq	%rsi
.Ltmp731:
.LBB25_17:                              # %for.end.loopexit.unr-lcssa
	#DEBUG_VALUE: get_mem6Dmv:array6D <- $r14
	#DEBUG_VALUE: get_mem6Dmv:dim0 <- $ebp
	#DEBUG_VALUE: get_mem6Dmv:dim1 <- [DW_OP_plus_uconst 4] [$rsp+0]
	#DEBUG_VALUE: get_mem6Dmv:dim2 <- $r12d
	#DEBUG_VALUE: get_mem6Dmv:dim3 <- [DW_OP_plus_uconst 8] [$rsp+0]
	#DEBUG_VALUE: get_mem6Dmv:dim4 <- [DW_OP_plus_uconst 12] [$rsp+0]
	#DEBUG_VALUE: get_mem6Dmv:dim5 <- [DW_OP_plus_uconst 80] [$rsp+0]
	#DEBUG_VALUE: get_mem6Dmv:mem_size <- [DW_OP_LLVM_arg 0, DW_OP_LLVM_convert 64 7, DW_OP_LLVM_convert 32 7, DW_OP_LLVM_arg 1, DW_OP_LLVM_arg 2, DW_OP_plus_uconst 16, DW_OP_deref, DW_OP_LLVM_convert 64 7, DW_OP_LLVM_convert 32 7, DW_OP_plus, DW_OP_plus, DW_OP_stack_value] $rbx, $eax, $rsp
	#DEBUG_VALUE: get_mem6Dmv:i <- 1
	testq	%rdx, %rdx
	je	.LBB25_20
.Ltmp732:
# %bb.18:                               # %for.body.epil.preheader
	#DEBUG_VALUE: get_mem6Dmv:array6D <- $r14
	#DEBUG_VALUE: get_mem6Dmv:dim0 <- $ebp
	#DEBUG_VALUE: get_mem6Dmv:dim1 <- [DW_OP_plus_uconst 4] [$rsp+0]
	#DEBUG_VALUE: get_mem6Dmv:dim2 <- $r12d
	#DEBUG_VALUE: get_mem6Dmv:dim3 <- [DW_OP_plus_uconst 8] [$rsp+0]
	#DEBUG_VALUE: get_mem6Dmv:dim4 <- [DW_OP_plus_uconst 12] [$rsp+0]
	#DEBUG_VALUE: get_mem6Dmv:dim5 <- [DW_OP_plus_uconst 80] [$rsp+0]
	#DEBUG_VALUE: get_mem6Dmv:mem_size <- [DW_OP_LLVM_arg 0, DW_OP_LLVM_convert 64 7, DW_OP_LLVM_convert 32 7, DW_OP_LLVM_arg 1, DW_OP_LLVM_arg 2, DW_OP_plus_uconst 16, DW_OP_deref, DW_OP_LLVM_convert 64 7, DW_OP_LLVM_convert 32 7, DW_OP_plus, DW_OP_plus, DW_OP_stack_value] $rbx, $eax, $rsp
	#DEBUG_VALUE: get_mem6Dmv:i <- 1
	.loc	0 0 3 is_stmt 0                 # ldecod_src/memalloc.c:0:3
	shlq	$3, %rcx
.Ltmp733:
	.p2align	4, 0x90
.LBB25_19:                              # %for.body.epil
                                        # =>This Inner Loop Header: Depth=1
	#DEBUG_VALUE: get_mem6Dmv:array6D <- $r14
	#DEBUG_VALUE: get_mem6Dmv:dim0 <- $ebp
	#DEBUG_VALUE: get_mem6Dmv:dim1 <- [DW_OP_plus_uconst 4] [$rsp+0]
	#DEBUG_VALUE: get_mem6Dmv:dim2 <- $r12d
	#DEBUG_VALUE: get_mem6Dmv:dim3 <- [DW_OP_plus_uconst 8] [$rsp+0]
	#DEBUG_VALUE: get_mem6Dmv:dim4 <- [DW_OP_plus_uconst 12] [$rsp+0]
	#DEBUG_VALUE: get_mem6Dmv:dim5 <- [DW_OP_plus_uconst 80] [$rsp+0]
	#DEBUG_VALUE: get_mem6Dmv:mem_size <- [DW_OP_LLVM_arg 0, DW_OP_LLVM_convert 64 7, DW_OP_LLVM_convert 32 7, DW_OP_LLVM_arg 1, DW_OP_LLVM_arg 2, DW_OP_plus_uconst 16, DW_OP_deref, DW_OP_LLVM_convert 64 7, DW_OP_LLVM_convert 32 7, DW_OP_plus, DW_OP_plus, DW_OP_stack_value] $rbx, $eax, $rsp
	#DEBUG_VALUE: get_mem5Dmv:dim0 <- $r15d
	#DEBUG_VALUE: get_mem5Dmv:array5D <- $r13
	#DEBUG_VALUE: get_mem5Dmv:dim1 <- $r12d
	#DEBUG_VALUE: get_mem5Dmv:dim2 <- [DW_OP_plus_uconst 8, DW_OP_deref] $rsp
	#DEBUG_VALUE: get_mem5Dmv:dim3 <- [DW_OP_plus_uconst 12, DW_OP_deref] $rsp
	#DEBUG_VALUE: get_mem5Dmv:i <- [DW_OP_LLVM_arg 0, DW_OP_consts 18446744073709551615, DW_OP_LLVM_arg 1, DW_OP_LLVM_convert 2 7, DW_OP_plus, DW_OP_LLVM_convert 64 7, DW_OP_minus, DW_OP_consts 18446744073709551615, DW_OP_div, DW_OP_consts 4, DW_OP_mul, DW_OP_consts 1, DW_OP_plus, DW_OP_stack_value] $rdx, $ebp
	#DEBUG_VALUE: get_mem6Dmv:i <- $rsi
	.loc	0 592 22 is_stmt 1              # ldecod_src/memalloc.c:592:22
	movq	(%r14), %rdi
	movq	-8(%rdi,%rsi,8), %r8
	.loc	0 592 39 is_stmt 0              # ldecod_src/memalloc.c:592:39
	addq	%rcx, %r8
	.loc	0 592 19                        # ldecod_src/memalloc.c:592:19
	movq	%r8, (%rdi,%rsi,8)
	.loc	0 591 25 is_stmt 1              # ldecod_src/memalloc.c:591:25
	incq	%rsi
.Ltmp734:
	#DEBUG_VALUE: get_mem6Dmv:i <- $rsi
	.loc	0 591 3 is_stmt 0               # ldecod_src/memalloc.c:591:3
	decq	%rdx
	jne	.LBB25_19
.Ltmp735:
.LBB25_20:                              # %for.end
	#DEBUG_VALUE: get_mem6Dmv:array6D <- $r14
	#DEBUG_VALUE: get_mem6Dmv:dim0 <- $ebp
	#DEBUG_VALUE: get_mem6Dmv:dim1 <- [DW_OP_plus_uconst 4] [$rsp+0]
	#DEBUG_VALUE: get_mem6Dmv:dim2 <- $r12d
	#DEBUG_VALUE: get_mem6Dmv:dim3 <- [DW_OP_plus_uconst 8] [$rsp+0]
	#DEBUG_VALUE: get_mem6Dmv:dim4 <- [DW_OP_plus_uconst 12] [$rsp+0]
	#DEBUG_VALUE: get_mem6Dmv:dim5 <- [DW_OP_plus_uconst 80] [$rsp+0]
	#DEBUG_VALUE: get_mem6Dmv:mem_size <- [DW_OP_LLVM_arg 0, DW_OP_LLVM_convert 64 7, DW_OP_LLVM_convert 32 7, DW_OP_LLVM_arg 1, DW_OP_LLVM_arg 2, DW_OP_plus_uconst 16, DW_OP_deref, DW_OP_LLVM_convert 64 7, DW_OP_LLVM_convert 32 7, DW_OP_plus, DW_OP_plus, DW_OP_stack_value] $rbx, $eax, $rsp
	#DEBUG_VALUE: get_mem5Dmv:dim0 <- $r15d
	#DEBUG_VALUE: get_mem5Dmv:array5D <- $r13
	#DEBUG_VALUE: get_mem5Dmv:dim1 <- $r12d
	#DEBUG_VALUE: get_mem5Dmv:dim2 <- [DW_OP_plus_uconst 8, DW_OP_deref] $rsp
