	.text
	.file	"parsetcommon.c"
	.file	0 "/home/yjs/workspace/x264-test/src" "ldecod_src/parsetcommon.c" md5 0x29e50fd146ea68377794b0403b2e61e9
	.globl	AllocPPS                        # -- Begin function AllocPPS
	.p2align	4, 0x90
	.type	AllocPPS,@function
AllocPPS:                               # @AllocPPS
.Lfunc_begin0:
	.loc	0 30 0                          # ldecod_src/parsetcommon.c:30:0
	.cfi_startproc
# %bb.0:                                # %entry
	pushq	%rbx
	.cfi_def_cfa_offset 16
	.cfi_offset %rbx, -16
	.loc	0 33 11 prologue_end            # ldecod_src/parsetcommon.c:33:11
	movl	$1, %edi
	movl	$2216, %esi                     # imm = 0x8A8
	callq	calloc@PLT
.Ltmp0:
	#DEBUG_VALUE: AllocPPS:p <- $rax
	.loc	0 33 58 is_stmt 0               # ldecod_src/parsetcommon.c:33:58
	testq	%rax, %rax
.Ltmp1:
	.loc	0 33 8                          # ldecod_src/parsetcommon.c:33:8
	je	.LBB0_1
.Ltmp2:
# %bb.2:                                # %if.end
	#DEBUG_VALUE: AllocPPS:p <- $rax
	.loc	0 36 4 epilogue_begin is_stmt 1 # ldecod_src/parsetcommon.c:36:4
	popq	%rbx
	.cfi_def_cfa_offset 8
	retq
.Ltmp3:
.LBB0_1:                                # %if.then
	.cfi_def_cfa_offset 16
	#DEBUG_VALUE: AllocPPS:p <- $rax
	.loc	0 34 6                          # ldecod_src/parsetcommon.c:34:6
	movl	$.L.str, %edi
	movq	%rax, %rbx
.Ltmp4:
	#DEBUG_VALUE: AllocPPS:p <- $rbx
	callq	no_mem_exit@PLT
.Ltmp5:
	.loc	0 0 6 is_stmt 0                 # ldecod_src/parsetcommon.c:0:6
	movq	%rbx, %rax
.Ltmp6:
	.loc	0 36 4 epilogue_begin is_stmt 1 # ldecod_src/parsetcommon.c:36:4
	popq	%rbx
.Ltmp7:
	#DEBUG_VALUE: AllocPPS:p <- $rax
	.cfi_def_cfa_offset 8
	retq
.Ltmp8:
.Lfunc_end0:
	.size	AllocPPS, .Lfunc_end0-AllocPPS
	.cfi_endproc
	.file	1 "/usr/include" "stdlib.h" md5 0x02258fad21adf111bb9df9825e61954a
	.file	2 "/home/yjs/workspace" "GPUISel-llvm/build/lib/clang/19/include/__stddef_size_t.h" md5 0x2c44e821a2b1951cde2eb0fb2e656867
	.file	3 "ldecod_src/inc" "memalloc.h" md5 0x88776e97a131c37d03036121c7c9e0ac
                                        # -- End function
	.globl	AllocSPS                        # -- Begin function AllocSPS
	.p2align	4, 0x90
	.type	AllocSPS,@function
AllocSPS:                               # @AllocSPS
.Lfunc_begin1:
	.loc	0 51 0                          # ldecod_src/parsetcommon.c:51:0
	.cfi_startproc
# %bb.0:                                # %entry
	pushq	%rbx
	.cfi_def_cfa_offset 16
	.cfi_offset %rbx, -16
	.loc	0 54 11 prologue_end            # ldecod_src/parsetcommon.c:54:11
	movl	$1, %edi
	movl	$4128, %esi                     # imm = 0x1020
	callq	calloc@PLT
.Ltmp9:
	#DEBUG_VALUE: AllocSPS:p <- $rax
	.loc	0 54 58 is_stmt 0               # ldecod_src/parsetcommon.c:54:58
	testq	%rax, %rax
.Ltmp10:
	.loc	0 54 8                          # ldecod_src/parsetcommon.c:54:8
	je	.LBB1_1
.Ltmp11:
# %bb.2:                                # %if.end
	#DEBUG_VALUE: AllocSPS:p <- $rax
	.loc	0 56 4 epilogue_begin is_stmt 1 # ldecod_src/parsetcommon.c:56:4
	popq	%rbx
	.cfi_def_cfa_offset 8
	retq
.Ltmp12:
.LBB1_1:                                # %if.then
	.cfi_def_cfa_offset 16
	#DEBUG_VALUE: AllocSPS:p <- $rax
	.loc	0 55 6                          # ldecod_src/parsetcommon.c:55:6
	movl	$.L.str.1, %edi
	movq	%rax, %rbx
.Ltmp13:
	#DEBUG_VALUE: AllocSPS:p <- $rbx
	callq	no_mem_exit@PLT
.Ltmp14:
	.loc	0 0 6 is_stmt 0                 # ldecod_src/parsetcommon.c:0:6
	movq	%rbx, %rax
.Ltmp15:
	.loc	0 56 4 epilogue_begin is_stmt 1 # ldecod_src/parsetcommon.c:56:4
	popq	%rbx
.Ltmp16:
	#DEBUG_VALUE: AllocSPS:p <- $rax
	.cfi_def_cfa_offset 8
	retq
.Ltmp17:
.Lfunc_end1:
	.size	AllocSPS, .Lfunc_end1-AllocSPS
	.cfi_endproc
                                        # -- End function
	.globl	FreePPS                         # -- Begin function FreePPS
	.p2align	4, 0x90
	.type	FreePPS,@function
FreePPS:                                # @FreePPS
.Lfunc_begin2:
	.cfi_startproc
# %bb.0:                                # %entry
	#DEBUG_VALUE: FreePPS:pps <- $rdi
	.loc	0 73 13 prologue_end            # ldecod_src/parsetcommon.c:73:13
	movq	2160(%rdi), %rax
	.loc	0 73 28 is_stmt 0               # ldecod_src/parsetcommon.c:73:28
	testq	%rax, %rax
.Ltmp18:
	.loc	0 73 8                          # ldecod_src/parsetcommon.c:73:8
	je	free@PLT                        # TAILCALL
.Ltmp19:
# %bb.1:                                # %if.then
	#DEBUG_VALUE: FreePPS:pps <- [DW_OP_LLVM_entry_value 1] $rdi
	pushq	%rbx
	.cfi_def_cfa_offset 16
	.cfi_offset %rbx, -16
	movq	%rdi, %rbx
.Ltmp20:
	.loc	0 74 6 is_stmt 1                # ldecod_src/parsetcommon.c:74:6
	movq	%rax, %rdi
	callq	free@PLT
.Ltmp21:
	.loc	0 0 6 is_stmt 0                 # ldecod_src/parsetcommon.c:0:6
	movq	%rbx, %rdi
	popq	%rbx
.Ltmp22:
	.cfi_def_cfa_offset 8
	.cfi_restore %rbx
	.loc	0 75 4 is_stmt 1                # ldecod_src/parsetcommon.c:75:4
	jmp	free@PLT                        # TAILCALL
.Ltmp23:
.Lfunc_end2:
	.size	FreePPS, .Lfunc_end2-FreePPS
	.cfi_endproc
                                        # -- End function
	.globl	FreeSPS                         # -- Begin function FreeSPS
	.p2align	4, 0x90
	.type	FreeSPS,@function
FreeSPS:                                # @FreeSPS
.Lfunc_begin3:
	.cfi_startproc
# %bb.0:                                # %entry
	#DEBUG_VALUE: FreeSPS:sps <- $rdi
	.loc	0 92 4 prologue_end             # ldecod_src/parsetcommon.c:92:4
	jmp	free@PLT                        # TAILCALL
.Ltmp24:
.Lfunc_end3:
	.size	FreeSPS, .Lfunc_end3-FreeSPS
	.cfi_endproc
                                        # -- End function
	.globl	sps_is_equal                    # -- Begin function sps_is_equal
	.p2align	4, 0x90
	.type	sps_is_equal,@function
sps_is_equal:                           # @sps_is_equal
.Lfunc_begin4:
	.loc	0 97 0                          # ldecod_src/parsetcommon.c:97:0
	.cfi_startproc
# %bb.0:                                # %entry
	#DEBUG_VALUE: sps_is_equal:sps1 <- $rdi
	#DEBUG_VALUE: sps_is_equal:sps2 <- $rsi
	#DEBUG_VALUE: sps_is_equal:equal <- 1
	xorl	%eax, %eax
.Ltmp25:
	.loc	0 101 9 prologue_end            # ldecod_src/parsetcommon.c:101:9
	cmpl	$0, (%rdi)
	.loc	0 101 22 is_stmt 0              # ldecod_src/parsetcommon.c:101:22
	je	.LBB4_26
.Ltmp26:
# %bb.1:                                # %lor.lhs.false
	#DEBUG_VALUE: sps_is_equal:sps1 <- $rdi
	#DEBUG_VALUE: sps_is_equal:sps2 <- $rsi
	#DEBUG_VALUE: sps_is_equal:equal <- 1
	.loc	0 101 27                        # ldecod_src/parsetcommon.c:101:27
	cmpl	$0, (%rsi)
.Ltmp27:
	.loc	0 101 7                         # ldecod_src/parsetcommon.c:101:7
	je	.LBB4_26
.Ltmp28:
# %bb.2:                                # %if.end
	#DEBUG_VALUE: sps_is_equal:sps1 <- $rdi
	#DEBUG_VALUE: sps_is_equal:sps2 <- $rsi
	#DEBUG_VALUE: sps_is_equal:equal <- 1
	#DEBUG_VALUE: sps_is_equal:equal <- undef
	.loc	0 104 19 is_stmt 1              # ldecod_src/parsetcommon.c:104:19
	movdqu	4(%rdi), %xmm0
	.loc	0 104 40 is_stmt 0              # ldecod_src/parsetcommon.c:104:40
	movdqu	4(%rsi), %xmm1
	.loc	0 111 9 is_stmt 1               # ldecod_src/parsetcommon.c:111:9
	pcmpeqd	%xmm0, %xmm1
	.loc	0 108 19                        # ldecod_src/parsetcommon.c:108:19
	movq	28(%rdi), %xmm2                 # xmm2 = mem[0],zero
	.loc	0 110 19                        # ldecod_src/parsetcommon.c:110:19
	movq	2068(%rdi), %xmm0               # xmm0 = mem[0],zero
	.loc	0 104 31                        # ldecod_src/parsetcommon.c:104:31
	punpcklqdq	%xmm0, %xmm2            # xmm2 = xmm2[0],xmm0[0]
	movq	2068(%rsi), %xmm3               # xmm3 = mem[0],zero
	movq	28(%rsi), %xmm4                 # xmm4 = mem[0],zero
	punpcklqdq	%xmm3, %xmm4            # xmm4 = xmm4[0],xmm3[0]
	.loc	0 111 9                         # ldecod_src/parsetcommon.c:111:9
	pcmpeqd	%xmm2, %xmm4
	pand	%xmm1, %xmm4
	movmskps	%xmm4, %ecx
	xorl	$15, %ecx
	.loc	0 113 7                         # ldecod_src/parsetcommon.c:113:7
	je	.LBB4_3
.Ltmp29:
.LBB4_26:                               # %cleanup
	#DEBUG_VALUE: sps_is_equal:sps1 <- $rdi
	#DEBUG_VALUE: sps_is_equal:sps2 <- $rsi
	.loc	0 155 1                         # ldecod_src/parsetcommon.c:155:1
	retq
.Ltmp30:
.LBB4_3:                                # %if.end34
	#DEBUG_VALUE: sps_is_equal:sps1 <- $rdi
	#DEBUG_VALUE: sps_is_equal:sps2 <- $rsi
	.loc	0 115 7                         # ldecod_src/parsetcommon.c:115:7
	pshufd	$85, %xmm0, %xmm0               # xmm0 = xmm0[1,1,1,1]
	movd	%xmm0, %ecx
	movl	$1, %r9d
	cmpl	$1, %ecx
	je	.LBB4_6
.Ltmp31:
# %bb.4:                                # %if.end34
	#DEBUG_VALUE: sps_is_equal:sps1 <- $rdi
	#DEBUG_VALUE: sps_is_equal:sps2 <- $rsi
	testl	%ecx, %ecx
	jne	.LBB4_14
.Ltmp32:
# %bb.5:                                # %if.then38
	#DEBUG_VALUE: sps_is_equal:sps1 <- $rdi
	#DEBUG_VALUE: sps_is_equal:sps2 <- $rsi
	.loc	0 117 21                        # ldecod_src/parsetcommon.c:117:21
	movl	2076(%rdi), %ecx
	.loc	0 117 55 is_stmt 0              # ldecod_src/parsetcommon.c:117:55
	xorl	%r9d, %r9d
	cmpl	2076(%rsi), %ecx
	sete	%r9b
.Ltmp33:
	#DEBUG_VALUE: sps_is_equal:equal <- undef
.LBB4_14:                               # %if.end76
	#DEBUG_VALUE: sps_is_equal:sps1 <- $rdi
	#DEBUG_VALUE: sps_is_equal:sps2 <- $rsi
	#DEBUG_VALUE: sps_is_equal:equal <- $r9d
	.loc	0 132 19 is_stmt 1              # ldecod_src/parsetcommon.c:132:19
	movl	3120(%rdi), %ecx
	.loc	0 132 34 is_stmt 0              # ldecod_src/parsetcommon.c:132:34
	cmpl	3120(%rsi), %ecx
	setne	%cl
.Ltmp34:
	#DEBUG_VALUE: sps_is_equal:equal <- undef
	.loc	0 133 19 is_stmt 1              # ldecod_src/parsetcommon.c:133:19
	movdqu	3124(%rdi), %xmm0
	.loc	0 133 65 is_stmt 0              # ldecod_src/parsetcommon.c:133:65
	movdqu	3124(%rsi), %xmm1
	.loc	0 136 39 is_stmt 1              # ldecod_src/parsetcommon.c:136:39
	pcmpeqd	%xmm0, %xmm1
	pcmpeqd	%xmm2, %xmm2
	pxor	%xmm1, %xmm2
.Ltmp35:
	.loc	0 138 8                         # ldecod_src/parsetcommon.c:138:8
	pslld	$31, %xmm2
	movmskps	%xmm2, %edx
	testl	%edx, %edx
.Ltmp36:
	.loc	0 138 7 is_stmt 0               # ldecod_src/parsetcommon.c:138:7
	jne	.LBB4_26
.Ltmp37:
# %bb.15:                               # %if.end76
	#DEBUG_VALUE: sps_is_equal:sps1 <- $rdi
	#DEBUG_VALUE: sps_is_equal:sps2 <- $rsi
	testb	$1, %cl
	jne	.LBB4_26
.Ltmp38:
# %bb.16:                               # %if.end76
	#DEBUG_VALUE: sps_is_equal:sps1 <- $rdi
	#DEBUG_VALUE: sps_is_equal:sps2 <- $rsi
	testl	%r9d, %r9d
	je	.LBB4_26
.Ltmp39:
# %bb.17:                               # %if.end99
	#DEBUG_VALUE: sps_is_equal:sps1 <- $rdi
	#DEBUG_VALUE: sps_is_equal:sps2 <- $rsi
	.loc	0 139 8 is_stmt 1               # ldecod_src/parsetcommon.c:139:8
	pshufd	$255, %xmm0, %xmm0              # xmm0 = xmm0[3,3,3,3]
	movd	%xmm0, %edx
	xorl	%eax, %eax
	movl	$0, %ecx
	testl	%edx, %edx
.Ltmp40:
	.loc	0 139 7 is_stmt 0               # ldecod_src/parsetcommon.c:139:7
	jne	.LBB4_19
.Ltmp41:
# %bb.18:                               # %if.then102
	#DEBUG_VALUE: sps_is_equal:sps1 <- $rdi
	#DEBUG_VALUE: sps_is_equal:sps2 <- $rsi
	.loc	0 140 21 is_stmt 1              # ldecod_src/parsetcommon.c:140:21
	movl	3140(%rdi), %ecx
	.loc	0 140 50 is_stmt 0              # ldecod_src/parsetcommon.c:140:50
	cmpl	3140(%rsi), %ecx
	setne	%cl
.Ltmp42:
	#DEBUG_VALUE: sps_is_equal:equal <- [DW_OP_LLVM_convert 1 7, DW_OP_LLVM_convert 32 7, DW_OP_stack_value] $cl
.LBB4_19:                               # %if.end107
	#DEBUG_VALUE: sps_is_equal:sps1 <- $rdi
	#DEBUG_VALUE: sps_is_equal:sps2 <- $rsi
	#DEBUG_VALUE: sps_is_equal:equal <- [DW_OP_LLVM_convert 1 5, DW_OP_LLVM_convert 32 5, DW_OP_stack_value] $ecx
	#DEBUG_VALUE: sps_is_equal:equal <- undef
	.loc	0 143 19 is_stmt 1              # ldecod_src/parsetcommon.c:143:19
	movl	3148(%rdi), %edx
	.loc	0 143 39 is_stmt 0              # ldecod_src/parsetcommon.c:143:39
	cmpl	3148(%rsi), %edx
	.loc	0 144 7 is_stmt 1               # ldecod_src/parsetcommon.c:144:7
	jne	.LBB4_26
.Ltmp43:
# %bb.20:                               # %if.end107
	#DEBUG_VALUE: sps_is_equal:sps1 <- $rdi
	#DEBUG_VALUE: sps_is_equal:sps2 <- $rsi
	.loc	0 0 0 is_stmt 0                 # ldecod_src/parsetcommon.c:0:0
	movl	3144(%rsi), %r8d
	.loc	0 144 7                         # ldecod_src/parsetcommon.c:144:7
	cmpl	%r8d, 3144(%rdi)
	jne	.LBB4_26
.Ltmp44:
# %bb.21:                               # %if.end107
	#DEBUG_VALUE: sps_is_equal:sps1 <- $rdi
	#DEBUG_VALUE: sps_is_equal:sps2 <- $rsi
	testb	%cl, %cl
	jne	.LBB4_26
.Ltmp45:
# %bb.22:                               # %if.end118
	#DEBUG_VALUE: sps_is_equal:sps1 <- $rdi
	#DEBUG_VALUE: sps_is_equal:sps2 <- $rsi
	.loc	0 145 7 is_stmt 1               # ldecod_src/parsetcommon.c:145:7
	testl	%edx, %edx
.Ltmp46:
	.loc	0 145 7 is_stmt 0               # ldecod_src/parsetcommon.c:145:7
	je	.LBB4_23
.Ltmp47:
# %bb.24:                               # %if.then121
	#DEBUG_VALUE: sps_is_equal:sps1 <- $rdi
	#DEBUG_VALUE: sps_is_equal:sps2 <- $rsi
	#DEBUG_VALUE: sps_is_equal:equal <- undef
	.loc	0 147 21 is_stmt 1              # ldecod_src/parsetcommon.c:147:21
	movdqu	3152(%rdi), %xmm0
	.loc	0 147 62 is_stmt 0              # ldecod_src/parsetcommon.c:147:62
	movdqu	3152(%rsi), %xmm1
	.loc	0 150 11 is_stmt 1              # ldecod_src/parsetcommon.c:150:11
	pcmpeqd	%xmm0, %xmm1
	movmskps	%xmm1, %eax
	xorl	%ecx, %ecx
	xorl	$15, %eax
	sete	%cl
	#DEBUG_VALUE: sps_is_equal:equal <- undef
	jmp	.LBB4_25
.Ltmp48:
.LBB4_6:                                # %if.then46
	#DEBUG_VALUE: sps_is_equal:sps1 <- $rdi
	#DEBUG_VALUE: sps_is_equal:sps2 <- $rsi
	#DEBUG_VALUE: sps_is_equal:equal <- undef
	.loc	0 122 21                        # ldecod_src/parsetcommon.c:122:21
	movdqu	2080(%rdi), %xmm0
	.loc	0 122 63 is_stmt 0              # ldecod_src/parsetcommon.c:122:63
	movdqu	2080(%rsi), %xmm1
	.loc	0 125 11 is_stmt 1              # ldecod_src/parsetcommon.c:125:11
	pcmpeqd	%xmm0, %xmm1
	movmskps	%xmm1, %ecx
	xorl	$15, %ecx
	.loc	0 126 9                         # ldecod_src/parsetcommon.c:126:9
	jne	.LBB4_26
.Ltmp49:
# %bb.7:                                # %for.cond.preheader
	#DEBUG_VALUE: sps_is_equal:sps1 <- $rdi
	#DEBUG_VALUE: sps_is_equal:sps2 <- $rsi
	#DEBUG_VALUE: sps_is_equal:equal <- 1
	#DEBUG_VALUE: sps_is_equal:i <- 0
	.loc	0 128 20                        # ldecod_src/parsetcommon.c:128:20
	pshufd	$255, %xmm0, %xmm0              # xmm0 = xmm0[3,3,3,3]
	movd	%xmm0, %r8d
	testl	%r8d, %r8d
.Ltmp50:
	.loc	0 128 5 is_stmt 0               # ldecod_src/parsetcommon.c:128:5
	je	.LBB4_14
.Ltmp51:
# %bb.8:                                # %for.body.lr.ph
	#DEBUG_VALUE: sps_is_equal:sps1 <- $rdi
	#DEBUG_VALUE: sps_is_equal:sps2 <- $rsi
	#DEBUG_VALUE: sps_is_equal:equal <- 1
	#DEBUG_VALUE: sps_is_equal:i <- 0
	.loc	0 128 20                        # ldecod_src/parsetcommon.c:128:20
	movl	%r8d, %ecx
	xorl	%edx, %edx
.Ltmp52:
	.loc	0 128 5                         # ldecod_src/parsetcommon.c:128:5
	cmpl	$16, %r8d
	jae	.LBB4_10
.Ltmp53:
# %bb.9:
	#DEBUG_VALUE: sps_is_equal:sps1 <- $rdi
	#DEBUG_VALUE: sps_is_equal:sps2 <- $rsi
	#DEBUG_VALUE: sps_is_equal:equal <- 1
	#DEBUG_VALUE: sps_is_equal:i <- 0
	.loc	0 0 5                           # ldecod_src/parsetcommon.c:0:5
	xorl	%r8d, %r8d
	.loc	0 128 5                         # ldecod_src/parsetcommon.c:128:5
	jmp	.LBB4_13
.Ltmp54:
.LBB4_23:
	#DEBUG_VALUE: sps_is_equal:sps1 <- $rdi
	#DEBUG_VALUE: sps_is_equal:sps2 <- $rsi
	.loc	0 0 5                           # ldecod_src/parsetcommon.c:0:5
	movl	$1, %ecx
.Ltmp55:
.LBB4_25:                               # %if.end138
	#DEBUG_VALUE: sps_is_equal:sps1 <- $rdi
	#DEBUG_VALUE: sps_is_equal:sps2 <- $rsi
	#DEBUG_VALUE: sps_is_equal:equal <- $ecx
	.loc	0 152 19 is_stmt 1              # ldecod_src/parsetcommon.c:152:19
	movl	3168(%rdi), %edx
	xorl	%eax, %eax
	.loc	0 152 47 is_stmt 0              # ldecod_src/parsetcommon.c:152:47
	cmpl	3168(%rsi), %edx
	.loc	0 152 9                         # ldecod_src/parsetcommon.c:152:9
	cmovel	%ecx, %eax
.Ltmp56:
	#DEBUG_VALUE: sps_is_equal:equal <- $eax
	.loc	0 155 1 is_stmt 1               # ldecod_src/parsetcommon.c:155:1
	retq
.Ltmp57:
.LBB4_10:                               # %vector.ph
	#DEBUG_VALUE: sps_is_equal:sps1 <- $rdi
	#DEBUG_VALUE: sps_is_equal:sps2 <- $rsi
	#DEBUG_VALUE: sps_is_equal:equal <- 1
	#DEBUG_VALUE: sps_is_equal:i <- 0
	.loc	0 128 5                         # ldecod_src/parsetcommon.c:128:5
	movl	%ecx, %r8d
	andl	$-16, %r8d
	leaq	(,%rcx,4), %r9
	andq	$-64, %r9
	pxor	%xmm0, %xmm0
	xorl	%r10d, %r10d
	pcmpeqd	%xmm4, %xmm4
	pxor	%xmm3, %xmm3
	pxor	%xmm2, %xmm2
	pxor	%xmm1, %xmm1
.Ltmp58:
.LBB4_11:                               # %vector.body
                                        # =>This Inner Loop Header: Depth=1
	#DEBUG_VALUE: sps_is_equal:sps1 <- $rdi
	#DEBUG_VALUE: sps_is_equal:sps2 <- $rsi
	#DEBUG_VALUE: sps_is_equal:equal <- 1
	#DEBUG_VALUE: sps_is_equal:i <- 0
	.loc	0 129 17                        # ldecod_src/parsetcommon.c:129:17
	movdqu	2096(%rdi,%r10), %xmm5
	movdqu	2112(%rdi,%r10), %xmm6
	movdqu	2128(%rdi,%r10), %xmm7
	movdqu	2144(%rdi,%r10), %xmm8
	.loc	0 129 50 is_stmt 0              # ldecod_src/parsetcommon.c:129:50
	movdqu	2096(%rsi,%r10), %xmm9
	.loc	0 129 47                        # ldecod_src/parsetcommon.c:129:47
	pcmpeqd	%xmm5, %xmm9
	.loc	0 129 50                        # ldecod_src/parsetcommon.c:129:50
	movdqu	2112(%rsi,%r10), %xmm5
	.loc	0 129 47                        # ldecod_src/parsetcommon.c:129:47
	pcmpeqd	%xmm6, %xmm5
	.loc	0 129 50                        # ldecod_src/parsetcommon.c:129:50
	movdqu	2128(%rsi,%r10), %xmm6
	.loc	0 129 47                        # ldecod_src/parsetcommon.c:129:47
	pcmpeqd	%xmm7, %xmm6
	.loc	0 129 50                        # ldecod_src/parsetcommon.c:129:50
	movdqu	2144(%rsi,%r10), %xmm7
	.loc	0 129 47                        # ldecod_src/parsetcommon.c:129:47
	pcmpeqd	%xmm8, %xmm7
	pxor	%xmm4, %xmm9
	por	%xmm9, %xmm0
	pxor	%xmm4, %xmm5
	por	%xmm5, %xmm3
	pxor	%xmm4, %xmm6
	por	%xmm6, %xmm2
	pxor	%xmm4, %xmm7
	por	%xmm7, %xmm1
	.loc	0 128 69 is_stmt 1              # ldecod_src/parsetcommon.c:128:69
	addq	$64, %r10
	cmpq	%r10, %r9
	jne	.LBB4_11
.Ltmp59:
# %bb.12:                               # %middle.block
	#DEBUG_VALUE: sps_is_equal:sps1 <- $rdi
	#DEBUG_VALUE: sps_is_equal:sps2 <- $rsi
	#DEBUG_VALUE: sps_is_equal:equal <- 1
	#DEBUG_VALUE: sps_is_equal:i <- 0
	.loc	0 128 5 is_stmt 0               # ldecod_src/parsetcommon.c:128:5
	por	%xmm0, %xmm3
	por	%xmm3, %xmm2
	por	%xmm2, %xmm1
	pslld	$31, %xmm1
	movmskps	%xmm1, %r10d
	xorl	%r9d, %r9d
	testl	%r10d, %r10d
	sete	%r9b
	cmpl	%ecx, %r8d
	je	.LBB4_14
.Ltmp60:
	.p2align	4, 0x90
.LBB4_13:                               # %for.body
                                        # =>This Inner Loop Header: Depth=1
	#DEBUG_VALUE: sps_is_equal:sps1 <- $rdi
	#DEBUG_VALUE: sps_is_equal:sps2 <- $rsi
	#DEBUG_VALUE: sps_is_equal:equal <- $r9d
	#DEBUG_VALUE: sps_is_equal:i <- $r8
	.loc	0 129 17 is_stmt 1              # ldecod_src/parsetcommon.c:129:17
	movl	2096(%rdi,%r8,4), %r10d
	.loc	0 129 47 is_stmt 0              # ldecod_src/parsetcommon.c:129:47
	cmpl	2096(%rsi,%r8,4), %r10d
	.loc	0 129 13                        # ldecod_src/parsetcommon.c:129:13
	cmovnel	%edx, %r9d
.Ltmp61:
	#DEBUG_VALUE: sps_is_equal:equal <- $r9d
	.loc	0 128 69 is_stmt 1              # ldecod_src/parsetcommon.c:128:69
	incq	%r8
.Ltmp62:
	#DEBUG_VALUE: sps_is_equal:i <- $r8
	.loc	0 128 20 is_stmt 0              # ldecod_src/parsetcommon.c:128:20
	cmpq	%r8, %rcx
.Ltmp63:
	.loc	0 128 5                         # ldecod_src/parsetcommon.c:128:5
	jne	.LBB4_13
	jmp	.LBB4_14
.Ltmp64:
.Lfunc_end4:
	.size	sps_is_equal, .Lfunc_end4-sps_is_equal
	.cfi_endproc
                                        # -- End function
	.globl	pps_is_equal                    # -- Begin function pps_is_equal
	.p2align	4, 0x90
	.type	pps_is_equal,@function
pps_is_equal:                           # @pps_is_equal
.Lfunc_begin5:
	.loc	0 158 0 is_stmt 1               # ldecod_src/parsetcommon.c:158:0
	.cfi_startproc
# %bb.0:                                # %entry
	#DEBUG_VALUE: pps_is_equal:pps1 <- $rdi
	#DEBUG_VALUE: pps_is_equal:pps2 <- $rsi
	pushq	%rbp
	.cfi_def_cfa_offset 16
	pushq	%rbx
	.cfi_def_cfa_offset 24
	.cfi_offset %rbx, -24
	.cfi_offset %rbp, -16
.Ltmp65:
	#DEBUG_VALUE: pps_is_equal:equal <- 1
	xorl	%eax, %eax
.Ltmp66:
	.loc	0 162 9 prologue_end            # ldecod_src/parsetcommon.c:162:9
	cmpl	$0, (%rdi)
	.loc	0 162 22 is_stmt 0              # ldecod_src/parsetcommon.c:162:22
	je	.LBB5_44
.Ltmp67:
# %bb.1:                                # %lor.lhs.false
	#DEBUG_VALUE: pps_is_equal:pps1 <- $rdi
	#DEBUG_VALUE: pps_is_equal:pps2 <- $rsi
	#DEBUG_VALUE: pps_is_equal:equal <- 1
	.loc	0 162 27                        # ldecod_src/parsetcommon.c:162:27
	cmpl	$0, (%rsi)
.Ltmp68:
	.loc	0 162 7                         # ldecod_src/parsetcommon.c:162:7
	je	.LBB5_44
.Ltmp69:
# %bb.2:                                # %if.end
	#DEBUG_VALUE: pps_is_equal:pps1 <- $rdi
	#DEBUG_VALUE: pps_is_equal:pps2 <- $rsi
	#DEBUG_VALUE: pps_is_equal:equal <- 1
	#DEBUG_VALUE: pps_is_equal:equal <- undef
	.loc	0 166 19 is_stmt 1              # ldecod_src/parsetcommon.c:166:19
	movq	8(%rdi), %xmm1                  # xmm1 = mem[0],zero
	.loc	0 168 19                        # ldecod_src/parsetcommon.c:168:19
	movq	2040(%rdi), %xmm0               # xmm0 = mem[0],zero
	.loc	0 166 40                        # ldecod_src/parsetcommon.c:166:40
	punpcklqdq	%xmm0, %xmm1            # xmm1 = xmm1[0],xmm0[0]
	movq	2040(%rsi), %xmm2               # xmm2 = mem[0],zero
	movq	8(%rsi), %xmm3                  # xmm3 = mem[0],zero
	punpcklqdq	%xmm2, %xmm3            # xmm3 = xmm3[0],xmm2[0]
	.loc	0 169 9                         # ldecod_src/parsetcommon.c:169:9
	pcmpeqd	%xmm1, %xmm3
	movmskps	%xmm3, %ecx
	xorl	$15, %ecx
	.loc	0 171 7                         # ldecod_src/parsetcommon.c:171:7
	jne	.LBB5_44
.Ltmp70:
# %bb.3:                                # %if.end
	#DEBUG_VALUE: pps_is_equal:pps1 <- $rdi
	#DEBUG_VALUE: pps_is_equal:pps2 <- $rsi
	.loc	0 0 0 is_stmt 0                 # ldecod_src/parsetcommon.c:0:0
	movl	4(%rsi), %ecx
	.loc	0 171 7                         # ldecod_src/parsetcommon.c:171:7
	cmpl	%ecx, 4(%rdi)
	jne	.LBB5_44
.Ltmp71:
# %bb.4:                                # %if.end22
	#DEBUG_VALUE: pps_is_equal:pps1 <- $rdi
	#DEBUG_VALUE: pps_is_equal:pps2 <- $rsi
	.loc	0 173 36 is_stmt 1              # ldecod_src/parsetcommon.c:173:36
	pshufd	$85, %xmm0, %xmm0               # xmm0 = xmm0[1,1,1,1]
	movd	%xmm0, %edx
	movl	$1, %ecx
	testl	%edx, %edx
.Ltmp72:
	.loc	0 173 7 is_stmt 0               # ldecod_src/parsetcommon.c:173:7
	je	.LBB5_26
.Ltmp73:
# %bb.5:                                # %if.then26
	#DEBUG_VALUE: pps_is_equal:pps1 <- $rdi
	#DEBUG_VALUE: pps_is_equal:pps2 <- $rsi
	.loc	0 175 23 is_stmt 1              # ldecod_src/parsetcommon.c:175:23
	movl	2048(%rdi), %r8d
	.loc	0 175 44 is_stmt 0              # ldecod_src/parsetcommon.c:175:44
	cmpl	2048(%rsi), %r8d
.Ltmp74:
	#DEBUG_VALUE: pps_is_equal:equal <- undef
	.loc	0 176 11 is_stmt 1              # ldecod_src/parsetcommon.c:176:11
	jne	.LBB5_44
.Ltmp75:
# %bb.6:                                # %if.end33
	#DEBUG_VALUE: pps_is_equal:pps1 <- $rdi
	#DEBUG_VALUE: pps_is_equal:pps2 <- $rsi
	.loc	0 177 11                        # ldecod_src/parsetcommon.c:177:11
	cmpl	$6, %r8d
	ja	.LBB5_26
.Ltmp76:
# %bb.7:                                # %if.end33
	#DEBUG_VALUE: pps_is_equal:pps1 <- $rdi
	#DEBUG_VALUE: pps_is_equal:pps2 <- $rsi
	movl	%r8d, %r8d
	jmpq	*.LJTI5_0(,%r8,8)
.Ltmp77:
.LBB5_19:                               # %if.then87
	#DEBUG_VALUE: pps_is_equal:pps1 <- $rdi
	#DEBUG_VALUE: pps_is_equal:pps2 <- $rsi
	#DEBUG_VALUE: pps_is_equal:equal <- undef
	.loc	0 192 68                        # ldecod_src/parsetcommon.c:192:68
	movq	2148(%rsi), %rdx
	.loc	0 193 15                        # ldecod_src/parsetcommon.c:193:15
	xorl	%ecx, %ecx
	cmpq	%rdx, 2148(%rdi)
	sete	%cl
.Ltmp78:
	#DEBUG_VALUE: pps_is_equal:equal <- undef
.LBB5_26:                               # %if.end130
	#DEBUG_VALUE: pps_is_equal:pps1 <- $rdi
	#DEBUG_VALUE: pps_is_equal:pps2 <- $rsi
	#DEBUG_VALUE: pps_is_equal:equal <- $ecx
	.loc	0 204 19                        # ldecod_src/parsetcommon.c:204:19
	movl	2168(%rdi), %edx
.Ltmp79:
	#DEBUG_VALUE: pps_is_equal:equal <- undef
	.loc	0 204 48 is_stmt 0              # ldecod_src/parsetcommon.c:204:48
	cmpl	2168(%rsi), %edx
	.loc	0 205 19 is_stmt 1              # ldecod_src/parsetcommon.c:205:19
	movl	2172(%rdi), %r8d
	.loc	0 204 48                        # ldecod_src/parsetcommon.c:204:48
	setne	%dl
	.loc	0 205 48                        # ldecod_src/parsetcommon.c:205:48
	cmpl	2172(%rsi), %r8d
	setne	%r8b
	.loc	0 206 19                        # ldecod_src/parsetcommon.c:206:19
	movl	2176(%rdi), %r9d
	.loc	0 206 38 is_stmt 0              # ldecod_src/parsetcommon.c:206:38
	cmpl	2176(%rsi), %r9d
	setne	%r9b
	.loc	0 211 19 is_stmt 1              # ldecod_src/parsetcommon.c:211:19
	movl	2200(%rdi), %r10d
	.loc	0 211 58 is_stmt 0              # ldecod_src/parsetcommon.c:211:58
	cmpl	2200(%rsi), %r10d
	setne	%r10b
	.loc	0 212 19 is_stmt 1              # ldecod_src/parsetcommon.c:212:19
	movl	2204(%rdi), %r11d
	.loc	0 212 47 is_stmt 0              # ldecod_src/parsetcommon.c:212:47
	cmpl	2204(%rsi), %r11d
	setne	%r11b
	.loc	0 213 19 is_stmt 1              # ldecod_src/parsetcommon.c:213:19
	movl	2208(%rdi), %ebx
	.loc	0 213 50 is_stmt 0              # ldecod_src/parsetcommon.c:213:50
	cmpl	2208(%rsi), %ebx
	.loc	0 215 7 is_stmt 1               # ldecod_src/parsetcommon.c:215:7
	jne	.LBB5_44
.Ltmp80:
# %bb.27:                               # %if.end130
	#DEBUG_VALUE: pps_is_equal:pps1 <- $rdi
	#DEBUG_VALUE: pps_is_equal:pps2 <- $rsi
	.loc	0 0 0 is_stmt 0                 # ldecod_src/parsetcommon.c:0:0
	movdqu	2180(%rdi), %xmm0
	movdqu	2180(%rsi), %xmm1
	pcmpeqd	%xmm0, %xmm1
	pcmpeqd	%xmm0, %xmm0
	pxor	%xmm1, %xmm0
	.loc	0 215 0                         # ldecod_src/parsetcommon.c:215:0
	pslld	$31, %xmm0
	movmskps	%xmm0, %ebx
	.loc	0 215 7                         # ldecod_src/parsetcommon.c:215:7
	testb	%bl, %bl
	jne	.LBB5_44
.Ltmp81:
# %bb.28:                               # %if.end130
	#DEBUG_VALUE: pps_is_equal:pps1 <- $rdi
	#DEBUG_VALUE: pps_is_equal:pps2 <- $rsi
	testb	$1, %r11b
	jne	.LBB5_44
.Ltmp82:
# %bb.29:                               # %if.end130
	#DEBUG_VALUE: pps_is_equal:pps1 <- $rdi
	#DEBUG_VALUE: pps_is_equal:pps2 <- $rsi
	testb	$1, %r10b
	jne	.LBB5_44
.Ltmp83:
# %bb.30:                               # %if.end130
	#DEBUG_VALUE: pps_is_equal:pps1 <- $rdi
	#DEBUG_VALUE: pps_is_equal:pps2 <- $rsi
	testb	$1, %r9b
	jne	.LBB5_44
.Ltmp84:
# %bb.31:                               # %if.end130
	#DEBUG_VALUE: pps_is_equal:pps1 <- $rdi
	#DEBUG_VALUE: pps_is_equal:pps2 <- $rsi
	testb	$1, %r8b
	jne	.LBB5_44
.Ltmp85:
# %bb.32:                               # %if.end130
	#DEBUG_VALUE: pps_is_equal:pps1 <- $rdi
	#DEBUG_VALUE: pps_is_equal:pps2 <- $rsi
	testb	$1, %dl
	jne	.LBB5_44
.Ltmp86:
# %bb.33:                               # %if.end130
	#DEBUG_VALUE: pps_is_equal:pps1 <- $rdi
	#DEBUG_VALUE: pps_is_equal:pps2 <- $rsi
	testl	%ecx, %ecx
	je	.LBB5_44
.Ltmp87:
# %bb.34:                               # %if.end173
	#DEBUG_VALUE: pps_is_equal:pps1 <- $rdi
	#DEBUG_VALUE: pps_is_equal:pps2 <- $rsi
	.loc	0 219 19 is_stmt 1              # ldecod_src/parsetcommon.c:219:19
	movl	16(%rdi), %eax
.Ltmp88:
	#DEBUG_VALUE: pps_is_equal:equal <- undef
	.loc	0 220 19                        # ldecod_src/parsetcommon.c:220:19
	movl	20(%rdi), %edx
	movl	16(%rsi), %r8d
	.loc	0 219 43                        # ldecod_src/parsetcommon.c:219:43
	xorl	%eax, %r8d
	movl	20(%rsi), %r9d
	.loc	0 220 51                        # ldecod_src/parsetcommon.c:220:51
	xorl	%edx, %r9d
	.loc	0 220 9 is_stmt 0               # ldecod_src/parsetcommon.c:220:9
	xorl	%ecx, %ecx
	orl	%r8d, %r9d
	sete	%cl
	#DEBUG_VALUE: pps_is_equal:equal <- undef
.Ltmp89:
	.loc	0 221 6 is_stmt 1               # ldecod_src/parsetcommon.c:221:6
	testl	%edx, %edx
.Ltmp90:
	.loc	0 221 6 is_stmt 0               # ldecod_src/parsetcommon.c:221:6
	je	.LBB5_43
.Ltmp91:
# %bb.35:                               # %for.cond185.preheader
	#DEBUG_VALUE: pps_is_equal:pps1 <- $rdi
	#DEBUG_VALUE: pps_is_equal:pps2 <- $rsi
	.loc	0 0 6                           # ldecod_src/parsetcommon.c:0:6
	addl	%eax, %eax
.Ltmp92:
	#DEBUG_VALUE: pps_is_equal:equal <- undef
	#DEBUG_VALUE: pps_is_equal:i <- 0
	.loc	0 223 18 is_stmt 1              # ldecod_src/parsetcommon.c:223:18
	addl	$6, %eax
.Ltmp93:
	.loc	0 223 5 is_stmt 0               # ldecod_src/parsetcommon.c:223:5
	je	.LBB5_43
.Ltmp94:
# %bb.36:                               # %for.body189.lr.ph
	#DEBUG_VALUE: pps_is_equal:pps1 <- $rdi
	#DEBUG_VALUE: pps_is_equal:pps2 <- $rsi
	#DEBUG_VALUE: pps_is_equal:i <- 0
	.loc	0 223 18                        # ldecod_src/parsetcommon.c:223:18
	movl	%eax, %eax
.Ltmp95:
	.loc	0 223 5                         # ldecod_src/parsetcommon.c:223:5
	shlq	$6, %rax
	xorl	%edx, %edx
	pcmpeqd	%xmm0, %xmm0
	xorl	%r8d, %r8d
	xorl	%r9d, %r9d
	jmp	.LBB5_37
.Ltmp96:
	.p2align	4, 0x90
.LBB5_40:                               # %vector.body494
                                        #   in Loop: Header=BB5_37 Depth=1
	#DEBUG_VALUE: pps_is_equal:pps1 <- $rdi
	#DEBUG_VALUE: pps_is_equal:pps2 <- $rsi
	#DEBUG_VALUE: pps_is_equal:equal <- $ecx
	#DEBUG_VALUE: pps_is_equal:i <- $r9
	#DEBUG_VALUE: pps_is_equal:j <- 0
	#DEBUG_VALUE: pps_is_equal:equal <- $ecx
	#DEBUG_VALUE: pps_is_equal:j <- 0
	.loc	0 236 23 is_stmt 1              # ldecod_src/parsetcommon.c:236:23
	movdqu	-1080(%rdi,%r8,4), %xmm1
	movdqu	-1064(%rdi,%r8,4), %xmm2
	movdqu	-1048(%rdi,%r8,4), %xmm3
	movdqu	-1032(%rdi,%r8,4), %xmm4
	.loc	0 236 55 is_stmt 0              # ldecod_src/parsetcommon.c:236:55
	movdqu	-1080(%rsi,%r8,4), %xmm8
	.loc	0 236 52                        # ldecod_src/parsetcommon.c:236:52
	pcmpeqd	%xmm1, %xmm8
	.loc	0 236 55                        # ldecod_src/parsetcommon.c:236:55
	movdqu	-1064(%rsi,%r8,4), %xmm7
	.loc	0 236 52                        # ldecod_src/parsetcommon.c:236:52
	pcmpeqd	%xmm2, %xmm7
	.loc	0 236 55                        # ldecod_src/parsetcommon.c:236:55
	movdqu	-1048(%rsi,%r8,4), %xmm6
	.loc	0 236 52                        # ldecod_src/parsetcommon.c:236:52
	pcmpeqd	%xmm3, %xmm6
	.loc	0 236 55                        # ldecod_src/parsetcommon.c:236:55
	movdqu	-1032(%rsi,%r8,4), %xmm5
	.loc	0 236 52                        # ldecod_src/parsetcommon.c:236:52
	pcmpeqd	%xmm4, %xmm5
	pxor	%xmm0, %xmm8
	pxor	%xmm0, %xmm7
	pxor	%xmm0, %xmm6
	pxor	%xmm0, %xmm5
	.loc	0 236 23                        # ldecod_src/parsetcommon.c:236:23
	movdqu	-1016(%rdi,%r8,4), %xmm1
	movdqu	-1000(%rdi,%r8,4), %xmm2
	movdqu	-984(%rdi,%r8,4), %xmm9
	movdqu	-968(%rdi,%r8,4), %xmm10
	.loc	0 236 55                        # ldecod_src/parsetcommon.c:236:55
	movdqu	-1016(%rsi,%r8,4), %xmm4
	.loc	0 236 52                        # ldecod_src/parsetcommon.c:236:52
	pcmpeqd	%xmm1, %xmm4
	.loc	0 236 55                        # ldecod_src/parsetcommon.c:236:55
	movdqu	-1000(%rsi,%r8,4), %xmm3
	.loc	0 236 52                        # ldecod_src/parsetcommon.c:236:52
	pcmpeqd	%xmm2, %xmm3
	.loc	0 236 55                        # ldecod_src/parsetcommon.c:236:55
	movdqu	-984(%rsi,%r8,4), %xmm2
	.loc	0 236 52                        # ldecod_src/parsetcommon.c:236:52
	pcmpeqd	%xmm9, %xmm2
	.loc	0 236 55                        # ldecod_src/parsetcommon.c:236:55
	movdqu	-968(%rsi,%r8,4), %xmm1
	.loc	0 236 52                        # ldecod_src/parsetcommon.c:236:52
	pcmpeqd	%xmm10, %xmm1
	pxor	%xmm0, %xmm4
	por	%xmm8, %xmm4
	pxor	%xmm0, %xmm3
	por	%xmm7, %xmm3
	pxor	%xmm0, %xmm2
	por	%xmm6, %xmm2
	pxor	%xmm0, %xmm1
	por	%xmm5, %xmm1
	.loc	0 236 23                        # ldecod_src/parsetcommon.c:236:23
	movdqu	-952(%rdi,%r8,4), %xmm5
	movdqu	-936(%rdi,%r8,4), %xmm6
	movdqu	-920(%rdi,%r8,4), %xmm9
	movdqu	-904(%rdi,%r8,4), %xmm10
	.loc	0 236 55                        # ldecod_src/parsetcommon.c:236:55
	movdqu	-952(%rsi,%r8,4), %xmm8
	.loc	0 236 52                        # ldecod_src/parsetcommon.c:236:52
	pcmpeqd	%xmm5, %xmm8
	.loc	0 236 55                        # ldecod_src/parsetcommon.c:236:55
	movdqu	-936(%rsi,%r8,4), %xmm7
	.loc	0 236 52                        # ldecod_src/parsetcommon.c:236:52
	pcmpeqd	%xmm6, %xmm7
	.loc	0 236 55                        # ldecod_src/parsetcommon.c:236:55
	movdqu	-920(%rsi,%r8,4), %xmm6
	.loc	0 236 52                        # ldecod_src/parsetcommon.c:236:52
	pcmpeqd	%xmm9, %xmm6
	.loc	0 236 55                        # ldecod_src/parsetcommon.c:236:55
	movdqu	-904(%rsi,%r8,4), %xmm5
	.loc	0 236 52                        # ldecod_src/parsetcommon.c:236:52
	pcmpeqd	%xmm10, %xmm5
	pxor	%xmm0, %xmm8
	pxor	%xmm0, %xmm7
	pxor	%xmm0, %xmm6
	pxor	%xmm0, %xmm5
	.loc	0 236 23                        # ldecod_src/parsetcommon.c:236:23
	movdqu	-888(%rdi,%r8,4), %xmm9
	movdqu	-872(%rdi,%r8,4), %xmm10
	movdqu	-856(%rdi,%r8,4), %xmm11
	movdqu	-840(%rdi,%r8,4), %xmm12
	.loc	0 236 55                        # ldecod_src/parsetcommon.c:236:55
	movdqu	-888(%rsi,%r8,4), %xmm13
	.loc	0 236 52                        # ldecod_src/parsetcommon.c:236:52
	pcmpeqd	%xmm9, %xmm13
	.loc	0 236 55                        # ldecod_src/parsetcommon.c:236:55
	movdqu	-872(%rsi,%r8,4), %xmm14
	.loc	0 236 52                        # ldecod_src/parsetcommon.c:236:52
	pcmpeqd	%xmm10, %xmm14
	.loc	0 236 55                        # ldecod_src/parsetcommon.c:236:55
	movdqu	-856(%rsi,%r8,4), %xmm9
	.loc	0 236 52                        # ldecod_src/parsetcommon.c:236:52
	pcmpeqd	%xmm11, %xmm9
	.loc	0 236 55                        # ldecod_src/parsetcommon.c:236:55
	movdqu	-840(%rsi,%r8,4), %xmm10
	.loc	0 236 52                        # ldecod_src/parsetcommon.c:236:52
	pcmpeqd	%xmm12, %xmm10
	pxor	%xmm0, %xmm13
	por	%xmm8, %xmm13
	por	%xmm4, %xmm13
	pxor	%xmm0, %xmm14
	por	%xmm7, %xmm14
	por	%xmm3, %xmm14
.Ltmp97:
	.loc	0 235 11 is_stmt 1              # ldecod_src/parsetcommon.c:235:11
	por	%xmm13, %xmm14
.Ltmp98:
	.loc	0 236 52                        # ldecod_src/parsetcommon.c:236:52
	pxor	%xmm0, %xmm9
	por	%xmm6, %xmm9
	por	%xmm2, %xmm9
.Ltmp99:
	.loc	0 235 11                        # ldecod_src/parsetcommon.c:235:11
	por	%xmm14, %xmm9
.Ltmp100:
	.loc	0 236 52                        # ldecod_src/parsetcommon.c:236:52
	pxor	%xmm0, %xmm10
	por	%xmm5, %xmm10
	por	%xmm1, %xmm10
.Ltmp101:
	.loc	0 235 11                        # ldecod_src/parsetcommon.c:235:11
	por	%xmm9, %xmm10
	pslld	$31, %xmm10
	movmskps	%xmm10, %r10d
	testl	%r10d, %r10d
.Ltmp102:
.LBB5_41:                               # %for.inc248
                                        #   in Loop: Header=BB5_37 Depth=1
	#DEBUG_VALUE: pps_is_equal:pps1 <- $rdi
	#DEBUG_VALUE: pps_is_equal:pps2 <- $rsi
	#DEBUG_VALUE: pps_is_equal:i <- $r9
	.loc	0 0 0 is_stmt 0                 # ldecod_src/parsetcommon.c:0:0
	cmovnel	%edx, %ecx
.Ltmp103:
.LBB5_42:                               # %for.inc248
                                        #   in Loop: Header=BB5_37 Depth=1
	#DEBUG_VALUE: pps_is_equal:pps1 <- $rdi
	#DEBUG_VALUE: pps_is_equal:pps2 <- $rsi
	#DEBUG_VALUE: pps_is_equal:i <- $r9
	#DEBUG_VALUE: pps_is_equal:equal <- $ecx
	.loc	0 223 75 is_stmt 1              # ldecod_src/parsetcommon.c:223:75
	incq	%r9
.Ltmp104:
	#DEBUG_VALUE: pps_is_equal:i <- $r9
	.loc	0 223 18 is_stmt 0              # ldecod_src/parsetcommon.c:223:18
	addq	$64, %r8
	cmpq	%r8, %rax
.Ltmp105:
	.loc	0 223 5                         # ldecod_src/parsetcommon.c:223:5
	je	.LBB5_43
.Ltmp106:
.LBB5_37:                               # %for.body189
                                        # =>This Inner Loop Header: Depth=1
	#DEBUG_VALUE: pps_is_equal:pps1 <- $rdi
	#DEBUG_VALUE: pps_is_equal:pps2 <- $rsi
	.loc	0 0 5                           # ldecod_src/parsetcommon.c:0:5
	movl	%ecx, %r10d
.Ltmp107:
	#DEBUG_VALUE: pps_is_equal:equal <- $ecx
	#DEBUG_VALUE: pps_is_equal:i <- $r9
	.loc	0 225 17 is_stmt 1              # ldecod_src/parsetcommon.c:225:17
	movl	24(%rdi,%r9,4), %r11d
	.loc	0 225 56 is_stmt 0              # ldecod_src/parsetcommon.c:225:56
	xorl	%ecx, %ecx
.Ltmp108:
	#DEBUG_VALUE: pps_is_equal:equal <- $r10d
	cmpl	24(%rsi,%r9,4), %r11d
	sete	%cl
	.loc	0 225 13                        # ldecod_src/parsetcommon.c:225:13
	andl	%r10d, %ecx
.Ltmp109:
	#DEBUG_VALUE: pps_is_equal:equal <- $ecx
	.loc	0 226 10 is_stmt 1              # ldecod_src/parsetcommon.c:226:10
	testl	%r11d, %r11d
.Ltmp110:
	.loc	0 226 10 is_stmt 0              # ldecod_src/parsetcommon.c:226:10
	je	.LBB5_42
.Ltmp111:
# %bb.38:                               # %if.then202
                                        #   in Loop: Header=BB5_37 Depth=1
	#DEBUG_VALUE: pps_is_equal:pps1 <- $rdi
	#DEBUG_VALUE: pps_is_equal:pps2 <- $rsi
	#DEBUG_VALUE: pps_is_equal:equal <- $ecx
	#DEBUG_VALUE: pps_is_equal:i <- $r9
	.loc	0 228 14 is_stmt 1              # ldecod_src/parsetcommon.c:228:14
	cmpq	$5, %r9
.Ltmp112:
	#DEBUG_VALUE: pps_is_equal:j <- 0
	.loc	0 228 12 is_stmt 0              # ldecod_src/parsetcommon.c:228:12
	ja	.LBB5_40
.Ltmp113:
# %bb.39:                               # %for.body209.preheader
                                        #   in Loop: Header=BB5_37 Depth=1
	#DEBUG_VALUE: pps_is_equal:pps1 <- $rdi
	#DEBUG_VALUE: pps_is_equal:pps2 <- $rsi
	#DEBUG_VALUE: pps_is_equal:equal <- $ecx
	#DEBUG_VALUE: pps_is_equal:i <- $r9
	#DEBUG_VALUE: pps_is_equal:j <- 0
	#DEBUG_VALUE: pps_is_equal:equal <- undef
	#DEBUG_VALUE: pps_is_equal:j <- 15
	.loc	0 231 23 is_stmt 1              # ldecod_src/parsetcommon.c:231:23
	movdqu	72(%rdi,%r8), %xmm1
	movdqu	88(%rdi,%r8), %xmm2
	movdqu	104(%rdi,%r8), %xmm3
	movdqu	120(%rdi,%r8), %xmm4
	.loc	0 231 53 is_stmt 0              # ldecod_src/parsetcommon.c:231:53
	movdqu	72(%rsi,%r8), %xmm5
	.loc	0 231 50                        # ldecod_src/parsetcommon.c:231:50
	pcmpeqd	%xmm1, %xmm5
	.loc	0 231 53                        # ldecod_src/parsetcommon.c:231:53
	movdqu	88(%rsi,%r8), %xmm1
	.loc	0 231 50                        # ldecod_src/parsetcommon.c:231:50
	pcmpeqd	%xmm2, %xmm1
	packssdw	%xmm1, %xmm5
	.loc	0 231 53                        # ldecod_src/parsetcommon.c:231:53
	movdqu	104(%rsi,%r8), %xmm1
	.loc	0 231 50                        # ldecod_src/parsetcommon.c:231:50
	pcmpeqd	%xmm3, %xmm1
	.loc	0 231 53                        # ldecod_src/parsetcommon.c:231:53
	movdqu	120(%rsi,%r8), %xmm2
	.loc	0 231 50                        # ldecod_src/parsetcommon.c:231:50
	pcmpeqd	%xmm4, %xmm2
	packssdw	%xmm2, %xmm1
	packsswb	%xmm1, %xmm5
	.loc	0 231 19                        # ldecod_src/parsetcommon.c:231:19
	psllw	$7, %xmm5
	pmovmskb	%xmm5, %r10d
	cmpl	$65535, %r10d                   # imm = 0xFFFF
	jmp	.LBB5_41
.Ltmp114:
.LBB5_43:                               # %if.end251
	#DEBUG_VALUE: pps_is_equal:pps1 <- $rdi
	#DEBUG_VALUE: pps_is_equal:pps2 <- $rsi
	#DEBUG_VALUE: pps_is_equal:equal <- $ecx
	.loc	0 241 19 is_stmt 1              # ldecod_src/parsetcommon.c:241:19
	movl	2196(%rdi), %edx
	xorl	%eax, %eax
	.loc	0 241 49 is_stmt 0              # ldecod_src/parsetcommon.c:241:49
	cmpl	2196(%rsi), %edx
	.loc	0 241 9                         # ldecod_src/parsetcommon.c:241:9
	cmovel	%ecx, %eax
.Ltmp115:
	#DEBUG_VALUE: pps_is_equal:equal <- $eax
.LBB5_44:                               # %cleanup
	#DEBUG_VALUE: pps_is_equal:pps1 <- $rdi
	#DEBUG_VALUE: pps_is_equal:pps2 <- $rsi
	.loc	0 244 1 epilogue_begin is_stmt 1 # ldecod_src/parsetcommon.c:244:1
	popq	%rbx
	.cfi_def_cfa_offset 16
	popq	%rbp
	.cfi_def_cfa_offset 8
	retq
.Ltmp116:
.LBB5_20:                               # %if.then100
	.cfi_def_cfa_offset 24
	#DEBUG_VALUE: pps_is_equal:pps1 <- $rdi
	#DEBUG_VALUE: pps_is_equal:pps2 <- $rsi
	.loc	0 197 25                        # ldecod_src/parsetcommon.c:197:25
	movl	2156(%rdi), %edx
	.loc	0 197 54 is_stmt 0              # ldecod_src/parsetcommon.c:197:54
	cmpl	2156(%rsi), %edx
.Ltmp117:
	#DEBUG_VALUE: pps_is_equal:equal <- undef
	.loc	0 198 13 is_stmt 1              # ldecod_src/parsetcommon.c:198:13
	jne	.LBB5_44
.Ltmp118:
# %bb.21:                               # %for.cond108.preheader
	#DEBUG_VALUE: pps_is_equal:pps1 <- $rdi
	#DEBUG_VALUE: pps_is_equal:pps2 <- $rsi
	.loc	0 0 13 is_stmt 0                # ldecod_src/parsetcommon.c:0:13
	movq	2160(%rdi), %r8
	movq	2160(%rsi), %r9
.Ltmp119:
	#DEBUG_VALUE: pps_is_equal:equal <- 1
	#DEBUG_VALUE: pps_is_equal:i <- 0
	.loc	0 199 9 is_stmt 1               # ldecod_src/parsetcommon.c:199:9
	leal	1(%rdx), %ebx
	xorl	%r10d, %r10d
	movl	$0, %r11d
	cmpl	$16, %ebx
	jb	.LBB5_25
.Ltmp120:
# %bb.22:                               # %vector.ph
	#DEBUG_VALUE: pps_is_equal:pps1 <- $rdi
	#DEBUG_VALUE: pps_is_equal:pps2 <- $rsi
	#DEBUG_VALUE: pps_is_equal:equal <- 1
	#DEBUG_VALUE: pps_is_equal:i <- 0
	movl	%ebx, %r11d
	andl	$-16, %r11d
	pxor	%xmm0, %xmm0
	xorl	%ecx, %ecx
	pcmpeqd	%xmm4, %xmm4
	pxor	%xmm3, %xmm3
	pxor	%xmm2, %xmm2
	pxor	%xmm1, %xmm1
.Ltmp121:
.LBB5_23:                               # %vector.body
                                        # =>This Inner Loop Header: Depth=1
	#DEBUG_VALUE: pps_is_equal:pps1 <- $rdi
	#DEBUG_VALUE: pps_is_equal:pps2 <- $rsi
	#DEBUG_VALUE: pps_is_equal:equal <- 1
	#DEBUG_VALUE: pps_is_equal:i <- 0
	.loc	0 200 21                        # ldecod_src/parsetcommon.c:200:21
	movd	(%r8,%rcx), %xmm5               # xmm5 = mem[0],zero,zero,zero
	movd	4(%r8,%rcx), %xmm6              # xmm6 = mem[0],zero,zero,zero
	movd	8(%r8,%rcx), %xmm7              # xmm7 = mem[0],zero,zero,zero
	movd	12(%r8,%rcx), %xmm8             # xmm8 = mem[0],zero,zero,zero
	.loc	0 200 48 is_stmt 0              # ldecod_src/parsetcommon.c:200:48
	movd	(%r9,%rcx), %xmm9               # xmm9 = mem[0],zero,zero,zero
	.loc	0 200 45                        # ldecod_src/parsetcommon.c:200:45
	pcmpeqb	%xmm5, %xmm9
	.loc	0 200 48                        # ldecod_src/parsetcommon.c:200:48
	movd	4(%r9,%rcx), %xmm10             # xmm10 = mem[0],zero,zero,zero
	.loc	0 200 45                        # ldecod_src/parsetcommon.c:200:45
	pcmpeqb	%xmm6, %xmm10
	.loc	0 200 48                        # ldecod_src/parsetcommon.c:200:48
	movd	8(%r9,%rcx), %xmm6              # xmm6 = mem[0],zero,zero,zero
	.loc	0 200 45                        # ldecod_src/parsetcommon.c:200:45
	pcmpeqb	%xmm7, %xmm6
	.loc	0 200 48                        # ldecod_src/parsetcommon.c:200:48
	movd	12(%r9,%rcx), %xmm5             # xmm5 = mem[0],zero,zero,zero
	.loc	0 200 45                        # ldecod_src/parsetcommon.c:200:45
	pcmpeqb	%xmm8, %xmm5
	punpcklbw	%xmm9, %xmm9            # xmm9 = xmm9[0,0,1,1,2,2,3,3,4,4,5,5,6,6,7,7]
	punpcklwd	%xmm9, %xmm9            # xmm9 = xmm9[0,0,1,1,2,2,3,3]
	pxor	%xmm4, %xmm9
	por	%xmm9, %xmm0
	punpcklbw	%xmm10, %xmm10          # xmm10 = xmm10[0,0,1,1,2,2,3,3,4,4,5,5,6,6,7,7]
	punpcklwd	%xmm10, %xmm10          # xmm10 = xmm10[0,0,1,1,2,2,3,3]
	pxor	%xmm4, %xmm10
	por	%xmm10, %xmm3
	punpcklbw	%xmm6, %xmm6            # xmm6 = xmm6[0,0,1,1,2,2,3,3,4,4,5,5,6,6,7,7]
	punpcklwd	%xmm6, %xmm6            # xmm6 = xmm6[0,0,1,1,2,2,3,3]
	pxor	%xmm4, %xmm6
	por	%xmm6, %xmm2
	punpcklbw	%xmm5, %xmm5            # xmm5 = xmm5[0,0,1,1,2,2,3,3,4,4,5,5,6,6,7,7]
	punpcklwd	%xmm5, %xmm5            # xmm5 = xmm5[0,0,1,1,2,2,3,3]
	pxor	%xmm4, %xmm5
	por	%xmm5, %xmm1
	.loc	0 199 59 is_stmt 1              # ldecod_src/parsetcommon.c:199:59
	addq	$16, %rcx
	cmpl	%ecx, %r11d
	jne	.LBB5_23
.Ltmp122:
# %bb.24:                               # %middle.block
	#DEBUG_VALUE: pps_is_equal:pps1 <- $rdi
	#DEBUG_VALUE: pps_is_equal:pps2 <- $rsi
	#DEBUG_VALUE: pps_is_equal:equal <- 1
	#DEBUG_VALUE: pps_is_equal:i <- 0
	.loc	0 199 9 is_stmt 0               # ldecod_src/parsetcommon.c:199:9
	por	%xmm0, %xmm3
	por	%xmm3, %xmm2
	por	%xmm2, %xmm1
	pslld	$31, %xmm1
	movmskps	%xmm1, %ebp
	xorl	%ecx, %ecx
	testl	%ebp, %ebp
	sete	%cl
	cmpl	%r11d, %ebx
	je	.LBB5_26
.Ltmp123:
.LBB5_25:                               # %for.body112
                                        # =>This Inner Loop Header: Depth=1
	#DEBUG_VALUE: pps_is_equal:pps1 <- $rdi
	#DEBUG_VALUE: pps_is_equal:pps2 <- $rsi
	#DEBUG_VALUE: pps_is_equal:equal <- $ecx
	#DEBUG_VALUE: pps_is_equal:i <- $r11d
	.loc	0 200 21 is_stmt 1              # ldecod_src/parsetcommon.c:200:21
	movl	%r11d, %ebx
	movzbl	(%r8,%rbx), %ebp
	.loc	0 200 45 is_stmt 0              # ldecod_src/parsetcommon.c:200:45
	cmpb	(%r9,%rbx), %bpl
	.loc	0 200 17                        # ldecod_src/parsetcommon.c:200:17
	cmovnel	%r10d, %ecx
.Ltmp124:
	#DEBUG_VALUE: pps_is_equal:equal <- $ecx
	.loc	0 199 59 is_stmt 1              # ldecod_src/parsetcommon.c:199:59
	incl	%r11d
.Ltmp125:
	#DEBUG_VALUE: pps_is_equal:i <- $ebx
	#DEBUG_VALUE: pps_is_equal:i <- $r11d
	.loc	0 199 20 is_stmt 0              # ldecod_src/parsetcommon.c:199:20
	cmpl	%edx, %r11d
.Ltmp126:
	.loc	0 199 9                         # ldecod_src/parsetcommon.c:199:9
	jbe	.LBB5_25
	jmp	.LBB5_26
.Ltmp127:
.LBB5_10:                               # %for.cond.preheader
	#DEBUG_VALUE: pps_is_equal:pps1 <- $rdi
	#DEBUG_VALUE: pps_is_equal:pps2 <- $rsi
	#DEBUG_VALUE: pps_is_equal:equal <- 1
	#DEBUG_VALUE: pps_is_equal:i <- 0
	.loc	0 179 9 is_stmt 1               # ldecod_src/parsetcommon.c:179:9
	leal	1(%rdx), %r10d
	xorl	%r8d, %r8d
	movl	$0, %r9d
	cmpl	$16, %r10d
	jb	.LBB5_14
.Ltmp128:
# %bb.11:                               # %vector.ph465
	#DEBUG_VALUE: pps_is_equal:pps1 <- $rdi
	#DEBUG_VALUE: pps_is_equal:pps2 <- $rsi
	#DEBUG_VALUE: pps_is_equal:equal <- 1
	#DEBUG_VALUE: pps_is_equal:i <- 0
	movl	%r10d, %r9d
	andl	$-16, %r9d
	pxor	%xmm0, %xmm0
	xorl	%ecx, %ecx
	pcmpeqd	%xmm4, %xmm4
	pxor	%xmm3, %xmm3
	pxor	%xmm2, %xmm2
	pxor	%xmm1, %xmm1
.Ltmp129:
.LBB5_12:                               # %vector.body469
                                        # =>This Inner Loop Header: Depth=1
	#DEBUG_VALUE: pps_is_equal:pps1 <- $rdi
	#DEBUG_VALUE: pps_is_equal:pps2 <- $rsi
	#DEBUG_VALUE: pps_is_equal:equal <- 1
	#DEBUG_VALUE: pps_is_equal:i <- 0
	.loc	0 180 21                        # ldecod_src/parsetcommon.c:180:21
	movdqu	2052(%rdi,%rcx,4), %xmm5
	movdqu	2068(%rdi,%rcx,4), %xmm6
	movdqu	2084(%rdi,%rcx,4), %xmm7
	movdqu	2100(%rdi,%rcx,4), %xmm8
	.loc	0 180 51 is_stmt 0              # ldecod_src/parsetcommon.c:180:51
	movdqu	2052(%rsi,%rcx,4), %xmm9
	.loc	0 180 48                        # ldecod_src/parsetcommon.c:180:48
	pcmpeqd	%xmm5, %xmm9
	.loc	0 180 51                        # ldecod_src/parsetcommon.c:180:51
	movdqu	2068(%rsi,%rcx,4), %xmm5
	.loc	0 180 48                        # ldecod_src/parsetcommon.c:180:48
	pcmpeqd	%xmm6, %xmm5
	.loc	0 180 51                        # ldecod_src/parsetcommon.c:180:51
	movdqu	2084(%rsi,%rcx,4), %xmm6
	.loc	0 180 48                        # ldecod_src/parsetcommon.c:180:48
	pcmpeqd	%xmm7, %xmm6
	.loc	0 180 51                        # ldecod_src/parsetcommon.c:180:51
	movdqu	2100(%rsi,%rcx,4), %xmm7
	.loc	0 180 48                        # ldecod_src/parsetcommon.c:180:48
	pcmpeqd	%xmm8, %xmm7
	pxor	%xmm4, %xmm9
	por	%xmm9, %xmm0
	pxor	%xmm4, %xmm5
	por	%xmm5, %xmm3
	pxor	%xmm4, %xmm6
	por	%xmm6, %xmm2
	pxor	%xmm4, %xmm7
	por	%xmm7, %xmm1
	.loc	0 179 54 is_stmt 1              # ldecod_src/parsetcommon.c:179:54
	addq	$16, %rcx
	cmpl	%ecx, %r9d
	jne	.LBB5_12
.Ltmp130:
# %bb.13:                               # %middle.block462
	#DEBUG_VALUE: pps_is_equal:pps1 <- $rdi
	#DEBUG_VALUE: pps_is_equal:pps2 <- $rsi
	#DEBUG_VALUE: pps_is_equal:equal <- 1
	#DEBUG_VALUE: pps_is_equal:i <- 0
	.loc	0 179 9 is_stmt 0               # ldecod_src/parsetcommon.c:179:9
	por	%xmm0, %xmm3
	por	%xmm3, %xmm2
	por	%xmm2, %xmm1
	pslld	$31, %xmm1
	movmskps	%xmm1, %r11d
	xorl	%ecx, %ecx
	testl	%r11d, %r11d
	sete	%cl
	cmpl	%r9d, %r10d
	je	.LBB5_26
.Ltmp131:
	.p2align	4, 0x90
.LBB5_14:                               # %for.body
                                        # =>This Inner Loop Header: Depth=1
	#DEBUG_VALUE: pps_is_equal:pps1 <- $rdi
	#DEBUG_VALUE: pps_is_equal:pps2 <- $rsi
	#DEBUG_VALUE: pps_is_equal:equal <- $ecx
	#DEBUG_VALUE: pps_is_equal:i <- $r9d
	.loc	0 180 21 is_stmt 1              # ldecod_src/parsetcommon.c:180:21
	movl	%r9d, %r10d
	movl	2052(%rdi,%r10,4), %r11d
	.loc	0 180 48 is_stmt 0              # ldecod_src/parsetcommon.c:180:48
	cmpl	2052(%rsi,%r10,4), %r11d
	.loc	0 180 17                        # ldecod_src/parsetcommon.c:180:17
	cmovnel	%r8d, %ecx
.Ltmp132:
	#DEBUG_VALUE: pps_is_equal:equal <- $ecx
	.loc	0 179 54 is_stmt 1              # ldecod_src/parsetcommon.c:179:54
	incl	%r9d
.Ltmp133:
	#DEBUG_VALUE: pps_is_equal:i <- $r10d
	#DEBUG_VALUE: pps_is_equal:i <- $r9d
	.loc	0 179 20 is_stmt 0              # ldecod_src/parsetcommon.c:179:20
	cmpl	%edx, %r9d
.Ltmp134:
	.loc	0 179 9                         # ldecod_src/parsetcommon.c:179:9
	jbe	.LBB5_14
	jmp	.LBB5_26
.Ltmp135:
.LBB5_8:                                # %for.cond51.preheader
	#DEBUG_VALUE: pps_is_equal:pps1 <- $rdi
	#DEBUG_VALUE: pps_is_equal:pps2 <- $rsi
	#DEBUG_VALUE: pps_is_equal:equal <- 1
	#DEBUG_VALUE: pps_is_equal:i <- 0
	.loc	0 184 20 is_stmt 1              # ldecod_src/parsetcommon.c:184:20
	movl	%edx, %r8d
	xorl	%r9d, %r9d
.Ltmp136:
	.loc	0 184 9 is_stmt 0               # ldecod_src/parsetcommon.c:184:9
	cmpl	$1, %edx
	jne	.LBB5_15
.Ltmp137:
# %bb.9:
	#DEBUG_VALUE: pps_is_equal:pps1 <- $rdi
	#DEBUG_VALUE: pps_is_equal:pps2 <- $rsi
	#DEBUG_VALUE: pps_is_equal:equal <- 1
	#DEBUG_VALUE: pps_is_equal:i <- 0
	.loc	0 0 9                           # ldecod_src/parsetcommon.c:0:9
	xorl	%edx, %edx
	.loc	0 184 9                         # ldecod_src/parsetcommon.c:184:9
	jmp	.LBB5_17
.Ltmp138:
.LBB5_15:                               # %for.cond51.preheader.new
	#DEBUG_VALUE: pps_is_equal:pps1 <- $rdi
	#DEBUG_VALUE: pps_is_equal:pps2 <- $rsi
	#DEBUG_VALUE: pps_is_equal:equal <- 1
	#DEBUG_VALUE: pps_is_equal:i <- 0
	movl	%r8d, %r10d
	andl	$-2, %r10d
	xorl	%edx, %edx
.Ltmp139:
.LBB5_16:                               # %for.body55
                                        # =>This Inner Loop Header: Depth=1
	#DEBUG_VALUE: pps_is_equal:pps1 <- $rdi
	#DEBUG_VALUE: pps_is_equal:pps2 <- $rsi
	#DEBUG_VALUE: pps_is_equal:equal <- $ecx
	#DEBUG_VALUE: pps_is_equal:i <- $rdx
	.loc	0 186 21 is_stmt 1              # ldecod_src/parsetcommon.c:186:21
	movl	2084(%rdi,%rdx,4), %r11d
.Ltmp140:
	#DEBUG_VALUE: pps_is_equal:i <- [DW_OP_constu 1, DW_OP_or, DW_OP_stack_value] $rdx
	.loc	0 186 39 is_stmt 0              # ldecod_src/parsetcommon.c:186:39
	xorl	2084(%rsi,%rdx,4), %r11d
.Ltmp141:
	#DEBUG_VALUE: pps_is_equal:equal <- undef
	.loc	0 186 21                        # ldecod_src/parsetcommon.c:186:21
	movl	2088(%rdi,%rdx,4), %ebx
	.loc	0 187 21 is_stmt 1              # ldecod_src/parsetcommon.c:187:21
	movl	2116(%rdi,%rdx,4), %ebp
	.loc	0 187 43 is_stmt 0              # ldecod_src/parsetcommon.c:187:43
	xorl	2116(%rsi,%rdx,4), %ebp
	.loc	0 187 17                        # ldecod_src/parsetcommon.c:187:17
	orl	%r11d, %ebp
	.loc	0 186 39 is_stmt 1              # ldecod_src/parsetcommon.c:186:39
	xorl	2088(%rsi,%rdx,4), %ebx
	.loc	0 187 21                        # ldecod_src/parsetcommon.c:187:21
	movl	2120(%rdi,%rdx,4), %r11d
	.loc	0 187 43 is_stmt 0              # ldecod_src/parsetcommon.c:187:43
	xorl	2120(%rsi,%rdx,4), %r11d
	.loc	0 187 17                        # ldecod_src/parsetcommon.c:187:17
	orl	%ebx, %r11d
	orl	%ebp, %r11d
	cmovnel	%r9d, %ecx
.Ltmp142:
	#DEBUG_VALUE: pps_is_equal:equal <- $ecx
	.loc	0 184 53 is_stmt 1              # ldecod_src/parsetcommon.c:184:53
	addq	$2, %rdx
.Ltmp143:
	#DEBUG_VALUE: pps_is_equal:i <- $rdx
	.loc	0 184 9 is_stmt 0               # ldecod_src/parsetcommon.c:184:9
	cmpq	%rdx, %r10
	jne	.LBB5_16
.Ltmp144:
.LBB5_17:                               # %if.end130.loopexit531.unr-lcssa
	#DEBUG_VALUE: pps_is_equal:pps1 <- $rdi
	#DEBUG_VALUE: pps_is_equal:pps2 <- $rsi
	testb	$1, %r8b
	je	.LBB5_26
.Ltmp145:
# %bb.18:                               # %for.body55.epil
	#DEBUG_VALUE: pps_is_equal:pps1 <- $rdi
	#DEBUG_VALUE: pps_is_equal:pps2 <- $rsi
	#DEBUG_VALUE: pps_is_equal:equal <- $ecx
	#DEBUG_VALUE: pps_is_equal:i <- $rdx
	.loc	0 186 21 is_stmt 1              # ldecod_src/parsetcommon.c:186:21
	movl	2084(%rdi,%rdx,4), %r8d
.Ltmp146:
	#DEBUG_VALUE: pps_is_equal:equal <- undef
	.loc	0 187 21                        # ldecod_src/parsetcommon.c:187:21
	movl	2116(%rdi,%rdx,4), %r9d
	.loc	0 186 39                        # ldecod_src/parsetcommon.c:186:39
	xorl	2084(%rsi,%rdx,4), %r8d
	.loc	0 187 43                        # ldecod_src/parsetcommon.c:187:43
	xorl	2116(%rsi,%rdx,4), %r9d
	xorl	%edx, %edx
.Ltmp147:
	.loc	0 187 17 is_stmt 0              # ldecod_src/parsetcommon.c:187:17
	orl	%r8d, %r9d
	cmovnel	%edx, %ecx
.Ltmp148:
	#DEBUG_VALUE: pps_is_equal:equal <- $ecx
	#DEBUG_VALUE: pps_is_equal:i <- [DW_OP_plus_uconst 1, DW_OP_stack_value] undef
	.loc	0 0 17                          # ldecod_src/parsetcommon.c:0:17
	jmp	.LBB5_26
.Ltmp149:
.Lfunc_end5:
	.size	pps_is_equal, .Lfunc_end5-pps_is_equal
	.cfi_endproc
	.section	.rodata,"a",@progbits
	.p2align	3, 0x0
.LJTI5_0:
	.quad	.LBB5_10
	.quad	.LBB5_26
	.quad	.LBB5_8
	.quad	.LBB5_19
	.quad	.LBB5_19
	.quad	.LBB5_19
	.quad	.LBB5_20
                                        # -- End function
	.type	.L.str,@object                  # @.str
	.section	.rodata.str1.1,"aMS",@progbits,1
.L.str:
	.asciz	"AllocPPS: PPS"
	.size	.L.str, 14

	.type	.L.str.1,@object                # @.str.1
.L.str.1:
	.asciz	"AllocSPS: SPS"
	.size	.L.str.1, 14

	.file	4 "ldecod_src/inc" "parsetcommon.h" md5 0xd59d7e00f3aec3a23ed88314ae35b687
	.file	5 "ldecod_src/inc" "typedefs.h" md5 0xe1393d024b72e653f4e6dbeffdb0b154
	.section	".note.GNU-stack","",@progbits