	.text
	.file	"transform.c"
	.globl	forward4x4                      # -- Begin function forward4x4
	.p2align	4, 0x90
	.type	forward4x4,@function
forward4x4:                             # @forward4x4
.Lfunc_begin0:
	.file	0 "/home/yjs/workspace/x264-test/src" "ldecod_src/transform.c" md5 0xcc6314f658ce13aeb33c32a8f938f53a
	.loc	0 21 0                          # ldecod_src/transform.c:21:0
	.cfi_startproc
# %bb.0:                                # %for.cond17.preheader
	#DEBUG_VALUE: forward4x4:block <- $rdi
	#DEBUG_VALUE: forward4x4:tblock <- $rsi
	#DEBUG_VALUE: forward4x4:pos_y <- $edx
	#DEBUG_VALUE: forward4x4:pos_x <- $ecx
	pushq	%rbp
	.cfi_def_cfa_offset 16
	pushq	%r15
	.cfi_def_cfa_offset 24
	pushq	%r14
	.cfi_def_cfa_offset 32
	pushq	%r13
	.cfi_def_cfa_offset 40
	pushq	%r12
	.cfi_def_cfa_offset 48
	pushq	%rbx
	.cfi_def_cfa_offset 56
	.cfi_offset %rbx, -56
	.cfi_offset %r12, -48
	.cfi_offset %r13, -40
	.cfi_offset %r14, -32
	.cfi_offset %r15, -24
	.cfi_offset %rbp, -16
.Ltmp0:
	#DEBUG_VALUE: forward4x4:i <- $edx
	movq	%rsi, %r15
	movq	%rdi, %r13
	movslq	%ecx, %rdi
.Ltmp1:
	#DEBUG_VALUE: forward4x4:block <- $r13
	.loc	0 29 3 prologue_end             # ldecod_src/transform.c:29:3
	movslq	%edx, %r8
.Ltmp2:
	#DEBUG_VALUE: forward4x4:i <- $r8
	.loc	0 31 15                         # ldecod_src/transform.c:31:15
	movq	8(%r13,%r8,8), %rax
.Ltmp3:
	#DEBUG_VALUE: forward4x4:pblock <- [DW_OP_LLVM_arg 0, DW_OP_LLVM_arg 1, DW_OP_constu 4, DW_OP_mul, DW_OP_plus, DW_OP_plus_uconst 12, DW_OP_stack_value] $rax, $rdi
	#DEBUG_VALUE: forward4x4:pblock <- undef
	#DEBUG_VALUE: forward4x4:p0 <- undef
	#DEBUG_VALUE: forward4x4:p1 <- undef
	#DEBUG_VALUE: forward4x4:p2 <- undef
	#DEBUG_VALUE: forward4x4:tmp <- [DW_OP_LLVM_arg 0, DW_OP_LLVM_arg 3, DW_OP_plus, DW_OP_LLVM_arg 1, DW_OP_LLVM_arg 2, DW_OP_plus, DW_OP_plus, DW_OP_stack_value, DW_OP_LLVM_fragment 0 32] undef, undef, undef, undef
	#DEBUG_VALUE: forward4x4:tmp <- [DW_OP_LLVM_arg 0, DW_OP_LLVM_arg 3, DW_OP_minus, DW_OP_constu 1, DW_OP_shl, DW_OP_LLVM_arg 1, DW_OP_LLVM_arg 2, DW_OP_minus, DW_OP_plus, DW_OP_stack_value, DW_OP_LLVM_fragment 32 32] undef, undef, undef, undef
	#DEBUG_VALUE: forward4x4:tmp <- [DW_OP_LLVM_arg 0, DW_OP_LLVM_arg 3, DW_OP_plus, DW_OP_LLVM_arg 1, DW_OP_LLVM_arg 2, DW_OP_plus, DW_OP_minus, DW_OP_stack_value, DW_OP_LLVM_fragment 64 32] undef, undef, undef, undef
	#DEBUG_VALUE: forward4x4:tmp <- [DW_OP_LLVM_arg 0, DW_OP_LLVM_arg 3, DW_OP_minus, DW_OP_LLVM_arg 1, DW_OP_LLVM_arg 2, DW_OP_minus, DW_OP_constu 1, DW_OP_shl, DW_OP_minus, DW_OP_stack_value, DW_OP_LLVM_fragment 96 32] undef, undef, undef, undef
	#DEBUG_VALUE: forward4x4:p0 <- undef
	#DEBUG_VALUE: forward4x4:p1 <- undef
	#DEBUG_VALUE: forward4x4:p2 <- undef
	#DEBUG_VALUE: forward4x4:i <- [DW_OP_plus_uconst 4, DW_OP_stack_value] $r8
	movq	24(%r13,%r8,8), %rcx
.Ltmp4:
	#DEBUG_VALUE: forward4x4:pos_x <- [DW_OP_LLVM_entry_value 1] $ecx
	#DEBUG_VALUE: forward4x4:pblock <- [DW_OP_LLVM_arg 0, DW_OP_LLVM_arg 1, DW_OP_constu 4, DW_OP_mul, DW_OP_plus, DW_OP_plus_uconst 12, DW_OP_stack_value] $rcx, $rdi
	.loc	0 35 10                         # ldecod_src/transform.c:35:10
	movl	12(%rcx,%rdi,4), %esi
.Ltmp5:
	#DEBUG_VALUE: forward4x4:tblock <- $r15
	#DEBUG_VALUE: forward4x4:p3 <- $esi
	.loc	0 32 10                         # ldecod_src/transform.c:32:10
	movl	(%rcx,%rdi,4), %r10d
.Ltmp6:
	#DEBUG_VALUE: forward4x4:p0 <- $r10d
	.loc	0 33 10                         # ldecod_src/transform.c:33:10
	movl	4(%rcx,%rdi,4), %r11d
.Ltmp7:
	#DEBUG_VALUE: forward4x4:p1 <- $r11d
	#DEBUG_VALUE: forward4x4:t3 <- [DW_OP_LLVM_arg 0, DW_OP_LLVM_arg 1, DW_OP_minus, DW_OP_stack_value] $r10d, $esi
	#DEBUG_VALUE: forward4x4:t0 <- [DW_OP_LLVM_arg 0, DW_OP_LLVM_arg 1, DW_OP_plus, DW_OP_stack_value] $esi, $r10d
	.loc	0 40 13                         # ldecod_src/transform.c:40:13
	movl	%r10d, %edx
.Ltmp8:
	#DEBUG_VALUE: forward4x4:pos_y <- [DW_OP_LLVM_entry_value 1] $edx
	subl	%esi, %edx
.Ltmp9:
	#DEBUG_VALUE: forward4x4:t3 <- $edx
	.loc	0 0 13 is_stmt 0                # ldecod_src/transform.c:0:13
	movq	%rdx, -24(%rsp)                 # 8-byte Spill
.Ltmp10:
	#DEBUG_VALUE: forward4x4:t3 <- [DW_OP_constu 24, DW_OP_minus, DW_OP_deref] $rsp
	.loc	0 34 10 is_stmt 1               # ldecod_src/transform.c:34:10
	movl	8(%rcx,%rdi,4), %r14d
.Ltmp11:
	#DEBUG_VALUE: forward4x4:p2 <- $r14d
	#DEBUG_VALUE: forward4x4:t2 <- [DW_OP_LLVM_arg 0, DW_OP_LLVM_arg 1, DW_OP_minus, DW_OP_stack_value] $r11d, $r14d
	#DEBUG_VALUE: forward4x4:t1 <- [DW_OP_LLVM_arg 0, DW_OP_LLVM_arg 1, DW_OP_plus, DW_OP_stack_value] $r14d, $r11d
	#DEBUG_VALUE: forward4x4:tmp <- [DW_OP_LLVM_arg 0, DW_OP_constu 24, DW_OP_minus, DW_OP_deref, DW_OP_LLVM_arg 1, DW_OP_LLVM_arg 2, DW_OP_minus, DW_OP_constu 1, DW_OP_shl, DW_OP_minus, DW_OP_stack_value, DW_OP_LLVM_fragment 480 32] $rsp, $r11d, $r14d
	#DEBUG_VALUE: forward4x4:tmp <- [DW_OP_LLVM_arg 0, DW_OP_constu 24, DW_OP_minus, DW_OP_deref, DW_OP_constu 1, DW_OP_shl, DW_OP_LLVM_arg 1, DW_OP_LLVM_arg 2, DW_OP_minus, DW_OP_plus, DW_OP_stack_value, DW_OP_LLVM_fragment 416 32] $rsp, $r11d, $r14d
	#DEBUG_VALUE: forward4x4:tmp <- [DW_OP_LLVM_arg 0, DW_OP_LLVM_arg 3, DW_OP_plus, DW_OP_LLVM_arg 1, DW_OP_LLVM_arg 2, DW_OP_plus, DW_OP_plus, DW_OP_stack_value, DW_OP_LLVM_fragment 384 32] $esi, $r14d, $r11d, $r10d
	#DEBUG_VALUE: forward4x4:tmp <- [DW_OP_LLVM_arg 0, DW_OP_LLVM_arg 3, DW_OP_plus, DW_OP_LLVM_arg 1, DW_OP_LLVM_arg 2, DW_OP_plus, DW_OP_minus, DW_OP_stack_value, DW_OP_LLVM_fragment 448 32] $esi, $r14d, $r11d, $r10d
	.loc	0 39 13                         # ldecod_src/transform.c:39:13
	movl	%r11d, %ecx
.Ltmp12:
	subl	%r14d, %ecx
.Ltmp13:
	#DEBUG_VALUE: forward4x4:t2 <- $ecx
	#DEBUG_VALUE: forward4x4:tmp <- [DW_OP_LLVM_arg 0, DW_OP_constu 24, DW_OP_minus, DW_OP_deref, DW_OP_constu 1, DW_OP_shl, DW_OP_LLVM_arg 1, DW_OP_plus, DW_OP_stack_value, DW_OP_LLVM_fragment 416 32] $rsp, $ecx
	#DEBUG_VALUE: forward4x4:tmp <- [DW_OP_LLVM_arg 0, DW_OP_constu 24, DW_OP_minus, DW_OP_deref, DW_OP_LLVM_arg 1, DW_OP_constu 1, DW_OP_shl, DW_OP_minus, DW_OP_stack_value, DW_OP_LLVM_fragment 480 32] $rsp, $ecx
	.loc	0 0 13 is_stmt 0                # ldecod_src/transform.c:0:13
	movq	%rcx, -64(%rsp)                 # 8-byte Spill
.Ltmp14:
	#DEBUG_VALUE: forward4x4:tmp <- [DW_OP_LLVM_arg 0, DW_OP_constu 24, DW_OP_minus, DW_OP_deref, DW_OP_constu 1, DW_OP_shl, DW_OP_LLVM_arg 1, DW_OP_constu 64, DW_OP_minus, DW_OP_deref, DW_OP_plus, DW_OP_stack_value, DW_OP_LLVM_fragment 416 32] $rsp, $rsp
	#DEBUG_VALUE: forward4x4:tmp <- [DW_OP_LLVM_arg 0, DW_OP_constu 24, DW_OP_minus, DW_OP_deref, DW_OP_LLVM_arg 1, DW_OP_constu 64, DW_OP_minus, DW_OP_deref, DW_OP_constu 1, DW_OP_shl, DW_OP_minus, DW_OP_stack_value, DW_OP_LLVM_fragment 480 32] $rsp, $rsp
	#DEBUG_VALUE: forward4x4:t2 <- [DW_OP_constu 64, DW_OP_minus, DW_OP_deref] $rsp
	.loc	0 37 13 is_stmt 1               # ldecod_src/transform.c:37:13
	addl	%r10d, %esi
.Ltmp15:
	#DEBUG_VALUE: forward4x4:t0 <- $esi
	#DEBUG_VALUE: forward4x4:tmp <- [DW_OP_LLVM_arg 0, DW_OP_LLVM_arg 1, DW_OP_LLVM_arg 2, DW_OP_plus, DW_OP_minus, DW_OP_stack_value, DW_OP_LLVM_fragment 448 32] $esi, $r14d, $r11d
	#DEBUG_VALUE: forward4x4:tmp <- [DW_OP_LLVM_arg 0, DW_OP_LLVM_arg 1, DW_OP_LLVM_arg 2, DW_OP_plus, DW_OP_plus, DW_OP_stack_value, DW_OP_LLVM_fragment 384 32] $esi, $r14d, $r11d
	.loc	0 38 13                         # ldecod_src/transform.c:38:13
	addl	%r11d, %r14d
.Ltmp16:
	#DEBUG_VALUE: forward4x4:t1 <- $r14d
	#DEBUG_VALUE: forward4x4:tmp <- [DW_OP_LLVM_arg 0, DW_OP_LLVM_arg 1, DW_OP_plus, DW_OP_stack_value, DW_OP_LLVM_fragment 384 32] $esi, $r14d
	#DEBUG_VALUE: forward4x4:tmp <- [DW_OP_LLVM_arg 0, DW_OP_LLVM_arg 1, DW_OP_minus, DW_OP_stack_value, DW_OP_LLVM_fragment 448 32] $esi, $r14d
	.loc	0 44 21                         # ldecod_src/transform.c:44:21
	movl	%esi, %ecx
.Ltmp17:
	#DEBUG_VALUE: forward4x4:pblock <- [DW_OP_LLVM_arg 0, DW_OP_constu 64, DW_OP_minus, DW_OP_deref, DW_OP_LLVM_arg 1, DW_OP_constu 4, DW_OP_mul, DW_OP_plus, DW_OP_plus_uconst 12, DW_OP_stack_value] $rsp, $rdi
	subl	%r14d, %ecx
.Ltmp18:
	#DEBUG_VALUE: forward4x4:tmp <- [DW_OP_LLVM_fragment 448 32] $ecx
	#DEBUG_VALUE: forward4x4:tmp <- [DW_OP_LLVM_fragment 416 32] undef
	#DEBUG_VALUE: forward4x4:tmp <- [DW_OP_LLVM_arg 0, DW_OP_LLVM_arg 1, DW_OP_minus, DW_OP_stack_value, DW_OP_LLVM_fragment 480 32] undef, undef
	#DEBUG_VALUE: forward4x4:tmp <- [DW_OP_LLVM_fragment 480 32] undef
	#DEBUG_VALUE: forward4x4:tmp <- [DW_OP_LLVM_fragment 416 32] undef
	#DEBUG_VALUE: forward4x4:tmp <- [DW_OP_LLVM_fragment 416 32] undef
	#DEBUG_VALUE: forward4x4:p3 <- undef
	.loc	0 0 21 is_stmt 0                # ldecod_src/transform.c:0:21
	movq	%rcx, -8(%rsp)                  # 8-byte Spill
.Ltmp19:
	#DEBUG_VALUE: forward4x4:tmp <- [DW_OP_constu 8, DW_OP_minus, DW_OP_deref, DW_OP_LLVM_fragment 448 32] $rsp
	.loc	0 42 21 is_stmt 1               # ldecod_src/transform.c:42:21
	addl	%esi, %r14d
.Ltmp20:
	#DEBUG_VALUE: forward4x4:tmp <- [DW_OP_LLVM_fragment 384 32] $r14d
	.loc	0 31 15                         # ldecod_src/transform.c:31:15
	movq	16(%r13,%r8,8), %rcx
.Ltmp21:
	#DEBUG_VALUE: forward4x4:pblock <- [DW_OP_LLVM_arg 0, DW_OP_LLVM_arg 1, DW_OP_constu 4, DW_OP_mul, DW_OP_plus, DW_OP_plus_uconst 12, DW_OP_stack_value] $rcx, $rdi
	.loc	0 35 10                         # ldecod_src/transform.c:35:10
	movl	12(%rcx,%rdi,4), %r10d
.Ltmp22:
	#DEBUG_VALUE: forward4x4:p3 <- $r10d
	.loc	0 32 10                         # ldecod_src/transform.c:32:10
	movl	(%rcx,%rdi,4), %ebx
.Ltmp23:
	#DEBUG_VALUE: forward4x4:p0 <- $ebx
	.loc	0 33 10                         # ldecod_src/transform.c:33:10
	movl	4(%rcx,%rdi,4), %ebp
.Ltmp24:
	#DEBUG_VALUE: forward4x4:p1 <- $ebp
	#DEBUG_VALUE: forward4x4:t3 <- [DW_OP_LLVM_arg 0, DW_OP_LLVM_arg 1, DW_OP_minus, DW_OP_stack_value] $ebx, $r10d
	#DEBUG_VALUE: forward4x4:t0 <- [DW_OP_LLVM_arg 0, DW_OP_LLVM_arg 1, DW_OP_plus, DW_OP_stack_value] $r10d, $ebx
	.loc	0 40 13                         # ldecod_src/transform.c:40:13
	movl	%ebx, %edx
	subl	%r10d, %edx
.Ltmp25:
	#DEBUG_VALUE: forward4x4:t3 <- $edx
	.loc	0 0 13 is_stmt 0                # ldecod_src/transform.c:0:13
	movq	%rdx, -32(%rsp)                 # 8-byte Spill
.Ltmp26:
	#DEBUG_VALUE: forward4x4:t3 <- [DW_OP_constu 32, DW_OP_minus, DW_OP_deref] $rsp
	.loc	0 34 10 is_stmt 1               # ldecod_src/transform.c:34:10
	movl	8(%rcx,%rdi,4), %esi
.Ltmp27:
	#DEBUG_VALUE: forward4x4:p2 <- $esi
	#DEBUG_VALUE: forward4x4:t2 <- [DW_OP_LLVM_arg 0, DW_OP_LLVM_arg 1, DW_OP_minus, DW_OP_stack_value] $ebp, $esi
	#DEBUG_VALUE: forward4x4:t1 <- [DW_OP_LLVM_arg 0, DW_OP_LLVM_arg 1, DW_OP_plus, DW_OP_stack_value] $esi, $ebp
	#DEBUG_VALUE: forward4x4:tmp <- [DW_OP_LLVM_arg 0, DW_OP_constu 32, DW_OP_minus, DW_OP_deref, DW_OP_LLVM_arg 1, DW_OP_LLVM_arg 2, DW_OP_minus, DW_OP_constu 1, DW_OP_shl, DW_OP_minus, DW_OP_stack_value, DW_OP_LLVM_fragment 352 32] $rsp, $ebp, $esi
	#DEBUG_VALUE: forward4x4:tmp <- [DW_OP_LLVM_arg 0, DW_OP_constu 32, DW_OP_minus, DW_OP_deref, DW_OP_constu 1, DW_OP_shl, DW_OP_LLVM_arg 1, DW_OP_LLVM_arg 2, DW_OP_minus, DW_OP_plus, DW_OP_stack_value, DW_OP_LLVM_fragment 288 32] $rsp, $ebp, $esi
	#DEBUG_VALUE: forward4x4:tmp <- [DW_OP_LLVM_arg 0, DW_OP_LLVM_arg 3, DW_OP_plus, DW_OP_LLVM_arg 1, DW_OP_LLVM_arg 2, DW_OP_plus, DW_OP_plus, DW_OP_stack_value, DW_OP_LLVM_fragment 256 32] $r10d, $esi, $ebp, $ebx
	#DEBUG_VALUE: forward4x4:tmp <- [DW_OP_LLVM_arg 0, DW_OP_LLVM_arg 3, DW_OP_plus, DW_OP_LLVM_arg 1, DW_OP_LLVM_arg 2, DW_OP_plus, DW_OP_minus, DW_OP_stack_value, DW_OP_LLVM_fragment 320 32] $r10d, $esi, $ebp, $ebx
	.loc	0 39 13                         # ldecod_src/transform.c:39:13
	movl	%ebp, %ecx
.Ltmp28:
	subl	%esi, %ecx
.Ltmp29:
	#DEBUG_VALUE: forward4x4:t2 <- $ecx
	#DEBUG_VALUE: forward4x4:tmp <- [DW_OP_LLVM_arg 0, DW_OP_constu 32, DW_OP_minus, DW_OP_deref, DW_OP_constu 1, DW_OP_shl, DW_OP_LLVM_arg 1, DW_OP_plus, DW_OP_stack_value, DW_OP_LLVM_fragment 288 32] $rsp, $ecx
	#DEBUG_VALUE: forward4x4:tmp <- [DW_OP_LLVM_arg 0, DW_OP_constu 32, DW_OP_minus, DW_OP_deref, DW_OP_LLVM_arg 1, DW_OP_constu 1, DW_OP_shl, DW_OP_minus, DW_OP_stack_value, DW_OP_LLVM_fragment 352 32] $rsp, $ecx
	.loc	0 0 13 is_stmt 0                # ldecod_src/transform.c:0:13
	movq	%rcx, -40(%rsp)                 # 8-byte Spill
.Ltmp30:
	#DEBUG_VALUE: forward4x4:tmp <- [DW_OP_LLVM_arg 0, DW_OP_constu 32, DW_OP_minus, DW_OP_deref, DW_OP_constu 1, DW_OP_shl, DW_OP_LLVM_arg 1, DW_OP_constu 40, DW_OP_minus, DW_OP_deref, DW_OP_plus, DW_OP_stack_value, DW_OP_LLVM_fragment 288 32] $rsp, $rsp
	#DEBUG_VALUE: forward4x4:tmp <- [DW_OP_LLVM_arg 0, DW_OP_constu 32, DW_OP_minus, DW_OP_deref, DW_OP_LLVM_arg 1, DW_OP_constu 40, DW_OP_minus, DW_OP_deref, DW_OP_constu 1, DW_OP_shl, DW_OP_minus, DW_OP_stack_value, DW_OP_LLVM_fragment 352 32] $rsp, $rsp
	#DEBUG_VALUE: forward4x4:t2 <- [DW_OP_constu 40, DW_OP_minus, DW_OP_deref] $rsp
	.loc	0 37 13 is_stmt 1               # ldecod_src/transform.c:37:13
	addl	%ebx, %r10d
.Ltmp31:
	#DEBUG_VALUE: forward4x4:t0 <- $r10d
	#DEBUG_VALUE: forward4x4:tmp <- [DW_OP_LLVM_arg 0, DW_OP_LLVM_arg 1, DW_OP_LLVM_arg 2, DW_OP_plus, DW_OP_minus, DW_OP_stack_value, DW_OP_LLVM_fragment 320 32] $r10d, $esi, $ebp
	#DEBUG_VALUE: forward4x4:tmp <- [DW_OP_LLVM_arg 0, DW_OP_LLVM_arg 1, DW_OP_LLVM_arg 2, DW_OP_plus, DW_OP_plus, DW_OP_stack_value, DW_OP_LLVM_fragment 256 32] $r10d, $esi, $ebp
	.loc	0 38 13                         # ldecod_src/transform.c:38:13
	addl	%ebp, %esi
.Ltmp32:
	#DEBUG_VALUE: forward4x4:t1 <- $esi
	#DEBUG_VALUE: forward4x4:tmp <- [DW_OP_LLVM_arg 0, DW_OP_LLVM_arg 1, DW_OP_plus, DW_OP_stack_value, DW_OP_LLVM_fragment 256 32] $r10d, $esi
	#DEBUG_VALUE: forward4x4:tmp <- [DW_OP_LLVM_arg 0, DW_OP_LLVM_arg 1, DW_OP_minus, DW_OP_stack_value, DW_OP_LLVM_fragment 320 32] $r10d, $esi
	.loc	0 44 21                         # ldecod_src/transform.c:44:21
	movl	%r10d, %ecx
.Ltmp33:
	#DEBUG_VALUE: forward4x4:pblock <- [DW_OP_LLVM_arg 0, DW_OP_constu 40, DW_OP_minus, DW_OP_deref, DW_OP_LLVM_arg 1, DW_OP_constu 4, DW_OP_mul, DW_OP_plus, DW_OP_plus_uconst 12, DW_OP_stack_value] $rsp, $rdi
	subl	%esi, %ecx
.Ltmp34:
	#DEBUG_VALUE: forward4x4:tmp <- [DW_OP_LLVM_fragment 320 32] $ecx
	#DEBUG_VALUE: forward4x4:tmp <- [DW_OP_LLVM_fragment 288 32] undef
	#DEBUG_VALUE: forward4x4:tmp <- [DW_OP_LLVM_arg 0, DW_OP_LLVM_arg 1, DW_OP_minus, DW_OP_stack_value, DW_OP_LLVM_fragment 352 32] undef, undef
	#DEBUG_VALUE: forward4x4:tmp <- [DW_OP_LLVM_fragment 352 32] undef
	#DEBUG_VALUE: forward4x4:tmp <- [DW_OP_LLVM_fragment 288 32] undef
	#DEBUG_VALUE: forward4x4:tmp <- [DW_OP_LLVM_fragment 288 32] undef
	#DEBUG_VALUE: forward4x4:p2 <- undef
	.loc	0 0 21 is_stmt 0                # ldecod_src/transform.c:0:21
	movq	%rcx, -16(%rsp)                 # 8-byte Spill
.Ltmp35:
	#DEBUG_VALUE: forward4x4:tmp <- [DW_OP_constu 16, DW_OP_minus, DW_OP_deref, DW_OP_LLVM_fragment 320 32] $rsp
	.loc	0 42 21 is_stmt 1               # ldecod_src/transform.c:42:21
	addl	%r10d, %esi
.Ltmp36:
	#DEBUG_VALUE: forward4x4:tmp <- [DW_OP_LLVM_fragment 256 32] $esi
	.loc	0 35 10                         # ldecod_src/transform.c:35:10
	movl	12(%rax,%rdi,4), %r10d
.Ltmp37:
	#DEBUG_VALUE: forward4x4:p3 <- $r10d
	.loc	0 32 10                         # ldecod_src/transform.c:32:10
	movl	(%rax,%rdi,4), %ecx
.Ltmp38:
	#DEBUG_VALUE: forward4x4:p0 <- $ecx
	#DEBUG_VALUE: forward4x4:p1 <- undef
	#DEBUG_VALUE: forward4x4:t3 <- [DW_OP_LLVM_arg 0, DW_OP_LLVM_arg 1, DW_OP_minus, DW_OP_stack_value] $ecx, $r10d
	#DEBUG_VALUE: forward4x4:t0 <- [DW_OP_LLVM_arg 0, DW_OP_LLVM_arg 1, DW_OP_plus, DW_OP_stack_value] $r10d, $ecx
	.loc	0 40 13                         # ldecod_src/transform.c:40:13
	movl	%ecx, %edx
	subl	%r10d, %edx
.Ltmp39:
	#DEBUG_VALUE: forward4x4:t3 <- $edx
	#DEBUG_VALUE: forward4x4:p2 <- undef
	#DEBUG_VALUE: forward4x4:t2 <- [DW_OP_LLVM_arg 0, DW_OP_LLVM_arg 1, DW_OP_minus, DW_OP_stack_value] undef, undef
	#DEBUG_VALUE: forward4x4:t1 <- [DW_OP_LLVM_arg 0, DW_OP_LLVM_arg 1, DW_OP_plus, DW_OP_stack_value] undef, undef
	#DEBUG_VALUE: forward4x4:tmp <- [DW_OP_LLVM_arg 0, DW_OP_LLVM_arg 1, DW_OP_LLVM_arg 2, DW_OP_minus, DW_OP_constu 1, DW_OP_shl, DW_OP_minus, DW_OP_stack_value, DW_OP_LLVM_fragment 224 32] undef, undef, undef
	#DEBUG_VALUE: forward4x4:tmp <- [DW_OP_LLVM_arg 0, DW_OP_constu 1, DW_OP_shl, DW_OP_LLVM_arg 1, DW_OP_LLVM_arg 2, DW_OP_minus, DW_OP_plus, DW_OP_stack_value, DW_OP_LLVM_fragment 160 32] undef, undef, undef
	#DEBUG_VALUE: forward4x4:tmp <- [DW_OP_LLVM_arg 0, DW_OP_LLVM_arg 3, DW_OP_plus, DW_OP_LLVM_arg 1, DW_OP_LLVM_arg 2, DW_OP_plus, DW_OP_plus, DW_OP_stack_value, DW_OP_LLVM_fragment 128 32] undef, undef, undef, undef
	#DEBUG_VALUE: forward4x4:tmp <- [DW_OP_LLVM_arg 0, DW_OP_LLVM_arg 3, DW_OP_plus, DW_OP_LLVM_arg 1, DW_OP_LLVM_arg 2, DW_OP_plus, DW_OP_minus, DW_OP_stack_value, DW_OP_LLVM_fragment 192 32] undef, undef, undef, undef
	#DEBUG_VALUE: forward4x4:t2 <- undef
	#DEBUG_VALUE: forward4x4:tmp <- [DW_OP_LLVM_arg 0, DW_OP_constu 1, DW_OP_shl, DW_OP_LLVM_arg 1, DW_OP_plus, DW_OP_stack_value, DW_OP_LLVM_fragment 160 32] undef, undef
	#DEBUG_VALUE: forward4x4:tmp <- [DW_OP_LLVM_arg 0, DW_OP_LLVM_arg 1, DW_OP_constu 1, DW_OP_shl, DW_OP_minus, DW_OP_stack_value, DW_OP_LLVM_fragment 224 32] undef, undef
	.loc	0 0 13 is_stmt 0                # ldecod_src/transform.c:0:13
	movq	%rdx, -48(%rsp)                 # 8-byte Spill
.Ltmp40:
	#DEBUG_VALUE: forward4x4:t3 <- [DW_OP_constu 48, DW_OP_minus, DW_OP_deref] $rsp
	.loc	0 37 13 is_stmt 1               # ldecod_src/transform.c:37:13
	addl	%ecx, %r10d
.Ltmp41:
	#DEBUG_VALUE: forward4x4:t0 <- $r10d
	#DEBUG_VALUE: forward4x4:tmp <- [DW_OP_LLVM_arg 0, DW_OP_LLVM_arg 1, DW_OP_LLVM_arg 2, DW_OP_plus, DW_OP_minus, DW_OP_stack_value, DW_OP_LLVM_fragment 192 32] undef, undef, undef
	#DEBUG_VALUE: forward4x4:tmp <- [DW_OP_LLVM_arg 0, DW_OP_LLVM_arg 1, DW_OP_LLVM_arg 2, DW_OP_plus, DW_OP_plus, DW_OP_stack_value, DW_OP_LLVM_fragment 128 32] undef, undef, undef
	.loc	0 33 10                         # ldecod_src/transform.c:33:10
	movl	4(%rax,%rdi,4), %ebp
.Ltmp42:
	#DEBUG_VALUE: forward4x4:p1 <- $ebp
	.loc	0 34 10                         # ldecod_src/transform.c:34:10
	movl	8(%rax,%rdi,4), %ecx
.Ltmp43:
	#DEBUG_VALUE: forward4x4:tmp <- [DW_OP_LLVM_arg 0, DW_OP_LLVM_arg 1, DW_OP_LLVM_arg 2, DW_OP_plus, DW_OP_minus, DW_OP_stack_value, DW_OP_LLVM_fragment 192 32] $r10d, $ecx, $ebp
	#DEBUG_VALUE: forward4x4:tmp <- [DW_OP_LLVM_arg 0, DW_OP_LLVM_arg 1, DW_OP_LLVM_arg 2, DW_OP_plus, DW_OP_plus, DW_OP_stack_value, DW_OP_LLVM_fragment 128 32] $r10d, $ecx, $ebp
	#DEBUG_VALUE: forward4x4:tmp <- [DW_OP_LLVM_arg 0, DW_OP_constu 48, DW_OP_minus, DW_OP_deref, DW_OP_constu 1, DW_OP_shl, DW_OP_LLVM_arg 1, DW_OP_LLVM_arg 2, DW_OP_minus, DW_OP_plus, DW_OP_stack_value, DW_OP_LLVM_fragment 160 32] $rsp, $ebp, $ecx
	#DEBUG_VALUE: forward4x4:tmp <- [DW_OP_LLVM_arg 0, DW_OP_constu 48, DW_OP_minus, DW_OP_deref, DW_OP_LLVM_arg 1, DW_OP_LLVM_arg 2, DW_OP_minus, DW_OP_constu 1, DW_OP_shl, DW_OP_minus, DW_OP_stack_value, DW_OP_LLVM_fragment 224 32] $rsp, $ebp, $ecx
	#DEBUG_VALUE: forward4x4:t1 <- [DW_OP_LLVM_arg 0, DW_OP_LLVM_arg 1, DW_OP_plus, DW_OP_stack_value] $ecx, $ebp
	#DEBUG_VALUE: forward4x4:t2 <- [DW_OP_LLVM_arg 0, DW_OP_LLVM_arg 1, DW_OP_minus, DW_OP_stack_value] $ebp, $ecx
	#DEBUG_VALUE: forward4x4:p2 <- $ecx
	.loc	0 39 13                         # ldecod_src/transform.c:39:13
	movl	%ebp, %eax
	subl	%ecx, %eax
.Ltmp44:
	#DEBUG_VALUE: forward4x4:tmp <- [DW_OP_LLVM_arg 0, DW_OP_constu 48, DW_OP_minus, DW_OP_deref, DW_OP_constu 1, DW_OP_shl, DW_OP_LLVM_arg 1, DW_OP_plus, DW_OP_stack_value, DW_OP_LLVM_fragment 160 32] $rsp, $eax
	#DEBUG_VALUE: forward4x4:tmp <- [DW_OP_LLVM_arg 0, DW_OP_constu 48, DW_OP_minus, DW_OP_deref, DW_OP_LLVM_arg 1, DW_OP_constu 1, DW_OP_shl, DW_OP_minus, DW_OP_stack_value, DW_OP_LLVM_fragment 224 32] $rsp, $eax
	#DEBUG_VALUE: forward4x4:t2 <- $eax
	.loc	0 0 13 is_stmt 0                # ldecod_src/transform.c:0:13
	movq	%rax, -56(%rsp)                 # 8-byte Spill
	.loc	0 38 13 is_stmt 1               # ldecod_src/transform.c:38:13
	addl	%ebp, %ecx
.Ltmp45:
	#DEBUG_VALUE: forward4x4:t1 <- $ecx
	#DEBUG_VALUE: forward4x4:tmp <- [DW_OP_LLVM_arg 0, DW_OP_LLVM_arg 1, DW_OP_plus, DW_OP_stack_value, DW_OP_LLVM_fragment 128 32] $r10d, $ecx
	#DEBUG_VALUE: forward4x4:tmp <- [DW_OP_LLVM_arg 0, DW_OP_LLVM_arg 1, DW_OP_minus, DW_OP_stack_value, DW_OP_LLVM_fragment 192 32] $r10d, $ecx
	.loc	0 44 21                         # ldecod_src/transform.c:44:21
	movl	%r10d, %r11d
	subl	%ecx, %r11d
.Ltmp46:
	#DEBUG_VALUE: forward4x4:tmp <- [DW_OP_LLVM_fragment 192 32] $r11d
	#DEBUG_VALUE: forward4x4:tmp <- [DW_OP_LLVM_fragment 160 32] undef
	#DEBUG_VALUE: forward4x4:tmp <- [DW_OP_LLVM_arg 0, DW_OP_LLVM_arg 1, DW_OP_minus, DW_OP_stack_value, DW_OP_LLVM_fragment 224 32] undef, undef
	#DEBUG_VALUE: forward4x4:tmp <- [DW_OP_LLVM_fragment 224 32] undef
	#DEBUG_VALUE: forward4x4:tmp <- [DW_OP_LLVM_fragment 160 32] undef
	#DEBUG_VALUE: forward4x4:tmp <- [DW_OP_LLVM_fragment 160 32] undef
	#DEBUG_VALUE: forward4x4:p1 <- undef
	.loc	0 42 21                         # ldecod_src/transform.c:42:21
	addl	%r10d, %ecx
.Ltmp47:
	#DEBUG_VALUE: forward4x4:tmp <- [DW_OP_LLVM_fragment 128 32] $ecx
	.loc	0 31 15                         # ldecod_src/transform.c:31:15
	movq	(%r13,%r8,8), %rax
.Ltmp48:
	.loc	0 32 10                         # ldecod_src/transform.c:32:10
	movl	(%rax,%rdi,4), %ebp
	.loc	0 35 10                         # ldecod_src/transform.c:35:10
	movl	12(%rax,%rdi,4), %edx
	.loc	0 40 13                         # ldecod_src/transform.c:40:13
	movl	%ebp, %r12d
	subl	%edx, %r12d
.Ltmp49:
	#DEBUG_VALUE: forward4x4:tmp <- [DW_OP_LLVM_arg 0, DW_OP_LLVM_arg 1, DW_OP_LLVM_arg 2, DW_OP_minus, DW_OP_constu 1, DW_OP_shl, DW_OP_minus, DW_OP_stack_value, DW_OP_LLVM_fragment 96 32] undef, undef, undef
	#DEBUG_VALUE: forward4x4:tmp <- [DW_OP_LLVM_arg 0, DW_OP_constu 1, DW_OP_shl, DW_OP_LLVM_arg 1, DW_OP_LLVM_arg 2, DW_OP_minus, DW_OP_plus, DW_OP_stack_value, DW_OP_LLVM_fragment 32 32] undef, undef, undef
	#DEBUG_VALUE: forward4x4:t3 <- $r12d
	#DEBUG_VALUE: forward4x4:t2 <- undef
	#DEBUG_VALUE: forward4x4:tmp <- [DW_OP_LLVM_arg 0, DW_OP_constu 1, DW_OP_shl, DW_OP_LLVM_arg 1, DW_OP_plus, DW_OP_stack_value, DW_OP_LLVM_fragment 32 32] undef, undef
	#DEBUG_VALUE: forward4x4:tmp <- [DW_OP_LLVM_arg 0, DW_OP_LLVM_arg 1, DW_OP_constu 1, DW_OP_shl, DW_OP_minus, DW_OP_stack_value, DW_OP_LLVM_fragment 96 32] undef, undef
	.loc	0 37 13                         # ldecod_src/transform.c:37:13
	addl	%ebp, %edx
.Ltmp50:
	#DEBUG_VALUE: forward4x4:t0 <- $edx
	#DEBUG_VALUE: forward4x4:tmp <- [DW_OP_LLVM_arg 0, DW_OP_LLVM_arg 1, DW_OP_LLVM_arg 2, DW_OP_plus, DW_OP_minus, DW_OP_stack_value, DW_OP_LLVM_fragment 64 32] undef, undef, undef
	#DEBUG_VALUE: forward4x4:tmp <- [DW_OP_LLVM_arg 0, DW_OP_LLVM_arg 1, DW_OP_LLVM_arg 2, DW_OP_plus, DW_OP_plus, DW_OP_stack_value, DW_OP_LLVM_fragment 0 32] undef, undef, undef
	.loc	0 33 10                         # ldecod_src/transform.c:33:10
	movl	4(%rax,%rdi,4), %r13d
.Ltmp51:
	#DEBUG_VALUE: forward4x4:p1 <- $r13d
	#DEBUG_VALUE: forward4x4:block <- [DW_OP_LLVM_entry_value 1] $rdi
	.loc	0 34 10                         # ldecod_src/transform.c:34:10
	movl	8(%rax,%rdi,4), %eax
.Ltmp52:
	#DEBUG_VALUE: forward4x4:tmp <- [DW_OP_LLVM_arg 0, DW_OP_LLVM_arg 1, DW_OP_LLVM_arg 2, DW_OP_minus, DW_OP_constu 1, DW_OP_shl, DW_OP_minus, DW_OP_stack_value, DW_OP_LLVM_fragment 96 32] $r12d, $r13d, $eax
	#DEBUG_VALUE: forward4x4:tmp <- [DW_OP_LLVM_arg 0, DW_OP_LLVM_arg 1, DW_OP_LLVM_arg 2, DW_OP_plus, DW_OP_minus, DW_OP_stack_value, DW_OP_LLVM_fragment 64 32] $edx, $eax, $r13d
	#DEBUG_VALUE: forward4x4:tmp <- [DW_OP_LLVM_arg 0, DW_OP_constu 1, DW_OP_shl, DW_OP_LLVM_arg 1, DW_OP_LLVM_arg 2, DW_OP_minus, DW_OP_plus, DW_OP_stack_value, DW_OP_LLVM_fragment 32 32] $r12d, $r13d, $eax
	#DEBUG_VALUE: forward4x4:tmp <- [DW_OP_LLVM_arg 0, DW_OP_LLVM_arg 1, DW_OP_LLVM_arg 2, DW_OP_plus, DW_OP_plus, DW_OP_stack_value, DW_OP_LLVM_fragment 0 32] $edx, $eax, $r13d
	#DEBUG_VALUE: forward4x4:p2 <- $eax
	.loc	0 39 13                         # ldecod_src/transform.c:39:13
	movl	%r13d, %ebp
	subl	%eax, %ebp
.Ltmp53:
	#DEBUG_VALUE: forward4x4:t2 <- $ebp
	#DEBUG_VALUE: forward4x4:tmp <- [DW_OP_LLVM_arg 0, DW_OP_LLVM_arg 1, DW_OP_constu 1, DW_OP_shl, DW_OP_minus, DW_OP_stack_value, DW_OP_LLVM_fragment 96 32] $r12d, $ebp
	#DEBUG_VALUE: forward4x4:tmp <- [DW_OP_LLVM_arg 0, DW_OP_constu 1, DW_OP_shl, DW_OP_LLVM_arg 1, DW_OP_plus, DW_OP_stack_value, DW_OP_LLVM_fragment 32 32] $r12d, $ebp
	.loc	0 38 13                         # ldecod_src/transform.c:38:13
	addl	%r13d, %eax
.Ltmp54:
	#DEBUG_VALUE: forward4x4:t1 <- $eax
	#DEBUG_VALUE: forward4x4:tmp <- [DW_OP_LLVM_arg 0, DW_OP_LLVM_arg 1, DW_OP_plus, DW_OP_stack_value, DW_OP_LLVM_fragment 0 32] $edx, $eax
	#DEBUG_VALUE: forward4x4:tmp <- [DW_OP_LLVM_arg 0, DW_OP_LLVM_arg 1, DW_OP_minus, DW_OP_stack_value, DW_OP_LLVM_fragment 64 32] $edx, $eax
	.loc	0 44 21                         # ldecod_src/transform.c:44:21
	movl	%edx, %r13d
.Ltmp55:
	subl	%eax, %r13d
.Ltmp56:
	#DEBUG_VALUE: forward4x4:tmp <- [DW_OP_LLVM_fragment 64 32] $r13d
	#DEBUG_VALUE: forward4x4:tmp <- [DW_OP_LLVM_fragment 32 32] undef
	#DEBUG_VALUE: forward4x4:tmp <- [DW_OP_LLVM_arg 0, DW_OP_LLVM_arg 1, DW_OP_minus, DW_OP_stack_value, DW_OP_LLVM_fragment 96 32] undef, undef
	#DEBUG_VALUE: forward4x4:tmp <- [DW_OP_LLVM_fragment 96 32] undef
	#DEBUG_VALUE: forward4x4:tmp <- [DW_OP_LLVM_fragment 32 32] undef
	#DEBUG_VALUE: forward4x4:p0 <- undef
	.loc	0 42 21                         # ldecod_src/transform.c:42:21
	addl	%edx, %eax
.Ltmp57:
	#DEBUG_VALUE: forward4x4:tmp <- [DW_OP_LLVM_fragment 0 32] $eax
	#DEBUG_VALUE: forward4x4:tmp <- [DW_OP_LLVM_fragment 480 32] undef
	#DEBUG_VALUE: forward4x4:tmp <- [DW_OP_constu 8, DW_OP_minus, DW_OP_deref, DW_OP_LLVM_fragment 448 32] $rsp
	#DEBUG_VALUE: forward4x4:tmp <- [DW_OP_LLVM_fragment 384 32] $r14d
	#DEBUG_VALUE: forward4x4:tmp <- [DW_OP_LLVM_fragment 128 32] $ecx
	#DEBUG_VALUE: forward4x4:tmp <- [DW_OP_LLVM_fragment 192 32] $r11d
	#DEBUG_VALUE: forward4x4:tmp <- [DW_OP_LLVM_fragment 224 32] undef
	#DEBUG_VALUE: forward4x4:tmp <- [DW_OP_LLVM_fragment 256 32] $esi
	#DEBUG_VALUE: forward4x4:tmp <- [DW_OP_constu 16, DW_OP_minus, DW_OP_deref, DW_OP_LLVM_fragment 320 32] $rsp
	#DEBUG_VALUE: forward4x4:tmp <- [DW_OP_LLVM_fragment 352 32] undef
	#DEBUG_VALUE: forward4x4:i <- 0
	#DEBUG_VALUE: forward4x4:p0 <- $eax
	#DEBUG_VALUE: forward4x4:p1 <- $ecx
	#DEBUG_VALUE: forward4x4:p2 <- $esi
	#DEBUG_VALUE: forward4x4:p3 <- $r14d
	.loc	0 57 13                         # ldecod_src/transform.c:57:13
	leal	(%r14,%rax), %edx
.Ltmp58:
	#DEBUG_VALUE: forward4x4:t0 <- $edx
	.loc	0 58 13                         # ldecod_src/transform.c:58:13
	leal	(%rsi,%rcx), %r10d
.Ltmp59:
	#DEBUG_VALUE: forward4x4:t1 <- $r10d
	#DEBUG_VALUE: forward4x4:t2 <- undef
	#DEBUG_VALUE: forward4x4:t3 <- undef
	#DEBUG_VALUE: forward4x4:ii <- $rdi
	.loc	0 63 32                         # ldecod_src/transform.c:63:32
	leal	(%rdx,%r10), %r9d
	.loc	0 63 5 is_stmt 0                # ldecod_src/transform.c:63:5
	movq	(%r15,%r8,8), %rbx
	.loc	0 63 27                         # ldecod_src/transform.c:63:27
	movl	%r9d, (%rbx,%rdi,4)
	.loc	0 59 13 is_stmt 1               # ldecod_src/transform.c:59:13
	subl	%esi, %ecx
.Ltmp60:
	#DEBUG_VALUE: forward4x4:t2 <- $ecx
	.loc	0 60 13                         # ldecod_src/transform.c:60:13
	subl	%r14d, %eax
.Ltmp61:
	#DEBUG_VALUE: forward4x4:t3 <- $eax
	.loc	0 64 32                         # ldecod_src/transform.c:64:32
	leal	(%rcx,%rax,2), %esi
.Ltmp62:
	.loc	0 64 5 is_stmt 0                # ldecod_src/transform.c:64:5
	movq	8(%r15,%r8,8), %r9
	.loc	0 64 27                         # ldecod_src/transform.c:64:27
	movl	%esi, (%r9,%rdi,4)
	.loc	0 65 32 is_stmt 1               # ldecod_src/transform.c:65:32
	subl	%r10d, %edx
.Ltmp63:
	.loc	0 65 5 is_stmt 0                # ldecod_src/transform.c:65:5
	movq	16(%r15,%r8,8), %rsi
	.loc	0 65 27                         # ldecod_src/transform.c:65:27
	movl	%edx, (%rsi,%rdi,4)
	.loc	0 66 38 is_stmt 1               # ldecod_src/transform.c:66:38
	addl	%ecx, %ecx
.Ltmp64:
	.loc	0 66 32 is_stmt 0               # ldecod_src/transform.c:66:32
	subl	%ecx, %eax
.Ltmp65:
	.loc	0 66 5                          # ldecod_src/transform.c:66:5
	movq	24(%r15,%r8,8), %rcx
	.loc	0 66 27                         # ldecod_src/transform.c:66:27
	movl	%eax, (%rcx,%rdi,4)
.Ltmp66:
	#DEBUG_VALUE: forward4x4:i <- 1
	.loc	0 0 27                          # ldecod_src/transform.c:0:27
	movq	-24(%rsp), %rax                 # 8-byte Reload
	movq	-64(%rsp), %rcx                 # 8-byte Reload
.Ltmp67:
	.loc	0 43 27 is_stmt 1               # ldecod_src/transform.c:43:27
	leal	(%rcx,%rax,2), %edx
.Ltmp68:
	#DEBUG_VALUE: forward4x4:tmp <- [DW_OP_LLVM_fragment 416 32] $edx
	#DEBUG_VALUE: forward4x4:tmp <- [DW_OP_LLVM_fragment 416 32] $edx
	.loc	0 0 27 is_stmt 0                # ldecod_src/transform.c:0:27
	movq	-32(%rsp), %rax                 # 8-byte Reload
	movq	-40(%rsp), %rcx                 # 8-byte Reload
	.loc	0 43 27                         # ldecod_src/transform.c:43:27
	leal	(%rcx,%rax,2), %esi
.Ltmp69:
	#DEBUG_VALUE: forward4x4:tmp <- [DW_OP_LLVM_fragment 288 32] $esi
	#DEBUG_VALUE: forward4x4:tmp <- [DW_OP_LLVM_fragment 288 32] $esi
	.loc	0 0 27                          # ldecod_src/transform.c:0:27
	movq	-48(%rsp), %rax                 # 8-byte Reload
	movq	-56(%rsp), %rcx                 # 8-byte Reload
	.loc	0 43 27                         # ldecod_src/transform.c:43:27
	leal	(%rcx,%rax,2), %ecx
.Ltmp70:
	#DEBUG_VALUE: forward4x4:tmp <- [DW_OP_LLVM_fragment 160 32] $ecx
	#DEBUG_VALUE: forward4x4:tmp <- [DW_OP_LLVM_fragment 160 32] $ecx
	leal	(%rbp,%r12,2), %eax
.Ltmp71:
	#DEBUG_VALUE: forward4x4:tmp <- [DW_OP_LLVM_fragment 32 32] $eax
	.loc	0 57 13 is_stmt 1               # ldecod_src/transform.c:57:13
	leal	(%rdx,%rax), %r9d
.Ltmp72:
	#DEBUG_VALUE: forward4x4:t0 <- $r9d
	.loc	0 58 13                         # ldecod_src/transform.c:58:13
	leal	(%rsi,%rcx), %r10d
.Ltmp73:
	#DEBUG_VALUE: forward4x4:t1 <- $r10d
	#DEBUG_VALUE: forward4x4:t2 <- undef
	#DEBUG_VALUE: forward4x4:t3 <- undef
	#DEBUG_VALUE: forward4x4:ii <- undef
	.loc	0 63 32                         # ldecod_src/transform.c:63:32
	leal	(%r9,%r10), %ebx
	.loc	0 63 5 is_stmt 0                # ldecod_src/transform.c:63:5
	movq	(%r15,%r8,8), %r14
.Ltmp74:
	.loc	0 63 27                         # ldecod_src/transform.c:63:27
	movl	%ebx, 4(%r14,%rdi,4)
	.loc	0 59 13 is_stmt 1               # ldecod_src/transform.c:59:13
	subl	%esi, %ecx
.Ltmp75:
	#DEBUG_VALUE: forward4x4:t2 <- $ecx
	.loc	0 60 13                         # ldecod_src/transform.c:60:13
	subl	%edx, %eax
.Ltmp76:
	#DEBUG_VALUE: forward4x4:t3 <- $eax
	.loc	0 64 32                         # ldecod_src/transform.c:64:32
	leal	(%rcx,%rax,2), %edx
.Ltmp77:
	.loc	0 64 5 is_stmt 0                # ldecod_src/transform.c:64:5
	movq	8(%r15,%r8,8), %rsi
.Ltmp78:
	.loc	0 64 27                         # ldecod_src/transform.c:64:27
	movl	%edx, 4(%rsi,%rdi,4)
	.loc	0 65 32 is_stmt 1               # ldecod_src/transform.c:65:32
	subl	%r10d, %r9d
.Ltmp79:
	.loc	0 65 5 is_stmt 0                # ldecod_src/transform.c:65:5
	movq	16(%r15,%r8,8), %rdx
	.loc	0 65 27                         # ldecod_src/transform.c:65:27
	movl	%r9d, 4(%rdx,%rdi,4)
	.loc	0 66 38 is_stmt 1               # ldecod_src/transform.c:66:38
	addl	%ecx, %ecx
.Ltmp80:
	.loc	0 66 32 is_stmt 0               # ldecod_src/transform.c:66:32
	subl	%ecx, %eax
.Ltmp81:
	.loc	0 66 5                          # ldecod_src/transform.c:66:5
	movq	24(%r15,%r8,8), %rcx
	.loc	0 66 27                         # ldecod_src/transform.c:66:27
	movl	%eax, 4(%rcx,%rdi,4)
.Ltmp82:
	#DEBUG_VALUE: forward4x4:i <- 2
	#DEBUG_VALUE: forward4x4:p0 <- $r13d
	#DEBUG_VALUE: forward4x4:p1 <- $r11d
	#DEBUG_VALUE: forward4x4:p2 <- [DW_OP_constu 16, DW_OP_minus, DW_OP_deref] $rsp
	#DEBUG_VALUE: forward4x4:p3 <- [DW_OP_constu 8, DW_OP_minus, DW_OP_deref] $rsp
	.loc	0 0 27                          # ldecod_src/transform.c:0:27
	movq	-8(%rsp), %r9                   # 8-byte Reload
	.loc	0 57 13 is_stmt 1               # ldecod_src/transform.c:57:13
	leal	(%r9,%r13), %eax
.Ltmp83:
	#DEBUG_VALUE: forward4x4:t0 <- $eax
	.loc	0 0 13 is_stmt 0                # ldecod_src/transform.c:0:13
	movq	-16(%rsp), %r10                 # 8-byte Reload
.Ltmp84:
	.loc	0 58 13 is_stmt 1               # ldecod_src/transform.c:58:13
	leal	(%r10,%r11), %ecx
.Ltmp85:
	#DEBUG_VALUE: forward4x4:t1 <- $ecx
	#DEBUG_VALUE: forward4x4:t2 <- undef
	#DEBUG_VALUE: forward4x4:t3 <- undef
	.loc	0 63 32                         # ldecod_src/transform.c:63:32
	leal	(%rax,%rcx), %edx
	.loc	0 63 5 is_stmt 0                # ldecod_src/transform.c:63:5
	movq	(%r15,%r8,8), %rsi
	.loc	0 63 27                         # ldecod_src/transform.c:63:27
	movl	%edx, 8(%rsi,%rdi,4)
	.loc	0 59 13 is_stmt 1               # ldecod_src/transform.c:59:13
	subl	%r10d, %r11d
.Ltmp86:
	#DEBUG_VALUE: forward4x4:t2 <- $r11d
	.loc	0 60 13                         # ldecod_src/transform.c:60:13
	subl	%r9d, %r13d
.Ltmp87:
	#DEBUG_VALUE: forward4x4:t3 <- $r13d
	.loc	0 64 32                         # ldecod_src/transform.c:64:32
	leal	(%r11,%r13,2), %edx
	.loc	0 64 5 is_stmt 0                # ldecod_src/transform.c:64:5
	movq	8(%r15,%r8,8), %rsi
	.loc	0 64 27                         # ldecod_src/transform.c:64:27
	movl	%edx, 8(%rsi,%rdi,4)
	.loc	0 65 32 is_stmt 1               # ldecod_src/transform.c:65:32
	subl	%ecx, %eax
.Ltmp88:
	.loc	0 65 5 is_stmt 0                # ldecod_src/transform.c:65:5
	movq	16(%r15,%r8,8), %rcx
.Ltmp89:
	.loc	0 65 27                         # ldecod_src/transform.c:65:27
	movl	%eax, 8(%rcx,%rdi,4)
	movq	-64(%rsp), %rax                 # 8-byte Reload
.Ltmp90:
	.loc	0 45 27 is_stmt 1               # ldecod_src/transform.c:45:27
	addl	%eax, %eax
.Ltmp91:
	#DEBUG_VALUE: forward4x4:tmp <- [DW_OP_LLVM_arg 0, DW_OP_constu 24, DW_OP_minus, DW_OP_deref, DW_OP_LLVM_arg 1, DW_OP_minus, DW_OP_stack_value, DW_OP_LLVM_fragment 480 32] $rsp, $eax
	.loc	0 0 27 is_stmt 0                # ldecod_src/transform.c:0:27
	movq	-24(%rsp), %rcx                 # 8-byte Reload
                                        # kill: def $ecx killed $ecx killed $rcx def $rcx
	.loc	0 45 21                         # ldecod_src/transform.c:45:21
	subl	%eax, %ecx
.Ltmp92:
	#DEBUG_VALUE: forward4x4:tmp <- [DW_OP_LLVM_fragment 480 32] $ecx
	#DEBUG_VALUE: forward4x4:tmp <- [DW_OP_LLVM_fragment 480 32] $ecx
	.loc	0 0 21                          # ldecod_src/transform.c:0:21
	movq	-40(%rsp), %rax                 # 8-byte Reload
	.loc	0 45 27                         # ldecod_src/transform.c:45:27
	addl	%eax, %eax
.Ltmp93:
	#DEBUG_VALUE: forward4x4:tmp <- [DW_OP_LLVM_arg 0, DW_OP_constu 32, DW_OP_minus, DW_OP_deref, DW_OP_LLVM_arg 1, DW_OP_minus, DW_OP_stack_value, DW_OP_LLVM_fragment 352 32] $rsp, $eax
	.loc	0 0 27                          # ldecod_src/transform.c:0:27
	movq	-32(%rsp), %rdx                 # 8-byte Reload
                                        # kill: def $edx killed $edx killed $rdx def $rdx
	.loc	0 45 21                         # ldecod_src/transform.c:45:21
	subl	%eax, %edx
.Ltmp94:
	#DEBUG_VALUE: forward4x4:tmp <- [DW_OP_LLVM_fragment 352 32] $edx
	#DEBUG_VALUE: forward4x4:tmp <- [DW_OP_LLVM_fragment 352 32] $edx
	.loc	0 0 21                          # ldecod_src/transform.c:0:21
	movq	-56(%rsp), %rax                 # 8-byte Reload
	.loc	0 45 27                         # ldecod_src/transform.c:45:27
	addl	%eax, %eax
.Ltmp95:
	#DEBUG_VALUE: forward4x4:tmp <- [DW_OP_LLVM_arg 0, DW_OP_constu 48, DW_OP_minus, DW_OP_deref, DW_OP_LLVM_arg 1, DW_OP_minus, DW_OP_stack_value, DW_OP_LLVM_fragment 224 32] $rsp, $eax
	.loc	0 0 27                          # ldecod_src/transform.c:0:27
	movq	-48(%rsp), %rbx                 # 8-byte Reload
                                        # kill: def $ebx killed $ebx killed $rbx def $rbx
	.loc	0 45 21                         # ldecod_src/transform.c:45:21
	subl	%eax, %ebx
.Ltmp96:
	#DEBUG_VALUE: forward4x4:tmp <- [DW_OP_LLVM_fragment 224 32] $ebx
	#DEBUG_VALUE: forward4x4:tmp <- [DW_OP_LLVM_fragment 224 32] $ebx
	movl	%r12d, %r10d
	subl	%ebp, %r10d
	subl	%ebp, %r10d
.Ltmp97:
	#DEBUG_VALUE: forward4x4:tmp <- [DW_OP_LLVM_fragment 96 32] $r10d
	.loc	0 66 38 is_stmt 1               # ldecod_src/transform.c:66:38
	addl	%r11d, %r11d
.Ltmp98:
	.loc	0 66 32 is_stmt 0               # ldecod_src/transform.c:66:32
	subl	%r11d, %r13d
.Ltmp99:
	.loc	0 66 5                          # ldecod_src/transform.c:66:5
	movq	24(%r15,%r8,8), %rax
	.loc	0 66 27                         # ldecod_src/transform.c:66:27
	movl	%r13d, 8(%rax,%rdi,4)
.Ltmp100:
	#DEBUG_VALUE: forward4x4:i <- 3
	#DEBUG_VALUE: forward4x4:p0 <- $r10d
	#DEBUG_VALUE: forward4x4:p1 <- $ebx
	#DEBUG_VALUE: forward4x4:p2 <- $edx
	#DEBUG_VALUE: forward4x4:p3 <- $ecx
	.loc	0 57 13 is_stmt 1               # ldecod_src/transform.c:57:13
	leal	(%rcx,%r10), %eax
.Ltmp101:
	#DEBUG_VALUE: forward4x4:t0 <- $eax
	.loc	0 58 13                         # ldecod_src/transform.c:58:13
	leal	(%rdx,%rbx), %esi
.Ltmp102:
	#DEBUG_VALUE: forward4x4:t1 <- $esi
	.loc	0 59 13                         # ldecod_src/transform.c:59:13
	subl	%edx, %ebx
.Ltmp103:
	#DEBUG_VALUE: forward4x4:t2 <- $ebx
	.loc	0 60 13                         # ldecod_src/transform.c:60:13
	subl	%ecx, %r10d
.Ltmp104:
	#DEBUG_VALUE: forward4x4:t3 <- $r10d
	.loc	0 63 32                         # ldecod_src/transform.c:63:32
	leal	(%rax,%rsi), %ecx
.Ltmp105:
	.loc	0 63 5 is_stmt 0                # ldecod_src/transform.c:63:5
	movq	(%r15,%r8,8), %rdx
.Ltmp106:
	.loc	0 63 27                         # ldecod_src/transform.c:63:27
	movl	%ecx, 12(%rdx,%rdi,4)
	.loc	0 64 32 is_stmt 1               # ldecod_src/transform.c:64:32
	leal	(%rbx,%r10,2), %ecx
	.loc	0 64 5 is_stmt 0                # ldecod_src/transform.c:64:5
	movq	8(%r15,%r8,8), %rdx
	.loc	0 64 27                         # ldecod_src/transform.c:64:27
	movl	%ecx, 12(%rdx,%rdi,4)
	.loc	0 65 32 is_stmt 1               # ldecod_src/transform.c:65:32
	subl	%esi, %eax
.Ltmp107:
	.loc	0 65 5 is_stmt 0                # ldecod_src/transform.c:65:5
	movq	16(%r15,%r8,8), %rcx
	.loc	0 65 27                         # ldecod_src/transform.c:65:27
	movl	%eax, 12(%rcx,%rdi,4)
	.loc	0 66 38 is_stmt 1               # ldecod_src/transform.c:66:38
	addl	%ebx, %ebx
.Ltmp108:
	.loc	0 66 32 is_stmt 0               # ldecod_src/transform.c:66:32
	subl	%ebx, %r10d
.Ltmp109:
	.loc	0 66 5                          # ldecod_src/transform.c:66:5
	movq	24(%r15,%r8,8), %rax
	.loc	0 66 27                         # ldecod_src/transform.c:66:27
	movl	%r10d, 12(%rax,%rdi,4)
.Ltmp110:
	#DEBUG_VALUE: forward4x4:i <- 4
	.loc	0 68 1 epilogue_begin is_stmt 1 # ldecod_src/transform.c:68:1
	popq	%rbx
	.cfi_def_cfa_offset 48
	popq	%r12
	.cfi_def_cfa_offset 40
	popq	%r13
	.cfi_def_cfa_offset 32
	popq	%r14
	.cfi_def_cfa_offset 24
	popq	%r15
.Ltmp111:
	#DEBUG_VALUE: forward4x4:tblock <- [DW_OP_LLVM_entry_value 1] $rsi
	.cfi_def_cfa_offset 16
	popq	%rbp
	.cfi_def_cfa_offset 8
	retq
.Ltmp112:
.Lfunc_end0:
	.size	forward4x4, .Lfunc_end0-forward4x4
	.cfi_endproc
                                        # -- End function
	.globl	inverse4x4                      # -- Begin function inverse4x4
	.p2align	4, 0x90
	.type	inverse4x4,@function
inverse4x4:                             # @inverse4x4
.Lfunc_begin1:
	.loc	0 71 0                          # ldecod_src/transform.c:71:0
	.cfi_startproc
# %bb.0:                                # %for.cond17.preheader
	#DEBUG_VALUE: inverse4x4:tblock <- $rdi
	#DEBUG_VALUE: inverse4x4:block <- $rsi
	#DEBUG_VALUE: inverse4x4:pos_y <- $edx
	#DEBUG_VALUE: inverse4x4:pos_x <- $ecx
	pushq	%rbp
	.cfi_def_cfa_offset 16
	pushq	%r15
	.cfi_def_cfa_offset 24
	pushq	%r14
	.cfi_def_cfa_offset 32
	pushq	%r13
	.cfi_def_cfa_offset 40
	pushq	%r12
	.cfi_def_cfa_offset 48
	pushq	%rbx
	.cfi_def_cfa_offset 56
	.cfi_offset %rbx, -56
	.cfi_offset %r12, -48
	.cfi_offset %r13, -40
	.cfi_offset %r14, -32
	.cfi_offset %r15, -24
	.cfi_offset %rbp, -16
.Ltmp113:
	#DEBUG_VALUE: inverse4x4:i <- $edx
	movl	%edx, %eax
	movq	%rsi, %r12
	movq	%rdi, %rdx
.Ltmp114:
	#DEBUG_VALUE: inverse4x4:i <- $eax
	#DEBUG_VALUE: inverse4x4:pos_y <- $eax
	movslq	%ecx, %rsi
.Ltmp115:
	#DEBUG_VALUE: inverse4x4:block <- $r12
	.loc	0 79 3 prologue_end             # ldecod_src/transform.c:79:3
	movslq	%eax, %r11
.Ltmp116:
	#DEBUG_VALUE: inverse4x4:i <- $r11
	#DEBUG_VALUE: inverse4x4:pblock <- [DW_OP_LLVM_arg 0, DW_OP_LLVM_arg 1, DW_OP_constu 4, DW_OP_mul, DW_OP_plus, DW_OP_plus_uconst 12, DW_OP_stack_value] undef, undef
	#DEBUG_VALUE: inverse4x4:pblock <- undef
	#DEBUG_VALUE: inverse4x4:t0 <- undef
	#DEBUG_VALUE: inverse4x4:t1 <- undef
	#DEBUG_VALUE: inverse4x4:t2 <- undef
	#DEBUG_VALUE: inverse4x4:tmp <- [DW_OP_LLVM_arg 0, DW_OP_constu 1, DW_OP_shra, DW_OP_LLVM_arg 2, DW_OP_plus, DW_OP_LLVM_arg 1, DW_OP_LLVM_arg 3, DW_OP_plus, DW_OP_plus, DW_OP_stack_value, DW_OP_LLVM_fragment 0 32] undef, undef, undef, undef
	#DEBUG_VALUE: inverse4x4:tmp <- [DW_OP_LLVM_arg 0, DW_OP_constu 1, DW_OP_shra, DW_OP_LLVM_arg 2, DW_OP_minus, DW_OP_LLVM_arg 1, DW_OP_LLVM_arg 3, DW_OP_minus, DW_OP_plus, DW_OP_stack_value, DW_OP_LLVM_fragment 32 32] undef, undef, undef, undef
	#DEBUG_VALUE: inverse4x4:tmp <- [DW_OP_LLVM_arg 0, DW_OP_LLVM_arg 3, DW_OP_minus, DW_OP_LLVM_arg 1, DW_OP_constu 1, DW_OP_shra, DW_OP_LLVM_arg 2, DW_OP_minus, DW_OP_minus, DW_OP_stack_value, DW_OP_LLVM_fragment 64 32] undef, undef, undef, undef
	#DEBUG_VALUE: inverse4x4:tmp <- [DW_OP_LLVM_arg 0, DW_OP_LLVM_arg 3, DW_OP_plus, DW_OP_LLVM_arg 1, DW_OP_constu 1, DW_OP_shra, DW_OP_LLVM_arg 2, DW_OP_plus, DW_OP_minus, DW_OP_stack_value, DW_OP_LLVM_fragment 96 32] undef, undef, undef, undef
	#DEBUG_VALUE: inverse4x4:t0 <- undef
	#DEBUG_VALUE: inverse4x4:t1 <- undef
	#DEBUG_VALUE: inverse4x4:t2 <- undef
	#DEBUG_VALUE: inverse4x4:i <- [DW_OP_plus_uconst 4, DW_OP_stack_value] $r11
	.loc	0 81 15                         # ldecod_src/transform.c:81:15
	movq	24(%rdi,%r11,8), %rax
.Ltmp117:
	#DEBUG_VALUE: inverse4x4:pos_y <- [DW_OP_LLVM_entry_value 1] $edx
	#DEBUG_VALUE: inverse4x4:pblock <- [DW_OP_LLVM_arg 0, DW_OP_LLVM_arg 1, DW_OP_constu 4, DW_OP_mul, DW_OP_plus, DW_OP_plus_uconst 12, DW_OP_stack_value] $rax, $rsi
	.loc	0 84 10                         # ldecod_src/transform.c:84:10
	movl	8(%rax,%rsi,4), %ecx
.Ltmp118:
	#DEBUG_VALUE: inverse4x4:pos_x <- [DW_OP_LLVM_entry_value 1] $ecx
	#DEBUG_VALUE: inverse4x4:t2 <- $ecx
	.loc	0 0 10 is_stmt 0                # ldecod_src/transform.c:0:10
	movq	%rcx, -32(%rsp)                 # 8-byte Spill
.Ltmp119:
	#DEBUG_VALUE: inverse4x4:t2 <- [DW_OP_constu 32, DW_OP_minus, DW_OP_deref] $rsp
	.loc	0 82 10 is_stmt 1               # ldecod_src/transform.c:82:10
	movl	(%rax,%rsi,4), %edi
.Ltmp120:
	#DEBUG_VALUE: inverse4x4:tblock <- $rdx
	#DEBUG_VALUE: inverse4x4:t0 <- $edi
	#DEBUG_VALUE: inverse4x4:p0 <- [DW_OP_LLVM_arg 0, DW_OP_constu 32, DW_OP_minus, DW_OP_deref, DW_OP_LLVM_arg 1, DW_OP_plus, DW_OP_stack_value] $rsp, $edi
	#DEBUG_VALUE: inverse4x4:p1 <- [DW_OP_LLVM_arg 0, DW_OP_LLVM_arg 1, DW_OP_constu 32, DW_OP_minus, DW_OP_deref, DW_OP_minus, DW_OP_stack_value] $edi, $rsp
	.loc	0 0 10 is_stmt 0                # ldecod_src/transform.c:0:10
	movq	%rdi, -40(%rsp)                 # 8-byte Spill
.Ltmp121:
	#DEBUG_VALUE: inverse4x4:p1 <- [DW_OP_LLVM_arg 0, DW_OP_constu 40, DW_OP_minus, DW_OP_deref, DW_OP_LLVM_arg 1, DW_OP_constu 32, DW_OP_minus, DW_OP_deref, DW_OP_minus, DW_OP_stack_value] $rsp, $rsp
	#DEBUG_VALUE: inverse4x4:p0 <- [DW_OP_LLVM_arg 0, DW_OP_constu 32, DW_OP_minus, DW_OP_deref, DW_OP_LLVM_arg 1, DW_OP_constu 40, DW_OP_minus, DW_OP_deref, DW_OP_plus, DW_OP_stack_value] $rsp, $rsp
	#DEBUG_VALUE: inverse4x4:t0 <- [DW_OP_constu 40, DW_OP_minus, DW_OP_deref] $rsp
	.loc	0 83 10 is_stmt 1               # ldecod_src/transform.c:83:10
	movl	4(%rax,%rsi,4), %r9d
.Ltmp122:
	#DEBUG_VALUE: inverse4x4:t1 <- $r9d
	.loc	0 87 14                         # ldecod_src/transform.c:87:14
	addl	%edi, %ecx
.Ltmp123:
	#DEBUG_VALUE: inverse4x4:p0 <- $ecx
	.loc	0 85 10                         # ldecod_src/transform.c:85:10
	movl	12(%rax,%rsi,4), %eax
.Ltmp124:
	#DEBUG_VALUE: inverse4x4:t3 <- $eax
	.loc	0 0 10 is_stmt 0                # ldecod_src/transform.c:0:10
	movl	%eax, -88(%rsp)                 # 4-byte Spill
.Ltmp125:
	#DEBUG_VALUE: inverse4x4:t3 <- [DW_OP_constu 88, DW_OP_minus, DW_OP_deref] $rsp
	.loc	0 90 20 is_stmt 1               # ldecod_src/transform.c:90:20
	movl	%eax, %r15d
	sarl	%r15d
.Ltmp126:
	#DEBUG_VALUE: inverse4x4:p2 <- [DW_OP_LLVM_arg 0, DW_OP_constu 1, DW_OP_shra, DW_OP_LLVM_arg 1, DW_OP_constu 88, DW_OP_minus, DW_OP_deref, DW_OP_minus, DW_OP_stack_value] $r9d, $rsp
	#DEBUG_VALUE: inverse4x4:tmp <- [DW_OP_LLVM_arg 0, DW_OP_LLVM_arg 1, DW_OP_LLVM_arg 2, DW_OP_plus, DW_OP_minus, DW_OP_stack_value, DW_OP_LLVM_fragment 480 32] $ecx, $r15d, $r9d
	#DEBUG_VALUE: inverse4x4:tmp <- [DW_OP_LLVM_arg 0, DW_OP_LLVM_arg 2, DW_OP_plus, DW_OP_LLVM_arg 1, DW_OP_plus, DW_OP_stack_value, DW_OP_LLVM_fragment 384 32] $r15d, $ecx, $r9d
	#DEBUG_VALUE: inverse4x4:p3 <- [DW_OP_LLVM_arg 0, DW_OP_LLVM_arg 1, DW_OP_plus, DW_OP_stack_value] $r15d, $r9d
	#DEBUG_VALUE: inverse4x4:tmp <- [DW_OP_LLVM_arg 0, DW_OP_constu 40, DW_OP_minus, DW_OP_deref, DW_OP_LLVM_arg 3, DW_OP_constu 32, DW_OP_minus, DW_OP_deref, DW_OP_minus, DW_OP_LLVM_arg 1, DW_OP_constu 1, DW_OP_shra, DW_OP_LLVM_arg 2, DW_OP_constu 88, DW_OP_minus, DW_OP_deref, DW_OP_minus, DW_OP_minus, DW_OP_stack_value, DW_OP_LLVM_fragment 448 32] $rsp, $r9d, $rsp, $rsp
	#DEBUG_VALUE: inverse4x4:tmp <- [DW_OP_LLVM_arg 0, DW_OP_constu 1, DW_OP_shra, DW_OP_LLVM_arg 2, DW_OP_constu 88, DW_OP_minus, DW_OP_deref, DW_OP_minus, DW_OP_LLVM_arg 1, DW_OP_constu 40, DW_OP_minus, DW_OP_deref, DW_OP_LLVM_arg 3, DW_OP_constu 32, DW_OP_minus, DW_OP_deref, DW_OP_minus, DW_OP_plus, DW_OP_stack_value, DW_OP_LLVM_fragment 416 32] $r9d, $rsp, $rsp, $rsp
	.loc	0 90 14 is_stmt 0               # ldecod_src/transform.c:90:14
	addl	%r9d, %r15d
.Ltmp127:
	#DEBUG_VALUE: inverse4x4:tmp <- [DW_OP_LLVM_arg 0, DW_OP_LLVM_arg 1, DW_OP_minus, DW_OP_stack_value, DW_OP_LLVM_fragment 480 32] $ecx, $r15d
	#DEBUG_VALUE: inverse4x4:tmp <- [DW_OP_LLVM_arg 0, DW_OP_LLVM_arg 1, DW_OP_plus, DW_OP_stack_value, DW_OP_LLVM_fragment 384 32] $r15d, $ecx
	#DEBUG_VALUE: inverse4x4:p3 <- $r15d
	.loc	0 95 20 is_stmt 1               # ldecod_src/transform.c:95:20
	movl	%ecx, %eax
	subl	%r15d, %eax
.Ltmp128:
	#DEBUG_VALUE: inverse4x4:tmp <- [DW_OP_LLVM_fragment 480 32] $eax
	#DEBUG_VALUE: inverse4x4:p1 <- undef
	#DEBUG_VALUE: inverse4x4:tmp <- [DW_OP_LLVM_arg 0, DW_OP_LLVM_arg 1, DW_OP_constu 1, DW_OP_shra, DW_OP_LLVM_arg 2, DW_OP_minus, DW_OP_minus, DW_OP_stack_value, DW_OP_LLVM_fragment 448 32] undef, undef, undef
	#DEBUG_VALUE: inverse4x4:tmp <- [DW_OP_LLVM_arg 0, DW_OP_constu 1, DW_OP_shra, DW_OP_LLVM_arg 2, DW_OP_minus, DW_OP_LLVM_arg 1, DW_OP_plus, DW_OP_stack_value, DW_OP_LLVM_fragment 416 32] undef, undef, undef
	#DEBUG_VALUE: inverse4x4:p2 <- [DW_OP_LLVM_arg 0, DW_OP_LLVM_arg 1, DW_OP_minus, DW_OP_stack_value] undef, undef
	#DEBUG_VALUE: inverse4x4:tmp <- [DW_OP_LLVM_arg 0, DW_OP_LLVM_arg 1, DW_OP_LLVM_arg 2, DW_OP_minus, DW_OP_minus, DW_OP_stack_value, DW_OP_LLVM_fragment 448 32] undef, undef, undef
	#DEBUG_VALUE: inverse4x4:tmp <- [DW_OP_LLVM_arg 0, DW_OP_LLVM_arg 2, DW_OP_minus, DW_OP_LLVM_arg 1, DW_OP_plus, DW_OP_stack_value, DW_OP_LLVM_fragment 416 32] undef, undef, undef
	#DEBUG_VALUE: inverse4x4:p2 <- undef
	#DEBUG_VALUE: inverse4x4:tmp <- [DW_OP_LLVM_arg 0, DW_OP_LLVM_arg 1, DW_OP_minus, DW_OP_stack_value, DW_OP_LLVM_fragment 448 32] undef, undef
	#DEBUG_VALUE: inverse4x4:tmp <- [DW_OP_LLVM_arg 0, DW_OP_LLVM_arg 1, DW_OP_plus, DW_OP_stack_value, DW_OP_LLVM_fragment 416 32] undef, undef
	#DEBUG_VALUE: inverse4x4:tmp <- [DW_OP_LLVM_fragment 448 32] undef
	#DEBUG_VALUE: inverse4x4:tmp <- [DW_OP_LLVM_fragment 416 32] undef
	.loc	0 0 20 is_stmt 0                # ldecod_src/transform.c:0:20
	movq	%rax, -8(%rsp)                  # 8-byte Spill
.Ltmp129:
	#DEBUG_VALUE: inverse4x4:tmp <- [DW_OP_constu 8, DW_OP_minus, DW_OP_deref, DW_OP_LLVM_fragment 480 32] $rsp
	.loc	0 92 20 is_stmt 1               # ldecod_src/transform.c:92:20
	addl	%ecx, %r15d
.Ltmp130:
	#DEBUG_VALUE: inverse4x4:tmp <- [DW_OP_LLVM_fragment 384 32] $r15d
	.loc	0 81 15                         # ldecod_src/transform.c:81:15
	movq	16(%rdx,%r11,8), %rax
.Ltmp131:
	#DEBUG_VALUE: inverse4x4:pblock <- [DW_OP_LLVM_arg 0, DW_OP_LLVM_arg 1, DW_OP_constu 4, DW_OP_mul, DW_OP_plus, DW_OP_plus_uconst 12, DW_OP_stack_value] $rax, $rsi
	.loc	0 84 10                         # ldecod_src/transform.c:84:10
	movl	8(%rax,%rsi,4), %ecx
.Ltmp132:
	#DEBUG_VALUE: inverse4x4:t2 <- $ecx
	.loc	0 0 10 is_stmt 0                # ldecod_src/transform.c:0:10
	movq	%rcx, -48(%rsp)                 # 8-byte Spill
.Ltmp133:
	#DEBUG_VALUE: inverse4x4:t2 <- [DW_OP_constu 48, DW_OP_minus, DW_OP_deref] $rsp
	.loc	0 82 10 is_stmt 1               # ldecod_src/transform.c:82:10
	movl	(%rax,%rsi,4), %r8d
.Ltmp134:
	#DEBUG_VALUE: inverse4x4:t0 <- $r8d
	#DEBUG_VALUE: inverse4x4:p0 <- [DW_OP_LLVM_arg 0, DW_OP_constu 48, DW_OP_minus, DW_OP_deref, DW_OP_LLVM_arg 1, DW_OP_plus, DW_OP_stack_value] $rsp, $r8d
	#DEBUG_VALUE: inverse4x4:p1 <- [DW_OP_LLVM_arg 0, DW_OP_LLVM_arg 1, DW_OP_constu 48, DW_OP_minus, DW_OP_deref, DW_OP_minus, DW_OP_stack_value] $r8d, $rsp
	.loc	0 0 10 is_stmt 0                # ldecod_src/transform.c:0:10
	movq	%r8, -56(%rsp)                  # 8-byte Spill
.Ltmp135:
	#DEBUG_VALUE: inverse4x4:p1 <- [DW_OP_LLVM_arg 0, DW_OP_constu 56, DW_OP_minus, DW_OP_deref, DW_OP_LLVM_arg 1, DW_OP_constu 48, DW_OP_minus, DW_OP_deref, DW_OP_minus, DW_OP_stack_value] $rsp, $rsp
	#DEBUG_VALUE: inverse4x4:p0 <- [DW_OP_LLVM_arg 0, DW_OP_constu 48, DW_OP_minus, DW_OP_deref, DW_OP_LLVM_arg 1, DW_OP_constu 56, DW_OP_minus, DW_OP_deref, DW_OP_plus, DW_OP_stack_value] $rsp, $rsp
	#DEBUG_VALUE: inverse4x4:t0 <- [DW_OP_constu 56, DW_OP_minus, DW_OP_deref] $rsp
	.loc	0 83 10 is_stmt 1               # ldecod_src/transform.c:83:10
	movl	4(%rax,%rsi,4), %r14d
.Ltmp136:
	#DEBUG_VALUE: inverse4x4:t1 <- $r14d
	#DEBUG_VALUE: inverse4x4:p0 <- undef
	.loc	0 85 10                         # ldecod_src/transform.c:85:10
	movl	12(%rax,%rsi,4), %eax
.Ltmp137:
	#DEBUG_VALUE: inverse4x4:t3 <- $eax
	.loc	0 0 10 is_stmt 0                # ldecod_src/transform.c:0:10
	movl	%eax, -92(%rsp)                 # 4-byte Spill
.Ltmp138:
	#DEBUG_VALUE: inverse4x4:t3 <- [DW_OP_constu 92, DW_OP_minus, DW_OP_deref] $rsp
	.loc	0 90 20 is_stmt 1               # ldecod_src/transform.c:90:20
	movl	%eax, %edi
	sarl	%edi
.Ltmp139:
	#DEBUG_VALUE: inverse4x4:p2 <- [DW_OP_LLVM_arg 0, DW_OP_constu 1, DW_OP_shra, DW_OP_LLVM_arg 1, DW_OP_constu 92, DW_OP_minus, DW_OP_deref, DW_OP_minus, DW_OP_stack_value] $r14d, $rsp
	#DEBUG_VALUE: inverse4x4:tmp <- [DW_OP_LLVM_arg 0, DW_OP_LLVM_arg 1, DW_OP_LLVM_arg 2, DW_OP_plus, DW_OP_minus, DW_OP_stack_value, DW_OP_LLVM_fragment 352 32] undef, undef, undef
	#DEBUG_VALUE: inverse4x4:tmp <- [DW_OP_LLVM_arg 0, DW_OP_LLVM_arg 2, DW_OP_plus, DW_OP_LLVM_arg 1, DW_OP_plus, DW_OP_stack_value, DW_OP_LLVM_fragment 256 32] undef, undef, undef
	#DEBUG_VALUE: inverse4x4:p3 <- [DW_OP_LLVM_arg 0, DW_OP_LLVM_arg 1, DW_OP_plus, DW_OP_stack_value] $edi, $r14d
	#DEBUG_VALUE: inverse4x4:tmp <- [DW_OP_LLVM_arg 0, DW_OP_constu 56, DW_OP_minus, DW_OP_deref, DW_OP_LLVM_arg 3, DW_OP_constu 48, DW_OP_minus, DW_OP_deref, DW_OP_minus, DW_OP_LLVM_arg 1, DW_OP_constu 1, DW_OP_shra, DW_OP_LLVM_arg 2, DW_OP_constu 92, DW_OP_minus, DW_OP_deref, DW_OP_minus, DW_OP_minus, DW_OP_stack_value, DW_OP_LLVM_fragment 320 32] $rsp, $r14d, $rsp, $rsp
	#DEBUG_VALUE: inverse4x4:tmp <- [DW_OP_LLVM_arg 0, DW_OP_constu 1, DW_OP_shra, DW_OP_LLVM_arg 2, DW_OP_constu 92, DW_OP_minus, DW_OP_deref, DW_OP_minus, DW_OP_LLVM_arg 1, DW_OP_constu 56, DW_OP_minus, DW_OP_deref, DW_OP_LLVM_arg 3, DW_OP_constu 48, DW_OP_minus, DW_OP_deref, DW_OP_minus, DW_OP_plus, DW_OP_stack_value, DW_OP_LLVM_fragment 288 32] $r14d, $rsp, $rsp, $rsp
	.loc	0 90 14 is_stmt 0               # ldecod_src/transform.c:90:14
	addl	%r14d, %edi
.Ltmp140:
	#DEBUG_VALUE: inverse4x4:tmp <- [DW_OP_LLVM_arg 0, DW_OP_LLVM_arg 1, DW_OP_minus, DW_OP_stack_value, DW_OP_LLVM_fragment 352 32] undef, undef
	#DEBUG_VALUE: inverse4x4:tmp <- [DW_OP_LLVM_arg 0, DW_OP_LLVM_arg 1, DW_OP_plus, DW_OP_stack_value, DW_OP_LLVM_fragment 256 32] undef, undef
	#DEBUG_VALUE: inverse4x4:p3 <- $edi
	.loc	0 87 14 is_stmt 1               # ldecod_src/transform.c:87:14
	leal	(%rcx,%r8), %eax
.Ltmp141:
	#DEBUG_VALUE: inverse4x4:tmp <- [DW_OP_LLVM_arg 0, DW_OP_LLVM_arg 1, DW_OP_plus, DW_OP_stack_value, DW_OP_LLVM_fragment 256 32] $edi, $eax
	#DEBUG_VALUE: inverse4x4:tmp <- [DW_OP_LLVM_arg 0, DW_OP_LLVM_arg 1, DW_OP_minus, DW_OP_stack_value, DW_OP_LLVM_fragment 352 32] $eax, $edi
	#DEBUG_VALUE: inverse4x4:p0 <- $eax
	.loc	0 95 20                         # ldecod_src/transform.c:95:20
	movl	%eax, %ecx
	subl	%edi, %ecx
.Ltmp142:
	#DEBUG_VALUE: inverse4x4:tmp <- [DW_OP_LLVM_fragment 352 32] $ecx
	#DEBUG_VALUE: inverse4x4:p1 <- undef
	#DEBUG_VALUE: inverse4x4:tmp <- [DW_OP_LLVM_arg 0, DW_OP_LLVM_arg 1, DW_OP_constu 1, DW_OP_shra, DW_OP_LLVM_arg 2, DW_OP_minus, DW_OP_minus, DW_OP_stack_value, DW_OP_LLVM_fragment 320 32] undef, undef, undef
	#DEBUG_VALUE: inverse4x4:tmp <- [DW_OP_LLVM_arg 0, DW_OP_constu 1, DW_OP_shra, DW_OP_LLVM_arg 2, DW_OP_minus, DW_OP_LLVM_arg 1, DW_OP_plus, DW_OP_stack_value, DW_OP_LLVM_fragment 288 32] undef, undef, undef
	#DEBUG_VALUE: inverse4x4:p2 <- [DW_OP_LLVM_arg 0, DW_OP_LLVM_arg 1, DW_OP_minus, DW_OP_stack_value] undef, undef
	#DEBUG_VALUE: inverse4x4:tmp <- [DW_OP_LLVM_arg 0, DW_OP_LLVM_arg 1, DW_OP_LLVM_arg 2, DW_OP_minus, DW_OP_minus, DW_OP_stack_value, DW_OP_LLVM_fragment 320 32] undef, undef, undef
	#DEBUG_VALUE: inverse4x4:tmp <- [DW_OP_LLVM_arg 0, DW_OP_LLVM_arg 2, DW_OP_minus, DW_OP_LLVM_arg 1, DW_OP_plus, DW_OP_stack_value, DW_OP_LLVM_fragment 288 32] undef, undef, undef
	#DEBUG_VALUE: inverse4x4:p2 <- undef
	#DEBUG_VALUE: inverse4x4:tmp <- [DW_OP_LLVM_arg 0, DW_OP_LLVM_arg 1, DW_OP_minus, DW_OP_stack_value, DW_OP_LLVM_fragment 320 32] undef, undef
	#DEBUG_VALUE: inverse4x4:tmp <- [DW_OP_LLVM_arg 0, DW_OP_LLVM_arg 1, DW_OP_plus, DW_OP_stack_value, DW_OP_LLVM_fragment 288 32] undef, undef
	#DEBUG_VALUE: inverse4x4:tmp <- [DW_OP_LLVM_fragment 320 32] undef
	#DEBUG_VALUE: inverse4x4:tmp <- [DW_OP_LLVM_fragment 288 32] undef
	.loc	0 0 20 is_stmt 0                # ldecod_src/transform.c:0:20
	movq	%rcx, -16(%rsp)                 # 8-byte Spill
.Ltmp143:
	#DEBUG_VALUE: inverse4x4:tmp <- [DW_OP_constu 16, DW_OP_minus, DW_OP_deref, DW_OP_LLVM_fragment 352 32] $rsp
	.loc	0 92 20 is_stmt 1               # ldecod_src/transform.c:92:20
	addl	%eax, %edi
.Ltmp144:
	#DEBUG_VALUE: inverse4x4:tmp <- [DW_OP_LLVM_fragment 256 32] $edi
	.loc	0 81 15                         # ldecod_src/transform.c:81:15
	movq	8(%rdx,%r11,8), %rax
.Ltmp145:
	.loc	0 84 10                         # ldecod_src/transform.c:84:10
	movl	8(%rax,%rsi,4), %r8d
.Ltmp146:
	#DEBUG_VALUE: inverse4x4:t2 <- $r8d
	.loc	0 0 10 is_stmt 0                # ldecod_src/transform.c:0:10
	movq	%r8, -64(%rsp)                  # 8-byte Spill
.Ltmp147:
	#DEBUG_VALUE: inverse4x4:t2 <- [DW_OP_constu 64, DW_OP_minus, DW_OP_deref] $rsp
	.loc	0 82 10 is_stmt 1               # ldecod_src/transform.c:82:10
	movl	(%rax,%rsi,4), %r10d
.Ltmp148:
	#DEBUG_VALUE: inverse4x4:t0 <- $r10d
	#DEBUG_VALUE: inverse4x4:p0 <- [DW_OP_LLVM_arg 0, DW_OP_constu 64, DW_OP_minus, DW_OP_deref, DW_OP_LLVM_arg 1, DW_OP_plus, DW_OP_stack_value] $rsp, $r10d
	#DEBUG_VALUE: inverse4x4:p1 <- [DW_OP_LLVM_arg 0, DW_OP_LLVM_arg 1, DW_OP_constu 64, DW_OP_minus, DW_OP_deref, DW_OP_minus, DW_OP_stack_value] $r10d, $rsp
	.loc	0 0 10 is_stmt 0                # ldecod_src/transform.c:0:10
	movq	%r10, -72(%rsp)                 # 8-byte Spill
.Ltmp149:
	#DEBUG_VALUE: inverse4x4:p1 <- [DW_OP_LLVM_arg 0, DW_OP_constu 72, DW_OP_minus, DW_OP_deref, DW_OP_LLVM_arg 1, DW_OP_constu 64, DW_OP_minus, DW_OP_deref, DW_OP_minus, DW_OP_stack_value] $rsp, $rsp
	#DEBUG_VALUE: inverse4x4:p0 <- [DW_OP_LLVM_arg 0, DW_OP_constu 64, DW_OP_minus, DW_OP_deref, DW_OP_LLVM_arg 1, DW_OP_constu 72, DW_OP_minus, DW_OP_deref, DW_OP_plus, DW_OP_stack_value] $rsp, $rsp
	#DEBUG_VALUE: inverse4x4:t0 <- [DW_OP_constu 72, DW_OP_minus, DW_OP_deref] $rsp
	.loc	0 83 10 is_stmt 1               # ldecod_src/transform.c:83:10
	movl	4(%rax,%rsi,4), %r13d
.Ltmp150:
	#DEBUG_VALUE: inverse4x4:t1 <- $r13d
	#DEBUG_VALUE: inverse4x4:p0 <- undef
	.loc	0 85 10                         # ldecod_src/transform.c:85:10
	movl	12(%rax,%rsi,4), %ecx
.Ltmp151:
	#DEBUG_VALUE: inverse4x4:t3 <- $ecx
	.loc	0 0 10 is_stmt 0                # ldecod_src/transform.c:0:10
	movl	%ecx, -96(%rsp)                 # 4-byte Spill
.Ltmp152:
	#DEBUG_VALUE: inverse4x4:t3 <- [DW_OP_constu 96, DW_OP_minus, DW_OP_deref] $rsp
	.loc	0 90 20 is_stmt 1               # ldecod_src/transform.c:90:20
	sarl	%ecx
.Ltmp153:
	#DEBUG_VALUE: inverse4x4:p2 <- [DW_OP_LLVM_arg 0, DW_OP_constu 1, DW_OP_shra, DW_OP_LLVM_arg 1, DW_OP_constu 96, DW_OP_minus, DW_OP_deref, DW_OP_minus, DW_OP_stack_value] $r13d, $rsp
	#DEBUG_VALUE: inverse4x4:tmp <- [DW_OP_LLVM_arg 0, DW_OP_LLVM_arg 1, DW_OP_LLVM_arg 2, DW_OP_plus, DW_OP_minus, DW_OP_stack_value, DW_OP_LLVM_fragment 224 32] undef, undef, undef
	#DEBUG_VALUE: inverse4x4:tmp <- [DW_OP_LLVM_arg 0, DW_OP_LLVM_arg 2, DW_OP_plus, DW_OP_LLVM_arg 1, DW_OP_plus, DW_OP_stack_value, DW_OP_LLVM_fragment 128 32] undef, undef, undef
	#DEBUG_VALUE: inverse4x4:p3 <- [DW_OP_LLVM_arg 0, DW_OP_LLVM_arg 1, DW_OP_plus, DW_OP_stack_value] $ecx, $r13d
	#DEBUG_VALUE: inverse4x4:tmp <- [DW_OP_LLVM_arg 0, DW_OP_constu 72, DW_OP_minus, DW_OP_deref, DW_OP_LLVM_arg 3, DW_OP_constu 64, DW_OP_minus, DW_OP_deref, DW_OP_minus, DW_OP_LLVM_arg 1, DW_OP_constu 1, DW_OP_shra, DW_OP_LLVM_arg 2, DW_OP_constu 96, DW_OP_minus, DW_OP_deref, DW_OP_minus, DW_OP_minus, DW_OP_stack_value, DW_OP_LLVM_fragment 192 32] $rsp, $r13d, $rsp, $rsp
	#DEBUG_VALUE: inverse4x4:tmp <- [DW_OP_LLVM_arg 0, DW_OP_constu 1, DW_OP_shra, DW_OP_LLVM_arg 2, DW_OP_constu 96, DW_OP_minus, DW_OP_deref, DW_OP_minus, DW_OP_LLVM_arg 1, DW_OP_constu 72, DW_OP_minus, DW_OP_deref, DW_OP_LLVM_arg 3, DW_OP_constu 64, DW_OP_minus, DW_OP_deref, DW_OP_minus, DW_OP_plus, DW_OP_stack_value, DW_OP_LLVM_fragment 160 32] $r13d, $rsp, $rsp, $rsp
	.loc	0 90 14 is_stmt 0               # ldecod_src/transform.c:90:14
	addl	%r13d, %ecx
.Ltmp154:
	#DEBUG_VALUE: inverse4x4:tmp <- [DW_OP_LLVM_arg 0, DW_OP_LLVM_arg 1, DW_OP_minus, DW_OP_stack_value, DW_OP_LLVM_fragment 224 32] undef, undef
	#DEBUG_VALUE: inverse4x4:tmp <- [DW_OP_LLVM_arg 0, DW_OP_LLVM_arg 1, DW_OP_plus, DW_OP_stack_value, DW_OP_LLVM_fragment 128 32] undef, undef
	#DEBUG_VALUE: inverse4x4:p3 <- $ecx
	.loc	0 87 14 is_stmt 1               # ldecod_src/transform.c:87:14
	leal	(%r8,%r10), %eax
.Ltmp155:
	#DEBUG_VALUE: inverse4x4:tmp <- [DW_OP_LLVM_arg 0, DW_OP_LLVM_arg 1, DW_OP_plus, DW_OP_stack_value, DW_OP_LLVM_fragment 128 32] $ecx, $eax
	#DEBUG_VALUE: inverse4x4:tmp <- [DW_OP_LLVM_arg 0, DW_OP_LLVM_arg 1, DW_OP_minus, DW_OP_stack_value, DW_OP_LLVM_fragment 224 32] $eax, $ecx
	#DEBUG_VALUE: inverse4x4:p0 <- $eax
	.loc	0 95 20                         # ldecod_src/transform.c:95:20
	movl	%eax, %r8d
	subl	%ecx, %r8d
.Ltmp156:
	#DEBUG_VALUE: inverse4x4:tmp <- [DW_OP_LLVM_fragment 224 32] $r8d
	#DEBUG_VALUE: inverse4x4:p1 <- undef
	#DEBUG_VALUE: inverse4x4:tmp <- [DW_OP_LLVM_arg 0, DW_OP_LLVM_arg 1, DW_OP_constu 1, DW_OP_shra, DW_OP_LLVM_arg 2, DW_OP_minus, DW_OP_minus, DW_OP_stack_value, DW_OP_LLVM_fragment 192 32] undef, undef, undef
	#DEBUG_VALUE: inverse4x4:tmp <- [DW_OP_LLVM_arg 0, DW_OP_constu 1, DW_OP_shra, DW_OP_LLVM_arg 2, DW_OP_minus, DW_OP_LLVM_arg 1, DW_OP_plus, DW_OP_stack_value, DW_OP_LLVM_fragment 160 32] undef, undef, undef
	#DEBUG_VALUE: inverse4x4:p2 <- [DW_OP_LLVM_arg 0, DW_OP_LLVM_arg 1, DW_OP_minus, DW_OP_stack_value] undef, undef
	#DEBUG_VALUE: inverse4x4:tmp <- [DW_OP_LLVM_arg 0, DW_OP_LLVM_arg 1, DW_OP_LLVM_arg 2, DW_OP_minus, DW_OP_minus, DW_OP_stack_value, DW_OP_LLVM_fragment 192 32] undef, undef, undef
	#DEBUG_VALUE: inverse4x4:tmp <- [DW_OP_LLVM_arg 0, DW_OP_LLVM_arg 2, DW_OP_minus, DW_OP_LLVM_arg 1, DW_OP_plus, DW_OP_stack_value, DW_OP_LLVM_fragment 160 32] undef, undef, undef
	#DEBUG_VALUE: inverse4x4:p2 <- undef
	#DEBUG_VALUE: inverse4x4:tmp <- [DW_OP_LLVM_arg 0, DW_OP_LLVM_arg 1, DW_OP_minus, DW_OP_stack_value, DW_OP_LLVM_fragment 192 32] undef, undef
	#DEBUG_VALUE: inverse4x4:tmp <- [DW_OP_LLVM_arg 0, DW_OP_LLVM_arg 1, DW_OP_plus, DW_OP_stack_value, DW_OP_LLVM_fragment 160 32] undef, undef
	#DEBUG_VALUE: inverse4x4:tmp <- [DW_OP_LLVM_fragment 192 32] undef
	#DEBUG_VALUE: inverse4x4:tmp <- [DW_OP_LLVM_fragment 160 32] undef
	.loc	0 0 20 is_stmt 0                # ldecod_src/transform.c:0:20
	movl	%r8d, -84(%rsp)                 # 4-byte Spill
.Ltmp157:
	#DEBUG_VALUE: inverse4x4:tmp <- [DW_OP_constu 84, DW_OP_minus, DW_OP_deref, DW_OP_LLVM_fragment 224 32] $rsp
	.loc	0 92 20 is_stmt 1               # ldecod_src/transform.c:92:20
	addl	%eax, %ecx
.Ltmp158:
	#DEBUG_VALUE: inverse4x4:tmp <- [DW_OP_LLVM_fragment 128 32] $ecx
	#DEBUG_VALUE: inverse4x4:tmp <- [DW_OP_LLVM_arg 0, DW_OP_LLVM_arg 1, DW_OP_constu 1, DW_OP_shra, DW_OP_LLVM_arg 2, DW_OP_plus, DW_OP_minus, DW_OP_stack_value, DW_OP_LLVM_fragment 96 32] undef, undef, undef
	#DEBUG_VALUE: inverse4x4:tmp <- [DW_OP_LLVM_arg 0, DW_OP_constu 1, DW_OP_shra, DW_OP_LLVM_arg 2, DW_OP_plus, DW_OP_LLVM_arg 1, DW_OP_plus, DW_OP_stack_value, DW_OP_LLVM_fragment 0 32] undef, undef, undef
	#DEBUG_VALUE: inverse4x4:p0 <- undef
	.loc	0 81 15                         # ldecod_src/transform.c:81:15
	movq	(%rdx,%r11,8), %rax
	.loc	0 82 10                         # ldecod_src/transform.c:82:10
	movl	(%rax,%rsi,4), %ebp
	.loc	0 83 10                         # ldecod_src/transform.c:83:10
	movl	4(%rax,%rsi,4), %edx
.Ltmp159:
	#DEBUG_VALUE: inverse4x4:tblock <- [DW_OP_LLVM_entry_value 1] $rdi
	.loc	0 84 10                         # ldecod_src/transform.c:84:10
	movl	8(%rax,%rsi,4), %r8d
	movq	%r8, -80(%rsp)                  # 8-byte Spill
	.loc	0 85 10                         # ldecod_src/transform.c:85:10
	movl	12(%rax,%rsi,4), %eax
.Ltmp160:
	#DEBUG_VALUE: inverse4x4:tmp <- [DW_OP_LLVM_arg 0, DW_OP_constu 80, DW_OP_minus, DW_OP_deref, DW_OP_LLVM_arg 3, DW_OP_plus, DW_OP_LLVM_arg 1, DW_OP_constu 1, DW_OP_shra, DW_OP_LLVM_arg 2, DW_OP_plus, DW_OP_minus, DW_OP_stack_value, DW_OP_LLVM_fragment 96 32] $rsp, $eax, $edx, $ebp
	#DEBUG_VALUE: inverse4x4:tmp <- [DW_OP_LLVM_arg 0, DW_OP_LLVM_arg 3, DW_OP_constu 80, DW_OP_minus, DW_OP_deref, DW_OP_minus, DW_OP_LLVM_arg 1, DW_OP_constu 1, DW_OP_shra, DW_OP_LLVM_arg 2, DW_OP_minus, DW_OP_minus, DW_OP_stack_value, DW_OP_LLVM_fragment 64 32] $ebp, $edx, $eax, $rsp
	#DEBUG_VALUE: inverse4x4:tmp <- [DW_OP_LLVM_arg 0, DW_OP_constu 1, DW_OP_shra, DW_OP_LLVM_arg 2, DW_OP_minus, DW_OP_LLVM_arg 1, DW_OP_LLVM_arg 3, DW_OP_constu 80, DW_OP_minus, DW_OP_deref, DW_OP_minus, DW_OP_plus, DW_OP_stack_value, DW_OP_LLVM_fragment 32 32] $edx, $ebp, $eax, $rsp
	#DEBUG_VALUE: inverse4x4:tmp <- [DW_OP_LLVM_arg 0, DW_OP_constu 1, DW_OP_shra, DW_OP_LLVM_arg 2, DW_OP_plus, DW_OP_LLVM_arg 1, DW_OP_constu 80, DW_OP_minus, DW_OP_deref, DW_OP_LLVM_arg 3, DW_OP_plus, DW_OP_plus, DW_OP_stack_value, DW_OP_LLVM_fragment 0 32] $eax, $rsp, $edx, $ebp
	.loc	0 0 10 is_stmt 0                # ldecod_src/transform.c:0:10
	movl	%eax, -100(%rsp)                # 4-byte Spill
                                        # kill: def $eax killed $eax def $rax
	.loc	0 90 20 is_stmt 1               # ldecod_src/transform.c:90:20
	sarl	%eax
.Ltmp161:
	#DEBUG_VALUE: inverse4x4:tmp <- [DW_OP_LLVM_arg 0, DW_OP_LLVM_arg 1, DW_OP_LLVM_arg 2, DW_OP_plus, DW_OP_minus, DW_OP_stack_value, DW_OP_LLVM_fragment 96 32] undef, undef, undef
	#DEBUG_VALUE: inverse4x4:tmp <- [DW_OP_LLVM_arg 0, DW_OP_LLVM_arg 2, DW_OP_plus, DW_OP_LLVM_arg 1, DW_OP_plus, DW_OP_stack_value, DW_OP_LLVM_fragment 0 32] undef, undef, undef
	#DEBUG_VALUE: inverse4x4:p3 <- [DW_OP_LLVM_arg 0, DW_OP_LLVM_arg 1, DW_OP_plus, DW_OP_stack_value] $eax, $edx
	.loc	0 90 14 is_stmt 0               # ldecod_src/transform.c:90:14
	addl	%edx, %eax
.Ltmp162:
	#DEBUG_VALUE: inverse4x4:tmp <- [DW_OP_LLVM_arg 0, DW_OP_LLVM_arg 1, DW_OP_minus, DW_OP_stack_value, DW_OP_LLVM_fragment 96 32] undef, undef
	#DEBUG_VALUE: inverse4x4:tmp <- [DW_OP_LLVM_arg 0, DW_OP_LLVM_arg 1, DW_OP_plus, DW_OP_stack_value, DW_OP_LLVM_fragment 0 32] undef, undef
	#DEBUG_VALUE: inverse4x4:p3 <- $eax
	.loc	0 87 14 is_stmt 1               # ldecod_src/transform.c:87:14
	addl	%ebp, %r8d
.Ltmp163:
	#DEBUG_VALUE: inverse4x4:p0 <- $r8d
	#DEBUG_VALUE: inverse4x4:tmp <- [DW_OP_LLVM_arg 0, DW_OP_LLVM_arg 1, DW_OP_minus, DW_OP_stack_value, DW_OP_LLVM_fragment 96 32] $r8d, $eax
	#DEBUG_VALUE: inverse4x4:tmp <- [DW_OP_LLVM_arg 0, DW_OP_LLVM_arg 1, DW_OP_constu 100, DW_OP_minus, DW_OP_deref, DW_OP_constu 1, DW_OP_shra, DW_OP_LLVM_arg 2, DW_OP_plus, DW_OP_minus, DW_OP_stack_value, DW_OP_LLVM_fragment 96 32] $r8d, $rsp, $edx
	#DEBUG_VALUE: inverse4x4:tmp <- [DW_OP_LLVM_arg 0, DW_OP_LLVM_arg 1, DW_OP_plus, DW_OP_stack_value, DW_OP_LLVM_fragment 0 32] $eax, $r8d
	#DEBUG_VALUE: inverse4x4:tmp <- [DW_OP_LLVM_arg 0, DW_OP_constu 100, DW_OP_minus, DW_OP_deref, DW_OP_constu 1, DW_OP_shra, DW_OP_LLVM_arg 2, DW_OP_plus, DW_OP_LLVM_arg 1, DW_OP_plus, DW_OP_stack_value, DW_OP_LLVM_fragment 0 32] $rsp, $r8d, $edx
	.loc	0 95 20                         # ldecod_src/transform.c:95:20
	movl	%r8d, %r10d
	subl	%eax, %r10d
.Ltmp164:
	#DEBUG_VALUE: inverse4x4:tmp <- [DW_OP_LLVM_fragment 96 32] $r10d
	#DEBUG_VALUE: inverse4x4:p1 <- undef
	#DEBUG_VALUE: inverse4x4:tmp <- [DW_OP_LLVM_arg 0, DW_OP_LLVM_arg 1, DW_OP_constu 1, DW_OP_shra, DW_OP_LLVM_arg 2, DW_OP_minus, DW_OP_minus, DW_OP_stack_value, DW_OP_LLVM_fragment 64 32] undef, undef, undef
	#DEBUG_VALUE: inverse4x4:tmp <- [DW_OP_LLVM_arg 0, DW_OP_constu 1, DW_OP_shra, DW_OP_LLVM_arg 2, DW_OP_minus, DW_OP_LLVM_arg 1, DW_OP_plus, DW_OP_stack_value, DW_OP_LLVM_fragment 32 32] undef, undef, undef
	#DEBUG_VALUE: inverse4x4:p2 <- [DW_OP_LLVM_arg 0, DW_OP_LLVM_arg 1, DW_OP_minus, DW_OP_stack_value] undef, undef
	#DEBUG_VALUE: inverse4x4:tmp <- [DW_OP_LLVM_arg 0, DW_OP_LLVM_arg 1, DW_OP_LLVM_arg 2, DW_OP_minus, DW_OP_minus, DW_OP_stack_value, DW_OP_LLVM_fragment 64 32] undef, undef, undef
	#DEBUG_VALUE: inverse4x4:tmp <- [DW_OP_LLVM_arg 0, DW_OP_LLVM_arg 2, DW_OP_minus, DW_OP_LLVM_arg 1, DW_OP_plus, DW_OP_stack_value, DW_OP_LLVM_fragment 32 32] undef, undef, undef
	#DEBUG_VALUE: inverse4x4:p2 <- undef
	#DEBUG_VALUE: inverse4x4:tmp <- [DW_OP_LLVM_arg 0, DW_OP_LLVM_arg 1, DW_OP_minus, DW_OP_stack_value, DW_OP_LLVM_fragment 64 32] undef, undef
	#DEBUG_VALUE: inverse4x4:tmp <- [DW_OP_LLVM_arg 0, DW_OP_LLVM_arg 1, DW_OP_plus, DW_OP_stack_value, DW_OP_LLVM_fragment 32 32] undef, undef
	#DEBUG_VALUE: inverse4x4:tmp <- [DW_OP_LLVM_fragment 64 32] undef
	#DEBUG_VALUE: inverse4x4:tmp <- [DW_OP_LLVM_fragment 32 32] undef
	.loc	0 0 20 is_stmt 0                # ldecod_src/transform.c:0:20
	movq	%r10, -24(%rsp)                 # 8-byte Spill
.Ltmp165:
	#DEBUG_VALUE: inverse4x4:tmp <- [DW_OP_constu 24, DW_OP_minus, DW_OP_deref, DW_OP_LLVM_fragment 96 32] $rsp
	.loc	0 92 20 is_stmt 1               # ldecod_src/transform.c:92:20
	addl	%r8d, %eax
.Ltmp166:
	#DEBUG_VALUE: inverse4x4:tmp <- [DW_OP_LLVM_fragment 0 32] $eax
	#DEBUG_VALUE: inverse4x4:tmp <- [DW_OP_constu 8, DW_OP_minus, DW_OP_deref, DW_OP_LLVM_fragment 480 32] $rsp
	#DEBUG_VALUE: inverse4x4:tmp <- [DW_OP_LLVM_fragment 448 32] undef
	#DEBUG_VALUE: inverse4x4:tmp <- [DW_OP_LLVM_fragment 416 32] undef
	#DEBUG_VALUE: inverse4x4:tmp <- [DW_OP_LLVM_fragment 384 32] $r15d
	#DEBUG_VALUE: inverse4x4:tmp <- [DW_OP_LLVM_fragment 128 32] $ecx
	#DEBUG_VALUE: inverse4x4:tmp <- [DW_OP_LLVM_fragment 160 32] undef
	#DEBUG_VALUE: inverse4x4:tmp <- [DW_OP_LLVM_fragment 192 32] undef
	#DEBUG_VALUE: inverse4x4:tmp <- [DW_OP_constu 84, DW_OP_minus, DW_OP_deref, DW_OP_LLVM_fragment 224 32] $rsp
	#DEBUG_VALUE: inverse4x4:tmp <- [DW_OP_LLVM_fragment 256 32] $edi
	#DEBUG_VALUE: inverse4x4:tmp <- [DW_OP_LLVM_fragment 288 32] undef
	#DEBUG_VALUE: inverse4x4:tmp <- [DW_OP_LLVM_fragment 320 32] undef
	#DEBUG_VALUE: inverse4x4:tmp <- [DW_OP_constu 16, DW_OP_minus, DW_OP_deref, DW_OP_LLVM_fragment 352 32] $rsp
	#DEBUG_VALUE: inverse4x4:i <- 0
	#DEBUG_VALUE: inverse4x4:t0 <- $eax
	#DEBUG_VALUE: inverse4x4:t1 <- $ecx
	#DEBUG_VALUE: inverse4x4:t2 <- $edi
	#DEBUG_VALUE: inverse4x4:t3 <- $r15d
	#DEBUG_VALUE: inverse4x4:p0 <- undef
	#DEBUG_VALUE: inverse4x4:p1 <- undef
	.loc	0 109 13                        # ldecod_src/transform.c:109:13
	movl	%ecx, %r8d
	sarl	%r8d
	.loc	0 109 19 is_stmt 0              # ldecod_src/transform.c:109:19
	subl	%r15d, %r8d
.Ltmp167:
	#DEBUG_VALUE: inverse4x4:p2 <- $r8d
	.loc	0 110 19 is_stmt 1              # ldecod_src/transform.c:110:19
	sarl	%r15d
.Ltmp168:
	.loc	0 110 13 is_stmt 0              # ldecod_src/transform.c:110:13
	addl	%ecx, %r15d
.Ltmp169:
	#DEBUG_VALUE: inverse4x4:p3 <- $r15d
	#DEBUG_VALUE: inverse4x4:ii <- $rsi
	.loc	0 107 13 is_stmt 1              # ldecod_src/transform.c:107:13
	leal	(%rdi,%rax), %ecx
.Ltmp170:
	#DEBUG_VALUE: inverse4x4:p0 <- $ecx
	.loc	0 113 31                        # ldecod_src/transform.c:113:31
	leal	(%r15,%rcx), %r10d
	.loc	0 113 5 is_stmt 0               # ldecod_src/transform.c:113:5
	movq	(%r12,%r11,8), %rbx
	.loc	0 113 26                        # ldecod_src/transform.c:113:26
	movl	%r10d, (%rbx,%rsi,4)
	.loc	0 108 13 is_stmt 1              # ldecod_src/transform.c:108:13
	subl	%edi, %eax
.Ltmp171:
	#DEBUG_VALUE: inverse4x4:p1 <- $eax
	.loc	0 114 31                        # ldecod_src/transform.c:114:31
	leal	(%r8,%rax), %edi
.Ltmp172:
	.loc	0 114 5 is_stmt 0               # ldecod_src/transform.c:114:5
	movq	8(%r12,%r11,8), %r10
	.loc	0 114 26                        # ldecod_src/transform.c:114:26
	movl	%edi, (%r10,%rsi,4)
	.loc	0 115 31 is_stmt 1              # ldecod_src/transform.c:115:31
	subl	%r8d, %eax
.Ltmp173:
	.loc	0 115 5 is_stmt 0               # ldecod_src/transform.c:115:5
	movq	16(%r12,%r11,8), %rdi
	.loc	0 115 26                        # ldecod_src/transform.c:115:26
	movl	%eax, (%rdi,%rsi,4)
	.loc	0 116 31 is_stmt 1              # ldecod_src/transform.c:116:31
	subl	%r15d, %ecx
.Ltmp174:
	.loc	0 116 5 is_stmt 0               # ldecod_src/transform.c:116:5
	movq	24(%r12,%r11,8), %rax
	.loc	0 116 26                        # ldecod_src/transform.c:116:26
	movl	%ecx, (%rax,%rsi,4)
.Ltmp175:
	#DEBUG_VALUE: inverse4x4:i <- 1
	#DEBUG_VALUE: inverse4x4:t0 <- undef
	#DEBUG_VALUE: inverse4x4:t1 <- undef
	#DEBUG_VALUE: inverse4x4:t2 <- undef
	#DEBUG_VALUE: inverse4x4:t3 <- undef
	#DEBUG_VALUE: inverse4x4:p0 <- undef
	#DEBUG_VALUE: inverse4x4:p1 <- undef
	.loc	0 0 26                          # ldecod_src/transform.c:0:26
	movq	-40(%rsp), %rcx                 # 8-byte Reload
.Ltmp176:
	.loc	0 88 14 is_stmt 1               # ldecod_src/transform.c:88:14
	subl	-32(%rsp), %ecx                 # 4-byte Folded Reload
.Ltmp177:
	#DEBUG_VALUE: inverse4x4:tmp <- [DW_OP_LLVM_arg 0, DW_OP_constu 1, DW_OP_shra, DW_OP_LLVM_arg 2, DW_OP_constu 88, DW_OP_minus, DW_OP_deref, DW_OP_minus, DW_OP_LLVM_arg 1, DW_OP_plus, DW_OP_stack_value, DW_OP_LLVM_fragment 416 32] $r9d, $ecx, $rsp
	#DEBUG_VALUE: inverse4x4:tmp <- [DW_OP_LLVM_arg 0, DW_OP_LLVM_arg 1, DW_OP_constu 1, DW_OP_shra, DW_OP_LLVM_arg 2, DW_OP_constu 88, DW_OP_minus, DW_OP_deref, DW_OP_minus, DW_OP_minus, DW_OP_stack_value, DW_OP_LLVM_fragment 448 32] $ecx, $r9d, $rsp
	#DEBUG_VALUE: inverse4x4:p1 <- $ecx
	.loc	0 89 14                         # ldecod_src/transform.c:89:14
	sarl	%r9d
.Ltmp178:
	#DEBUG_VALUE: inverse4x4:tmp <- [DW_OP_LLVM_arg 0, DW_OP_LLVM_arg 2, DW_OP_constu 88, DW_OP_minus, DW_OP_deref, DW_OP_minus, DW_OP_LLVM_arg 1, DW_OP_plus, DW_OP_stack_value, DW_OP_LLVM_fragment 416 32] $r9d, $ecx, $rsp
	#DEBUG_VALUE: inverse4x4:tmp <- [DW_OP_LLVM_arg 0, DW_OP_LLVM_arg 1, DW_OP_LLVM_arg 2, DW_OP_constu 88, DW_OP_minus, DW_OP_deref, DW_OP_minus, DW_OP_minus, DW_OP_stack_value, DW_OP_LLVM_fragment 448 32] $ecx, $r9d, $rsp
	.loc	0 89 20 is_stmt 0               # ldecod_src/transform.c:89:20
	subl	-88(%rsp), %r9d                 # 4-byte Folded Reload
.Ltmp179:
	#DEBUG_VALUE: inverse4x4:tmp <- [DW_OP_LLVM_arg 0, DW_OP_LLVM_arg 1, DW_OP_plus, DW_OP_stack_value, DW_OP_LLVM_fragment 416 32] $r9d, $ecx
	#DEBUG_VALUE: inverse4x4:tmp <- [DW_OP_LLVM_arg 0, DW_OP_LLVM_arg 1, DW_OP_minus, DW_OP_stack_value, DW_OP_LLVM_fragment 448 32] $ecx, $r9d
	.loc	0 94 20 is_stmt 1               # ldecod_src/transform.c:94:20
	movl	%ecx, %eax
	subl	%r9d, %eax
.Ltmp180:
	#DEBUG_VALUE: inverse4x4:tmp <- [DW_OP_LLVM_fragment 448 32] $eax
	#DEBUG_VALUE: inverse4x4:tmp <- [DW_OP_LLVM_fragment 448 32] $eax
	.loc	0 93 20                         # ldecod_src/transform.c:93:20
	addl	%ecx, %r9d
.Ltmp181:
	#DEBUG_VALUE: inverse4x4:tmp <- [DW_OP_LLVM_fragment 416 32] $r9d
	#DEBUG_VALUE: inverse4x4:tmp <- [DW_OP_LLVM_fragment 416 32] $r9d
	#DEBUG_VALUE: inverse4x4:t3 <- $r9d
	.loc	0 0 20 is_stmt 0                # ldecod_src/transform.c:0:20
	movq	-56(%rsp), %rcx                 # 8-byte Reload
.Ltmp182:
	.loc	0 88 14 is_stmt 1               # ldecod_src/transform.c:88:14
	subl	-48(%rsp), %ecx                 # 4-byte Folded Reload
.Ltmp183:
	#DEBUG_VALUE: inverse4x4:tmp <- [DW_OP_LLVM_arg 0, DW_OP_constu 1, DW_OP_shra, DW_OP_LLVM_arg 2, DW_OP_constu 92, DW_OP_minus, DW_OP_deref, DW_OP_minus, DW_OP_LLVM_arg 1, DW_OP_plus, DW_OP_stack_value, DW_OP_LLVM_fragment 288 32] $r14d, $ecx, $rsp
	#DEBUG_VALUE: inverse4x4:tmp <- [DW_OP_LLVM_arg 0, DW_OP_LLVM_arg 1, DW_OP_constu 1, DW_OP_shra, DW_OP_LLVM_arg 2, DW_OP_constu 92, DW_OP_minus, DW_OP_deref, DW_OP_minus, DW_OP_minus, DW_OP_stack_value, DW_OP_LLVM_fragment 320 32] $ecx, $r14d, $rsp
	#DEBUG_VALUE: inverse4x4:p1 <- $ecx
	.loc	0 89 14                         # ldecod_src/transform.c:89:14
	sarl	%r14d
.Ltmp184:
	#DEBUG_VALUE: inverse4x4:tmp <- [DW_OP_LLVM_arg 0, DW_OP_LLVM_arg 2, DW_OP_constu 92, DW_OP_minus, DW_OP_deref, DW_OP_minus, DW_OP_LLVM_arg 1, DW_OP_plus, DW_OP_stack_value, DW_OP_LLVM_fragment 288 32] $r14d, $ecx, $rsp
	#DEBUG_VALUE: inverse4x4:tmp <- [DW_OP_LLVM_arg 0, DW_OP_LLVM_arg 1, DW_OP_LLVM_arg 2, DW_OP_constu 92, DW_OP_minus, DW_OP_deref, DW_OP_minus, DW_OP_minus, DW_OP_stack_value, DW_OP_LLVM_fragment 320 32] $ecx, $r14d, $rsp
	.loc	0 89 20 is_stmt 0               # ldecod_src/transform.c:89:20
	subl	-92(%rsp), %r14d                # 4-byte Folded Reload
.Ltmp185:
	#DEBUG_VALUE: inverse4x4:tmp <- [DW_OP_LLVM_arg 0, DW_OP_LLVM_arg 1, DW_OP_plus, DW_OP_stack_value, DW_OP_LLVM_fragment 288 32] $r14d, $ecx
	#DEBUG_VALUE: inverse4x4:tmp <- [DW_OP_LLVM_arg 0, DW_OP_LLVM_arg 1, DW_OP_minus, DW_OP_stack_value, DW_OP_LLVM_fragment 320 32] $ecx, $r14d
	.loc	0 94 20 is_stmt 1               # ldecod_src/transform.c:94:20
	movl	%ecx, %r15d
.Ltmp186:
	subl	%r14d, %r15d
.Ltmp187:
	#DEBUG_VALUE: inverse4x4:tmp <- [DW_OP_LLVM_fragment 320 32] $r15d
	#DEBUG_VALUE: inverse4x4:tmp <- [DW_OP_LLVM_fragment 320 32] $r15d
	.loc	0 93 20                         # ldecod_src/transform.c:93:20
	addl	%ecx, %r14d
.Ltmp188:
	#DEBUG_VALUE: inverse4x4:tmp <- [DW_OP_LLVM_fragment 288 32] $r14d
	#DEBUG_VALUE: inverse4x4:tmp <- [DW_OP_LLVM_fragment 288 32] $r14d
	#DEBUG_VALUE: inverse4x4:t2 <- $r14d
	.loc	0 0 20 is_stmt 0                # ldecod_src/transform.c:0:20
	movq	-72(%rsp), %rdi                 # 8-byte Reload
	.loc	0 88 14 is_stmt 1               # ldecod_src/transform.c:88:14
	subl	-64(%rsp), %edi                 # 4-byte Folded Reload
.Ltmp189:
	#DEBUG_VALUE: inverse4x4:tmp <- [DW_OP_LLVM_arg 0, DW_OP_constu 1, DW_OP_shra, DW_OP_LLVM_arg 2, DW_OP_constu 96, DW_OP_minus, DW_OP_deref, DW_OP_minus, DW_OP_LLVM_arg 1, DW_OP_plus, DW_OP_stack_value, DW_OP_LLVM_fragment 160 32] $r13d, $edi, $rsp
	#DEBUG_VALUE: inverse4x4:tmp <- [DW_OP_LLVM_arg 0, DW_OP_LLVM_arg 1, DW_OP_constu 1, DW_OP_shra, DW_OP_LLVM_arg 2, DW_OP_constu 96, DW_OP_minus, DW_OP_deref, DW_OP_minus, DW_OP_minus, DW_OP_stack_value, DW_OP_LLVM_fragment 192 32] $edi, $r13d, $rsp
	#DEBUG_VALUE: inverse4x4:p1 <- $edi
	.loc	0 89 14                         # ldecod_src/transform.c:89:14
	sarl	%r13d
.Ltmp190:
	#DEBUG_VALUE: inverse4x4:tmp <- [DW_OP_LLVM_arg 0, DW_OP_LLVM_arg 2, DW_OP_constu 96, DW_OP_minus, DW_OP_deref, DW_OP_minus, DW_OP_LLVM_arg 1, DW_OP_plus, DW_OP_stack_value, DW_OP_LLVM_fragment 160 32] $r13d, $edi, $rsp
	#DEBUG_VALUE: inverse4x4:tmp <- [DW_OP_LLVM_arg 0, DW_OP_LLVM_arg 1, DW_OP_LLVM_arg 2, DW_OP_constu 96, DW_OP_minus, DW_OP_deref, DW_OP_minus, DW_OP_minus, DW_OP_stack_value, DW_OP_LLVM_fragment 192 32] $edi, $r13d, $rsp
	.loc	0 89 20 is_stmt 0               # ldecod_src/transform.c:89:20
	subl	-96(%rsp), %r13d                # 4-byte Folded Reload
.Ltmp191:
	#DEBUG_VALUE: inverse4x4:tmp <- [DW_OP_LLVM_arg 0, DW_OP_LLVM_arg 1, DW_OP_plus, DW_OP_stack_value, DW_OP_LLVM_fragment 160 32] $r13d, $edi
	#DEBUG_VALUE: inverse4x4:tmp <- [DW_OP_LLVM_arg 0, DW_OP_LLVM_arg 1, DW_OP_minus, DW_OP_stack_value, DW_OP_LLVM_fragment 192 32] $edi, $r13d
	.loc	0 94 20 is_stmt 1               # ldecod_src/transform.c:94:20
	movl	%edi, %ecx
	subl	%r13d, %ecx
.Ltmp192:
	#DEBUG_VALUE: inverse4x4:tmp <- [DW_OP_LLVM_fragment 192 32] $ecx
	#DEBUG_VALUE: inverse4x4:tmp <- [DW_OP_LLVM_fragment 192 32] $ecx
	.loc	0 93 20                         # ldecod_src/transform.c:93:20
	addl	%edi, %r13d
.Ltmp193:
	#DEBUG_VALUE: inverse4x4:tmp <- [DW_OP_LLVM_fragment 160 32] $r13d
	#DEBUG_VALUE: inverse4x4:tmp <- [DW_OP_LLVM_fragment 160 32] $r13d
	#DEBUG_VALUE: inverse4x4:t1 <- $r13d
	.loc	0 88 14                         # ldecod_src/transform.c:88:14
	subl	-80(%rsp), %ebp                 # 4-byte Folded Reload
.Ltmp194:
	#DEBUG_VALUE: inverse4x4:p1 <- $ebp
	#DEBUG_VALUE: inverse4x4:tmp <- [DW_OP_LLVM_arg 0, DW_OP_LLVM_arg 1, DW_OP_constu 1, DW_OP_shra, DW_OP_LLVM_arg 2, DW_OP_constu 100, DW_OP_minus, DW_OP_deref, DW_OP_minus, DW_OP_minus, DW_OP_stack_value, DW_OP_LLVM_fragment 64 32] $ebp, $edx, $rsp
	#DEBUG_VALUE: inverse4x4:tmp <- [DW_OP_LLVM_arg 0, DW_OP_constu 1, DW_OP_shra, DW_OP_LLVM_arg 2, DW_OP_constu 100, DW_OP_minus, DW_OP_deref, DW_OP_minus, DW_OP_LLVM_arg 1, DW_OP_plus, DW_OP_stack_value, DW_OP_LLVM_fragment 32 32] $edx, $ebp, $rsp
	.loc	0 89 14                         # ldecod_src/transform.c:89:14
	sarl	%edx
.Ltmp195:
	#DEBUG_VALUE: inverse4x4:tmp <- [DW_OP_LLVM_arg 0, DW_OP_LLVM_arg 1, DW_OP_LLVM_arg 2, DW_OP_constu 100, DW_OP_minus, DW_OP_deref, DW_OP_minus, DW_OP_minus, DW_OP_stack_value, DW_OP_LLVM_fragment 64 32] $ebp, $edx, $rsp
	#DEBUG_VALUE: inverse4x4:tmp <- [DW_OP_LLVM_arg 0, DW_OP_LLVM_arg 2, DW_OP_constu 100, DW_OP_minus, DW_OP_deref, DW_OP_minus, DW_OP_LLVM_arg 1, DW_OP_plus, DW_OP_stack_value, DW_OP_LLVM_fragment 32 32] $edx, $ebp, $rsp
	.loc	0 89 20 is_stmt 0               # ldecod_src/transform.c:89:20
	subl	-100(%rsp), %edx                # 4-byte Folded Reload
.Ltmp196:
	#DEBUG_VALUE: inverse4x4:tmp <- [DW_OP_LLVM_arg 0, DW_OP_LLVM_arg 1, DW_OP_minus, DW_OP_stack_value, DW_OP_LLVM_fragment 64 32] $ebp, $edx
	#DEBUG_VALUE: inverse4x4:tmp <- [DW_OP_LLVM_arg 0, DW_OP_LLVM_arg 1, DW_OP_plus, DW_OP_stack_value, DW_OP_LLVM_fragment 32 32] $edx, $ebp
	.loc	0 94 20 is_stmt 1               # ldecod_src/transform.c:94:20
	movl	%ebp, %ebx
	subl	%edx, %ebx
.Ltmp197:
	#DEBUG_VALUE: inverse4x4:tmp <- [DW_OP_LLVM_fragment 64 32] $ebx
	.loc	0 93 20                         # ldecod_src/transform.c:93:20
	addl	%ebp, %edx
.Ltmp198:
	#DEBUG_VALUE: inverse4x4:tmp <- [DW_OP_LLVM_fragment 32 32] $edx
	#DEBUG_VALUE: inverse4x4:t0 <- $edx
	.loc	0 109 13                        # ldecod_src/transform.c:109:13
	movl	%r13d, %edi
	sarl	%edi
	.loc	0 109 19 is_stmt 0              # ldecod_src/transform.c:109:19
	subl	%r9d, %edi
.Ltmp199:
	#DEBUG_VALUE: inverse4x4:p2 <- $edi
	.loc	0 110 19 is_stmt 1              # ldecod_src/transform.c:110:19
	sarl	%r9d
.Ltmp200:
	.loc	0 110 13 is_stmt 0              # ldecod_src/transform.c:110:13
	addl	%r13d, %r9d
.Ltmp201:
	#DEBUG_VALUE: inverse4x4:p3 <- $r9d
	#DEBUG_VALUE: inverse4x4:ii <- undef
	.loc	0 107 13 is_stmt 1              # ldecod_src/transform.c:107:13
	leal	(%r14,%rdx), %r8d
.Ltmp202:
	#DEBUG_VALUE: inverse4x4:p0 <- $r8d
	.loc	0 113 31                        # ldecod_src/transform.c:113:31
	leal	(%r9,%r8), %r10d
	.loc	0 113 5 is_stmt 0               # ldecod_src/transform.c:113:5
	movq	(%r12,%r11,8), %r13
.Ltmp203:
	.loc	0 113 26                        # ldecod_src/transform.c:113:26
	movl	%r10d, 4(%r13,%rsi,4)
	.loc	0 108 13 is_stmt 1              # ldecod_src/transform.c:108:13
	subl	%r14d, %edx
.Ltmp204:
	#DEBUG_VALUE: inverse4x4:p1 <- $edx
	.loc	0 114 31                        # ldecod_src/transform.c:114:31
	leal	(%rdi,%rdx), %r10d
	.loc	0 114 5 is_stmt 0               # ldecod_src/transform.c:114:5
	movq	8(%r12,%r11,8), %r14
.Ltmp205:
	.loc	0 114 26                        # ldecod_src/transform.c:114:26
	movl	%r10d, 4(%r14,%rsi,4)
	.loc	0 115 31 is_stmt 1              # ldecod_src/transform.c:115:31
	subl	%edi, %edx
.Ltmp206:
	.loc	0 115 5 is_stmt 0               # ldecod_src/transform.c:115:5
	movq	16(%r12,%r11,8), %rdi
.Ltmp207:
	.loc	0 115 26                        # ldecod_src/transform.c:115:26
	movl	%edx, 4(%rdi,%rsi,4)
	.loc	0 116 31 is_stmt 1              # ldecod_src/transform.c:116:31
	subl	%r9d, %r8d
.Ltmp208:
	.loc	0 116 5 is_stmt 0               # ldecod_src/transform.c:116:5
	movq	24(%r12,%r11,8), %rdx
	.loc	0 116 26                        # ldecod_src/transform.c:116:26
	movl	%r8d, 4(%rdx,%rsi,4)
.Ltmp209:
	#DEBUG_VALUE: inverse4x4:i <- 2
	#DEBUG_VALUE: inverse4x4:t0 <- $ebx
	#DEBUG_VALUE: inverse4x4:t1 <- $ecx
	#DEBUG_VALUE: inverse4x4:t2 <- $r15d
	#DEBUG_VALUE: inverse4x4:t3 <- $eax
	.loc	0 107 13 is_stmt 1              # ldecod_src/transform.c:107:13
	leal	(%r15,%rbx), %edx
.Ltmp210:
	#DEBUG_VALUE: inverse4x4:p0 <- $edx
	.loc	0 108 13                        # ldecod_src/transform.c:108:13
	subl	%r15d, %ebx
.Ltmp211:
	#DEBUG_VALUE: inverse4x4:p1 <- $ebx
	.loc	0 109 13                        # ldecod_src/transform.c:109:13
	movl	%ecx, %edi
	sarl	%edi
	.loc	0 109 19 is_stmt 0              # ldecod_src/transform.c:109:19
	subl	%eax, %edi
.Ltmp212:
	#DEBUG_VALUE: inverse4x4:p2 <- $edi
	.loc	0 110 19 is_stmt 1              # ldecod_src/transform.c:110:19
	sarl	%eax
.Ltmp213:
	.loc	0 110 13 is_stmt 0              # ldecod_src/transform.c:110:13
	addl	%ecx, %eax
.Ltmp214:
	#DEBUG_VALUE: inverse4x4:p3 <- $eax
	.loc	0 113 31 is_stmt 1              # ldecod_src/transform.c:113:31
	leal	(%rax,%rdx), %ecx
.Ltmp215:
	.loc	0 113 5 is_stmt 0               # ldecod_src/transform.c:113:5
	movq	(%r12,%r11,8), %r8
	.loc	0 113 26                        # ldecod_src/transform.c:113:26
	movl	%ecx, 8(%r8,%rsi,4)
	.loc	0 114 31 is_stmt 1              # ldecod_src/transform.c:114:31
	leal	(%rdi,%rbx), %ecx
	.loc	0 114 5 is_stmt 0               # ldecod_src/transform.c:114:5
	movq	8(%r12,%r11,8), %r8
	.loc	0 114 26                        # ldecod_src/transform.c:114:26
	movl	%ecx, 8(%r8,%rsi,4)
	.loc	0 115 31 is_stmt 1              # ldecod_src/transform.c:115:31
	subl	%edi, %ebx
.Ltmp216:
	.loc	0 115 5 is_stmt 0               # ldecod_src/transform.c:115:5
	movq	16(%r12,%r11,8), %rcx
	.loc	0 115 26                        # ldecod_src/transform.c:115:26
	movl	%ebx, 8(%rcx,%rsi,4)
	.loc	0 116 31 is_stmt 1              # ldecod_src/transform.c:116:31
	subl	%eax, %edx
.Ltmp217:
	.loc	0 116 5 is_stmt 0               # ldecod_src/transform.c:116:5
	movq	24(%r12,%r11,8), %rax
.Ltmp218:
	.loc	0 116 26                        # ldecod_src/transform.c:116:26
	movl	%edx, 8(%rax,%rsi,4)
.Ltmp219:
	#DEBUG_VALUE: inverse4x4:i <- 3
	#DEBUG_VALUE: inverse4x4:t0 <- [DW_OP_constu 24, DW_OP_minus, DW_OP_deref] $rsp
	#DEBUG_VALUE: inverse4x4:t1 <- [DW_OP_constu 84, DW_OP_minus, DW_OP_deref] $rsp
	#DEBUG_VALUE: inverse4x4:t2 <- [DW_OP_constu 16, DW_OP_minus, DW_OP_deref] $rsp
	#DEBUG_VALUE: inverse4x4:t3 <- [DW_OP_constu 8, DW_OP_minus, DW_OP_deref] $rsp
	.loc	0 0 26                          # ldecod_src/transform.c:0:26
	movq	-16(%rsp), %rcx                 # 8-byte Reload
	movq	-24(%rsp), %rdx                 # 8-byte Reload
	.loc	0 107 13 is_stmt 1              # ldecod_src/transform.c:107:13
	leal	(%rcx,%rdx), %eax
.Ltmp220:
	#DEBUG_VALUE: inverse4x4:p0 <- $eax
	.loc	0 108 13                        # ldecod_src/transform.c:108:13
	subl	%ecx, %edx
.Ltmp221:
	#DEBUG_VALUE: inverse4x4:p1 <- $edx
	.loc	0 0 13 is_stmt 0                # ldecod_src/transform.c:0:13
	movq	%rdx, %r9
	movl	-84(%rsp), %edx                 # 4-byte Reload
.Ltmp222:
	.loc	0 109 13 is_stmt 1              # ldecod_src/transform.c:109:13
	movl	%edx, %ecx
	sarl	%ecx
	movq	-8(%rsp), %rdi                  # 8-byte Reload
.Ltmp223:
	.loc	0 109 19 is_stmt 0              # ldecod_src/transform.c:109:19
	subl	%edi, %ecx
.Ltmp224:
	#DEBUG_VALUE: inverse4x4:p2 <- $ecx
	.loc	0 110 19 is_stmt 1              # ldecod_src/transform.c:110:19
	sarl	%edi
	.loc	0 110 13 is_stmt 0              # ldecod_src/transform.c:110:13
	addl	%edx, %edi
.Ltmp225:
	#DEBUG_VALUE: inverse4x4:p3 <- $edi
	.loc	0 113 31 is_stmt 1              # ldecod_src/transform.c:113:31
	leal	(%rdi,%rax), %edx
.Ltmp226:
	#DEBUG_VALUE: inverse4x4:p1 <- $r9d
	.loc	0 0 31 is_stmt 0                # ldecod_src/transform.c:0:31
	movq	%rdi, %r8
	.loc	0 113 5                         # ldecod_src/transform.c:113:5
	movq	(%r12,%r11,8), %rdi
.Ltmp227:
	#DEBUG_VALUE: inverse4x4:p3 <- $r8d
	.loc	0 113 26                        # ldecod_src/transform.c:113:26
	movl	%edx, 12(%rdi,%rsi,4)
	.loc	0 114 31 is_stmt 1              # ldecod_src/transform.c:114:31
	leal	(%rcx,%r9), %edx
	.loc	0 114 5 is_stmt 0               # ldecod_src/transform.c:114:5
	movq	8(%r12,%r11,8), %rdi
	.loc	0 114 26                        # ldecod_src/transform.c:114:26
	movl	%edx, 12(%rdi,%rsi,4)
	.loc	0 115 31 is_stmt 1              # ldecod_src/transform.c:115:31
	subl	%ecx, %r9d
.Ltmp228:
	.loc	0 115 5 is_stmt 0               # ldecod_src/transform.c:115:5
	movq	16(%r12,%r11,8), %rcx
.Ltmp229:
	.loc	0 115 26                        # ldecod_src/transform.c:115:26
	movl	%r9d, 12(%rcx,%rsi,4)
	.loc	0 116 31 is_stmt 1              # ldecod_src/transform.c:116:31
	subl	%r8d, %eax
.Ltmp230:
	.loc	0 116 5 is_stmt 0               # ldecod_src/transform.c:116:5
	movq	24(%r12,%r11,8), %rcx
	.loc	0 116 26                        # ldecod_src/transform.c:116:26
	movl	%eax, 12(%rcx,%rsi,4)
.Ltmp231:
	#DEBUG_VALUE: inverse4x4:i <- 4
	.loc	0 118 1 epilogue_begin is_stmt 1 # ldecod_src/transform.c:118:1
	popq	%rbx
	.cfi_def_cfa_offset 48
	popq	%r12
.Ltmp232:
	#DEBUG_VALUE: inverse4x4:block <- [DW_OP_LLVM_entry_value 1] $rsi
	.cfi_def_cfa_offset 40
	popq	%r13
	.cfi_def_cfa_offset 32
	popq	%r14
	.cfi_def_cfa_offset 24
	popq	%r15
.Ltmp233:
	.cfi_def_cfa_offset 16
	popq	%rbp
	.cfi_def_cfa_offset 8
	retq
.Ltmp234:
.Lfunc_end1:
	.size	inverse4x4, .Lfunc_end1-inverse4x4
	.cfi_endproc
                                        # -- End function
	.globl	hadamard4x4                     # -- Begin function hadamard4x4
	.p2align	4, 0x90
	.type	hadamard4x4,@function
hadamard4x4:                            # @hadamard4x4
.Lfunc_begin2:
	.loc	0 122 0                         # ldecod_src/transform.c:122:0
	.cfi_startproc
# %bb.0:                                # %entry
	#DEBUG_VALUE: hadamard4x4:block <- $rdi
	#DEBUG_VALUE: hadamard4x4:tblock <- $rsi
	pushq	%rbp
	.cfi_def_cfa_offset 16
	pushq	%r15
	.cfi_def_cfa_offset 24
	pushq	%r14
	.cfi_def_cfa_offset 32
	pushq	%r13
	.cfi_def_cfa_offset 40
	pushq	%r12
	.cfi_def_cfa_offset 48
	pushq	%rbx
	.cfi_def_cfa_offset 56
	subq	$24, %rsp
	.cfi_def_cfa_offset 80
	.cfi_offset %rbx, -56
	.cfi_offset %r12, -48
	.cfi_offset %r13, -40
	.cfi_offset %r14, -32
	.cfi_offset %r15, -24
	.cfi_offset %rbp, -16
	movq	%rsi, %r14
.Ltmp235:
	#DEBUG_VALUE: hadamard4x4:i <- 0
	.loc	0 132 14 prologue_end           # ldecod_src/transform.c:132:14
	movq	(%rdi), %rax
.Ltmp236:
	#DEBUG_VALUE: hadamard4x4:pblock <- $rax
	#DEBUG_VALUE: hadamard4x4:i <- 1
	movq	8(%rdi), %rcx
.Ltmp237:
	#DEBUG_VALUE: hadamard4x4:pblock <- $rcx
	#DEBUG_VALUE: hadamard4x4:pblock <- [DW_OP_plus_uconst 4, DW_OP_stack_value] $rax
	.loc	0 133 10                        # ldecod_src/transform.c:133:10
	movl	(%rax), %r12d
.Ltmp238:
	#DEBUG_VALUE: hadamard4x4:p0 <- $r12d
	#DEBUG_VALUE: hadamard4x4:pblock <- [DW_OP_plus_uconst 8, DW_OP_stack_value] $rax
	.loc	0 134 10                        # ldecod_src/transform.c:134:10
	movl	4(%rax), %esi
.Ltmp239:
	#DEBUG_VALUE: hadamard4x4:tblock <- $r14
	#DEBUG_VALUE: hadamard4x4:p1 <- $esi
	#DEBUG_VALUE: hadamard4x4:pblock <- [DW_OP_plus_uconst 12, DW_OP_stack_value] $rax
	.loc	0 0 10 is_stmt 0                # ldecod_src/transform.c:0:10
	movq	%rsi, -104(%rsp)                # 8-byte Spill
.Ltmp240:
	#DEBUG_VALUE: hadamard4x4:p1 <- [DW_OP_constu 104, DW_OP_minus, DW_OP_deref] $rsp
	.loc	0 135 10 is_stmt 1              # ldecod_src/transform.c:135:10
	movl	8(%rax), %esi
.Ltmp241:
	#DEBUG_VALUE: hadamard4x4:p2 <- $esi
	.loc	0 0 10 is_stmt 0                # ldecod_src/transform.c:0:10
	movq	%rsi, -120(%rsp)                # 8-byte Spill
.Ltmp242:
	#DEBUG_VALUE: hadamard4x4:p2 <- [DW_OP_constu 120, DW_OP_minus, DW_OP_deref] $rsp
	.loc	0 136 10 is_stmt 1              # ldecod_src/transform.c:136:10
	movl	12(%rax), %eax
.Ltmp243:
	#DEBUG_VALUE: hadamard4x4:p3 <- $eax
	#DEBUG_VALUE: hadamard4x4:t0 <- undef
	#DEBUG_VALUE: hadamard4x4:t1 <- undef
	#DEBUG_VALUE: hadamard4x4:t2 <- undef
	#DEBUG_VALUE: hadamard4x4:t3 <- undef
	#DEBUG_VALUE: hadamard4x4:tmp <- [DW_OP_LLVM_fragment 0 32] undef
	#DEBUG_VALUE: hadamard4x4:tmp <- [DW_OP_LLVM_fragment 32 32] undef
	#DEBUG_VALUE: hadamard4x4:tmp <- [DW_OP_LLVM_fragment 64 32] undef
	#DEBUG_VALUE: hadamard4x4:tmp <- [DW_OP_LLVM_fragment 96 32] undef
	#DEBUG_VALUE: hadamard4x4:pblock <- [DW_OP_plus_uconst 4, DW_OP_stack_value] $rcx
	.loc	0 0 10 is_stmt 0                # ldecod_src/transform.c:0:10
	movq	%rax, -88(%rsp)                 # 8-byte Spill
.Ltmp244:
	#DEBUG_VALUE: hadamard4x4:p3 <- [DW_OP_constu 88, DW_OP_minus, DW_OP_deref] $rsp
	.loc	0 133 10 is_stmt 1              # ldecod_src/transform.c:133:10
	movl	(%rcx), %eax
.Ltmp245:
	#DEBUG_VALUE: hadamard4x4:p0 <- $eax
	#DEBUG_VALUE: hadamard4x4:pblock <- [DW_OP_plus_uconst 8, DW_OP_stack_value] $rcx
	.loc	0 0 10 is_stmt 0                # ldecod_src/transform.c:0:10
	movq	%rax, -128(%rsp)                # 8-byte Spill
.Ltmp246:
	#DEBUG_VALUE: hadamard4x4:p0 <- [DW_OP_constu 128, DW_OP_minus, DW_OP_deref] $rsp
	.loc	0 134 10 is_stmt 1              # ldecod_src/transform.c:134:10
	movl	4(%rcx), %eax
.Ltmp247:
	#DEBUG_VALUE: hadamard4x4:p1 <- $eax
	#DEBUG_VALUE: hadamard4x4:pblock <- [DW_OP_plus_uconst 12, DW_OP_stack_value] $rcx
	.loc	0 0 10 is_stmt 0                # ldecod_src/transform.c:0:10
	movq	%rax, -112(%rsp)                # 8-byte Spill
.Ltmp248:
	#DEBUG_VALUE: hadamard4x4:p1 <- [DW_OP_constu 112, DW_OP_minus, DW_OP_deref] $rsp
	.loc	0 135 10 is_stmt 1              # ldecod_src/transform.c:135:10
	movl	8(%rcx), %eax
.Ltmp249:
	#DEBUG_VALUE: hadamard4x4:p2 <- $eax
	.loc	0 0 10 is_stmt 0                # ldecod_src/transform.c:0:10
	movq	%rax, -96(%rsp)                 # 8-byte Spill
.Ltmp250:
	#DEBUG_VALUE: hadamard4x4:p2 <- [DW_OP_constu 96, DW_OP_minus, DW_OP_deref] $rsp
	.loc	0 136 10 is_stmt 1              # ldecod_src/transform.c:136:10
	movl	12(%rcx), %ecx
.Ltmp251:
	#DEBUG_VALUE: hadamard4x4:p3 <- $ecx
	#DEBUG_VALUE: hadamard4x4:t0 <- undef
	#DEBUG_VALUE: hadamard4x4:t1 <- undef
	#DEBUG_VALUE: hadamard4x4:t2 <- undef
	#DEBUG_VALUE: hadamard4x4:t3 <- undef
	#DEBUG_VALUE: hadamard4x4:tmp <- [DW_OP_LLVM_fragment 128 32] undef
	#DEBUG_VALUE: hadamard4x4:tmp <- [DW_OP_LLVM_fragment 160 32] undef
	#DEBUG_VALUE: hadamard4x4:tmp <- [DW_OP_LLVM_fragment 192 32] undef
	#DEBUG_VALUE: hadamard4x4:tmp <- [DW_OP_LLVM_fragment 224 32] undef
	#DEBUG_VALUE: hadamard4x4:i <- 2
	.loc	0 0 10 is_stmt 0                # ldecod_src/transform.c:0:10
	movq	%rcx, -40(%rsp)                 # 8-byte Spill
.Ltmp252:
	#DEBUG_VALUE: hadamard4x4:p3 <- [DW_OP_constu 40, DW_OP_minus, DW_OP_deref] $rsp
	.loc	0 132 14 is_stmt 1              # ldecod_src/transform.c:132:14
	movq	16(%rdi), %rax
.Ltmp253:
	#DEBUG_VALUE: hadamard4x4:pblock <- $rax
	#DEBUG_VALUE: hadamard4x4:pblock <- [DW_OP_plus_uconst 4, DW_OP_stack_value] $rax
	.loc	0 133 10                        # ldecod_src/transform.c:133:10
	movl	(%rax), %r13d
.Ltmp254:
	#DEBUG_VALUE: hadamard4x4:p0 <- $r13d
	#DEBUG_VALUE: hadamard4x4:pblock <- [DW_OP_plus_uconst 8, DW_OP_stack_value] $rax
	.loc	0 0 10 is_stmt 0                # ldecod_src/transform.c:0:10
	movq	%r13, -56(%rsp)                 # 8-byte Spill
.Ltmp255:
	#DEBUG_VALUE: hadamard4x4:p0 <- [DW_OP_constu 56, DW_OP_minus, DW_OP_deref] $rsp
	.loc	0 134 10 is_stmt 1              # ldecod_src/transform.c:134:10
	movl	4(%rax), %ebp
.Ltmp256:
	#DEBUG_VALUE: hadamard4x4:p1 <- $ebp
	#DEBUG_VALUE: hadamard4x4:pblock <- [DW_OP_plus_uconst 12, DW_OP_stack_value] $rax
	.loc	0 135 10                        # ldecod_src/transform.c:135:10
	movl	8(%rax), %r15d
.Ltmp257:
	#DEBUG_VALUE: hadamard4x4:p2 <- $r15d
	.loc	0 0 10 is_stmt 0                # ldecod_src/transform.c:0:10
	movq	%r15, -64(%rsp)                 # 8-byte Spill
.Ltmp258:
	#DEBUG_VALUE: hadamard4x4:p2 <- [DW_OP_constu 64, DW_OP_minus, DW_OP_deref] $rsp
	.loc	0 136 10 is_stmt 1              # ldecod_src/transform.c:136:10
	movl	12(%rax), %ebx
.Ltmp259:
	#DEBUG_VALUE: hadamard4x4:p3 <- $ebx
	#DEBUG_VALUE: hadamard4x4:t0 <- undef
	#DEBUG_VALUE: hadamard4x4:t1 <- undef
	#DEBUG_VALUE: hadamard4x4:t2 <- undef
	#DEBUG_VALUE: hadamard4x4:t3 <- undef
	#DEBUG_VALUE: hadamard4x4:tmp <- [DW_OP_LLVM_fragment 256 32] undef
	#DEBUG_VALUE: hadamard4x4:tmp <- [DW_OP_LLVM_fragment 288 32] undef
	#DEBUG_VALUE: hadamard4x4:tmp <- [DW_OP_LLVM_fragment 320 32] undef
	#DEBUG_VALUE: hadamard4x4:tmp <- [DW_OP_LLVM_fragment 352 32] undef
	#DEBUG_VALUE: hadamard4x4:i <- 3
	.loc	0 0 10 is_stmt 0                # ldecod_src/transform.c:0:10
	movq	%rbx, -48(%rsp)                 # 8-byte Spill
.Ltmp260:
	#DEBUG_VALUE: hadamard4x4:p3 <- [DW_OP_constu 48, DW_OP_minus, DW_OP_deref] $rsp
	.loc	0 132 14 is_stmt 1              # ldecod_src/transform.c:132:14
	movq	24(%rdi), %rax
.Ltmp261:
	#DEBUG_VALUE: hadamard4x4:pblock <- $rax
	#DEBUG_VALUE: hadamard4x4:pblock <- [DW_OP_plus_uconst 4, DW_OP_stack_value] $rax
	.loc	0 133 10                        # ldecod_src/transform.c:133:10
	movl	(%rax), %r8d
.Ltmp262:
	#DEBUG_VALUE: hadamard4x4:p0 <- $r8d
	#DEBUG_VALUE: hadamard4x4:pblock <- [DW_OP_plus_uconst 8, DW_OP_stack_value] $rax
	.loc	0 0 10 is_stmt 0                # ldecod_src/transform.c:0:10
	movq	%r8, -72(%rsp)                  # 8-byte Spill
.Ltmp263:
	#DEBUG_VALUE: hadamard4x4:p0 <- [DW_OP_constu 72, DW_OP_minus, DW_OP_deref] $rsp
	.loc	0 134 10 is_stmt 1              # ldecod_src/transform.c:134:10
	movl	4(%rax), %r10d
.Ltmp264:
	#DEBUG_VALUE: hadamard4x4:p1 <- $r10d
	#DEBUG_VALUE: hadamard4x4:pblock <- [DW_OP_plus_uconst 12, DW_OP_stack_value] $rax
	.loc	0 135 10                        # ldecod_src/transform.c:135:10
	movl	8(%rax), %r9d
.Ltmp265:
	#DEBUG_VALUE: hadamard4x4:p2 <- $r9d
	.loc	0 136 10                        # ldecod_src/transform.c:136:10
	movl	12(%rax), %edi
.Ltmp266:
	#DEBUG_VALUE: hadamard4x4:block <- [DW_OP_LLVM_entry_value 1] $rdi
	#DEBUG_VALUE: hadamard4x4:p3 <- $edi
	.loc	0 0 10 is_stmt 0                # ldecod_src/transform.c:0:10
	movq	%rdi, -80(%rsp)                 # 8-byte Spill
.Ltmp267:
	#DEBUG_VALUE: hadamard4x4:p3 <- [DW_OP_constu 80, DW_OP_minus, DW_OP_deref] $rsp
	movq	-88(%rsp), %rax                 # 8-byte Reload
.Ltmp268:
	.loc	0 138 13 is_stmt 1              # ldecod_src/transform.c:138:13
	leal	(%rax,%r12), %r11d
.Ltmp269:
	#DEBUG_VALUE: hadamard4x4:t0 <- $r11d
	.loc	0 0 13 is_stmt 0                # ldecod_src/transform.c:0:13
	movq	-104(%rsp), %rax                # 8-byte Reload
	movq	-120(%rsp), %rdx                # 8-byte Reload
	.loc	0 139 13 is_stmt 1              # ldecod_src/transform.c:139:13
	leal	(%rdx,%rax), %eax
.Ltmp270:
	#DEBUG_VALUE: hadamard4x4:t1 <- $eax
	.loc	0 0 13 is_stmt 0                # ldecod_src/transform.c:0:13
	movq	%rax, 16(%rsp)                  # 8-byte Spill
	.loc	0 143 20 is_stmt 1              # ldecod_src/transform.c:143:20
	leal	(%r11,%rax), %edx
.Ltmp271:
	#DEBUG_VALUE: hadamard4x4:tmp <- [DW_OP_LLVM_fragment 0 32] $edx
	.loc	0 0 20 is_stmt 0                # ldecod_src/transform.c:0:20
	movq	-128(%rsp), %rax                # 8-byte Reload
.Ltmp272:
	.loc	0 138 13 is_stmt 1              # ldecod_src/transform.c:138:13
	leal	(%rcx,%rax), %ecx
.Ltmp273:
	#DEBUG_VALUE: hadamard4x4:t0 <- $ecx
	.loc	0 0 13 is_stmt 0                # ldecod_src/transform.c:0:13
	movq	%rcx, -32(%rsp)                 # 8-byte Spill
	movq	-112(%rsp), %rax                # 8-byte Reload
	movq	-96(%rsp), %rsi                 # 8-byte Reload
	.loc	0 139 13 is_stmt 1              # ldecod_src/transform.c:139:13
	leal	(%rsi,%rax), %eax
.Ltmp274:
	#DEBUG_VALUE: hadamard4x4:t1 <- $eax
	.loc	0 0 13 is_stmt 0                # ldecod_src/transform.c:0:13
	movq	%rax, 8(%rsp)                   # 8-byte Spill
	.loc	0 143 20 is_stmt 1              # ldecod_src/transform.c:143:20
	leal	(%rcx,%rax), %esi
.Ltmp275:
	#DEBUG_VALUE: hadamard4x4:tmp <- [DW_OP_LLVM_fragment 128 32] $esi
	.loc	0 138 13                        # ldecod_src/transform.c:138:13
	leal	(%rbx,%r13), %eax
.Ltmp276:
	#DEBUG_VALUE: hadamard4x4:t0 <- $eax
	.loc	0 0 13 is_stmt 0                # ldecod_src/transform.c:0:13
	movq	%rax, -8(%rsp)                  # 8-byte Spill
	.loc	0 139 13 is_stmt 1              # ldecod_src/transform.c:139:13
	leal	(%r15,%rbp), %ecx
.Ltmp277:
	#DEBUG_VALUE: hadamard4x4:t1 <- $ecx
	.loc	0 0 13 is_stmt 0                # ldecod_src/transform.c:0:13
	movq	%rbp, %r13
	movq	%rcx, (%rsp)                    # 8-byte Spill
	.loc	0 143 20 is_stmt 1              # ldecod_src/transform.c:143:20
	leal	(%rax,%rcx), %ebx
.Ltmp278:
	#DEBUG_VALUE: hadamard4x4:tmp <- [DW_OP_LLVM_fragment 256 32] $ebx
	.loc	0 138 13                        # ldecod_src/transform.c:138:13
	leal	(%rdi,%r8), %eax
.Ltmp279:
	#DEBUG_VALUE: hadamard4x4:t0 <- $eax
	.loc	0 0 13 is_stmt 0                # ldecod_src/transform.c:0:13
	movq	%rax, -24(%rsp)                 # 8-byte Spill
.Ltmp280:
	#DEBUG_VALUE: hadamard4x4:t0 <- [DW_OP_constu 24, DW_OP_minus, DW_OP_deref] $rsp
	.loc	0 139 13 is_stmt 1              # ldecod_src/transform.c:139:13
	leal	(%r9,%r10), %ecx
.Ltmp281:
	#DEBUG_VALUE: hadamard4x4:t1 <- $ecx
	#DEBUG_VALUE: hadamard4x4:t2 <- undef
	#DEBUG_VALUE: hadamard4x4:t3 <- undef
	.loc	0 0 13 is_stmt 0                # ldecod_src/transform.c:0:13
	movq	%rcx, -16(%rsp)                 # 8-byte Spill
.Ltmp282:
	#DEBUG_VALUE: hadamard4x4:t1 <- [DW_OP_constu 16, DW_OP_minus, DW_OP_deref] $rsp
	.loc	0 143 20 is_stmt 1              # ldecod_src/transform.c:143:20
	leal	(%rax,%rcx), %r8d
.Ltmp283:
	#DEBUG_VALUE: hadamard4x4:tmp <- [DW_OP_LLVM_fragment 384 32] $r8d
	#DEBUG_VALUE: hadamard4x4:tmp <- [DW_OP_LLVM_fragment 416 32] undef
	#DEBUG_VALUE: hadamard4x4:tmp <- [DW_OP_LLVM_fragment 448 32] undef
	#DEBUG_VALUE: hadamard4x4:tmp <- [DW_OP_LLVM_fragment 480 32] undef
	#DEBUG_VALUE: hadamard4x4:i <- 4
	#DEBUG_VALUE: hadamard4x4:i <- 0
	#DEBUG_VALUE: hadamard4x4:p0 <- $edx
	#DEBUG_VALUE: hadamard4x4:p1 <- $esi
	#DEBUG_VALUE: hadamard4x4:p2 <- $ebx
	#DEBUG_VALUE: hadamard4x4:p3 <- $r8d
	.loc	0 158 13                        # ldecod_src/transform.c:158:13
	leal	(%r8,%rdx), %ecx
.Ltmp284:
	#DEBUG_VALUE: hadamard4x4:t0 <- $ecx
	.loc	0 159 13                        # ldecod_src/transform.c:159:13
	leal	(%rbx,%rsi), %edi
.Ltmp285:
	#DEBUG_VALUE: hadamard4x4:t1 <- $edi
	#DEBUG_VALUE: hadamard4x4:t2 <- undef
	#DEBUG_VALUE: hadamard4x4:t3 <- undef
	.loc	0 163 24                        # ldecod_src/transform.c:163:24
	leal	(%rcx,%rdi), %eax
	.loc	0 163 30 is_stmt 0              # ldecod_src/transform.c:163:30
	sarl	%eax
	.loc	0 163 5                         # ldecod_src/transform.c:163:5
	movq	(%r14), %rbp
	.loc	0 163 18                        # ldecod_src/transform.c:163:18
	movl	%eax, (%rbp)
	.loc	0 160 13 is_stmt 1              # ldecod_src/transform.c:160:13
	subl	%ebx, %esi
.Ltmp286:
	#DEBUG_VALUE: hadamard4x4:t2 <- $esi
	.loc	0 161 13                        # ldecod_src/transform.c:161:13
	subl	%r8d, %edx
.Ltmp287:
	#DEBUG_VALUE: hadamard4x4:t3 <- $edx
	.loc	0 164 24                        # ldecod_src/transform.c:164:24
	leal	(%rdx,%rsi), %eax
	.loc	0 164 30 is_stmt 0              # ldecod_src/transform.c:164:30
	sarl	%eax
	.loc	0 164 5                         # ldecod_src/transform.c:164:5
	movq	8(%r14), %r8
.Ltmp288:
	.loc	0 164 18                        # ldecod_src/transform.c:164:18
	movl	%eax, (%r8)
	.loc	0 165 24 is_stmt 1              # ldecod_src/transform.c:165:24
	subl	%edi, %ecx
.Ltmp289:
	.loc	0 165 30 is_stmt 0              # ldecod_src/transform.c:165:30
	sarl	%ecx
	.loc	0 165 5                         # ldecod_src/transform.c:165:5
	movq	16(%r14), %rax
	.loc	0 165 18                        # ldecod_src/transform.c:165:18
	movl	%ecx, (%rax)
	.loc	0 166 24 is_stmt 1              # ldecod_src/transform.c:166:24
	subl	%esi, %edx
.Ltmp290:
	.loc	0 166 30 is_stmt 0              # ldecod_src/transform.c:166:30
	sarl	%edx
	.loc	0 166 5                         # ldecod_src/transform.c:166:5
	movq	24(%r14), %rax
	.loc	0 166 18                        # ldecod_src/transform.c:166:18
	movl	%edx, (%rax)
.Ltmp291:
	#DEBUG_VALUE: hadamard4x4:i <- 1
	#DEBUG_VALUE: hadamard4x4:p0 <- undef
	#DEBUG_VALUE: hadamard4x4:p1 <- undef
	#DEBUG_VALUE: hadamard4x4:p2 <- undef
	#DEBUG_VALUE: hadamard4x4:p3 <- undef
	.loc	0 0 18                          # ldecod_src/transform.c:0:18
	movq	-104(%rsp), %rax                # 8-byte Reload
.Ltmp292:
	.loc	0 140 13 is_stmt 1              # ldecod_src/transform.c:140:13
	subl	-120(%rsp), %eax                # 4-byte Folded Reload
.Ltmp293:
	#DEBUG_VALUE: hadamard4x4:t2 <- $eax
	.loc	0 0 13 is_stmt 0                # ldecod_src/transform.c:0:13
	movq	%rax, -104(%rsp)                # 8-byte Spill
	.loc	0 141 13 is_stmt 1              # ldecod_src/transform.c:141:13
	subl	-88(%rsp), %r12d                # 4-byte Folded Reload
.Ltmp294:
	#DEBUG_VALUE: hadamard4x4:t3 <- $r12d
	.loc	0 0 13 is_stmt 0                # ldecod_src/transform.c:0:13
	movq	-112(%rsp), %rcx                # 8-byte Reload
	.loc	0 140 13 is_stmt 1              # ldecod_src/transform.c:140:13
	subl	-96(%rsp), %ecx                 # 4-byte Folded Reload
.Ltmp295:
	#DEBUG_VALUE: hadamard4x4:t2 <- $ecx
	.loc	0 0 13 is_stmt 0                # ldecod_src/transform.c:0:13
	movq	%rcx, -112(%rsp)                # 8-byte Spill
	movq	-128(%rsp), %r15                # 8-byte Reload
	.loc	0 141 13 is_stmt 1              # ldecod_src/transform.c:141:13
	subl	-40(%rsp), %r15d                # 4-byte Folded Reload
.Ltmp296:
	#DEBUG_VALUE: hadamard4x4:t3 <- $r15d
	.loc	0 0 13 is_stmt 0                # ldecod_src/transform.c:0:13
	movq	%r13, %rsi
	.loc	0 140 13 is_stmt 1              # ldecod_src/transform.c:140:13
	subl	-64(%rsp), %esi                 # 4-byte Folded Reload
.Ltmp297:
	#DEBUG_VALUE: hadamard4x4:t2 <- $esi
	.loc	0 0 13 is_stmt 0                # ldecod_src/transform.c:0:13
	movq	%rsi, -120(%rsp)                # 8-byte Spill
	movq	-56(%rsp), %r13                 # 8-byte Reload
	.loc	0 141 13 is_stmt 1              # ldecod_src/transform.c:141:13
	subl	-48(%rsp), %r13d                # 4-byte Folded Reload
.Ltmp298:
	#DEBUG_VALUE: hadamard4x4:t3 <- $r13d
	.loc	0 140 13                        # ldecod_src/transform.c:140:13
	subl	%r9d, %r10d
.Ltmp299:
	#DEBUG_VALUE: hadamard4x4:t2 <- $r10d
	.loc	0 0 13 is_stmt 0                # ldecod_src/transform.c:0:13
	movq	%r10, -128(%rsp)                # 8-byte Spill
	movq	-72(%rsp), %r9                  # 8-byte Reload
	.loc	0 141 13 is_stmt 1              # ldecod_src/transform.c:141:13
	subl	-80(%rsp), %r9d                 # 4-byte Folded Reload
.Ltmp300:
	#DEBUG_VALUE: hadamard4x4:t3 <- $r9d
	.loc	0 144 20                        # ldecod_src/transform.c:144:20
	addl	%r12d, %eax
.Ltmp301:
	#DEBUG_VALUE: hadamard4x4:tmp <- [DW_OP_LLVM_fragment 32 32] $eax
	#DEBUG_VALUE: hadamard4x4:p0 <- $eax
	addl	%r15d, %ecx
.Ltmp302:
	#DEBUG_VALUE: hadamard4x4:tmp <- [DW_OP_LLVM_fragment 160 32] $ecx
	#DEBUG_VALUE: hadamard4x4:p1 <- $ecx
	leal	(%r13,%rsi), %edx
.Ltmp303:
	#DEBUG_VALUE: hadamard4x4:tmp <- [DW_OP_LLVM_fragment 288 32] $edx
	#DEBUG_VALUE: hadamard4x4:p2 <- $edx
	leal	(%r9,%r10), %esi
.Ltmp304:
	#DEBUG_VALUE: hadamard4x4:tmp <- [DW_OP_LLVM_fragment 416 32] $esi
	#DEBUG_VALUE: hadamard4x4:p3 <- $esi
	.loc	0 158 13                        # ldecod_src/transform.c:158:13
	leal	(%rsi,%rax), %edi
.Ltmp305:
	#DEBUG_VALUE: hadamard4x4:t0 <- $edi
	.loc	0 159 13                        # ldecod_src/transform.c:159:13
	leal	(%rdx,%rcx), %r8d
.Ltmp306:
	#DEBUG_VALUE: hadamard4x4:t1 <- $r8d
	#DEBUG_VALUE: hadamard4x4:t2 <- undef
	#DEBUG_VALUE: hadamard4x4:t3 <- undef
	.loc	0 163 24                        # ldecod_src/transform.c:163:24
	leal	(%rdi,%r8), %ebx
.Ltmp307:
	.loc	0 163 30 is_stmt 0              # ldecod_src/transform.c:163:30
	sarl	%ebx
	.loc	0 163 5                         # ldecod_src/transform.c:163:5
	movq	(%r14), %rbp
	.loc	0 163 18                        # ldecod_src/transform.c:163:18
	movl	%ebx, 4(%rbp)
	.loc	0 160 13 is_stmt 1              # ldecod_src/transform.c:160:13
	subl	%edx, %ecx
.Ltmp308:
	#DEBUG_VALUE: hadamard4x4:t2 <- $ecx
	.loc	0 161 13                        # ldecod_src/transform.c:161:13
	subl	%esi, %eax
.Ltmp309:
	#DEBUG_VALUE: hadamard4x4:t3 <- $eax
	.loc	0 164 24                        # ldecod_src/transform.c:164:24
	leal	(%rax,%rcx), %edx
.Ltmp310:
	.loc	0 164 30 is_stmt 0              # ldecod_src/transform.c:164:30
	sarl	%edx
	.loc	0 164 5                         # ldecod_src/transform.c:164:5
	movq	8(%r14), %rsi
.Ltmp311:
	.loc	0 164 18                        # ldecod_src/transform.c:164:18
	movl	%edx, 4(%rsi)
	.loc	0 165 24 is_stmt 1              # ldecod_src/transform.c:165:24
	subl	%r8d, %edi
.Ltmp312:
	.loc	0 165 30 is_stmt 0              # ldecod_src/transform.c:165:30
	sarl	%edi
	.loc	0 165 5                         # ldecod_src/transform.c:165:5
	movq	16(%r14), %rdx
	.loc	0 165 18                        # ldecod_src/transform.c:165:18
	movl	%edi, 4(%rdx)
.Ltmp313:
	.loc	0 145 20 is_stmt 1              # ldecod_src/transform.c:145:20
	subl	16(%rsp), %r11d                 # 4-byte Folded Reload
.Ltmp314:
	#DEBUG_VALUE: hadamard4x4:tmp <- [DW_OP_LLVM_fragment 64 32] $r11d
	.loc	0 0 20 is_stmt 0                # ldecod_src/transform.c:0:20
	movq	-32(%rsp), %rdi                 # 8-byte Reload
	.loc	0 145 20                        # ldecod_src/transform.c:145:20
	subl	8(%rsp), %edi                   # 4-byte Folded Reload
.Ltmp315:
	#DEBUG_VALUE: hadamard4x4:tmp <- [DW_OP_LLVM_fragment 192 32] $edi
	.loc	0 0 20                          # ldecod_src/transform.c:0:20
	movq	-8(%rsp), %rdx                  # 8-byte Reload
	.loc	0 145 20                        # ldecod_src/transform.c:145:20
	subl	(%rsp), %edx                    # 4-byte Folded Reload
.Ltmp316:
	#DEBUG_VALUE: hadamard4x4:tmp <- [DW_OP_LLVM_fragment 320 32] $edx
	.loc	0 0 20                          # ldecod_src/transform.c:0:20
	movq	-24(%rsp), %rsi                 # 8-byte Reload
	.loc	0 145 20                        # ldecod_src/transform.c:145:20
	subl	-16(%rsp), %esi                 # 4-byte Folded Reload
.Ltmp317:
	#DEBUG_VALUE: hadamard4x4:tmp <- [DW_OP_LLVM_fragment 448 32] $esi
	.loc	0 166 24 is_stmt 1              # ldecod_src/transform.c:166:24
	subl	%ecx, %eax
.Ltmp318:
	.loc	0 166 30 is_stmt 0              # ldecod_src/transform.c:166:30
	sarl	%eax
	.loc	0 166 5                         # ldecod_src/transform.c:166:5
	movq	24(%r14), %rcx
.Ltmp319:
	.loc	0 166 18                        # ldecod_src/transform.c:166:18
	movl	%eax, 4(%rcx)
.Ltmp320:
	#DEBUG_VALUE: hadamard4x4:i <- 2
	#DEBUG_VALUE: hadamard4x4:p0 <- $r11d
	#DEBUG_VALUE: hadamard4x4:p1 <- $edi
	#DEBUG_VALUE: hadamard4x4:p2 <- $edx
	#DEBUG_VALUE: hadamard4x4:p3 <- $esi
	.loc	0 158 13 is_stmt 1              # ldecod_src/transform.c:158:13
	leal	(%rsi,%r11), %eax
.Ltmp321:
	#DEBUG_VALUE: hadamard4x4:t0 <- $eax
	.loc	0 159 13                        # ldecod_src/transform.c:159:13
	leal	(%rdx,%rdi), %ecx
.Ltmp322:
	#DEBUG_VALUE: hadamard4x4:t1 <- $ecx
	.loc	0 160 13                        # ldecod_src/transform.c:160:13
	subl	%edx, %edi
.Ltmp323:
	#DEBUG_VALUE: hadamard4x4:t2 <- $edi
	.loc	0 161 13                        # ldecod_src/transform.c:161:13
	subl	%esi, %r11d
.Ltmp324:
	#DEBUG_VALUE: hadamard4x4:t3 <- $r11d
	.loc	0 163 24                        # ldecod_src/transform.c:163:24
	leal	(%rax,%rcx), %edx
.Ltmp325:
	.loc	0 163 30 is_stmt 0              # ldecod_src/transform.c:163:30
	sarl	%edx
	.loc	0 163 5                         # ldecod_src/transform.c:163:5
	movq	(%r14), %rsi
.Ltmp326:
	.loc	0 163 18                        # ldecod_src/transform.c:163:18
	movl	%edx, 8(%rsi)
	.loc	0 164 24 is_stmt 1              # ldecod_src/transform.c:164:24
	leal	(%r11,%rdi), %edx
	.loc	0 164 30 is_stmt 0              # ldecod_src/transform.c:164:30
	sarl	%edx
	.loc	0 164 5                         # ldecod_src/transform.c:164:5
	movq	8(%r14), %rsi
	.loc	0 164 18                        # ldecod_src/transform.c:164:18
	movl	%edx, 8(%rsi)
	.loc	0 165 24 is_stmt 1              # ldecod_src/transform.c:165:24
	subl	%ecx, %eax
.Ltmp327:
	.loc	0 165 30 is_stmt 0              # ldecod_src/transform.c:165:30
	sarl	%eax
	.loc	0 165 5                         # ldecod_src/transform.c:165:5
	movq	16(%r14), %rcx
.Ltmp328:
	.loc	0 165 18                        # ldecod_src/transform.c:165:18
	movl	%eax, 8(%rcx)
.Ltmp329:
	.loc	0 146 20 is_stmt 1              # ldecod_src/transform.c:146:20
	subl	-104(%rsp), %r12d               # 4-byte Folded Reload
.Ltmp330:
	#DEBUG_VALUE: hadamard4x4:tmp <- [DW_OP_LLVM_fragment 96 32] $r12d
	subl	-112(%rsp), %r15d               # 4-byte Folded Reload
.Ltmp331:
	#DEBUG_VALUE: hadamard4x4:tmp <- [DW_OP_LLVM_fragment 224 32] $r15d
	subl	-120(%rsp), %r13d               # 4-byte Folded Reload
.Ltmp332:
	#DEBUG_VALUE: hadamard4x4:tmp <- [DW_OP_LLVM_fragment 352 32] $r13d
	subl	-128(%rsp), %r9d                # 4-byte Folded Reload
.Ltmp333:
	#DEBUG_VALUE: hadamard4x4:tmp <- [DW_OP_LLVM_fragment 480 32] $r9d
	.loc	0 166 24                        # ldecod_src/transform.c:166:24
	subl	%edi, %r11d
.Ltmp334:
	.loc	0 166 30 is_stmt 0              # ldecod_src/transform.c:166:30
	sarl	%r11d
	.loc	0 166 5                         # ldecod_src/transform.c:166:5
	movq	24(%r14), %rax
	.loc	0 166 18                        # ldecod_src/transform.c:166:18
	movl	%r11d, 8(%rax)
.Ltmp335:
	#DEBUG_VALUE: hadamard4x4:i <- 3
	#DEBUG_VALUE: hadamard4x4:p0 <- $r12d
	#DEBUG_VALUE: hadamard4x4:p1 <- $r15d
	#DEBUG_VALUE: hadamard4x4:p2 <- $r13d
	#DEBUG_VALUE: hadamard4x4:p3 <- $r9d
	.loc	0 158 13 is_stmt 1              # ldecod_src/transform.c:158:13
	leal	(%r9,%r12), %eax
.Ltmp336:
	#DEBUG_VALUE: hadamard4x4:t0 <- $eax
	.loc	0 159 13                        # ldecod_src/transform.c:159:13
	leal	(%r15,%r13), %ecx
.Ltmp337:
	#DEBUG_VALUE: hadamard4x4:t1 <- $ecx
	.loc	0 160 13                        # ldecod_src/transform.c:160:13
	subl	%r13d, %r15d
.Ltmp338:
	#DEBUG_VALUE: hadamard4x4:t2 <- $r15d
	.loc	0 161 13                        # ldecod_src/transform.c:161:13
	subl	%r9d, %r12d
.Ltmp339:
	#DEBUG_VALUE: hadamard4x4:t3 <- $r12d
	.loc	0 163 24                        # ldecod_src/transform.c:163:24
	leal	(%rax,%rcx), %edx
	.loc	0 163 30 is_stmt 0              # ldecod_src/transform.c:163:30
	sarl	%edx
	.loc	0 163 5                         # ldecod_src/transform.c:163:5
	movq	(%r14), %rsi
	.loc	0 163 18                        # ldecod_src/transform.c:163:18
	movl	%edx, 12(%rsi)
	.loc	0 164 24 is_stmt 1              # ldecod_src/transform.c:164:24
	leal	(%r12,%r15), %edx
	.loc	0 164 30 is_stmt 0              # ldecod_src/transform.c:164:30
	sarl	%edx
	.loc	0 164 5                         # ldecod_src/transform.c:164:5
	movq	8(%r14), %rsi
	.loc	0 164 18                        # ldecod_src/transform.c:164:18
	movl	%edx, 12(%rsi)
	.loc	0 165 24 is_stmt 1              # ldecod_src/transform.c:165:24
	subl	%ecx, %eax
.Ltmp340:
	.loc	0 165 30 is_stmt 0              # ldecod_src/transform.c:165:30
	sarl	%eax
	.loc	0 165 5                         # ldecod_src/transform.c:165:5
	movq	16(%r14), %rcx
.Ltmp341:
	.loc	0 165 18                        # ldecod_src/transform.c:165:18
	movl	%eax, 12(%rcx)
	.loc	0 166 24 is_stmt 1              # ldecod_src/transform.c:166:24
	subl	%r15d, %r12d
.Ltmp342:
	.loc	0 166 30 is_stmt 0              # ldecod_src/transform.c:166:30
	sarl	%r12d
	.loc	0 166 5                         # ldecod_src/transform.c:166:5
	movq	24(%r14), %rax
	.loc	0 166 18                        # ldecod_src/transform.c:166:18
	movl	%r12d, 12(%rax)
.Ltmp343:
	#DEBUG_VALUE: hadamard4x4:i <- 4
	.loc	0 168 1 epilogue_begin is_stmt 1 # ldecod_src/transform.c:168:1
	addq	$24, %rsp
	.cfi_def_cfa_offset 56
	popq	%rbx
	.cfi_def_cfa_offset 48
	popq	%r12
	.cfi_def_cfa_offset 40
	popq	%r13
.Ltmp344:
	.cfi_def_cfa_offset 32
	popq	%r14
.Ltmp345:
	#DEBUG_VALUE: hadamard4x4:tblock <- [DW_OP_LLVM_entry_value 1] $rsi
	.cfi_def_cfa_offset 24
	popq	%r15
.Ltmp346:
	.cfi_def_cfa_offset 16
	popq	%rbp
	.cfi_def_cfa_offset 8
	retq
.Ltmp347:
.Lfunc_end2:
	.size	hadamard4x4, .Lfunc_end2-hadamard4x4
	.cfi_endproc
                                        # -- End function
	.globl	ihadamard4x4                    # -- Begin function ihadamard4x4
	.p2align	4, 0x90
	.type	ihadamard4x4,@function
ihadamard4x4:                           # @ihadamard4x4
.Lfunc_begin3:
	.loc	0 172 0                         # ldecod_src/transform.c:172:0
	.cfi_startproc
# %bb.0:                                # %entry
	#DEBUG_VALUE: ihadamard4x4:tblock <- $rdi
	#DEBUG_VALUE: ihadamard4x4:block <- $rsi
	pushq	%rbp
	.cfi_def_cfa_offset 16
	pushq	%r15
	.cfi_def_cfa_offset 24
	pushq	%r14
	.cfi_def_cfa_offset 32
	pushq	%r13
	.cfi_def_cfa_offset 40
	pushq	%r12
	.cfi_def_cfa_offset 48
	pushq	%rbx
	.cfi_def_cfa_offset 56
	.cfi_offset %rbx, -56
	.cfi_offset %r12, -48
	.cfi_offset %r13, -40
	.cfi_offset %r14, -32
	.cfi_offset %r15, -24
	.cfi_offset %rbp, -16
	movq	%rsi, %r13
.Ltmp348:
	#DEBUG_VALUE: ihadamard4x4:i <- 0
	.loc	0 182 14 prologue_end           # ldecod_src/transform.c:182:14
	movq	(%rdi), %r15
.Ltmp349:
	#DEBUG_VALUE: ihadamard4x4:pblock <- $r15
	#DEBUG_VALUE: ihadamard4x4:i <- 1
	movq	8(%rdi), %rax
.Ltmp350:
	#DEBUG_VALUE: ihadamard4x4:pblock <- $rax
	#DEBUG_VALUE: ihadamard4x4:pblock <- [DW_OP_plus_uconst 4, DW_OP_stack_value] $r15
	#DEBUG_VALUE: ihadamard4x4:t0 <- undef
	#DEBUG_VALUE: ihadamard4x4:pblock <- [DW_OP_plus_uconst 8, DW_OP_stack_value] $r15
	.loc	0 184 10                        # ldecod_src/transform.c:184:10
	movl	4(%r15), %ecx
.Ltmp351:
	#DEBUG_VALUE: ihadamard4x4:t1 <- $ecx
	#DEBUG_VALUE: ihadamard4x4:pblock <- [DW_OP_plus_uconst 12, DW_OP_stack_value] $r15
	#DEBUG_VALUE: ihadamard4x4:t2 <- undef
	.loc	0 186 10                        # ldecod_src/transform.c:186:10
	movl	12(%r15), %edx
.Ltmp352:
	#DEBUG_VALUE: ihadamard4x4:t3 <- $edx
	#DEBUG_VALUE: ihadamard4x4:p0 <- undef
	#DEBUG_VALUE: ihadamard4x4:p1 <- undef
	.loc	0 190 13                        # ldecod_src/transform.c:190:13
	movl	%ecx, %esi
.Ltmp353:
	#DEBUG_VALUE: ihadamard4x4:block <- $r13
	subl	%edx, %esi
.Ltmp354:
	#DEBUG_VALUE: ihadamard4x4:p2 <- $esi
	.loc	0 0 13 is_stmt 0                # ldecod_src/transform.c:0:13
	movq	%rsi, -8(%rsp)                  # 8-byte Spill
.Ltmp355:
	#DEBUG_VALUE: ihadamard4x4:p2 <- [DW_OP_constu 8, DW_OP_minus, DW_OP_deref] $rsp
	.loc	0 191 13 is_stmt 1              # ldecod_src/transform.c:191:13
	addl	%ecx, %edx
.Ltmp356:
	#DEBUG_VALUE: ihadamard4x4:p3 <- $edx
	#DEBUG_VALUE: ihadamard4x4:tmp <- [DW_OP_LLVM_fragment 0 32] undef
	#DEBUG_VALUE: ihadamard4x4:tmp <- [DW_OP_LLVM_fragment 32 32] undef
	#DEBUG_VALUE: ihadamard4x4:tmp <- [DW_OP_LLVM_fragment 64 32] undef
	#DEBUG_VALUE: ihadamard4x4:tmp <- [DW_OP_LLVM_fragment 96 32] undef
	#DEBUG_VALUE: ihadamard4x4:pblock <- [DW_OP_plus_uconst 4, DW_OP_stack_value] $rax
	.loc	0 0 13 is_stmt 0                # ldecod_src/transform.c:0:13
	movq	%rdx, -56(%rsp)                 # 8-byte Spill
.Ltmp357:
	#DEBUG_VALUE: ihadamard4x4:p3 <- [DW_OP_constu 56, DW_OP_minus, DW_OP_deref] $rsp
	.loc	0 183 10 is_stmt 1              # ldecod_src/transform.c:183:10
	movl	(%rax), %r9d
.Ltmp358:
	#DEBUG_VALUE: ihadamard4x4:t0 <- $r9d
	#DEBUG_VALUE: ihadamard4x4:pblock <- [DW_OP_plus_uconst 8, DW_OP_stack_value] $rax
	.loc	0 0 10 is_stmt 0                # ldecod_src/transform.c:0:10
	movq	%r9, -88(%rsp)                  # 8-byte Spill
.Ltmp359:
	#DEBUG_VALUE: ihadamard4x4:t0 <- [DW_OP_constu 88, DW_OP_minus, DW_OP_deref] $rsp
	.loc	0 184 10 is_stmt 1              # ldecod_src/transform.c:184:10
	movl	4(%rax), %ecx
.Ltmp360:
	#DEBUG_VALUE: ihadamard4x4:t1 <- $ecx
	#DEBUG_VALUE: ihadamard4x4:pblock <- [DW_OP_plus_uconst 12, DW_OP_stack_value] $rax
	.loc	0 185 10                        # ldecod_src/transform.c:185:10
	movl	8(%rax), %ebx
.Ltmp361:
	#DEBUG_VALUE: ihadamard4x4:t2 <- $ebx
	.loc	0 0 10 is_stmt 0                # ldecod_src/transform.c:0:10
	movq	%rbx, -80(%rsp)                 # 8-byte Spill
.Ltmp362:
	#DEBUG_VALUE: ihadamard4x4:t2 <- [DW_OP_constu 80, DW_OP_minus, DW_OP_deref] $rsp
	.loc	0 186 10 is_stmt 1              # ldecod_src/transform.c:186:10
	movl	12(%rax), %eax
.Ltmp363:
	#DEBUG_VALUE: ihadamard4x4:t3 <- $eax
	#DEBUG_VALUE: ihadamard4x4:p0 <- undef
	#DEBUG_VALUE: ihadamard4x4:p1 <- undef
	.loc	0 190 13                        # ldecod_src/transform.c:190:13
	movl	%ecx, %esi
	subl	%eax, %esi
.Ltmp364:
	#DEBUG_VALUE: ihadamard4x4:p2 <- $esi
	.loc	0 0 13 is_stmt 0                # ldecod_src/transform.c:0:13
	movq	%rsi, -112(%rsp)                # 8-byte Spill
.Ltmp365:
	#DEBUG_VALUE: ihadamard4x4:p2 <- [DW_OP_constu 112, DW_OP_minus, DW_OP_deref] $rsp
	.loc	0 191 13 is_stmt 1              # ldecod_src/transform.c:191:13
	addl	%ecx, %eax
.Ltmp366:
	#DEBUG_VALUE: ihadamard4x4:p3 <- $eax
	#DEBUG_VALUE: ihadamard4x4:tmp <- [DW_OP_LLVM_fragment 128 32] undef
	#DEBUG_VALUE: ihadamard4x4:tmp <- [DW_OP_LLVM_fragment 160 32] undef
	#DEBUG_VALUE: ihadamard4x4:tmp <- [DW_OP_LLVM_fragment 192 32] undef
	#DEBUG_VALUE: ihadamard4x4:tmp <- [DW_OP_LLVM_fragment 224 32] undef
	#DEBUG_VALUE: ihadamard4x4:i <- 2
	.loc	0 0 13 is_stmt 0                # ldecod_src/transform.c:0:13
	movq	%rax, %rsi
	movq	%rax, -16(%rsp)                 # 8-byte Spill
.Ltmp367:
	#DEBUG_VALUE: ihadamard4x4:p3 <- [DW_OP_constu 16, DW_OP_minus, DW_OP_deref] $rsp
	.loc	0 182 14 is_stmt 1              # ldecod_src/transform.c:182:14
	movq	16(%rdi), %rbp
.Ltmp368:
	#DEBUG_VALUE: ihadamard4x4:pblock <- $rbp
	#DEBUG_VALUE: ihadamard4x4:pblock <- [DW_OP_plus_uconst 4, DW_OP_stack_value] $rbp
	#DEBUG_VALUE: ihadamard4x4:t0 <- undef
	#DEBUG_VALUE: ihadamard4x4:pblock <- [DW_OP_plus_uconst 8, DW_OP_stack_value] $rbp
	.loc	0 184 10                        # ldecod_src/transform.c:184:10
	movl	4(%rbp), %eax
.Ltmp369:
	#DEBUG_VALUE: ihadamard4x4:t1 <- $eax
	#DEBUG_VALUE: ihadamard4x4:pblock <- [DW_OP_plus_uconst 12, DW_OP_stack_value] $rbp
	#DEBUG_VALUE: ihadamard4x4:t2 <- undef
	.loc	0 186 10                        # ldecod_src/transform.c:186:10
	movl	12(%rbp), %ecx
.Ltmp370:
	#DEBUG_VALUE: ihadamard4x4:t3 <- $ecx
	#DEBUG_VALUE: ihadamard4x4:p0 <- undef
	#DEBUG_VALUE: ihadamard4x4:p1 <- undef
	.loc	0 190 13                        # ldecod_src/transform.c:190:13
	movl	%eax, %r8d
	subl	%ecx, %r8d
.Ltmp371:
	#DEBUG_VALUE: ihadamard4x4:p2 <- $r8d
	.loc	0 0 13 is_stmt 0                # ldecod_src/transform.c:0:13
	movq	%r8, -48(%rsp)                  # 8-byte Spill
.Ltmp372:
	#DEBUG_VALUE: ihadamard4x4:p2 <- [DW_OP_constu 48, DW_OP_minus, DW_OP_deref] $rsp
	.loc	0 191 13 is_stmt 1              # ldecod_src/transform.c:191:13
	addl	%eax, %ecx
.Ltmp373:
	#DEBUG_VALUE: ihadamard4x4:p3 <- $ecx
	#DEBUG_VALUE: ihadamard4x4:tmp <- [DW_OP_LLVM_fragment 256 32] undef
	#DEBUG_VALUE: ihadamard4x4:tmp <- [DW_OP_LLVM_fragment 288 32] undef
	#DEBUG_VALUE: ihadamard4x4:tmp <- [DW_OP_LLVM_fragment 320 32] undef
	#DEBUG_VALUE: ihadamard4x4:tmp <- [DW_OP_LLVM_fragment 352 32] undef
	#DEBUG_VALUE: ihadamard4x4:i <- 3
	.loc	0 0 13 is_stmt 0                # ldecod_src/transform.c:0:13
	movq	%rcx, %r10
	movq	%rcx, -64(%rsp)                 # 8-byte Spill
.Ltmp374:
	#DEBUG_VALUE: ihadamard4x4:p3 <- [DW_OP_constu 64, DW_OP_minus, DW_OP_deref] $rsp
	.loc	0 182 14 is_stmt 1              # ldecod_src/transform.c:182:14
	movq	24(%rdi), %rax
.Ltmp375:
	#DEBUG_VALUE: ihadamard4x4:pblock <- $rax
	#DEBUG_VALUE: ihadamard4x4:pblock <- [DW_OP_plus_uconst 4, DW_OP_stack_value] $rax
	#DEBUG_VALUE: ihadamard4x4:t0 <- undef
	#DEBUG_VALUE: ihadamard4x4:pblock <- [DW_OP_plus_uconst 8, DW_OP_stack_value] $rax
	.loc	0 184 10                        # ldecod_src/transform.c:184:10
	movl	4(%rax), %ecx
.Ltmp376:
	#DEBUG_VALUE: ihadamard4x4:t1 <- $ecx
	#DEBUG_VALUE: ihadamard4x4:pblock <- [DW_OP_plus_uconst 12, DW_OP_stack_value] $rax
	#DEBUG_VALUE: ihadamard4x4:t2 <- undef
	.loc	0 186 10                        # ldecod_src/transform.c:186:10
	movl	12(%rax), %edi
.Ltmp377:
	#DEBUG_VALUE: ihadamard4x4:tblock <- [DW_OP_LLVM_entry_value 1] $rdi
	#DEBUG_VALUE: ihadamard4x4:t3 <- $edi
	#DEBUG_VALUE: ihadamard4x4:p0 <- undef
	#DEBUG_VALUE: ihadamard4x4:p1 <- undef
	.loc	0 190 13                        # ldecod_src/transform.c:190:13
	movl	%ecx, %r11d
	subl	%edi, %r11d
.Ltmp378:
	#DEBUG_VALUE: ihadamard4x4:p2 <- $r11d
	.loc	0 0 13 is_stmt 0                # ldecod_src/transform.c:0:13
	movq	%r11, -104(%rsp)                # 8-byte Spill
.Ltmp379:
	#DEBUG_VALUE: ihadamard4x4:p2 <- [DW_OP_constu 104, DW_OP_minus, DW_OP_deref] $rsp
	.loc	0 191 13 is_stmt 1              # ldecod_src/transform.c:191:13
	addl	%ecx, %edi
.Ltmp380:
	#DEBUG_VALUE: ihadamard4x4:p3 <- $edi
	.loc	0 0 13 is_stmt 0                # ldecod_src/transform.c:0:13
	movq	%rdi, -32(%rsp)                 # 8-byte Spill
.Ltmp381:
	#DEBUG_VALUE: ihadamard4x4:p3 <- [DW_OP_constu 32, DW_OP_minus, DW_OP_deref] $rsp
	.loc	0 183 10 is_stmt 1              # ldecod_src/transform.c:183:10
	movl	(%rax), %r14d
.Ltmp382:
	#DEBUG_VALUE: ihadamard4x4:t0 <- $r14d
	.loc	0 185 10                        # ldecod_src/transform.c:185:10
	movl	8(%rax), %ecx
.Ltmp383:
	#DEBUG_VALUE: ihadamard4x4:t2 <- $ecx
	.loc	0 0 10 is_stmt 0                # ldecod_src/transform.c:0:10
	movq	%rcx, -96(%rsp)                 # 8-byte Spill
	.loc	0 188 13 is_stmt 1              # ldecod_src/transform.c:188:13
	leal	(%rbx,%r9), %eax
.Ltmp384:
	#DEBUG_VALUE: ihadamard4x4:p0 <- $eax
	.loc	0 0 13 is_stmt 0                # ldecod_src/transform.c:0:13
	movq	%rax, -24(%rsp)                 # 8-byte Spill
	.loc	0 193 20 is_stmt 1              # ldecod_src/transform.c:193:20
	addl	%esi, %eax
.Ltmp385:
	#DEBUG_VALUE: ihadamard4x4:tmp <- [DW_OP_LLVM_fragment 128 32] $eax
	.loc	0 188 13                        # ldecod_src/transform.c:188:13
	addl	%r14d, %ecx
.Ltmp386:
	#DEBUG_VALUE: ihadamard4x4:p0 <- $ecx
	.loc	0 0 13 is_stmt 0                # ldecod_src/transform.c:0:13
	movq	%rcx, -40(%rsp)                 # 8-byte Spill
	.loc	0 193 20 is_stmt 1              # ldecod_src/transform.c:193:20
	leal	(%rdi,%rcx), %r9d
.Ltmp387:
	#DEBUG_VALUE: ihadamard4x4:tmp <- [DW_OP_LLVM_fragment 384 32] $r9d
	#DEBUG_VALUE: ihadamard4x4:tmp <- [DW_OP_LLVM_fragment 416 32] undef
	#DEBUG_VALUE: ihadamard4x4:tmp <- [DW_OP_LLVM_fragment 448 32] undef
	#DEBUG_VALUE: ihadamard4x4:tmp <- [DW_OP_LLVM_fragment 480 32] undef
	#DEBUG_VALUE: ihadamard4x4:i <- 4
	#DEBUG_VALUE: ihadamard4x4:i <- 0
	#DEBUG_VALUE: ihadamard4x4:t0 <- undef
	#DEBUG_VALUE: ihadamard4x4:t1 <- $eax
	#DEBUG_VALUE: ihadamard4x4:t2 <- undef
	#DEBUG_VALUE: ihadamard4x4:t3 <- $r9d
	#DEBUG_VALUE: ihadamard4x4:p0 <- undef
	#DEBUG_VALUE: ihadamard4x4:p1 <- undef
	.loc	0 210 13                        # ldecod_src/transform.c:210:13
	movl	%eax, %esi
	subl	%r9d, %esi
.Ltmp388:
	#DEBUG_VALUE: ihadamard4x4:p2 <- $esi
	.loc	0 211 13                        # ldecod_src/transform.c:211:13
	addl	%eax, %r9d
.Ltmp389:
	#DEBUG_VALUE: ihadamard4x4:p3 <- $r9d
	.loc	0 183 10                        # ldecod_src/transform.c:183:10
	movl	(%r15), %ecx
.Ltmp390:
	#DEBUG_VALUE: ihadamard4x4:t0 <- $ecx
	.loc	0 185 10                        # ldecod_src/transform.c:185:10
	movl	8(%r15), %ebx
.Ltmp391:
	#DEBUG_VALUE: ihadamard4x4:t2 <- $ebx
	.loc	0 183 10                        # ldecod_src/transform.c:183:10
	movl	(%rbp), %r8d
.Ltmp392:
	#DEBUG_VALUE: ihadamard4x4:t0 <- $r8d
	.loc	0 185 10                        # ldecod_src/transform.c:185:10
	movl	8(%rbp), %r12d
.Ltmp393:
	#DEBUG_VALUE: ihadamard4x4:t2 <- $r12d
	.loc	0 188 13                        # ldecod_src/transform.c:188:13
	leal	(%rbx,%rcx), %r15d
.Ltmp394:
	#DEBUG_VALUE: ihadamard4x4:p0 <- $r15d
	.loc	0 193 20                        # ldecod_src/transform.c:193:20
	leal	(%rdx,%r15), %eax
.Ltmp395:
	#DEBUG_VALUE: ihadamard4x4:tmp <- [DW_OP_LLVM_fragment 0 32] $eax
	#DEBUG_VALUE: ihadamard4x4:t0 <- $eax
	.loc	0 188 13                        # ldecod_src/transform.c:188:13
	leal	(%r12,%r8), %edx
.Ltmp396:
	#DEBUG_VALUE: ihadamard4x4:p0 <- $edx
	.loc	0 0 13 is_stmt 0                # ldecod_src/transform.c:0:13
	movq	%rdx, -72(%rsp)                 # 8-byte Spill
	.loc	0 193 20 is_stmt 1              # ldecod_src/transform.c:193:20
	leal	(%r10,%rdx), %edi
.Ltmp397:
	#DEBUG_VALUE: ihadamard4x4:tmp <- [DW_OP_LLVM_fragment 256 32] $edi
	#DEBUG_VALUE: ihadamard4x4:t2 <- $edi
	.loc	0 208 13                        # ldecod_src/transform.c:208:13
	leal	(%rdi,%rax), %edx
.Ltmp398:
	#DEBUG_VALUE: ihadamard4x4:p0 <- $edx
	.loc	0 213 22                        # ldecod_src/transform.c:213:22
	leal	(%r9,%rdx), %r10d
	.loc	0 213 5 is_stmt 0               # ldecod_src/transform.c:213:5
	movq	(%r13), %rbp
	.loc	0 213 17                        # ldecod_src/transform.c:213:17
	movl	%r10d, (%rbp)
	.loc	0 209 13 is_stmt 1              # ldecod_src/transform.c:209:13
	subl	%edi, %eax
.Ltmp399:
	#DEBUG_VALUE: ihadamard4x4:p1 <- $eax
	.loc	0 214 22                        # ldecod_src/transform.c:214:22
	leal	(%rsi,%rax), %edi
.Ltmp400:
	.loc	0 214 5 is_stmt 0               # ldecod_src/transform.c:214:5
	movq	8(%r13), %r10
	.loc	0 214 17                        # ldecod_src/transform.c:214:17
	movl	%edi, (%r10)
	.loc	0 215 22 is_stmt 1              # ldecod_src/transform.c:215:22
	subl	%esi, %eax
.Ltmp401:
	.loc	0 215 5 is_stmt 0               # ldecod_src/transform.c:215:5
	movq	16(%r13), %rsi
.Ltmp402:
	.loc	0 215 17                        # ldecod_src/transform.c:215:17
	movl	%eax, (%rsi)
	.loc	0 216 22 is_stmt 1              # ldecod_src/transform.c:216:22
	subl	%r9d, %edx
.Ltmp403:
	.loc	0 216 5 is_stmt 0               # ldecod_src/transform.c:216:5
	movq	24(%r13), %rax
	.loc	0 216 17                        # ldecod_src/transform.c:216:17
	movl	%edx, (%rax)
.Ltmp404:
	#DEBUG_VALUE: ihadamard4x4:i <- 1
	#DEBUG_VALUE: ihadamard4x4:t0 <- undef
	#DEBUG_VALUE: ihadamard4x4:t1 <- undef
	#DEBUG_VALUE: ihadamard4x4:t2 <- undef
	#DEBUG_VALUE: ihadamard4x4:t3 <- undef
	#DEBUG_VALUE: ihadamard4x4:p0 <- undef
	#DEBUG_VALUE: ihadamard4x4:p1 <- undef
	.loc	0 189 13 is_stmt 1              # ldecod_src/transform.c:189:13
	subl	%ebx, %ecx
.Ltmp405:
	#DEBUG_VALUE: ihadamard4x4:p1 <- $ecx
	.loc	0 0 13 is_stmt 0                # ldecod_src/transform.c:0:13
	movq	-88(%rsp), %rdx                 # 8-byte Reload
	.loc	0 189 13                        # ldecod_src/transform.c:189:13
	subl	-80(%rsp), %edx                 # 4-byte Folded Reload
.Ltmp406:
	#DEBUG_VALUE: ihadamard4x4:p1 <- $edx
	subl	%r12d, %r8d
.Ltmp407:
	#DEBUG_VALUE: ihadamard4x4:p1 <- $r8d
	subl	-96(%rsp), %r14d                # 4-byte Folded Reload
.Ltmp408:
	#DEBUG_VALUE: ihadamard4x4:p1 <- $r14d
	.loc	0 0 13                          # ldecod_src/transform.c:0:13
	movq	-112(%rsp), %rax                # 8-byte Reload
	.loc	0 194 20 is_stmt 1              # ldecod_src/transform.c:194:20
	addl	%edx, %eax
.Ltmp409:
	#DEBUG_VALUE: ihadamard4x4:tmp <- [DW_OP_LLVM_fragment 160 32] $eax
	#DEBUG_VALUE: ihadamard4x4:t1 <- $eax
	.loc	0 0 20 is_stmt 0                # ldecod_src/transform.c:0:20
	movq	%rdx, %r12
	.loc	0 194 20                        # ldecod_src/transform.c:194:20
	leal	(%r11,%r14), %edx
.Ltmp410:
	#DEBUG_VALUE: ihadamard4x4:tmp <- [DW_OP_LLVM_fragment 416 32] $edx
	#DEBUG_VALUE: ihadamard4x4:t3 <- $edx
	.loc	0 210 13 is_stmt 1              # ldecod_src/transform.c:210:13
	movl	%eax, %esi
	subl	%edx, %esi
.Ltmp411:
	#DEBUG_VALUE: ihadamard4x4:p2 <- $esi
	.loc	0 211 13                        # ldecod_src/transform.c:211:13
	addl	%eax, %edx
.Ltmp412:
	#DEBUG_VALUE: ihadamard4x4:p3 <- $edx
	.loc	0 0 13 is_stmt 0                # ldecod_src/transform.c:0:13
	movq	-8(%rsp), %rbp                  # 8-byte Reload
.Ltmp413:
	.loc	0 194 20 is_stmt 1              # ldecod_src/transform.c:194:20
	leal	(%rcx,%rbp), %eax
.Ltmp414:
	#DEBUG_VALUE: ihadamard4x4:tmp <- [DW_OP_LLVM_fragment 32 32] $eax
	#DEBUG_VALUE: ihadamard4x4:t0 <- $eax
	.loc	0 0 20 is_stmt 0                # ldecod_src/transform.c:0:20
	movq	-48(%rsp), %r11                 # 8-byte Reload
	.loc	0 194 20                        # ldecod_src/transform.c:194:20
	leal	(%r11,%r8), %edi
.Ltmp415:
	#DEBUG_VALUE: ihadamard4x4:tmp <- [DW_OP_LLVM_fragment 288 32] $edi
	#DEBUG_VALUE: ihadamard4x4:t2 <- $edi
	.loc	0 208 13 is_stmt 1              # ldecod_src/transform.c:208:13
	leal	(%rdi,%rax), %r9d
.Ltmp416:
	#DEBUG_VALUE: ihadamard4x4:p0 <- $r9d
	.loc	0 213 22                        # ldecod_src/transform.c:213:22
	leal	(%rdx,%r9), %r10d
	.loc	0 213 5 is_stmt 0               # ldecod_src/transform.c:213:5
	movq	(%r13), %rbx
	.loc	0 213 17                        # ldecod_src/transform.c:213:17
	movl	%r10d, 4(%rbx)
	.loc	0 209 13 is_stmt 1              # ldecod_src/transform.c:209:13
	subl	%edi, %eax
.Ltmp417:
	#DEBUG_VALUE: ihadamard4x4:p1 <- $eax
	.loc	0 214 22                        # ldecod_src/transform.c:214:22
	leal	(%rsi,%rax), %edi
.Ltmp418:
	.loc	0 214 5 is_stmt 0               # ldecod_src/transform.c:214:5
	movq	8(%r13), %r10
	.loc	0 214 17                        # ldecod_src/transform.c:214:17
	movl	%edi, 4(%r10)
	.loc	0 215 22 is_stmt 1              # ldecod_src/transform.c:215:22
	subl	%esi, %eax
.Ltmp419:
	.loc	0 215 5 is_stmt 0               # ldecod_src/transform.c:215:5
	movq	16(%r13), %rsi
.Ltmp420:
	.loc	0 215 17                        # ldecod_src/transform.c:215:17
	movl	%eax, 4(%rsi)
.Ltmp421:
	.loc	0 195 20 is_stmt 1              # ldecod_src/transform.c:195:20
	subl	%ebp, %ecx
.Ltmp422:
	#DEBUG_VALUE: ihadamard4x4:tmp <- [DW_OP_LLVM_fragment 64 32] $ecx
	subl	-112(%rsp), %r12d               # 4-byte Folded Reload
.Ltmp423:
	#DEBUG_VALUE: ihadamard4x4:tmp <- [DW_OP_LLVM_fragment 192 32] $r12d
	subl	%r11d, %r8d
.Ltmp424:
	#DEBUG_VALUE: ihadamard4x4:tmp <- [DW_OP_LLVM_fragment 320 32] $r8d
	subl	-104(%rsp), %r14d               # 4-byte Folded Reload
.Ltmp425:
	#DEBUG_VALUE: ihadamard4x4:tmp <- [DW_OP_LLVM_fragment 448 32] $r14d
	.loc	0 216 22                        # ldecod_src/transform.c:216:22
	subl	%edx, %r9d
.Ltmp426:
	.loc	0 216 5 is_stmt 0               # ldecod_src/transform.c:216:5
	movq	24(%r13), %rax
	.loc	0 216 17                        # ldecod_src/transform.c:216:17
	movl	%r9d, 4(%rax)
.Ltmp427:
	#DEBUG_VALUE: ihadamard4x4:i <- 2
	#DEBUG_VALUE: ihadamard4x4:t0 <- $ecx
	#DEBUG_VALUE: ihadamard4x4:t1 <- $r12d
	#DEBUG_VALUE: ihadamard4x4:t2 <- $r8d
	#DEBUG_VALUE: ihadamard4x4:t3 <- $r14d
	.loc	0 208 13 is_stmt 1              # ldecod_src/transform.c:208:13
	leal	(%r8,%rcx), %eax
.Ltmp428:
	#DEBUG_VALUE: ihadamard4x4:p0 <- $eax
	.loc	0 209 13                        # ldecod_src/transform.c:209:13
	subl	%r8d, %ecx
.Ltmp429:
	#DEBUG_VALUE: ihadamard4x4:p1 <- $ecx
	.loc	0 210 13                        # ldecod_src/transform.c:210:13
	movl	%r12d, %edx
.Ltmp430:
	subl	%r14d, %edx
.Ltmp431:
	#DEBUG_VALUE: ihadamard4x4:p2 <- $edx
	.loc	0 211 13                        # ldecod_src/transform.c:211:13
	addl	%r12d, %r14d
.Ltmp432:
	#DEBUG_VALUE: ihadamard4x4:p3 <- $r14d
	.loc	0 213 22                        # ldecod_src/transform.c:213:22
	leal	(%r14,%rax), %esi
	.loc	0 213 5 is_stmt 0               # ldecod_src/transform.c:213:5
	movq	(%r13), %rdi
	.loc	0 213 17                        # ldecod_src/transform.c:213:17
	movl	%esi, 8(%rdi)
	.loc	0 214 22 is_stmt 1              # ldecod_src/transform.c:214:22
	leal	(%rdx,%rcx), %esi
	.loc	0 214 5 is_stmt 0               # ldecod_src/transform.c:214:5
	movq	8(%r13), %rdi
	.loc	0 214 17                        # ldecod_src/transform.c:214:17
	movl	%esi, 8(%rdi)
	.loc	0 215 22 is_stmt 1              # ldecod_src/transform.c:215:22
	subl	%edx, %ecx
.Ltmp433:
	.loc	0 215 5 is_stmt 0               # ldecod_src/transform.c:215:5
	movq	16(%r13), %rdx
.Ltmp434:
	.loc	0 215 17                        # ldecod_src/transform.c:215:17
	movl	%ecx, 8(%rdx)
.Ltmp435:
	.loc	0 196 20 is_stmt 1              # ldecod_src/transform.c:196:20
	subl	-56(%rsp), %r15d                # 4-byte Folded Reload
.Ltmp436:
	#DEBUG_VALUE: ihadamard4x4:tmp <- [DW_OP_LLVM_fragment 96 32] $r15d
	.loc	0 0 20 is_stmt 0                # ldecod_src/transform.c:0:20
	movq	-24(%rsp), %rdx                 # 8-byte Reload
	.loc	0 196 20                        # ldecod_src/transform.c:196:20
	subl	-16(%rsp), %edx                 # 4-byte Folded Reload
.Ltmp437:
	#DEBUG_VALUE: ihadamard4x4:tmp <- [DW_OP_LLVM_fragment 224 32] $edx
	.loc	0 0 20                          # ldecod_src/transform.c:0:20
	movq	-72(%rsp), %rdi                 # 8-byte Reload
	.loc	0 196 20                        # ldecod_src/transform.c:196:20
	subl	-64(%rsp), %edi                 # 4-byte Folded Reload
.Ltmp438:
	#DEBUG_VALUE: ihadamard4x4:tmp <- [DW_OP_LLVM_fragment 352 32] $edi
	.loc	0 0 20                          # ldecod_src/transform.c:0:20
	movq	-40(%rsp), %rsi                 # 8-byte Reload
	.loc	0 196 20                        # ldecod_src/transform.c:196:20
	subl	-32(%rsp), %esi                 # 4-byte Folded Reload
.Ltmp439:
	#DEBUG_VALUE: ihadamard4x4:tmp <- [DW_OP_LLVM_fragment 480 32] $esi
	.loc	0 216 22 is_stmt 1              # ldecod_src/transform.c:216:22
	subl	%r14d, %eax
.Ltmp440:
	.loc	0 216 5 is_stmt 0               # ldecod_src/transform.c:216:5
	movq	24(%r13), %rcx
	.loc	0 216 17                        # ldecod_src/transform.c:216:17
	movl	%eax, 8(%rcx)
.Ltmp441:
	#DEBUG_VALUE: ihadamard4x4:i <- 3
	#DEBUG_VALUE: ihadamard4x4:t0 <- $r15d
	#DEBUG_VALUE: ihadamard4x4:t1 <- $edx
	#DEBUG_VALUE: ihadamard4x4:t2 <- $edi
	#DEBUG_VALUE: ihadamard4x4:t3 <- $esi
	.loc	0 208 13 is_stmt 1              # ldecod_src/transform.c:208:13
	leal	(%rdi,%r15), %eax
.Ltmp442:
	#DEBUG_VALUE: ihadamard4x4:p0 <- $eax
	.loc	0 209 13                        # ldecod_src/transform.c:209:13
	subl	%edi, %r15d
.Ltmp443:
	#DEBUG_VALUE: ihadamard4x4:p1 <- $r15d
	.loc	0 210 13                        # ldecod_src/transform.c:210:13
	movl	%edx, %ecx
	subl	%esi, %ecx
.Ltmp444:
	#DEBUG_VALUE: ihadamard4x4:p2 <- $ecx
	.loc	0 211 13                        # ldecod_src/transform.c:211:13
	addl	%edx, %esi
.Ltmp445:
	#DEBUG_VALUE: ihadamard4x4:p3 <- $esi
	.loc	0 213 22                        # ldecod_src/transform.c:213:22
	leal	(%rsi,%rax), %edx
.Ltmp446:
	.loc	0 0 22 is_stmt 0                # ldecod_src/transform.c:0:22
	movq	%rsi, %rdi
.Ltmp447:
	.loc	0 213 5                         # ldecod_src/transform.c:213:5
	movq	(%r13), %rsi
.Ltmp448:
	#DEBUG_VALUE: ihadamard4x4:p3 <- $edi
	.loc	0 213 17                        # ldecod_src/transform.c:213:17
	movl	%edx, 12(%rsi)
	.loc	0 214 22 is_stmt 1              # ldecod_src/transform.c:214:22
	leal	(%rcx,%r15), %edx
	.loc	0 214 5 is_stmt 0               # ldecod_src/transform.c:214:5
	movq	8(%r13), %rsi
	.loc	0 214 17                        # ldecod_src/transform.c:214:17
	movl	%edx, 12(%rsi)
	.loc	0 215 22 is_stmt 1              # ldecod_src/transform.c:215:22
	subl	%ecx, %r15d
.Ltmp449:
	.loc	0 215 5 is_stmt 0               # ldecod_src/transform.c:215:5
	movq	16(%r13), %rcx
.Ltmp450:
	.loc	0 215 17                        # ldecod_src/transform.c:215:17
	movl	%r15d, 12(%rcx)
	.loc	0 216 22 is_stmt 1              # ldecod_src/transform.c:216:22
	subl	%edi, %eax
.Ltmp451:
	.loc	0 216 5 is_stmt 0               # ldecod_src/transform.c:216:5
	movq	24(%r13), %rcx
	.loc	0 216 17                        # ldecod_src/transform.c:216:17
	movl	%eax, 12(%rcx)
.Ltmp452:
	#DEBUG_VALUE: ihadamard4x4:i <- 4
	.loc	0 218 1 epilogue_begin is_stmt 1 # ldecod_src/transform.c:218:1
	popq	%rbx
	.cfi_def_cfa_offset 48
	popq	%r12
.Ltmp453:
	.cfi_def_cfa_offset 40
	popq	%r13
.Ltmp454:
	#DEBUG_VALUE: ihadamard4x4:block <- [DW_OP_LLVM_entry_value 1] $rsi
	.cfi_def_cfa_offset 32
	popq	%r14
	.cfi_def_cfa_offset 24
	popq	%r15
	.cfi_def_cfa_offset 16
	popq	%rbp
	.cfi_def_cfa_offset 8
	retq
.Ltmp455:
.Lfunc_end3:
	.size	ihadamard4x4, .Lfunc_end3-ihadamard4x4
	.cfi_endproc
                                        # -- End function
	.globl	hadamard4x2                     # -- Begin function hadamard4x2
	.p2align	4, 0x90
	.type	hadamard4x2,@function
hadamard4x2:                            # @hadamard4x2
.Lfunc_begin4:
	.loc	0 221 0                         # ldecod_src/transform.c:221:0
	.cfi_startproc
# %bb.0:                                # %entry
	#DEBUG_VALUE: hadamard4x2:block <- $rdi
	#DEBUG_VALUE: hadamard4x2:tblock <- $rsi
	pushq	%r15
	.cfi_def_cfa_offset 16
	pushq	%r14
	.cfi_def_cfa_offset 24
	pushq	%r12
	.cfi_def_cfa_offset 32
	pushq	%rbx
	.cfi_def_cfa_offset 40
	.cfi_offset %rbx, -40
	.cfi_offset %r12, -32
	.cfi_offset %r14, -24
	.cfi_offset %r15, -16
	.loc	0 229 15 prologue_end           # ldecod_src/transform.c:229:15
	movq	(%rdi), %r10
	.loc	0 229 29 is_stmt 0              # ldecod_src/transform.c:229:29
	movq	8(%rdi), %r11
	.loc	0 229 15                        # ldecod_src/transform.c:229:15
	movl	(%r10), %eax
	.loc	0 230 15 is_stmt 1              # ldecod_src/transform.c:230:15
	movl	4(%r10), %ecx
	.loc	0 229 29                        # ldecod_src/transform.c:229:29
	movl	(%r11), %ebx
	.loc	0 230 29                        # ldecod_src/transform.c:230:29
	movl	4(%r11), %r14d
	.loc	0 229 27                        # ldecod_src/transform.c:229:27
	leal	(%rbx,%rax), %r8d
.Ltmp456:
	#DEBUG_VALUE: hadamard4x2:tmp <- [DW_OP_LLVM_fragment 0 32] $r8d
	.loc	0 230 27                        # ldecod_src/transform.c:230:27
	leal	(%r14,%rcx), %r9d
.Ltmp457:
	#DEBUG_VALUE: hadamard4x2:tmp <- [DW_OP_LLVM_fragment 32 32] $r9d
	.loc	0 231 15                        # ldecod_src/transform.c:231:15
	movl	8(%r10), %edx
	.loc	0 231 29 is_stmt 0              # ldecod_src/transform.c:231:29
	movl	8(%r11), %r15d
	.loc	0 231 27                        # ldecod_src/transform.c:231:27
	leal	(%r15,%rdx), %r12d
.Ltmp458:
	#DEBUG_VALUE: hadamard4x2:tmp <- [DW_OP_LLVM_fragment 64 32] $r12d
	.loc	0 232 15 is_stmt 1              # ldecod_src/transform.c:232:15
	movl	12(%r10), %edi
.Ltmp459:
	#DEBUG_VALUE: hadamard4x2:block <- [DW_OP_LLVM_entry_value 1] $rdi
	.loc	0 232 29 is_stmt 0              # ldecod_src/transform.c:232:29
	movl	12(%r11), %r10d
	.loc	0 232 27                        # ldecod_src/transform.c:232:27
	leal	(%r10,%rdi), %r11d
.Ltmp460:
	#DEBUG_VALUE: hadamard4x2:tmp <- [DW_OP_LLVM_fragment 96 32] $r11d
	.loc	0 234 27 is_stmt 1              # ldecod_src/transform.c:234:27
	subl	%ebx, %eax
.Ltmp461:
	#DEBUG_VALUE: hadamard4x2:tmp <- [DW_OP_LLVM_fragment 128 32] $eax
	.loc	0 235 27                        # ldecod_src/transform.c:235:27
	subl	%r14d, %ecx
.Ltmp462:
	#DEBUG_VALUE: hadamard4x2:tmp <- [DW_OP_LLVM_fragment 160 32] $ecx
	.loc	0 236 27                        # ldecod_src/transform.c:236:27
	subl	%r15d, %edx
.Ltmp463:
	#DEBUG_VALUE: hadamard4x2:tmp <- [DW_OP_LLVM_fragment 192 32] $edx
	.loc	0 237 27                        # ldecod_src/transform.c:237:27
	subl	%r10d, %edi
.Ltmp464:
	#DEBUG_VALUE: hadamard4x2:tmp <- [DW_OP_LLVM_fragment 224 32] $edi
	#DEBUG_VALUE: hadamard4x2:i <- 0
	#DEBUG_VALUE: hadamard4x2:p0 <- $r8d
	#DEBUG_VALUE: hadamard4x2:p1 <- $r9d
	#DEBUG_VALUE: hadamard4x2:p2 <- $r12d
	#DEBUG_VALUE: hadamard4x2:p3 <- $r11d
	.loc	0 248 13                        # ldecod_src/transform.c:248:13
	leal	(%r11,%r8), %r10d
.Ltmp465:
	#DEBUG_VALUE: hadamard4x2:t0 <- $r10d
	.loc	0 249 13                        # ldecod_src/transform.c:249:13
	leal	(%r12,%r9), %ebx
.Ltmp466:
	#DEBUG_VALUE: hadamard4x2:t1 <- $ebx
	.loc	0 250 13                        # ldecod_src/transform.c:250:13
	subl	%r12d, %r9d
.Ltmp467:
	#DEBUG_VALUE: hadamard4x2:t2 <- $r9d
	.loc	0 251 13                        # ldecod_src/transform.c:251:13
	subl	%r11d, %r8d
.Ltmp468:
	#DEBUG_VALUE: hadamard4x2:t3 <- $r8d
	.loc	0 253 24                        # ldecod_src/transform.c:253:24
	leal	(%r10,%rbx), %r11d
.Ltmp469:
	.loc	0 253 5 is_stmt 0               # ldecod_src/transform.c:253:5
	movq	(%rsi), %r14
	.loc	0 253 18                        # ldecod_src/transform.c:253:18
	movl	%r11d, (%r14)
	.loc	0 254 24 is_stmt 1              # ldecod_src/transform.c:254:24
	leal	(%r8,%r9), %r11d
	.loc	0 254 5 is_stmt 0               # ldecod_src/transform.c:254:5
	movq	(%rsi), %r14
	.loc	0 254 18                        # ldecod_src/transform.c:254:18
	movl	%r11d, 4(%r14)
	.loc	0 255 24 is_stmt 1              # ldecod_src/transform.c:255:24
	subl	%ebx, %r10d
.Ltmp470:
	.loc	0 255 5 is_stmt 0               # ldecod_src/transform.c:255:5
	movq	(%rsi), %r11
	.loc	0 255 18                        # ldecod_src/transform.c:255:18
	movl	%r10d, 8(%r11)
	.loc	0 256 24 is_stmt 1              # ldecod_src/transform.c:256:24
	subl	%r9d, %r8d
.Ltmp471:
	.loc	0 256 5 is_stmt 0               # ldecod_src/transform.c:256:5
	movq	(%rsi), %r9
.Ltmp472:
	.loc	0 256 18                        # ldecod_src/transform.c:256:18
	movl	%r8d, 12(%r9)
.Ltmp473:
	#DEBUG_VALUE: hadamard4x2:i <- 1
	#DEBUG_VALUE: hadamard4x2:p0 <- $eax
	#DEBUG_VALUE: hadamard4x2:p1 <- $ecx
	#DEBUG_VALUE: hadamard4x2:p2 <- $edx
	#DEBUG_VALUE: hadamard4x2:p3 <- $edi
	.loc	0 248 13 is_stmt 1              # ldecod_src/transform.c:248:13
	leal	(%rdi,%rax), %r8d
.Ltmp474:
	#DEBUG_VALUE: hadamard4x2:t0 <- $r8d
	.loc	0 249 13                        # ldecod_src/transform.c:249:13
	leal	(%rdx,%rcx), %r9d
.Ltmp475:
	#DEBUG_VALUE: hadamard4x2:t1 <- $r9d
	.loc	0 250 13                        # ldecod_src/transform.c:250:13
	subl	%edx, %ecx
.Ltmp476:
	#DEBUG_VALUE: hadamard4x2:t2 <- $ecx
	.loc	0 251 13                        # ldecod_src/transform.c:251:13
	subl	%edi, %eax
.Ltmp477:
	#DEBUG_VALUE: hadamard4x2:t3 <- $eax
	.loc	0 253 24                        # ldecod_src/transform.c:253:24
	leal	(%r8,%r9), %edx
.Ltmp478:
	.loc	0 253 5 is_stmt 0               # ldecod_src/transform.c:253:5
	movq	8(%rsi), %rdi
.Ltmp479:
	.loc	0 253 18                        # ldecod_src/transform.c:253:18
	movl	%edx, (%rdi)
	.loc	0 254 24 is_stmt 1              # ldecod_src/transform.c:254:24
	leal	(%rax,%rcx), %edx
	.loc	0 254 5 is_stmt 0               # ldecod_src/transform.c:254:5
	movq	8(%rsi), %rdi
	.loc	0 254 18                        # ldecod_src/transform.c:254:18
	movl	%edx, 4(%rdi)
	.loc	0 255 24 is_stmt 1              # ldecod_src/transform.c:255:24
	subl	%r9d, %r8d
.Ltmp480:
	.loc	0 255 5 is_stmt 0               # ldecod_src/transform.c:255:5
	movq	8(%rsi), %rdx
	.loc	0 255 18                        # ldecod_src/transform.c:255:18
	movl	%r8d, 8(%rdx)
	.loc	0 256 24 is_stmt 1              # ldecod_src/transform.c:256:24
	subl	%ecx, %eax
.Ltmp481:
	.loc	0 256 5 is_stmt 0               # ldecod_src/transform.c:256:5
	movq	8(%rsi), %rcx
.Ltmp482:
	.loc	0 256 18                        # ldecod_src/transform.c:256:18
	movl	%eax, 12(%rcx)
.Ltmp483:
	#DEBUG_VALUE: hadamard4x2:i <- 2
	.loc	0 258 1 epilogue_begin is_stmt 1 # ldecod_src/transform.c:258:1
	popq	%rbx
	.cfi_def_cfa_offset 32
	popq	%r12
.Ltmp484:
	.cfi_def_cfa_offset 24
	popq	%r14
	.cfi_def_cfa_offset 16
	popq	%r15
	.cfi_def_cfa_offset 8
	retq
.Ltmp485:
.Lfunc_end4:
	.size	hadamard4x2, .Lfunc_end4-hadamard4x2
	.cfi_endproc
                                        # -- End function
	.globl	ihadamard4x2                    # -- Begin function ihadamard4x2
	.p2align	4, 0x90
	.type	ihadamard4x2,@function
ihadamard4x2:                           # @ihadamard4x2
.Lfunc_begin5:
	.loc	0 261 0                         # ldecod_src/transform.c:261:0
	.cfi_startproc
# %bb.0:                                # %entry
	#DEBUG_VALUE: ihadamard4x2:tblock <- $rdi
	#DEBUG_VALUE: ihadamard4x2:block <- $rsi
	pushq	%r15
	.cfi_def_cfa_offset 16
	pushq	%r14
	.cfi_def_cfa_offset 24
	pushq	%r12
	.cfi_def_cfa_offset 32
	pushq	%rbx
	.cfi_def_cfa_offset 40
	.cfi_offset %rbx, -40
	.cfi_offset %r12, -32
	.cfi_offset %r14, -24
	.cfi_offset %r15, -16
	.loc	0 269 15 prologue_end           # ldecod_src/transform.c:269:15
	movq	(%rdi), %rcx
	.loc	0 269 30 is_stmt 0              # ldecod_src/transform.c:269:30
	movq	8(%rdi), %r9
	.loc	0 269 15                        # ldecod_src/transform.c:269:15
	movl	(%rcx), %eax
	.loc	0 270 15 is_stmt 1              # ldecod_src/transform.c:270:15
	movl	4(%rcx), %edx
	.loc	0 269 30                        # ldecod_src/transform.c:269:30
	movl	(%r9), %r10d
	.loc	0 270 30                        # ldecod_src/transform.c:270:30
	movl	4(%r9), %r11d
	.loc	0 269 28                        # ldecod_src/transform.c:269:28
	leal	(%r10,%rax), %r8d
.Ltmp486:
	#DEBUG_VALUE: ihadamard4x2:tmp <- [DW_OP_LLVM_fragment 0 32] $r8d
	.loc	0 270 28                        # ldecod_src/transform.c:270:28
	leal	(%r11,%rdx), %ebx
.Ltmp487:
	#DEBUG_VALUE: ihadamard4x2:tmp <- [DW_OP_LLVM_fragment 32 32] $ebx
	.loc	0 271 15                        # ldecod_src/transform.c:271:15
	movl	8(%rcx), %edi
.Ltmp488:
	#DEBUG_VALUE: ihadamard4x2:tblock <- [DW_OP_LLVM_entry_value 1] $rdi
	.loc	0 271 30 is_stmt 0              # ldecod_src/transform.c:271:30
	movl	8(%r9), %r14d
	.loc	0 271 28                        # ldecod_src/transform.c:271:28
	leal	(%r14,%rdi), %r15d
.Ltmp489:
	#DEBUG_VALUE: ihadamard4x2:tmp <- [DW_OP_LLVM_fragment 64 32] $r15d
	.loc	0 272 15 is_stmt 1              # ldecod_src/transform.c:272:15
	movl	12(%rcx), %ecx
	.loc	0 272 30 is_stmt 0              # ldecod_src/transform.c:272:30
	movl	12(%r9), %r12d
	.loc	0 272 28                        # ldecod_src/transform.c:272:28
	leal	(%r12,%rcx), %r9d
.Ltmp490:
	#DEBUG_VALUE: ihadamard4x2:tmp <- [DW_OP_LLVM_fragment 96 32] $r9d
	.loc	0 274 28 is_stmt 1              # ldecod_src/transform.c:274:28
	subl	%r10d, %eax
.Ltmp491:
	#DEBUG_VALUE: ihadamard4x2:tmp <- [DW_OP_LLVM_fragment 128 32] $eax
	.loc	0 275 28                        # ldecod_src/transform.c:275:28
	subl	%r11d, %edx
.Ltmp492:
	#DEBUG_VALUE: ihadamard4x2:tmp <- [DW_OP_LLVM_fragment 160 32] $edx
	.loc	0 276 28                        # ldecod_src/transform.c:276:28
	subl	%r14d, %edi
.Ltmp493:
	#DEBUG_VALUE: ihadamard4x2:tmp <- [DW_OP_LLVM_fragment 192 32] $edi
	.loc	0 277 28                        # ldecod_src/transform.c:277:28
	subl	%r12d, %ecx
.Ltmp494:
	#DEBUG_VALUE: ihadamard4x2:tmp <- [DW_OP_LLVM_fragment 224 32] $ecx
	#DEBUG_VALUE: ihadamard4x2:i <- 0
	#DEBUG_VALUE: ihadamard4x2:i <- 0
	#DEBUG_VALUE: ihadamard4x2:p0 <- $r8d
	#DEBUG_VALUE: ihadamard4x2:p1 <- $ebx
	#DEBUG_VALUE: ihadamard4x2:p2 <- $r15d
	#DEBUG_VALUE: ihadamard4x2:p3 <- $r9d
	.loc	0 288 13                        # ldecod_src/transform.c:288:13
	leal	(%r15,%r8), %r10d
.Ltmp495:
	#DEBUG_VALUE: ihadamard4x2:t0 <- $r10d
	.loc	0 289 13                        # ldecod_src/transform.c:289:13
	subl	%r15d, %r8d
.Ltmp496:
	#DEBUG_VALUE: ihadamard4x2:t1 <- $r8d
	.loc	0 290 13                        # ldecod_src/transform.c:290:13
	movl	%ebx, %r11d
	subl	%r9d, %r11d
.Ltmp497:
	#DEBUG_VALUE: ihadamard4x2:t2 <- $r11d
	.loc	0 291 13                        # ldecod_src/transform.c:291:13
	addl	%ebx, %r9d
.Ltmp498:
	#DEBUG_VALUE: ihadamard4x2:t3 <- $r9d
	.loc	0 294 22                        # ldecod_src/transform.c:294:22
	leal	(%r9,%r10), %ebx
.Ltmp499:
	.loc	0 294 5 is_stmt 0               # ldecod_src/transform.c:294:5
	movq	(%rsi), %r14
	.loc	0 294 17                        # ldecod_src/transform.c:294:17
	movl	%ebx, (%r14)
	.loc	0 295 22 is_stmt 1              # ldecod_src/transform.c:295:22
	leal	(%r11,%r8), %ebx
	.loc	0 295 5 is_stmt 0               # ldecod_src/transform.c:295:5
	movq	8(%rsi), %r14
	.loc	0 295 17                        # ldecod_src/transform.c:295:17
	movl	%ebx, (%r14)
	.loc	0 296 22 is_stmt 1              # ldecod_src/transform.c:296:22
	subl	%r11d, %r8d
.Ltmp500:
	.loc	0 296 5 is_stmt 0               # ldecod_src/transform.c:296:5
	movq	16(%rsi), %r11
.Ltmp501:
	.loc	0 296 17                        # ldecod_src/transform.c:296:17
	movl	%r8d, (%r11)
	.loc	0 297 22 is_stmt 1              # ldecod_src/transform.c:297:22
	subl	%r9d, %r10d
.Ltmp502:
	.loc	0 297 5 is_stmt 0               # ldecod_src/transform.c:297:5
	movq	24(%rsi), %r8
	.loc	0 297 17                        # ldecod_src/transform.c:297:17
	movl	%r10d, (%r8)
.Ltmp503:
	#DEBUG_VALUE: ihadamard4x2:i <- 1
	#DEBUG_VALUE: ihadamard4x2:p0 <- $eax
	#DEBUG_VALUE: ihadamard4x2:p1 <- $edx
	#DEBUG_VALUE: ihadamard4x2:p2 <- $edi
	#DEBUG_VALUE: ihadamard4x2:p3 <- $ecx
	.loc	0 288 13 is_stmt 1              # ldecod_src/transform.c:288:13
	leal	(%rdi,%rax), %r8d
.Ltmp504:
	#DEBUG_VALUE: ihadamard4x2:t0 <- $r8d
	.loc	0 289 13                        # ldecod_src/transform.c:289:13
	subl	%edi, %eax
.Ltmp505:
	#DEBUG_VALUE: ihadamard4x2:t1 <- $eax
	.loc	0 290 13                        # ldecod_src/transform.c:290:13
	movl	%edx, %edi
.Ltmp506:
	subl	%ecx, %edi
.Ltmp507:
	#DEBUG_VALUE: ihadamard4x2:t2 <- $edi
	.loc	0 291 13                        # ldecod_src/transform.c:291:13
	addl	%edx, %ecx
.Ltmp508:
	#DEBUG_VALUE: ihadamard4x2:t3 <- $ecx
	.loc	0 294 22                        # ldecod_src/transform.c:294:22
	leal	(%rcx,%r8), %edx
.Ltmp509:
	.loc	0 294 5 is_stmt 0               # ldecod_src/transform.c:294:5
	movq	(%rsi), %r9
	.loc	0 294 17                        # ldecod_src/transform.c:294:17
	movl	%edx, 4(%r9)
	.loc	0 295 22 is_stmt 1              # ldecod_src/transform.c:295:22
	leal	(%rdi,%rax), %edx
	.loc	0 295 5 is_stmt 0               # ldecod_src/transform.c:295:5
	movq	8(%rsi), %r9
	.loc	0 295 17                        # ldecod_src/transform.c:295:17
	movl	%edx, 4(%r9)
	.loc	0 296 22 is_stmt 1              # ldecod_src/transform.c:296:22
	subl	%edi, %eax
.Ltmp510:
	.loc	0 296 5 is_stmt 0               # ldecod_src/transform.c:296:5
	movq	16(%rsi), %rdx
	.loc	0 296 17                        # ldecod_src/transform.c:296:17
	movl	%eax, 4(%rdx)
	.loc	0 297 22 is_stmt 1              # ldecod_src/transform.c:297:22
	subl	%ecx, %r8d
.Ltmp511:
	.loc	0 297 5 is_stmt 0               # ldecod_src/transform.c:297:5
	movq	24(%rsi), %rax
	.loc	0 297 17                        # ldecod_src/transform.c:297:17
	movl	%r8d, 4(%rax)
.Ltmp512:
	#DEBUG_VALUE: ihadamard4x2:i <- 2
	.loc	0 299 1 epilogue_begin is_stmt 1 # ldecod_src/transform.c:299:1
	popq	%rbx
	.cfi_def_cfa_offset 32
	popq	%r12
	.cfi_def_cfa_offset 24
	popq	%r14
	.cfi_def_cfa_offset 16
	popq	%r15
.Ltmp513:
	.cfi_def_cfa_offset 8
	retq
.Ltmp514:
.Lfunc_end5:
	.size	ihadamard4x2, .Lfunc_end5-ihadamard4x2
	.cfi_endproc
                                        # -- End function
	.globl	hadamard2x2                     # -- Begin function hadamard2x2
	.p2align	4, 0x90
	.type	hadamard2x2,@function
hadamard2x2:                            # @hadamard2x2
.Lfunc_begin6:
	.cfi_startproc
# %bb.0:                                # %entry
	#DEBUG_VALUE: hadamard2x2:block <- $rdi
	#DEBUG_VALUE: hadamard2x2:tblock <- $rsi
	.loc	0 306 8 prologue_end            # ldecod_src/transform.c:306:8
	movq	(%rdi), %rax
	.loc	0 308 8                         # ldecod_src/transform.c:308:8
	movq	32(%rdi), %rcx
	.loc	0 306 8                         # ldecod_src/transform.c:306:8
	movl	(%rax), %edx
	.loc	0 306 22 is_stmt 0              # ldecod_src/transform.c:306:22
	movl	16(%rax), %eax
	.loc	0 306 20                        # ldecod_src/transform.c:306:20
	leal	(%rax,%rdx), %edi
.Ltmp515:
	#DEBUG_VALUE: hadamard2x2:block <- [DW_OP_LLVM_entry_value 1] $rdi
	#DEBUG_VALUE: hadamard2x2:p0 <- $edi
	.loc	0 307 20 is_stmt 1              # ldecod_src/transform.c:307:20
	subl	%eax, %edx
.Ltmp516:
	#DEBUG_VALUE: hadamard2x2:p1 <- $edx
	.loc	0 308 8                         # ldecod_src/transform.c:308:8
	movl	(%rcx), %eax
	.loc	0 308 22 is_stmt 0              # ldecod_src/transform.c:308:22
	movl	16(%rcx), %ecx
	.loc	0 308 20                        # ldecod_src/transform.c:308:20
	leal	(%rcx,%rax), %r8d
.Ltmp517:
	#DEBUG_VALUE: hadamard2x2:p2 <- $r8d
	.loc	0 309 20 is_stmt 1              # ldecod_src/transform.c:309:20
	subl	%ecx, %eax
.Ltmp518:
	#DEBUG_VALUE: hadamard2x2:p3 <- $eax
	.loc	0 311 19                        # ldecod_src/transform.c:311:19
	leal	(%r8,%rdi), %ecx
	.loc	0 311 13 is_stmt 0              # ldecod_src/transform.c:311:13
	movl	%ecx, (%rsi)
	.loc	0 312 19 is_stmt 1              # ldecod_src/transform.c:312:19
	leal	(%rax,%rdx), %ecx
	.loc	0 312 13 is_stmt 0              # ldecod_src/transform.c:312:13
	movl	%ecx, 4(%rsi)
	.loc	0 313 19 is_stmt 1              # ldecod_src/transform.c:313:19
	subl	%r8d, %edi
.Ltmp519:
	.loc	0 313 13 is_stmt 0              # ldecod_src/transform.c:313:13
	movl	%edi, 8(%rsi)
	.loc	0 314 19 is_stmt 1              # ldecod_src/transform.c:314:19
	subl	%eax, %edx
.Ltmp520:
	.loc	0 314 13 is_stmt 0              # ldecod_src/transform.c:314:13
	movl	%edx, 12(%rsi)
	.loc	0 315 1 is_stmt 1               # ldecod_src/transform.c:315:1
	retq
.Ltmp521:
.Lfunc_end6:
	.size	hadamard2x2, .Lfunc_end6-hadamard2x2
	.cfi_endproc
                                        # -- End function
	.globl	ihadamard2x2                    # -- Begin function ihadamard2x2
	.p2align	4, 0x90
	.type	ihadamard2x2,@function
ihadamard2x2:                           # @ihadamard2x2
.Lfunc_begin7:
	.cfi_startproc
# %bb.0:                                # %entry
	#DEBUG_VALUE: ihadamard2x2:tblock <- $rdi
	#DEBUG_VALUE: ihadamard2x2:block <- $rsi
	.loc	0 321 8 prologue_end            # ldecod_src/transform.c:321:8
	movdqu	(%rdi), %xmm0
	.loc	0 323 18                        # ldecod_src/transform.c:323:18
	pshufd	$177, %xmm0, %xmm1              # xmm1 = xmm0[1,0,3,2]
	movdqa	%xmm0, %xmm2
	paddd	%xmm1, %xmm2
	psubd	%xmm1, %xmm0
	pshufd	$226, %xmm0, %xmm0              # xmm0 = xmm0[2,0,2,3]
	pshufd	$231, %xmm2, %xmm1              # xmm1 = xmm2[3,1,2,3]
	punpckldq	%xmm0, %xmm1            # xmm1 = xmm1[0],xmm0[0],xmm1[1],xmm0[1]
	.loc	0 326 18                        # ldecod_src/transform.c:326:18
	pshufd	$78, %xmm1, %xmm0               # xmm0 = xmm1[2,3,0,1]
	movdqa	%xmm1, %xmm2
	paddd	%xmm0, %xmm2
	psubd	%xmm0, %xmm1
	movsd	%xmm2, %xmm1                    # xmm1 = xmm2[0],xmm1[1]
	.loc	0 326 12 is_stmt 0              # ldecod_src/transform.c:326:12
	movupd	%xmm1, (%rsi)
	.loc	0 330 1 is_stmt 1               # ldecod_src/transform.c:330:1
	retq
.Ltmp522:
.Lfunc_end7:
	.size	ihadamard2x2, .Lfunc_end7-ihadamard2x2
	.cfi_endproc
                                        # -- End function
	.globl	forward8x8                      # -- Begin function forward8x8
	.p2align	4, 0x90
	.type	forward8x8,@function
forward8x8:                             # @forward8x8
.Lfunc_begin8:
	.loc	0 354 0                         # ldecod_src/transform.c:354:0
	.cfi_startproc
# %bb.0:                                # %entry
	#DEBUG_VALUE: forward8x8:block <- $rdi
	#DEBUG_VALUE: forward8x8:tblock <- $rsi
	#DEBUG_VALUE: forward8x8:pos_y <- $edx
	#DEBUG_VALUE: forward8x8:pos_x <- $ecx
	pushq	%rbp
	.cfi_def_cfa_offset 16
	pushq	%r15
	.cfi_def_cfa_offset 24
	pushq	%r14
	.cfi_def_cfa_offset 32
	pushq	%r13
	.cfi_def_cfa_offset 40
	pushq	%r12
	.cfi_def_cfa_offset 48
	pushq	%rbx
	.cfi_def_cfa_offset 56
	subq	$536, %rsp                      # imm = 0x218
	.cfi_def_cfa_offset 592
	.cfi_offset %rbx, -56
	.cfi_offset %r12, -48
	.cfi_offset %r13, -40
	.cfi_offset %r14, -32
	.cfi_offset %r15, -24
	.cfi_offset %rbp, -16
	movq	%rsi, 264(%rsp)                 # 8-byte Spill
.Ltmp523:
	#DEBUG_VALUE: forward8x8:tblock <- [DW_OP_plus_uconst 264] [$rsp+0]
	#DEBUG_VALUE: forward8x8:pTmp <- [DW_OP_plus_uconst 272, DW_OP_stack_value] $rsp
	#DEBUG_VALUE: forward8x8:i <- $edx
	.loc	0 363 3 prologue_end            # ldecod_src/transform.c:363:3
	movslq	%edx, %rdx
.Ltmp524:
	#DEBUG_VALUE: forward8x8:pos_y <- [DW_OP_LLVM_entry_value 1] $edx
	.loc	0 0 3 is_stmt 0                 # ldecod_src/transform.c:0:3
	leal	7(%rdx), %eax
	cltq
	.loc	0 363 3                         # ldecod_src/transform.c:363:3
	cmpq	%rax, %rdx
	movq	%rax, %rsi
	cmovgq	%rdx, %rsi
	movslq	%ecx, %rbx
	subq	%rdx, %rsi
	incq	%rsi
	cmpq	$3, %rsi
	movq	%rdx, 168(%rsp)                 # 8-byte Spill
	movq	%rdi, 48(%rsp)                  # 8-byte Spill
.Ltmp525:
	#DEBUG_VALUE: forward8x8:block <- [DW_OP_plus_uconst 48] [$rsp+0]
	.loc	0 0 3                           # ldecod_src/transform.c:0:3
	movq	%rax, 184(%rsp)                 # 8-byte Spill
	movq	%rbx, -16(%rsp)                 # 8-byte Spill
	.loc	0 363 3                         # ldecod_src/transform.c:363:3
	ja	.LBB8_4
.Ltmp526:
# %bb.1:
	#DEBUG_VALUE: forward8x8:block <- [DW_OP_plus_uconst 48] [$rsp+0]
	#DEBUG_VALUE: forward8x8:tblock <- [DW_OP_plus_uconst 264] [$rsp+0]
	#DEBUG_VALUE: forward8x8:pos_y <- [DW_OP_LLVM_entry_value 1] $edx
	#DEBUG_VALUE: forward8x8:pos_x <- $ecx
	#DEBUG_VALUE: forward8x8:pTmp <- [DW_OP_plus_uconst 272, DW_OP_stack_value] $rsp
	.loc	0 0 3                           # ldecod_src/transform.c:0:3
	movq	%rbx, %rsi
	leaq	272(%rsp), %rcx
.Ltmp527:
	#DEBUG_VALUE: forward8x8:pos_x <- [DW_OP_LLVM_entry_value 1] $ecx
	jmp	.LBB8_2
.Ltmp528:
.LBB8_4:                                # %vector.ph
	#DEBUG_VALUE: forward8x8:block <- [DW_OP_plus_uconst 48] [$rsp+0]
	#DEBUG_VALUE: forward8x8:tblock <- [DW_OP_plus_uconst 264] [$rsp+0]
	#DEBUG_VALUE: forward8x8:pos_y <- [DW_OP_LLVM_entry_value 1] $edx
	#DEBUG_VALUE: forward8x8:pos_x <- $ecx
	#DEBUG_VALUE: forward8x8:pTmp <- [DW_OP_plus_uconst 272, DW_OP_stack_value] $rsp
	movq	%rsi, 152(%rsp)                 # 8-byte Spill
	.loc	0 363 3                         # ldecod_src/transform.c:363:3
	andq	$-4, %rsi
	leaq	(%rsi,%rdx), %rax
	movq	%rax, -24(%rsp)                 # 8-byte Spill
	movq	%rsi, 40(%rsp)                  # 8-byte Spill
	movq	%rsi, %rax
	shlq	$5, %rax
	addq	%rsp, %rax
	addq	$272, %rax                      # imm = 0x110
	movq	%rax, 160(%rsp)                 # 8-byte Spill
	leaq	396(%rsp), %r9
	leaq	(%rdi,%rdx,8), %rax
	addq	$24, %rax
	movq	%rax, 176(%rsp)                 # 8-byte Spill
	xorl	%eax, %eax
.Ltmp529:
	.p2align	4, 0x90
.LBB8_5:                                # %vector.body
                                        # =>This Inner Loop Header: Depth=1
	#DEBUG_VALUE: forward8x8:block <- [DW_OP_plus_uconst 48] [$rsp+0]
	#DEBUG_VALUE: forward8x8:tblock <- [DW_OP_plus_uconst 264] [$rsp+0]
	#DEBUG_VALUE: forward8x8:pos_y <- [DW_OP_LLVM_entry_value 1] $edx
	#DEBUG_VALUE: forward8x8:pos_x <- [DW_OP_LLVM_entry_value 1] $ecx
	#DEBUG_VALUE: forward8x8:pTmp <- [DW_OP_plus_uconst 272, DW_OP_stack_value] $rsp
	.loc	0 0 3                           # ldecod_src/transform.c:0:3
	movq	%rax, 32(%rsp)                  # 8-byte Spill
	movq	176(%rsp), %rdi                 # 8-byte Reload
.Ltmp530:
	.loc	0 365 15 is_stmt 1              # ldecod_src/transform.c:365:15
	movq	-24(%rdi,%rax,8), %rdx
	movq	-16(%rdi,%rax,8), %r12
	.loc	0 366 10                        # ldecod_src/transform.c:366:10
	movl	(%rdx,%rbx,4), %r8d
	movq	%r8, -72(%rsp)                  # 8-byte Spill
	movl	(%r12,%rbx,4), %eax
	movq	%rax, -64(%rsp)                 # 8-byte Spill
	.loc	0 369 10                        # ldecod_src/transform.c:369:10
	movl	12(%rdx,%rbx,4), %esi
	movq	%rsi, -48(%rsp)                 # 8-byte Spill
	movl	12(%r12,%rbx,4), %r10d
	movq	%r10, -80(%rsp)                 # 8-byte Spill
	.loc	0 370 10                        # ldecod_src/transform.c:370:10
	movl	16(%rdx,%rbx,4), %r14d
	movq	%r14, -40(%rsp)                 # 8-byte Spill
	movl	16(%r12,%rbx,4), %r11d
	movq	%r11, -56(%rsp)                 # 8-byte Spill
	.loc	0 373 10                        # ldecod_src/transform.c:373:10
	movl	28(%rdx,%rbx,4), %ecx
	movq	%rcx, -96(%rsp)                 # 8-byte Spill
	movl	28(%r12,%rbx,4), %r15d
	movq	%r15, -32(%rsp)                 # 8-byte Spill
	.loc	0 375 13                        # ldecod_src/transform.c:375:13
	addl	%r8d, %ecx
	leal	(%r15,%rax), %r8d
	.loc	0 378 13                        # ldecod_src/transform.c:378:13
	leal	(%r14,%rsi), %eax
	leal	(%r11,%r10), %esi
	.loc	0 380 13                        # ldecod_src/transform.c:380:13
	leal	(%rcx,%rax), %r10d
	movq	%r10, 256(%rsp)                 # 8-byte Spill
	.loc	0 382 13                        # ldecod_src/transform.c:382:13
	subl	%eax, %ecx
	movq	%rcx, 128(%rsp)                 # 8-byte Spill
	.loc	0 380 13                        # ldecod_src/transform.c:380:13
	leal	(%r8,%rsi), %eax
	movq	%rax, 248(%rsp)                 # 8-byte Spill
	.loc	0 382 13                        # ldecod_src/transform.c:382:13
	subl	%esi, %r8d
	movq	%r8, 72(%rsp)                   # 8-byte Spill
	movq	32(%rsp), %rax                  # 8-byte Reload
	.loc	0 365 15                        # ldecod_src/transform.c:365:15
	movq	-8(%rdi,%rax,8), %r14
	.loc	0 366 10                        # ldecod_src/transform.c:366:10
	movl	(%r14,%rbx,4), %ecx
	movq	%rcx, -128(%rsp)                # 8-byte Spill
	.loc	0 369 10                        # ldecod_src/transform.c:369:10
	movl	12(%r14,%rbx,4), %eax
	movq	%rax, 16(%rsp)                  # 8-byte Spill
	.loc	0 370 10                        # ldecod_src/transform.c:370:10
	movl	16(%r14,%rbx,4), %esi
	movq	%rsi, -112(%rsp)                # 8-byte Spill
	.loc	0 373 10                        # ldecod_src/transform.c:373:10
	movl	28(%r14,%rbx,4), %r8d
	movq	%r8, 224(%rsp)                  # 8-byte Spill
	.loc	0 375 13                        # ldecod_src/transform.c:375:13
	addl	%r8d, %ecx
	.loc	0 378 13                        # ldecod_src/transform.c:378:13
	addl	%esi, %eax
	.loc	0 380 13                        # ldecod_src/transform.c:380:13
	leal	(%rcx,%rax), %esi
	movq	%rsi, 240(%rsp)                 # 8-byte Spill
	.loc	0 382 13                        # ldecod_src/transform.c:382:13
	subl	%eax, %ecx
	movq	%rcx, 96(%rsp)                  # 8-byte Spill
	movq	32(%rsp), %rax                  # 8-byte Reload
	.loc	0 365 15                        # ldecod_src/transform.c:365:15
	movq	(%rdi,%rax,8), %rax
	.loc	0 366 10                        # ldecod_src/transform.c:366:10
	movl	(%rax,%rbx,4), %esi
	movq	%rsi, -120(%rsp)                # 8-byte Spill
	.loc	0 369 10                        # ldecod_src/transform.c:369:10
	movl	12(%rax,%rbx,4), %ecx
	movq	%rcx, 24(%rsp)                  # 8-byte Spill
	.loc	0 370 10                        # ldecod_src/transform.c:370:10
	movl	16(%rax,%rbx,4), %r8d
	movq	%r8, -8(%rsp)                   # 8-byte Spill
	.loc	0 373 10                        # ldecod_src/transform.c:373:10
	movl	28(%rax,%rbx,4), %ebp
	.loc	0 375 13                        # ldecod_src/transform.c:375:13
	leal	(%rbp,%rsi), %edi
	.loc	0 378 13                        # ldecod_src/transform.c:378:13
	leal	(%r8,%rcx), %esi
	.loc	0 380 13                        # ldecod_src/transform.c:380:13
	leal	(%rdi,%rsi), %ecx
	movq	%rcx, 232(%rsp)                 # 8-byte Spill
	.loc	0 382 13                        # ldecod_src/transform.c:382:13
	subl	%esi, %edi
	movq	%rdi, 144(%rsp)                 # 8-byte Spill
	.loc	0 367 10                        # ldecod_src/transform.c:367:10
	movl	4(%rdx,%rbx,4), %ecx
	.loc	0 368 10                        # ldecod_src/transform.c:368:10
	movl	8(%rdx,%rbx,4), %edi
	movq	%rdi, -104(%rsp)                # 8-byte Spill
	.loc	0 371 10                        # ldecod_src/transform.c:371:10
	movl	20(%rdx,%rbx,4), %r10d
	movq	%r10, 216(%rsp)                 # 8-byte Spill
	.loc	0 372 10                        # ldecod_src/transform.c:372:10
	movl	24(%rdx,%rbx,4), %r11d
	.loc	0 376 13                        # ldecod_src/transform.c:376:13
	leal	(%r11,%rcx), %esi
	movq	%rcx, %r8
	.loc	0 377 13                        # ldecod_src/transform.c:377:13
	leal	(%r10,%rdi), %edx
	.loc	0 381 13                        # ldecod_src/transform.c:381:13
	leal	(%rsi,%rdx), %ecx
	movq	%rcx, 88(%rsp)                  # 8-byte Spill
	.loc	0 383 13                        # ldecod_src/transform.c:383:13
	subl	%edx, %esi
	movq	%rsi, 136(%rsp)                 # 8-byte Spill
	.loc	0 367 10                        # ldecod_src/transform.c:367:10
	movl	4(%r12,%rbx,4), %ecx
	movq	%rcx, 8(%rsp)                   # 8-byte Spill
	.loc	0 368 10                        # ldecod_src/transform.c:368:10
	movl	8(%r12,%rbx,4), %edx
	movq	%rdx, 200(%rsp)                 # 8-byte Spill
	.loc	0 371 10                        # ldecod_src/transform.c:371:10
	movl	20(%r12,%rbx,4), %edi
	movq	%rdi, 208(%rsp)                 # 8-byte Spill
	.loc	0 372 10                        # ldecod_src/transform.c:372:10
	movl	24(%r12,%rbx,4), %r10d
	.loc	0 376 13                        # ldecod_src/transform.c:376:13
	addl	%r10d, %ecx
	.loc	0 377 13                        # ldecod_src/transform.c:377:13
	leal	(%rdi,%rdx), %esi
	.loc	0 381 13                        # ldecod_src/transform.c:381:13
	leal	(%rcx,%rsi), %edx
	movq	%rdx, 80(%rsp)                  # 8-byte Spill
	.loc	0 383 13                        # ldecod_src/transform.c:383:13
	subl	%esi, %ecx
	movq	%rcx, 120(%rsp)                 # 8-byte Spill
	.loc	0 367 10                        # ldecod_src/transform.c:367:10
	movl	4(%r14,%rbx,4), %ecx
	movq	%rcx, (%rsp)                    # 8-byte Spill
	.loc	0 368 10                        # ldecod_src/transform.c:368:10
	movl	8(%r14,%rbx,4), %esi
	movq	%rsi, -88(%rsp)                 # 8-byte Spill
	.loc	0 371 10                        # ldecod_src/transform.c:371:10
	movl	20(%r14,%rbx,4), %edx
	movq	%rdx, 192(%rsp)                 # 8-byte Spill
	.loc	0 372 10                        # ldecod_src/transform.c:372:10
	movl	24(%r14,%rbx,4), %edi
	.loc	0 376 13                        # ldecod_src/transform.c:376:13
	addl	%edi, %ecx
	.loc	0 377 13                        # ldecod_src/transform.c:377:13
	leal	(%rdx,%rsi), %r14d
	.loc	0 381 13                        # ldecod_src/transform.c:381:13
	leal	(%rcx,%r14), %esi
	movq	%rsi, 64(%rsp)                  # 8-byte Spill
	.loc	0 383 13                        # ldecod_src/transform.c:383:13
	subl	%r14d, %ecx
	movq	%rcx, 112(%rsp)                 # 8-byte Spill
	.loc	0 367 10                        # ldecod_src/transform.c:367:10
	movl	4(%rax,%rbx,4), %ecx
	.loc	0 368 10                        # ldecod_src/transform.c:368:10
	movl	8(%rax,%rbx,4), %r14d
	.loc	0 371 10                        # ldecod_src/transform.c:371:10
	movl	20(%rax,%rbx,4), %r15d
	.loc	0 372 10                        # ldecod_src/transform.c:372:10
	movl	24(%rax,%rbx,4), %esi
	.loc	0 376 13                        # ldecod_src/transform.c:376:13
	leal	(%rsi,%rcx), %r13d
	movq	%rcx, %rax
	.loc	0 377 13                        # ldecod_src/transform.c:377:13
	leal	(%r15,%r14), %ebx
	.loc	0 381 13                        # ldecod_src/transform.c:381:13
	leal	(%rbx,%r13), %ecx
	movq	%rcx, 56(%rsp)                  # 8-byte Spill
	.loc	0 383 13                        # ldecod_src/transform.c:383:13
	subl	%ebx, %r13d
	movq	%r13, 104(%rsp)                 # 8-byte Spill
	movq	-72(%rsp), %rbx                 # 8-byte Reload
	.loc	0 385 13                        # ldecod_src/transform.c:385:13
	subl	-96(%rsp), %ebx                 # 4-byte Folded Reload
	movq	-64(%rsp), %r12                 # 8-byte Reload
	subl	-32(%rsp), %r12d                # 4-byte Folded Reload
	movq	-128(%rsp), %rcx                # 8-byte Reload
	subl	224(%rsp), %ecx                 # 4-byte Folded Reload
	movq	%rcx, -128(%rsp)                # 8-byte Spill
	movq	-120(%rsp), %rcx                # 8-byte Reload
	subl	%ebp, %ecx
	movq	%rcx, -120(%rsp)                # 8-byte Spill
	.loc	0 386 13                        # ldecod_src/transform.c:386:13
	subl	%r11d, %r8d
	movq	%r8, %rcx
	movq	8(%rsp), %rdx                   # 8-byte Reload
	subl	%r10d, %edx
	movq	(%rsp), %r8                     # 8-byte Reload
	subl	%edi, %r8d
	subl	%esi, %eax
	movq	%rax, %r13
	movq	%rax, -96(%rsp)                 # 8-byte Spill
	movq	-104(%rsp), %rsi                # 8-byte Reload
	.loc	0 387 13                        # ldecod_src/transform.c:387:13
	subl	216(%rsp), %esi                 # 4-byte Folded Reload
	movq	%rsi, -104(%rsp)                # 8-byte Spill
	movq	200(%rsp), %rbp                 # 8-byte Reload
	subl	208(%rsp), %ebp                 # 4-byte Folded Reload
	movq	-88(%rsp), %r11                 # 8-byte Reload
	subl	192(%rsp), %r11d                # 4-byte Folded Reload
	movq	%r11, -88(%rsp)                 # 8-byte Spill
	subl	%r15d, %r14d
	movq	-48(%rsp), %r15                 # 8-byte Reload
	.loc	0 388 13                        # ldecod_src/transform.c:388:13
	subl	-40(%rsp), %r15d                # 4-byte Folded Reload
	movq	-80(%rsp), %rax                 # 8-byte Reload
	subl	-56(%rsp), %eax                 # 4-byte Folded Reload
	movq	%rax, -80(%rsp)                 # 8-byte Spill
	movq	16(%rsp), %rax                  # 8-byte Reload
	subl	-112(%rsp), %eax                # 4-byte Folded Reload
	movq	%rax, 16(%rsp)                  # 8-byte Spill
	movq	24(%rsp), %rax                  # 8-byte Reload
	subl	-8(%rsp), %eax                  # 4-byte Folded Reload
	movq	%rax, 24(%rsp)                  # 8-byte Spill
	.loc	0 390 25                        # ldecod_src/transform.c:390:25
	movl	%ebx, %eax
	movq	%rbx, -72(%rsp)                 # 8-byte Spill
	sarl	%eax
	movq	%rcx, %rdi
	.loc	0 390 31 is_stmt 0              # ldecod_src/transform.c:390:31
	addl	%esi, %ecx
	.loc	0 390 13                        # ldecod_src/transform.c:390:13
	addl	%ebx, %ecx
	.loc	0 390 18                        # ldecod_src/transform.c:390:18
	addl	%eax, %ecx
	movl	%ecx, -40(%rsp)                 # 4-byte Spill
	movq	%r12, %rsi
	movq	%r12, -64(%rsp)                 # 8-byte Spill
	.loc	0 390 25                        # ldecod_src/transform.c:390:25
	movl	%esi, %eax
	sarl	%eax
	.loc	0 390 31                        # ldecod_src/transform.c:390:31
	leal	(%rdx,%rbp), %ecx
	movq	%rdx, %r10
	.loc	0 390 13                        # ldecod_src/transform.c:390:13
	addl	%esi, %ecx
	.loc	0 390 18                        # ldecod_src/transform.c:390:18
	addl	%eax, %ecx
	movl	%ecx, -32(%rsp)                 # 4-byte Spill
	movq	-128(%rsp), %rdx                # 8-byte Reload
	.loc	0 390 25                        # ldecod_src/transform.c:390:25
	movl	%edx, %eax
	sarl	%eax
	.loc	0 390 31                        # ldecod_src/transform.c:390:31
	leal	(%r8,%r11), %ecx
	.loc	0 390 13                        # ldecod_src/transform.c:390:13
	addl	%edx, %ecx
	.loc	0 390 18                        # ldecod_src/transform.c:390:18
	addl	%eax, %ecx
	movl	%ecx, -48(%rsp)                 # 4-byte Spill
	movq	-120(%rsp), %rdx                # 8-byte Reload
	.loc	0 390 25                        # ldecod_src/transform.c:390:25
	movl	%edx, %eax
	sarl	%eax
	.loc	0 390 31                        # ldecod_src/transform.c:390:31
	leal	(%r14,%r13), %ecx
	.loc	0 390 13                        # ldecod_src/transform.c:390:13
	addl	%edx, %ecx
	.loc	0 390 18                        # ldecod_src/transform.c:390:18
	addl	%eax, %ecx
	movl	%ecx, -56(%rsp)                 # 4-byte Spill
	.loc	0 392 25 is_stmt 1              # ldecod_src/transform.c:392:25
	movl	%edi, %eax
	sarl	%eax
	.loc	0 392 18 is_stmt 0              # ldecod_src/transform.c:392:18
	addl	%edi, %eax
	movl	%eax, -112(%rsp)                # 4-byte Spill
	movq	-104(%rsp), %rcx                # 8-byte Reload
	.loc	0 393 13 is_stmt 1              # ldecod_src/transform.c:393:13
	subl	%ecx, %edi
	movq	%rdi, -8(%rsp)                  # 8-byte Spill
	movq	%r15, %r12
	.loc	0 391 25                        # ldecod_src/transform.c:391:25
	movl	%ecx, %edx
	sarl	%edx
	.loc	0 391 18 is_stmt 0              # ldecod_src/transform.c:391:18
	addl	%ecx, %edx
	addl	%r15d, %edx
	movq	%r10, %rax
	.loc	0 392 25 is_stmt 1              # ldecod_src/transform.c:392:25
	sarl	%r10d
	.loc	0 392 18 is_stmt 0              # ldecod_src/transform.c:392:18
	addl	%eax, %r10d
	.loc	0 393 13 is_stmt 1              # ldecod_src/transform.c:393:13
	subl	%ebp, %eax
	movq	%rax, 8(%rsp)                   # 8-byte Spill
	movq	-80(%rsp), %r13                 # 8-byte Reload
	.loc	0 391 25                        # ldecod_src/transform.c:391:25
	movl	%ebp, %r11d
	sarl	%r11d
	.loc	0 391 18 is_stmt 0              # ldecod_src/transform.c:391:18
	addl	%ebp, %r11d
	addl	%r13d, %r11d
	movq	%r8, %rax
	.loc	0 392 25 is_stmt 1              # ldecod_src/transform.c:392:25
	movl	%eax, %ebx
	sarl	%ebx
	.loc	0 392 18 is_stmt 0              # ldecod_src/transform.c:392:18
	addl	%eax, %ebx
	movq	-88(%rsp), %rdi                 # 8-byte Reload
	.loc	0 393 13 is_stmt 1              # ldecod_src/transform.c:393:13
	subl	%edi, %eax
	movq	%rax, (%rsp)                    # 8-byte Spill
	movq	16(%rsp), %rcx                  # 8-byte Reload
	.loc	0 391 25                        # ldecod_src/transform.c:391:25
	movl	%edi, %ebp
	sarl	%ebp
	.loc	0 391 18 is_stmt 0              # ldecod_src/transform.c:391:18
	addl	%edi, %ebp
	addl	%ecx, %ebp
	movq	-96(%rsp), %rax                 # 8-byte Reload
	.loc	0 392 25 is_stmt 1              # ldecod_src/transform.c:392:25
	movl	%eax, %r15d
	sarl	%r15d
	.loc	0 392 18 is_stmt 0              # ldecod_src/transform.c:392:18
	addl	%eax, %r15d
	.loc	0 393 13 is_stmt 1              # ldecod_src/transform.c:393:13
	subl	%r14d, %eax
	movq	%rax, -96(%rsp)                 # 8-byte Spill
	movq	%r9, %r8
	movq	24(%rsp), %r9                   # 8-byte Reload
	.loc	0 391 31                        # ldecod_src/transform.c:391:31
	leal	(%r14,%r9), %esi
                                        # kill: def $r14d killed $r14d killed $r14
	.loc	0 391 25 is_stmt 0              # ldecod_src/transform.c:391:25
	sarl	%r14d
	.loc	0 391 18                        # ldecod_src/transform.c:391:18
	addl	%esi, %r14d
	movq	-72(%rsp), %rsi                 # 8-byte Reload
	.loc	0 392 18 is_stmt 1              # ldecod_src/transform.c:392:18
	leal	(%r12,%rsi), %eax
	movq	%r12, %rdi
	.loc	0 391 18                        # ldecod_src/transform.c:391:18
	subl	%edx, %esi
	movq	%rsi, -72(%rsp)                 # 8-byte Spill
	movq	-64(%rsp), %rdx                 # 8-byte Reload
	.loc	0 392 18                        # ldecod_src/transform.c:392:18
	leal	(%rdx,%r13), %r12d
	movq	%r13, %rsi
	.loc	0 391 18                        # ldecod_src/transform.c:391:18
	subl	%r11d, %edx
	movq	%rdx, -64(%rsp)                 # 8-byte Spill
	movq	-128(%rsp), %rdx                # 8-byte Reload
	movq	%rcx, %r13
	.loc	0 392 18                        # ldecod_src/transform.c:392:18
	addl	%edx, %ecx
	.loc	0 391 18                        # ldecod_src/transform.c:391:18
	subl	%ebp, %edx
	movq	%rdx, -128(%rsp)                # 8-byte Spill
	movq	-120(%rsp), %r11                # 8-byte Reload
	.loc	0 392 18                        # ldecod_src/transform.c:392:18
	leal	(%r9,%r11), %ebp
	movq	%r9, %rdx
	movq	%r8, %r9
	.loc	0 391 18                        # ldecod_src/transform.c:391:18
	subl	%r14d, %r11d
	movq	%r11, -120(%rsp)                # 8-byte Spill
	.loc	0 392 18                        # ldecod_src/transform.c:392:18
	subl	-112(%rsp), %eax                # 4-byte Folded Reload
	movl	%eax, %r11d
	movl	%eax, -112(%rsp)                # 4-byte Spill
	subl	%r10d, %r12d
	movl	%r12d, %r8d
	subl	%ebx, %ecx
	movl	%ecx, %r10d
	subl	%r15d, %ebp
	movl	%ebp, -104(%rsp)                # 4-byte Spill
	.loc	0 393 25                        # ldecod_src/transform.c:393:25
	movl	%edi, %ecx
	sarl	%ecx
	.loc	0 393 31 is_stmt 0              # ldecod_src/transform.c:393:31
	addl	%edi, %ecx
	.loc	0 393 18                        # ldecod_src/transform.c:393:18
	addl	-8(%rsp), %ecx                  # 4-byte Folded Reload
	movl	%ecx, %edi
	movl	%ecx, -88(%rsp)                 # 4-byte Spill
	.loc	0 393 25                        # ldecod_src/transform.c:393:25
	movl	%esi, %ecx
	sarl	%ecx
	.loc	0 393 31                        # ldecod_src/transform.c:393:31
	addl	%esi, %ecx
	.loc	0 393 18                        # ldecod_src/transform.c:393:18
	addl	8(%rsp), %ecx                   # 4-byte Folded Reload
	movl	%ecx, %esi
	movl	%ecx, -80(%rsp)                 # 4-byte Spill
	movq	%r13, %rax
	.loc	0 393 25                        # ldecod_src/transform.c:393:25
	movl	%eax, %r14d
	sarl	%r14d
	.loc	0 393 31                        # ldecod_src/transform.c:393:31
	addl	%eax, %r14d
	.loc	0 393 18                        # ldecod_src/transform.c:393:18
	addl	(%rsp), %r14d                   # 4-byte Folded Reload
	.loc	0 393 25                        # ldecod_src/transform.c:393:25
	movl	%edx, %ebp
	sarl	%ebp
	.loc	0 393 31                        # ldecod_src/transform.c:393:31
	addl	%edx, %ebp
	.loc	0 393 18                        # ldecod_src/transform.c:393:18
	addl	-96(%rsp), %ebp                 # 4-byte Folded Reload
	movq	256(%rsp), %r15                 # 8-byte Reload
	movq	88(%rsp), %rax                  # 8-byte Reload
	.loc	0 395 21 is_stmt 1              # ldecod_src/transform.c:395:21
	addl	%r15d, %eax
	.loc	0 395 15 is_stmt 0              # ldecod_src/transform.c:395:15
	movl	%eax, -124(%r9)
	movq	248(%rsp), %rcx                 # 8-byte Reload
	movq	80(%rsp), %rax                  # 8-byte Reload
	.loc	0 395 21                        # ldecod_src/transform.c:395:21
	leal	(%rcx,%rax), %eax
	.loc	0 395 15                        # ldecod_src/transform.c:395:15
	movl	%eax, -92(%r9)
	movq	240(%rsp), %r13                 # 8-byte Reload
	movq	64(%rsp), %rax                  # 8-byte Reload
	.loc	0 395 21                        # ldecod_src/transform.c:395:21
	addl	%r13d, %eax
	.loc	0 395 15                        # ldecod_src/transform.c:395:15
	movl	%eax, -60(%r9)
	movq	232(%rsp), %r12                 # 8-byte Reload
	movq	56(%rsp), %rax                  # 8-byte Reload
	.loc	0 395 21                        # ldecod_src/transform.c:395:21
	addl	%r12d, %eax
	.loc	0 395 15                        # ldecod_src/transform.c:395:15
	movl	%eax, -28(%r9)
	.loc	0 396 27 is_stmt 1              # ldecod_src/transform.c:396:27
	movl	%edi, %eax
	sarl	$2, %eax
	.loc	0 396 21 is_stmt 0              # ldecod_src/transform.c:396:21
	addl	-40(%rsp), %eax                 # 4-byte Folded Reload
	.loc	0 396 15                        # ldecod_src/transform.c:396:15
	movl	%eax, -120(%r9)
	.loc	0 396 27                        # ldecod_src/transform.c:396:27
	movl	%esi, %eax
	sarl	$2, %eax
	.loc	0 396 21                        # ldecod_src/transform.c:396:21
	addl	-32(%rsp), %eax                 # 4-byte Folded Reload
	.loc	0 396 15                        # ldecod_src/transform.c:396:15
	movl	%eax, -88(%r9)
	.loc	0 396 27                        # ldecod_src/transform.c:396:27
	movl	%r14d, %eax
	sarl	$2, %eax
	.loc	0 396 21                        # ldecod_src/transform.c:396:21
	addl	-48(%rsp), %eax                 # 4-byte Folded Reload
	.loc	0 396 15                        # ldecod_src/transform.c:396:15
	movl	%eax, -56(%r9)
	.loc	0 396 27                        # ldecod_src/transform.c:396:27
	movl	%ebp, %eax
	sarl	$2, %eax
	.loc	0 396 21                        # ldecod_src/transform.c:396:21
	addl	-56(%rsp), %eax                 # 4-byte Folded Reload
	.loc	0 396 15                        # ldecod_src/transform.c:396:15
	movl	%eax, -24(%r9)
	movq	136(%rsp), %rax                 # 8-byte Reload
                                        # kill: def $eax killed $eax killed $rax
	.loc	0 397 27 is_stmt 1              # ldecod_src/transform.c:397:27
	sarl	%eax
	.loc	0 397 21 is_stmt 0              # ldecod_src/transform.c:397:21
	addl	128(%rsp), %eax                 # 4-byte Folded Reload
	.loc	0 397 15                        # ldecod_src/transform.c:397:15
	movl	%eax, -116(%r9)
	movq	120(%rsp), %rax                 # 8-byte Reload
                                        # kill: def $eax killed $eax killed $rax
	.loc	0 397 27                        # ldecod_src/transform.c:397:27
	sarl	%eax
	.loc	0 397 21                        # ldecod_src/transform.c:397:21
	addl	72(%rsp), %eax                  # 4-byte Folded Reload
	.loc	0 397 15                        # ldecod_src/transform.c:397:15
	movl	%eax, -84(%r9)
	movq	112(%rsp), %rax                 # 8-byte Reload
                                        # kill: def $eax killed $eax killed $rax
	.loc	0 397 27                        # ldecod_src/transform.c:397:27
	sarl	%eax
	.loc	0 397 21                        # ldecod_src/transform.c:397:21
	addl	96(%rsp), %eax                  # 4-byte Folded Reload
	.loc	0 397 15                        # ldecod_src/transform.c:397:15
	movl	%eax, -52(%r9)
	movq	104(%rsp), %rax                 # 8-byte Reload
                                        # kill: def $eax killed $eax killed $rax
	.loc	0 397 27                        # ldecod_src/transform.c:397:27
	sarl	%eax
	.loc	0 397 21                        # ldecod_src/transform.c:397:21
	addl	144(%rsp), %eax                 # 4-byte Folded Reload
	.loc	0 397 15                        # ldecod_src/transform.c:397:15
	movl	%eax, -20(%r9)
	.loc	0 398 27 is_stmt 1              # ldecod_src/transform.c:398:27
	movl	%r11d, %eax
	sarl	$2, %eax
	movq	-72(%rsp), %rsi                 # 8-byte Reload
	.loc	0 398 21 is_stmt 0              # ldecod_src/transform.c:398:21
	addl	%esi, %eax
	.loc	0 398 15                        # ldecod_src/transform.c:398:15
	movl	%eax, -112(%r9)
	movl	%r8d, %ebx
	.loc	0 398 27                        # ldecod_src/transform.c:398:27
	movl	%r8d, %eax
	sarl	$2, %eax
	movq	-64(%rsp), %rdx                 # 8-byte Reload
	.loc	0 398 21                        # ldecod_src/transform.c:398:21
	addl	%edx, %eax
	.loc	0 398 15                        # ldecod_src/transform.c:398:15
	movl	%eax, -80(%r9)
	movl	%r10d, %r11d
	.loc	0 398 27                        # ldecod_src/transform.c:398:27
	movl	%r10d, %eax
	sarl	$2, %eax
	movq	-128(%rsp), %rdi                # 8-byte Reload
	.loc	0 398 21                        # ldecod_src/transform.c:398:21
	addl	%edi, %eax
	.loc	0 398 15                        # ldecod_src/transform.c:398:15
	movl	%eax, -48(%r9)
	movl	-104(%rsp), %r10d               # 4-byte Reload
	.loc	0 398 27                        # ldecod_src/transform.c:398:27
	movl	%r10d, %eax
	sarl	$2, %eax
	movq	-120(%rsp), %r8                 # 8-byte Reload
	.loc	0 398 21                        # ldecod_src/transform.c:398:21
	addl	%r8d, %eax
	.loc	0 398 15                        # ldecod_src/transform.c:398:15
	movl	%eax, -16(%r9)
	movq	32(%rsp), %rax                  # 8-byte Reload
	.loc	0 399 21 is_stmt 1              # ldecod_src/transform.c:399:21
	subl	88(%rsp), %r15d                 # 4-byte Folded Reload
	subl	80(%rsp), %ecx                  # 4-byte Folded Reload
	subl	64(%rsp), %r13d                 # 4-byte Folded Reload
	subl	56(%rsp), %r12d                 # 4-byte Folded Reload
	.loc	0 399 15 is_stmt 0              # ldecod_src/transform.c:399:15
	movl	%r15d, -108(%r9)
	movl	%ecx, -76(%r9)
	movl	%r13d, -44(%r9)
	movl	%r12d, -12(%r9)
	.loc	0 400 27 is_stmt 1              # ldecod_src/transform.c:400:27
	sarl	$2, %esi
	movl	-112(%rsp), %ecx                # 4-byte Reload
	.loc	0 400 21 is_stmt 0              # ldecod_src/transform.c:400:21
	subl	%esi, %ecx
	movq	%rdx, %rsi
	.loc	0 400 27                        # ldecod_src/transform.c:400:27
	sarl	$2, %esi
	.loc	0 400 21                        # ldecod_src/transform.c:400:21
	subl	%esi, %ebx
	movq	%rdi, %rsi
	.loc	0 400 27                        # ldecod_src/transform.c:400:27
	sarl	$2, %esi
	.loc	0 400 21                        # ldecod_src/transform.c:400:21
	subl	%esi, %r11d
	.loc	0 400 27                        # ldecod_src/transform.c:400:27
	sarl	$2, %r8d
	.loc	0 400 21                        # ldecod_src/transform.c:400:21
	subl	%r8d, %r10d
	.loc	0 400 15                        # ldecod_src/transform.c:400:15
	movl	%ecx, -104(%r9)
	movl	%ebx, -72(%r9)
	movl	%r11d, -40(%r9)
	movl	%r10d, -8(%r9)
	movq	128(%rsp), %rdx                 # 8-byte Reload
	.loc	0 401 21 is_stmt 1              # ldecod_src/transform.c:401:21
	sarl	%edx
	.loc	0 401 27 is_stmt 0              # ldecod_src/transform.c:401:27
	subl	136(%rsp), %edx                 # 4-byte Folded Reload
	movq	72(%rsp), %rsi                  # 8-byte Reload
	movq	-16(%rsp), %rbx                 # 8-byte Reload
	.loc	0 401 21                        # ldecod_src/transform.c:401:21
	sarl	%esi
	.loc	0 401 27                        # ldecod_src/transform.c:401:27
	subl	120(%rsp), %esi                 # 4-byte Folded Reload
	movq	96(%rsp), %rdi                  # 8-byte Reload
	.loc	0 401 21                        # ldecod_src/transform.c:401:21
	sarl	%edi
	.loc	0 401 27                        # ldecod_src/transform.c:401:27
	subl	112(%rsp), %edi                 # 4-byte Folded Reload
	movq	144(%rsp), %r8                  # 8-byte Reload
	.loc	0 401 21                        # ldecod_src/transform.c:401:21
	sarl	%r8d
	.loc	0 401 27                        # ldecod_src/transform.c:401:27
	subl	104(%rsp), %r8d                 # 4-byte Folded Reload
	.loc	0 401 15                        # ldecod_src/transform.c:401:15
	movl	%edx, -100(%r9)
	movl	%esi, -68(%r9)
	movl	%edi, -36(%r9)
	movl	%r8d, -4(%r9)
	movl	-40(%rsp), %ecx                 # 4-byte Reload
	.loc	0 402 21 is_stmt 1              # ldecod_src/transform.c:402:21
	sarl	$2, %ecx
	.loc	0 402 27 is_stmt 0              # ldecod_src/transform.c:402:27
	subl	-88(%rsp), %ecx                 # 4-byte Folded Reload
	movl	-32(%rsp), %edx                 # 4-byte Reload
	.loc	0 402 21                        # ldecod_src/transform.c:402:21
	sarl	$2, %edx
	.loc	0 402 27                        # ldecod_src/transform.c:402:27
	subl	-80(%rsp), %edx                 # 4-byte Folded Reload
	movl	-48(%rsp), %esi                 # 4-byte Reload
	.loc	0 402 21                        # ldecod_src/transform.c:402:21
	sarl	$2, %esi
	.loc	0 402 27                        # ldecod_src/transform.c:402:27
	subl	%r14d, %esi
	movl	-56(%rsp), %edi                 # 4-byte Reload
	.loc	0 402 21                        # ldecod_src/transform.c:402:21
	sarl	$2, %edi
	.loc	0 402 27                        # ldecod_src/transform.c:402:27
	subl	%ebp, %edi
	.loc	0 402 15                        # ldecod_src/transform.c:402:15
	movl	%ecx, -96(%r9)
	movl	%edx, -64(%r9)
	movl	%esi, -32(%r9)
	movl	%edi, (%r9)
	addq	$4, %rax
	subq	$-128, %r9
	cmpq	%rax, 40(%rsp)                  # 8-byte Folded Reload
	jne	.LBB8_5
.Ltmp531:
# %bb.6:                                # %middle.block
	#DEBUG_VALUE: forward8x8:block <- [DW_OP_plus_uconst 48] [$rsp+0]
	#DEBUG_VALUE: forward8x8:tblock <- [DW_OP_plus_uconst 264] [$rsp+0]
	#DEBUG_VALUE: forward8x8:pos_y <- [DW_OP_LLVM_entry_value 1] $edx
	#DEBUG_VALUE: forward8x8:pos_x <- [DW_OP_LLVM_entry_value 1] $ecx
	#DEBUG_VALUE: forward8x8:pTmp <- [DW_OP_plus_uconst 272, DW_OP_stack_value] $rsp
	.loc	0 0 15                          # ldecod_src/transform.c:0:15
	movq	40(%rsp), %rax                  # 8-byte Reload
	.loc	0 363 3 is_stmt 1               # ldecod_src/transform.c:363:3
	cmpq	%rax, 152(%rsp)                 # 8-byte Folded Reload
	movq	48(%rsp), %rdi                  # 8-byte Reload
	movq	-24(%rsp), %rdx                 # 8-byte Reload
	movq	%rbx, %rsi
	movq	160(%rsp), %rcx                 # 8-byte Reload
	je	.LBB8_7
.Ltmp532:
.LBB8_2:                                # %for.body.preheader
	#DEBUG_VALUE: forward8x8:block <- [DW_OP_plus_uconst 48] [$rsp+0]
	#DEBUG_VALUE: forward8x8:tblock <- [DW_OP_plus_uconst 264] [$rsp+0]
	#DEBUG_VALUE: forward8x8:pos_y <- [DW_OP_LLVM_entry_value 1] $edx
	#DEBUG_VALUE: forward8x8:pos_x <- [DW_OP_LLVM_entry_value 1] $ecx
	#DEBUG_VALUE: forward8x8:pTmp <- [DW_OP_plus_uconst 272, DW_OP_stack_value] $rsp
	decq	%rdx
.Ltmp533:
	.p2align	4, 0x90
.LBB8_3:                                # %for.body
                                        # =>This Inner Loop Header: Depth=1
	#DEBUG_VALUE: forward8x8:block <- [DW_OP_plus_uconst 48] [$rsp+0]
	#DEBUG_VALUE: forward8x8:tblock <- [DW_OP_plus_uconst 264] [$rsp+0]
	#DEBUG_VALUE: forward8x8:pos_y <- [DW_OP_LLVM_entry_value 1] $edx
	#DEBUG_VALUE: forward8x8:pos_x <- [DW_OP_LLVM_entry_value 1] $ecx
	#DEBUG_VALUE: forward8x8:i <- [DW_OP_plus_uconst 1, DW_OP_stack_value] $rdx
	#DEBUG_VALUE: forward8x8:pTmp <- $rcx
	.loc	0 0 3 is_stmt 0                 # ldecod_src/transform.c:0:3
	movq	%rdx, -24(%rsp)                 # 8-byte Spill
.Ltmp534:
	#DEBUG_VALUE: forward8x8:i <- [DW_OP_constu 24, DW_OP_minus, DW_OP_deref_size 8, DW_OP_plus_uconst 1, DW_OP_stack_value] $rsp
	movq	-24(%rsp), %rax                 # 8-byte Reload
.Ltmp535:
	.loc	0 365 15 is_stmt 1              # ldecod_src/transform.c:365:15
	movq	8(%rdi,%rax,8), %rdx
.Ltmp536:
	#DEBUG_VALUE: forward8x8:pblock <- undef
	.loc	0 366 10                        # ldecod_src/transform.c:366:10
	movl	(%rdx,%rsi,4), %eax
.Ltmp537:
	#DEBUG_VALUE: forward8x8:p0 <- $eax
	.loc	0 367 10                        # ldecod_src/transform.c:367:10
	movl	4(%rdx,%rsi,4), %r8d
.Ltmp538:
	#DEBUG_VALUE: forward8x8:p1 <- $r8d
	.loc	0 368 10                        # ldecod_src/transform.c:368:10
	movl	8(%rdx,%rsi,4), %ebx
.Ltmp539:
	#DEBUG_VALUE: forward8x8:p2 <- $ebx
	.loc	0 369 10                        # ldecod_src/transform.c:369:10
	movl	12(%rdx,%rsi,4), %r9d
.Ltmp540:
	#DEBUG_VALUE: forward8x8:p3 <- $r9d
	.loc	0 370 10                        # ldecod_src/transform.c:370:10
	movl	16(%rdx,%rsi,4), %r10d
.Ltmp541:
	#DEBUG_VALUE: forward8x8:p4 <- $r10d
	.loc	0 371 10                        # ldecod_src/transform.c:371:10
	movl	20(%rdx,%rsi,4), %r14d
.Ltmp542:
	#DEBUG_VALUE: forward8x8:p5 <- $r14d
	.loc	0 372 10                        # ldecod_src/transform.c:372:10
	movl	24(%rdx,%rsi,4), %r15d
.Ltmp543:
	#DEBUG_VALUE: forward8x8:p6 <- $r15d
	.loc	0 373 10                        # ldecod_src/transform.c:373:10
	movl	28(%rdx,%rsi,4), %r12d
.Ltmp544:
	#DEBUG_VALUE: forward8x8:p7 <- $r12d
	.loc	0 375 13                        # ldecod_src/transform.c:375:13
	leal	(%r12,%rax), %edx
.Ltmp545:
	#DEBUG_VALUE: forward8x8:a0 <- $edx
	.loc	0 376 13                        # ldecod_src/transform.c:376:13
	leal	(%r15,%r8), %esi
.Ltmp546:
	#DEBUG_VALUE: forward8x8:a1 <- $esi
	.loc	0 377 13                        # ldecod_src/transform.c:377:13
	leal	(%r14,%rbx), %r13d
.Ltmp547:
	#DEBUG_VALUE: forward8x8:a2 <- $r13d
	.loc	0 378 13                        # ldecod_src/transform.c:378:13
	leal	(%r10,%r9), %r11d
.Ltmp548:
	#DEBUG_VALUE: forward8x8:a3 <- $r11d
	.loc	0 380 13                        # ldecod_src/transform.c:380:13
	leal	(%rdx,%r11), %edi
.Ltmp549:
	#DEBUG_VALUE: forward8x8:b0 <- $edi
	#DEBUG_VALUE: forward8x8:b1 <- undef
	.loc	0 382 13                        # ldecod_src/transform.c:382:13
	subl	%r11d, %edx
.Ltmp550:
	#DEBUG_VALUE: forward8x8:b2 <- $edx
	.loc	0 381 13                        # ldecod_src/transform.c:381:13
	leal	(%rsi,%r13), %r11d
.Ltmp551:
	#DEBUG_VALUE: forward8x8:b1 <- $r11d
	.loc	0 383 13                        # ldecod_src/transform.c:383:13
	subl	%r13d, %esi
.Ltmp552:
	#DEBUG_VALUE: forward8x8:b3 <- $esi
	.loc	0 385 13                        # ldecod_src/transform.c:385:13
	subl	%r12d, %eax
.Ltmp553:
	#DEBUG_VALUE: forward8x8:a0 <- $eax
	.loc	0 386 13                        # ldecod_src/transform.c:386:13
	subl	%r15d, %r8d
.Ltmp554:
	#DEBUG_VALUE: forward8x8:a1 <- $r8d
	.loc	0 387 13                        # ldecod_src/transform.c:387:13
	subl	%r14d, %ebx
.Ltmp555:
	#DEBUG_VALUE: forward8x8:a2 <- $ebx
	.loc	0 388 13                        # ldecod_src/transform.c:388:13
	subl	%r10d, %r9d
.Ltmp556:
	#DEBUG_VALUE: forward8x8:a3 <- $r9d
	.loc	0 390 25                        # ldecod_src/transform.c:390:25
	movl	%eax, %ebp
	sarl	%ebp
	.loc	0 390 31 is_stmt 0              # ldecod_src/transform.c:390:31
	leal	(%r8,%rbx), %r10d
.Ltmp557:
	.loc	0 390 13                        # ldecod_src/transform.c:390:13
	addl	%eax, %r10d
	.loc	0 390 18                        # ldecod_src/transform.c:390:18
	addl	%ebp, %r10d
.Ltmp558:
	#DEBUG_VALUE: forward8x8:b4 <- $r10d
	.loc	0 391 31 is_stmt 1              # ldecod_src/transform.c:391:31
	leal	(%rbx,%r9), %ebp
	.loc	0 392 25                        # ldecod_src/transform.c:392:25
	movl	%r8d, %r14d
.Ltmp559:
	sarl	%r14d
.Ltmp560:
	#DEBUG_VALUE: forward8x8:b5 <- undef
	.loc	0 392 18 is_stmt 0              # ldecod_src/transform.c:392:18
	addl	%r8d, %r14d
.Ltmp561:
	#DEBUG_VALUE: forward8x8:b6 <- undef
	.loc	0 393 13 is_stmt 1              # ldecod_src/transform.c:393:13
	subl	%ebx, %r8d
.Ltmp562:
                                        # kill: def $ebx killed $ebx killed $rbx
	.loc	0 391 25                        # ldecod_src/transform.c:391:25
	sarl	%ebx
.Ltmp563:
	.loc	0 391 18 is_stmt 0              # ldecod_src/transform.c:391:18
	addl	%ebp, %ebx
	.loc	0 392 18 is_stmt 1              # ldecod_src/transform.c:392:18
	leal	(%r9,%rax), %ebp
	.loc	0 391 18                        # ldecod_src/transform.c:391:18
	subl	%ebx, %eax
.Ltmp564:
	#DEBUG_VALUE: forward8x8:b5 <- $eax
	.loc	0 392 18                        # ldecod_src/transform.c:392:18
	subl	%r14d, %ebp
.Ltmp565:
	#DEBUG_VALUE: forward8x8:b6 <- $ebp
	.loc	0 393 25                        # ldecod_src/transform.c:393:25
	movl	%r9d, %ebx
	sarl	%ebx
	.loc	0 393 31 is_stmt 0              # ldecod_src/transform.c:393:31
	addl	%r9d, %ebx
	.loc	0 393 18                        # ldecod_src/transform.c:393:18
	addl	%r8d, %ebx
.Ltmp566:
	#DEBUG_VALUE: forward8x8:b7 <- $ebx
	.loc	0 395 21 is_stmt 1              # ldecod_src/transform.c:395:21
	leal	(%rdi,%r11), %r8d
.Ltmp567:
	#DEBUG_VALUE: forward8x8:pTmp <- [DW_OP_plus_uconst 4, DW_OP_stack_value] $rcx
	.loc	0 395 15 is_stmt 0              # ldecod_src/transform.c:395:15
	movl	%r8d, (%rcx)
	.loc	0 396 27 is_stmt 1              # ldecod_src/transform.c:396:27
	movl	%ebx, %r8d
	sarl	$2, %r8d
	.loc	0 396 21 is_stmt 0              # ldecod_src/transform.c:396:21
	addl	%r10d, %r8d
.Ltmp568:
	#DEBUG_VALUE: forward8x8:pTmp <- [DW_OP_plus_uconst 8, DW_OP_stack_value] $rcx
	.loc	0 396 15                        # ldecod_src/transform.c:396:15
	movl	%r8d, 4(%rcx)
	.loc	0 397 27 is_stmt 1              # ldecod_src/transform.c:397:27
	movl	%esi, %r8d
	sarl	%r8d
	.loc	0 397 21 is_stmt 0              # ldecod_src/transform.c:397:21
	addl	%edx, %r8d
.Ltmp569:
	#DEBUG_VALUE: forward8x8:pTmp <- [DW_OP_plus_uconst 12, DW_OP_stack_value] $rcx
	.loc	0 397 15                        # ldecod_src/transform.c:397:15
	movl	%r8d, 8(%rcx)
	.loc	0 398 27 is_stmt 1              # ldecod_src/transform.c:398:27
	movl	%ebp, %r8d
	sarl	$2, %r8d
	.loc	0 398 21 is_stmt 0              # ldecod_src/transform.c:398:21
	addl	%eax, %r8d
.Ltmp570:
	#DEBUG_VALUE: forward8x8:pTmp <- [DW_OP_plus_uconst 16, DW_OP_stack_value] $rcx
	.loc	0 398 15                        # ldecod_src/transform.c:398:15
	movl	%r8d, 12(%rcx)
	.loc	0 399 21 is_stmt 1              # ldecod_src/transform.c:399:21
	subl	%r11d, %edi
.Ltmp571:
	#DEBUG_VALUE: forward8x8:pTmp <- [DW_OP_plus_uconst 20, DW_OP_stack_value] $rcx
	.loc	0 399 15 is_stmt 0              # ldecod_src/transform.c:399:15
	movl	%edi, 16(%rcx)
	movq	48(%rsp), %rdi                  # 8-byte Reload
	.loc	0 400 27 is_stmt 1              # ldecod_src/transform.c:400:27
	sarl	$2, %eax
.Ltmp572:
	.loc	0 400 21 is_stmt 0              # ldecod_src/transform.c:400:21
	subl	%eax, %ebp
.Ltmp573:
	#DEBUG_VALUE: forward8x8:pTmp <- [DW_OP_plus_uconst 24, DW_OP_stack_value] $rcx
	.loc	0 0 21                          # ldecod_src/transform.c:0:21
	movq	184(%rsp), %rax                 # 8-byte Reload
	.loc	0 400 15                        # ldecod_src/transform.c:400:15
	movl	%ebp, 20(%rcx)
	.loc	0 401 21 is_stmt 1              # ldecod_src/transform.c:401:21
	sarl	%edx
.Ltmp574:
	.loc	0 401 27 is_stmt 0              # ldecod_src/transform.c:401:27
	subl	%esi, %edx
.Ltmp575:
	#DEBUG_VALUE: forward8x8:pTmp <- [DW_OP_plus_uconst 28, DW_OP_stack_value] $rcx
	.loc	0 0 27                          # ldecod_src/transform.c:0:27
	movq	-16(%rsp), %rsi                 # 8-byte Reload
.Ltmp576:
	.loc	0 401 15                        # ldecod_src/transform.c:401:15
	movl	%edx, 24(%rcx)
	movq	-24(%rsp), %rdx                 # 8-byte Reload
	.loc	0 402 21 is_stmt 1              # ldecod_src/transform.c:402:21
	sarl	$2, %r10d
.Ltmp577:
	.loc	0 402 27 is_stmt 0              # ldecod_src/transform.c:402:27
	subl	%ebx, %r10d
	.loc	0 402 15                        # ldecod_src/transform.c:402:15
	movl	%r10d, 28(%rcx)
	.loc	0 402 11                        # ldecod_src/transform.c:402:11
	addq	$32, %rcx
.Ltmp578:
	#DEBUG_VALUE: forward8x8:pTmp <- $rcx
	#DEBUG_VALUE: forward8x8:i <- [DW_OP_constu 24, DW_OP_minus, DW_OP_deref_size 8, DW_OP_plus_uconst 2, DW_OP_stack_value] $rsp
	.loc	0 363 19 is_stmt 1              # ldecod_src/transform.c:363:19
	incq	%rdx
	cmpq	%rax, %rdx
.Ltmp579:
	.loc	0 363 3 is_stmt 0               # ldecod_src/transform.c:363:3
	jl	.LBB8_3
.Ltmp580:
.LBB8_7:                                # %for.cond57.preheader
	#DEBUG_VALUE: forward8x8:block <- [DW_OP_plus_uconst 48] [$rsp+0]
	#DEBUG_VALUE: forward8x8:tblock <- [DW_OP_plus_uconst 264] [$rsp+0]
	#DEBUG_VALUE: forward8x8:pos_y <- [DW_OP_LLVM_entry_value 1] $edx
	#DEBUG_VALUE: forward8x8:pos_x <- [DW_OP_LLVM_entry_value 1] $ecx
	#DEBUG_VALUE: forward8x8:i <- 0
	.loc	0 406 3 is_stmt 1               # ldecod_src/transform.c:406:3
	shlq	$2, %rsi
	movq	%rsi, -16(%rsp)                 # 8-byte Spill
	xorl	%eax, %eax
	movq	168(%rsp), %r9                  # 8-byte Reload
.Ltmp581:
	.p2align	4, 0x90
.LBB8_8:                                # %for.body59
                                        # =>This Inner Loop Header: Depth=1
	#DEBUG_VALUE: forward8x8:block <- [DW_OP_plus_uconst 48] [$rsp+0]
	#DEBUG_VALUE: forward8x8:tblock <- [DW_OP_plus_uconst 264] [$rsp+0]
	#DEBUG_VALUE: forward8x8:pos_y <- [DW_OP_LLVM_entry_value 1] $edx
	#DEBUG_VALUE: forward8x8:pos_x <- [DW_OP_LLVM_entry_value 1] $ecx
	#DEBUG_VALUE: forward8x8:pTmp <- [DW_OP_LLVM_arg 0, DW_OP_consts 4, DW_OP_div, DW_OP_consts 4, DW_OP_mul, DW_OP_LLVM_arg 1, DW_OP_plus_uconst 272, DW_OP_plus, DW_OP_stack_value] $rax, $rsp
	#DEBUG_VALUE: forward8x8:i <- [DW_OP_consts 4, DW_OP_div, DW_OP_stack_value] $rax
	.loc	0 409 10                        # ldecod_src/transform.c:409:10
	movl	272(%rsp,%rax), %esi
.Ltmp582:
	#DEBUG_VALUE: forward8x8:pTmp <- [DW_OP_LLVM_arg 0, DW_OP_consts 4, DW_OP_div, DW_OP_consts 4, DW_OP_mul, DW_OP_consts 32, DW_OP_LLVM_arg 1, DW_OP_plus_uconst 272, DW_OP_plus, DW_OP_plus, DW_OP_stack_value] $rax, $rsp
	#DEBUG_VALUE: forward8x8:p0 <- $esi
	.loc	0 410 10                        # ldecod_src/transform.c:410:10
	movl	304(%rsp,%rax), %r11d
.Ltmp583:
	#DEBUG_VALUE: forward8x8:pTmp <- [DW_OP_LLVM_arg 0, DW_OP_consts 4, DW_OP_div, DW_OP_consts 4, DW_OP_mul, DW_OP_consts 64, DW_OP_LLVM_arg 1, DW_OP_plus_uconst 272, DW_OP_plus, DW_OP_plus, DW_OP_stack_value] $rax, $rsp
	#DEBUG_VALUE: forward8x8:p1 <- $r11d
	.loc	0 411 10                        # ldecod_src/transform.c:411:10
	movl	336(%rsp,%rax), %r14d
.Ltmp584:
	#DEBUG_VALUE: forward8x8:pTmp <- [DW_OP_LLVM_arg 0, DW_OP_consts 4, DW_OP_div, DW_OP_consts 4, DW_OP_mul, DW_OP_consts 96, DW_OP_LLVM_arg 1, DW_OP_plus_uconst 272, DW_OP_plus, DW_OP_plus, DW_OP_stack_value] $rax, $rsp
	#DEBUG_VALUE: forward8x8:p2 <- $r14d
	.loc	0 412 10                        # ldecod_src/transform.c:412:10
	movl	368(%rsp,%rax), %ebx
.Ltmp585:
	#DEBUG_VALUE: forward8x8:pTmp <- [DW_OP_LLVM_arg 0, DW_OP_consts 4, DW_OP_div, DW_OP_consts 4, DW_OP_mul, DW_OP_consts 128, DW_OP_LLVM_arg 1, DW_OP_plus_uconst 272, DW_OP_plus, DW_OP_plus, DW_OP_stack_value] $rax, $rsp
	#DEBUG_VALUE: forward8x8:p3 <- $ebx
	.loc	0 413 10                        # ldecod_src/transform.c:413:10
	movl	400(%rsp,%rax), %r8d
.Ltmp586:
	#DEBUG_VALUE: forward8x8:pTmp <- [DW_OP_LLVM_arg 0, DW_OP_consts 4, DW_OP_div, DW_OP_consts 4, DW_OP_mul, DW_OP_consts 160, DW_OP_LLVM_arg 1, DW_OP_plus_uconst 272, DW_OP_plus, DW_OP_plus, DW_OP_stack_value] $rax, $rsp
	#DEBUG_VALUE: forward8x8:p4 <- $r8d
	.loc	0 414 10                        # ldecod_src/transform.c:414:10
	movl	432(%rsp,%rax), %r15d
.Ltmp587:
	#DEBUG_VALUE: forward8x8:pTmp <- [DW_OP_LLVM_arg 0, DW_OP_consts 4, DW_OP_div, DW_OP_consts 4, DW_OP_mul, DW_OP_consts 192, DW_OP_LLVM_arg 1, DW_OP_plus_uconst 272, DW_OP_plus, DW_OP_plus, DW_OP_stack_value] $rax, $rsp
	#DEBUG_VALUE: forward8x8:p5 <- $r15d
	.loc	0 415 10                        # ldecod_src/transform.c:415:10
	movl	464(%rsp,%rax), %r12d
.Ltmp588:
	#DEBUG_VALUE: forward8x8:pTmp <- [DW_OP_LLVM_arg 0, DW_OP_consts 4, DW_OP_div, DW_OP_consts 4, DW_OP_mul, DW_OP_consts 224, DW_OP_LLVM_arg 1, DW_OP_plus_uconst 272, DW_OP_plus, DW_OP_plus, DW_OP_stack_value] $rax, $rsp
	#DEBUG_VALUE: forward8x8:p6 <- $r12d
	.loc	0 416 10                        # ldecod_src/transform.c:416:10
	movl	496(%rsp,%rax), %r13d
.Ltmp589:
	#DEBUG_VALUE: forward8x8:p7 <- $r13d
	.loc	0 418 13                        # ldecod_src/transform.c:418:13
	leal	(%r13,%rsi), %edx
.Ltmp590:
	#DEBUG_VALUE: forward8x8:a0 <- $edx
	.loc	0 419 13                        # ldecod_src/transform.c:419:13
	leal	(%r12,%r11), %edi
.Ltmp591:
	#DEBUG_VALUE: forward8x8:a1 <- $edi
	.loc	0 420 13                        # ldecod_src/transform.c:420:13
	leal	(%r15,%r14), %ebp
.Ltmp592:
	#DEBUG_VALUE: forward8x8:a2 <- $ebp
	.loc	0 421 13                        # ldecod_src/transform.c:421:13
	leal	(%r8,%rbx), %r10d
.Ltmp593:
	#DEBUG_VALUE: forward8x8:a3 <- $r10d
	.loc	0 423 13                        # ldecod_src/transform.c:423:13
	leal	(%rdx,%r10), %ecx
.Ltmp594:
	#DEBUG_VALUE: forward8x8:b0 <- $ecx
	#DEBUG_VALUE: forward8x8:b1 <- undef
	.loc	0 0 13 is_stmt 0                # ldecod_src/transform.c:0:13
	movq	%rcx, -128(%rsp)                # 8-byte Spill
.Ltmp595:
	#DEBUG_VALUE: forward8x8:b0 <- [DW_OP_constu 128, DW_OP_minus, DW_OP_deref] $rsp
	.loc	0 425 13 is_stmt 1              # ldecod_src/transform.c:425:13
	subl	%r10d, %edx
.Ltmp596:
	#DEBUG_VALUE: forward8x8:b2 <- $edx
	.loc	0 424 13                        # ldecod_src/transform.c:424:13
	leal	(%rdi,%rbp), %r10d
.Ltmp597:
	#DEBUG_VALUE: forward8x8:b1 <- $r10d
	.loc	0 426 13                        # ldecod_src/transform.c:426:13
	subl	%ebp, %edi
.Ltmp598:
	#DEBUG_VALUE: forward8x8:b3 <- $edi
	.loc	0 0 13 is_stmt 0                # ldecod_src/transform.c:0:13
	movq	%rdi, -120(%rsp)                # 8-byte Spill
.Ltmp599:
	#DEBUG_VALUE: forward8x8:b3 <- [DW_OP_constu 120, DW_OP_minus, DW_OP_deref] $rsp
	.loc	0 428 13 is_stmt 1              # ldecod_src/transform.c:428:13
	subl	%r13d, %esi
.Ltmp600:
	#DEBUG_VALUE: forward8x8:a0 <- $esi
	.loc	0 429 13                        # ldecod_src/transform.c:429:13
	subl	%r12d, %r11d
.Ltmp601:
	#DEBUG_VALUE: forward8x8:a1 <- $r11d
	.loc	0 430 13                        # ldecod_src/transform.c:430:13
	subl	%r15d, %r14d
.Ltmp602:
	#DEBUG_VALUE: forward8x8:a2 <- $r14d
	.loc	0 431 13                        # ldecod_src/transform.c:431:13
	subl	%r8d, %ebx
.Ltmp603:
	#DEBUG_VALUE: forward8x8:a3 <- $ebx
	.loc	0 433 25                        # ldecod_src/transform.c:433:25
	movl	%esi, %ebp
	sarl	%ebp
	.loc	0 433 31 is_stmt 0              # ldecod_src/transform.c:433:31
	leal	(%r11,%r14), %r8d
.Ltmp604:
	.loc	0 433 13                        # ldecod_src/transform.c:433:13
	addl	%esi, %r8d
	.loc	0 433 18                        # ldecod_src/transform.c:433:18
	addl	%ebp, %r8d
.Ltmp605:
	#DEBUG_VALUE: forward8x8:b4 <- $r8d
	.loc	0 434 31 is_stmt 1              # ldecod_src/transform.c:434:31
	leal	(%r14,%rbx), %ebp
	.loc	0 435 25                        # ldecod_src/transform.c:435:25
	movl	%r11d, %r15d
.Ltmp606:
	sarl	%r15d
.Ltmp607:
	#DEBUG_VALUE: forward8x8:b5 <- undef
	.loc	0 435 18 is_stmt 0              # ldecod_src/transform.c:435:18
	addl	%r11d, %r15d
.Ltmp608:
	#DEBUG_VALUE: forward8x8:b6 <- undef
	.loc	0 436 13 is_stmt 1              # ldecod_src/transform.c:436:13
	subl	%r14d, %r11d
.Ltmp609:
	.loc	0 434 25                        # ldecod_src/transform.c:434:25
	movl	%r14d, %r12d
.Ltmp610:
	sarl	%r12d
	.loc	0 434 18 is_stmt 0              # ldecod_src/transform.c:434:18
	addl	%ebp, %r12d
	.loc	0 435 18 is_stmt 1              # ldecod_src/transform.c:435:18
	leal	(%rbx,%rsi), %r14d
.Ltmp611:
	.loc	0 434 18                        # ldecod_src/transform.c:434:18
	subl	%r12d, %esi
.Ltmp612:
	#DEBUG_VALUE: forward8x8:b5 <- $esi
	.loc	0 435 18                        # ldecod_src/transform.c:435:18
	subl	%r15d, %r14d
.Ltmp613:
	#DEBUG_VALUE: forward8x8:b6 <- $r14d
	.loc	0 436 25                        # ldecod_src/transform.c:436:25
	movl	%ebx, %ebp
	sarl	%ebp
	.loc	0 436 31 is_stmt 0              # ldecod_src/transform.c:436:31
	addl	%ebx, %ebp
	.loc	0 436 18                        # ldecod_src/transform.c:436:18
	addl	%r11d, %ebp
.Ltmp614:
	#DEBUG_VALUE: forward8x8:b7 <- $ebp
	#DEBUG_VALUE: forward8x8:ii <- [DW_OP_LLVM_arg 0, DW_OP_consts 4, DW_OP_div, DW_OP_LLVM_arg 1, DW_OP_LLVM_convert 64 5, DW_OP_plus, DW_OP_stack_value] undef, undef
	.loc	0 0 18                          # ldecod_src/transform.c:0:18
	movq	-128(%rsp), %r12                # 8-byte Reload
	.loc	0 439 33 is_stmt 1              # ldecod_src/transform.c:439:33
	leal	(%r12,%r10), %r11d
	movq	264(%rsp), %rcx                 # 8-byte Reload
	movq	(%rcx,%r9,8), %rbx
.Ltmp615:
	.loc	0 0 33 is_stmt 0                # ldecod_src/transform.c:0:33
	movq	-16(%rsp), %rdi                 # 8-byte Reload
	.loc	0 439 27                        # ldecod_src/transform.c:439:27
	addq	%rdi, %rbx
	movl	%r11d, (%rax,%rbx)
	.loc	0 440 39 is_stmt 1              # ldecod_src/transform.c:440:39
	movl	%ebp, %r11d
	sarl	$2, %r11d
	.loc	0 440 33 is_stmt 0              # ldecod_src/transform.c:440:33
	addl	%r8d, %r11d
	movq	8(%rcx,%r9,8), %rbx
	.loc	0 440 27                        # ldecod_src/transform.c:440:27
	addq	%rdi, %rbx
	movl	%r11d, (%rax,%rbx)
	movq	-120(%rsp), %r15                # 8-byte Reload
	.loc	0 441 39 is_stmt 1              # ldecod_src/transform.c:441:39
	movl	%r15d, %r11d
	sarl	%r11d
	.loc	0 441 33 is_stmt 0              # ldecod_src/transform.c:441:33
	addl	%edx, %r11d
	movq	16(%rcx,%r9,8), %rbx
	.loc	0 441 27                        # ldecod_src/transform.c:441:27
	addq	%rdi, %rbx
	movl	%r11d, (%rax,%rbx)
	.loc	0 442 39 is_stmt 1              # ldecod_src/transform.c:442:39
	movl	%r14d, %r11d
	sarl	$2, %r11d
	.loc	0 442 33 is_stmt 0              # ldecod_src/transform.c:442:33
	addl	%esi, %r11d
	movq	24(%rcx,%r9,8), %rbx
	.loc	0 442 27                        # ldecod_src/transform.c:442:27
	addq	%rdi, %rbx
	movl	%r11d, (%rax,%rbx)
	movq	%r12, %r11
	.loc	0 443 33 is_stmt 1              # ldecod_src/transform.c:443:33
	subl	%r10d, %r11d
	movq	32(%rcx,%r9,8), %r10
.Ltmp616:
	.loc	0 443 27 is_stmt 0              # ldecod_src/transform.c:443:27
	addq	%rdi, %r10
	movl	%r11d, (%rax,%r10)
	.loc	0 444 39 is_stmt 1              # ldecod_src/transform.c:444:39
	sarl	$2, %esi
.Ltmp617:
	.loc	0 444 33 is_stmt 0              # ldecod_src/transform.c:444:33
	subl	%esi, %r14d
.Ltmp618:
	.loc	0 0 33                          # ldecod_src/transform.c:0:33
	movq	40(%rcx,%r9,8), %rsi
	.loc	0 444 27                        # ldecod_src/transform.c:444:27
	addq	%rdi, %rsi
	movl	%r14d, (%rax,%rsi)
	.loc	0 445 33 is_stmt 1              # ldecod_src/transform.c:445:33
	sarl	%edx
.Ltmp619:
	.loc	0 445 39 is_stmt 0              # ldecod_src/transform.c:445:39
	subl	%r15d, %edx
	movq	48(%rcx,%r9,8), %rsi
	.loc	0 445 27                        # ldecod_src/transform.c:445:27
	addq	%rdi, %rsi
	movl	%edx, (%rax,%rsi)
	.loc	0 446 33 is_stmt 1              # ldecod_src/transform.c:446:33
	sarl	$2, %r8d
.Ltmp620:
	.loc	0 446 39 is_stmt 0              # ldecod_src/transform.c:446:39
	subl	%ebp, %r8d
	movq	56(%rcx,%r9,8), %rdx
	.loc	0 446 27                        # ldecod_src/transform.c:446:27
	addq	%rdi, %rdx
	movl	%r8d, (%rax,%rdx)
.Ltmp621:
	#DEBUG_VALUE: forward8x8:i <- [DW_OP_consts 4, DW_OP_div, DW_OP_consts 1, DW_OP_plus, DW_OP_stack_value] $rax
	.loc	0 406 15 is_stmt 1              # ldecod_src/transform.c:406:15
	addq	$4, %rax
.Ltmp622:
	cmpq	$32, %rax
.Ltmp623:
	.loc	0 406 3 is_stmt 0               # ldecod_src/transform.c:406:3
	jne	.LBB8_8
.Ltmp624:
# %bb.9:                                # %for.end152
	#DEBUG_VALUE: forward8x8:block <- [DW_OP_plus_uconst 48] [$rsp+0]
	#DEBUG_VALUE: forward8x8:tblock <- [DW_OP_plus_uconst 264] [$rsp+0]
	#DEBUG_VALUE: forward8x8:pos_y <- [DW_OP_LLVM_entry_value 1] $edx
	#DEBUG_VALUE: forward8x8:pos_x <- [DW_OP_LLVM_entry_value 1] $ecx
	#DEBUG_VALUE: forward8x8:p7 <- $r13d
	#DEBUG_VALUE: forward8x8:b0 <- [DW_OP_constu 128, DW_OP_minus, DW_OP_deref] $rsp
	#DEBUG_VALUE: forward8x8:b3 <- [DW_OP_constu 120, DW_OP_minus, DW_OP_deref] $rsp
	#DEBUG_VALUE: forward8x8:b7 <- $ebp
	.loc	0 448 1 epilogue_begin is_stmt 1 # ldecod_src/transform.c:448:1
	addq	$536, %rsp                      # imm = 0x218
	.cfi_def_cfa_offset 56
	popq	%rbx
	.cfi_def_cfa_offset 48
	popq	%r12
	.cfi_def_cfa_offset 40
	popq	%r13
.Ltmp625:
	.cfi_def_cfa_offset 32
	popq	%r14
	.cfi_def_cfa_offset 24
	popq	%r15
	.cfi_def_cfa_offset 16
	popq	%rbp
.Ltmp626:
	.cfi_def_cfa_offset 8
	retq
.Ltmp627:
.Lfunc_end8:
	.size	forward8x8, .Lfunc_end8-forward8x8
	.cfi_endproc
                                        # -- End function
	.globl	inverse8x8                      # -- Begin function inverse8x8
	.p2align	4, 0x90
	.type	inverse8x8,@function
inverse8x8:                             # @inverse8x8
.Lfunc_begin9:
	.loc	0 451 0                         # ldecod_src/transform.c:451:0
	.cfi_startproc
# %bb.0:                                # %entry
	#DEBUG_VALUE: inverse8x8:tblock <- $rdi
	#DEBUG_VALUE: inverse8x8:block <- $rsi
	#DEBUG_VALUE: inverse8x8:pos_y <- $edx
	#DEBUG_VALUE: inverse8x8:pos_x <- $ecx
	pushq	%rbp
	.cfi_def_cfa_offset 16
	pushq	%r15
	.cfi_def_cfa_offset 24
	pushq	%r14
	.cfi_def_cfa_offset 32
	pushq	%r13
	.cfi_def_cfa_offset 40
	pushq	%r12
	.cfi_def_cfa_offset 48
	pushq	%rbx
	.cfi_def_cfa_offset 56
	subq	$440, %rsp                      # imm = 0x1B8
	.cfi_def_cfa_offset 496
	.cfi_offset %rbx, -56
	.cfi_offset %r12, -48
	.cfi_offset %r13, -40
	.cfi_offset %r14, -32
	.cfi_offset %r15, -24
	.cfi_offset %rbp, -16
	movq	%rsi, %r12
.Ltmp628:
	#DEBUG_VALUE: inverse8x8:pTmp <- [DW_OP_plus_uconst 176, DW_OP_stack_value] $rsp
	#DEBUG_VALUE: inverse8x8:i <- $edx
	.loc	0 460 3 prologue_end            # ldecod_src/transform.c:460:3
	movslq	%edx, %r13
	leal	7(%r13), %eax
	movslq	%eax, %rdx
.Ltmp629:
	#DEBUG_VALUE: inverse8x8:pos_y <- [DW_OP_LLVM_entry_value 1] $edx
	cmpq	%rdx, %r13
	movq	%rdx, %rax
	cmovgq	%r13, %rax
	movslq	%ecx, %rcx
.Ltmp630:
	#DEBUG_VALUE: inverse8x8:pos_x <- [DW_OP_LLVM_entry_value 1] $ecx
	subq	%r13, %rax
	incq	%rax
	cmpq	$3, %rax
	movq	%rdi, 32(%rsp)                  # 8-byte Spill
.Ltmp631:
	#DEBUG_VALUE: inverse8x8:tblock <- [DW_OP_plus_uconst 32] [$rsp+0]
	.loc	0 0 3 is_stmt 0                 # ldecod_src/transform.c:0:3
	movq	%rdx, 120(%rsp)                 # 8-byte Spill
	.loc	0 460 3                         # ldecod_src/transform.c:460:3
	ja	.LBB9_4
.Ltmp632:
# %bb.1:
	#DEBUG_VALUE: inverse8x8:tblock <- [DW_OP_plus_uconst 32] [$rsp+0]
	#DEBUG_VALUE: inverse8x8:block <- $r12
	#DEBUG_VALUE: inverse8x8:pos_y <- [DW_OP_LLVM_entry_value 1] $edx
	#DEBUG_VALUE: inverse8x8:pos_x <- [DW_OP_LLVM_entry_value 1] $ecx
	#DEBUG_VALUE: inverse8x8:pTmp <- [DW_OP_plus_uconst 176, DW_OP_stack_value] $rsp
	.loc	0 0 3                           # ldecod_src/transform.c:0:3
	leaq	176(%rsp), %r15
	movq	%r13, %rax
	jmp	.LBB9_2
.Ltmp633:
.LBB9_4:                                # %vector.ph
	#DEBUG_VALUE: inverse8x8:tblock <- [DW_OP_plus_uconst 32] [$rsp+0]
	#DEBUG_VALUE: inverse8x8:block <- $r12
	#DEBUG_VALUE: inverse8x8:pos_y <- [DW_OP_LLVM_entry_value 1] $edx
	#DEBUG_VALUE: inverse8x8:pos_x <- [DW_OP_LLVM_entry_value 1] $ecx
	#DEBUG_VALUE: inverse8x8:pTmp <- [DW_OP_plus_uconst 176, DW_OP_stack_value] $rsp
	movq	%r12, 104(%rsp)                 # 8-byte Spill
.Ltmp634:
	#DEBUG_VALUE: inverse8x8:block <- [DW_OP_plus_uconst 104] [$rsp+0]
	movq	%rax, 80(%rsp)                  # 8-byte Spill
	.loc	0 460 3                         # ldecod_src/transform.c:460:3
	movq	%rax, %rdx
	andq	$-4, %rdx
	leaq	(%rdx,%r13), %rax
	movq	%rax, -32(%rsp)                 # 8-byte Spill
	movq	%rdx, 24(%rsp)                  # 8-byte Spill
	movq	%rdx, %rax
	shlq	$5, %rax
	addq	%rsp, %rax
	addq	$176, %rax
	movq	%rax, 88(%rsp)                  # 8-byte Spill
	leaq	300(%rsp), %rbp
	movq	%r13, 96(%rsp)                  # 8-byte Spill
	leaq	(%rdi,%r13,8), %rax
	addq	$24, %rax
	movq	%rax, 112(%rsp)                 # 8-byte Spill
	xorl	%edx, %edx
.Ltmp635:
	.p2align	4, 0x90
.LBB9_5:                                # %vector.body
                                        # =>This Inner Loop Header: Depth=1
	#DEBUG_VALUE: inverse8x8:tblock <- [DW_OP_plus_uconst 32] [$rsp+0]
	#DEBUG_VALUE: inverse8x8:block <- [DW_OP_plus_uconst 104] [$rsp+0]
	#DEBUG_VALUE: inverse8x8:pos_y <- [DW_OP_LLVM_entry_value 1] $edx
	#DEBUG_VALUE: inverse8x8:pos_x <- [DW_OP_LLVM_entry_value 1] $ecx
	#DEBUG_VALUE: inverse8x8:pTmp <- [DW_OP_plus_uconst 176, DW_OP_stack_value] $rsp
	.loc	0 0 3                           # ldecod_src/transform.c:0:3
	movq	%rdx, 168(%rsp)                 # 8-byte Spill
	movq	112(%rsp), %rax                 # 8-byte Reload
.Ltmp636:
	.loc	0 462 15 is_stmt 1              # ldecod_src/transform.c:462:15
	movq	-24(%rax,%rdx,8), %rsi
	movq	-16(%rax,%rdx,8), %rdi
	movq	-8(%rax,%rdx,8), %r8
	movq	(%rax,%rdx,8), %r9
	movq	%rsi, %rdx
	movq	%rsi, -120(%rsp)                # 8-byte Spill
	.loc	0 463 10                        # ldecod_src/transform.c:463:10
	movl	(%rsi,%rcx,4), %r11d
	movl	(%rdi,%rcx,4), %r13d
	movl	(%r8,%rcx,4), %r10d
	movl	(%r9,%rcx,4), %eax
	movq	%rax, -128(%rsp)                # 8-byte Spill
	.loc	0 465 10                        # ldecod_src/transform.c:465:10
	movl	8(%rsi,%rcx,4), %eax
	.loc	0 467 10                        # ldecod_src/transform.c:467:10
	movl	16(%rsi,%rcx,4), %r12d
	movl	16(%rdi,%rcx,4), %r15d
	movl	16(%r8,%rcx,4), %ebx
	movl	16(%r9,%rcx,4), %esi
	.loc	0 469 10                        # ldecod_src/transform.c:469:10
	movl	24(%rdx,%rcx,4), %r14d
	.loc	0 472 13                        # ldecod_src/transform.c:472:13
	leal	(%r12,%r11), %edx
	movq	%rdx, -16(%rsp)                 # 8-byte Spill
	.loc	0 473 13                        # ldecod_src/transform.c:473:13
	subl	%r12d, %r11d
	.loc	0 472 13                        # ldecod_src/transform.c:472:13
	leal	(%r15,%r13), %edx
	movq	%rdx, 8(%rsp)                   # 8-byte Spill
	.loc	0 473 13                        # ldecod_src/transform.c:473:13
	subl	%r15d, %r13d
	.loc	0 472 13                        # ldecod_src/transform.c:472:13
	leal	(%rbx,%r10), %edx
	movq	%rdx, (%rsp)                    # 8-byte Spill
	.loc	0 473 13                        # ldecod_src/transform.c:473:13
	subl	%ebx, %r10d
	movq	%r10, %r12
	movq	-128(%rsp), %r10                # 8-byte Reload
	.loc	0 472 13                        # ldecod_src/transform.c:472:13
	leal	(%rsi,%r10), %edx
	movq	%rdx, -8(%rsp)                  # 8-byte Spill
	.loc	0 473 13                        # ldecod_src/transform.c:473:13
	subl	%esi, %r10d
	movq	%r10, -128(%rsp)                # 8-byte Spill
	.loc	0 474 13                        # ldecod_src/transform.c:474:13
	movl	%r14d, %edx
	.loc	0 475 19                        # ldecod_src/transform.c:475:19
	sarl	%r14d
	.loc	0 475 13 is_stmt 0              # ldecod_src/transform.c:475:13
	addl	%eax, %r14d
	.loc	0 474 19 is_stmt 1              # ldecod_src/transform.c:474:19
	sarl	%eax
	.loc	0 474 13 is_stmt 0              # ldecod_src/transform.c:474:13
	subl	%eax, %edx
	movq	%rdi, %rsi
	movq	%rdi, -96(%rsp)                 # 8-byte Spill
	.loc	0 469 10 is_stmt 1              # ldecod_src/transform.c:469:10
	movl	24(%rdi,%rcx,4), %eax
	.loc	0 474 13                        # ldecod_src/transform.c:474:13
	movl	%eax, %edi
	.loc	0 475 19                        # ldecod_src/transform.c:475:19
	sarl	%eax
	.loc	0 465 10                        # ldecod_src/transform.c:465:10
	movl	8(%rsi,%rcx,4), %esi
	.loc	0 475 13                        # ldecod_src/transform.c:475:13
	addl	%esi, %eax
	.loc	0 474 19                        # ldecod_src/transform.c:474:19
	sarl	%esi
	.loc	0 474 13 is_stmt 0              # ldecod_src/transform.c:474:13
	subl	%esi, %edi
	movq	%r8, %r10
	movq	%r8, -104(%rsp)                 # 8-byte Spill
	.loc	0 469 10 is_stmt 1              # ldecod_src/transform.c:469:10
	movl	24(%r8,%rcx,4), %esi
	.loc	0 474 13                        # ldecod_src/transform.c:474:13
	movl	%esi, %r8d
	.loc	0 475 19                        # ldecod_src/transform.c:475:19
	sarl	%esi
	.loc	0 465 10                        # ldecod_src/transform.c:465:10
	movl	8(%r10,%rcx,4), %ebx
	.loc	0 475 13                        # ldecod_src/transform.c:475:13
	addl	%ebx, %esi
	.loc	0 474 19                        # ldecod_src/transform.c:474:19
	sarl	%ebx
	.loc	0 474 13 is_stmt 0              # ldecod_src/transform.c:474:13
	subl	%ebx, %r8d
	movq	%r9, -48(%rsp)                  # 8-byte Spill
	.loc	0 469 10 is_stmt 1              # ldecod_src/transform.c:469:10
	movl	24(%r9,%rcx,4), %ebx
	.loc	0 474 13                        # ldecod_src/transform.c:474:13
	movl	%ebx, %r10d
	.loc	0 475 19                        # ldecod_src/transform.c:475:19
	sarl	%ebx
	.loc	0 465 10                        # ldecod_src/transform.c:465:10
	movl	8(%r9,%rcx,4), %r15d
	.loc	0 475 13                        # ldecod_src/transform.c:475:13
	addl	%r15d, %ebx
	.loc	0 474 19                        # ldecod_src/transform.c:474:19
	sarl	%r15d
	.loc	0 474 13 is_stmt 0              # ldecod_src/transform.c:474:13
	subl	%r15d, %r10d
	.loc	0 478 14 is_stmt 1              # ldecod_src/transform.c:478:14
	movl	%r11d, %r15d
	subl	%edx, %r15d
	movl	%r15d, -76(%rsp)                # 4-byte Spill
	.loc	0 479 14                        # ldecod_src/transform.c:479:14
	addl	%r11d, %edx
	movq	%rdx, 40(%rsp)                  # 8-byte Spill
	.loc	0 478 14                        # ldecod_src/transform.c:478:14
	movl	%r13d, %edx
	subl	%edi, %edx
	movl	%edx, -80(%rsp)                 # 4-byte Spill
	.loc	0 479 14                        # ldecod_src/transform.c:479:14
	addl	%r13d, %edi
	movq	%rdi, 160(%rsp)                 # 8-byte Spill
	.loc	0 478 14                        # ldecod_src/transform.c:478:14
	movl	%r12d, %edx
	subl	%r8d, %edx
	movl	%edx, -84(%rsp)                 # 4-byte Spill
	.loc	0 479 14                        # ldecod_src/transform.c:479:14
	addl	%r12d, %r8d
	movq	%r8, 152(%rsp)                  # 8-byte Spill
	movq	-128(%rsp), %rdi                # 8-byte Reload
	.loc	0 478 14                        # ldecod_src/transform.c:478:14
	movl	%edi, %edx
	subl	%r10d, %edx
	movl	%edx, -88(%rsp)                 # 4-byte Spill
	.loc	0 479 14                        # ldecod_src/transform.c:479:14
	addl	%edi, %r10d
	movq	%r10, 144(%rsp)                 # 8-byte Spill
	movq	-16(%rsp), %rdx                 # 8-byte Reload
	.loc	0 477 14                        # ldecod_src/transform.c:477:14
	leal	(%r14,%rdx), %edi
	movq	%rdi, 72(%rsp)                  # 8-byte Spill
	.loc	0 480 14                        # ldecod_src/transform.c:480:14
	subl	%r14d, %edx
	movq	%rdx, -16(%rsp)                 # 8-byte Spill
	movq	8(%rsp), %r12                   # 8-byte Reload
	.loc	0 477 14                        # ldecod_src/transform.c:477:14
	leal	(%rax,%r12), %edx
	movq	%rdx, 48(%rsp)                  # 8-byte Spill
	.loc	0 480 14                        # ldecod_src/transform.c:480:14
	subl	%eax, %r12d
	movq	%r12, 8(%rsp)                   # 8-byte Spill
	movq	(%rsp), %rax                    # 8-byte Reload
	.loc	0 477 14                        # ldecod_src/transform.c:477:14
	leal	(%rsi,%rax), %edx
	movq	%rdx, 56(%rsp)                  # 8-byte Spill
	.loc	0 480 14                        # ldecod_src/transform.c:480:14
	subl	%esi, %eax
	movq	%rax, (%rsp)                    # 8-byte Spill
	movq	-8(%rsp), %rax                  # 8-byte Reload
	.loc	0 477 14                        # ldecod_src/transform.c:477:14
	leal	(%rbx,%rax), %edx
	movq	%rdx, 64(%rsp)                  # 8-byte Spill
	.loc	0 480 14                        # ldecod_src/transform.c:480:14
	subl	%ebx, %eax
	movq	%rax, -8(%rsp)                  # 8-byte Spill
	movq	-120(%rsp), %rsi                # 8-byte Reload
	.loc	0 466 10                        # ldecod_src/transform.c:466:10
	movl	12(%rsi,%rcx,4), %edx
	.loc	0 483 30                        # ldecod_src/transform.c:483:30
	movl	%edx, %eax
	sarl	%eax
	.loc	0 483 14 is_stmt 0              # ldecod_src/transform.c:483:14
	addl	%edx, %eax
	movq	%rdx, %r8
	movq	%rdx, -40(%rsp)                 # 8-byte Spill
	.loc	0 464 10 is_stmt 1              # ldecod_src/transform.c:464:10
	movl	4(%rsi,%rcx,4), %edx
	.loc	0 483 14                        # ldecod_src/transform.c:483:14
	movl	%edx, %edi
	movq	%rdx, %r9
	movq	%rdx, -128(%rsp)                # 8-byte Spill
	subl	%eax, %edi
	.loc	0 468 10                        # ldecod_src/transform.c:468:10
	movl	20(%rsi,%rcx,4), %r14d
	.loc	0 484 30                        # ldecod_src/transform.c:484:30
	movl	%r14d, %eax
	sarl	%eax
	.loc	0 484 14 is_stmt 0              # ldecod_src/transform.c:484:14
	movl	%r14d, %edx
	subl	%r9d, %edx
	.loc	0 484 19                        # ldecod_src/transform.c:484:19
	addl	%eax, %edx
	.loc	0 470 10 is_stmt 1              # ldecod_src/transform.c:470:10
	movl	28(%rsi,%rcx,4), %eax
	.loc	0 483 24                        # ldecod_src/transform.c:483:24
	addl	%eax, %edi
	movl	%edi, -56(%rsp)                 # 4-byte Spill
	.loc	0 484 24                        # ldecod_src/transform.c:484:24
	addl	%eax, %edx
	movl	%edx, -108(%rsp)                # 4-byte Spill
	.loc	0 482 30                        # ldecod_src/transform.c:482:30
	movl	%eax, %esi
	sarl	%esi
	.loc	0 482 24 is_stmt 0              # ldecod_src/transform.c:482:24
	addl	%r8d, %esi
	addl	%eax, %esi
	movq	-96(%rsp), %rdx                 # 8-byte Reload
	.loc	0 466 10 is_stmt 1              # ldecod_src/transform.c:466:10
	movl	12(%rdx,%rcx,4), %edi
	.loc	0 483 30                        # ldecod_src/transform.c:483:30
	movl	%edi, %eax
	sarl	%eax
	.loc	0 483 14 is_stmt 0              # ldecod_src/transform.c:483:14
	addl	%edi, %eax
	movq	%rdi, %r10
	movq	%rdi, 136(%rsp)                 # 8-byte Spill
	.loc	0 464 10 is_stmt 1              # ldecod_src/transform.c:464:10
	movl	4(%rdx,%rcx,4), %r11d
	movq	%r11, -120(%rsp)                # 8-byte Spill
	.loc	0 483 14                        # ldecod_src/transform.c:483:14
	movl	%r11d, %edi
	subl	%eax, %edi
	.loc	0 468 10                        # ldecod_src/transform.c:468:10
	movl	20(%rdx,%rcx,4), %r9d
	movl	%r9d, -72(%rsp)                 # 4-byte Spill
	movq	%rdx, %r8
	.loc	0 484 30                        # ldecod_src/transform.c:484:30
	movl	%r9d, %eax
	sarl	%eax
	.loc	0 484 14 is_stmt 0              # ldecod_src/transform.c:484:14
	movl	%r9d, %edx
	subl	%r11d, %edx
	.loc	0 484 19                        # ldecod_src/transform.c:484:19
	addl	%eax, %edx
	.loc	0 470 10 is_stmt 1              # ldecod_src/transform.c:470:10
	movl	28(%r8,%rcx,4), %eax
	.loc	0 483 24                        # ldecod_src/transform.c:483:24
	addl	%eax, %edi
	movl	%edi, -64(%rsp)                 # 4-byte Spill
	.loc	0 484 24                        # ldecod_src/transform.c:484:24
	addl	%eax, %edx
	movl	%edx, -96(%rsp)                 # 4-byte Spill
	.loc	0 482 30                        # ldecod_src/transform.c:482:30
	movl	%eax, %edx
	sarl	%edx
	.loc	0 482 24 is_stmt 0              # ldecod_src/transform.c:482:24
	addl	%r10d, %edx
	addl	%eax, %edx
	movq	-104(%rsp), %r8                 # 8-byte Reload
	.loc	0 466 10 is_stmt 1              # ldecod_src/transform.c:466:10
	movl	12(%r8,%rcx,4), %edi
	.loc	0 483 30                        # ldecod_src/transform.c:483:30
	movl	%edi, %eax
	sarl	%eax
	.loc	0 483 14 is_stmt 0              # ldecod_src/transform.c:483:14
	addl	%edi, %eax
	movq	%rdi, %r10
	movq	%rdi, 128(%rsp)                 # 8-byte Spill
	.loc	0 464 10 is_stmt 1              # ldecod_src/transform.c:464:10
	movl	4(%r8,%rcx,4), %r9d
	movq	%r9, -24(%rsp)                  # 8-byte Spill
	.loc	0 483 14                        # ldecod_src/transform.c:483:14
	movl	%r9d, %r15d
	subl	%eax, %r15d
	.loc	0 468 10                        # ldecod_src/transform.c:468:10
	movl	20(%r8,%rcx,4), %edi
	movl	%edi, 20(%rsp)                  # 4-byte Spill
	.loc	0 484 30                        # ldecod_src/transform.c:484:30
	movl	%edi, %eax
	sarl	%eax
	.loc	0 484 14 is_stmt 0              # ldecod_src/transform.c:484:14
	subl	%r9d, %edi
	.loc	0 484 19                        # ldecod_src/transform.c:484:19
	addl	%eax, %edi
	.loc	0 470 10 is_stmt 1              # ldecod_src/transform.c:470:10
	movl	28(%r8,%rcx,4), %eax
	.loc	0 483 24                        # ldecod_src/transform.c:483:24
	addl	%eax, %r15d
	.loc	0 484 24                        # ldecod_src/transform.c:484:24
	addl	%eax, %edi
	movl	%edi, -104(%rsp)                # 4-byte Spill
	.loc	0 482 30                        # ldecod_src/transform.c:482:30
	movl	%eax, %edi
	sarl	%edi
	.loc	0 482 24 is_stmt 0              # ldecod_src/transform.c:482:24
	addl	%r10d, %edi
	addl	%eax, %edi
	movq	-48(%rsp), %rbx                 # 8-byte Reload
	.loc	0 466 10 is_stmt 1              # ldecod_src/transform.c:466:10
	movl	12(%rbx,%rcx,4), %r9d
	.loc	0 483 30                        # ldecod_src/transform.c:483:30
	movl	%r9d, %r10d
	sarl	%r10d
	.loc	0 483 14 is_stmt 0              # ldecod_src/transform.c:483:14
	addl	%r9d, %r10d
	.loc	0 464 10 is_stmt 1              # ldecod_src/transform.c:464:10
	movl	4(%rbx,%rcx,4), %r12d
	.loc	0 483 14                        # ldecod_src/transform.c:483:14
	movl	%r12d, %r11d
	subl	%r10d, %r11d
	.loc	0 468 10                        # ldecod_src/transform.c:468:10
	movl	20(%rbx,%rcx,4), %r8d
	movq	%rbx, %r13
	.loc	0 484 30                        # ldecod_src/transform.c:484:30
	movl	%r8d, %ebx
	sarl	%ebx
	.loc	0 484 14 is_stmt 0              # ldecod_src/transform.c:484:14
	movl	%r8d, %r10d
	subl	%r12d, %r10d
	.loc	0 484 19                        # ldecod_src/transform.c:484:19
	addl	%ebx, %r10d
	.loc	0 470 10 is_stmt 1              # ldecod_src/transform.c:470:10
	movl	28(%r13,%rcx,4), %ebx
	.loc	0 483 24                        # ldecod_src/transform.c:483:24
	addl	%ebx, %r11d
	.loc	0 484 24                        # ldecod_src/transform.c:484:24
	addl	%ebx, %r10d
	.loc	0 482 24                        # ldecod_src/transform.c:482:24
	leal	(%r9,%rbx), %r13d
                                        # kill: def $ebx killed $ebx killed $rbx
	.loc	0 482 30 is_stmt 0              # ldecod_src/transform.c:482:30
	sarl	%ebx
	.loc	0 482 24                        # ldecod_src/transform.c:482:24
	addl	%r13d, %ebx
	movq	-128(%rsp), %rax                # 8-byte Reload
	.loc	0 485 30 is_stmt 1              # ldecod_src/transform.c:485:30
	movl	%eax, %r13d
	.loc	0 485 14 is_stmt 0              # ldecod_src/transform.c:485:14
	addl	-40(%rsp), %eax                 # 4-byte Folded Reload
	.loc	0 485 30                        # ldecod_src/transform.c:485:30
	sarl	%r13d
	.loc	0 485 19                        # ldecod_src/transform.c:485:19
	addl	%r13d, %eax
	.loc	0 485 24                        # ldecod_src/transform.c:485:24
	addl	%r14d, %eax
	movq	%rax, -128(%rsp)                # 8-byte Spill
	.loc	0 482 24 is_stmt 1              # ldecod_src/transform.c:482:24
	subl	%esi, %r14d
	movq	-120(%rsp), %rax                # 8-byte Reload
	.loc	0 485 30                        # ldecod_src/transform.c:485:30
	movl	%eax, %esi
	.loc	0 485 14 is_stmt 0              # ldecod_src/transform.c:485:14
	addl	136(%rsp), %eax                 # 4-byte Folded Reload
	.loc	0 485 30                        # ldecod_src/transform.c:485:30
	sarl	%esi
	.loc	0 485 19                        # ldecod_src/transform.c:485:19
	addl	%esi, %eax
	movl	-72(%rsp), %esi                 # 4-byte Reload
	.loc	0 485 24                        # ldecod_src/transform.c:485:24
	addl	%esi, %eax
	movq	%rax, -120(%rsp)                # 8-byte Spill
	.loc	0 482 24 is_stmt 1              # ldecod_src/transform.c:482:24
	subl	%edx, %esi
	movq	-24(%rsp), %r13                 # 8-byte Reload
	.loc	0 485 30                        # ldecod_src/transform.c:485:30
	movl	%r13d, %edx
	.loc	0 485 14 is_stmt 0              # ldecod_src/transform.c:485:14
	addl	128(%rsp), %r13d                # 4-byte Folded Reload
	.loc	0 485 30                        # ldecod_src/transform.c:485:30
	sarl	%edx
	.loc	0 485 19                        # ldecod_src/transform.c:485:19
	addl	%edx, %r13d
	movl	20(%rsp), %edx                  # 4-byte Reload
	.loc	0 485 24                        # ldecod_src/transform.c:485:24
	addl	%edx, %r13d
	.loc	0 482 24 is_stmt 1              # ldecod_src/transform.c:482:24
	subl	%edi, %edx
	.loc	0 485 30                        # ldecod_src/transform.c:485:30
	movl	%r12d, %eax
	.loc	0 485 14 is_stmt 0              # ldecod_src/transform.c:485:14
	addl	%r9d, %r12d
	.loc	0 485 30                        # ldecod_src/transform.c:485:30
	sarl	%eax
	.loc	0 485 19                        # ldecod_src/transform.c:485:19
	addl	%eax, %r12d
	.loc	0 485 24                        # ldecod_src/transform.c:485:24
	addl	%r8d, %r12d
	.loc	0 482 24 is_stmt 1              # ldecod_src/transform.c:482:24
	movl	%r8d, %eax
	subl	%ebx, %eax
	movl	-108(%rsp), %ebx                # 4-byte Reload
	.loc	0 489 19                        # ldecod_src/transform.c:489:19
	movl	%ebx, %r9d
	sarl	$2, %r9d
	movl	-56(%rsp), %edi                 # 4-byte Reload
	.loc	0 489 14 is_stmt 0              # ldecod_src/transform.c:489:14
	addl	%edi, %r9d
	movq	%r9, -48(%rsp)                  # 8-byte Spill
	.loc	0 490 19 is_stmt 1              # ldecod_src/transform.c:490:19
	sarl	$2, %edi
	.loc	0 490 14 is_stmt 0              # ldecod_src/transform.c:490:14
	subl	%edi, %ebx
	movl	%ebx, -108(%rsp)                # 4-byte Spill
	movl	-96(%rsp), %r8d                 # 4-byte Reload
	.loc	0 489 19 is_stmt 1              # ldecod_src/transform.c:489:19
	movl	%r8d, %r9d
	sarl	$2, %r9d
	movl	-64(%rsp), %edi                 # 4-byte Reload
	.loc	0 489 14 is_stmt 0              # ldecod_src/transform.c:489:14
	addl	%edi, %r9d
	movq	%r9, -56(%rsp)                  # 8-byte Spill
	.loc	0 490 19 is_stmt 1              # ldecod_src/transform.c:490:19
	sarl	$2, %edi
	.loc	0 490 14 is_stmt 0              # ldecod_src/transform.c:490:14
	subl	%edi, %r8d
	movl	%r8d, -96(%rsp)                 # 4-byte Spill
	movl	-104(%rsp), %edi                # 4-byte Reload
	.loc	0 489 19 is_stmt 1              # ldecod_src/transform.c:489:19
	movl	%edi, %r8d
	sarl	$2, %r8d
	.loc	0 489 14 is_stmt 0              # ldecod_src/transform.c:489:14
	addl	%r15d, %r8d
	movq	%r8, -64(%rsp)                  # 8-byte Spill
	.loc	0 490 19 is_stmt 1              # ldecod_src/transform.c:490:19
	sarl	$2, %r15d
	.loc	0 490 14 is_stmt 0              # ldecod_src/transform.c:490:14
	subl	%r15d, %edi
	movl	%edi, -104(%rsp)                # 4-byte Spill
	.loc	0 489 19 is_stmt 1              # ldecod_src/transform.c:489:19
	movl	%r10d, %edi
	sarl	$2, %edi
	.loc	0 489 14 is_stmt 0              # ldecod_src/transform.c:489:14
	addl	%r11d, %edi
	movq	%rdi, -72(%rsp)                 # 8-byte Spill
	.loc	0 490 19 is_stmt 1              # ldecod_src/transform.c:490:19
	sarl	$2, %r11d
	.loc	0 490 14 is_stmt 0              # ldecod_src/transform.c:490:14
	subl	%r11d, %r10d
	movl	%r10d, -40(%rsp)                # 4-byte Spill
	movq	-128(%rsp), %r9                 # 8-byte Reload
	.loc	0 488 19 is_stmt 1              # ldecod_src/transform.c:488:19
	movl	%r9d, %r8d
	sarl	$2, %r8d
	.loc	0 488 14 is_stmt 0              # ldecod_src/transform.c:488:14
	addl	%r14d, %r8d
	.loc	0 491 19 is_stmt 1              # ldecod_src/transform.c:491:19
	sarl	$2, %r14d
	.loc	0 491 14 is_stmt 0              # ldecod_src/transform.c:491:14
	subl	%r14d, %r9d
	movq	%r9, %r11
	movq	%r9, -128(%rsp)                 # 8-byte Spill
	movq	-120(%rsp), %r9                 # 8-byte Reload
	.loc	0 488 19 is_stmt 1              # ldecod_src/transform.c:488:19
	movl	%r9d, %edi
	sarl	$2, %edi
	.loc	0 488 14 is_stmt 0              # ldecod_src/transform.c:488:14
	addl	%esi, %edi
	.loc	0 491 19 is_stmt 1              # ldecod_src/transform.c:491:19
	sarl	$2, %esi
	.loc	0 491 14 is_stmt 0              # ldecod_src/transform.c:491:14
	subl	%esi, %r9d
	movq	%r9, -120(%rsp)                 # 8-byte Spill
	.loc	0 488 19 is_stmt 1              # ldecod_src/transform.c:488:19
	movl	%r13d, %esi
	sarl	$2, %esi
	.loc	0 488 14 is_stmt 0              # ldecod_src/transform.c:488:14
	addl	%edx, %esi
	.loc	0 491 19 is_stmt 1              # ldecod_src/transform.c:491:19
	sarl	$2, %edx
	.loc	0 491 14 is_stmt 0              # ldecod_src/transform.c:491:14
	subl	%edx, %r13d
	movq	%r13, -24(%rsp)                 # 8-byte Spill
	.loc	0 488 19 is_stmt 1              # ldecod_src/transform.c:488:19
	movl	%r12d, %r15d
	sarl	$2, %r15d
	.loc	0 488 14 is_stmt 0              # ldecod_src/transform.c:488:14
	addl	%eax, %r15d
	.loc	0 491 19 is_stmt 1              # ldecod_src/transform.c:491:19
	sarl	$2, %eax
	.loc	0 491 14 is_stmt 0              # ldecod_src/transform.c:491:14
	subl	%eax, %r12d
	movq	72(%rsp), %rax                  # 8-byte Reload
	.loc	0 493 20 is_stmt 1              # ldecod_src/transform.c:493:20
	addl	%r11d, %eax
	.loc	0 493 15 is_stmt 0              # ldecod_src/transform.c:493:15
	movl	%eax, -124(%rbp)
	movq	48(%rsp), %rax                  # 8-byte Reload
	.loc	0 493 20                        # ldecod_src/transform.c:493:20
	addl	%r9d, %eax
	.loc	0 493 15                        # ldecod_src/transform.c:493:15
	movl	%eax, -92(%rbp)
	movq	56(%rsp), %rax                  # 8-byte Reload
	.loc	0 493 20                        # ldecod_src/transform.c:493:20
	addl	%r13d, %eax
	.loc	0 493 15                        # ldecod_src/transform.c:493:15
	movl	%eax, -60(%rbp)
	movq	64(%rsp), %rax                  # 8-byte Reload
	.loc	0 493 20                        # ldecod_src/transform.c:493:20
	addl	%r12d, %eax
	.loc	0 493 15                        # ldecod_src/transform.c:493:15
	movl	%eax, -28(%rbp)
	movl	-76(%rsp), %eax                 # 4-byte Reload
	.loc	0 494 20 is_stmt 1              # ldecod_src/transform.c:494:20
	subl	%ebx, %eax
	.loc	0 494 15 is_stmt 0              # ldecod_src/transform.c:494:15
	movl	%eax, -120(%rbp)
	movl	-80(%rsp), %eax                 # 4-byte Reload
	.loc	0 494 20                        # ldecod_src/transform.c:494:20
	subl	-96(%rsp), %eax                 # 4-byte Folded Reload
	.loc	0 494 15                        # ldecod_src/transform.c:494:15
	movl	%eax, -88(%rbp)
	movl	-84(%rsp), %eax                 # 4-byte Reload
	.loc	0 494 20                        # ldecod_src/transform.c:494:20
	subl	-104(%rsp), %eax                # 4-byte Folded Reload
	.loc	0 494 15                        # ldecod_src/transform.c:494:15
	movl	%eax, -56(%rbp)
	movl	-88(%rsp), %eax                 # 4-byte Reload
	.loc	0 494 20                        # ldecod_src/transform.c:494:20
	subl	%r10d, %eax
	.loc	0 494 15                        # ldecod_src/transform.c:494:15
	movl	%eax, -24(%rbp)
	movq	40(%rsp), %rax                  # 8-byte Reload
	movq	-48(%rsp), %rdx                 # 8-byte Reload
	.loc	0 495 20 is_stmt 1              # ldecod_src/transform.c:495:20
	addl	%edx, %eax
	.loc	0 495 15 is_stmt 0              # ldecod_src/transform.c:495:15
	movl	%eax, -116(%rbp)
	movq	160(%rsp), %rbx                 # 8-byte Reload
	movq	-56(%rsp), %rax                 # 8-byte Reload
	.loc	0 495 20                        # ldecod_src/transform.c:495:20
	leal	(%rax,%rbx), %eax
	.loc	0 495 15                        # ldecod_src/transform.c:495:15
	movl	%eax, -84(%rbp)
	movq	152(%rsp), %r13                 # 8-byte Reload
	movq	-64(%rsp), %rax                 # 8-byte Reload
	.loc	0 495 20                        # ldecod_src/transform.c:495:20
	leal	(%rax,%r13), %eax
	.loc	0 495 15                        # ldecod_src/transform.c:495:15
	movl	%eax, -52(%rbp)
	movq	144(%rsp), %r10                 # 8-byte Reload
	movq	-72(%rsp), %rax                 # 8-byte Reload
	.loc	0 495 20                        # ldecod_src/transform.c:495:20
	leal	(%rax,%r10), %eax
	.loc	0 495 15                        # ldecod_src/transform.c:495:15
	movl	%eax, -20(%rbp)
	movq	-16(%rsp), %rdx                 # 8-byte Reload
	.loc	0 496 20 is_stmt 1              # ldecod_src/transform.c:496:20
	leal	(%r8,%rdx), %eax
	.loc	0 496 15 is_stmt 0              # ldecod_src/transform.c:496:15
	movl	%eax, -112(%rbp)
	movq	8(%rsp), %r14                   # 8-byte Reload
	.loc	0 496 20                        # ldecod_src/transform.c:496:20
	leal	(%rdi,%r14), %eax
	.loc	0 496 15                        # ldecod_src/transform.c:496:15
	movl	%eax, -80(%rbp)
	movq	(%rsp), %r11                    # 8-byte Reload
	.loc	0 496 20                        # ldecod_src/transform.c:496:20
	leal	(%rsi,%r11), %eax
	.loc	0 496 15                        # ldecod_src/transform.c:496:15
	movl	%eax, -48(%rbp)
	movq	%rcx, %r9
	movq	-8(%rsp), %rcx                  # 8-byte Reload
	.loc	0 496 20                        # ldecod_src/transform.c:496:20
	leal	(%r15,%rcx), %eax
	.loc	0 496 15                        # ldecod_src/transform.c:496:15
	movl	%eax, -16(%rbp)
	movq	%rdx, %rax
	.loc	0 497 20 is_stmt 1              # ldecod_src/transform.c:497:20
	subl	%r8d, %eax
	subl	%edi, %r14d
	subl	%esi, %r11d
	subl	%r15d, %ecx
	movq	168(%rsp), %rdx                 # 8-byte Reload
	.loc	0 497 15 is_stmt 0              # ldecod_src/transform.c:497:15
	movl	%eax, -108(%rbp)
	movl	%r14d, -76(%rbp)
	movl	%r11d, -44(%rbp)
	movl	%ecx, -12(%rbp)
	movq	%r9, %rcx
	movq	40(%rsp), %rax                  # 8-byte Reload
	.loc	0 498 20 is_stmt 1              # ldecod_src/transform.c:498:20
	subl	-48(%rsp), %eax                 # 4-byte Folded Reload
	subl	-56(%rsp), %ebx                 # 4-byte Folded Reload
	subl	-64(%rsp), %r13d                # 4-byte Folded Reload
	subl	-72(%rsp), %r10d                # 4-byte Folded Reload
	.loc	0 498 15 is_stmt 0              # ldecod_src/transform.c:498:15
	movl	%eax, -104(%rbp)
	movl	%ebx, -72(%rbp)
	movl	%r13d, -40(%rbp)
	movl	%r10d, -8(%rbp)
	movl	-108(%rsp), %eax                # 4-byte Reload
	.loc	0 499 20 is_stmt 1              # ldecod_src/transform.c:499:20
	addl	-76(%rsp), %eax                 # 4-byte Folded Reload
	movl	-96(%rsp), %esi                 # 4-byte Reload
	addl	-80(%rsp), %esi                 # 4-byte Folded Reload
	movl	-104(%rsp), %edi                # 4-byte Reload
	addl	-84(%rsp), %edi                 # 4-byte Folded Reload
	movl	-40(%rsp), %r8d                 # 4-byte Reload
	addl	-88(%rsp), %r8d                 # 4-byte Folded Reload
	.loc	0 499 15 is_stmt 0              # ldecod_src/transform.c:499:15
	movl	%eax, -100(%rbp)
	movl	%esi, -68(%rbp)
	movl	%edi, -36(%rbp)
	movl	%r8d, -4(%rbp)
	movq	72(%rsp), %rax                  # 8-byte Reload
	.loc	0 500 20 is_stmt 1              # ldecod_src/transform.c:500:20
	subl	-128(%rsp), %eax                # 4-byte Folded Reload
	movq	48(%rsp), %rsi                  # 8-byte Reload
	subl	-120(%rsp), %esi                # 4-byte Folded Reload
	movq	56(%rsp), %rdi                  # 8-byte Reload
	subl	-24(%rsp), %edi                 # 4-byte Folded Reload
	movq	64(%rsp), %r8                   # 8-byte Reload
	subl	%r12d, %r8d
	.loc	0 500 15 is_stmt 0              # ldecod_src/transform.c:500:15
	movl	%eax, -96(%rbp)
	movl	%esi, -64(%rbp)
	movl	%edi, -32(%rbp)
	movl	%r8d, (%rbp)
	addq	$4, %rdx
	subq	$-128, %rbp
	cmpq	%rdx, 24(%rsp)                  # 8-byte Folded Reload
	jne	.LBB9_5
.Ltmp637:
# %bb.6:                                # %middle.block
	#DEBUG_VALUE: inverse8x8:tblock <- [DW_OP_plus_uconst 32] [$rsp+0]
	#DEBUG_VALUE: inverse8x8:block <- [DW_OP_plus_uconst 104] [$rsp+0]
	#DEBUG_VALUE: inverse8x8:pos_y <- [DW_OP_LLVM_entry_value 1] $edx
	#DEBUG_VALUE: inverse8x8:pos_x <- [DW_OP_LLVM_entry_value 1] $ecx
	#DEBUG_VALUE: inverse8x8:pTmp <- [DW_OP_plus_uconst 176, DW_OP_stack_value] $rsp
	.loc	0 0 15                          # ldecod_src/transform.c:0:15
	movq	24(%rsp), %rax                  # 8-byte Reload
	.loc	0 460 3 is_stmt 1               # ldecod_src/transform.c:460:3
	cmpq	%rax, 80(%rsp)                  # 8-byte Folded Reload
	movq	104(%rsp), %r12                 # 8-byte Reload
	movq	96(%rsp), %r13                  # 8-byte Reload
	movq	32(%rsp), %rdi                  # 8-byte Reload
	movq	-32(%rsp), %rax                 # 8-byte Reload
	movq	88(%rsp), %r15                  # 8-byte Reload
	je	.LBB9_7
.Ltmp638:
.LBB9_2:                                # %for.body.preheader
	#DEBUG_VALUE: inverse8x8:tblock <- [DW_OP_plus_uconst 32] [$rsp+0]
	#DEBUG_VALUE: inverse8x8:block <- $r12
	#DEBUG_VALUE: inverse8x8:pos_y <- [DW_OP_LLVM_entry_value 1] $edx
	#DEBUG_VALUE: inverse8x8:pos_x <- [DW_OP_LLVM_entry_value 1] $ecx
	#DEBUG_VALUE: inverse8x8:pTmp <- [DW_OP_plus_uconst 176, DW_OP_stack_value] $rsp
	decq	%rax
.Ltmp639:
	.p2align	4, 0x90
.LBB9_3:                                # %for.body
                                        # =>This Inner Loop Header: Depth=1
	#DEBUG_VALUE: inverse8x8:tblock <- [DW_OP_plus_uconst 32] [$rsp+0]
	#DEBUG_VALUE: inverse8x8:block <- $r12
	#DEBUG_VALUE: inverse8x8:pos_y <- [DW_OP_LLVM_entry_value 1] $edx
	#DEBUG_VALUE: inverse8x8:pos_x <- [DW_OP_LLVM_entry_value 1] $ecx
	#DEBUG_VALUE: inverse8x8:i <- [DW_OP_plus_uconst 1, DW_OP_stack_value] $rax
	#DEBUG_VALUE: inverse8x8:pTmp <- $r15
	.loc	0 0 3 is_stmt 0                 # ldecod_src/transform.c:0:3
	movq	%rax, -32(%rsp)                 # 8-byte Spill
.Ltmp640:
	#DEBUG_VALUE: inverse8x8:i <- [DW_OP_constu 32, DW_OP_minus, DW_OP_deref_size 8, DW_OP_plus_uconst 1, DW_OP_stack_value] $rsp
	.loc	0 462 15 is_stmt 1              # ldecod_src/transform.c:462:15
	movq	8(%rdi,%rax,8), %rdx
.Ltmp641:
	#DEBUG_VALUE: inverse8x8:pblock <- undef
	.loc	0 463 10                        # ldecod_src/transform.c:463:10
	movl	(%rdx,%rcx,4), %r10d
.Ltmp642:
	#DEBUG_VALUE: inverse8x8:p0 <- $r10d
	.loc	0 464 10                        # ldecod_src/transform.c:464:10
	movl	4(%rdx,%rcx,4), %eax
.Ltmp643:
	#DEBUG_VALUE: inverse8x8:p1 <- $eax
	.loc	0 465 10                        # ldecod_src/transform.c:465:10
	movl	8(%rdx,%rcx,4), %edi
.Ltmp644:
	#DEBUG_VALUE: inverse8x8:p2 <- $edi
	.loc	0 466 10                        # ldecod_src/transform.c:466:10
	movl	12(%rdx,%rcx,4), %r11d
.Ltmp645:
	#DEBUG_VALUE: inverse8x8:p3 <- $r11d
	.loc	0 467 10                        # ldecod_src/transform.c:467:10
	movl	16(%rdx,%rcx,4), %esi
.Ltmp646:
	#DEBUG_VALUE: inverse8x8:p4 <- $esi
	.loc	0 468 10                        # ldecod_src/transform.c:468:10
	movl	20(%rdx,%rcx,4), %r9d
.Ltmp647:
	#DEBUG_VALUE: inverse8x8:p5 <- $r9d
	.loc	0 469 10                        # ldecod_src/transform.c:469:10
	movl	24(%rdx,%rcx,4), %r14d
.Ltmp648:
	#DEBUG_VALUE: inverse8x8:p6 <- $r14d
	.loc	0 470 10                        # ldecod_src/transform.c:470:10
	movl	28(%rdx,%rcx,4), %ebx
.Ltmp649:
	#DEBUG_VALUE: inverse8x8:p7 <- $ebx
	.loc	0 472 13                        # ldecod_src/transform.c:472:13
	leal	(%rsi,%r10), %edx
.Ltmp650:
	#DEBUG_VALUE: inverse8x8:a0 <- $edx
	.loc	0 473 13                        # ldecod_src/transform.c:473:13
	subl	%esi, %r10d
.Ltmp651:
	#DEBUG_VALUE: inverse8x8:a1 <- $r10d
	.loc	0 474 13                        # ldecod_src/transform.c:474:13
	movl	%r14d, %esi
.Ltmp652:
	#DEBUG_VALUE: inverse8x8:a2 <- undef
	.loc	0 475 19                        # ldecod_src/transform.c:475:19
	sarl	%r14d
.Ltmp653:
	#DEBUG_VALUE: inverse8x8:p6 <- $esi
	.loc	0 475 13 is_stmt 0              # ldecod_src/transform.c:475:13
	addl	%edi, %r14d
.Ltmp654:
	#DEBUG_VALUE: inverse8x8:a3 <- $r14d
	.loc	0 474 19 is_stmt 1              # ldecod_src/transform.c:474:19
	sarl	%edi
.Ltmp655:
	.loc	0 474 13 is_stmt 0              # ldecod_src/transform.c:474:13
	subl	%edi, %esi
.Ltmp656:
	#DEBUG_VALUE: inverse8x8:a2 <- $esi
	.loc	0 477 14 is_stmt 1              # ldecod_src/transform.c:477:14
	leal	(%r14,%rdx), %edi
.Ltmp657:
	#DEBUG_VALUE: inverse8x8:b0 <- $edi
	.loc	0 478 14                        # ldecod_src/transform.c:478:14
	movl	%r10d, %r8d
	subl	%esi, %r8d
.Ltmp658:
	#DEBUG_VALUE: inverse8x8:b2 <- $r8d
	.loc	0 479 14                        # ldecod_src/transform.c:479:14
	addl	%r10d, %esi
.Ltmp659:
	#DEBUG_VALUE: inverse8x8:b4 <- $esi
	.loc	0 480 14                        # ldecod_src/transform.c:480:14
	subl	%r14d, %edx
.Ltmp660:
	#DEBUG_VALUE: inverse8x8:b6 <- $edx
	#DEBUG_VALUE: inverse8x8:a0 <- undef
	.loc	0 483 30                        # ldecod_src/transform.c:483:30
	movl	%r11d, %r10d
.Ltmp661:
	sarl	%r10d
	.loc	0 483 14 is_stmt 0              # ldecod_src/transform.c:483:14
	addl	%r11d, %r10d
	movl	%eax, %ebp
	subl	%r10d, %ebp
.Ltmp662:
	#DEBUG_VALUE: inverse8x8:a1 <- undef
	.loc	0 484 30 is_stmt 1              # ldecod_src/transform.c:484:30
	movl	%r9d, %r14d
.Ltmp663:
	sarl	%r14d
	.loc	0 484 14 is_stmt 0              # ldecod_src/transform.c:484:14
	movl	%r9d, %r10d
	subl	%eax, %r10d
	.loc	0 484 19                        # ldecod_src/transform.c:484:19
	addl	%r14d, %r10d
	.loc	0 482 24 is_stmt 1              # ldecod_src/transform.c:482:24
	leal	(%r11,%rbx), %r14d
	.loc	0 483 24                        # ldecod_src/transform.c:483:24
	addl	%ebx, %ebp
.Ltmp664:
	#DEBUG_VALUE: inverse8x8:a1 <- $ebp
	.loc	0 484 24                        # ldecod_src/transform.c:484:24
	addl	%ebx, %r10d
.Ltmp665:
	#DEBUG_VALUE: inverse8x8:a2 <- $r10d
                                        # kill: def $ebx killed $ebx killed $rbx
	.loc	0 482 30                        # ldecod_src/transform.c:482:30
	sarl	%ebx
.Ltmp666:
	.loc	0 482 24 is_stmt 0              # ldecod_src/transform.c:482:24
	addl	%r14d, %ebx
	.loc	0 485 30 is_stmt 1              # ldecod_src/transform.c:485:30
	movl	%eax, %r14d
	.loc	0 485 14 is_stmt 0              # ldecod_src/transform.c:485:14
	addl	%r11d, %eax
.Ltmp667:
	#DEBUG_VALUE: inverse8x8:p1 <- $r14d
	.loc	0 485 30                        # ldecod_src/transform.c:485:30
	sarl	%r14d
.Ltmp668:
	.loc	0 485 19                        # ldecod_src/transform.c:485:19
	addl	%r14d, %eax
	.loc	0 485 24                        # ldecod_src/transform.c:485:24
	addl	%r9d, %eax
.Ltmp669:
	#DEBUG_VALUE: inverse8x8:a3 <- $eax
	#DEBUG_VALUE: inverse8x8:b1 <- undef
	.loc	0 482 24 is_stmt 1              # ldecod_src/transform.c:482:24
	movl	%r9d, %r11d
.Ltmp670:
	subl	%ebx, %r11d
.Ltmp671:
	#DEBUG_VALUE: inverse8x8:a0 <- $r11d
	.loc	0 489 19                        # ldecod_src/transform.c:489:19
	movl	%r10d, %r9d
.Ltmp672:
	sarl	$2, %r9d
	.loc	0 489 14 is_stmt 0              # ldecod_src/transform.c:489:14
	addl	%ebp, %r9d
.Ltmp673:
	#DEBUG_VALUE: inverse8x8:b3 <- $r9d
	.loc	0 490 19 is_stmt 1              # ldecod_src/transform.c:490:19
	sarl	$2, %ebp
.Ltmp674:
	.loc	0 490 14 is_stmt 0              # ldecod_src/transform.c:490:14
	subl	%ebp, %r10d
.Ltmp675:
	#DEBUG_VALUE: inverse8x8:b5 <- $r10d
	.loc	0 488 19 is_stmt 1              # ldecod_src/transform.c:488:19
	movl	%eax, %ebx
	sarl	$2, %ebx
	.loc	0 488 14 is_stmt 0              # ldecod_src/transform.c:488:14
	addl	%r11d, %ebx
.Ltmp676:
	#DEBUG_VALUE: inverse8x8:b1 <- $ebx
	.loc	0 491 19 is_stmt 1              # ldecod_src/transform.c:491:19
	sarl	$2, %r11d
.Ltmp677:
	.loc	0 491 14 is_stmt 0              # ldecod_src/transform.c:491:14
	subl	%r11d, %eax
.Ltmp678:
	#DEBUG_VALUE: inverse8x8:b7 <- $eax
	.loc	0 493 20 is_stmt 1              # ldecod_src/transform.c:493:20
	leal	(%rax,%rdi), %r11d
.Ltmp679:
	#DEBUG_VALUE: inverse8x8:pTmp <- [DW_OP_plus_uconst 4, DW_OP_stack_value] $r15
	.loc	0 493 15 is_stmt 0              # ldecod_src/transform.c:493:15
	movl	%r11d, (%r15)
	.loc	0 494 20 is_stmt 1              # ldecod_src/transform.c:494:20
	movl	%r8d, %r11d
	subl	%r10d, %r11d
.Ltmp680:
	#DEBUG_VALUE: inverse8x8:pTmp <- [DW_OP_plus_uconst 8, DW_OP_stack_value] $r15
	.loc	0 494 15 is_stmt 0              # ldecod_src/transform.c:494:15
	movl	%r11d, 4(%r15)
	.loc	0 495 20 is_stmt 1              # ldecod_src/transform.c:495:20
	leal	(%r9,%rsi), %r11d
.Ltmp681:
	#DEBUG_VALUE: inverse8x8:pTmp <- [DW_OP_plus_uconst 12, DW_OP_stack_value] $r15
	.loc	0 495 15 is_stmt 0              # ldecod_src/transform.c:495:15
	movl	%r11d, 8(%r15)
	.loc	0 496 20 is_stmt 1              # ldecod_src/transform.c:496:20
	leal	(%rbx,%rdx), %r11d
.Ltmp682:
	#DEBUG_VALUE: inverse8x8:pTmp <- [DW_OP_plus_uconst 16, DW_OP_stack_value] $r15
	.loc	0 496 15 is_stmt 0              # ldecod_src/transform.c:496:15
	movl	%r11d, 12(%r15)
	.loc	0 497 20 is_stmt 1              # ldecod_src/transform.c:497:20
	subl	%ebx, %edx
.Ltmp683:
