	.text
	.file	"matroska_ebml.c"
	.file	0 "/home/yjs/workspace/x264-test/src" "x264_src/output/matroska_ebml.c" md5 0x1fa174e60935636d7a8dc8807d29ae1b
	.globl	mk_create_writer                # -- Begin function mk_create_writer
	.p2align	4, 0x90
	.type	mk_create_writer,@function
mk_create_writer:                       # @mk_create_writer
.Lfunc_begin0:
	.loc	0 288 0                         # x264_src/output/matroska_ebml.c:288:0
	.cfi_startproc
# %bb.0:                                # %entry
	#DEBUG_VALUE: mk_create_writer:filename <- $rdi
	pushq	%r15
	.cfi_def_cfa_offset 16
	pushq	%r14
	.cfi_def_cfa_offset 24
	pushq	%r12
	.cfi_def_cfa_offset 32
	pushq	%rbx
	.cfi_def_cfa_offset 40
	pushq	%rax
	.cfi_def_cfa_offset 48
	.cfi_offset %rbx, -40
	.cfi_offset %r12, -32
	.cfi_offset %r14, -24
	.cfi_offset %r15, -16
	movq	%rdi, %r14
.Ltmp0:
	.loc	0 289 20 prologue_end           # x264_src/output/matroska_ebml.c:289:20
	movl	$1, %edi
.Ltmp1:
	#DEBUG_VALUE: mk_create_writer:filename <- $r14
	movl	$104, %esi
	callq	calloc@PLT
.Ltmp2:
	#DEBUG_VALUE: mk_create_writer:w <- $rax
	.loc	0 290 10                        # x264_src/output/matroska_ebml.c:290:10
	testq	%rax, %rax
.Ltmp3:
	.loc	0 290 9 is_stmt 0               # x264_src/output/matroska_ebml.c:290:9
	je	.LBB0_13
.Ltmp4:
# %bb.1:                                # %if.else.i
	#DEBUG_VALUE: mk_create_writer:filename <- $r14
	#DEBUG_VALUE: mk_create_writer:w <- $rax
	.loc	0 0 0                           # x264_src/output/matroska_ebml.c:0:0
	movq	%rax, %rbx
.Ltmp5:
	#DEBUG_VALUE: mk_create_context:w <- $rbx
	#DEBUG_VALUE: mk_create_context:parent <- 0
	#DEBUG_VALUE: mk_create_context:id <- 0
	.loc	0 72 13 is_stmt 1               # x264_src/output/matroska_ebml.c:72:13
	movl	$1, %edi
	movl	$56, %esi
	callq	calloc@PLT
.Ltmp6:
	#DEBUG_VALUE: mk_create_writer:w <- $rbx
	#DEBUG_VALUE: mk_create_context:c <- $rax
	.loc	0 73 14                         # x264_src/output/matroska_ebml.c:73:14
	testq	%rax, %rax
.Ltmp7:
	.loc	0 73 13 is_stmt 0               # x264_src/output/matroska_ebml.c:73:13
	je	.LBB0_12
.Ltmp8:
# %bb.2:                                # %if.end5
	#DEBUG_VALUE: mk_create_writer:filename <- $r14
	#DEBUG_VALUE: mk_create_writer:w <- $rbx
	#DEBUG_VALUE: mk_create_context:w <- $rbx
	#DEBUG_VALUE: mk_create_context:parent <- 0
	#DEBUG_VALUE: mk_create_context:id <- 0
	#DEBUG_VALUE: mk_create_context:c <- $rax
	#DEBUG_VALUE: mk_create_context:c <- $rax
	.loc	0 79 14 is_stmt 1               # x264_src/output/matroska_ebml.c:79:14
	movq	%rbx, 24(%rax)
.Ltmp9:
	.loc	0 82 19                         # x264_src/output/matroska_ebml.c:82:19
	movq	%rbx, %r15
	addq	$48, %r15
.Ltmp10:
	.loc	0 85 13                         # x264_src/output/matroska_ebml.c:85:13
	movq	%r15, 8(%rax)
	.loc	0 86 23                         # x264_src/output/matroska_ebml.c:86:23
	movq	%rax, 48(%rbx)
.Ltmp11:
	.loc	0 295 13                        # x264_src/output/matroska_ebml.c:295:13
	movq	%rax, 16(%rbx)
	cmpb	$45, (%r14)
	jne	.LBB0_4
.Ltmp12:
# %bb.3:                                # %if.end5.tail
	#DEBUG_VALUE: mk_create_writer:filename <- $r14
	#DEBUG_VALUE: mk_create_writer:w <- $rbx
	.loc	0 302 10                        # x264_src/output/matroska_ebml.c:302:10
	cmpb	$0, 1(%r14)
.Ltmp13:
	.loc	0 302 9 is_stmt 0               # x264_src/output/matroska_ebml.c:302:9
	je	.LBB0_7
.Ltmp14:
.LBB0_4:                                # %if.else
	#DEBUG_VALUE: mk_create_writer:filename <- $r14
	#DEBUG_VALUE: mk_create_writer:w <- $rbx
	.loc	0 305 17 is_stmt 1              # x264_src/output/matroska_ebml.c:305:17
	movl	$.L.str.1, %esi
	movq	%r14, %rdi
	callq	fopen64@PLT
.Ltmp15:
	.loc	0 0 0 is_stmt 0                 # x264_src/output/matroska_ebml.c:0:0
	movq	%rax, (%rbx)
.Ltmp16:
	.loc	0 306 10 is_stmt 1              # x264_src/output/matroska_ebml.c:306:10
	testq	%rax, %rax
.Ltmp17:
	.loc	0 306 9 is_stmt 0               # x264_src/output/matroska_ebml.c:306:9
	je	.LBB0_8
.Ltmp18:
.LBB0_5:                                # %if.end15
	#DEBUG_VALUE: mk_create_writer:filename <- $r14
	#DEBUG_VALUE: mk_create_writer:w <- $rbx
	.loc	0 313 18 is_stmt 1              # x264_src/output/matroska_ebml.c:313:18
	movq	$1000000, 64(%rbx)              # imm = 0xF4240
	jmp	.LBB0_14
.Ltmp19:
.LBB0_7:                                # %if.then8
	#DEBUG_VALUE: mk_create_writer:filename <- $r14
	#DEBUG_VALUE: mk_create_writer:w <- $rbx
	.loc	0 303 17                        # x264_src/output/matroska_ebml.c:303:17
	movq	stdout@GOTPCREL(%rip), %rax
	movq	(%rax), %rax
	.loc	0 0 0 is_stmt 0                 # x264_src/output/matroska_ebml.c:0:0
	movq	%rax, (%rbx)
.Ltmp20:
	.loc	0 306 10 is_stmt 1              # x264_src/output/matroska_ebml.c:306:10
	testq	%rax, %rax
.Ltmp21:
	.loc	0 306 9 is_stmt 0               # x264_src/output/matroska_ebml.c:306:9
	jne	.LBB0_5
.Ltmp22:
.LBB0_8:                                # %if.then14
	#DEBUG_VALUE: mk_create_writer:filename <- $r14
	#DEBUG_VALUE: mk_create_writer:w <- $rbx
	#DEBUG_VALUE: mk_destroy_contexts:w <- $rbx
	.loc	0 213 31 is_stmt 1              # x264_src/output/matroska_ebml.c:213:31
	movq	40(%rbx), %r14
.Ltmp23:
	#DEBUG_VALUE: mk_create_writer:filename <- [DW_OP_LLVM_entry_value 1] $rdi
	#DEBUG_VALUE: cur <- $r14
	.loc	0 213 5 is_stmt 0               # x264_src/output/matroska_ebml.c:213:5
	testq	%r14, %r14
	je	.LBB0_10
.Ltmp24:
	.p2align	4, 0x90
.LBB0_9:                                # %for.body.i
                                        # =>This Inner Loop Header: Depth=1
	#DEBUG_VALUE: mk_create_writer:filename <- [DW_OP_LLVM_entry_value 1] $rdi
	#DEBUG_VALUE: mk_create_writer:w <- $rbx
	#DEBUG_VALUE: mk_destroy_contexts:w <- $rbx
	#DEBUG_VALUE: cur <- $r14
	#DEBUG_VALUE: cur <- $r14
	.loc	0 215 21 is_stmt 1              # x264_src/output/matroska_ebml.c:215:21
	movq	(%r14), %r12
.Ltmp25:
	#DEBUG_VALUE: mk_destroy_contexts:next <- $r12
	.loc	0 216 20                        # x264_src/output/matroska_ebml.c:216:20
	movq	40(%r14), %rdi
	.loc	0 216 9 is_stmt 0               # x264_src/output/matroska_ebml.c:216:9
	callq	free@PLT
.Ltmp26:
	.loc	0 217 9 is_stmt 1               # x264_src/output/matroska_ebml.c:217:9
	movq	%r14, %rdi
	callq	free@PLT
.Ltmp27:
	#DEBUG_VALUE: cur <- $r12
	.loc	0 0 9 is_stmt 0                 # x264_src/output/matroska_ebml.c:0:9
	movq	%r12, %r14
.Ltmp28:
	.loc	0 213 5 is_stmt 1               # x264_src/output/matroska_ebml.c:213:5
	testq	%r12, %r12
	jne	.LBB0_9
.Ltmp29:
.LBB0_10:                               # %for.cond.cleanup.i
	#DEBUG_VALUE: mk_create_writer:filename <- [DW_OP_LLVM_entry_value 1] $rdi
	#DEBUG_VALUE: mk_create_writer:w <- $rbx
	#DEBUG_VALUE: mk_destroy_contexts:w <- $rbx
	.loc	0 220 31                        # x264_src/output/matroska_ebml.c:220:31
	movq	(%r15), %r14
.Ltmp30:
	#DEBUG_VALUE: cur <- $r14
	.loc	0 220 5 is_stmt 0               # x264_src/output/matroska_ebml.c:220:5
	testq	%r14, %r14
	je	.LBB0_12
.Ltmp31:
	.p2align	4, 0x90
.LBB0_11:                               # %for.body6.i
                                        # =>This Inner Loop Header: Depth=1
	#DEBUG_VALUE: mk_create_writer:filename <- [DW_OP_LLVM_entry_value 1] $rdi
	#DEBUG_VALUE: mk_create_writer:w <- $rbx
	#DEBUG_VALUE: mk_destroy_contexts:w <- $rbx
	#DEBUG_VALUE: cur <- $r14
	#DEBUG_VALUE: cur <- $r14
	.loc	0 222 21 is_stmt 1              # x264_src/output/matroska_ebml.c:222:21
	movq	(%r14), %r15
.Ltmp32:
	#DEBUG_VALUE: mk_destroy_contexts:next <- $r15
	.loc	0 223 20                        # x264_src/output/matroska_ebml.c:223:20
	movq	40(%r14), %rdi
	.loc	0 223 9 is_stmt 0               # x264_src/output/matroska_ebml.c:223:9
	callq	free@PLT
.Ltmp33:
	.loc	0 224 9 is_stmt 1               # x264_src/output/matroska_ebml.c:224:9
	movq	%r14, %rdi
	callq	free@PLT
.Ltmp34:
	#DEBUG_VALUE: cur <- $r15
	.loc	0 0 9 is_stmt 0                 # x264_src/output/matroska_ebml.c:0:9
	movq	%r15, %r14
.Ltmp35:
	.loc	0 220 5 is_stmt 1               # x264_src/output/matroska_ebml.c:220:5
	testq	%r15, %r15
	jne	.LBB0_11
.Ltmp36:
.LBB0_12:                               # %if.then4
	#DEBUG_VALUE: mk_create_writer:filename <- [DW_OP_LLVM_entry_value 1] $rdi
	#DEBUG_VALUE: mk_create_writer:w <- $rbx
	#DEBUG_VALUE: mk_create_context:w <- $rbx
	#DEBUG_VALUE: mk_create_context:parent <- 0
	#DEBUG_VALUE: mk_create_context:id <- 0
	.loc	0 0 0 is_stmt 0                 # x264_src/output/matroska_ebml.c:0:0
	movq	%rbx, %rdi
	callq	free@PLT
.Ltmp37:
.LBB0_13:                               # %cleanup
	#DEBUG_VALUE: mk_create_writer:filename <- [DW_OP_LLVM_entry_value 1] $rdi
	xorl	%ebx, %ebx
.Ltmp38:
.LBB0_14:                               # %cleanup
	#DEBUG_VALUE: mk_create_writer:filename <- [DW_OP_LLVM_entry_value 1] $rdi
	.loc	0 316 1 is_stmt 1               # x264_src/output/matroska_ebml.c:316:1
	movq	%rbx, %rax
	.loc	0 316 1 epilogue_begin is_stmt 0 # x264_src/output/matroska_ebml.c:316:1
	addq	$8, %rsp
	.cfi_def_cfa_offset 40
	popq	%rbx
	.cfi_def_cfa_offset 32
	popq	%r12
	.cfi_def_cfa_offset 24
	popq	%r14
	.cfi_def_cfa_offset 16
	popq	%r15
	.cfi_def_cfa_offset 8
	retq
.Ltmp39:
.Lfunc_end0:
	.size	mk_create_writer, .Lfunc_end0-mk_create_writer
	.cfi_endproc
	.file	1 "/usr/include/x86_64-linux-gnu/bits/types" "struct_FILE.h" md5 0x1bad07471b7974df4ecc1d1c2ca207e6
	.file	2 "/usr/include/x86_64-linux-gnu/bits" "types.h" md5 0xd108b5f93a74c50510d7d9bc0ab36df9
	.file	3 "/home/yjs/workspace" "GPUISel-llvm/build/lib/clang/19/include/__stddef_size_t.h" md5 0x2c44e821a2b1951cde2eb0fb2e656867
	.file	4 "/usr/include/x86_64-linux-gnu/bits/types" "FILE.h" md5 0x571f9fb6223c42439075fdde11a0de5d
	.file	5 "/usr/include/x86_64-linux-gnu/bits" "stdint-intn.h" md5 0x55bcbdc3159515ebd91d351a70d505f4
	.file	6 "x264_src/output" "matroska_ebml.h" md5 0x1745c5eb41455b01e98496f56a8b1e8e
	.file	7 "/usr/include" "stdio.h" md5 0xf31eefcc3f15835fc5a4023a625cf609
	.file	8 "/usr/include" "stdlib.h" md5 0x02258fad21adf111bb9df9825e61954a
                                        # -- End function
	.p2align	4, 0x90                         # -- Begin function mk_create_context
	.type	mk_create_context,@function
mk_create_context:                      # @mk_create_context
.Lfunc_begin1:
	.loc	0 62 0 is_stmt 1                # x264_src/output/matroska_ebml.c:62:0
	.cfi_startproc
# %bb.0:                                # %entry
	#DEBUG_VALUE: mk_create_context:w <- $rdi
	#DEBUG_VALUE: mk_create_context:parent <- $rsi
	#DEBUG_VALUE: mk_create_context:id <- $edx
	pushq	%rbp
	.cfi_def_cfa_offset 16
	pushq	%r14
	.cfi_def_cfa_offset 24
	pushq	%rbx
	.cfi_def_cfa_offset 32
	.cfi_offset %rbx, -32
	.cfi_offset %r14, -24
	.cfi_offset %rbp, -16
	movl	%edx, %ebp
	movq	%rsi, %r14
	movq	%rdi, %rbx
.Ltmp40:
	.loc	0 65 12 prologue_end            # x264_src/output/matroska_ebml.c:65:12
	movq	40(%rdi), %rax
	.loc	0 65 9 is_stmt 0                # x264_src/output/matroska_ebml.c:65:9
	testq	%rax, %rax
.Ltmp41:
	.loc	0 65 9                          # x264_src/output/matroska_ebml.c:65:9
	je	.LBB1_4
.Ltmp42:
# %bb.1:                                # %if.then
	#DEBUG_VALUE: mk_create_context:w <- $rbx
	#DEBUG_VALUE: mk_create_context:parent <- $r14
	#DEBUG_VALUE: mk_create_context:id <- $ebp
	#DEBUG_VALUE: mk_create_context:c <- $rax
	.loc	0 68 36 is_stmt 1               # x264_src/output/matroska_ebml.c:68:36
	movq	(%rax), %rcx
	.loc	0 68 21 is_stmt 0               # x264_src/output/matroska_ebml.c:68:21
	movq	%rcx, 40(%rbx)
	jmp	.LBB1_2
.Ltmp43:
.LBB1_4:                                # %if.else
	#DEBUG_VALUE: mk_create_context:w <- $rbx
	#DEBUG_VALUE: mk_create_context:parent <- $r14
	#DEBUG_VALUE: mk_create_context:id <- $ebp
	.loc	0 72 13 is_stmt 1               # x264_src/output/matroska_ebml.c:72:13
	movl	$1, %edi
	movl	$56, %esi
	callq	calloc@PLT
.Ltmp44:
	#DEBUG_VALUE: mk_create_context:c <- $rax
	.loc	0 73 14                         # x264_src/output/matroska_ebml.c:73:14
	testq	%rax, %rax
.Ltmp45:
	.loc	0 73 13 is_stmt 0               # x264_src/output/matroska_ebml.c:73:13
	je	.LBB1_5
.Ltmp46:
.LBB1_2:                                # %if.end6
	#DEBUG_VALUE: mk_create_context:w <- $rbx
	#DEBUG_VALUE: mk_create_context:parent <- $r14
	#DEBUG_VALUE: mk_create_context:id <- $ebp
	#DEBUG_VALUE: mk_create_context:c <- $rax
	#DEBUG_VALUE: mk_create_context:c <- $rax
	.loc	0 78 15 is_stmt 1               # x264_src/output/matroska_ebml.c:78:15
	movq	%r14, 16(%rax)
	.loc	0 79 14                         # x264_src/output/matroska_ebml.c:79:14
	movq	%rbx, 24(%rax)
	.loc	0 80 11                         # x264_src/output/matroska_ebml.c:80:11
	movl	%ebp, 32(%rax)
.Ltmp47:
	.loc	0 82 19                         # x264_src/output/matroska_ebml.c:82:19
	movq	48(%rbx), %rcx
	.loc	0 82 9 is_stmt 0                # x264_src/output/matroska_ebml.c:82:9
	testq	%rcx, %rcx
.Ltmp48:
	.loc	0 82 9                          # x264_src/output/matroska_ebml.c:82:9
	je	.LBB1_3
.Ltmp49:
# %bb.6:                                # %if.then11
	#DEBUG_VALUE: mk_create_context:w <- $rbx
	#DEBUG_VALUE: mk_create_context:parent <- $r14
	#DEBUG_VALUE: mk_create_context:id <- $ebp
	#DEBUG_VALUE: mk_create_context:c <- $rax
	.loc	0 83 33 is_stmt 1               # x264_src/output/matroska_ebml.c:83:33
	movq	%rax, 8(%rcx)
.Ltmp50:
	.loc	0 84 18                         # x264_src/output/matroska_ebml.c:84:18
	movq	24(%rax), %rbx
.Ltmp51:
	#DEBUG_VALUE: mk_create_context:w <- [DW_OP_LLVM_entry_value 1] $rdi
	.loc	0 84 25 is_stmt 0               # x264_src/output/matroska_ebml.c:84:25
	movq	48(%rbx), %rcx
	jmp	.LBB1_7
.Ltmp52:
.LBB1_3:
	#DEBUG_VALUE: mk_create_context:w <- $rbx
	#DEBUG_VALUE: mk_create_context:parent <- $r14
	#DEBUG_VALUE: mk_create_context:id <- $ebp
	#DEBUG_VALUE: mk_create_context:c <- $rax
	.loc	0 0 25                          # x264_src/output/matroska_ebml.c:0:25
	xorl	%ecx, %ecx
.Ltmp53:
.LBB1_7:                                # %if.end15
	#DEBUG_VALUE: mk_create_context:w <- [DW_OP_LLVM_entry_value 1] $rdi
	#DEBUG_VALUE: mk_create_context:parent <- $r14
	#DEBUG_VALUE: mk_create_context:id <- $ebp
	#DEBUG_VALUE: mk_create_context:c <- $rax
	.loc	0 84 25                         # x264_src/output/matroska_ebml.c:84:25
	leaq	48(%rbx), %rdx
	.loc	0 84 13                         # x264_src/output/matroska_ebml.c:84:13
	movq	%rcx, (%rax)
	.loc	0 85 13 is_stmt 1               # x264_src/output/matroska_ebml.c:85:13
	movq	%rdx, 8(%rax)
	.loc	0 86 23                         # x264_src/output/matroska_ebml.c:86:23
	movq	%rax, 48(%rbx)
	.loc	0 89 1 epilogue_begin           # x264_src/output/matroska_ebml.c:89:1
	popq	%rbx
	.cfi_def_cfa_offset 24
	popq	%r14
.Ltmp54:
	#DEBUG_VALUE: mk_create_context:parent <- [DW_OP_LLVM_entry_value 1] $rsi
	.cfi_def_cfa_offset 16
	popq	%rbp
.Ltmp55:
	#DEBUG_VALUE: mk_create_context:id <- [DW_OP_LLVM_entry_value 1] $edx
	.cfi_def_cfa_offset 8
	retq
.Ltmp56:
.LBB1_5:
	.cfi_def_cfa_offset 32
	#DEBUG_VALUE: mk_create_context:w <- $rbx
	#DEBUG_VALUE: mk_create_context:parent <- $r14
	#DEBUG_VALUE: mk_create_context:id <- $ebp
	#DEBUG_VALUE: mk_create_context:c <- $rax
	.loc	0 0 1 is_stmt 0                 # x264_src/output/matroska_ebml.c:0:1
	xorl	%eax, %eax
.Ltmp57:
	.loc	0 89 1 epilogue_begin           # x264_src/output/matroska_ebml.c:89:1
	popq	%rbx
.Ltmp58:
	#DEBUG_VALUE: mk_create_context:w <- [DW_OP_LLVM_entry_value 1] $rdi
	.cfi_def_cfa_offset 24
	popq	%r14
.Ltmp59:
	#DEBUG_VALUE: mk_create_context:parent <- [DW_OP_LLVM_entry_value 1] $rsi
	.cfi_def_cfa_offset 16
	popq	%rbp
.Ltmp60:
	#DEBUG_VALUE: mk_create_context:id <- [DW_OP_LLVM_entry_value 1] $edx
	.cfi_def_cfa_offset 8
	retq
.Ltmp61:
.Lfunc_end1:
	.size	mk_create_context, .Lfunc_end1-mk_create_context
	.cfi_endproc
                                        # -- End function
	.globl	mk_writeHeader                  # -- Begin function mk_writeHeader
	.p2align	4, 0x90
	.type	mk_writeHeader,@function
mk_writeHeader:                         # @mk_writeHeader
.Lfunc_begin2:
	.loc	0 325 0 is_stmt 1               # x264_src/output/matroska_ebml.c:325:0
	.cfi_startproc
# %bb.0:                                # %entry
	#DEBUG_VALUE: mk_writeHeader:w <- $rdi
	#DEBUG_VALUE: mk_writeHeader:writing_app <- $rsi
	#DEBUG_VALUE: mk_writeHeader:codec_id <- $rdx
	#DEBUG_VALUE: mk_writeHeader:codec_private <- $rcx
	#DEBUG_VALUE: mk_writeHeader:codec_private_size <- $r8d
	#DEBUG_VALUE: mk_writeHeader:default_frame_duration <- $r9
	#DEBUG_VALUE: mk_writeHeader:timescale <- [DW_OP_plus_uconst 96] [$rsp+0]
	#DEBUG_VALUE: mk_writeHeader:width <- [DW_OP_plus_uconst 104] [$rsp+0]
	#DEBUG_VALUE: mk_writeHeader:height <- [DW_OP_plus_uconst 112] [$rsp+0]
	#DEBUG_VALUE: mk_writeHeader:d_width <- [DW_OP_plus_uconst 120] [$rsp+0]
	#DEBUG_VALUE: mk_writeHeader:d_height <- [DW_OP_plus_uconst 128] [$rsp+0]
	movl	$-1, %eax
.Ltmp62:
	.loc	0 328 9 prologue_end            # x264_src/output/matroska_ebml.c:328:9
	cmpb	$0, 96(%rdi)
.Ltmp63:
	.loc	0 328 9 is_stmt 0               # x264_src/output/matroska_ebml.c:328:9
	je	.LBB2_1
.Ltmp64:
# %bb.139:                              # %cleanup
	#DEBUG_VALUE: mk_writeHeader:w <- $rdi
	#DEBUG_VALUE: mk_writeHeader:writing_app <- $rsi
	#DEBUG_VALUE: mk_writeHeader:codec_id <- $rdx
	#DEBUG_VALUE: mk_writeHeader:codec_private <- $rcx
	#DEBUG_VALUE: mk_writeHeader:codec_private_size <- $r8d
	#DEBUG_VALUE: mk_writeHeader:default_frame_duration <- $r9
	#DEBUG_VALUE: mk_writeHeader:timescale <- [DW_OP_plus_uconst 96] [$rsp+0]
	#DEBUG_VALUE: mk_writeHeader:width <- [DW_OP_plus_uconst 104] [$rsp+0]
	#DEBUG_VALUE: mk_writeHeader:height <- [DW_OP_plus_uconst 112] [$rsp+0]
	#DEBUG_VALUE: mk_writeHeader:d_width <- [DW_OP_plus_uconst 120] [$rsp+0]
	#DEBUG_VALUE: mk_writeHeader:d_height <- [DW_OP_plus_uconst 128] [$rsp+0]
	.loc	0 390 1 is_stmt 1               # x264_src/output/matroska_ebml.c:390:1
	retq
.Ltmp65:
.LBB2_1:                                # %if.end
	#DEBUG_VALUE: mk_writeHeader:w <- $rdi
	#DEBUG_VALUE: mk_writeHeader:writing_app <- $rsi
	#DEBUG_VALUE: mk_writeHeader:codec_id <- $rdx
	#DEBUG_VALUE: mk_writeHeader:codec_private <- $rcx
	#DEBUG_VALUE: mk_writeHeader:codec_private_size <- $r8d
	#DEBUG_VALUE: mk_writeHeader:default_frame_duration <- $r9
	#DEBUG_VALUE: mk_writeHeader:timescale <- [DW_OP_plus_uconst 96] [$rsp+0]
	#DEBUG_VALUE: mk_writeHeader:width <- [DW_OP_plus_uconst 104] [$rsp+0]
	#DEBUG_VALUE: mk_writeHeader:height <- [DW_OP_plus_uconst 112] [$rsp+0]
	#DEBUG_VALUE: mk_writeHeader:d_width <- [DW_OP_plus_uconst 120] [$rsp+0]
	#DEBUG_VALUE: mk_writeHeader:d_height <- [DW_OP_plus_uconst 128] [$rsp+0]
	pushq	%rbp
	.cfi_def_cfa_offset 16
	pushq	%r15
	.cfi_def_cfa_offset 24
	pushq	%r14
	.cfi_def_cfa_offset 32
	pushq	%r13
	.cfi_def_cfa_offset 40
	pushq	%r12
	.cfi_def_cfa_offset 48
	pushq	%rbx
	.cfi_def_cfa_offset 56
	subq	$40, %rsp
	.cfi_def_cfa_offset 96
	.cfi_offset %rbx, -56
	.cfi_offset %r12, -48
	.cfi_offset %r13, -40
	.cfi_offset %r14, -32
	.cfi_offset %r15, -24
	.cfi_offset %rbp, -16
	movq	%rdi, %r14
	movq	%rsi, 32(%rsp)                  # 8-byte Spill
.Ltmp66:
	#DEBUG_VALUE: mk_writeHeader:writing_app <- [DW_OP_plus_uconst 32] [$rsp+0]
	.loc	0 0 1 is_stmt 0                 # x264_src/output/matroska_ebml.c:0:1
	movq	96(%rsp), %rax
	.loc	0 331 18 is_stmt 1              # x264_src/output/matroska_ebml.c:331:18
	movq	%rax, 64(%rdi)
	.loc	0 332 21                        # x264_src/output/matroska_ebml.c:332:21
	movq	%r9, 56(%rdi)
.Ltmp67:
	.loc	0 334 40                        # x264_src/output/matroska_ebml.c:334:40
	movq	16(%rdi), %rbx
.Ltmp68:
	#DEBUG_VALUE: mk_create_context:parent <- $rbx
	#DEBUG_VALUE: mk_create_context:w <- $r14
	#DEBUG_VALUE: mk_create_context:id <- 440786851
	.loc	0 65 12                         # x264_src/output/matroska_ebml.c:65:12
	movq	40(%rdi), %r12
	.loc	0 65 9 is_stmt 0                # x264_src/output/matroska_ebml.c:65:9
	testq	%r12, %r12
.Ltmp69:
	.loc	0 65 9                          # x264_src/output/matroska_ebml.c:65:9
	je	.LBB2_3
.Ltmp70:
# %bb.2:                                # %if.then.i
	#DEBUG_VALUE: mk_writeHeader:w <- $r14
	#DEBUG_VALUE: mk_writeHeader:writing_app <- [DW_OP_plus_uconst 32] [$rsp+0]
	#DEBUG_VALUE: mk_writeHeader:codec_id <- $rdx
	#DEBUG_VALUE: mk_writeHeader:codec_private <- $rcx
	#DEBUG_VALUE: mk_writeHeader:codec_private_size <- $r8d
	#DEBUG_VALUE: mk_writeHeader:default_frame_duration <- $r9
	#DEBUG_VALUE: mk_create_context:parent <- $rbx
	#DEBUG_VALUE: mk_create_context:w <- $r14
	#DEBUG_VALUE: mk_create_context:id <- 440786851
	#DEBUG_VALUE: mk_create_context:c <- $r12
	.loc	0 68 36 is_stmt 1               # x264_src/output/matroska_ebml.c:68:36
	movq	(%r12), %rax
	.loc	0 68 21 is_stmt 0               # x264_src/output/matroska_ebml.c:68:21
	movq	%rax, 40(%r14)
	jmp	.LBB2_4
.Ltmp71:
.LBB2_3:                                # %if.else.i
	#DEBUG_VALUE: mk_writeHeader:w <- $r14
	#DEBUG_VALUE: mk_writeHeader:writing_app <- [DW_OP_plus_uconst 32] [$rsp+0]
	#DEBUG_VALUE: mk_writeHeader:codec_id <- $rdx
	#DEBUG_VALUE: mk_writeHeader:codec_private <- $rcx
	#DEBUG_VALUE: mk_writeHeader:codec_private_size <- $r8d
	#DEBUG_VALUE: mk_writeHeader:default_frame_duration <- $r9
	#DEBUG_VALUE: mk_create_context:parent <- $rbx
	#DEBUG_VALUE: mk_create_context:w <- $r14
	#DEBUG_VALUE: mk_create_context:id <- 440786851
	.loc	0 72 13 is_stmt 1               # x264_src/output/matroska_ebml.c:72:13
	movl	$1, %edi
	movl	$56, %esi
	movq	%r9, %r15
.Ltmp72:
	#DEBUG_VALUE: mk_writeHeader:default_frame_duration <- $r15
	.loc	0 0 13 is_stmt 0                # x264_src/output/matroska_ebml.c:0:13
	movl	%r8d, %ebp
.Ltmp73:
	#DEBUG_VALUE: mk_writeHeader:codec_private_size <- $ebp
	movq	%rcx, %r12
.Ltmp74:
	#DEBUG_VALUE: mk_writeHeader:codec_private <- $r12
	movq	%rdx, %r13
.Ltmp75:
	#DEBUG_VALUE: mk_writeHeader:codec_id <- $r13
	.loc	0 72 13                         # x264_src/output/matroska_ebml.c:72:13
	callq	calloc@PLT
.Ltmp76:
	.loc	0 0 13                          # x264_src/output/matroska_ebml.c:0:13
	movq	%r13, %rdx
	movq	%r12, %rcx
	movl	%ebp, %r8d
	movq	%r15, %r9
	.loc	0 72 13                         # x264_src/output/matroska_ebml.c:72:13
	movq	%rax, %r12
.Ltmp77:
	#DEBUG_VALUE: mk_writeHeader:codec_private <- $rcx
	#DEBUG_VALUE: mk_create_context:c <- $r12
	.loc	0 73 14 is_stmt 1               # x264_src/output/matroska_ebml.c:73:14
	testq	%rax, %rax
.Ltmp78:
	.loc	0 73 13 is_stmt 0               # x264_src/output/matroska_ebml.c:73:13
	je	.LBB2_137
.Ltmp79:
.LBB2_4:                                # %if.end6.i
	#DEBUG_VALUE: mk_writeHeader:w <- $r14
	#DEBUG_VALUE: mk_writeHeader:writing_app <- [DW_OP_plus_uconst 32] [$rsp+0]
	#DEBUG_VALUE: mk_writeHeader:codec_id <- [DW_OP_LLVM_entry_value 1] $rdx
	#DEBUG_VALUE: mk_writeHeader:codec_private <- [DW_OP_LLVM_entry_value 1] $rcx
	#DEBUG_VALUE: mk_writeHeader:codec_private_size <- [DW_OP_LLVM_entry_value 1] $r8d
	#DEBUG_VALUE: mk_writeHeader:default_frame_duration <- [DW_OP_LLVM_entry_value 1] $r9
	#DEBUG_VALUE: mk_create_context:parent <- $rbx
	#DEBUG_VALUE: mk_create_context:w <- $r14
	#DEBUG_VALUE: mk_create_context:id <- 440786851
	#DEBUG_VALUE: mk_create_context:c <- $r12
	#DEBUG_VALUE: mk_create_context:c <- $r12
	.loc	0 78 15 is_stmt 1               # x264_src/output/matroska_ebml.c:78:15
	movq	%rbx, 16(%r12)
	.loc	0 79 14                         # x264_src/output/matroska_ebml.c:79:14
	movq	%r14, 24(%r12)
	.loc	0 80 11                         # x264_src/output/matroska_ebml.c:80:11
	movl	$440786851, 32(%r12)            # imm = 0x1A45DFA3
.Ltmp80:
	.loc	0 82 19                         # x264_src/output/matroska_ebml.c:82:19
	movq	48(%r14), %rax
	.loc	0 82 9 is_stmt 0                # x264_src/output/matroska_ebml.c:82:9
	testq	%rax, %rax
	movq	%rcx, 16(%rsp)                  # 8-byte Spill
	movq	%rdx, 24(%rsp)                  # 8-byte Spill
.Ltmp81:
	.loc	0 82 9                          # x264_src/output/matroska_ebml.c:82:9
	je	.LBB2_6
.Ltmp82:
# %bb.5:                                # %if.then11.i
	#DEBUG_VALUE: mk_writeHeader:w <- $r14
	#DEBUG_VALUE: mk_writeHeader:writing_app <- [DW_OP_plus_uconst 32] [$rsp+0]
	#DEBUG_VALUE: mk_writeHeader:codec_id <- [DW_OP_LLVM_entry_value 1] $rdx
	#DEBUG_VALUE: mk_writeHeader:codec_private <- [DW_OP_LLVM_entry_value 1] $rcx
	#DEBUG_VALUE: mk_writeHeader:codec_private_size <- [DW_OP_LLVM_entry_value 1] $r8d
	#DEBUG_VALUE: mk_writeHeader:default_frame_duration <- [DW_OP_LLVM_entry_value 1] $r9
	#DEBUG_VALUE: mk_create_context:parent <- $rbx
	#DEBUG_VALUE: mk_create_context:w <- $r14
	#DEBUG_VALUE: mk_create_context:id <- 440786851
	#DEBUG_VALUE: mk_create_context:c <- $r12
	.loc	0 83 33 is_stmt 1               # x264_src/output/matroska_ebml.c:83:33
	movq	%r12, 8(%rax)
.Ltmp83:
	.loc	0 84 18                         # x264_src/output/matroska_ebml.c:84:18
	movq	24(%r12), %rcx
	.loc	0 84 25 is_stmt 0               # x264_src/output/matroska_ebml.c:84:25
	movq	48(%rcx), %rax
	jmp	.LBB2_7
.Ltmp84:
.LBB2_6:
	#DEBUG_VALUE: mk_writeHeader:w <- $r14
	#DEBUG_VALUE: mk_writeHeader:writing_app <- [DW_OP_plus_uconst 32] [$rsp+0]
	#DEBUG_VALUE: mk_writeHeader:codec_id <- [DW_OP_LLVM_entry_value 1] $rdx
	#DEBUG_VALUE: mk_writeHeader:codec_private <- [DW_OP_LLVM_entry_value 1] $rcx
	#DEBUG_VALUE: mk_writeHeader:codec_private_size <- [DW_OP_LLVM_entry_value 1] $r8d
	#DEBUG_VALUE: mk_writeHeader:default_frame_duration <- [DW_OP_LLVM_entry_value 1] $r9
	#DEBUG_VALUE: mk_create_context:parent <- $rbx
	#DEBUG_VALUE: mk_create_context:w <- $r14
	#DEBUG_VALUE: mk_create_context:id <- 440786851
	#DEBUG_VALUE: mk_create_context:c <- $r12
	.loc	0 0 25                          # x264_src/output/matroska_ebml.c:0:25
	xorl	%eax, %eax
	movq	%r14, %rcx
.Ltmp85:
.LBB2_7:                                # %do.body
	#DEBUG_VALUE: mk_writeHeader:w <- $r14
	#DEBUG_VALUE: mk_writeHeader:writing_app <- [DW_OP_plus_uconst 32] [$rsp+0]
	#DEBUG_VALUE: mk_writeHeader:codec_id <- [DW_OP_LLVM_entry_value 1] $rdx
	#DEBUG_VALUE: mk_writeHeader:codec_private <- [DW_OP_LLVM_entry_value 1] $rcx
	#DEBUG_VALUE: mk_writeHeader:codec_private_size <- [DW_OP_LLVM_entry_value 1] $r8d
	#DEBUG_VALUE: mk_writeHeader:default_frame_duration <- [DW_OP_LLVM_entry_value 1] $r9
	#DEBUG_VALUE: mk_create_context:parent <- $rbx
	#DEBUG_VALUE: mk_create_context:w <- $r14
	#DEBUG_VALUE: mk_create_context:id <- 440786851
	#DEBUG_VALUE: mk_create_context:c <- $r12
	movl	%r8d, 4(%rsp)                   # 4-byte Spill
	.loc	0 84 25                         # x264_src/output/matroska_ebml.c:84:25
	leaq	48(%rcx), %rdx
	.loc	0 84 13                         # x264_src/output/matroska_ebml.c:84:13
	movq	%rax, (%r12)
	.loc	0 85 13 is_stmt 1               # x264_src/output/matroska_ebml.c:85:13
	movq	%rdx, 8(%r12)
	.loc	0 86 23                         # x264_src/output/matroska_ebml.c:86:23
	movq	%r12, 48(%rcx)
.Ltmp86:
	#DEBUG_VALUE: mk_append_context_data:c <- $r12
	#DEBUG_VALUE: mk_append_context_data:data <- undef
	#DEBUG_VALUE: mk_append_context_data:data <- undef
	.loc	0 93 22                         # x264_src/output/matroska_ebml.c:93:22
	movl	48(%r12), %r13d
.Ltmp87:
	#DEBUG_VALUE: mk_writeHeader:c <- $r12
	#DEBUG_VALUE: mk_write_uint:c <- $r12
	#DEBUG_VALUE: mk_write_uint:id <- 17030
	#DEBUG_VALUE: mk_write_uint:ui <- 1
	#DEBUG_VALUE: mk_write_uint:c_ui <- [DW_OP_LLVM_fragment 0 8] 0
	#DEBUG_VALUE: mk_write_uint:c_ui <- [DW_OP_LLVM_fragment 8 8] 0
	#DEBUG_VALUE: mk_write_uint:c_ui <- [DW_OP_LLVM_fragment 16 8] 0
	#DEBUG_VALUE: mk_write_uint:c_ui <- [DW_OP_LLVM_fragment 24 8] 0
	#DEBUG_VALUE: mk_write_uint:c_ui <- [DW_OP_LLVM_fragment 32 8] 0
	#DEBUG_VALUE: mk_write_uint:c_ui <- [DW_OP_LLVM_fragment 40 8] 0
	#DEBUG_VALUE: mk_write_uint:c_ui <- [DW_OP_LLVM_fragment 48 8] 0
	#DEBUG_VALUE: mk_write_uint:c_ui <- [DW_OP_LLVM_fragment 56 8] 1
	#DEBUG_VALUE: mk_write_uint:i <- 0
	#DEBUG_VALUE: mk_write_id:c <- $r12
	#DEBUG_VALUE: mk_write_id:id <- 17030
	#DEBUG_VALUE: mk_write_id:c_id <- [DW_OP_LLVM_fragment 0 8] 0
	#DEBUG_VALUE: mk_write_id:c_id <- [DW_OP_LLVM_fragment 8 8] 0
	#DEBUG_VALUE: mk_write_id:c_id <- [DW_OP_LLVM_fragment 16 8] 66
	#DEBUG_VALUE: mk_write_id:c_id <- [DW_OP_LLVM_fragment 24 8] -122
	.loc	0 95 17                         # x264_src/output/matroska_ebml.c:95:17
	movl	52(%r12), %eax
.Ltmp88:
	#DEBUG_VALUE: mk_append_context_data:size <- 2
	.loc	0 93 28                         # x264_src/output/matroska_ebml.c:93:28
	leal	2(%r13), %r15d
.Ltmp89:
	#DEBUG_VALUE: mk_append_context_data:ns <- $r15d
	.loc	0 95 12                         # x264_src/output/matroska_ebml.c:95:12
	cmpl	%eax, %r15d
.Ltmp90:
	.loc	0 95 9 is_stmt 0                # x264_src/output/matroska_ebml.c:95:9
	jbe	.LBB2_12
.Ltmp91:
# %bb.8:                                # %if.then.i68.i
	#DEBUG_VALUE: mk_writeHeader:w <- $r14
	#DEBUG_VALUE: mk_writeHeader:writing_app <- [DW_OP_plus_uconst 32] [$rsp+0]
	#DEBUG_VALUE: mk_writeHeader:codec_id <- [DW_OP_LLVM_entry_value 1] $rdx
	#DEBUG_VALUE: mk_writeHeader:codec_private <- [DW_OP_LLVM_entry_value 1] $rcx
	#DEBUG_VALUE: mk_writeHeader:codec_private_size <- [DW_OP_LLVM_entry_value 1] $r8d
	#DEBUG_VALUE: mk_writeHeader:default_frame_duration <- [DW_OP_LLVM_entry_value 1] $r9
	#DEBUG_VALUE: mk_append_context_data:c <- $r12
	#DEBUG_VALUE: mk_writeHeader:c <- $r12
	#DEBUG_VALUE: mk_write_uint:c <- $r12
	#DEBUG_VALUE: mk_write_uint:id <- 17030
	#DEBUG_VALUE: mk_write_uint:ui <- 1
	#DEBUG_VALUE: mk_write_uint:c_ui <- [DW_OP_LLVM_fragment 0 8] 0
	#DEBUG_VALUE: mk_write_uint:c_ui <- [DW_OP_LLVM_fragment 8 8] 0
	#DEBUG_VALUE: mk_write_uint:c_ui <- [DW_OP_LLVM_fragment 16 8] 0
	#DEBUG_VALUE: mk_write_uint:c_ui <- [DW_OP_LLVM_fragment 24 8] 0
	#DEBUG_VALUE: mk_write_uint:c_ui <- [DW_OP_LLVM_fragment 32 8] 0
	#DEBUG_VALUE: mk_write_uint:c_ui <- [DW_OP_LLVM_fragment 40 8] 0
	#DEBUG_VALUE: mk_write_uint:c_ui <- [DW_OP_LLVM_fragment 48 8] 0
	#DEBUG_VALUE: mk_write_uint:c_ui <- [DW_OP_LLVM_fragment 56 8] 1
	#DEBUG_VALUE: mk_write_uint:i <- 0
	#DEBUG_VALUE: mk_write_id:c <- $r12
	#DEBUG_VALUE: mk_write_id:id <- 17030
	#DEBUG_VALUE: mk_write_id:c_id <- [DW_OP_LLVM_fragment 0 8] 0
	#DEBUG_VALUE: mk_write_id:c_id <- [DW_OP_LLVM_fragment 8 8] 0
	#DEBUG_VALUE: mk_write_id:c_id <- [DW_OP_LLVM_fragment 16 8] 66
	#DEBUG_VALUE: mk_write_id:c_id <- [DW_OP_LLVM_fragment 24 8] -122
	#DEBUG_VALUE: mk_append_context_data:size <- 2
	#DEBUG_VALUE: mk_append_context_data:ns <- $r15d
	.loc	0 0 9                           # x264_src/output/matroska_ebml.c:0:9
	movq	%r9, %rbp
	leal	(%rax,%rax), %ecx
.Ltmp92:
	.loc	0 98 23 is_stmt 1               # x264_src/output/matroska_ebml.c:98:23
	testl	%eax, %eax
	movl	$16, %eax
	cmovnel	%ecx, %eax
.Ltmp93:
	#DEBUG_VALUE: dn <- $eax
	.p2align	4, 0x90
.LBB2_9:                                # %while.cond.i72.i
                                        # =>This Inner Loop Header: Depth=1
	#DEBUG_VALUE: mk_writeHeader:w <- $r14
	#DEBUG_VALUE: mk_writeHeader:writing_app <- [DW_OP_plus_uconst 32] [$rsp+0]
	#DEBUG_VALUE: mk_writeHeader:codec_id <- [DW_OP_LLVM_entry_value 1] $rdx
	#DEBUG_VALUE: mk_writeHeader:codec_private <- [DW_OP_LLVM_entry_value 1] $rcx
	#DEBUG_VALUE: mk_writeHeader:codec_private_size <- [DW_OP_LLVM_entry_value 1] $r8d
	#DEBUG_VALUE: mk_writeHeader:default_frame_duration <- [DW_OP_LLVM_entry_value 1] $r9
	#DEBUG_VALUE: mk_append_context_data:c <- $r12
	#DEBUG_VALUE: mk_writeHeader:c <- $r12
	#DEBUG_VALUE: mk_write_uint:c <- $r12
	#DEBUG_VALUE: mk_write_uint:id <- 17030
	#DEBUG_VALUE: mk_write_uint:ui <- 1
	#DEBUG_VALUE: mk_write_uint:c_ui <- [DW_OP_LLVM_fragment 0 8] 0
	#DEBUG_VALUE: mk_write_uint:c_ui <- [DW_OP_LLVM_fragment 8 8] 0
	#DEBUG_VALUE: mk_write_uint:c_ui <- [DW_OP_LLVM_fragment 16 8] 0
	#DEBUG_VALUE: mk_write_uint:c_ui <- [DW_OP_LLVM_fragment 24 8] 0
	#DEBUG_VALUE: mk_write_uint:c_ui <- [DW_OP_LLVM_fragment 32 8] 0
	#DEBUG_VALUE: mk_write_uint:c_ui <- [DW_OP_LLVM_fragment 40 8] 0
	#DEBUG_VALUE: mk_write_uint:c_ui <- [DW_OP_LLVM_fragment 48 8] 0
	#DEBUG_VALUE: mk_write_uint:c_ui <- [DW_OP_LLVM_fragment 56 8] 1
	#DEBUG_VALUE: mk_write_uint:i <- 0
	#DEBUG_VALUE: mk_write_id:c <- $r12
	#DEBUG_VALUE: mk_write_id:id <- 17030
	#DEBUG_VALUE: mk_write_id:c_id <- [DW_OP_LLVM_fragment 0 8] 0
	#DEBUG_VALUE: mk_write_id:c_id <- [DW_OP_LLVM_fragment 8 8] 0
	#DEBUG_VALUE: mk_write_id:c_id <- [DW_OP_LLVM_fragment 16 8] 66
	#DEBUG_VALUE: mk_write_id:c_id <- [DW_OP_LLVM_fragment 24 8] -122
	#DEBUG_VALUE: mk_append_context_data:size <- 2
	#DEBUG_VALUE: mk_append_context_data:ns <- $r15d
	#DEBUG_VALUE: dn <- $eax
	.loc	0 0 0 is_stmt 0                 # x264_src/output/matroska_ebml.c:0:0
	movl	%eax, %ebx
.Ltmp94:
	#DEBUG_VALUE: dn <- $ebx
	#DEBUG_VALUE: dn <- $ebx
	.loc	0 100 16 is_stmt 1              # x264_src/output/matroska_ebml.c:100:16
	leal	(%rbx,%rbx), %eax
.Ltmp95:
	#DEBUG_VALUE: dn <- $eax
	.loc	0 99 19                         # x264_src/output/matroska_ebml.c:99:19
	cmpl	%ebx, %r15d
	.loc	0 99 9 is_stmt 0                # x264_src/output/matroska_ebml.c:99:9
	ja	.LBB2_9
.Ltmp96:
# %bb.10:                               # %while.end.i76.i
	#DEBUG_VALUE: mk_writeHeader:w <- $r14
	#DEBUG_VALUE: mk_writeHeader:writing_app <- [DW_OP_plus_uconst 32] [$rsp+0]
	#DEBUG_VALUE: mk_writeHeader:codec_id <- [DW_OP_LLVM_entry_value 1] $rdx
	#DEBUG_VALUE: mk_writeHeader:codec_private <- [DW_OP_LLVM_entry_value 1] $rcx
	#DEBUG_VALUE: mk_writeHeader:codec_private_size <- [DW_OP_LLVM_entry_value 1] $r8d
	#DEBUG_VALUE: mk_writeHeader:default_frame_duration <- [DW_OP_LLVM_entry_value 1] $r9
	#DEBUG_VALUE: mk_append_context_data:c <- $r12
	#DEBUG_VALUE: mk_writeHeader:c <- $r12
	#DEBUG_VALUE: mk_write_uint:c <- $r12
	#DEBUG_VALUE: mk_write_uint:id <- 17030
	#DEBUG_VALUE: mk_write_uint:ui <- 1
	#DEBUG_VALUE: mk_write_uint:c_ui <- [DW_OP_LLVM_fragment 0 8] 0
	#DEBUG_VALUE: mk_write_uint:c_ui <- [DW_OP_LLVM_fragment 8 8] 0
	#DEBUG_VALUE: mk_write_uint:c_ui <- [DW_OP_LLVM_fragment 16 8] 0
	#DEBUG_VALUE: mk_write_uint:c_ui <- [DW_OP_LLVM_fragment 24 8] 0
	#DEBUG_VALUE: mk_write_uint:c_ui <- [DW_OP_LLVM_fragment 32 8] 0
	#DEBUG_VALUE: mk_write_uint:c_ui <- [DW_OP_LLVM_fragment 40 8] 0
	#DEBUG_VALUE: mk_write_uint:c_ui <- [DW_OP_LLVM_fragment 48 8] 0
	#DEBUG_VALUE: mk_write_uint:c_ui <- [DW_OP_LLVM_fragment 56 8] 1
	#DEBUG_VALUE: mk_write_uint:i <- 0
	#DEBUG_VALUE: mk_write_id:c <- $r12
	#DEBUG_VALUE: mk_write_id:id <- 17030
	#DEBUG_VALUE: mk_write_id:c_id <- [DW_OP_LLVM_fragment 0 8] 0
	#DEBUG_VALUE: mk_write_id:c_id <- [DW_OP_LLVM_fragment 8 8] 0
	#DEBUG_VALUE: mk_write_id:c_id <- [DW_OP_LLVM_fragment 16 8] 66
	#DEBUG_VALUE: mk_write_id:c_id <- [DW_OP_LLVM_fragment 24 8] -122
	#DEBUG_VALUE: mk_append_context_data:size <- 2
	#DEBUG_VALUE: mk_append_context_data:ns <- $r15d
	#DEBUG_VALUE: dn <- $eax
	.loc	0 102 26 is_stmt 1              # x264_src/output/matroska_ebml.c:102:26
	movq	40(%r12), %rdi
	.loc	0 102 32 is_stmt 0              # x264_src/output/matroska_ebml.c:102:32
	movl	%ebx, %esi
	.loc	0 102 14                        # x264_src/output/matroska_ebml.c:102:14
	callq	realloc@PLT
.Ltmp97:
	#DEBUG_VALUE: dp <- $rax
	.loc	0 103 14 is_stmt 1              # x264_src/output/matroska_ebml.c:103:14
	testq	%rax, %rax
.Ltmp98:
	.loc	0 103 13 is_stmt 0              # x264_src/output/matroska_ebml.c:103:13
	je	.LBB2_137
.Ltmp99:
# %bb.11:                               # %if.end.i81.i
	#DEBUG_VALUE: mk_writeHeader:w <- $r14
	#DEBUG_VALUE: mk_writeHeader:writing_app <- [DW_OP_plus_uconst 32] [$rsp+0]
	#DEBUG_VALUE: mk_writeHeader:codec_id <- [DW_OP_LLVM_entry_value 1] $rdx
	#DEBUG_VALUE: mk_writeHeader:codec_private <- [DW_OP_LLVM_entry_value 1] $rcx
	#DEBUG_VALUE: mk_writeHeader:codec_private_size <- [DW_OP_LLVM_entry_value 1] $r8d
	#DEBUG_VALUE: mk_writeHeader:default_frame_duration <- [DW_OP_LLVM_entry_value 1] $r9
	#DEBUG_VALUE: mk_append_context_data:c <- $r12
	#DEBUG_VALUE: mk_writeHeader:c <- $r12
	#DEBUG_VALUE: mk_write_uint:c <- $r12
	#DEBUG_VALUE: mk_write_uint:id <- 17030
	#DEBUG_VALUE: mk_write_uint:ui <- 1
	#DEBUG_VALUE: mk_write_uint:c_ui <- [DW_OP_LLVM_fragment 0 8] 0
	#DEBUG_VALUE: mk_write_uint:c_ui <- [DW_OP_LLVM_fragment 8 8] 0
	#DEBUG_VALUE: mk_write_uint:c_ui <- [DW_OP_LLVM_fragment 16 8] 0
	#DEBUG_VALUE: mk_write_uint:c_ui <- [DW_OP_LLVM_fragment 24 8] 0
	#DEBUG_VALUE: mk_write_uint:c_ui <- [DW_OP_LLVM_fragment 32 8] 0
	#DEBUG_VALUE: mk_write_uint:c_ui <- [DW_OP_LLVM_fragment 40 8] 0
	#DEBUG_VALUE: mk_write_uint:c_ui <- [DW_OP_LLVM_fragment 48 8] 0
	#DEBUG_VALUE: mk_write_uint:c_ui <- [DW_OP_LLVM_fragment 56 8] 1
	#DEBUG_VALUE: mk_write_uint:i <- 0
	#DEBUG_VALUE: mk_write_id:c <- $r12
	#DEBUG_VALUE: mk_write_id:id <- 17030
	#DEBUG_VALUE: mk_write_id:c_id <- [DW_OP_LLVM_fragment 0 8] 0
	#DEBUG_VALUE: mk_write_id:c_id <- [DW_OP_LLVM_fragment 8 8] 0
	#DEBUG_VALUE: mk_write_id:c_id <- [DW_OP_LLVM_fragment 16 8] 66
	#DEBUG_VALUE: mk_write_id:c_id <- [DW_OP_LLVM_fragment 24 8] -122
	#DEBUG_VALUE: mk_append_context_data:size <- 2
	#DEBUG_VALUE: mk_append_context_data:ns <- $r15d
	#DEBUG_VALUE: dp <- $rax
	.loc	0 0 13                          # x264_src/output/matroska_ebml.c:0:13
	movq	%rbp, 8(%rsp)                   # 8-byte Spill
	.loc	0 106 17 is_stmt 1              # x264_src/output/matroska_ebml.c:106:17
	movq	%rax, 40(%r12)
	.loc	0 107 18                        # x264_src/output/matroska_ebml.c:107:18
	movl	%ebx, 52(%r12)
.Ltmp100:
	.loc	0 110 33                        # x264_src/output/matroska_ebml.c:110:33
	movl	48(%r12), %ecx
	jmp	.LBB2_13
.Ltmp101:
.LBB2_12:                               # %entry.if.end11_crit_edge.i61.i
	#DEBUG_VALUE: mk_writeHeader:w <- $r14
	#DEBUG_VALUE: mk_writeHeader:writing_app <- [DW_OP_plus_uconst 32] [$rsp+0]
	#DEBUG_VALUE: mk_writeHeader:codec_id <- [DW_OP_LLVM_entry_value 1] $rdx
	#DEBUG_VALUE: mk_writeHeader:codec_private <- [DW_OP_LLVM_entry_value 1] $rcx
	#DEBUG_VALUE: mk_writeHeader:codec_private_size <- [DW_OP_LLVM_entry_value 1] $r8d
	#DEBUG_VALUE: mk_writeHeader:default_frame_duration <- [DW_OP_LLVM_entry_value 1] $r9
	#DEBUG_VALUE: mk_append_context_data:c <- $r12
	#DEBUG_VALUE: mk_writeHeader:c <- $r12
	#DEBUG_VALUE: mk_write_uint:c <- $r12
	#DEBUG_VALUE: mk_write_uint:id <- 17030
	#DEBUG_VALUE: mk_write_uint:ui <- 1
	#DEBUG_VALUE: mk_write_uint:c_ui <- [DW_OP_LLVM_fragment 0 8] 0
	#DEBUG_VALUE: mk_write_uint:c_ui <- [DW_OP_LLVM_fragment 8 8] 0
	#DEBUG_VALUE: mk_write_uint:c_ui <- [DW_OP_LLVM_fragment 16 8] 0
	#DEBUG_VALUE: mk_write_uint:c_ui <- [DW_OP_LLVM_fragment 24 8] 0
	#DEBUG_VALUE: mk_write_uint:c_ui <- [DW_OP_LLVM_fragment 32 8] 0
	#DEBUG_VALUE: mk_write_uint:c_ui <- [DW_OP_LLVM_fragment 40 8] 0
	#DEBUG_VALUE: mk_write_uint:c_ui <- [DW_OP_LLVM_fragment 48 8] 0
	#DEBUG_VALUE: mk_write_uint:c_ui <- [DW_OP_LLVM_fragment 56 8] 1
	#DEBUG_VALUE: mk_write_uint:i <- 0
	#DEBUG_VALUE: mk_write_id:c <- $r12
	#DEBUG_VALUE: mk_write_id:id <- 17030
	#DEBUG_VALUE: mk_write_id:c_id <- [DW_OP_LLVM_fragment 0 8] 0
	#DEBUG_VALUE: mk_write_id:c_id <- [DW_OP_LLVM_fragment 8 8] 0
	#DEBUG_VALUE: mk_write_id:c_id <- [DW_OP_LLVM_fragment 16 8] 66
	#DEBUG_VALUE: mk_write_id:c_id <- [DW_OP_LLVM_fragment 24 8] -122
	#DEBUG_VALUE: mk_append_context_data:size <- 2
	#DEBUG_VALUE: mk_append_context_data:ns <- $r15d
	.loc	0 0 33 is_stmt 0                # x264_src/output/matroska_ebml.c:0:33
	movq	%r9, 8(%rsp)                    # 8-byte Spill
	.loc	0 110 23                        # x264_src/output/matroska_ebml.c:110:23
	movq	40(%r12), %rax
	movl	%r13d, %ecx
.Ltmp102:
.LBB2_13:                               # %land.rhs.preheader.i
	#DEBUG_VALUE: mk_writeHeader:w <- $r14
	#DEBUG_VALUE: mk_writeHeader:writing_app <- [DW_OP_plus_uconst 32] [$rsp+0]
	#DEBUG_VALUE: mk_writeHeader:codec_id <- [DW_OP_LLVM_entry_value 1] $rdx
	#DEBUG_VALUE: mk_writeHeader:codec_private <- [DW_OP_LLVM_entry_value 1] $rcx
	#DEBUG_VALUE: mk_writeHeader:codec_private_size <- [DW_OP_LLVM_entry_value 1] $r8d
	#DEBUG_VALUE: mk_writeHeader:default_frame_duration <- [DW_OP_LLVM_entry_value 1] $r9
	#DEBUG_VALUE: mk_append_context_data:c <- $r12
	#DEBUG_VALUE: mk_writeHeader:c <- $r12
	#DEBUG_VALUE: mk_write_uint:c <- $r12
	#DEBUG_VALUE: mk_write_uint:id <- 17030
	#DEBUG_VALUE: mk_write_uint:ui <- 1
	#DEBUG_VALUE: mk_write_uint:c_ui <- [DW_OP_LLVM_fragment 0 8] 0
	#DEBUG_VALUE: mk_write_uint:c_ui <- [DW_OP_LLVM_fragment 8 8] 0
	#DEBUG_VALUE: mk_write_uint:c_ui <- [DW_OP_LLVM_fragment 16 8] 0
	#DEBUG_VALUE: mk_write_uint:c_ui <- [DW_OP_LLVM_fragment 24 8] 0
	#DEBUG_VALUE: mk_write_uint:c_ui <- [DW_OP_LLVM_fragment 32 8] 0
	#DEBUG_VALUE: mk_write_uint:c_ui <- [DW_OP_LLVM_fragment 40 8] 0
	#DEBUG_VALUE: mk_write_uint:c_ui <- [DW_OP_LLVM_fragment 48 8] 0
	#DEBUG_VALUE: mk_write_uint:c_ui <- [DW_OP_LLVM_fragment 56 8] 1
	#DEBUG_VALUE: mk_write_uint:i <- 0
	#DEBUG_VALUE: mk_write_id:c <- $r12
	#DEBUG_VALUE: mk_write_id:id <- 17030
	#DEBUG_VALUE: mk_write_id:c_id <- [DW_OP_LLVM_fragment 0 8] 0
	#DEBUG_VALUE: mk_write_id:c_id <- [DW_OP_LLVM_fragment 8 8] 0
	#DEBUG_VALUE: mk_write_id:c_id <- [DW_OP_LLVM_fragment 16 8] 66
	#DEBUG_VALUE: mk_write_id:c_id <- [DW_OP_LLVM_fragment 24 8] -122
	#DEBUG_VALUE: mk_append_context_data:size <- 2
	#DEBUG_VALUE: mk_append_context_data:ns <- $r15d
	.loc	0 110 28                        # x264_src/output/matroska_ebml.c:110:28
	movl	%ecx, %ecx
	.loc	0 110 5                         # x264_src/output/matroska_ebml.c:110:5
	movw	$-31166, (%rax,%rcx)            # imm = 0x8642
	.loc	0 112 14 is_stmt 1              # x264_src/output/matroska_ebml.c:112:14
	movl	%r15d, 48(%r12)
.Ltmp103:
	#DEBUG_VALUE: mk_write_uint:i <- 6
	#DEBUG_VALUE: mk_write_size:c <- $r12
	#DEBUG_VALUE: mk_write_size:size <- 1
	#DEBUG_VALUE: mk_write_size:c_size <- [DW_OP_LLVM_fragment 0 8] 8
	#DEBUG_VALUE: mk_write_size:c_size <- [DW_OP_LLVM_fragment 8 8] 0
	#DEBUG_VALUE: mk_write_size:c_size <- [DW_OP_LLVM_fragment 16 8] 0
	#DEBUG_VALUE: mk_write_size:c_size <- [DW_OP_LLVM_fragment 24 8] 0
	#DEBUG_VALUE: mk_write_size:c_size <- [DW_OP_LLVM_fragment 32 8] -127
	#DEBUG_VALUE: mk_append_context_data:c <- $r12
	#DEBUG_VALUE: mk_append_context_data:data <- undef
	#DEBUG_VALUE: mk_append_context_data:size <- 1
	.loc	0 93 28                         # x264_src/output/matroska_ebml.c:93:28
	leal	3(%r13), %ebp
.Ltmp104:
	#DEBUG_VALUE: mk_append_context_data:ns <- $ebp
	.loc	0 95 17                         # x264_src/output/matroska_ebml.c:95:17
	movl	52(%r12), %eax
	.loc	0 95 12 is_stmt 0               # x264_src/output/matroska_ebml.c:95:12
	cmpl	%eax, %ebp
.Ltmp105:
	.loc	0 95 9                          # x264_src/output/matroska_ebml.c:95:9
	jbe	.LBB2_18
.Ltmp106:
# %bb.14:                               # %if.then.i.i515
	#DEBUG_VALUE: mk_writeHeader:w <- $r14
	#DEBUG_VALUE: mk_writeHeader:writing_app <- [DW_OP_plus_uconst 32] [$rsp+0]
	#DEBUG_VALUE: mk_writeHeader:codec_id <- [DW_OP_LLVM_entry_value 1] $rdx
	#DEBUG_VALUE: mk_writeHeader:codec_private <- [DW_OP_LLVM_entry_value 1] $rcx
	#DEBUG_VALUE: mk_writeHeader:codec_private_size <- [DW_OP_LLVM_entry_value 1] $r8d
	#DEBUG_VALUE: mk_writeHeader:default_frame_duration <- [DW_OP_LLVM_entry_value 1] $r9
	#DEBUG_VALUE: mk_writeHeader:c <- $r12
	#DEBUG_VALUE: mk_write_uint:c <- $r12
	#DEBUG_VALUE: mk_write_uint:id <- 17030
	#DEBUG_VALUE: mk_write_uint:ui <- 1
	#DEBUG_VALUE: mk_write_uint:c_ui <- [DW_OP_LLVM_fragment 0 8] 0
	#DEBUG_VALUE: mk_write_uint:c_ui <- [DW_OP_LLVM_fragment 8 8] 0
	#DEBUG_VALUE: mk_write_uint:c_ui <- [DW_OP_LLVM_fragment 16 8] 0
	#DEBUG_VALUE: mk_write_uint:c_ui <- [DW_OP_LLVM_fragment 24 8] 0
	#DEBUG_VALUE: mk_write_uint:c_ui <- [DW_OP_LLVM_fragment 32 8] 0
	#DEBUG_VALUE: mk_write_uint:c_ui <- [DW_OP_LLVM_fragment 40 8] 0
	#DEBUG_VALUE: mk_write_uint:c_ui <- [DW_OP_LLVM_fragment 48 8] 0
	#DEBUG_VALUE: mk_write_uint:c_ui <- [DW_OP_LLVM_fragment 56 8] 1
	#DEBUG_VALUE: mk_write_uint:i <- 6
	#DEBUG_VALUE: mk_write_size:c <- $r12
	#DEBUG_VALUE: mk_write_size:size <- 1
	#DEBUG_VALUE: mk_write_size:c_size <- [DW_OP_LLVM_fragment 0 8] 8
	#DEBUG_VALUE: mk_write_size:c_size <- [DW_OP_LLVM_fragment 8 8] 0
	#DEBUG_VALUE: mk_write_size:c_size <- [DW_OP_LLVM_fragment 16 8] 0
	#DEBUG_VALUE: mk_write_size:c_size <- [DW_OP_LLVM_fragment 24 8] 0
	#DEBUG_VALUE: mk_write_size:c_size <- [DW_OP_LLVM_fragment 32 8] -127
	#DEBUG_VALUE: mk_append_context_data:c <- $r12
	#DEBUG_VALUE: mk_append_context_data:size <- 1
	#DEBUG_VALUE: mk_append_context_data:ns <- $ebp
	.loc	0 0 9                           # x264_src/output/matroska_ebml.c:0:9
	leal	(%rax,%rax), %ecx
.Ltmp107:
	.loc	0 98 23 is_stmt 1               # x264_src/output/matroska_ebml.c:98:23
	testl	%eax, %eax
	movl	$16, %eax
	cmovnel	%ecx, %eax
.Ltmp108:
	#DEBUG_VALUE: dn <- $eax
	.p2align	4, 0x90
.LBB2_15:                               # %while.cond.i.i519
                                        # =>This Inner Loop Header: Depth=1
	#DEBUG_VALUE: mk_writeHeader:w <- $r14
	#DEBUG_VALUE: mk_writeHeader:writing_app <- [DW_OP_plus_uconst 32] [$rsp+0]
	#DEBUG_VALUE: mk_writeHeader:codec_id <- [DW_OP_LLVM_entry_value 1] $rdx
	#DEBUG_VALUE: mk_writeHeader:codec_private <- [DW_OP_LLVM_entry_value 1] $rcx
	#DEBUG_VALUE: mk_writeHeader:codec_private_size <- [DW_OP_LLVM_entry_value 1] $r8d
	#DEBUG_VALUE: mk_writeHeader:default_frame_duration <- [DW_OP_LLVM_entry_value 1] $r9
	#DEBUG_VALUE: mk_writeHeader:c <- $r12
	#DEBUG_VALUE: mk_write_uint:c <- $r12
	#DEBUG_VALUE: mk_write_uint:id <- 17030
	#DEBUG_VALUE: mk_write_uint:ui <- 1
	#DEBUG_VALUE: mk_write_uint:c_ui <- [DW_OP_LLVM_fragment 0 8] 0
	#DEBUG_VALUE: mk_write_uint:c_ui <- [DW_OP_LLVM_fragment 8 8] 0
	#DEBUG_VALUE: mk_write_uint:c_ui <- [DW_OP_LLVM_fragment 16 8] 0
	#DEBUG_VALUE: mk_write_uint:c_ui <- [DW_OP_LLVM_fragment 24 8] 0
	#DEBUG_VALUE: mk_write_uint:c_ui <- [DW_OP_LLVM_fragment 32 8] 0
	#DEBUG_VALUE: mk_write_uint:c_ui <- [DW_OP_LLVM_fragment 40 8] 0
	#DEBUG_VALUE: mk_write_uint:c_ui <- [DW_OP_LLVM_fragment 48 8] 0
	#DEBUG_VALUE: mk_write_uint:c_ui <- [DW_OP_LLVM_fragment 56 8] 1
	#DEBUG_VALUE: mk_write_uint:i <- 6
	#DEBUG_VALUE: mk_write_size:c <- $r12
	#DEBUG_VALUE: mk_write_size:size <- 1
	#DEBUG_VALUE: mk_write_size:c_size <- [DW_OP_LLVM_fragment 0 8] 8
	#DEBUG_VALUE: mk_write_size:c_size <- [DW_OP_LLVM_fragment 8 8] 0
	#DEBUG_VALUE: mk_write_size:c_size <- [DW_OP_LLVM_fragment 16 8] 0
	#DEBUG_VALUE: mk_write_size:c_size <- [DW_OP_LLVM_fragment 24 8] 0
	#DEBUG_VALUE: mk_write_size:c_size <- [DW_OP_LLVM_fragment 32 8] -127
	#DEBUG_VALUE: mk_append_context_data:c <- $r12
	#DEBUG_VALUE: mk_append_context_data:size <- 1
	#DEBUG_VALUE: mk_append_context_data:ns <- $ebp
	#DEBUG_VALUE: dn <- $eax
	.loc	0 0 0 is_stmt 0                 # x264_src/output/matroska_ebml.c:0:0
	movl	%eax, %ebx
.Ltmp109:
	#DEBUG_VALUE: dn <- $ebx
	#DEBUG_VALUE: dn <- $ebx
	.loc	0 100 16 is_stmt 1              # x264_src/output/matroska_ebml.c:100:16
	leal	(%rbx,%rbx), %eax
.Ltmp110:
	#DEBUG_VALUE: dn <- $eax
	.loc	0 99 19                         # x264_src/output/matroska_ebml.c:99:19
	cmpl	%ebx, %ebp
	.loc	0 99 9 is_stmt 0                # x264_src/output/matroska_ebml.c:99:9
	ja	.LBB2_15
.Ltmp111:
# %bb.16:                               # %while.end.i.i523
	#DEBUG_VALUE: mk_writeHeader:w <- $r14
	#DEBUG_VALUE: mk_writeHeader:writing_app <- [DW_OP_plus_uconst 32] [$rsp+0]
	#DEBUG_VALUE: mk_writeHeader:codec_id <- [DW_OP_LLVM_entry_value 1] $rdx
	#DEBUG_VALUE: mk_writeHeader:codec_private <- [DW_OP_LLVM_entry_value 1] $rcx
	#DEBUG_VALUE: mk_writeHeader:codec_private_size <- [DW_OP_LLVM_entry_value 1] $r8d
	#DEBUG_VALUE: mk_writeHeader:default_frame_duration <- [DW_OP_LLVM_entry_value 1] $r9
	#DEBUG_VALUE: mk_writeHeader:c <- $r12
	#DEBUG_VALUE: mk_write_uint:c <- $r12
	#DEBUG_VALUE: mk_write_uint:id <- 17030
	#DEBUG_VALUE: mk_write_uint:ui <- 1
	#DEBUG_VALUE: mk_write_uint:c_ui <- [DW_OP_LLVM_fragment 0 8] 0
	#DEBUG_VALUE: mk_write_uint:c_ui <- [DW_OP_LLVM_fragment 8 8] 0
	#DEBUG_VALUE: mk_write_uint:c_ui <- [DW_OP_LLVM_fragment 16 8] 0
	#DEBUG_VALUE: mk_write_uint:c_ui <- [DW_OP_LLVM_fragment 24 8] 0
	#DEBUG_VALUE: mk_write_uint:c_ui <- [DW_OP_LLVM_fragment 32 8] 0
	#DEBUG_VALUE: mk_write_uint:c_ui <- [DW_OP_LLVM_fragment 40 8] 0
	#DEBUG_VALUE: mk_write_uint:c_ui <- [DW_OP_LLVM_fragment 48 8] 0
	#DEBUG_VALUE: mk_write_uint:c_ui <- [DW_OP_LLVM_fragment 56 8] 1
	#DEBUG_VALUE: mk_write_uint:i <- 6
	#DEBUG_VALUE: mk_write_size:c <- $r12
	#DEBUG_VALUE: mk_write_size:size <- 1
	#DEBUG_VALUE: mk_write_size:c_size <- [DW_OP_LLVM_fragment 0 8] 8
	#DEBUG_VALUE: mk_write_size:c_size <- [DW_OP_LLVM_fragment 8 8] 0
	#DEBUG_VALUE: mk_write_size:c_size <- [DW_OP_LLVM_fragment 16 8] 0
	#DEBUG_VALUE: mk_write_size:c_size <- [DW_OP_LLVM_fragment 24 8] 0
	#DEBUG_VALUE: mk_write_size:c_size <- [DW_OP_LLVM_fragment 32 8] -127
	#DEBUG_VALUE: mk_append_context_data:c <- $r12
	#DEBUG_VALUE: mk_append_context_data:size <- 1
	#DEBUG_VALUE: mk_append_context_data:ns <- $ebp
	#DEBUG_VALUE: dn <- $eax
	.loc	0 102 26 is_stmt 1              # x264_src/output/matroska_ebml.c:102:26
	movq	40(%r12), %rdi
	.loc	0 102 32 is_stmt 0              # x264_src/output/matroska_ebml.c:102:32
	movl	%ebx, %esi
	.loc	0 102 14                        # x264_src/output/matroska_ebml.c:102:14
	callq	realloc@PLT
.Ltmp112:
	#DEBUG_VALUE: dp <- $rax
	.loc	0 103 14 is_stmt 1              # x264_src/output/matroska_ebml.c:103:14
	testq	%rax, %rax
.Ltmp113:
	.loc	0 103 13 is_stmt 0              # x264_src/output/matroska_ebml.c:103:13
	je	.LBB2_137
.Ltmp114:
# %bb.17:                               # %if.end.i.i528
	#DEBUG_VALUE: mk_writeHeader:w <- $r14
	#DEBUG_VALUE: mk_writeHeader:writing_app <- [DW_OP_plus_uconst 32] [$rsp+0]
	#DEBUG_VALUE: mk_writeHeader:codec_id <- [DW_OP_LLVM_entry_value 1] $rdx
	#DEBUG_VALUE: mk_writeHeader:codec_private <- [DW_OP_LLVM_entry_value 1] $rcx
	#DEBUG_VALUE: mk_writeHeader:codec_private_size <- [DW_OP_LLVM_entry_value 1] $r8d
	#DEBUG_VALUE: mk_writeHeader:default_frame_duration <- [DW_OP_LLVM_entry_value 1] $r9
	#DEBUG_VALUE: mk_writeHeader:c <- $r12
	#DEBUG_VALUE: mk_write_uint:c <- $r12
	#DEBUG_VALUE: mk_write_uint:id <- 17030
	#DEBUG_VALUE: mk_write_uint:ui <- 1
	#DEBUG_VALUE: mk_write_uint:c_ui <- [DW_OP_LLVM_fragment 0 8] 0
	#DEBUG_VALUE: mk_write_uint:c_ui <- [DW_OP_LLVM_fragment 8 8] 0
	#DEBUG_VALUE: mk_write_uint:c_ui <- [DW_OP_LLVM_fragment 16 8] 0
	#DEBUG_VALUE: mk_write_uint:c_ui <- [DW_OP_LLVM_fragment 24 8] 0
	#DEBUG_VALUE: mk_write_uint:c_ui <- [DW_OP_LLVM_fragment 32 8] 0
	#DEBUG_VALUE: mk_write_uint:c_ui <- [DW_OP_LLVM_fragment 40 8] 0
	#DEBUG_VALUE: mk_write_uint:c_ui <- [DW_OP_LLVM_fragment 48 8] 0
	#DEBUG_VALUE: mk_write_uint:c_ui <- [DW_OP_LLVM_fragment 56 8] 1
	#DEBUG_VALUE: mk_write_uint:i <- 6
	#DEBUG_VALUE: mk_write_size:c <- $r12
	#DEBUG_VALUE: mk_write_size:size <- 1
	#DEBUG_VALUE: mk_write_size:c_size <- [DW_OP_LLVM_fragment 0 8] 8
	#DEBUG_VALUE: mk_write_size:c_size <- [DW_OP_LLVM_fragment 8 8] 0
	#DEBUG_VALUE: mk_write_size:c_size <- [DW_OP_LLVM_fragment 16 8] 0
	#DEBUG_VALUE: mk_write_size:c_size <- [DW_OP_LLVM_fragment 24 8] 0
	#DEBUG_VALUE: mk_write_size:c_size <- [DW_OP_LLVM_fragment 32 8] -127
	#DEBUG_VALUE: mk_append_context_data:c <- $r12
	#DEBUG_VALUE: mk_append_context_data:size <- 1
	#DEBUG_VALUE: mk_append_context_data:ns <- $ebp
	#DEBUG_VALUE: dp <- $rax
	.loc	0 106 17 is_stmt 1              # x264_src/output/matroska_ebml.c:106:17
	movq	%rax, 40(%r12)
	.loc	0 107 18                        # x264_src/output/matroska_ebml.c:107:18
	movl	%ebx, 52(%r12)
.Ltmp115:
	.loc	0 110 33                        # x264_src/output/matroska_ebml.c:110:33
	movl	48(%r12), %r15d
	jmp	.LBB2_19
.Ltmp116:
.LBB2_18:                               # %entry.if.end11_crit_edge.i.i509
	#DEBUG_VALUE: mk_writeHeader:w <- $r14
	#DEBUG_VALUE: mk_writeHeader:writing_app <- [DW_OP_plus_uconst 32] [$rsp+0]
	#DEBUG_VALUE: mk_writeHeader:codec_id <- [DW_OP_LLVM_entry_value 1] $rdx
	#DEBUG_VALUE: mk_writeHeader:codec_private <- [DW_OP_LLVM_entry_value 1] $rcx
	#DEBUG_VALUE: mk_writeHeader:codec_private_size <- [DW_OP_LLVM_entry_value 1] $r8d
	#DEBUG_VALUE: mk_writeHeader:default_frame_duration <- [DW_OP_LLVM_entry_value 1] $r9
	#DEBUG_VALUE: mk_writeHeader:c <- $r12
	#DEBUG_VALUE: mk_write_uint:c <- $r12
	#DEBUG_VALUE: mk_write_uint:id <- 17030
	#DEBUG_VALUE: mk_write_uint:ui <- 1
	#DEBUG_VALUE: mk_write_uint:c_ui <- [DW_OP_LLVM_fragment 0 8] 0
	#DEBUG_VALUE: mk_write_uint:c_ui <- [DW_OP_LLVM_fragment 8 8] 0
	#DEBUG_VALUE: mk_write_uint:c_ui <- [DW_OP_LLVM_fragment 16 8] 0
	#DEBUG_VALUE: mk_write_uint:c_ui <- [DW_OP_LLVM_fragment 24 8] 0
	#DEBUG_VALUE: mk_write_uint:c_ui <- [DW_OP_LLVM_fragment 32 8] 0
	#DEBUG_VALUE: mk_write_uint:c_ui <- [DW_OP_LLVM_fragment 40 8] 0
	#DEBUG_VALUE: mk_write_uint:c_ui <- [DW_OP_LLVM_fragment 48 8] 0
	#DEBUG_VALUE: mk_write_uint:c_ui <- [DW_OP_LLVM_fragment 56 8] 1
	#DEBUG_VALUE: mk_write_uint:i <- 6
	#DEBUG_VALUE: mk_write_size:c <- $r12
	#DEBUG_VALUE: mk_write_size:size <- 1
	#DEBUG_VALUE: mk_write_size:c_size <- [DW_OP_LLVM_fragment 0 8] 8
	#DEBUG_VALUE: mk_write_size:c_size <- [DW_OP_LLVM_fragment 8 8] 0
	#DEBUG_VALUE: mk_write_size:c_size <- [DW_OP_LLVM_fragment 16 8] 0
	#DEBUG_VALUE: mk_write_size:c_size <- [DW_OP_LLVM_fragment 24 8] 0
	#DEBUG_VALUE: mk_write_size:c_size <- [DW_OP_LLVM_fragment 32 8] -127
	#DEBUG_VALUE: mk_append_context_data:c <- $r12
	#DEBUG_VALUE: mk_append_context_data:size <- 1
	#DEBUG_VALUE: mk_append_context_data:ns <- $ebp
	.loc	0 110 23 is_stmt 0              # x264_src/output/matroska_ebml.c:110:23
	movq	40(%r12), %rax
.Ltmp117:
.LBB2_19:                               # %do.body31.i
	#DEBUG_VALUE: mk_writeHeader:w <- $r14
	#DEBUG_VALUE: mk_writeHeader:writing_app <- [DW_OP_plus_uconst 32] [$rsp+0]
	#DEBUG_VALUE: mk_writeHeader:codec_id <- [DW_OP_LLVM_entry_value 1] $rdx
	#DEBUG_VALUE: mk_writeHeader:codec_private <- [DW_OP_LLVM_entry_value 1] $rcx
	#DEBUG_VALUE: mk_writeHeader:codec_private_size <- [DW_OP_LLVM_entry_value 1] $r8d
	#DEBUG_VALUE: mk_writeHeader:default_frame_duration <- [DW_OP_LLVM_entry_value 1] $r9
	#DEBUG_VALUE: mk_writeHeader:c <- $r12
	#DEBUG_VALUE: mk_write_uint:c <- $r12
	#DEBUG_VALUE: mk_write_uint:id <- 17030
	#DEBUG_VALUE: mk_write_uint:ui <- 1
	#DEBUG_VALUE: mk_write_uint:c_ui <- [DW_OP_LLVM_fragment 0 8] 0
	#DEBUG_VALUE: mk_write_uint:c_ui <- [DW_OP_LLVM_fragment 8 8] 0
	#DEBUG_VALUE: mk_write_uint:c_ui <- [DW_OP_LLVM_fragment 16 8] 0
	#DEBUG_VALUE: mk_write_uint:c_ui <- [DW_OP_LLVM_fragment 24 8] 0
	#DEBUG_VALUE: mk_write_uint:c_ui <- [DW_OP_LLVM_fragment 32 8] 0
	#DEBUG_VALUE: mk_write_uint:c_ui <- [DW_OP_LLVM_fragment 40 8] 0
	#DEBUG_VALUE: mk_write_uint:c_ui <- [DW_OP_LLVM_fragment 48 8] 0
	#DEBUG_VALUE: mk_write_uint:c_ui <- [DW_OP_LLVM_fragment 56 8] 1
	#DEBUG_VALUE: mk_write_uint:i <- 6
	#DEBUG_VALUE: mk_write_size:c <- $r12
	#DEBUG_VALUE: mk_write_size:size <- 1
	#DEBUG_VALUE: mk_write_size:c_size <- [DW_OP_LLVM_fragment 0 8] 8
	#DEBUG_VALUE: mk_write_size:c_size <- [DW_OP_LLVM_fragment 8 8] 0
	#DEBUG_VALUE: mk_write_size:c_size <- [DW_OP_LLVM_fragment 16 8] 0
	#DEBUG_VALUE: mk_write_size:c_size <- [DW_OP_LLVM_fragment 24 8] 0
	#DEBUG_VALUE: mk_write_size:c_size <- [DW_OP_LLVM_fragment 32 8] -127
	#DEBUG_VALUE: mk_append_context_data:c <- $r12
	#DEBUG_VALUE: mk_append_context_data:size <- 1
	#DEBUG_VALUE: mk_append_context_data:ns <- $ebp
	.loc	0 110 28                        # x264_src/output/matroska_ebml.c:110:28
	movl	%r15d, %ecx
	.loc	0 110 5                         # x264_src/output/matroska_ebml.c:110:5
	movb	$-127, (%rax,%rcx)
	.loc	0 112 14 is_stmt 1              # x264_src/output/matroska_ebml.c:112:14
	movl	%ebp, 48(%r12)
.Ltmp118:
	#DEBUG_VALUE: mk_append_context_data:c <- $r12
	#DEBUG_VALUE: mk_append_context_data:data <- undef
	#DEBUG_VALUE: mk_append_context_data:size <- 1
	.loc	0 93 28                         # x264_src/output/matroska_ebml.c:93:28
	leal	4(%r13), %r15d
.Ltmp119:
	#DEBUG_VALUE: mk_append_context_data:ns <- $r15d
	.loc	0 95 17                         # x264_src/output/matroska_ebml.c:95:17
	movl	52(%r12), %eax
	.loc	0 95 12 is_stmt 0               # x264_src/output/matroska_ebml.c:95:12
	cmpl	%eax, %r15d
.Ltmp120:
	.loc	0 95 9                          # x264_src/output/matroska_ebml.c:95:9
	jbe	.LBB2_24
.Ltmp121:
# %bb.20:                               # %if.then.i.i
	#DEBUG_VALUE: mk_writeHeader:w <- $r14
	#DEBUG_VALUE: mk_writeHeader:writing_app <- [DW_OP_plus_uconst 32] [$rsp+0]
	#DEBUG_VALUE: mk_writeHeader:codec_id <- [DW_OP_LLVM_entry_value 1] $rdx
	#DEBUG_VALUE: mk_writeHeader:codec_private <- [DW_OP_LLVM_entry_value 1] $rcx
	#DEBUG_VALUE: mk_writeHeader:codec_private_size <- [DW_OP_LLVM_entry_value 1] $r8d
	#DEBUG_VALUE: mk_writeHeader:default_frame_duration <- [DW_OP_LLVM_entry_value 1] $r9
	#DEBUG_VALUE: mk_writeHeader:c <- $r12
	#DEBUG_VALUE: mk_write_uint:c <- $r12
	#DEBUG_VALUE: mk_write_uint:id <- 17030
	#DEBUG_VALUE: mk_write_uint:ui <- 1
	#DEBUG_VALUE: mk_write_uint:c_ui <- [DW_OP_LLVM_fragment 0 8] 0
	#DEBUG_VALUE: mk_write_uint:c_ui <- [DW_OP_LLVM_fragment 8 8] 0
	#DEBUG_VALUE: mk_write_uint:c_ui <- [DW_OP_LLVM_fragment 16 8] 0
	#DEBUG_VALUE: mk_write_uint:c_ui <- [DW_OP_LLVM_fragment 24 8] 0
	#DEBUG_VALUE: mk_write_uint:c_ui <- [DW_OP_LLVM_fragment 32 8] 0
	#DEBUG_VALUE: mk_write_uint:c_ui <- [DW_OP_LLVM_fragment 40 8] 0
	#DEBUG_VALUE: mk_write_uint:c_ui <- [DW_OP_LLVM_fragment 48 8] 0
	#DEBUG_VALUE: mk_write_uint:c_ui <- [DW_OP_LLVM_fragment 56 8] 1
	#DEBUG_VALUE: mk_write_uint:i <- 6
	#DEBUG_VALUE: mk_append_context_data:c <- $r12
	#DEBUG_VALUE: mk_append_context_data:size <- 1
	#DEBUG_VALUE: mk_append_context_data:ns <- $r15d
	.loc	0 0 9                           # x264_src/output/matroska_ebml.c:0:9
	leal	(%rax,%rax), %ecx
.Ltmp122:
	.loc	0 98 23 is_stmt 1               # x264_src/output/matroska_ebml.c:98:23
	testl	%eax, %eax
	movl	$16, %eax
	cmovnel	%ecx, %eax
.Ltmp123:
	#DEBUG_VALUE: dn <- $eax
	.p2align	4, 0x90
.LBB2_21:                               # %while.cond.i.i
                                        # =>This Inner Loop Header: Depth=1
	#DEBUG_VALUE: mk_writeHeader:w <- $r14
	#DEBUG_VALUE: mk_writeHeader:writing_app <- [DW_OP_plus_uconst 32] [$rsp+0]
	#DEBUG_VALUE: mk_writeHeader:codec_id <- [DW_OP_LLVM_entry_value 1] $rdx
	#DEBUG_VALUE: mk_writeHeader:codec_private <- [DW_OP_LLVM_entry_value 1] $rcx
	#DEBUG_VALUE: mk_writeHeader:codec_private_size <- [DW_OP_LLVM_entry_value 1] $r8d
	#DEBUG_VALUE: mk_writeHeader:default_frame_duration <- [DW_OP_LLVM_entry_value 1] $r9
	#DEBUG_VALUE: mk_writeHeader:c <- $r12
	#DEBUG_VALUE: mk_write_uint:c <- $r12
	#DEBUG_VALUE: mk_write_uint:id <- 17030
	#DEBUG_VALUE: mk_write_uint:ui <- 1
	#DEBUG_VALUE: mk_write_uint:c_ui <- [DW_OP_LLVM_fragment 0 8] 0
	#DEBUG_VALUE: mk_write_uint:c_ui <- [DW_OP_LLVM_fragment 8 8] 0
	#DEBUG_VALUE: mk_write_uint:c_ui <- [DW_OP_LLVM_fragment 16 8] 0
	#DEBUG_VALUE: mk_write_uint:c_ui <- [DW_OP_LLVM_fragment 24 8] 0
	#DEBUG_VALUE: mk_write_uint:c_ui <- [DW_OP_LLVM_fragment 32 8] 0
	#DEBUG_VALUE: mk_write_uint:c_ui <- [DW_OP_LLVM_fragment 40 8] 0
	#DEBUG_VALUE: mk_write_uint:c_ui <- [DW_OP_LLVM_fragment 48 8] 0
	#DEBUG_VALUE: mk_write_uint:c_ui <- [DW_OP_LLVM_fragment 56 8] 1
	#DEBUG_VALUE: mk_write_uint:i <- 6
	#DEBUG_VALUE: mk_append_context_data:c <- $r12
	#DEBUG_VALUE: mk_append_context_data:size <- 1
	#DEBUG_VALUE: mk_append_context_data:ns <- $r15d
	#DEBUG_VALUE: dn <- $eax
	.loc	0 0 0 is_stmt 0                 # x264_src/output/matroska_ebml.c:0:0
	movl	%eax, %ebx
.Ltmp124:
	#DEBUG_VALUE: dn <- $ebx
	#DEBUG_VALUE: dn <- $ebx
	.loc	0 100 16 is_stmt 1              # x264_src/output/matroska_ebml.c:100:16
	leal	(%rbx,%rbx), %eax
.Ltmp125:
	#DEBUG_VALUE: dn <- $eax
	.loc	0 99 19                         # x264_src/output/matroska_ebml.c:99:19
	cmpl	%ebx, %r15d
	.loc	0 99 9 is_stmt 0                # x264_src/output/matroska_ebml.c:99:9
	ja	.LBB2_21
.Ltmp126:
# %bb.22:                               # %while.end.i.i
	#DEBUG_VALUE: mk_writeHeader:w <- $r14
	#DEBUG_VALUE: mk_writeHeader:writing_app <- [DW_OP_plus_uconst 32] [$rsp+0]
	#DEBUG_VALUE: mk_writeHeader:codec_id <- [DW_OP_LLVM_entry_value 1] $rdx
	#DEBUG_VALUE: mk_writeHeader:codec_private <- [DW_OP_LLVM_entry_value 1] $rcx
	#DEBUG_VALUE: mk_writeHeader:codec_private_size <- [DW_OP_LLVM_entry_value 1] $r8d
	#DEBUG_VALUE: mk_writeHeader:default_frame_duration <- [DW_OP_LLVM_entry_value 1] $r9
	#DEBUG_VALUE: mk_writeHeader:c <- $r12
	#DEBUG_VALUE: mk_write_uint:c <- $r12
	#DEBUG_VALUE: mk_write_uint:id <- 17030
	#DEBUG_VALUE: mk_write_uint:ui <- 1
	#DEBUG_VALUE: mk_write_uint:c_ui <- [DW_OP_LLVM_fragment 0 8] 0
	#DEBUG_VALUE: mk_write_uint:c_ui <- [DW_OP_LLVM_fragment 8 8] 0
	#DEBUG_VALUE: mk_write_uint:c_ui <- [DW_OP_LLVM_fragment 16 8] 0
	#DEBUG_VALUE: mk_write_uint:c_ui <- [DW_OP_LLVM_fragment 24 8] 0
	#DEBUG_VALUE: mk_write_uint:c_ui <- [DW_OP_LLVM_fragment 32 8] 0
	#DEBUG_VALUE: mk_write_uint:c_ui <- [DW_OP_LLVM_fragment 40 8] 0
	#DEBUG_VALUE: mk_write_uint:c_ui <- [DW_OP_LLVM_fragment 48 8] 0
	#DEBUG_VALUE: mk_write_uint:c_ui <- [DW_OP_LLVM_fragment 56 8] 1
	#DEBUG_VALUE: mk_write_uint:i <- 6
	#DEBUG_VALUE: mk_append_context_data:c <- $r12
	#DEBUG_VALUE: mk_append_context_data:size <- 1
	#DEBUG_VALUE: mk_append_context_data:ns <- $r15d
	#DEBUG_VALUE: dn <- $eax
	.loc	0 102 26 is_stmt 1              # x264_src/output/matroska_ebml.c:102:26
	movq	40(%r12), %rdi
	.loc	0 102 32 is_stmt 0              # x264_src/output/matroska_ebml.c:102:32
	movl	%ebx, %esi
	.loc	0 102 14                        # x264_src/output/matroska_ebml.c:102:14
	callq	realloc@PLT
.Ltmp127:
	#DEBUG_VALUE: dp <- $rax
	.loc	0 103 14 is_stmt 1              # x264_src/output/matroska_ebml.c:103:14
	testq	%rax, %rax
.Ltmp128:
	.loc	0 103 13 is_stmt 0              # x264_src/output/matroska_ebml.c:103:13
	je	.LBB2_137
.Ltmp129:
# %bb.23:                               # %if.end.i.i
	#DEBUG_VALUE: mk_writeHeader:w <- $r14
	#DEBUG_VALUE: mk_writeHeader:writing_app <- [DW_OP_plus_uconst 32] [$rsp+0]
	#DEBUG_VALUE: mk_writeHeader:codec_id <- [DW_OP_LLVM_entry_value 1] $rdx
	#DEBUG_VALUE: mk_writeHeader:codec_private <- [DW_OP_LLVM_entry_value 1] $rcx
	#DEBUG_VALUE: mk_writeHeader:codec_private_size <- [DW_OP_LLVM_entry_value 1] $r8d
	#DEBUG_VALUE: mk_writeHeader:default_frame_duration <- [DW_OP_LLVM_entry_value 1] $r9
	#DEBUG_VALUE: mk_writeHeader:c <- $r12
	#DEBUG_VALUE: mk_write_uint:c <- $r12
	#DEBUG_VALUE: mk_write_uint:id <- 17030
	#DEBUG_VALUE: mk_write_uint:ui <- 1
	#DEBUG_VALUE: mk_write_uint:c_ui <- [DW_OP_LLVM_fragment 0 8] 0
	#DEBUG_VALUE: mk_write_uint:c_ui <- [DW_OP_LLVM_fragment 8 8] 0
	#DEBUG_VALUE: mk_write_uint:c_ui <- [DW_OP_LLVM_fragment 16 8] 0
	#DEBUG_VALUE: mk_write_uint:c_ui <- [DW_OP_LLVM_fragment 24 8] 0
	#DEBUG_VALUE: mk_write_uint:c_ui <- [DW_OP_LLVM_fragment 32 8] 0
	#DEBUG_VALUE: mk_write_uint:c_ui <- [DW_OP_LLVM_fragment 40 8] 0
	#DEBUG_VALUE: mk_write_uint:c_ui <- [DW_OP_LLVM_fragment 48 8] 0
	#DEBUG_VALUE: mk_write_uint:c_ui <- [DW_OP_LLVM_fragment 56 8] 1
	#DEBUG_VALUE: mk_write_uint:i <- 6
	#DEBUG_VALUE: mk_append_context_data:c <- $r12
	#DEBUG_VALUE: mk_append_context_data:size <- 1
	#DEBUG_VALUE: mk_append_context_data:ns <- $r15d
	#DEBUG_VALUE: dp <- $rax
	.loc	0 106 17 is_stmt 1              # x264_src/output/matroska_ebml.c:106:17
	movq	%rax, 40(%r12)
	.loc	0 107 18                        # x264_src/output/matroska_ebml.c:107:18
	movl	%ebx, 52(%r12)
.Ltmp130:
	.loc	0 110 33                        # x264_src/output/matroska_ebml.c:110:33
	movl	48(%r12), %ebp
	jmp	.LBB2_25
.Ltmp131:
.LBB2_24:                               # %entry.if.end11_crit_edge.i.i
	#DEBUG_VALUE: mk_writeHeader:w <- $r14
	#DEBUG_VALUE: mk_writeHeader:writing_app <- [DW_OP_plus_uconst 32] [$rsp+0]
	#DEBUG_VALUE: mk_writeHeader:codec_id <- [DW_OP_LLVM_entry_value 1] $rdx
	#DEBUG_VALUE: mk_writeHeader:codec_private <- [DW_OP_LLVM_entry_value 1] $rcx
	#DEBUG_VALUE: mk_writeHeader:codec_private_size <- [DW_OP_LLVM_entry_value 1] $r8d
	#DEBUG_VALUE: mk_writeHeader:default_frame_duration <- [DW_OP_LLVM_entry_value 1] $r9
	#DEBUG_VALUE: mk_writeHeader:c <- $r12
	#DEBUG_VALUE: mk_write_uint:c <- $r12
	#DEBUG_VALUE: mk_write_uint:id <- 17030
	#DEBUG_VALUE: mk_write_uint:ui <- 1
	#DEBUG_VALUE: mk_write_uint:c_ui <- [DW_OP_LLVM_fragment 0 8] 0
	#DEBUG_VALUE: mk_write_uint:c_ui <- [DW_OP_LLVM_fragment 8 8] 0
	#DEBUG_VALUE: mk_write_uint:c_ui <- [DW_OP_LLVM_fragment 16 8] 0
	#DEBUG_VALUE: mk_write_uint:c_ui <- [DW_OP_LLVM_fragment 24 8] 0
	#DEBUG_VALUE: mk_write_uint:c_ui <- [DW_OP_LLVM_fragment 32 8] 0
	#DEBUG_VALUE: mk_write_uint:c_ui <- [DW_OP_LLVM_fragment 40 8] 0
	#DEBUG_VALUE: mk_write_uint:c_ui <- [DW_OP_LLVM_fragment 48 8] 0
	#DEBUG_VALUE: mk_write_uint:c_ui <- [DW_OP_LLVM_fragment 56 8] 1
	#DEBUG_VALUE: mk_write_uint:i <- 6
	#DEBUG_VALUE: mk_append_context_data:c <- $r12
	#DEBUG_VALUE: mk_append_context_data:size <- 1
	#DEBUG_VALUE: mk_append_context_data:ns <- $r15d
	.loc	0 110 23 is_stmt 0              # x264_src/output/matroska_ebml.c:110:23
	movq	40(%r12), %rax
.Ltmp132:
.LBB2_25:                               # %do.body8
	#DEBUG_VALUE: mk_writeHeader:w <- $r14
	#DEBUG_VALUE: mk_writeHeader:writing_app <- [DW_OP_plus_uconst 32] [$rsp+0]
	#DEBUG_VALUE: mk_writeHeader:codec_id <- [DW_OP_LLVM_entry_value 1] $rdx
	#DEBUG_VALUE: mk_writeHeader:codec_private <- [DW_OP_LLVM_entry_value 1] $rcx
	#DEBUG_VALUE: mk_writeHeader:codec_private_size <- [DW_OP_LLVM_entry_value 1] $r8d
	#DEBUG_VALUE: mk_writeHeader:default_frame_duration <- [DW_OP_LLVM_entry_value 1] $r9
	#DEBUG_VALUE: mk_writeHeader:c <- $r12
	#DEBUG_VALUE: mk_write_uint:c <- $r12
	#DEBUG_VALUE: mk_write_uint:id <- 17030
	#DEBUG_VALUE: mk_write_uint:ui <- 1
	#DEBUG_VALUE: mk_write_uint:c_ui <- [DW_OP_LLVM_fragment 0 8] 0
	#DEBUG_VALUE: mk_write_uint:c_ui <- [DW_OP_LLVM_fragment 8 8] 0
	#DEBUG_VALUE: mk_write_uint:c_ui <- [DW_OP_LLVM_fragment 16 8] 0
	#DEBUG_VALUE: mk_write_uint:c_ui <- [DW_OP_LLVM_fragment 24 8] 0
	#DEBUG_VALUE: mk_write_uint:c_ui <- [DW_OP_LLVM_fragment 32 8] 0
	#DEBUG_VALUE: mk_write_uint:c_ui <- [DW_OP_LLVM_fragment 40 8] 0
	#DEBUG_VALUE: mk_write_uint:c_ui <- [DW_OP_LLVM_fragment 48 8] 0
	#DEBUG_VALUE: mk_write_uint:c_ui <- [DW_OP_LLVM_fragment 56 8] 1
	#DEBUG_VALUE: mk_write_uint:i <- 6
	#DEBUG_VALUE: mk_append_context_data:c <- $r12
	#DEBUG_VALUE: mk_append_context_data:size <- 1
	#DEBUG_VALUE: mk_append_context_data:ns <- $r15d
	.loc	0 110 28                        # x264_src/output/matroska_ebml.c:110:28
	movl	%ebp, %ecx
	.loc	0 110 5                         # x264_src/output/matroska_ebml.c:110:5
	movb	$1, (%rax,%rcx)
	.loc	0 112 14 is_stmt 1              # x264_src/output/matroska_ebml.c:112:14
	movl	%r15d, 48(%r12)
.Ltmp133:
	#DEBUG_VALUE: mk_write_uint:c <- $r12
	#DEBUG_VALUE: mk_write_uint:id <- 17143
	#DEBUG_VALUE: mk_write_uint:ui <- 1
	#DEBUG_VALUE: mk_write_uint:c_ui <- [DW_OP_LLVM_fragment 0 8] 0
	#DEBUG_VALUE: mk_write_uint:c_ui <- [DW_OP_LLVM_fragment 8 8] 0
	#DEBUG_VALUE: mk_write_uint:c_ui <- [DW_OP_LLVM_fragment 16 8] 0
	#DEBUG_VALUE: mk_write_uint:c_ui <- [DW_OP_LLVM_fragment 24 8] 0
	#DEBUG_VALUE: mk_write_uint:c_ui <- [DW_OP_LLVM_fragment 32 8] 0
	#DEBUG_VALUE: mk_write_uint:c_ui <- [DW_OP_LLVM_fragment 40 8] 0
	#DEBUG_VALUE: mk_write_uint:c_ui <- [DW_OP_LLVM_fragment 48 8] 0
	#DEBUG_VALUE: mk_write_uint:c_ui <- [DW_OP_LLVM_fragment 56 8] 1
	#DEBUG_VALUE: mk_write_uint:i <- 0
	#DEBUG_VALUE: mk_write_id:c <- $r12
	#DEBUG_VALUE: mk_write_id:id <- 17143
	#DEBUG_VALUE: mk_write_id:c_id <- [DW_OP_LLVM_fragment 0 8] 0
	#DEBUG_VALUE: mk_write_id:c_id <- [DW_OP_LLVM_fragment 8 8] 0
	#DEBUG_VALUE: mk_write_id:c_id <- [DW_OP_LLVM_fragment 16 8] 66
	#DEBUG_VALUE: mk_write_id:c_id <- [DW_OP_LLVM_fragment 24 8] -9
	.loc	0 95 17                         # x264_src/output/matroska_ebml.c:95:17
	movl	52(%r12), %eax
.Ltmp134:
	#DEBUG_VALUE: mk_append_context_data:c <- $r12
	#DEBUG_VALUE: mk_append_context_data:data <- undef
	#DEBUG_VALUE: mk_append_context_data:data <- undef
	#DEBUG_VALUE: mk_append_context_data:size <- 2
	.loc	0 93 28                         # x264_src/output/matroska_ebml.c:93:28
	leal	6(%r13), %ebx
.Ltmp135:
	#DEBUG_VALUE: mk_append_context_data:ns <- $ebx
	.loc	0 95 12                         # x264_src/output/matroska_ebml.c:95:12
	cmpl	%eax, %ebx
.Ltmp136:
	.loc	0 95 9 is_stmt 0                # x264_src/output/matroska_ebml.c:95:9
	jbe	.LBB2_30
.Ltmp137:
# %bb.26:                               # %if.then.i68.i571
	#DEBUG_VALUE: mk_writeHeader:w <- $r14
	#DEBUG_VALUE: mk_writeHeader:writing_app <- [DW_OP_plus_uconst 32] [$rsp+0]
	#DEBUG_VALUE: mk_writeHeader:codec_id <- [DW_OP_LLVM_entry_value 1] $rdx
	#DEBUG_VALUE: mk_writeHeader:codec_private <- [DW_OP_LLVM_entry_value 1] $rcx
	#DEBUG_VALUE: mk_writeHeader:codec_private_size <- [DW_OP_LLVM_entry_value 1] $r8d
	#DEBUG_VALUE: mk_writeHeader:default_frame_duration <- [DW_OP_LLVM_entry_value 1] $r9
	#DEBUG_VALUE: mk_writeHeader:c <- $r12
	#DEBUG_VALUE: mk_write_uint:c <- $r12
	#DEBUG_VALUE: mk_write_uint:id <- 17143
	#DEBUG_VALUE: mk_write_uint:ui <- 1
	#DEBUG_VALUE: mk_write_uint:c_ui <- [DW_OP_LLVM_fragment 0 8] 0
	#DEBUG_VALUE: mk_write_uint:c_ui <- [DW_OP_LLVM_fragment 8 8] 0
	#DEBUG_VALUE: mk_write_uint:c_ui <- [DW_OP_LLVM_fragment 16 8] 0
	#DEBUG_VALUE: mk_write_uint:c_ui <- [DW_OP_LLVM_fragment 24 8] 0
	#DEBUG_VALUE: mk_write_uint:c_ui <- [DW_OP_LLVM_fragment 32 8] 0
	#DEBUG_VALUE: mk_write_uint:c_ui <- [DW_OP_LLVM_fragment 40 8] 0
	#DEBUG_VALUE: mk_write_uint:c_ui <- [DW_OP_LLVM_fragment 48 8] 0
	#DEBUG_VALUE: mk_write_uint:c_ui <- [DW_OP_LLVM_fragment 56 8] 1
	#DEBUG_VALUE: mk_write_uint:i <- 0
	#DEBUG_VALUE: mk_write_id:c <- $r12
	#DEBUG_VALUE: mk_write_id:id <- 17143
	#DEBUG_VALUE: mk_write_id:c_id <- [DW_OP_LLVM_fragment 0 8] 0
	#DEBUG_VALUE: mk_write_id:c_id <- [DW_OP_LLVM_fragment 8 8] 0
	#DEBUG_VALUE: mk_write_id:c_id <- [DW_OP_LLVM_fragment 16 8] 66
	#DEBUG_VALUE: mk_write_id:c_id <- [DW_OP_LLVM_fragment 24 8] -9
	#DEBUG_VALUE: mk_append_context_data:c <- $r12
	#DEBUG_VALUE: mk_append_context_data:size <- 2
	#DEBUG_VALUE: mk_append_context_data:ns <- $ebx
	.loc	0 0 9                           # x264_src/output/matroska_ebml.c:0:9
	leal	(%rax,%rax), %ecx
.Ltmp138:
	.loc	0 98 23 is_stmt 1               # x264_src/output/matroska_ebml.c:98:23
	testl	%eax, %eax
	movl	$16, %eax
	cmovnel	%ecx, %eax
.Ltmp139:
	#DEBUG_VALUE: dn <- $eax
	.p2align	4, 0x90
.LBB2_27:                               # %while.cond.i72.i575
                                        # =>This Inner Loop Header: Depth=1
	#DEBUG_VALUE: mk_writeHeader:w <- $r14
	#DEBUG_VALUE: mk_writeHeader:writing_app <- [DW_OP_plus_uconst 32] [$rsp+0]
	#DEBUG_VALUE: mk_writeHeader:codec_id <- [DW_OP_LLVM_entry_value 1] $rdx
	#DEBUG_VALUE: mk_writeHeader:codec_private <- [DW_OP_LLVM_entry_value 1] $rcx
	#DEBUG_VALUE: mk_writeHeader:codec_private_size <- [DW_OP_LLVM_entry_value 1] $r8d
	#DEBUG_VALUE: mk_writeHeader:default_frame_duration <- [DW_OP_LLVM_entry_value 1] $r9
	#DEBUG_VALUE: mk_writeHeader:c <- $r12
	#DEBUG_VALUE: mk_write_uint:c <- $r12
	#DEBUG_VALUE: mk_write_uint:id <- 17143
	#DEBUG_VALUE: mk_write_uint:ui <- 1
	#DEBUG_VALUE: mk_write_uint:c_ui <- [DW_OP_LLVM_fragment 0 8] 0
	#DEBUG_VALUE: mk_write_uint:c_ui <- [DW_OP_LLVM_fragment 8 8] 0
	#DEBUG_VALUE: mk_write_uint:c_ui <- [DW_OP_LLVM_fragment 16 8] 0
	#DEBUG_VALUE: mk_write_uint:c_ui <- [DW_OP_LLVM_fragment 24 8] 0
	#DEBUG_VALUE: mk_write_uint:c_ui <- [DW_OP_LLVM_fragment 32 8] 0
	#DEBUG_VALUE: mk_write_uint:c_ui <- [DW_OP_LLVM_fragment 40 8] 0
	#DEBUG_VALUE: mk_write_uint:c_ui <- [DW_OP_LLVM_fragment 48 8] 0
	#DEBUG_VALUE: mk_write_uint:c_ui <- [DW_OP_LLVM_fragment 56 8] 1
	#DEBUG_VALUE: mk_write_uint:i <- 0
	#DEBUG_VALUE: mk_write_id:c <- $r12
	#DEBUG_VALUE: mk_write_id:id <- 17143
	#DEBUG_VALUE: mk_write_id:c_id <- [DW_OP_LLVM_fragment 0 8] 0
	#DEBUG_VALUE: mk_write_id:c_id <- [DW_OP_LLVM_fragment 8 8] 0
	#DEBUG_VALUE: mk_write_id:c_id <- [DW_OP_LLVM_fragment 16 8] 66
	#DEBUG_VALUE: mk_write_id:c_id <- [DW_OP_LLVM_fragment 24 8] -9
	#DEBUG_VALUE: mk_append_context_data:c <- $r12
	#DEBUG_VALUE: mk_append_context_data:size <- 2
	#DEBUG_VALUE: mk_append_context_data:ns <- $ebx
	#DEBUG_VALUE: dn <- $eax
	.loc	0 0 0 is_stmt 0                 # x264_src/output/matroska_ebml.c:0:0
	movl	%eax, %r15d
.Ltmp140:
	#DEBUG_VALUE: dn <- $r15d
	#DEBUG_VALUE: dn <- $r15d
	.loc	0 100 16 is_stmt 1              # x264_src/output/matroska_ebml.c:100:16
	leal	(%r15,%r15), %eax
.Ltmp141:
	#DEBUG_VALUE: dn <- $eax
	.loc	0 99 19                         # x264_src/output/matroska_ebml.c:99:19
	cmpl	%r15d, %ebx
	.loc	0 99 9 is_stmt 0                # x264_src/output/matroska_ebml.c:99:9
	ja	.LBB2_27
.Ltmp142:
# %bb.28:                               # %while.end.i76.i579
	#DEBUG_VALUE: mk_writeHeader:w <- $r14
	#DEBUG_VALUE: mk_writeHeader:writing_app <- [DW_OP_plus_uconst 32] [$rsp+0]
	#DEBUG_VALUE: mk_writeHeader:codec_id <- [DW_OP_LLVM_entry_value 1] $rdx
	#DEBUG_VALUE: mk_writeHeader:codec_private <- [DW_OP_LLVM_entry_value 1] $rcx
	#DEBUG_VALUE: mk_writeHeader:codec_private_size <- [DW_OP_LLVM_entry_value 1] $r8d
	#DEBUG_VALUE: mk_writeHeader:default_frame_duration <- [DW_OP_LLVM_entry_value 1] $r9
	#DEBUG_VALUE: mk_writeHeader:c <- $r12
	#DEBUG_VALUE: mk_write_uint:c <- $r12
	#DEBUG_VALUE: mk_write_uint:id <- 17143
	#DEBUG_VALUE: mk_write_uint:ui <- 1
	#DEBUG_VALUE: mk_write_uint:c_ui <- [DW_OP_LLVM_fragment 0 8] 0
	#DEBUG_VALUE: mk_write_uint:c_ui <- [DW_OP_LLVM_fragment 8 8] 0
	#DEBUG_VALUE: mk_write_uint:c_ui <- [DW_OP_LLVM_fragment 16 8] 0
	#DEBUG_VALUE: mk_write_uint:c_ui <- [DW_OP_LLVM_fragment 24 8] 0
	#DEBUG_VALUE: mk_write_uint:c_ui <- [DW_OP_LLVM_fragment 32 8] 0
	#DEBUG_VALUE: mk_write_uint:c_ui <- [DW_OP_LLVM_fragment 40 8] 0
	#DEBUG_VALUE: mk_write_uint:c_ui <- [DW_OP_LLVM_fragment 48 8] 0
	#DEBUG_VALUE: mk_write_uint:c_ui <- [DW_OP_LLVM_fragment 56 8] 1
	#DEBUG_VALUE: mk_write_uint:i <- 0
	#DEBUG_VALUE: mk_write_id:c <- $r12
	#DEBUG_VALUE: mk_write_id:id <- 17143
	#DEBUG_VALUE: mk_write_id:c_id <- [DW_OP_LLVM_fragment 0 8] 0
	#DEBUG_VALUE: mk_write_id:c_id <- [DW_OP_LLVM_fragment 8 8] 0
	#DEBUG_VALUE: mk_write_id:c_id <- [DW_OP_LLVM_fragment 16 8] 66
	#DEBUG_VALUE: mk_write_id:c_id <- [DW_OP_LLVM_fragment 24 8] -9
	#DEBUG_VALUE: mk_append_context_data:c <- $r12
	#DEBUG_VALUE: mk_append_context_data:size <- 2
	#DEBUG_VALUE: mk_append_context_data:ns <- $ebx
	#DEBUG_VALUE: dn <- $eax
	.loc	0 102 26 is_stmt 1              # x264_src/output/matroska_ebml.c:102:26
	movq	40(%r12), %rdi
	.loc	0 102 32 is_stmt 0              # x264_src/output/matroska_ebml.c:102:32
	movl	%r15d, %esi
	.loc	0 102 14                        # x264_src/output/matroska_ebml.c:102:14
	callq	realloc@PLT
.Ltmp143:
	#DEBUG_VALUE: dp <- $rax
	.loc	0 103 14 is_stmt 1              # x264_src/output/matroska_ebml.c:103:14
	testq	%rax, %rax
.Ltmp144:
	.loc	0 103 13 is_stmt 0              # x264_src/output/matroska_ebml.c:103:13
	je	.LBB2_137
.Ltmp145:
# %bb.29:                               # %if.end.i81.i584
	#DEBUG_VALUE: mk_writeHeader:w <- $r14
	#DEBUG_VALUE: mk_writeHeader:writing_app <- [DW_OP_plus_uconst 32] [$rsp+0]
	#DEBUG_VALUE: mk_writeHeader:codec_id <- [DW_OP_LLVM_entry_value 1] $rdx
	#DEBUG_VALUE: mk_writeHeader:codec_private <- [DW_OP_LLVM_entry_value 1] $rcx
	#DEBUG_VALUE: mk_writeHeader:codec_private_size <- [DW_OP_LLVM_entry_value 1] $r8d
	#DEBUG_VALUE: mk_writeHeader:default_frame_duration <- [DW_OP_LLVM_entry_value 1] $r9
	#DEBUG_VALUE: mk_writeHeader:c <- $r12
	#DEBUG_VALUE: mk_write_uint:c <- $r12
	#DEBUG_VALUE: mk_write_uint:id <- 17143
	#DEBUG_VALUE: mk_write_uint:ui <- 1
	#DEBUG_VALUE: mk_write_uint:c_ui <- [DW_OP_LLVM_fragment 0 8] 0
	#DEBUG_VALUE: mk_write_uint:c_ui <- [DW_OP_LLVM_fragment 8 8] 0
	#DEBUG_VALUE: mk_write_uint:c_ui <- [DW_OP_LLVM_fragment 16 8] 0
	#DEBUG_VALUE: mk_write_uint:c_ui <- [DW_OP_LLVM_fragment 24 8] 0
	#DEBUG_VALUE: mk_write_uint:c_ui <- [DW_OP_LLVM_fragment 32 8] 0
	#DEBUG_VALUE: mk_write_uint:c_ui <- [DW_OP_LLVM_fragment 40 8] 0
	#DEBUG_VALUE: mk_write_uint:c_ui <- [DW_OP_LLVM_fragment 48 8] 0
	#DEBUG_VALUE: mk_write_uint:c_ui <- [DW_OP_LLVM_fragment 56 8] 1
	#DEBUG_VALUE: mk_write_uint:i <- 0
	#DEBUG_VALUE: mk_write_id:c <- $r12
	#DEBUG_VALUE: mk_write_id:id <- 17143
	#DEBUG_VALUE: mk_write_id:c_id <- [DW_OP_LLVM_fragment 0 8] 0
	#DEBUG_VALUE: mk_write_id:c_id <- [DW_OP_LLVM_fragment 8 8] 0
	#DEBUG_VALUE: mk_write_id:c_id <- [DW_OP_LLVM_fragment 16 8] 66
	#DEBUG_VALUE: mk_write_id:c_id <- [DW_OP_LLVM_fragment 24 8] -9
	#DEBUG_VALUE: mk_append_context_data:c <- $r12
	#DEBUG_VALUE: mk_append_context_data:size <- 2
	#DEBUG_VALUE: mk_append_context_data:ns <- $ebx
	#DEBUG_VALUE: dp <- $rax
	.loc	0 106 17 is_stmt 1              # x264_src/output/matroska_ebml.c:106:17
	movq	%rax, 40(%r12)
	.loc	0 107 18                        # x264_src/output/matroska_ebml.c:107:18
	movl	%r15d, 52(%r12)
.Ltmp146:
	.loc	0 110 33                        # x264_src/output/matroska_ebml.c:110:33
	movl	48(%r12), %r15d
	jmp	.LBB2_31
.Ltmp147:
.LBB2_30:                               # %entry.if.end11_crit_edge.i61.i563
	#DEBUG_VALUE: mk_writeHeader:w <- $r14
	#DEBUG_VALUE: mk_writeHeader:writing_app <- [DW_OP_plus_uconst 32] [$rsp+0]
	#DEBUG_VALUE: mk_writeHeader:codec_id <- [DW_OP_LLVM_entry_value 1] $rdx
	#DEBUG_VALUE: mk_writeHeader:codec_private <- [DW_OP_LLVM_entry_value 1] $rcx
	#DEBUG_VALUE: mk_writeHeader:codec_private_size <- [DW_OP_LLVM_entry_value 1] $r8d
	#DEBUG_VALUE: mk_writeHeader:default_frame_duration <- [DW_OP_LLVM_entry_value 1] $r9
	#DEBUG_VALUE: mk_writeHeader:c <- $r12
	#DEBUG_VALUE: mk_write_uint:c <- $r12
	#DEBUG_VALUE: mk_write_uint:id <- 17143
	#DEBUG_VALUE: mk_write_uint:ui <- 1
	#DEBUG_VALUE: mk_write_uint:c_ui <- [DW_OP_LLVM_fragment 0 8] 0
	#DEBUG_VALUE: mk_write_uint:c_ui <- [DW_OP_LLVM_fragment 8 8] 0
	#DEBUG_VALUE: mk_write_uint:c_ui <- [DW_OP_LLVM_fragment 16 8] 0
	#DEBUG_VALUE: mk_write_uint:c_ui <- [DW_OP_LLVM_fragment 24 8] 0
	#DEBUG_VALUE: mk_write_uint:c_ui <- [DW_OP_LLVM_fragment 32 8] 0
	#DEBUG_VALUE: mk_write_uint:c_ui <- [DW_OP_LLVM_fragment 40 8] 0
	#DEBUG_VALUE: mk_write_uint:c_ui <- [DW_OP_LLVM_fragment 48 8] 0
	#DEBUG_VALUE: mk_write_uint:c_ui <- [DW_OP_LLVM_fragment 56 8] 1
	#DEBUG_VALUE: mk_write_uint:i <- 0
	#DEBUG_VALUE: mk_write_id:c <- $r12
	#DEBUG_VALUE: mk_write_id:id <- 17143
	#DEBUG_VALUE: mk_write_id:c_id <- [DW_OP_LLVM_fragment 0 8] 0
	#DEBUG_VALUE: mk_write_id:c_id <- [DW_OP_LLVM_fragment 8 8] 0
	#DEBUG_VALUE: mk_write_id:c_id <- [DW_OP_LLVM_fragment 16 8] 66
	#DEBUG_VALUE: mk_write_id:c_id <- [DW_OP_LLVM_fragment 24 8] -9
	#DEBUG_VALUE: mk_append_context_data:c <- $r12
	#DEBUG_VALUE: mk_append_context_data:size <- 2
	#DEBUG_VALUE: mk_append_context_data:ns <- $ebx
	.loc	0 110 23 is_stmt 0              # x264_src/output/matroska_ebml.c:110:23
	movq	40(%r12), %rax
.Ltmp148:
.LBB2_31:                               # %land.rhs.preheader.i317
	#DEBUG_VALUE: mk_writeHeader:w <- $r14
	#DEBUG_VALUE: mk_writeHeader:writing_app <- [DW_OP_plus_uconst 32] [$rsp+0]
	#DEBUG_VALUE: mk_writeHeader:codec_id <- [DW_OP_LLVM_entry_value 1] $rdx
	#DEBUG_VALUE: mk_writeHeader:codec_private <- [DW_OP_LLVM_entry_value 1] $rcx
	#DEBUG_VALUE: mk_writeHeader:codec_private_size <- [DW_OP_LLVM_entry_value 1] $r8d
	#DEBUG_VALUE: mk_writeHeader:default_frame_duration <- [DW_OP_LLVM_entry_value 1] $r9
	#DEBUG_VALUE: mk_writeHeader:c <- $r12
	#DEBUG_VALUE: mk_write_uint:c <- $r12
	#DEBUG_VALUE: mk_write_uint:id <- 17143
	#DEBUG_VALUE: mk_write_uint:ui <- 1
	#DEBUG_VALUE: mk_write_uint:c_ui <- [DW_OP_LLVM_fragment 0 8] 0
	#DEBUG_VALUE: mk_write_uint:c_ui <- [DW_OP_LLVM_fragment 8 8] 0
	#DEBUG_VALUE: mk_write_uint:c_ui <- [DW_OP_LLVM_fragment 16 8] 0
	#DEBUG_VALUE: mk_write_uint:c_ui <- [DW_OP_LLVM_fragment 24 8] 0
	#DEBUG_VALUE: mk_write_uint:c_ui <- [DW_OP_LLVM_fragment 32 8] 0
	#DEBUG_VALUE: mk_write_uint:c_ui <- [DW_OP_LLVM_fragment 40 8] 0
	#DEBUG_VALUE: mk_write_uint:c_ui <- [DW_OP_LLVM_fragment 48 8] 0
	#DEBUG_VALUE: mk_write_uint:c_ui <- [DW_OP_LLVM_fragment 56 8] 1
	#DEBUG_VALUE: mk_write_uint:i <- 0
	#DEBUG_VALUE: mk_write_id:c <- $r12
	#DEBUG_VALUE: mk_write_id:id <- 17143
	#DEBUG_VALUE: mk_write_id:c_id <- [DW_OP_LLVM_fragment 0 8] 0
	#DEBUG_VALUE: mk_write_id:c_id <- [DW_OP_LLVM_fragment 8 8] 0
	#DEBUG_VALUE: mk_write_id:c_id <- [DW_OP_LLVM_fragment 16 8] 66
	#DEBUG_VALUE: mk_write_id:c_id <- [DW_OP_LLVM_fragment 24 8] -9
	#DEBUG_VALUE: mk_append_context_data:c <- $r12
	#DEBUG_VALUE: mk_append_context_data:size <- 2
	#DEBUG_VALUE: mk_append_context_data:ns <- $ebx
	.loc	0 110 28                        # x264_src/output/matroska_ebml.c:110:28
	movl	%r15d, %ecx
	.loc	0 110 5                         # x264_src/output/matroska_ebml.c:110:5
	movw	$-2238, (%rax,%rcx)             # imm = 0xF742
	.loc	0 112 14 is_stmt 1              # x264_src/output/matroska_ebml.c:112:14
	movl	%ebx, 48(%r12)
.Ltmp149:
	#DEBUG_VALUE: mk_write_uint:i <- 6
	#DEBUG_VALUE: mk_write_size:c <- $r12
	#DEBUG_VALUE: mk_write_size:size <- 1
	#DEBUG_VALUE: mk_write_size:c_size <- [DW_OP_LLVM_fragment 0 8] 8
	#DEBUG_VALUE: mk_write_size:c_size <- [DW_OP_LLVM_fragment 8 8] 0
	#DEBUG_VALUE: mk_write_size:c_size <- [DW_OP_LLVM_fragment 16 8] 0
	#DEBUG_VALUE: mk_write_size:c_size <- [DW_OP_LLVM_fragment 24 8] 0
	#DEBUG_VALUE: mk_write_size:c_size <- [DW_OP_LLVM_fragment 32 8] -127
	#DEBUG_VALUE: mk_append_context_data:c <- $r12
	#DEBUG_VALUE: mk_append_context_data:data <- undef
	#DEBUG_VALUE: mk_append_context_data:size <- 1
	.loc	0 93 28                         # x264_src/output/matroska_ebml.c:93:28
	leal	7(%r13), %ebp
.Ltmp150:
	#DEBUG_VALUE: mk_append_context_data:ns <- $ebp
	.loc	0 95 17                         # x264_src/output/matroska_ebml.c:95:17
	movl	52(%r12), %eax
	.loc	0 95 12 is_stmt 0               # x264_src/output/matroska_ebml.c:95:12
	cmpl	%eax, %ebp
.Ltmp151:
	.loc	0 95 9                          # x264_src/output/matroska_ebml.c:95:9
	jbe	.LBB2_36
.Ltmp152:
# %bb.32:                               # %if.then.i.i543
	#DEBUG_VALUE: mk_writeHeader:w <- $r14
	#DEBUG_VALUE: mk_writeHeader:writing_app <- [DW_OP_plus_uconst 32] [$rsp+0]
	#DEBUG_VALUE: mk_writeHeader:codec_id <- [DW_OP_LLVM_entry_value 1] $rdx
	#DEBUG_VALUE: mk_writeHeader:codec_private <- [DW_OP_LLVM_entry_value 1] $rcx
	#DEBUG_VALUE: mk_writeHeader:codec_private_size <- [DW_OP_LLVM_entry_value 1] $r8d
	#DEBUG_VALUE: mk_writeHeader:default_frame_duration <- [DW_OP_LLVM_entry_value 1] $r9
	#DEBUG_VALUE: mk_writeHeader:c <- $r12
	#DEBUG_VALUE: mk_write_uint:c <- $r12
	#DEBUG_VALUE: mk_write_uint:id <- 17143
	#DEBUG_VALUE: mk_write_uint:ui <- 1
	#DEBUG_VALUE: mk_write_uint:c_ui <- [DW_OP_LLVM_fragment 0 8] 0
	#DEBUG_VALUE: mk_write_uint:c_ui <- [DW_OP_LLVM_fragment 8 8] 0
	#DEBUG_VALUE: mk_write_uint:c_ui <- [DW_OP_LLVM_fragment 16 8] 0
	#DEBUG_VALUE: mk_write_uint:c_ui <- [DW_OP_LLVM_fragment 24 8] 0
	#DEBUG_VALUE: mk_write_uint:c_ui <- [DW_OP_LLVM_fragment 32 8] 0
	#DEBUG_VALUE: mk_write_uint:c_ui <- [DW_OP_LLVM_fragment 40 8] 0
	#DEBUG_VALUE: mk_write_uint:c_ui <- [DW_OP_LLVM_fragment 48 8] 0
	#DEBUG_VALUE: mk_write_uint:c_ui <- [DW_OP_LLVM_fragment 56 8] 1
	#DEBUG_VALUE: mk_write_uint:i <- 6
	#DEBUG_VALUE: mk_write_size:c <- $r12
	#DEBUG_VALUE: mk_write_size:size <- 1
	#DEBUG_VALUE: mk_write_size:c_size <- [DW_OP_LLVM_fragment 0 8] 8
	#DEBUG_VALUE: mk_write_size:c_size <- [DW_OP_LLVM_fragment 8 8] 0
	#DEBUG_VALUE: mk_write_size:c_size <- [DW_OP_LLVM_fragment 16 8] 0
	#DEBUG_VALUE: mk_write_size:c_size <- [DW_OP_LLVM_fragment 24 8] 0
	#DEBUG_VALUE: mk_write_size:c_size <- [DW_OP_LLVM_fragment 32 8] -127
	#DEBUG_VALUE: mk_append_context_data:c <- $r12
	#DEBUG_VALUE: mk_append_context_data:size <- 1
	#DEBUG_VALUE: mk_append_context_data:ns <- $ebp
	.loc	0 0 9                           # x264_src/output/matroska_ebml.c:0:9
	leal	(%rax,%rax), %ecx
.Ltmp153:
	.loc	0 98 23 is_stmt 1               # x264_src/output/matroska_ebml.c:98:23
	testl	%eax, %eax
	movl	$16, %eax
	cmovnel	%ecx, %eax
.Ltmp154:
	#DEBUG_VALUE: dn <- $eax
	.p2align	4, 0x90
.LBB2_33:                               # %while.cond.i.i547
                                        # =>This Inner Loop Header: Depth=1
	#DEBUG_VALUE: mk_writeHeader:w <- $r14
	#DEBUG_VALUE: mk_writeHeader:writing_app <- [DW_OP_plus_uconst 32] [$rsp+0]
	#DEBUG_VALUE: mk_writeHeader:codec_id <- [DW_OP_LLVM_entry_value 1] $rdx
	#DEBUG_VALUE: mk_writeHeader:codec_private <- [DW_OP_LLVM_entry_value 1] $rcx
	#DEBUG_VALUE: mk_writeHeader:codec_private_size <- [DW_OP_LLVM_entry_value 1] $r8d
	#DEBUG_VALUE: mk_writeHeader:default_frame_duration <- [DW_OP_LLVM_entry_value 1] $r9
	#DEBUG_VALUE: mk_writeHeader:c <- $r12
	#DEBUG_VALUE: mk_write_uint:c <- $r12
	#DEBUG_VALUE: mk_write_uint:id <- 17143
	#DEBUG_VALUE: mk_write_uint:ui <- 1
	#DEBUG_VALUE: mk_write_uint:c_ui <- [DW_OP_LLVM_fragment 0 8] 0
	#DEBUG_VALUE: mk_write_uint:c_ui <- [DW_OP_LLVM_fragment 8 8] 0
	#DEBUG_VALUE: mk_write_uint:c_ui <- [DW_OP_LLVM_fragment 16 8] 0
	#DEBUG_VALUE: mk_write_uint:c_ui <- [DW_OP_LLVM_fragment 24 8] 0
	#DEBUG_VALUE: mk_write_uint:c_ui <- [DW_OP_LLVM_fragment 32 8] 0
	#DEBUG_VALUE: mk_write_uint:c_ui <- [DW_OP_LLVM_fragment 40 8] 0
	#DEBUG_VALUE: mk_write_uint:c_ui <- [DW_OP_LLVM_fragment 48 8] 0
	#DEBUG_VALUE: mk_write_uint:c_ui <- [DW_OP_LLVM_fragment 56 8] 1
	#DEBUG_VALUE: mk_write_uint:i <- 6
	#DEBUG_VALUE: mk_write_size:c <- $r12
	#DEBUG_VALUE: mk_write_size:size <- 1
	#DEBUG_VALUE: mk_write_size:c_size <- [DW_OP_LLVM_fragment 0 8] 8
	#DEBUG_VALUE: mk_write_size:c_size <- [DW_OP_LLVM_fragment 8 8] 0
	#DEBUG_VALUE: mk_write_size:c_size <- [DW_OP_LLVM_fragment 16 8] 0
	#DEBUG_VALUE: mk_write_size:c_size <- [DW_OP_LLVM_fragment 24 8] 0
	#DEBUG_VALUE: mk_write_size:c_size <- [DW_OP_LLVM_fragment 32 8] -127
	#DEBUG_VALUE: mk_append_context_data:c <- $r12
	#DEBUG_VALUE: mk_append_context_data:size <- 1
	#DEBUG_VALUE: mk_append_context_data:ns <- $ebp
	#DEBUG_VALUE: dn <- $eax
	.loc	0 0 0 is_stmt 0                 # x264_src/output/matroska_ebml.c:0:0
	movl	%eax, %ebx
.Ltmp155:
	#DEBUG_VALUE: dn <- $ebx
	#DEBUG_VALUE: dn <- $ebx
	.loc	0 100 16 is_stmt 1              # x264_src/output/matroska_ebml.c:100:16
	leal	(%rbx,%rbx), %eax
.Ltmp156:
	#DEBUG_VALUE: dn <- $eax
	.loc	0 99 19                         # x264_src/output/matroska_ebml.c:99:19
	cmpl	%ebx, %ebp
	.loc	0 99 9 is_stmt 0                # x264_src/output/matroska_ebml.c:99:9
	ja	.LBB2_33
.Ltmp157:
# %bb.34:                               # %while.end.i.i551
	#DEBUG_VALUE: mk_writeHeader:w <- $r14
	#DEBUG_VALUE: mk_writeHeader:writing_app <- [DW_OP_plus_uconst 32] [$rsp+0]
	#DEBUG_VALUE: mk_writeHeader:codec_id <- [DW_OP_LLVM_entry_value 1] $rdx
	#DEBUG_VALUE: mk_writeHeader:codec_private <- [DW_OP_LLVM_entry_value 1] $rcx
	#DEBUG_VALUE: mk_writeHeader:codec_private_size <- [DW_OP_LLVM_entry_value 1] $r8d
	#DEBUG_VALUE: mk_writeHeader:default_frame_duration <- [DW_OP_LLVM_entry_value 1] $r9
	#DEBUG_VALUE: mk_writeHeader:c <- $r12
	#DEBUG_VALUE: mk_write_uint:c <- $r12
	#DEBUG_VALUE: mk_write_uint:id <- 17143
	#DEBUG_VALUE: mk_write_uint:ui <- 1
	#DEBUG_VALUE: mk_write_uint:c_ui <- [DW_OP_LLVM_fragment 0 8] 0
	#DEBUG_VALUE: mk_write_uint:c_ui <- [DW_OP_LLVM_fragment 8 8] 0
	#DEBUG_VALUE: mk_write_uint:c_ui <- [DW_OP_LLVM_fragment 16 8] 0
	#DEBUG_VALUE: mk_write_uint:c_ui <- [DW_OP_LLVM_fragment 24 8] 0
	#DEBUG_VALUE: mk_write_uint:c_ui <- [DW_OP_LLVM_fragment 32 8] 0
	#DEBUG_VALUE: mk_write_uint:c_ui <- [DW_OP_LLVM_fragment 40 8] 0
	#DEBUG_VALUE: mk_write_uint:c_ui <- [DW_OP_LLVM_fragment 48 8] 0
	#DEBUG_VALUE: mk_write_uint:c_ui <- [DW_OP_LLVM_fragment 56 8] 1
	#DEBUG_VALUE: mk_write_uint:i <- 6
	#DEBUG_VALUE: mk_write_size:c <- $r12
	#DEBUG_VALUE: mk_write_size:size <- 1
	#DEBUG_VALUE: mk_write_size:c_size <- [DW_OP_LLVM_fragment 0 8] 8
	#DEBUG_VALUE: mk_write_size:c_size <- [DW_OP_LLVM_fragment 8 8] 0
	#DEBUG_VALUE: mk_write_size:c_size <- [DW_OP_LLVM_fragment 16 8] 0
	#DEBUG_VALUE: mk_write_size:c_size <- [DW_OP_LLVM_fragment 24 8] 0
	#DEBUG_VALUE: mk_write_size:c_size <- [DW_OP_LLVM_fragment 32 8] -127
	#DEBUG_VALUE: mk_append_context_data:c <- $r12
	#DEBUG_VALUE: mk_append_context_data:size <- 1
	#DEBUG_VALUE: mk_append_context_data:ns <- $ebp
	#DEBUG_VALUE: dn <- $eax
	.loc	0 102 26 is_stmt 1              # x264_src/output/matroska_ebml.c:102:26
	movq	40(%r12), %rdi
	.loc	0 102 32 is_stmt 0              # x264_src/output/matroska_ebml.c:102:32
	movl	%ebx, %esi
	.loc	0 102 14                        # x264_src/output/matroska_ebml.c:102:14
	callq	realloc@PLT
.Ltmp158:
	#DEBUG_VALUE: dp <- $rax
	.loc	0 103 14 is_stmt 1              # x264_src/output/matroska_ebml.c:103:14
	testq	%rax, %rax
.Ltmp159:
	.loc	0 103 13 is_stmt 0              # x264_src/output/matroska_ebml.c:103:13
	je	.LBB2_137
.Ltmp160:
# %bb.35:                               # %if.end.i.i556
	#DEBUG_VALUE: mk_writeHeader:w <- $r14
	#DEBUG_VALUE: mk_writeHeader:writing_app <- [DW_OP_plus_uconst 32] [$rsp+0]
	#DEBUG_VALUE: mk_writeHeader:codec_id <- [DW_OP_LLVM_entry_value 1] $rdx
	#DEBUG_VALUE: mk_writeHeader:codec_private <- [DW_OP_LLVM_entry_value 1] $rcx
	#DEBUG_VALUE: mk_writeHeader:codec_private_size <- [DW_OP_LLVM_entry_value 1] $r8d
	#DEBUG_VALUE: mk_writeHeader:default_frame_duration <- [DW_OP_LLVM_entry_value 1] $r9
	#DEBUG_VALUE: mk_writeHeader:c <- $r12
	#DEBUG_VALUE: mk_write_uint:c <- $r12
	#DEBUG_VALUE: mk_write_uint:id <- 17143
	#DEBUG_VALUE: mk_write_uint:ui <- 1
	#DEBUG_VALUE: mk_write_uint:c_ui <- [DW_OP_LLVM_fragment 0 8] 0
	#DEBUG_VALUE: mk_write_uint:c_ui <- [DW_OP_LLVM_fragment 8 8] 0
	#DEBUG_VALUE: mk_write_uint:c_ui <- [DW_OP_LLVM_fragment 16 8] 0
	#DEBUG_VALUE: mk_write_uint:c_ui <- [DW_OP_LLVM_fragment 24 8] 0
	#DEBUG_VALUE: mk_write_uint:c_ui <- [DW_OP_LLVM_fragment 32 8] 0
	#DEBUG_VALUE: mk_write_uint:c_ui <- [DW_OP_LLVM_fragment 40 8] 0
	#DEBUG_VALUE: mk_write_uint:c_ui <- [DW_OP_LLVM_fragment 48 8] 0
	#DEBUG_VALUE: mk_write_uint:c_ui <- [DW_OP_LLVM_fragment 56 8] 1
	#DEBUG_VALUE: mk_write_uint:i <- 6
	#DEBUG_VALUE: mk_write_size:c <- $r12
	#DEBUG_VALUE: mk_write_size:size <- 1
	#DEBUG_VALUE: mk_write_size:c_size <- [DW_OP_LLVM_fragment 0 8] 8
	#DEBUG_VALUE: mk_write_size:c_size <- [DW_OP_LLVM_fragment 8 8] 0
	#DEBUG_VALUE: mk_write_size:c_size <- [DW_OP_LLVM_fragment 16 8] 0
	#DEBUG_VALUE: mk_write_size:c_size <- [DW_OP_LLVM_fragment 24 8] 0
	#DEBUG_VALUE: mk_write_size:c_size <- [DW_OP_LLVM_fragment 32 8] -127
	#DEBUG_VALUE: mk_append_context_data:c <- $r12
	#DEBUG_VALUE: mk_append_context_data:size <- 1
	#DEBUG_VALUE: mk_append_context_data:ns <- $ebp
	#DEBUG_VALUE: dp <- $rax
	.loc	0 106 17 is_stmt 1              # x264_src/output/matroska_ebml.c:106:17
	movq	%rax, 40(%r12)
	.loc	0 107 18                        # x264_src/output/matroska_ebml.c:107:18
	movl	%ebx, 52(%r12)
.Ltmp161:
	.loc	0 110 33                        # x264_src/output/matroska_ebml.c:110:33
	movl	48(%r12), %ebx
	jmp	.LBB2_37
.Ltmp162:
.LBB2_36:                               # %entry.if.end11_crit_edge.i.i536
	#DEBUG_VALUE: mk_writeHeader:w <- $r14
	#DEBUG_VALUE: mk_writeHeader:writing_app <- [DW_OP_plus_uconst 32] [$rsp+0]
	#DEBUG_VALUE: mk_writeHeader:codec_id <- [DW_OP_LLVM_entry_value 1] $rdx
	#DEBUG_VALUE: mk_writeHeader:codec_private <- [DW_OP_LLVM_entry_value 1] $rcx
	#DEBUG_VALUE: mk_writeHeader:codec_private_size <- [DW_OP_LLVM_entry_value 1] $r8d
	#DEBUG_VALUE: mk_writeHeader:default_frame_duration <- [DW_OP_LLVM_entry_value 1] $r9
	#DEBUG_VALUE: mk_writeHeader:c <- $r12
	#DEBUG_VALUE: mk_write_uint:c <- $r12
	#DEBUG_VALUE: mk_write_uint:id <- 17143
	#DEBUG_VALUE: mk_write_uint:ui <- 1
	#DEBUG_VALUE: mk_write_uint:c_ui <- [DW_OP_LLVM_fragment 0 8] 0
	#DEBUG_VALUE: mk_write_uint:c_ui <- [DW_OP_LLVM_fragment 8 8] 0
	#DEBUG_VALUE: mk_write_uint:c_ui <- [DW_OP_LLVM_fragment 16 8] 0
	#DEBUG_VALUE: mk_write_uint:c_ui <- [DW_OP_LLVM_fragment 24 8] 0
	#DEBUG_VALUE: mk_write_uint:c_ui <- [DW_OP_LLVM_fragment 32 8] 0
	#DEBUG_VALUE: mk_write_uint:c_ui <- [DW_OP_LLVM_fragment 40 8] 0
	#DEBUG_VALUE: mk_write_uint:c_ui <- [DW_OP_LLVM_fragment 48 8] 0
	#DEBUG_VALUE: mk_write_uint:c_ui <- [DW_OP_LLVM_fragment 56 8] 1
	#DEBUG_VALUE: mk_write_uint:i <- 6
	#DEBUG_VALUE: mk_write_size:c <- $r12
	#DEBUG_VALUE: mk_write_size:size <- 1
	#DEBUG_VALUE: mk_write_size:c_size <- [DW_OP_LLVM_fragment 0 8] 8
	#DEBUG_VALUE: mk_write_size:c_size <- [DW_OP_LLVM_fragment 8 8] 0
	#DEBUG_VALUE: mk_write_size:c_size <- [DW_OP_LLVM_fragment 16 8] 0
	#DEBUG_VALUE: mk_write_size:c_size <- [DW_OP_LLVM_fragment 24 8] 0
	#DEBUG_VALUE: mk_write_size:c_size <- [DW_OP_LLVM_fragment 32 8] -127
	#DEBUG_VALUE: mk_append_context_data:c <- $r12
	#DEBUG_VALUE: mk_append_context_data:size <- 1
	#DEBUG_VALUE: mk_append_context_data:ns <- $ebp
	.loc	0 110 23 is_stmt 0              # x264_src/output/matroska_ebml.c:110:23
	movq	40(%r12), %rax
.Ltmp163:
.LBB2_37:                               # %do.body31.i320
	#DEBUG_VALUE: mk_writeHeader:w <- $r14
	#DEBUG_VALUE: mk_writeHeader:writing_app <- [DW_OP_plus_uconst 32] [$rsp+0]
	#DEBUG_VALUE: mk_writeHeader:codec_id <- [DW_OP_LLVM_entry_value 1] $rdx
	#DEBUG_VALUE: mk_writeHeader:codec_private <- [DW_OP_LLVM_entry_value 1] $rcx
	#DEBUG_VALUE: mk_writeHeader:codec_private_size <- [DW_OP_LLVM_entry_value 1] $r8d
	#DEBUG_VALUE: mk_writeHeader:default_frame_duration <- [DW_OP_LLVM_entry_value 1] $r9
	#DEBUG_VALUE: mk_writeHeader:c <- $r12
	#DEBUG_VALUE: mk_write_uint:c <- $r12
	#DEBUG_VALUE: mk_write_uint:id <- 17143
	#DEBUG_VALUE: mk_write_uint:ui <- 1
	#DEBUG_VALUE: mk_write_uint:c_ui <- [DW_OP_LLVM_fragment 0 8] 0
	#DEBUG_VALUE: mk_write_uint:c_ui <- [DW_OP_LLVM_fragment 8 8] 0
	#DEBUG_VALUE: mk_write_uint:c_ui <- [DW_OP_LLVM_fragment 16 8] 0
	#DEBUG_VALUE: mk_write_uint:c_ui <- [DW_OP_LLVM_fragment 24 8] 0
	#DEBUG_VALUE: mk_write_uint:c_ui <- [DW_OP_LLVM_fragment 32 8] 0
	#DEBUG_VALUE: mk_write_uint:c_ui <- [DW_OP_LLVM_fragment 40 8] 0
	#DEBUG_VALUE: mk_write_uint:c_ui <- [DW_OP_LLVM_fragment 48 8] 0
	#DEBUG_VALUE: mk_write_uint:c_ui <- [DW_OP_LLVM_fragment 56 8] 1
	#DEBUG_VALUE: mk_write_uint:i <- 6
	#DEBUG_VALUE: mk_write_size:c <- $r12
	#DEBUG_VALUE: mk_write_size:size <- 1
	#DEBUG_VALUE: mk_write_size:c_size <- [DW_OP_LLVM_fragment 0 8] 8
	#DEBUG_VALUE: mk_write_size:c_size <- [DW_OP_LLVM_fragment 8 8] 0
	#DEBUG_VALUE: mk_write_size:c_size <- [DW_OP_LLVM_fragment 16 8] 0
	#DEBUG_VALUE: mk_write_size:c_size <- [DW_OP_LLVM_fragment 24 8] 0
	#DEBUG_VALUE: mk_write_size:c_size <- [DW_OP_LLVM_fragment 32 8] -127
	#DEBUG_VALUE: mk_append_context_data:c <- $r12
	#DEBUG_VALUE: mk_append_context_data:size <- 1
	#DEBUG_VALUE: mk_append_context_data:ns <- $ebp
	.loc	0 110 28                        # x264_src/output/matroska_ebml.c:110:28
	movl	%ebx, %ecx
	.loc	0 110 5                         # x264_src/output/matroska_ebml.c:110:5
	movb	$-127, (%rax,%rcx)
	.loc	0 112 14 is_stmt 1              # x264_src/output/matroska_ebml.c:112:14
	movl	%ebp, 48(%r12)
.Ltmp164:
	#DEBUG_VALUE: mk_append_context_data:c <- $r12
	#DEBUG_VALUE: mk_append_context_data:data <- undef
	#DEBUG_VALUE: mk_append_context_data:size <- 1
	.loc	0 93 28                         # x264_src/output/matroska_ebml.c:93:28
	leal	8(%r13), %r15d
.Ltmp165:
	#DEBUG_VALUE: mk_append_context_data:ns <- $r15d
	.loc	0 95 17                         # x264_src/output/matroska_ebml.c:95:17
	movl	52(%r12), %eax
	.loc	0 95 12 is_stmt 0               # x264_src/output/matroska_ebml.c:95:12
	cmpl	%eax, %r15d
.Ltmp166:
	.loc	0 95 9                          # x264_src/output/matroska_ebml.c:95:9
	jbe	.LBB2_42
.Ltmp167:
# %bb.38:                               # %if.then.i.i333
	#DEBUG_VALUE: mk_writeHeader:w <- $r14
	#DEBUG_VALUE: mk_writeHeader:writing_app <- [DW_OP_plus_uconst 32] [$rsp+0]
	#DEBUG_VALUE: mk_writeHeader:codec_id <- [DW_OP_LLVM_entry_value 1] $rdx
	#DEBUG_VALUE: mk_writeHeader:codec_private <- [DW_OP_LLVM_entry_value 1] $rcx
	#DEBUG_VALUE: mk_writeHeader:codec_private_size <- [DW_OP_LLVM_entry_value 1] $r8d
	#DEBUG_VALUE: mk_writeHeader:default_frame_duration <- [DW_OP_LLVM_entry_value 1] $r9
	#DEBUG_VALUE: mk_writeHeader:c <- $r12
	#DEBUG_VALUE: mk_write_uint:c <- $r12
	#DEBUG_VALUE: mk_write_uint:id <- 17143
	#DEBUG_VALUE: mk_write_uint:ui <- 1
	#DEBUG_VALUE: mk_write_uint:c_ui <- [DW_OP_LLVM_fragment 0 8] 0
	#DEBUG_VALUE: mk_write_uint:c_ui <- [DW_OP_LLVM_fragment 8 8] 0
	#DEBUG_VALUE: mk_write_uint:c_ui <- [DW_OP_LLVM_fragment 16 8] 0
	#DEBUG_VALUE: mk_write_uint:c_ui <- [DW_OP_LLVM_fragment 24 8] 0
	#DEBUG_VALUE: mk_write_uint:c_ui <- [DW_OP_LLVM_fragment 32 8] 0
	#DEBUG_VALUE: mk_write_uint:c_ui <- [DW_OP_LLVM_fragment 40 8] 0
	#DEBUG_VALUE: mk_write_uint:c_ui <- [DW_OP_LLVM_fragment 48 8] 0
	#DEBUG_VALUE: mk_write_uint:c_ui <- [DW_OP_LLVM_fragment 56 8] 1
	#DEBUG_VALUE: mk_write_uint:i <- 6
	#DEBUG_VALUE: mk_append_context_data:c <- $r12
	#DEBUG_VALUE: mk_append_context_data:size <- 1
	#DEBUG_VALUE: mk_append_context_data:ns <- $r15d
	.loc	0 0 9                           # x264_src/output/matroska_ebml.c:0:9
	leal	(%rax,%rax), %ecx
.Ltmp168:
	.loc	0 98 23 is_stmt 1               # x264_src/output/matroska_ebml.c:98:23
	testl	%eax, %eax
	movl	$16, %eax
	cmovnel	%ecx, %eax
.Ltmp169:
	#DEBUG_VALUE: dn <- $eax
	.p2align	4, 0x90
.LBB2_39:                               # %while.cond.i.i337
                                        # =>This Inner Loop Header: Depth=1
	#DEBUG_VALUE: mk_writeHeader:w <- $r14
	#DEBUG_VALUE: mk_writeHeader:writing_app <- [DW_OP_plus_uconst 32] [$rsp+0]
	#DEBUG_VALUE: mk_writeHeader:codec_id <- [DW_OP_LLVM_entry_value 1] $rdx
	#DEBUG_VALUE: mk_writeHeader:codec_private <- [DW_OP_LLVM_entry_value 1] $rcx
	#DEBUG_VALUE: mk_writeHeader:codec_private_size <- [DW_OP_LLVM_entry_value 1] $r8d
	#DEBUG_VALUE: mk_writeHeader:default_frame_duration <- [DW_OP_LLVM_entry_value 1] $r9
	#DEBUG_VALUE: mk_writeHeader:c <- $r12
	#DEBUG_VALUE: mk_write_uint:c <- $r12
	#DEBUG_VALUE: mk_write_uint:id <- 17143
	#DEBUG_VALUE: mk_write_uint:ui <- 1
	#DEBUG_VALUE: mk_write_uint:c_ui <- [DW_OP_LLVM_fragment 0 8] 0
	#DEBUG_VALUE: mk_write_uint:c_ui <- [DW_OP_LLVM_fragment 8 8] 0
	#DEBUG_VALUE: mk_write_uint:c_ui <- [DW_OP_LLVM_fragment 16 8] 0
	#DEBUG_VALUE: mk_write_uint:c_ui <- [DW_OP_LLVM_fragment 24 8] 0
	#DEBUG_VALUE: mk_write_uint:c_ui <- [DW_OP_LLVM_fragment 32 8] 0
	#DEBUG_VALUE: mk_write_uint:c_ui <- [DW_OP_LLVM_fragment 40 8] 0
	#DEBUG_VALUE: mk_write_uint:c_ui <- [DW_OP_LLVM_fragment 48 8] 0
	#DEBUG_VALUE: mk_write_uint:c_ui <- [DW_OP_LLVM_fragment 56 8] 1
	#DEBUG_VALUE: mk_write_uint:i <- 6
	#DEBUG_VALUE: mk_append_context_data:c <- $r12
	#DEBUG_VALUE: mk_append_context_data:size <- 1
	#DEBUG_VALUE: mk_append_context_data:ns <- $r15d
	#DEBUG_VALUE: dn <- $eax
	.loc	0 0 0 is_stmt 0                 # x264_src/output/matroska_ebml.c:0:0
	movl	%eax, %ebx
.Ltmp170:
	#DEBUG_VALUE: dn <- $ebx
	#DEBUG_VALUE: dn <- $ebx
	.loc	0 100 16 is_stmt 1              # x264_src/output/matroska_ebml.c:100:16
	leal	(%rbx,%rbx), %eax
.Ltmp171:
	#DEBUG_VALUE: dn <- $eax
	.loc	0 99 19                         # x264_src/output/matroska_ebml.c:99:19
	cmpl	%ebx, %r15d
	.loc	0 99 9 is_stmt 0                # x264_src/output/matroska_ebml.c:99:9
	ja	.LBB2_39
.Ltmp172:
# %bb.40:                               # %while.end.i.i341
	#DEBUG_VALUE: mk_writeHeader:w <- $r14
	#DEBUG_VALUE: mk_writeHeader:writing_app <- [DW_OP_plus_uconst 32] [$rsp+0]
	#DEBUG_VALUE: mk_writeHeader:codec_id <- [DW_OP_LLVM_entry_value 1] $rdx
	#DEBUG_VALUE: mk_writeHeader:codec_private <- [DW_OP_LLVM_entry_value 1] $rcx
	#DEBUG_VALUE: mk_writeHeader:codec_private_size <- [DW_OP_LLVM_entry_value 1] $r8d
	#DEBUG_VALUE: mk_writeHeader:default_frame_duration <- [DW_OP_LLVM_entry_value 1] $r9
	#DEBUG_VALUE: mk_writeHeader:c <- $r12
	#DEBUG_VALUE: mk_write_uint:c <- $r12
	#DEBUG_VALUE: mk_write_uint:id <- 17143
	#DEBUG_VALUE: mk_write_uint:ui <- 1
	#DEBUG_VALUE: mk_write_uint:c_ui <- [DW_OP_LLVM_fragment 0 8] 0
	#DEBUG_VALUE: mk_write_uint:c_ui <- [DW_OP_LLVM_fragment 8 8] 0
	#DEBUG_VALUE: mk_write_uint:c_ui <- [DW_OP_LLVM_fragment 16 8] 0
	#DEBUG_VALUE: mk_write_uint:c_ui <- [DW_OP_LLVM_fragment 24 8] 0
	#DEBUG_VALUE: mk_write_uint:c_ui <- [DW_OP_LLVM_fragment 32 8] 0
	#DEBUG_VALUE: mk_write_uint:c_ui <- [DW_OP_LLVM_fragment 40 8] 0
	#DEBUG_VALUE: mk_write_uint:c_ui <- [DW_OP_LLVM_fragment 48 8] 0
	#DEBUG_VALUE: mk_write_uint:c_ui <- [DW_OP_LLVM_fragment 56 8] 1
	#DEBUG_VALUE: mk_write_uint:i <- 6
	#DEBUG_VALUE: mk_append_context_data:c <- $r12
	#DEBUG_VALUE: mk_append_context_data:size <- 1
	#DEBUG_VALUE: mk_append_context_data:ns <- $r15d
	#DEBUG_VALUE: dn <- $eax
	.loc	0 102 26 is_stmt 1              # x264_src/output/matroska_ebml.c:102:26
	movq	40(%r12), %rdi
	.loc	0 102 32 is_stmt 0              # x264_src/output/matroska_ebml.c:102:32
	movl	%ebx, %esi
	.loc	0 102 14                        # x264_src/output/matroska_ebml.c:102:14
	callq	realloc@PLT
.Ltmp173:
	#DEBUG_VALUE: dp <- $rax
	.loc	0 103 14 is_stmt 1              # x264_src/output/matroska_ebml.c:103:14
	testq	%rax, %rax
.Ltmp174:
	.loc	0 103 13 is_stmt 0              # x264_src/output/matroska_ebml.c:103:13
	je	.LBB2_137
.Ltmp175:
# %bb.41:                               # %if.end.i.i346
	#DEBUG_VALUE: mk_writeHeader:w <- $r14
	#DEBUG_VALUE: mk_writeHeader:writing_app <- [DW_OP_plus_uconst 32] [$rsp+0]
	#DEBUG_VALUE: mk_writeHeader:codec_id <- [DW_OP_LLVM_entry_value 1] $rdx
	#DEBUG_VALUE: mk_writeHeader:codec_private <- [DW_OP_LLVM_entry_value 1] $rcx
	#DEBUG_VALUE: mk_writeHeader:codec_private_size <- [DW_OP_LLVM_entry_value 1] $r8d
	#DEBUG_VALUE: mk_writeHeader:default_frame_duration <- [DW_OP_LLVM_entry_value 1] $r9
	#DEBUG_VALUE: mk_writeHeader:c <- $r12
	#DEBUG_VALUE: mk_write_uint:c <- $r12
	#DEBUG_VALUE: mk_write_uint:id <- 17143
	#DEBUG_VALUE: mk_write_uint:ui <- 1
	#DEBUG_VALUE: mk_write_uint:c_ui <- [DW_OP_LLVM_fragment 0 8] 0
	#DEBUG_VALUE: mk_write_uint:c_ui <- [DW_OP_LLVM_fragment 8 8] 0
	#DEBUG_VALUE: mk_write_uint:c_ui <- [DW_OP_LLVM_fragment 16 8] 0
	#DEBUG_VALUE: mk_write_uint:c_ui <- [DW_OP_LLVM_fragment 24 8] 0
	#DEBUG_VALUE: mk_write_uint:c_ui <- [DW_OP_LLVM_fragment 32 8] 0
	#DEBUG_VALUE: mk_write_uint:c_ui <- [DW_OP_LLVM_fragment 40 8] 0
	#DEBUG_VALUE: mk_write_uint:c_ui <- [DW_OP_LLVM_fragment 48 8] 0
	#DEBUG_VALUE: mk_write_uint:c_ui <- [DW_OP_LLVM_fragment 56 8] 1
	#DEBUG_VALUE: mk_write_uint:i <- 6
	#DEBUG_VALUE: mk_append_context_data:c <- $r12
	#DEBUG_VALUE: mk_append_context_data:size <- 1
	#DEBUG_VALUE: mk_append_context_data:ns <- $r15d
	#DEBUG_VALUE: dp <- $rax
	.loc	0 106 17 is_stmt 1              # x264_src/output/matroska_ebml.c:106:17
	movq	%rax, 40(%r12)
	.loc	0 107 18                        # x264_src/output/matroska_ebml.c:107:18
	movl	%ebx, 52(%r12)
.Ltmp176:
	.loc	0 110 33                        # x264_src/output/matroska_ebml.c:110:33
	movl	48(%r12), %ebp
	jmp	.LBB2_43
.Ltmp177:
.LBB2_42:                               # %entry.if.end11_crit_edge.i.i326
	#DEBUG_VALUE: mk_writeHeader:w <- $r14
	#DEBUG_VALUE: mk_writeHeader:writing_app <- [DW_OP_plus_uconst 32] [$rsp+0]
	#DEBUG_VALUE: mk_writeHeader:codec_id <- [DW_OP_LLVM_entry_value 1] $rdx
	#DEBUG_VALUE: mk_writeHeader:codec_private <- [DW_OP_LLVM_entry_value 1] $rcx
	#DEBUG_VALUE: mk_writeHeader:codec_private_size <- [DW_OP_LLVM_entry_value 1] $r8d
	#DEBUG_VALUE: mk_writeHeader:default_frame_duration <- [DW_OP_LLVM_entry_value 1] $r9
	#DEBUG_VALUE: mk_writeHeader:c <- $r12
	#DEBUG_VALUE: mk_write_uint:c <- $r12
	#DEBUG_VALUE: mk_write_uint:id <- 17143
	#DEBUG_VALUE: mk_write_uint:ui <- 1
	#DEBUG_VALUE: mk_write_uint:c_ui <- [DW_OP_LLVM_fragment 0 8] 0
	#DEBUG_VALUE: mk_write_uint:c_ui <- [DW_OP_LLVM_fragment 8 8] 0
	#DEBUG_VALUE: mk_write_uint:c_ui <- [DW_OP_LLVM_fragment 16 8] 0
	#DEBUG_VALUE: mk_write_uint:c_ui <- [DW_OP_LLVM_fragment 24 8] 0
	#DEBUG_VALUE: mk_write_uint:c_ui <- [DW_OP_LLVM_fragment 32 8] 0
	#DEBUG_VALUE: mk_write_uint:c_ui <- [DW_OP_LLVM_fragment 40 8] 0
	#DEBUG_VALUE: mk_write_uint:c_ui <- [DW_OP_LLVM_fragment 48 8] 0
	#DEBUG_VALUE: mk_write_uint:c_ui <- [DW_OP_LLVM_fragment 56 8] 1
	#DEBUG_VALUE: mk_write_uint:i <- 6
	#DEBUG_VALUE: mk_append_context_data:c <- $r12
	#DEBUG_VALUE: mk_append_context_data:size <- 1
	#DEBUG_VALUE: mk_append_context_data:ns <- $r15d
	.loc	0 110 23 is_stmt 0              # x264_src/output/matroska_ebml.c:110:23
	movq	40(%r12), %rax
.Ltmp178:
.LBB2_43:                               # %do.body15
	#DEBUG_VALUE: mk_writeHeader:w <- $r14
	#DEBUG_VALUE: mk_writeHeader:writing_app <- [DW_OP_plus_uconst 32] [$rsp+0]
	#DEBUG_VALUE: mk_writeHeader:codec_id <- [DW_OP_LLVM_entry_value 1] $rdx
	#DEBUG_VALUE: mk_writeHeader:codec_private <- [DW_OP_LLVM_entry_value 1] $rcx
	#DEBUG_VALUE: mk_writeHeader:codec_private_size <- [DW_OP_LLVM_entry_value 1] $r8d
	#DEBUG_VALUE: mk_writeHeader:default_frame_duration <- [DW_OP_LLVM_entry_value 1] $r9
	#DEBUG_VALUE: mk_writeHeader:c <- $r12
	#DEBUG_VALUE: mk_write_uint:c <- $r12
	#DEBUG_VALUE: mk_write_uint:id <- 17143
	#DEBUG_VALUE: mk_write_uint:ui <- 1
	#DEBUG_VALUE: mk_write_uint:c_ui <- [DW_OP_LLVM_fragment 0 8] 0
	#DEBUG_VALUE: mk_write_uint:c_ui <- [DW_OP_LLVM_fragment 8 8] 0
	#DEBUG_VALUE: mk_write_uint:c_ui <- [DW_OP_LLVM_fragment 16 8] 0
	#DEBUG_VALUE: mk_write_uint:c_ui <- [DW_OP_LLVM_fragment 24 8] 0
	#DEBUG_VALUE: mk_write_uint:c_ui <- [DW_OP_LLVM_fragment 32 8] 0
	#DEBUG_VALUE: mk_write_uint:c_ui <- [DW_OP_LLVM_fragment 40 8] 0
	#DEBUG_VALUE: mk_write_uint:c_ui <- [DW_OP_LLVM_fragment 48 8] 0
	#DEBUG_VALUE: mk_write_uint:c_ui <- [DW_OP_LLVM_fragment 56 8] 1
	#DEBUG_VALUE: mk_write_uint:i <- 6
	#DEBUG_VALUE: mk_append_context_data:c <- $r12
	#DEBUG_VALUE: mk_append_context_data:size <- 1
	#DEBUG_VALUE: mk_append_context_data:ns <- $r15d
	.loc	0 110 28                        # x264_src/output/matroska_ebml.c:110:28
	movl	%ebp, %ecx
	.loc	0 110 5                         # x264_src/output/matroska_ebml.c:110:5
	movb	$1, (%rax,%rcx)
	.loc	0 112 14 is_stmt 1              # x264_src/output/matroska_ebml.c:112:14
	movl	%r15d, 48(%r12)
.Ltmp179:
	#DEBUG_VALUE: mk_write_uint:c <- $r12
	#DEBUG_VALUE: mk_write_uint:id <- 17138
	#DEBUG_VALUE: mk_write_uint:ui <- 4
	#DEBUG_VALUE: mk_write_uint:c_ui <- [DW_OP_LLVM_fragment 0 8] 0
	#DEBUG_VALUE: mk_write_uint:c_ui <- [DW_OP_LLVM_fragment 8 8] 0
	#DEBUG_VALUE: mk_write_uint:c_ui <- [DW_OP_LLVM_fragment 16 8] 0
	#DEBUG_VALUE: mk_write_uint:c_ui <- [DW_OP_LLVM_fragment 24 8] 0
	#DEBUG_VALUE: mk_write_uint:c_ui <- [DW_OP_LLVM_fragment 32 8] 0
	#DEBUG_VALUE: mk_write_uint:c_ui <- [DW_OP_LLVM_fragment 40 8] 0
	#DEBUG_VALUE: mk_write_uint:c_ui <- [DW_OP_LLVM_fragment 48 8] 0
	#DEBUG_VALUE: mk_write_uint:c_ui <- [DW_OP_LLVM_fragment 56 8] 4
	#DEBUG_VALUE: mk_write_uint:i <- 0
	#DEBUG_VALUE: mk_write_id:c <- $r12
	#DEBUG_VALUE: mk_write_id:id <- 17138
	#DEBUG_VALUE: mk_write_id:c_id <- [DW_OP_LLVM_fragment 0 8] 0
	#DEBUG_VALUE: mk_write_id:c_id <- [DW_OP_LLVM_fragment 8 8] 0
	#DEBUG_VALUE: mk_write_id:c_id <- [DW_OP_LLVM_fragment 16 8] 66
	#DEBUG_VALUE: mk_write_id:c_id <- [DW_OP_LLVM_fragment 24 8] -14
	.loc	0 95 17                         # x264_src/output/matroska_ebml.c:95:17
	movl	52(%r12), %eax
.Ltmp180:
	#DEBUG_VALUE: mk_append_context_data:c <- $r12
	#DEBUG_VALUE: mk_append_context_data:data <- undef
	#DEBUG_VALUE: mk_append_context_data:data <- undef
	#DEBUG_VALUE: mk_append_context_data:size <- 2
	.loc	0 93 28                         # x264_src/output/matroska_ebml.c:93:28
	leal	10(%r13), %ebx
.Ltmp181:
	#DEBUG_VALUE: mk_append_context_data:ns <- $ebx
	.loc	0 95 12                         # x264_src/output/matroska_ebml.c:95:12
	cmpl	%eax, %ebx
.Ltmp182:
	.loc	0 95 9 is_stmt 0                # x264_src/output/matroska_ebml.c:95:9
	jbe	.LBB2_48
.Ltmp183:
# %bb.44:                               # %if.then.i68.i627
	#DEBUG_VALUE: mk_writeHeader:w <- $r14
	#DEBUG_VALUE: mk_writeHeader:writing_app <- [DW_OP_plus_uconst 32] [$rsp+0]
	#DEBUG_VALUE: mk_writeHeader:codec_id <- [DW_OP_LLVM_entry_value 1] $rdx
	#DEBUG_VALUE: mk_writeHeader:codec_private <- [DW_OP_LLVM_entry_value 1] $rcx
	#DEBUG_VALUE: mk_writeHeader:codec_private_size <- [DW_OP_LLVM_entry_value 1] $r8d
	#DEBUG_VALUE: mk_writeHeader:default_frame_duration <- [DW_OP_LLVM_entry_value 1] $r9
	#DEBUG_VALUE: mk_writeHeader:c <- $r12
	#DEBUG_VALUE: mk_write_uint:c <- $r12
	#DEBUG_VALUE: mk_write_uint:id <- 17138
	#DEBUG_VALUE: mk_write_uint:ui <- 4
	#DEBUG_VALUE: mk_write_uint:c_ui <- [DW_OP_LLVM_fragment 0 8] 0
	#DEBUG_VALUE: mk_write_uint:c_ui <- [DW_OP_LLVM_fragment 8 8] 0
	#DEBUG_VALUE: mk_write_uint:c_ui <- [DW_OP_LLVM_fragment 16 8] 0
	#DEBUG_VALUE: mk_write_uint:c_ui <- [DW_OP_LLVM_fragment 24 8] 0
	#DEBUG_VALUE: mk_write_uint:c_ui <- [DW_OP_LLVM_fragment 32 8] 0
	#DEBUG_VALUE: mk_write_uint:c_ui <- [DW_OP_LLVM_fragment 40 8] 0
	#DEBUG_VALUE: mk_write_uint:c_ui <- [DW_OP_LLVM_fragment 48 8] 0
	#DEBUG_VALUE: mk_write_uint:c_ui <- [DW_OP_LLVM_fragment 56 8] 4
	#DEBUG_VALUE: mk_write_uint:i <- 0
	#DEBUG_VALUE: mk_write_id:c <- $r12
	#DEBUG_VALUE: mk_write_id:id <- 17138
	#DEBUG_VALUE: mk_write_id:c_id <- [DW_OP_LLVM_fragment 0 8] 0
	#DEBUG_VALUE: mk_write_id:c_id <- [DW_OP_LLVM_fragment 8 8] 0
	#DEBUG_VALUE: mk_write_id:c_id <- [DW_OP_LLVM_fragment 16 8] 66
	#DEBUG_VALUE: mk_write_id:c_id <- [DW_OP_LLVM_fragment 24 8] -14
	#DEBUG_VALUE: mk_append_context_data:c <- $r12
	#DEBUG_VALUE: mk_append_context_data:size <- 2
	#DEBUG_VALUE: mk_append_context_data:ns <- $ebx
	.loc	0 0 9                           # x264_src/output/matroska_ebml.c:0:9
	leal	(%rax,%rax), %ecx
.Ltmp184:
	.loc	0 98 23 is_stmt 1               # x264_src/output/matroska_ebml.c:98:23
	testl	%eax, %eax
	movl	$16, %eax
	cmovnel	%ecx, %eax
.Ltmp185:
	#DEBUG_VALUE: dn <- $eax
	.p2align	4, 0x90
.LBB2_45:                               # %while.cond.i72.i631
                                        # =>This Inner Loop Header: Depth=1
	#DEBUG_VALUE: mk_writeHeader:w <- $r14
	#DEBUG_VALUE: mk_writeHeader:writing_app <- [DW_OP_plus_uconst 32] [$rsp+0]
	#DEBUG_VALUE: mk_writeHeader:codec_id <- [DW_OP_LLVM_entry_value 1] $rdx
	#DEBUG_VALUE: mk_writeHeader:codec_private <- [DW_OP_LLVM_entry_value 1] $rcx
	#DEBUG_VALUE: mk_writeHeader:codec_private_size <- [DW_OP_LLVM_entry_value 1] $r8d
	#DEBUG_VALUE: mk_writeHeader:default_frame_duration <- [DW_OP_LLVM_entry_value 1] $r9
	#DEBUG_VALUE: mk_writeHeader:c <- $r12
	#DEBUG_VALUE: mk_write_uint:c <- $r12
	#DEBUG_VALUE: mk_write_uint:id <- 17138
	#DEBUG_VALUE: mk_write_uint:ui <- 4
	#DEBUG_VALUE: mk_write_uint:c_ui <- [DW_OP_LLVM_fragment 0 8] 0
	#DEBUG_VALUE: mk_write_uint:c_ui <- [DW_OP_LLVM_fragment 8 8] 0
	#DEBUG_VALUE: mk_write_uint:c_ui <- [DW_OP_LLVM_fragment 16 8] 0
	#DEBUG_VALUE: mk_write_uint:c_ui <- [DW_OP_LLVM_fragment 24 8] 0
	#DEBUG_VALUE: mk_write_uint:c_ui <- [DW_OP_LLVM_fragment 32 8] 0
	#DEBUG_VALUE: mk_write_uint:c_ui <- [DW_OP_LLVM_fragment 40 8] 0
	#DEBUG_VALUE: mk_write_uint:c_ui <- [DW_OP_LLVM_fragment 48 8] 0
	#DEBUG_VALUE: mk_write_uint:c_ui <- [DW_OP_LLVM_fragment 56 8] 4
	#DEBUG_VALUE: mk_write_uint:i <- 0
	#DEBUG_VALUE: mk_write_id:c <- $r12
	#DEBUG_VALUE: mk_write_id:id <- 17138
	#DEBUG_VALUE: mk_write_id:c_id <- [DW_OP_LLVM_fragment 0 8] 0
	#DEBUG_VALUE: mk_write_id:c_id <- [DW_OP_LLVM_fragment 8 8] 0
	#DEBUG_VALUE: mk_write_id:c_id <- [DW_OP_LLVM_fragment 16 8] 66
	#DEBUG_VALUE: mk_write_id:c_id <- [DW_OP_LLVM_fragment 24 8] -14
	#DEBUG_VALUE: mk_append_context_data:c <- $r12
	#DEBUG_VALUE: mk_append_context_data:size <- 2
	#DEBUG_VALUE: mk_append_context_data:ns <- $ebx
	#DEBUG_VALUE: dn <- $eax
	.loc	0 0 0 is_stmt 0                 # x264_src/output/matroska_ebml.c:0:0
	movl	%eax, %r15d
.Ltmp186:
	#DEBUG_VALUE: dn <- $r15d
	#DEBUG_VALUE: dn <- $r15d
	.loc	0 100 16 is_stmt 1              # x264_src/output/matroska_ebml.c:100:16
	leal	(%r15,%r15), %eax
.Ltmp187:
	#DEBUG_VALUE: dn <- $eax
	.loc	0 99 19                         # x264_src/output/matroska_ebml.c:99:19
	cmpl	%r15d, %ebx
	.loc	0 99 9 is_stmt 0                # x264_src/output/matroska_ebml.c:99:9
	ja	.LBB2_45
.Ltmp188:
# %bb.46:                               # %while.end.i76.i635
	#DEBUG_VALUE: mk_writeHeader:w <- $r14
	#DEBUG_VALUE: mk_writeHeader:writing_app <- [DW_OP_plus_uconst 32] [$rsp+0]
	#DEBUG_VALUE: mk_writeHeader:codec_id <- [DW_OP_LLVM_entry_value 1] $rdx
	#DEBUG_VALUE: mk_writeHeader:codec_private <- [DW_OP_LLVM_entry_value 1] $rcx
	#DEBUG_VALUE: mk_writeHeader:codec_private_size <- [DW_OP_LLVM_entry_value 1] $r8d
	#DEBUG_VALUE: mk_writeHeader:default_frame_duration <- [DW_OP_LLVM_entry_value 1] $r9
	#DEBUG_VALUE: mk_writeHeader:c <- $r12
	#DEBUG_VALUE: mk_write_uint:c <- $r12
	#DEBUG_VALUE: mk_write_uint:id <- 17138
	#DEBUG_VALUE: mk_write_uint:ui <- 4
	#DEBUG_VALUE: mk_write_uint:c_ui <- [DW_OP_LLVM_fragment 0 8] 0
	#DEBUG_VALUE: mk_write_uint:c_ui <- [DW_OP_LLVM_fragment 8 8] 0
	#DEBUG_VALUE: mk_write_uint:c_ui <- [DW_OP_LLVM_fragment 16 8] 0
	#DEBUG_VALUE: mk_write_uint:c_ui <- [DW_OP_LLVM_fragment 24 8] 0
	#DEBUG_VALUE: mk_write_uint:c_ui <- [DW_OP_LLVM_fragment 32 8] 0
	#DEBUG_VALUE: mk_write_uint:c_ui <- [DW_OP_LLVM_fragment 40 8] 0
	#DEBUG_VALUE: mk_write_uint:c_ui <- [DW_OP_LLVM_fragment 48 8] 0
	#DEBUG_VALUE: mk_write_uint:c_ui <- [DW_OP_LLVM_fragment 56 8] 4
	#DEBUG_VALUE: mk_write_uint:i <- 0
	#DEBUG_VALUE: mk_write_id:c <- $r12
	#DEBUG_VALUE: mk_write_id:id <- 17138
	#DEBUG_VALUE: mk_write_id:c_id <- [DW_OP_LLVM_fragment 0 8] 0
	#DEBUG_VALUE: mk_write_id:c_id <- [DW_OP_LLVM_fragment 8 8] 0
	#DEBUG_VALUE: mk_write_id:c_id <- [DW_OP_LLVM_fragment 16 8] 66
	#DEBUG_VALUE: mk_write_id:c_id <- [DW_OP_LLVM_fragment 24 8] -14
	#DEBUG_VALUE: mk_append_context_data:c <- $r12
	#DEBUG_VALUE: mk_append_context_data:size <- 2
	#DEBUG_VALUE: mk_append_context_data:ns <- $ebx
	#DEBUG_VALUE: dn <- $eax
	.loc	0 102 26 is_stmt 1              # x264_src/output/matroska_ebml.c:102:26
	movq	40(%r12), %rdi
	.loc	0 102 32 is_stmt 0              # x264_src/output/matroska_ebml.c:102:32
	movl	%r15d, %esi
	.loc	0 102 14                        # x264_src/output/matroska_ebml.c:102:14
	callq	realloc@PLT
.Ltmp189:
	#DEBUG_VALUE: dp <- $rax
	.loc	0 103 14 is_stmt 1              # x264_src/output/matroska_ebml.c:103:14
	testq	%rax, %rax
.Ltmp190:
	.loc	0 103 13 is_stmt 0              # x264_src/output/matroska_ebml.c:103:13
	je	.LBB2_137
.Ltmp191:
# %bb.47:                               # %if.end.i81.i640
	#DEBUG_VALUE: mk_writeHeader:w <- $r14
	#DEBUG_VALUE: mk_writeHeader:writing_app <- [DW_OP_plus_uconst 32] [$rsp+0]
	#DEBUG_VALUE: mk_writeHeader:codec_id <- [DW_OP_LLVM_entry_value 1] $rdx
	#DEBUG_VALUE: mk_writeHeader:codec_private <- [DW_OP_LLVM_entry_value 1] $rcx
	#DEBUG_VALUE: mk_writeHeader:codec_private_size <- [DW_OP_LLVM_entry_value 1] $r8d
	#DEBUG_VALUE: mk_writeHeader:default_frame_duration <- [DW_OP_LLVM_entry_value 1] $r9
	#DEBUG_VALUE: mk_writeHeader:c <- $r12
	#DEBUG_VALUE: mk_write_uint:c <- $r12
	#DEBUG_VALUE: mk_write_uint:id <- 17138
	#DEBUG_VALUE: mk_write_uint:ui <- 4
	#DEBUG_VALUE: mk_write_uint:c_ui <- [DW_OP_LLVM_fragment 0 8] 0
	#DEBUG_VALUE: mk_write_uint:c_ui <- [DW_OP_LLVM_fragment 8 8] 0
	#DEBUG_VALUE: mk_write_uint:c_ui <- [DW_OP_LLVM_fragment 16 8] 0
	#DEBUG_VALUE: mk_write_uint:c_ui <- [DW_OP_LLVM_fragment 24 8] 0
	#DEBUG_VALUE: mk_write_uint:c_ui <- [DW_OP_LLVM_fragment 32 8] 0
	#DEBUG_VALUE: mk_write_uint:c_ui <- [DW_OP_LLVM_fragment 40 8] 0
	#DEBUG_VALUE: mk_write_uint:c_ui <- [DW_OP_LLVM_fragment 48 8] 0
	#DEBUG_VALUE: mk_write_uint:c_ui <- [DW_OP_LLVM_fragment 56 8] 4
	#DEBUG_VALUE: mk_write_uint:i <- 0
	#DEBUG_VALUE: mk_write_id:c <- $r12
	#DEBUG_VALUE: mk_write_id:id <- 17138
	#DEBUG_VALUE: mk_write_id:c_id <- [DW_OP_LLVM_fragment 0 8] 0
	#DEBUG_VALUE: mk_write_id:c_id <- [DW_OP_LLVM_fragment 8 8] 0
	#DEBUG_VALUE: mk_write_id:c_id <- [DW_OP_LLVM_fragment 16 8] 66
	#DEBUG_VALUE: mk_write_id:c_id <- [DW_OP_LLVM_fragment 24 8] -14
	#DEBUG_VALUE: mk_append_context_data:c <- $r12
	#DEBUG_VALUE: mk_append_context_data:size <- 2
	#DEBUG_VALUE: mk_append_context_data:ns <- $ebx
	#DEBUG_VALUE: dp <- $rax
	.loc	0 106 17 is_stmt 1              # x264_src/output/matroska_ebml.c:106:17
	movq	%rax, 40(%r12)
	.loc	0 107 18                        # x264_src/output/matroska_ebml.c:107:18
	movl	%r15d, 52(%r12)
.Ltmp192:
	.loc	0 110 33                        # x264_src/output/matroska_ebml.c:110:33
	movl	48(%r12), %r15d
	jmp	.LBB2_49
.Ltmp193:
.LBB2_48:                               # %entry.if.end11_crit_edge.i61.i619
	#DEBUG_VALUE: mk_writeHeader:w <- $r14
	#DEBUG_VALUE: mk_writeHeader:writing_app <- [DW_OP_plus_uconst 32] [$rsp+0]
	#DEBUG_VALUE: mk_writeHeader:codec_id <- [DW_OP_LLVM_entry_value 1] $rdx
	#DEBUG_VALUE: mk_writeHeader:codec_private <- [DW_OP_LLVM_entry_value 1] $rcx
	#DEBUG_VALUE: mk_writeHeader:codec_private_size <- [DW_OP_LLVM_entry_value 1] $r8d
	#DEBUG_VALUE: mk_writeHeader:default_frame_duration <- [DW_OP_LLVM_entry_value 1] $r9
	#DEBUG_VALUE: mk_writeHeader:c <- $r12
	#DEBUG_VALUE: mk_write_uint:c <- $r12
	#DEBUG_VALUE: mk_write_uint:id <- 17138
	#DEBUG_VALUE: mk_write_uint:ui <- 4
	#DEBUG_VALUE: mk_write_uint:c_ui <- [DW_OP_LLVM_fragment 0 8] 0
	#DEBUG_VALUE: mk_write_uint:c_ui <- [DW_OP_LLVM_fragment 8 8] 0
	#DEBUG_VALUE: mk_write_uint:c_ui <- [DW_OP_LLVM_fragment 16 8] 0
	#DEBUG_VALUE: mk_write_uint:c_ui <- [DW_OP_LLVM_fragment 24 8] 0
	#DEBUG_VALUE: mk_write_uint:c_ui <- [DW_OP_LLVM_fragment 32 8] 0
	#DEBUG_VALUE: mk_write_uint:c_ui <- [DW_OP_LLVM_fragment 40 8] 0
	#DEBUG_VALUE: mk_write_uint:c_ui <- [DW_OP_LLVM_fragment 48 8] 0
	#DEBUG_VALUE: mk_write_uint:c_ui <- [DW_OP_LLVM_fragment 56 8] 4
	#DEBUG_VALUE: mk_write_uint:i <- 0
	#DEBUG_VALUE: mk_write_id:c <- $r12
	#DEBUG_VALUE: mk_write_id:id <- 17138
	#DEBUG_VALUE: mk_write_id:c_id <- [DW_OP_LLVM_fragment 0 8] 0
	#DEBUG_VALUE: mk_write_id:c_id <- [DW_OP_LLVM_fragment 8 8] 0
	#DEBUG_VALUE: mk_write_id:c_id <- [DW_OP_LLVM_fragment 16 8] 66
	#DEBUG_VALUE: mk_write_id:c_id <- [DW_OP_LLVM_fragment 24 8] -14
	#DEBUG_VALUE: mk_append_context_data:c <- $r12
	#DEBUG_VALUE: mk_append_context_data:size <- 2
	#DEBUG_VALUE: mk_append_context_data:ns <- $ebx
	.loc	0 110 23 is_stmt 0              # x264_src/output/matroska_ebml.c:110:23
	movq	40(%r12), %rax
.Ltmp194:
.LBB2_49:                               # %land.rhs.preheader.i359
	#DEBUG_VALUE: mk_writeHeader:w <- $r14
	#DEBUG_VALUE: mk_writeHeader:writing_app <- [DW_OP_plus_uconst 32] [$rsp+0]
	#DEBUG_VALUE: mk_writeHeader:codec_id <- [DW_OP_LLVM_entry_value 1] $rdx
	#DEBUG_VALUE: mk_writeHeader:codec_private <- [DW_OP_LLVM_entry_value 1] $rcx
	#DEBUG_VALUE: mk_writeHeader:codec_private_size <- [DW_OP_LLVM_entry_value 1] $r8d
	#DEBUG_VALUE: mk_writeHeader:default_frame_duration <- [DW_OP_LLVM_entry_value 1] $r9
	#DEBUG_VALUE: mk_writeHeader:c <- $r12
	#DEBUG_VALUE: mk_write_uint:c <- $r12
	#DEBUG_VALUE: mk_write_uint:id <- 17138
	#DEBUG_VALUE: mk_write_uint:ui <- 4
	#DEBUG_VALUE: mk_write_uint:c_ui <- [DW_OP_LLVM_fragment 0 8] 0
	#DEBUG_VALUE: mk_write_uint:c_ui <- [DW_OP_LLVM_fragment 8 8] 0
	#DEBUG_VALUE: mk_write_uint:c_ui <- [DW_OP_LLVM_fragment 16 8] 0
	#DEBUG_VALUE: mk_write_uint:c_ui <- [DW_OP_LLVM_fragment 24 8] 0
	#DEBUG_VALUE: mk_write_uint:c_ui <- [DW_OP_LLVM_fragment 32 8] 0
	#DEBUG_VALUE: mk_write_uint:c_ui <- [DW_OP_LLVM_fragment 40 8] 0
	#DEBUG_VALUE: mk_write_uint:c_ui <- [DW_OP_LLVM_fragment 48 8] 0
	#DEBUG_VALUE: mk_write_uint:c_ui <- [DW_OP_LLVM_fragment 56 8] 4
	#DEBUG_VALUE: mk_write_uint:i <- 0
	#DEBUG_VALUE: mk_write_id:c <- $r12
	#DEBUG_VALUE: mk_write_id:id <- 17138
	#DEBUG_VALUE: mk_write_id:c_id <- [DW_OP_LLVM_fragment 0 8] 0
	#DEBUG_VALUE: mk_write_id:c_id <- [DW_OP_LLVM_fragment 8 8] 0
	#DEBUG_VALUE: mk_write_id:c_id <- [DW_OP_LLVM_fragment 16 8] 66
	#DEBUG_VALUE: mk_write_id:c_id <- [DW_OP_LLVM_fragment 24 8] -14
	#DEBUG_VALUE: mk_append_context_data:c <- $r12
	#DEBUG_VALUE: mk_append_context_data:size <- 2
	#DEBUG_VALUE: mk_append_context_data:ns <- $ebx
	.loc	0 110 28                        # x264_src/output/matroska_ebml.c:110:28
	movl	%r15d, %ecx
	.loc	0 110 5                         # x264_src/output/matroska_ebml.c:110:5
	movw	$-3518, (%rax,%rcx)             # imm = 0xF242
	.loc	0 112 14 is_stmt 1              # x264_src/output/matroska_ebml.c:112:14
	movl	%ebx, 48(%r12)
.Ltmp195:
	#DEBUG_VALUE: mk_write_uint:i <- 6
	#DEBUG_VALUE: mk_write_size:c <- $r12
	#DEBUG_VALUE: mk_write_size:size <- 1
	#DEBUG_VALUE: mk_write_size:c_size <- [DW_OP_LLVM_fragment 0 8] 8
	#DEBUG_VALUE: mk_write_size:c_size <- [DW_OP_LLVM_fragment 8 8] 0
	#DEBUG_VALUE: mk_write_size:c_size <- [DW_OP_LLVM_fragment 16 8] 0
	#DEBUG_VALUE: mk_write_size:c_size <- [DW_OP_LLVM_fragment 24 8] 0
	#DEBUG_VALUE: mk_write_size:c_size <- [DW_OP_LLVM_fragment 32 8] -127
	#DEBUG_VALUE: mk_append_context_data:c <- $r12
	#DEBUG_VALUE: mk_append_context_data:data <- undef
	#DEBUG_VALUE: mk_append_context_data:size <- 1
	.loc	0 93 28                         # x264_src/output/matroska_ebml.c:93:28
	leal	11(%r13), %ebp
.Ltmp196:
	#DEBUG_VALUE: mk_append_context_data:ns <- $ebp
	.loc	0 95 17                         # x264_src/output/matroska_ebml.c:95:17
	movl	52(%r12), %eax
	.loc	0 95 12 is_stmt 0               # x264_src/output/matroska_ebml.c:95:12
	cmpl	%eax, %ebp
.Ltmp197:
	.loc	0 95 9                          # x264_src/output/matroska_ebml.c:95:9
	jbe	.LBB2_54
.Ltmp198:
# %bb.50:                               # %if.then.i.i599
	#DEBUG_VALUE: mk_writeHeader:w <- $r14
	#DEBUG_VALUE: mk_writeHeader:writing_app <- [DW_OP_plus_uconst 32] [$rsp+0]
	#DEBUG_VALUE: mk_writeHeader:codec_id <- [DW_OP_LLVM_entry_value 1] $rdx
	#DEBUG_VALUE: mk_writeHeader:codec_private <- [DW_OP_LLVM_entry_value 1] $rcx
	#DEBUG_VALUE: mk_writeHeader:codec_private_size <- [DW_OP_LLVM_entry_value 1] $r8d
	#DEBUG_VALUE: mk_writeHeader:default_frame_duration <- [DW_OP_LLVM_entry_value 1] $r9
	#DEBUG_VALUE: mk_writeHeader:c <- $r12
	#DEBUG_VALUE: mk_write_uint:c <- $r12
	#DEBUG_VALUE: mk_write_uint:id <- 17138
	#DEBUG_VALUE: mk_write_uint:ui <- 4
	#DEBUG_VALUE: mk_write_uint:c_ui <- [DW_OP_LLVM_fragment 0 8] 0
	#DEBUG_VALUE: mk_write_uint:c_ui <- [DW_OP_LLVM_fragment 8 8] 0
	#DEBUG_VALUE: mk_write_uint:c_ui <- [DW_OP_LLVM_fragment 16 8] 0
	#DEBUG_VALUE: mk_write_uint:c_ui <- [DW_OP_LLVM_fragment 24 8] 0
	#DEBUG_VALUE: mk_write_uint:c_ui <- [DW_OP_LLVM_fragment 32 8] 0
	#DEBUG_VALUE: mk_write_uint:c_ui <- [DW_OP_LLVM_fragment 40 8] 0
	#DEBUG_VALUE: mk_write_uint:c_ui <- [DW_OP_LLVM_fragment 48 8] 0
	#DEBUG_VALUE: mk_write_uint:c_ui <- [DW_OP_LLVM_fragment 56 8] 4
	#DEBUG_VALUE: mk_write_uint:i <- 6
	#DEBUG_VALUE: mk_write_size:c <- $r12
	#DEBUG_VALUE: mk_write_size:size <- 1
	#DEBUG_VALUE: mk_write_size:c_size <- [DW_OP_LLVM_fragment 0 8] 8
	#DEBUG_VALUE: mk_write_size:c_size <- [DW_OP_LLVM_fragment 8 8] 0
	#DEBUG_VALUE: mk_write_size:c_size <- [DW_OP_LLVM_fragment 16 8] 0
	#DEBUG_VALUE: mk_write_size:c_size <- [DW_OP_LLVM_fragment 24 8] 0
	#DEBUG_VALUE: mk_write_size:c_size <- [DW_OP_LLVM_fragment 32 8] -127
	#DEBUG_VALUE: mk_append_context_data:c <- $r12
	#DEBUG_VALUE: mk_append_context_data:size <- 1
	#DEBUG_VALUE: mk_append_context_data:ns <- $ebp
	.loc	0 0 9                           # x264_src/output/matroska_ebml.c:0:9
	leal	(%rax,%rax), %ecx
.Ltmp199:
	.loc	0 98 23 is_stmt 1               # x264_src/output/matroska_ebml.c:98:23
	testl	%eax, %eax
	movl	$16, %eax
	cmovnel	%ecx, %eax
.Ltmp200:
	#DEBUG_VALUE: dn <- $eax
	.p2align	4, 0x90
.LBB2_51:                               # %while.cond.i.i603
                                        # =>This Inner Loop Header: Depth=1
	#DEBUG_VALUE: mk_writeHeader:w <- $r14
	#DEBUG_VALUE: mk_writeHeader:writing_app <- [DW_OP_plus_uconst 32] [$rsp+0]
	#DEBUG_VALUE: mk_writeHeader:codec_id <- [DW_OP_LLVM_entry_value 1] $rdx
	#DEBUG_VALUE: mk_writeHeader:codec_private <- [DW_OP_LLVM_entry_value 1] $rcx
	#DEBUG_VALUE: mk_writeHeader:codec_private_size <- [DW_OP_LLVM_entry_value 1] $r8d
	#DEBUG_VALUE: mk_writeHeader:default_frame_duration <- [DW_OP_LLVM_entry_value 1] $r9
	#DEBUG_VALUE: mk_writeHeader:c <- $r12
	#DEBUG_VALUE: mk_write_uint:c <- $r12
	#DEBUG_VALUE: mk_write_uint:id <- 17138
	#DEBUG_VALUE: mk_write_uint:ui <- 4
	#DEBUG_VALUE: mk_write_uint:c_ui <- [DW_OP_LLVM_fragment 0 8] 0
	#DEBUG_VALUE: mk_write_uint:c_ui <- [DW_OP_LLVM_fragment 8 8] 0
	#DEBUG_VALUE: mk_write_uint:c_ui <- [DW_OP_LLVM_fragment 16 8] 0
	#DEBUG_VALUE: mk_write_uint:c_ui <- [DW_OP_LLVM_fragment 24 8] 0
	#DEBUG_VALUE: mk_write_uint:c_ui <- [DW_OP_LLVM_fragment 32 8] 0
	#DEBUG_VALUE: mk_write_uint:c_ui <- [DW_OP_LLVM_fragment 40 8] 0
	#DEBUG_VALUE: mk_write_uint:c_ui <- [DW_OP_LLVM_fragment 48 8] 0
	#DEBUG_VALUE: mk_write_uint:c_ui <- [DW_OP_LLVM_fragment 56 8] 4
	#DEBUG_VALUE: mk_write_uint:i <- 6
	#DEBUG_VALUE: mk_write_size:c <- $r12
	#DEBUG_VALUE: mk_write_size:size <- 1
	#DEBUG_VALUE: mk_write_size:c_size <- [DW_OP_LLVM_fragment 0 8] 8
	#DEBUG_VALUE: mk_write_size:c_size <- [DW_OP_LLVM_fragment 8 8] 0
	#DEBUG_VALUE: mk_write_size:c_size <- [DW_OP_LLVM_fragment 16 8] 0
	#DEBUG_VALUE: mk_write_size:c_size <- [DW_OP_LLVM_fragment 24 8] 0
	#DEBUG_VALUE: mk_write_size:c_size <- [DW_OP_LLVM_fragment 32 8] -127
	#DEBUG_VALUE: mk_append_context_data:c <- $r12
	#DEBUG_VALUE: mk_append_context_data:size <- 1
	#DEBUG_VALUE: mk_append_context_data:ns <- $ebp
	#DEBUG_VALUE: dn <- $eax
	.loc	0 0 0 is_stmt 0                 # x264_src/output/matroska_ebml.c:0:0
	movl	%eax, %ebx
.Ltmp201:
	#DEBUG_VALUE: dn <- $ebx
	#DEBUG_VALUE: dn <- $ebx
	.loc	0 100 16 is_stmt 1              # x264_src/output/matroska_ebml.c:100:16
	leal	(%rbx,%rbx), %eax
.Ltmp202:
	#DEBUG_VALUE: dn <- $eax
	.loc	0 99 19                         # x264_src/output/matroska_ebml.c:99:19
	cmpl	%ebx, %ebp
	.loc	0 99 9 is_stmt 0                # x264_src/output/matroska_ebml.c:99:9
	ja	.LBB2_51
.Ltmp203:
# %bb.52:                               # %while.end.i.i607
	#DEBUG_VALUE: mk_writeHeader:w <- $r14
	#DEBUG_VALUE: mk_writeHeader:writing_app <- [DW_OP_plus_uconst 32] [$rsp+0]
	#DEBUG_VALUE: mk_writeHeader:codec_id <- [DW_OP_LLVM_entry_value 1] $rdx
	#DEBUG_VALUE: mk_writeHeader:codec_private <- [DW_OP_LLVM_entry_value 1] $rcx
	#DEBUG_VALUE: mk_writeHeader:codec_private_size <- [DW_OP_LLVM_entry_value 1] $r8d
	#DEBUG_VALUE: mk_writeHeader:default_frame_duration <- [DW_OP_LLVM_entry_value 1] $r9
	#DEBUG_VALUE: mk_writeHeader:c <- $r12
	#DEBUG_VALUE: mk_write_uint:c <- $r12
	#DEBUG_VALUE: mk_write_uint:id <- 17138
	#DEBUG_VALUE: mk_write_uint:ui <- 4
	#DEBUG_VALUE: mk_write_uint:c_ui <- [DW_OP_LLVM_fragment 0 8] 0
	#DEBUG_VALUE: mk_write_uint:c_ui <- [DW_OP_LLVM_fragment 8 8] 0
	#DEBUG_VALUE: mk_write_uint:c_ui <- [DW_OP_LLVM_fragment 16 8] 0
	#DEBUG_VALUE: mk_write_uint:c_ui <- [DW_OP_LLVM_fragment 24 8] 0
	#DEBUG_VALUE: mk_write_uint:c_ui <- [DW_OP_LLVM_fragment 32 8] 0
	#DEBUG_VALUE: mk_write_uint:c_ui <- [DW_OP_LLVM_fragment 40 8] 0
	#DEBUG_VALUE: mk_write_uint:c_ui <- [DW_OP_LLVM_fragment 48 8] 0
	#DEBUG_VALUE: mk_write_uint:c_ui <- [DW_OP_LLVM_fragment 56 8] 4
	#DEBUG_VALUE: mk_write_uint:i <- 6
	#DEBUG_VALUE: mk_write_size:c <- $r12
	#DEBUG_VALUE: mk_write_size:size <- 1
	#DEBUG_VALUE: mk_write_size:c_size <- [DW_OP_LLVM_fragment 0 8] 8
	#DEBUG_VALUE: mk_write_size:c_size <- [DW_OP_LLVM_fragment 8 8] 0
	#DEBUG_VALUE: mk_write_size:c_size <- [DW_OP_LLVM_fragment 16 8] 0
	#DEBUG_VALUE: mk_write_size:c_size <- [DW_OP_LLVM_fragment 24 8] 0
	#DEBUG_VALUE: mk_write_size:c_size <- [DW_OP_LLVM_fragment 32 8] -127
	#DEBUG_VALUE: mk_append_context_data:c <- $r12
	#DEBUG_VALUE: mk_append_context_data:size <- 1
	#DEBUG_VALUE: mk_append_context_data:ns <- $ebp
	#DEBUG_VALUE: dn <- $eax
	.loc	0 102 26 is_stmt 1              # x264_src/output/matroska_ebml.c:102:26
	movq	40(%r12), %rdi
	.loc	0 102 32 is_stmt 0              # x264_src/output/matroska_ebml.c:102:32
	movl	%ebx, %esi
	.loc	0 102 14                        # x264_src/output/matroska_ebml.c:102:14
	callq	realloc@PLT
.Ltmp204:
	#DEBUG_VALUE: dp <- $rax
	.loc	0 103 14 is_stmt 1              # x264_src/output/matroska_ebml.c:103:14
	testq	%rax, %rax
.Ltmp205:
	.loc	0 103 13 is_stmt 0              # x264_src/output/matroska_ebml.c:103:13
	je	.LBB2_137
.Ltmp206:
# %bb.53:                               # %if.end.i.i612
	#DEBUG_VALUE: mk_writeHeader:w <- $r14
	#DEBUG_VALUE: mk_writeHeader:writing_app <- [DW_OP_plus_uconst 32] [$rsp+0]
	#DEBUG_VALUE: mk_writeHeader:codec_id <- [DW_OP_LLVM_entry_value 1] $rdx
	#DEBUG_VALUE: mk_writeHeader:codec_private <- [DW_OP_LLVM_entry_value 1] $rcx
	#DEBUG_VALUE: mk_writeHeader:codec_private_size <- [DW_OP_LLVM_entry_value 1] $r8d
	#DEBUG_VALUE: mk_writeHeader:default_frame_duration <- [DW_OP_LLVM_entry_value 1] $r9
	#DEBUG_VALUE: mk_writeHeader:c <- $r12
	#DEBUG_VALUE: mk_write_uint:c <- $r12
	#DEBUG_VALUE: mk_write_uint:id <- 17138
	#DEBUG_VALUE: mk_write_uint:ui <- 4
	#DEBUG_VALUE: mk_write_uint:c_ui <- [DW_OP_LLVM_fragment 0 8] 0
	#DEBUG_VALUE: mk_write_uint:c_ui <- [DW_OP_LLVM_fragment 8 8] 0
	#DEBUG_VALUE: mk_write_uint:c_ui <- [DW_OP_LLVM_fragment 16 8] 0
	#DEBUG_VALUE: mk_write_uint:c_ui <- [DW_OP_LLVM_fragment 24 8] 0
	#DEBUG_VALUE: mk_write_uint:c_ui <- [DW_OP_LLVM_fragment 32 8] 0
	#DEBUG_VALUE: mk_write_uint:c_ui <- [DW_OP_LLVM_fragment 40 8] 0
	#DEBUG_VALUE: mk_write_uint:c_ui <- [DW_OP_LLVM_fragment 48 8] 0
	#DEBUG_VALUE: mk_write_uint:c_ui <- [DW_OP_LLVM_fragment 56 8] 4
	#DEBUG_VALUE: mk_write_uint:i <- 6
	#DEBUG_VALUE: mk_write_size:c <- $r12
	#DEBUG_VALUE: mk_write_size:size <- 1
	#DEBUG_VALUE: mk_write_size:c_size <- [DW_OP_LLVM_fragment 0 8] 8
	#DEBUG_VALUE: mk_write_size:c_size <- [DW_OP_LLVM_fragment 8 8] 0
	#DEBUG_VALUE: mk_write_size:c_size <- [DW_OP_LLVM_fragment 16 8] 0
	#DEBUG_VALUE: mk_write_size:c_size <- [DW_OP_LLVM_fragment 24 8] 0
	#DEBUG_VALUE: mk_write_size:c_size <- [DW_OP_LLVM_fragment 32 8] -127
	#DEBUG_VALUE: mk_append_context_data:c <- $r12
	#DEBUG_VALUE: mk_append_context_data:size <- 1
	#DEBUG_VALUE: mk_append_context_data:ns <- $ebp
	#DEBUG_VALUE: dp <- $rax
	.loc	0 106 17 is_stmt 1              # x264_src/output/matroska_ebml.c:106:17
	movq	%rax, 40(%r12)
	.loc	0 107 18                        # x264_src/output/matroska_ebml.c:107:18
	movl	%ebx, 52(%r12)
.Ltmp207:
	.loc	0 110 33                        # x264_src/output/matroska_ebml.c:110:33
	movl	48(%r12), %ebx
	jmp	.LBB2_55
.Ltmp208:
.LBB2_54:                               # %entry.if.end11_crit_edge.i.i592
	#DEBUG_VALUE: mk_writeHeader:w <- $r14
	#DEBUG_VALUE: mk_writeHeader:writing_app <- [DW_OP_plus_uconst 32] [$rsp+0]
	#DEBUG_VALUE: mk_writeHeader:codec_id <- [DW_OP_LLVM_entry_value 1] $rdx
	#DEBUG_VALUE: mk_writeHeader:codec_private <- [DW_OP_LLVM_entry_value 1] $rcx
	#DEBUG_VALUE: mk_writeHeader:codec_private_size <- [DW_OP_LLVM_entry_value 1] $r8d
	#DEBUG_VALUE: mk_writeHeader:default_frame_duration <- [DW_OP_LLVM_entry_value 1] $r9
	#DEBUG_VALUE: mk_writeHeader:c <- $r12
	#DEBUG_VALUE: mk_write_uint:c <- $r12
	#DEBUG_VALUE: mk_write_uint:id <- 17138
	#DEBUG_VALUE: mk_write_uint:ui <- 4
	#DEBUG_VALUE: mk_write_uint:c_ui <- [DW_OP_LLVM_fragment 0 8] 0
	#DEBUG_VALUE: mk_write_uint:c_ui <- [DW_OP_LLVM_fragment 8 8] 0
	#DEBUG_VALUE: mk_write_uint:c_ui <- [DW_OP_LLVM_fragment 16 8] 0
	#DEBUG_VALUE: mk_write_uint:c_ui <- [DW_OP_LLVM_fragment 24 8] 0
	#DEBUG_VALUE: mk_write_uint:c_ui <- [DW_OP_LLVM_fragment 32 8] 0
	#DEBUG_VALUE: mk_write_uint:c_ui <- [DW_OP_LLVM_fragment 40 8] 0
	#DEBUG_VALUE: mk_write_uint:c_ui <- [DW_OP_LLVM_fragment 48 8] 0
	#DEBUG_VALUE: mk_write_uint:c_ui <- [DW_OP_LLVM_fragment 56 8] 4
	#DEBUG_VALUE: mk_write_uint:i <- 6
	#DEBUG_VALUE: mk_write_size:c <- $r12
	#DEBUG_VALUE: mk_write_size:size <- 1
	#DEBUG_VALUE: mk_write_size:c_size <- [DW_OP_LLVM_fragment 0 8] 8
	#DEBUG_VALUE: mk_write_size:c_size <- [DW_OP_LLVM_fragment 8 8] 0
	#DEBUG_VALUE: mk_write_size:c_size <- [DW_OP_LLVM_fragment 16 8] 0
	#DEBUG_VALUE: mk_write_size:c_size <- [DW_OP_LLVM_fragment 24 8] 0
	#DEBUG_VALUE: mk_write_size:c_size <- [DW_OP_LLVM_fragment 32 8] -127
	#DEBUG_VALUE: mk_append_context_data:c <- $r12
	#DEBUG_VALUE: mk_append_context_data:size <- 1
	#DEBUG_VALUE: mk_append_context_data:ns <- $ebp
	.loc	0 110 23 is_stmt 0              # x264_src/output/matroska_ebml.c:110:23
	movq	40(%r12), %rax
.Ltmp209:
.LBB2_55:                               # %do.body31.i362
	#DEBUG_VALUE: mk_writeHeader:w <- $r14
	#DEBUG_VALUE: mk_writeHeader:writing_app <- [DW_OP_plus_uconst 32] [$rsp+0]
	#DEBUG_VALUE: mk_writeHeader:codec_id <- [DW_OP_LLVM_entry_value 1] $rdx
	#DEBUG_VALUE: mk_writeHeader:codec_private <- [DW_OP_LLVM_entry_value 1] $rcx
	#DEBUG_VALUE: mk_writeHeader:codec_private_size <- [DW_OP_LLVM_entry_value 1] $r8d
	#DEBUG_VALUE: mk_writeHeader:default_frame_duration <- [DW_OP_LLVM_entry_value 1] $r9
	#DEBUG_VALUE: mk_writeHeader:c <- $r12
	#DEBUG_VALUE: mk_write_uint:c <- $r12
	#DEBUG_VALUE: mk_write_uint:id <- 17138
	#DEBUG_VALUE: mk_write_uint:ui <- 4
	#DEBUG_VALUE: mk_write_uint:c_ui <- [DW_OP_LLVM_fragment 0 8] 0
	#DEBUG_VALUE: mk_write_uint:c_ui <- [DW_OP_LLVM_fragment 8 8] 0
	#DEBUG_VALUE: mk_write_uint:c_ui <- [DW_OP_LLVM_fragment 16 8] 0
	#DEBUG_VALUE: mk_write_uint:c_ui <- [DW_OP_LLVM_fragment 24 8] 0
	#DEBUG_VALUE: mk_write_uint:c_ui <- [DW_OP_LLVM_fragment 32 8] 0
	#DEBUG_VALUE: mk_write_uint:c_ui <- [DW_OP_LLVM_fragment 40 8] 0
	#DEBUG_VALUE: mk_write_uint:c_ui <- [DW_OP_LLVM_fragment 48 8] 0
	#DEBUG_VALUE: mk_write_uint:c_ui <- [DW_OP_LLVM_fragment 56 8] 4
	#DEBUG_VALUE: mk_write_uint:i <- 6
	#DEBUG_VALUE: mk_write_size:c <- $r12
	#DEBUG_VALUE: mk_write_size:size <- 1
	#DEBUG_VALUE: mk_write_size:c_size <- [DW_OP_LLVM_fragment 0 8] 8
	#DEBUG_VALUE: mk_write_size:c_size <- [DW_OP_LLVM_fragment 8 8] 0
	#DEBUG_VALUE: mk_write_size:c_size <- [DW_OP_LLVM_fragment 16 8] 0
	#DEBUG_VALUE: mk_write_size:c_size <- [DW_OP_LLVM_fragment 24 8] 0
	#DEBUG_VALUE: mk_write_size:c_size <- [DW_OP_LLVM_fragment 32 8] -127
	#DEBUG_VALUE: mk_append_context_data:c <- $r12
	#DEBUG_VALUE: mk_append_context_data:size <- 1
	#DEBUG_VALUE: mk_append_context_data:ns <- $ebp
	.loc	0 110 28                        # x264_src/output/matroska_ebml.c:110:28
	movl	%ebx, %ecx
	.loc	0 110 5                         # x264_src/output/matroska_ebml.c:110:5
	movb	$-127, (%rax,%rcx)
	.loc	0 112 14 is_stmt 1              # x264_src/output/matroska_ebml.c:112:14
	movl	%ebp, 48(%r12)
.Ltmp210:
	#DEBUG_VALUE: mk_append_context_data:c <- $r12
	#DEBUG_VALUE: mk_append_context_data:data <- undef
	#DEBUG_VALUE: mk_append_context_data:size <- 1
	.loc	0 93 28                         # x264_src/output/matroska_ebml.c:93:28
	leal	12(%r13), %r15d
.Ltmp211:
	#DEBUG_VALUE: mk_append_context_data:ns <- $r15d
	.loc	0 95 17                         # x264_src/output/matroska_ebml.c:95:17
	movl	52(%r12), %eax
	.loc	0 95 12 is_stmt 0               # x264_src/output/matroska_ebml.c:95:12
	cmpl	%eax, %r15d
.Ltmp212:
	.loc	0 95 9                          # x264_src/output/matroska_ebml.c:95:9
	jbe	.LBB2_60
.Ltmp213:
# %bb.56:                               # %if.then.i.i375
	#DEBUG_VALUE: mk_writeHeader:w <- $r14
	#DEBUG_VALUE: mk_writeHeader:writing_app <- [DW_OP_plus_uconst 32] [$rsp+0]
	#DEBUG_VALUE: mk_writeHeader:codec_id <- [DW_OP_LLVM_entry_value 1] $rdx
	#DEBUG_VALUE: mk_writeHeader:codec_private <- [DW_OP_LLVM_entry_value 1] $rcx
	#DEBUG_VALUE: mk_writeHeader:codec_private_size <- [DW_OP_LLVM_entry_value 1] $r8d
	#DEBUG_VALUE: mk_writeHeader:default_frame_duration <- [DW_OP_LLVM_entry_value 1] $r9
	#DEBUG_VALUE: mk_writeHeader:c <- $r12
	#DEBUG_VALUE: mk_write_uint:c <- $r12
	#DEBUG_VALUE: mk_write_uint:id <- 17138
	#DEBUG_VALUE: mk_write_uint:ui <- 4
	#DEBUG_VALUE: mk_write_uint:c_ui <- [DW_OP_LLVM_fragment 0 8] 0
	#DEBUG_VALUE: mk_write_uint:c_ui <- [DW_OP_LLVM_fragment 8 8] 0
	#DEBUG_VALUE: mk_write_uint:c_ui <- [DW_OP_LLVM_fragment 16 8] 0
	#DEBUG_VALUE: mk_write_uint:c_ui <- [DW_OP_LLVM_fragment 24 8] 0
	#DEBUG_VALUE: mk_write_uint:c_ui <- [DW_OP_LLVM_fragment 32 8] 0
	#DEBUG_VALUE: mk_write_uint:c_ui <- [DW_OP_LLVM_fragment 40 8] 0
	#DEBUG_VALUE: mk_write_uint:c_ui <- [DW_OP_LLVM_fragment 48 8] 0
	#DEBUG_VALUE: mk_write_uint:c_ui <- [DW_OP_LLVM_fragment 56 8] 4
	#DEBUG_VALUE: mk_write_uint:i <- 6
	#DEBUG_VALUE: mk_append_context_data:c <- $r12
	#DEBUG_VALUE: mk_append_context_data:size <- 1
	#DEBUG_VALUE: mk_append_context_data:ns <- $r15d
	.loc	0 0 9                           # x264_src/output/matroska_ebml.c:0:9
	leal	(%rax,%rax), %ecx
.Ltmp214:
	.loc	0 98 23 is_stmt 1               # x264_src/output/matroska_ebml.c:98:23
	testl	%eax, %eax
	movl	$16, %eax
	cmovnel	%ecx, %eax
.Ltmp215:
	#DEBUG_VALUE: dn <- $eax
	.p2align	4, 0x90
.LBB2_57:                               # %while.cond.i.i379
                                        # =>This Inner Loop Header: Depth=1
	#DEBUG_VALUE: mk_writeHeader:w <- $r14
	#DEBUG_VALUE: mk_writeHeader:writing_app <- [DW_OP_plus_uconst 32] [$rsp+0]
	#DEBUG_VALUE: mk_writeHeader:codec_id <- [DW_OP_LLVM_entry_value 1] $rdx
	#DEBUG_VALUE: mk_writeHeader:codec_private <- [DW_OP_LLVM_entry_value 1] $rcx
	#DEBUG_VALUE: mk_writeHeader:codec_private_size <- [DW_OP_LLVM_entry_value 1] $r8d
	#DEBUG_VALUE: mk_writeHeader:default_frame_duration <- [DW_OP_LLVM_entry_value 1] $r9
	#DEBUG_VALUE: mk_writeHeader:c <- $r12
	#DEBUG_VALUE: mk_write_uint:c <- $r12
	#DEBUG_VALUE: mk_write_uint:id <- 17138
	#DEBUG_VALUE: mk_write_uint:ui <- 4
	#DEBUG_VALUE: mk_write_uint:c_ui <- [DW_OP_LLVM_fragment 0 8] 0
	#DEBUG_VALUE: mk_write_uint:c_ui <- [DW_OP_LLVM_fragment 8 8] 0
	#DEBUG_VALUE: mk_write_uint:c_ui <- [DW_OP_LLVM_fragment 16 8] 0
	#DEBUG_VALUE: mk_write_uint:c_ui <- [DW_OP_LLVM_fragment 24 8] 0
	#DEBUG_VALUE: mk_write_uint:c_ui <- [DW_OP_LLVM_fragment 32 8] 0
	#DEBUG_VALUE: mk_write_uint:c_ui <- [DW_OP_LLVM_fragment 40 8] 0
	#DEBUG_VALUE: mk_write_uint:c_ui <- [DW_OP_LLVM_fragment 48 8] 0
	#DEBUG_VALUE: mk_write_uint:c_ui <- [DW_OP_LLVM_fragment 56 8] 4
	#DEBUG_VALUE: mk_write_uint:i <- 6
	#DEBUG_VALUE: mk_append_context_data:c <- $r12
	#DEBUG_VALUE: mk_append_context_data:size <- 1
	#DEBUG_VALUE: mk_append_context_data:ns <- $r15d
	#DEBUG_VALUE: dn <- $eax
	.loc	0 0 0 is_stmt 0                 # x264_src/output/matroska_ebml.c:0:0
	movl	%eax, %ebx
.Ltmp216:
	#DEBUG_VALUE: dn <- $ebx
	#DEBUG_VALUE: dn <- $ebx
	.loc	0 100 16 is_stmt 1              # x264_src/output/matroska_ebml.c:100:16
	leal	(%rbx,%rbx), %eax
.Ltmp217:
	#DEBUG_VALUE: dn <- $eax
	.loc	0 99 19                         # x264_src/output/matroska_ebml.c:99:19
	cmpl	%ebx, %r15d
	.loc	0 99 9 is_stmt 0                # x264_src/output/matroska_ebml.c:99:9
	ja	.LBB2_57
.Ltmp218:
# %bb.58:                               # %while.end.i.i383
	#DEBUG_VALUE: mk_writeHeader:w <- $r14
	#DEBUG_VALUE: mk_writeHeader:writing_app <- [DW_OP_plus_uconst 32] [$rsp+0]
	#DEBUG_VALUE: mk_writeHeader:codec_id <- [DW_OP_LLVM_entry_value 1] $rdx
	#DEBUG_VALUE: mk_writeHeader:codec_private <- [DW_OP_LLVM_entry_value 1] $rcx
	#DEBUG_VALUE: mk_writeHeader:codec_private_size <- [DW_OP_LLVM_entry_value 1] $r8d
	#DEBUG_VALUE: mk_writeHeader:default_frame_duration <- [DW_OP_LLVM_entry_value 1] $r9
	#DEBUG_VALUE: mk_writeHeader:c <- $r12
	#DEBUG_VALUE: mk_write_uint:c <- $r12
	#DEBUG_VALUE: mk_write_uint:id <- 17138
	#DEBUG_VALUE: mk_write_uint:ui <- 4
	#DEBUG_VALUE: mk_write_uint:c_ui <- [DW_OP_LLVM_fragment 0 8] 0
	#DEBUG_VALUE: mk_write_uint:c_ui <- [DW_OP_LLVM_fragment 8 8] 0
	#DEBUG_VALUE: mk_write_uint:c_ui <- [DW_OP_LLVM_fragment 16 8] 0
	#DEBUG_VALUE: mk_write_uint:c_ui <- [DW_OP_LLVM_fragment 24 8] 0
	#DEBUG_VALUE: mk_write_uint:c_ui <- [DW_OP_LLVM_fragment 32 8] 0
	#DEBUG_VALUE: mk_write_uint:c_ui <- [DW_OP_LLVM_fragment 40 8] 0
	#DEBUG_VALUE: mk_write_uint:c_ui <- [DW_OP_LLVM_fragment 48 8] 0
	#DEBUG_VALUE: mk_write_uint:c_ui <- [DW_OP_LLVM_fragment 56 8] 4
	#DEBUG_VALUE: mk_write_uint:i <- 6
	#DEBUG_VALUE: mk_append_context_data:c <- $r12
	#DEBUG_VALUE: mk_append_context_data:size <- 1
	#DEBUG_VALUE: mk_append_context_data:ns <- $r15d
	#DEBUG_VALUE: dn <- $eax
	.loc	0 102 26 is_stmt 1              # x264_src/output/matroska_ebml.c:102:26
	movq	40(%r12), %rdi
	.loc	0 102 32 is_stmt 0              # x264_src/output/matroska_ebml.c:102:32
	movl	%ebx, %esi
	.loc	0 102 14                        # x264_src/output/matroska_ebml.c:102:14
	callq	realloc@PLT
.Ltmp219:
	#DEBUG_VALUE: dp <- $rax
	.loc	0 103 14 is_stmt 1              # x264_src/output/matroska_ebml.c:103:14
	testq	%rax, %rax
.Ltmp220:
	.loc	0 103 13 is_stmt 0              # x264_src/output/matroska_ebml.c:103:13
	je	.LBB2_137
.Ltmp221:
# %bb.59:                               # %if.end.i.i388
	#DEBUG_VALUE: mk_writeHeader:w <- $r14
	#DEBUG_VALUE: mk_writeHeader:writing_app <- [DW_OP_plus_uconst 32] [$rsp+0]
	#DEBUG_VALUE: mk_writeHeader:codec_id <- [DW_OP_LLVM_entry_value 1] $rdx
	#DEBUG_VALUE: mk_writeHeader:codec_private <- [DW_OP_LLVM_entry_value 1] $rcx
	#DEBUG_VALUE: mk_writeHeader:codec_private_size <- [DW_OP_LLVM_entry_value 1] $r8d
	#DEBUG_VALUE: mk_writeHeader:default_frame_duration <- [DW_OP_LLVM_entry_value 1] $r9
	#DEBUG_VALUE: mk_writeHeader:c <- $r12
	#DEBUG_VALUE: mk_write_uint:c <- $r12
	#DEBUG_VALUE: mk_write_uint:id <- 17138
	#DEBUG_VALUE: mk_write_uint:ui <- 4
	#DEBUG_VALUE: mk_write_uint:c_ui <- [DW_OP_LLVM_fragment 0 8] 0
	#DEBUG_VALUE: mk_write_uint:c_ui <- [DW_OP_LLVM_fragment 8 8] 0
	#DEBUG_VALUE: mk_write_uint:c_ui <- [DW_OP_LLVM_fragment 16 8] 0
	#DEBUG_VALUE: mk_write_uint:c_ui <- [DW_OP_LLVM_fragment 24 8] 0
	#DEBUG_VALUE: mk_write_uint:c_ui <- [DW_OP_LLVM_fragment 32 8] 0
	#DEBUG_VALUE: mk_write_uint:c_ui <- [DW_OP_LLVM_fragment 40 8] 0
	#DEBUG_VALUE: mk_write_uint:c_ui <- [DW_OP_LLVM_fragment 48 8] 0
	#DEBUG_VALUE: mk_write_uint:c_ui <- [DW_OP_LLVM_fragment 56 8] 4
	#DEBUG_VALUE: mk_write_uint:i <- 6
	#DEBUG_VALUE: mk_append_context_data:c <- $r12
	#DEBUG_VALUE: mk_append_context_data:size <- 1
	#DEBUG_VALUE: mk_append_context_data:ns <- $r15d
	#DEBUG_VALUE: dp <- $rax
	.loc	0 106 17 is_stmt 1              # x264_src/output/matroska_ebml.c:106:17
	movq	%rax, 40(%r12)
	.loc	0 107 18                        # x264_src/output/matroska_ebml.c:107:18
	movl	%ebx, 52(%r12)
.Ltmp222:
	.loc	0 110 33                        # x264_src/output/matroska_ebml.c:110:33
	movl	48(%r12), %ebp
	jmp	.LBB2_61
.Ltmp223:
.LBB2_60:                               # %entry.if.end11_crit_edge.i.i368
	#DEBUG_VALUE: mk_writeHeader:w <- $r14
	#DEBUG_VALUE: mk_writeHeader:writing_app <- [DW_OP_plus_uconst 32] [$rsp+0]
	#DEBUG_VALUE: mk_writeHeader:codec_id <- [DW_OP_LLVM_entry_value 1] $rdx
	#DEBUG_VALUE: mk_writeHeader:codec_private <- [DW_OP_LLVM_entry_value 1] $rcx
	#DEBUG_VALUE: mk_writeHeader:codec_private_size <- [DW_OP_LLVM_entry_value 1] $r8d
	#DEBUG_VALUE: mk_writeHeader:default_frame_duration <- [DW_OP_LLVM_entry_value 1] $r9
	#DEBUG_VALUE: mk_writeHeader:c <- $r12
	#DEBUG_VALUE: mk_write_uint:c <- $r12
	#DEBUG_VALUE: mk_write_uint:id <- 17138
	#DEBUG_VALUE: mk_write_uint:ui <- 4
	#DEBUG_VALUE: mk_write_uint:c_ui <- [DW_OP_LLVM_fragment 0 8] 0
	#DEBUG_VALUE: mk_write_uint:c_ui <- [DW_OP_LLVM_fragment 8 8] 0
	#DEBUG_VALUE: mk_write_uint:c_ui <- [DW_OP_LLVM_fragment 16 8] 0
	#DEBUG_VALUE: mk_write_uint:c_ui <- [DW_OP_LLVM_fragment 24 8] 0
	#DEBUG_VALUE: mk_write_uint:c_ui <- [DW_OP_LLVM_fragment 32 8] 0
	#DEBUG_VALUE: mk_write_uint:c_ui <- [DW_OP_LLVM_fragment 40 8] 0
	#DEBUG_VALUE: mk_write_uint:c_ui <- [DW_OP_LLVM_fragment 48 8] 0
	#DEBUG_VALUE: mk_write_uint:c_ui <- [DW_OP_LLVM_fragment 56 8] 4
	#DEBUG_VALUE: mk_write_uint:i <- 6
	#DEBUG_VALUE: mk_append_context_data:c <- $r12
	#DEBUG_VALUE: mk_append_context_data:size <- 1
	#DEBUG_VALUE: mk_append_context_data:ns <- $r15d
	.loc	0 110 23 is_stmt 0              # x264_src/output/matroska_ebml.c:110:23
	movq	40(%r12), %rax
.Ltmp224:
.LBB2_61:                               # %do.body22
	#DEBUG_VALUE: mk_writeHeader:w <- $r14
	#DEBUG_VALUE: mk_writeHeader:writing_app <- [DW_OP_plus_uconst 32] [$rsp+0]
	#DEBUG_VALUE: mk_writeHeader:codec_id <- [DW_OP_LLVM_entry_value 1] $rdx
	#DEBUG_VALUE: mk_writeHeader:codec_private <- [DW_OP_LLVM_entry_value 1] $rcx
	#DEBUG_VALUE: mk_writeHeader:codec_private_size <- [DW_OP_LLVM_entry_value 1] $r8d
	#DEBUG_VALUE: mk_writeHeader:default_frame_duration <- [DW_OP_LLVM_entry_value 1] $r9
	#DEBUG_VALUE: mk_writeHeader:c <- $r12
	#DEBUG_VALUE: mk_write_uint:c <- $r12
	#DEBUG_VALUE: mk_write_uint:id <- 17138
	#DEBUG_VALUE: mk_write_uint:ui <- 4
	#DEBUG_VALUE: mk_write_uint:c_ui <- [DW_OP_LLVM_fragment 0 8] 0
	#DEBUG_VALUE: mk_write_uint:c_ui <- [DW_OP_LLVM_fragment 8 8] 0
	#DEBUG_VALUE: mk_write_uint:c_ui <- [DW_OP_LLVM_fragment 16 8] 0
	#DEBUG_VALUE: mk_write_uint:c_ui <- [DW_OP_LLVM_fragment 24 8] 0
	#DEBUG_VALUE: mk_write_uint:c_ui <- [DW_OP_LLVM_fragment 32 8] 0
	#DEBUG_VALUE: mk_write_uint:c_ui <- [DW_OP_LLVM_fragment 40 8] 0
	#DEBUG_VALUE: mk_write_uint:c_ui <- [DW_OP_LLVM_fragment 48 8] 0
	#DEBUG_VALUE: mk_write_uint:c_ui <- [DW_OP_LLVM_fragment 56 8] 4
	#DEBUG_VALUE: mk_write_uint:i <- 6
	#DEBUG_VALUE: mk_append_context_data:c <- $r12
	#DEBUG_VALUE: mk_append_context_data:size <- 1
	#DEBUG_VALUE: mk_append_context_data:ns <- $r15d
	.loc	0 110 28                        # x264_src/output/matroska_ebml.c:110:28
	movl	%ebp, %ecx
	.loc	0 110 5                         # x264_src/output/matroska_ebml.c:110:5
	movb	$4, (%rax,%rcx)
	.loc	0 112 14 is_stmt 1              # x264_src/output/matroska_ebml.c:112:14
	movl	%r15d, 48(%r12)
.Ltmp225:
	#DEBUG_VALUE: mk_write_uint:c <- $r12
	#DEBUG_VALUE: mk_write_uint:id <- 17139
	#DEBUG_VALUE: mk_write_uint:ui <- 8
	#DEBUG_VALUE: mk_write_uint:c_ui <- [DW_OP_LLVM_fragment 0 8] 0
	#DEBUG_VALUE: mk_write_uint:c_ui <- [DW_OP_LLVM_fragment 8 8] 0
	#DEBUG_VALUE: mk_write_uint:c_ui <- [DW_OP_LLVM_fragment 16 8] 0
	#DEBUG_VALUE: mk_write_uint:c_ui <- [DW_OP_LLVM_fragment 24 8] 0
	#DEBUG_VALUE: mk_write_uint:c_ui <- [DW_OP_LLVM_fragment 32 8] 0
	#DEBUG_VALUE: mk_write_uint:c_ui <- [DW_OP_LLVM_fragment 40 8] 0
	#DEBUG_VALUE: mk_write_uint:c_ui <- [DW_OP_LLVM_fragment 48 8] 0
	#DEBUG_VALUE: mk_write_uint:c_ui <- [DW_OP_LLVM_fragment 56 8] 8
	#DEBUG_VALUE: mk_write_uint:i <- 0
	#DEBUG_VALUE: mk_write_id:c <- $r12
	#DEBUG_VALUE: mk_write_id:id <- 17139
	#DEBUG_VALUE: mk_write_id:c_id <- [DW_OP_LLVM_fragment 0 8] 0
	#DEBUG_VALUE: mk_write_id:c_id <- [DW_OP_LLVM_fragment 8 8] 0
	#DEBUG_VALUE: mk_write_id:c_id <- [DW_OP_LLVM_fragment 16 8] 66
	#DEBUG_VALUE: mk_write_id:c_id <- [DW_OP_LLVM_fragment 24 8] -13
	.loc	0 95 17                         # x264_src/output/matroska_ebml.c:95:17
	movl	52(%r12), %eax
.Ltmp226:
	#DEBUG_VALUE: mk_append_context_data:c <- $r12
	#DEBUG_VALUE: mk_append_context_data:data <- undef
	#DEBUG_VALUE: mk_append_context_data:data <- undef
	#DEBUG_VALUE: mk_append_context_data:size <- 2
	.loc	0 93 28                         # x264_src/output/matroska_ebml.c:93:28
	leal	14(%r13), %ebx
.Ltmp227:
	#DEBUG_VALUE: mk_append_context_data:ns <- $ebx
	.loc	0 95 12                         # x264_src/output/matroska_ebml.c:95:12
	cmpl	%eax, %ebx
.Ltmp228:
	.loc	0 95 9 is_stmt 0                # x264_src/output/matroska_ebml.c:95:9
	jbe	.LBB2_66
.Ltmp229:
# %bb.62:                               # %if.then.i68.i683
	#DEBUG_VALUE: mk_writeHeader:w <- $r14
	#DEBUG_VALUE: mk_writeHeader:writing_app <- [DW_OP_plus_uconst 32] [$rsp+0]
	#DEBUG_VALUE: mk_writeHeader:codec_id <- [DW_OP_LLVM_entry_value 1] $rdx
	#DEBUG_VALUE: mk_writeHeader:codec_private <- [DW_OP_LLVM_entry_value 1] $rcx
	#DEBUG_VALUE: mk_writeHeader:codec_private_size <- [DW_OP_LLVM_entry_value 1] $r8d
	#DEBUG_VALUE: mk_writeHeader:default_frame_duration <- [DW_OP_LLVM_entry_value 1] $r9
	#DEBUG_VALUE: mk_writeHeader:c <- $r12
	#DEBUG_VALUE: mk_write_uint:c <- $r12
	#DEBUG_VALUE: mk_write_uint:id <- 17139
	#DEBUG_VALUE: mk_write_uint:ui <- 8
	#DEBUG_VALUE: mk_write_uint:c_ui <- [DW_OP_LLVM_fragment 0 8] 0
	#DEBUG_VALUE: mk_write_uint:c_ui <- [DW_OP_LLVM_fragment 8 8] 0
	#DEBUG_VALUE: mk_write_uint:c_ui <- [DW_OP_LLVM_fragment 16 8] 0
	#DEBUG_VALUE: mk_write_uint:c_ui <- [DW_OP_LLVM_fragment 24 8] 0
	#DEBUG_VALUE: mk_write_uint:c_ui <- [DW_OP_LLVM_fragment 32 8] 0
	#DEBUG_VALUE: mk_write_uint:c_ui <- [DW_OP_LLVM_fragment 40 8] 0
	#DEBUG_VALUE: mk_write_uint:c_ui <- [DW_OP_LLVM_fragment 48 8] 0
	#DEBUG_VALUE: mk_write_uint:c_ui <- [DW_OP_LLVM_fragment 56 8] 8
	#DEBUG_VALUE: mk_write_uint:i <- 0
	#DEBUG_VALUE: mk_write_id:c <- $r12
	#DEBUG_VALUE: mk_write_id:id <- 17139
	#DEBUG_VALUE: mk_write_id:c_id <- [DW_OP_LLVM_fragment 0 8] 0
	#DEBUG_VALUE: mk_write_id:c_id <- [DW_OP_LLVM_fragment 8 8] 0
	#DEBUG_VALUE: mk_write_id:c_id <- [DW_OP_LLVM_fragment 16 8] 66
	#DEBUG_VALUE: mk_write_id:c_id <- [DW_OP_LLVM_fragment 24 8] -13
	#DEBUG_VALUE: mk_append_context_data:c <- $r12
	#DEBUG_VALUE: mk_append_context_data:size <- 2
	#DEBUG_VALUE: mk_append_context_data:ns <- $ebx
	.loc	0 0 9                           # x264_src/output/matroska_ebml.c:0:9
	leal	(%rax,%rax), %ecx
.Ltmp230:
	.loc	0 98 23 is_stmt 1               # x264_src/output/matroska_ebml.c:98:23
	testl	%eax, %eax
	movl	$16, %eax
	cmovnel	%ecx, %eax
.Ltmp231:
	#DEBUG_VALUE: dn <- $eax
	.p2align	4, 0x90
.LBB2_63:                               # %while.cond.i72.i687
                                        # =>This Inner Loop Header: Depth=1
	#DEBUG_VALUE: mk_writeHeader:w <- $r14
	#DEBUG_VALUE: mk_writeHeader:writing_app <- [DW_OP_plus_uconst 32] [$rsp+0]
	#DEBUG_VALUE: mk_writeHeader:codec_id <- [DW_OP_LLVM_entry_value 1] $rdx
	#DEBUG_VALUE: mk_writeHeader:codec_private <- [DW_OP_LLVM_entry_value 1] $rcx
	#DEBUG_VALUE: mk_writeHeader:codec_private_size <- [DW_OP_LLVM_entry_value 1] $r8d
	#DEBUG_VALUE: mk_writeHeader:default_frame_duration <- [DW_OP_LLVM_entry_value 1] $r9
	#DEBUG_VALUE: mk_writeHeader:c <- $r12
	#DEBUG_VALUE: mk_write_uint:c <- $r12
	#DEBUG_VALUE: mk_write_uint:id <- 17139
	#DEBUG_VALUE: mk_write_uint:ui <- 8
	#DEBUG_VALUE: mk_write_uint:c_ui <- [DW_OP_LLVM_fragment 0 8] 0
	#DEBUG_VALUE: mk_write_uint:c_ui <- [DW_OP_LLVM_fragment 8 8] 0
	#DEBUG_VALUE: mk_write_uint:c_ui <- [DW_OP_LLVM_fragment 16 8] 0
	#DEBUG_VALUE: mk_write_uint:c_ui <- [DW_OP_LLVM_fragment 24 8] 0
	#DEBUG_VALUE: mk_write_uint:c_ui <- [DW_OP_LLVM_fragment 32 8] 0
	#DEBUG_VALUE: mk_write_uint:c_ui <- [DW_OP_LLVM_fragment 40 8] 0
	#DEBUG_VALUE: mk_write_uint:c_ui <- [DW_OP_LLVM_fragment 48 8] 0
	#DEBUG_VALUE: mk_write_uint:c_ui <- [DW_OP_LLVM_fragment 56 8] 8
	#DEBUG_VALUE: mk_write_uint:i <- 0
	#DEBUG_VALUE: mk_write_id:c <- $r12
	#DEBUG_VALUE: mk_write_id:id <- 17139
	#DEBUG_VALUE: mk_write_id:c_id <- [DW_OP_LLVM_fragment 0 8] 0
	#DEBUG_VALUE: mk_write_id:c_id <- [DW_OP_LLVM_fragment 8 8] 0
	#DEBUG_VALUE: mk_write_id:c_id <- [DW_OP_LLVM_fragment 16 8] 66
	#DEBUG_VALUE: mk_write_id:c_id <- [DW_OP_LLVM_fragment 24 8] -13
	#DEBUG_VALUE: mk_append_context_data:c <- $r12
	#DEBUG_VALUE: mk_append_context_data:size <- 2
	#DEBUG_VALUE: mk_append_context_data:ns <- $ebx
	#DEBUG_VALUE: dn <- $eax
	.loc	0 0 0 is_stmt 0                 # x264_src/output/matroska_ebml.c:0:0
	movl	%eax, %r15d
.Ltmp232:
	#DEBUG_VALUE: dn <- $r15d
	#DEBUG_VALUE: dn <- $r15d
	.loc	0 100 16 is_stmt 1              # x264_src/output/matroska_ebml.c:100:16
	leal	(%r15,%r15), %eax
.Ltmp233:
	#DEBUG_VALUE: dn <- $eax
	.loc	0 99 19                         # x264_src/output/matroska_ebml.c:99:19
	cmpl	%r15d, %ebx
	.loc	0 99 9 is_stmt 0                # x264_src/output/matroska_ebml.c:99:9
	ja	.LBB2_63
.Ltmp234:
# %bb.64:                               # %while.end.i76.i691
	#DEBUG_VALUE: mk_writeHeader:w <- $r14
	#DEBUG_VALUE: mk_writeHeader:writing_app <- [DW_OP_plus_uconst 32] [$rsp+0]
	#DEBUG_VALUE: mk_writeHeader:codec_id <- [DW_OP_LLVM_entry_value 1] $rdx
	#DEBUG_VALUE: mk_writeHeader:codec_private <- [DW_OP_LLVM_entry_value 1] $rcx
	#DEBUG_VALUE: mk_writeHeader:codec_private_size <- [DW_OP_LLVM_entry_value 1] $r8d
	#DEBUG_VALUE: mk_writeHeader:default_frame_duration <- [DW_OP_LLVM_entry_value 1] $r9
	#DEBUG_VALUE: mk_writeHeader:c <- $r12
	#DEBUG_VALUE: mk_write_uint:c <- $r12
	#DEBUG_VALUE: mk_write_uint:id <- 17139
	#DEBUG_VALUE: mk_write_uint:ui <- 8
	#DEBUG_VALUE: mk_write_uint:c_ui <- [DW_OP_LLVM_fragment 0 8] 0
	#DEBUG_VALUE: mk_write_uint:c_ui <- [DW_OP_LLVM_fragment 8 8] 0
	#DEBUG_VALUE: mk_write_uint:c_ui <- [DW_OP_LLVM_fragment 16 8] 0
	#DEBUG_VALUE: mk_write_uint:c_ui <- [DW_OP_LLVM_fragment 24 8] 0
	#DEBUG_VALUE: mk_write_uint:c_ui <- [DW_OP_LLVM_fragment 32 8] 0
	#DEBUG_VALUE: mk_write_uint:c_ui <- [DW_OP_LLVM_fragment 40 8] 0
	#DEBUG_VALUE: mk_write_uint:c_ui <- [DW_OP_LLVM_fragment 48 8] 0
	#DEBUG_VALUE: mk_write_uint:c_ui <- [DW_OP_LLVM_fragment 56 8] 8
	#DEBUG_VALUE: mk_write_uint:i <- 0
	#DEBUG_VALUE: mk_write_id:c <- $r12
	#DEBUG_VALUE: mk_write_id:id <- 17139
	#DEBUG_VALUE: mk_write_id:c_id <- [DW_OP_LLVM_fragment 0 8] 0
	#DEBUG_VALUE: mk_write_id:c_id <- [DW_OP_LLVM_fragment 8 8] 0
	#DEBUG_VALUE: mk_write_id:c_id <- [DW_OP_LLVM_fragment 16 8] 66
	#DEBUG_VALUE: mk_write_id:c_id <- [DW_OP_LLVM_fragment 24 8] -13
	#DEBUG_VALUE: mk_append_context_data:c <- $r12
	#DEBUG_VALUE: mk_append_context_data:size <- 2
	#DEBUG_VALUE: mk_append_context_data:ns <- $ebx
	#DEBUG_VALUE: dn <- $eax
	.loc	0 102 26 is_stmt 1              # x264_src/output/matroska_ebml.c:102:26
	movq	40(%r12), %rdi
	.loc	0 102 32 is_stmt 0              # x264_src/output/matroska_ebml.c:102:32
	movl	%r15d, %esi
	.loc	0 102 14                        # x264_src/output/matroska_ebml.c:102:14
	callq	realloc@PLT
.Ltmp235:
	#DEBUG_VALUE: dp <- $rax
	.loc	0 103 14 is_stmt 1              # x264_src/output/matroska_ebml.c:103:14
	testq	%rax, %rax
.Ltmp236:
	.loc	0 103 13 is_stmt 0              # x264_src/output/matroska_ebml.c:103:13
	je	.LBB2_137
.Ltmp237:
# %bb.65:                               # %if.end.i81.i696
	#DEBUG_VALUE: mk_writeHeader:w <- $r14
	#DEBUG_VALUE: mk_writeHeader:writing_app <- [DW_OP_plus_uconst 32] [$rsp+0]
	#DEBUG_VALUE: mk_writeHeader:codec_id <- [DW_OP_LLVM_entry_value 1] $rdx
	#DEBUG_VALUE: mk_writeHeader:codec_private <- [DW_OP_LLVM_entry_value 1] $rcx
	#DEBUG_VALUE: mk_writeHeader:codec_private_size <- [DW_OP_LLVM_entry_value 1] $r8d
	#DEBUG_VALUE: mk_writeHeader:default_frame_duration <- [DW_OP_LLVM_entry_value 1] $r9
	#DEBUG_VALUE: mk_writeHeader:c <- $r12
	#DEBUG_VALUE: mk_write_uint:c <- $r12
	#DEBUG_VALUE: mk_write_uint:id <- 17139
	#DEBUG_VALUE: mk_write_uint:ui <- 8
	#DEBUG_VALUE: mk_write_uint:c_ui <- [DW_OP_LLVM_fragment 0 8] 0
	#DEBUG_VALUE: mk_write_uint:c_ui <- [DW_OP_LLVM_fragment 8 8] 0
	#DEBUG_VALUE: mk_write_uint:c_ui <- [DW_OP_LLVM_fragment 16 8] 0
	#DEBUG_VALUE: mk_write_uint:c_ui <- [DW_OP_LLVM_fragment 24 8] 0
	#DEBUG_VALUE: mk_write_uint:c_ui <- [DW_OP_LLVM_fragment 32 8] 0
	#DEBUG_VALUE: mk_write_uint:c_ui <- [DW_OP_LLVM_fragment 40 8] 0
	#DEBUG_VALUE: mk_write_uint:c_ui <- [DW_OP_LLVM_fragment 48 8] 0
	#DEBUG_VALUE: mk_write_uint:c_ui <- [DW_OP_LLVM_fragment 56 8] 8
	#DEBUG_VALUE: mk_write_uint:i <- 0
	#DEBUG_VALUE: mk_write_id:c <- $r12
	#DEBUG_VALUE: mk_write_id:id <- 17139
	#DEBUG_VALUE: mk_write_id:c_id <- [DW_OP_LLVM_fragment 0 8] 0
	#DEBUG_VALUE: mk_write_id:c_id <- [DW_OP_LLVM_fragment 8 8] 0
	#DEBUG_VALUE: mk_write_id:c_id <- [DW_OP_LLVM_fragment 16 8] 66
	#DEBUG_VALUE: mk_write_id:c_id <- [DW_OP_LLVM_fragment 24 8] -13
	#DEBUG_VALUE: mk_append_context_data:c <- $r12
	#DEBUG_VALUE: mk_append_context_data:size <- 2
	#DEBUG_VALUE: mk_append_context_data:ns <- $ebx
	#DEBUG_VALUE: dp <- $rax
	.loc	0 106 17 is_stmt 1              # x264_src/output/matroska_ebml.c:106:17
	movq	%rax, 40(%r12)
	.loc	0 107 18                        # x264_src/output/matroska_ebml.c:107:18
	movl	%r15d, 52(%r12)
.Ltmp238:
	.loc	0 110 33                        # x264_src/output/matroska_ebml.c:110:33
	movl	48(%r12), %r15d
	jmp	.LBB2_67
.Ltmp239:
.LBB2_66:                               # %entry.if.end11_crit_edge.i61.i675
	#DEBUG_VALUE: mk_writeHeader:w <- $r14
	#DEBUG_VALUE: mk_writeHeader:writing_app <- [DW_OP_plus_uconst 32] [$rsp+0]
	#DEBUG_VALUE: mk_writeHeader:codec_id <- [DW_OP_LLVM_entry_value 1] $rdx
	#DEBUG_VALUE: mk_writeHeader:codec_private <- [DW_OP_LLVM_entry_value 1] $rcx
	#DEBUG_VALUE: mk_writeHeader:codec_private_size <- [DW_OP_LLVM_entry_value 1] $r8d
	#DEBUG_VALUE: mk_writeHeader:default_frame_duration <- [DW_OP_LLVM_entry_value 1] $r9
	#DEBUG_VALUE: mk_writeHeader:c <- $r12
	#DEBUG_VALUE: mk_write_uint:c <- $r12
	#DEBUG_VALUE: mk_write_uint:id <- 17139
	#DEBUG_VALUE: mk_write_uint:ui <- 8
	#DEBUG_VALUE: mk_write_uint:c_ui <- [DW_OP_LLVM_fragment 0 8] 0
	#DEBUG_VALUE: mk_write_uint:c_ui <- [DW_OP_LLVM_fragment 8 8] 0
	#DEBUG_VALUE: mk_write_uint:c_ui <- [DW_OP_LLVM_fragment 16 8] 0
	#DEBUG_VALUE: mk_write_uint:c_ui <- [DW_OP_LLVM_fragment 24 8] 0
	#DEBUG_VALUE: mk_write_uint:c_ui <- [DW_OP_LLVM_fragment 32 8] 0
	#DEBUG_VALUE: mk_write_uint:c_ui <- [DW_OP_LLVM_fragment 40 8] 0
	#DEBUG_VALUE: mk_write_uint:c_ui <- [DW_OP_LLVM_fragment 48 8] 0
	#DEBUG_VALUE: mk_write_uint:c_ui <- [DW_OP_LLVM_fragment 56 8] 8
	#DEBUG_VALUE: mk_write_uint:i <- 0
	#DEBUG_VALUE: mk_write_id:c <- $r12
	#DEBUG_VALUE: mk_write_id:id <- 17139
	#DEBUG_VALUE: mk_write_id:c_id <- [DW_OP_LLVM_fragment 0 8] 0
	#DEBUG_VALUE: mk_write_id:c_id <- [DW_OP_LLVM_fragment 8 8] 0
	#DEBUG_VALUE: mk_write_id:c_id <- [DW_OP_LLVM_fragment 16 8] 66
	#DEBUG_VALUE: mk_write_id:c_id <- [DW_OP_LLVM_fragment 24 8] -13
	#DEBUG_VALUE: mk_append_context_data:c <- $r12
	#DEBUG_VALUE: mk_append_context_data:size <- 2
	#DEBUG_VALUE: mk_append_context_data:ns <- $ebx
	.loc	0 110 23 is_stmt 0              # x264_src/output/matroska_ebml.c:110:23
	movq	40(%r12), %rax
.Ltmp240:
.LBB2_67:                               # %land.rhs.preheader.i401
	#DEBUG_VALUE: mk_writeHeader:w <- $r14
	#DEBUG_VALUE: mk_writeHeader:writing_app <- [DW_OP_plus_uconst 32] [$rsp+0]
	#DEBUG_VALUE: mk_writeHeader:codec_id <- [DW_OP_LLVM_entry_value 1] $rdx
	#DEBUG_VALUE: mk_writeHeader:codec_private <- [DW_OP_LLVM_entry_value 1] $rcx
	#DEBUG_VALUE: mk_writeHeader:codec_private_size <- [DW_OP_LLVM_entry_value 1] $r8d
	#DEBUG_VALUE: mk_writeHeader:default_frame_duration <- [DW_OP_LLVM_entry_value 1] $r9
	#DEBUG_VALUE: mk_writeHeader:c <- $r12
	#DEBUG_VALUE: mk_write_uint:c <- $r12
	#DEBUG_VALUE: mk_write_uint:id <- 17139
	#DEBUG_VALUE: mk_write_uint:ui <- 8
	#DEBUG_VALUE: mk_write_uint:c_ui <- [DW_OP_LLVM_fragment 0 8] 0
	#DEBUG_VALUE: mk_write_uint:c_ui <- [DW_OP_LLVM_fragment 8 8] 0
	#DEBUG_VALUE: mk_write_uint:c_ui <- [DW_OP_LLVM_fragment 16 8] 0
	#DEBUG_VALUE: mk_write_uint:c_ui <- [DW_OP_LLVM_fragment 24 8] 0
	#DEBUG_VALUE: mk_write_uint:c_ui <- [DW_OP_LLVM_fragment 32 8] 0
	#DEBUG_VALUE: mk_write_uint:c_ui <- [DW_OP_LLVM_fragment 40 8] 0
	#DEBUG_VALUE: mk_write_uint:c_ui <- [DW_OP_LLVM_fragment 48 8] 0
	#DEBUG_VALUE: mk_write_uint:c_ui <- [DW_OP_LLVM_fragment 56 8] 8
	#DEBUG_VALUE: mk_write_uint:i <- 0
	#DEBUG_VALUE: mk_write_id:c <- $r12
	#DEBUG_VALUE: mk_write_id:id <- 17139
	#DEBUG_VALUE: mk_write_id:c_id <- [DW_OP_LLVM_fragment 0 8] 0
	#DEBUG_VALUE: mk_write_id:c_id <- [DW_OP_LLVM_fragment 8 8] 0
	#DEBUG_VALUE: mk_write_id:c_id <- [DW_OP_LLVM_fragment 16 8] 66
	#DEBUG_VALUE: mk_write_id:c_id <- [DW_OP_LLVM_fragment 24 8] -13
	#DEBUG_VALUE: mk_append_context_data:c <- $r12
	#DEBUG_VALUE: mk_append_context_data:size <- 2
	#DEBUG_VALUE: mk_append_context_data:ns <- $ebx
	.loc	0 110 28                        # x264_src/output/matroska_ebml.c:110:28
	movl	%r15d, %ecx
	.loc	0 110 5                         # x264_src/output/matroska_ebml.c:110:5
	movw	$-3262, (%rax,%rcx)             # imm = 0xF342
	.loc	0 112 14 is_stmt 1              # x264_src/output/matroska_ebml.c:112:14
	movl	%ebx, 48(%r12)
.Ltmp241:
	#DEBUG_VALUE: mk_write_uint:i <- 6
	#DEBUG_VALUE: mk_write_size:c <- $r12
	#DEBUG_VALUE: mk_write_size:size <- 1
	#DEBUG_VALUE: mk_write_size:c_size <- [DW_OP_LLVM_fragment 0 8] 8
	#DEBUG_VALUE: mk_write_size:c_size <- [DW_OP_LLVM_fragment 8 8] 0
	#DEBUG_VALUE: mk_write_size:c_size <- [DW_OP_LLVM_fragment 16 8] 0
	#DEBUG_VALUE: mk_write_size:c_size <- [DW_OP_LLVM_fragment 24 8] 0
	#DEBUG_VALUE: mk_write_size:c_size <- [DW_OP_LLVM_fragment 32 8] -127
	#DEBUG_VALUE: mk_append_context_data:c <- $r12
	#DEBUG_VALUE: mk_append_context_data:data <- undef
	#DEBUG_VALUE: mk_append_context_data:size <- 1
	.loc	0 93 28                         # x264_src/output/matroska_ebml.c:93:28
	leal	15(%r13), %ebp
.Ltmp242:
	#DEBUG_VALUE: mk_append_context_data:ns <- $ebp
	.loc	0 95 17                         # x264_src/output/matroska_ebml.c:95:17
	movl	52(%r12), %eax
	.loc	0 95 12 is_stmt 0               # x264_src/output/matroska_ebml.c:95:12
	cmpl	%eax, %ebp
.Ltmp243:
	.loc	0 95 9                          # x264_src/output/matroska_ebml.c:95:9
	jbe	.LBB2_72
.Ltmp244:
# %bb.68:                               # %if.then.i.i655
	#DEBUG_VALUE: mk_writeHeader:w <- $r14
	#DEBUG_VALUE: mk_writeHeader:writing_app <- [DW_OP_plus_uconst 32] [$rsp+0]
	#DEBUG_VALUE: mk_writeHeader:codec_id <- [DW_OP_LLVM_entry_value 1] $rdx
	#DEBUG_VALUE: mk_writeHeader:codec_private <- [DW_OP_LLVM_entry_value 1] $rcx
	#DEBUG_VALUE: mk_writeHeader:codec_private_size <- [DW_OP_LLVM_entry_value 1] $r8d
	#DEBUG_VALUE: mk_writeHeader:default_frame_duration <- [DW_OP_LLVM_entry_value 1] $r9
	#DEBUG_VALUE: mk_writeHeader:c <- $r12
	#DEBUG_VALUE: mk_write_uint:c <- $r12
	#DEBUG_VALUE: mk_write_uint:id <- 17139
	#DEBUG_VALUE: mk_write_uint:ui <- 8
	#DEBUG_VALUE: mk_write_uint:c_ui <- [DW_OP_LLVM_fragment 0 8] 0
	#DEBUG_VALUE: mk_write_uint:c_ui <- [DW_OP_LLVM_fragment 8 8] 0
	#DEBUG_VALUE: mk_write_uint:c_ui <- [DW_OP_LLVM_fragment 16 8] 0
	#DEBUG_VALUE: mk_write_uint:c_ui <- [DW_OP_LLVM_fragment 24 8] 0
	#DEBUG_VALUE: mk_write_uint:c_ui <- [DW_OP_LLVM_fragment 32 8] 0
	#DEBUG_VALUE: mk_write_uint:c_ui <- [DW_OP_LLVM_fragment 40 8] 0
	#DEBUG_VALUE: mk_write_uint:c_ui <- [DW_OP_LLVM_fragment 48 8] 0
	#DEBUG_VALUE: mk_write_uint:c_ui <- [DW_OP_LLVM_fragment 56 8] 8
	#DEBUG_VALUE: mk_write_uint:i <- 6
	#DEBUG_VALUE: mk_write_size:c <- $r12
	#DEBUG_VALUE: mk_write_size:size <- 1
	#DEBUG_VALUE: mk_write_size:c_size <- [DW_OP_LLVM_fragment 0 8] 8
	#DEBUG_VALUE: mk_write_size:c_size <- [DW_OP_LLVM_fragment 8 8] 0
	#DEBUG_VALUE: mk_write_size:c_size <- [DW_OP_LLVM_fragment 16 8] 0
	#DEBUG_VALUE: mk_write_size:c_size <- [DW_OP_LLVM_fragment 24 8] 0
	#DEBUG_VALUE: mk_write_size:c_size <- [DW_OP_LLVM_fragment 32 8] -127
	#DEBUG_VALUE: mk_append_context_data:c <- $r12
	#DEBUG_VALUE: mk_append_context_data:size <- 1
	#DEBUG_VALUE: mk_append_context_data:ns <- $ebp
	.loc	0 0 9                           # x264_src/output/matroska_ebml.c:0:9
	leal	(%rax,%rax), %ecx
.Ltmp245:
	.loc	0 98 23 is_stmt 1               # x264_src/output/matroska_ebml.c:98:23
	testl	%eax, %eax
	movl	$16, %eax
	cmovnel	%ecx, %eax
.Ltmp246:
	#DEBUG_VALUE: dn <- $eax
	.p2align	4, 0x90
.LBB2_69:                               # %while.cond.i.i659
                                        # =>This Inner Loop Header: Depth=1
	#DEBUG_VALUE: mk_writeHeader:w <- $r14
	#DEBUG_VALUE: mk_writeHeader:writing_app <- [DW_OP_plus_uconst 32] [$rsp+0]
	#DEBUG_VALUE: mk_writeHeader:codec_id <- [DW_OP_LLVM_entry_value 1] $rdx
	#DEBUG_VALUE: mk_writeHeader:codec_private <- [DW_OP_LLVM_entry_value 1] $rcx
	#DEBUG_VALUE: mk_writeHeader:codec_private_size <- [DW_OP_LLVM_entry_value 1] $r8d
	#DEBUG_VALUE: mk_writeHeader:default_frame_duration <- [DW_OP_LLVM_entry_value 1] $r9
	#DEBUG_VALUE: mk_writeHeader:c <- $r12
	#DEBUG_VALUE: mk_write_uint:c <- $r12
	#DEBUG_VALUE: mk_write_uint:id <- 17139
	#DEBUG_VALUE: mk_write_uint:ui <- 8
	#DEBUG_VALUE: mk_write_uint:c_ui <- [DW_OP_LLVM_fragment 0 8] 0
	#DEBUG_VALUE: mk_write_uint:c_ui <- [DW_OP_LLVM_fragment 8 8] 0
	#DEBUG_VALUE: mk_write_uint:c_ui <- [DW_OP_LLVM_fragment 16 8] 0
	#DEBUG_VALUE: mk_write_uint:c_ui <- [DW_OP_LLVM_fragment 24 8] 0
	#DEBUG_VALUE: mk_write_uint:c_ui <- [DW_OP_LLVM_fragment 32 8] 0
	#DEBUG_VALUE: mk_write_uint:c_ui <- [DW_OP_LLVM_fragment 40 8] 0
	#DEBUG_VALUE: mk_write_uint:c_ui <- [DW_OP_LLVM_fragment 48 8] 0
	#DEBUG_VALUE: mk_write_uint:c_ui <- [DW_OP_LLVM_fragment 56 8] 8
	#DEBUG_VALUE: mk_write_uint:i <- 6
	#DEBUG_VALUE: mk_write_size:c <- $r12
	#DEBUG_VALUE: mk_write_size:size <- 1
	#DEBUG_VALUE: mk_write_size:c_size <- [DW_OP_LLVM_fragment 0 8] 8
	#DEBUG_VALUE: mk_write_size:c_size <- [DW_OP_LLVM_fragment 8 8] 0
	#DEBUG_VALUE: mk_write_size:c_size <- [DW_OP_LLVM_fragment 16 8] 0
	#DEBUG_VALUE: mk_write_size:c_size <- [DW_OP_LLVM_fragment 24 8] 0
	#DEBUG_VALUE: mk_write_size:c_size <- [DW_OP_LLVM_fragment 32 8] -127
	#DEBUG_VALUE: mk_append_context_data:c <- $r12
	#DEBUG_VALUE: mk_append_context_data:size <- 1
	#DEBUG_VALUE: mk_append_context_data:ns <- $ebp
	#DEBUG_VALUE: dn <- $eax
	.loc	0 0 0 is_stmt 0                 # x264_src/output/matroska_ebml.c:0:0
	movl	%eax, %ebx
.Ltmp247:
	#DEBUG_VALUE: dn <- $ebx
	#DEBUG_VALUE: dn <- $ebx
	.loc	0 100 16 is_stmt 1              # x264_src/output/matroska_ebml.c:100:16
	leal	(%rbx,%rbx), %eax
.Ltmp248:
	#DEBUG_VALUE: dn <- $eax
	.loc	0 99 19                         # x264_src/output/matroska_ebml.c:99:19
	cmpl	%ebx, %ebp
	.loc	0 99 9 is_stmt 0                # x264_src/output/matroska_ebml.c:99:9
	ja	.LBB2_69
.Ltmp249:
# %bb.70:                               # %while.end.i.i663
	#DEBUG_VALUE: mk_writeHeader:w <- $r14
	#DEBUG_VALUE: mk_writeHeader:writing_app <- [DW_OP_plus_uconst 32] [$rsp+0]
	#DEBUG_VALUE: mk_writeHeader:codec_id <- [DW_OP_LLVM_entry_value 1] $rdx
	#DEBUG_VALUE: mk_writeHeader:codec_private <- [DW_OP_LLVM_entry_value 1] $rcx
	#DEBUG_VALUE: mk_writeHeader:codec_private_size <- [DW_OP_LLVM_entry_value 1] $r8d
	#DEBUG_VALUE: mk_writeHeader:default_frame_duration <- [DW_OP_LLVM_entry_value 1] $r9
	#DEBUG_VALUE: mk_writeHeader:c <- $r12
	#DEBUG_VALUE: mk_write_uint:c <- $r12
	#DEBUG_VALUE: mk_write_uint:id <- 17139
	#DEBUG_VALUE: mk_write_uint:ui <- 8
	#DEBUG_VALUE: mk_write_uint:c_ui <- [DW_OP_LLVM_fragment 0 8] 0
	#DEBUG_VALUE: mk_write_uint:c_ui <- [DW_OP_LLVM_fragment 8 8] 0
	#DEBUG_VALUE: mk_write_uint:c_ui <- [DW_OP_LLVM_fragment 16 8] 0
	#DEBUG_VALUE: mk_write_uint:c_ui <- [DW_OP_LLVM_fragment 24 8] 0
	#DEBUG_VALUE: mk_write_uint:c_ui <- [DW_OP_LLVM_fragment 32 8] 0
	#DEBUG_VALUE: mk_write_uint:c_ui <- [DW_OP_LLVM_fragment 40 8] 0
	#DEBUG_VALUE: mk_write_uint:c_ui <- [DW_OP_LLVM_fragment 48 8] 0
	#DEBUG_VALUE: mk_write_uint:c_ui <- [DW_OP_LLVM_fragment 56 8] 8
	#DEBUG_VALUE: mk_write_uint:i <- 6
	#DEBUG_VALUE: mk_write_size:c <- $r12
	#DEBUG_VALUE: mk_write_size:size <- 1
	#DEBUG_VALUE: mk_write_size:c_size <- [DW_OP_LLVM_fragment 0 8] 8
	#DEBUG_VALUE: mk_write_size:c_size <- [DW_OP_LLVM_fragment 8 8] 0
	#DEBUG_VALUE: mk_write_size:c_size <- [DW_OP_LLVM_fragment 16 8] 0
	#DEBUG_VALUE: mk_write_size:c_size <- [DW_OP_LLVM_fragment 24 8] 0
	#DEBUG_VALUE: mk_write_size:c_size <- [DW_OP_LLVM_fragment 32 8] -127
	#DEBUG_VALUE: mk_append_context_data:c <- $r12
	#DEBUG_VALUE: mk_append_context_data:size <- 1
	#DEBUG_VALUE: mk_append_context_data:ns <- $ebp
	#DEBUG_VALUE: dn <- $eax
	.loc	0 102 26 is_stmt 1              # x264_src/output/matroska_ebml.c:102:26
	movq	40(%r12), %rdi
	.loc	0 102 32 is_stmt 0              # x264_src/output/matroska_ebml.c:102:32
	movl	%ebx, %esi
	.loc	0 102 14                        # x264_src/output/matroska_ebml.c:102:14
	callq	realloc@PLT
.Ltmp250:
	#DEBUG_VALUE: dp <- $rax
	.loc	0 103 14 is_stmt 1              # x264_src/output/matroska_ebml.c:103:14
	testq	%rax, %rax
.Ltmp251:
	.loc	0 103 13 is_stmt 0              # x264_src/output/matroska_ebml.c:103:13
	je	.LBB2_137
.Ltmp252:
# %bb.71:                               # %if.end.i.i668
	#DEBUG_VALUE: mk_writeHeader:w <- $r14
	#DEBUG_VALUE: mk_writeHeader:writing_app <- [DW_OP_plus_uconst 32] [$rsp+0]
	#DEBUG_VALUE: mk_writeHeader:codec_id <- [DW_OP_LLVM_entry_value 1] $rdx
	#DEBUG_VALUE: mk_writeHeader:codec_private <- [DW_OP_LLVM_entry_value 1] $rcx
	#DEBUG_VALUE: mk_writeHeader:codec_private_size <- [DW_OP_LLVM_entry_value 1] $r8d
	#DEBUG_VALUE: mk_writeHeader:default_frame_duration <- [DW_OP_LLVM_entry_value 1] $r9
	#DEBUG_VALUE: mk_writeHeader:c <- $r12
	#DEBUG_VALUE: mk_write_uint:c <- $r12
	#DEBUG_VALUE: mk_write_uint:id <- 17139
	#DEBUG_VALUE: mk_write_uint:ui <- 8
	#DEBUG_VALUE: mk_write_uint:c_ui <- [DW_OP_LLVM_fragment 0 8] 0
	#DEBUG_VALUE: mk_write_uint:c_ui <- [DW_OP_LLVM_fragment 8 8] 0
	#DEBUG_VALUE: mk_write_uint:c_ui <- [DW_OP_LLVM_fragment 16 8] 0
	#DEBUG_VALUE: mk_write_uint:c_ui <- [DW_OP_LLVM_fragment 24 8] 0
	#DEBUG_VALUE: mk_write_uint:c_ui <- [DW_OP_LLVM_fragment 32 8] 0
	#DEBUG_VALUE: mk_write_uint:c_ui <- [DW_OP_LLVM_fragment 40 8] 0
	#DEBUG_VALUE: mk_write_uint:c_ui <- [DW_OP_LLVM_fragment 48 8] 0
	#DEBUG_VALUE: mk_write_uint:c_ui <- [DW_OP_LLVM_fragment 56 8] 8
	#DEBUG_VALUE: mk_write_uint:i <- 6
	#DEBUG_VALUE: mk_write_size:c <- $r12
	#DEBUG_VALUE: mk_write_size:size <- 1
	#DEBUG_VALUE: mk_write_size:c_size <- [DW_OP_LLVM_fragment 0 8] 8
	#DEBUG_VALUE: mk_write_size:c_size <- [DW_OP_LLVM_fragment 8 8] 0
	#DEBUG_VALUE: mk_write_size:c_size <- [DW_OP_LLVM_fragment 16 8] 0
	#DEBUG_VALUE: mk_write_size:c_size <- [DW_OP_LLVM_fragment 24 8] 0
	#DEBUG_VALUE: mk_write_size:c_size <- [DW_OP_LLVM_fragment 32 8] -127
	#DEBUG_VALUE: mk_append_context_data:c <- $r12
	#DEBUG_VALUE: mk_append_context_data:size <- 1
	#DEBUG_VALUE: mk_append_context_data:ns <- $ebp
	#DEBUG_VALUE: dp <- $rax
	.loc	0 106 17 is_stmt 1              # x264_src/output/matroska_ebml.c:106:17
	movq	%rax, 40(%r12)
	.loc	0 107 18                        # x264_src/output/matroska_ebml.c:107:18
	movl	%ebx, 52(%r12)
.Ltmp253:
	.loc	0 110 33                        # x264_src/output/matroska_ebml.c:110:33
	movl	48(%r12), %ebx
	jmp	.LBB2_73
.Ltmp254:
.LBB2_72:                               # %entry.if.end11_crit_edge.i.i648
	#DEBUG_VALUE: mk_writeHeader:w <- $r14
	#DEBUG_VALUE: mk_writeHeader:writing_app <- [DW_OP_plus_uconst 32] [$rsp+0]
	#DEBUG_VALUE: mk_writeHeader:codec_id <- [DW_OP_LLVM_entry_value 1] $rdx
	#DEBUG_VALUE: mk_writeHeader:codec_private <- [DW_OP_LLVM_entry_value 1] $rcx
	#DEBUG_VALUE: mk_writeHeader:codec_private_size <- [DW_OP_LLVM_entry_value 1] $r8d
	#DEBUG_VALUE: mk_writeHeader:default_frame_duration <- [DW_OP_LLVM_entry_value 1] $r9
	#DEBUG_VALUE: mk_writeHeader:c <- $r12
	#DEBUG_VALUE: mk_write_uint:c <- $r12
	#DEBUG_VALUE: mk_write_uint:id <- 17139
	#DEBUG_VALUE: mk_write_uint:ui <- 8
	#DEBUG_VALUE: mk_write_uint:c_ui <- [DW_OP_LLVM_fragment 0 8] 0
	#DEBUG_VALUE: mk_write_uint:c_ui <- [DW_OP_LLVM_fragment 8 8] 0
	#DEBUG_VALUE: mk_write_uint:c_ui <- [DW_OP_LLVM_fragment 16 8] 0
	#DEBUG_VALUE: mk_write_uint:c_ui <- [DW_OP_LLVM_fragment 24 8] 0
	#DEBUG_VALUE: mk_write_uint:c_ui <- [DW_OP_LLVM_fragment 32 8] 0
	#DEBUG_VALUE: mk_write_uint:c_ui <- [DW_OP_LLVM_fragment 40 8] 0
	#DEBUG_VALUE: mk_write_uint:c_ui <- [DW_OP_LLVM_fragment 48 8] 0
	#DEBUG_VALUE: mk_write_uint:c_ui <- [DW_OP_LLVM_fragment 56 8] 8
	#DEBUG_VALUE: mk_write_uint:i <- 6
	#DEBUG_VALUE: mk_write_size:c <- $r12
	#DEBUG_VALUE: mk_write_size:size <- 1
	#DEBUG_VALUE: mk_write_size:c_size <- [DW_OP_LLVM_fragment 0 8] 8
	#DEBUG_VALUE: mk_write_size:c_size <- [DW_OP_LLVM_fragment 8 8] 0
	#DEBUG_VALUE: mk_write_size:c_size <- [DW_OP_LLVM_fragment 16 8] 0
	#DEBUG_VALUE: mk_write_size:c_size <- [DW_OP_LLVM_fragment 24 8] 0
	#DEBUG_VALUE: mk_write_size:c_size <- [DW_OP_LLVM_fragment 32 8] -127
	#DEBUG_VALUE: mk_append_context_data:c <- $r12
	#DEBUG_VALUE: mk_append_context_data:size <- 1
	#DEBUG_VALUE: mk_append_context_data:ns <- $ebp
	.loc	0 110 23 is_stmt 0              # x264_src/output/matroska_ebml.c:110:23
	movq	40(%r12), %rax
.Ltmp255:
.LBB2_73:                               # %do.body31.i404
	#DEBUG_VALUE: mk_writeHeader:w <- $r14
	#DEBUG_VALUE: mk_writeHeader:writing_app <- [DW_OP_plus_uconst 32] [$rsp+0]
	#DEBUG_VALUE: mk_writeHeader:codec_id <- [DW_OP_LLVM_entry_value 1] $rdx
	#DEBUG_VALUE: mk_writeHeader:codec_private <- [DW_OP_LLVM_entry_value 1] $rcx
	#DEBUG_VALUE: mk_writeHeader:codec_private_size <- [DW_OP_LLVM_entry_value 1] $r8d
	#DEBUG_VALUE: mk_writeHeader:default_frame_duration <- [DW_OP_LLVM_entry_value 1] $r9
	#DEBUG_VALUE: mk_writeHeader:c <- $r12
	#DEBUG_VALUE: mk_write_uint:c <- $r12
	#DEBUG_VALUE: mk_write_uint:id <- 17139
	#DEBUG_VALUE: mk_write_uint:ui <- 8
	#DEBUG_VALUE: mk_write_uint:c_ui <- [DW_OP_LLVM_fragment 0 8] 0
	#DEBUG_VALUE: mk_write_uint:c_ui <- [DW_OP_LLVM_fragment 8 8] 0
	#DEBUG_VALUE: mk_write_uint:c_ui <- [DW_OP_LLVM_fragment 16 8] 0
	#DEBUG_VALUE: mk_write_uint:c_ui <- [DW_OP_LLVM_fragment 24 8] 0
	#DEBUG_VALUE: mk_write_uint:c_ui <- [DW_OP_LLVM_fragment 32 8] 0
	#DEBUG_VALUE: mk_write_uint:c_ui <- [DW_OP_LLVM_fragment 40 8] 0
	#DEBUG_VALUE: mk_write_uint:c_ui <- [DW_OP_LLVM_fragment 48 8] 0
	#DEBUG_VALUE: mk_write_uint:c_ui <- [DW_OP_LLVM_fragment 56 8] 8
	#DEBUG_VALUE: mk_write_uint:i <- 6
	#DEBUG_VALUE: mk_write_size:c <- $r12
	#DEBUG_VALUE: mk_write_size:size <- 1
	#DEBUG_VALUE: mk_write_size:c_size <- [DW_OP_LLVM_fragment 0 8] 8
	#DEBUG_VALUE: mk_write_size:c_size <- [DW_OP_LLVM_fragment 8 8] 0
	#DEBUG_VALUE: mk_write_size:c_size <- [DW_OP_LLVM_fragment 16 8] 0
	#DEBUG_VALUE: mk_write_size:c_size <- [DW_OP_LLVM_fragment 24 8] 0
	#DEBUG_VALUE: mk_write_size:c_size <- [DW_OP_LLVM_fragment 32 8] -127
	#DEBUG_VALUE: mk_append_context_data:c <- $r12
	#DEBUG_VALUE: mk_append_context_data:size <- 1
	#DEBUG_VALUE: mk_append_context_data:ns <- $ebp
	.loc	0 110 28                        # x264_src/output/matroska_ebml.c:110:28
	movl	%ebx, %ecx
	.loc	0 110 5                         # x264_src/output/matroska_ebml.c:110:5
	movb	$-127, (%rax,%rcx)
	.loc	0 112 14 is_stmt 1              # x264_src/output/matroska_ebml.c:112:14
	movl	%ebp, 48(%r12)
.Ltmp256:
	#DEBUG_VALUE: mk_append_context_data:c <- $r12
	#DEBUG_VALUE: mk_append_context_data:data <- undef
	#DEBUG_VALUE: mk_append_context_data:size <- 1
	.loc	0 93 28                         # x264_src/output/matroska_ebml.c:93:28
	leal	16(%r13), %r15d
.Ltmp257:
	#DEBUG_VALUE: mk_append_context_data:ns <- $r15d
	.loc	0 95 17                         # x264_src/output/matroska_ebml.c:95:17
	movl	52(%r12), %eax
	.loc	0 95 12 is_stmt 0               # x264_src/output/matroska_ebml.c:95:12
	cmpl	%eax, %r15d
.Ltmp258:
	.loc	0 95 9                          # x264_src/output/matroska_ebml.c:95:9
	jbe	.LBB2_78
.Ltmp259:
# %bb.74:                               # %if.then.i.i417
	#DEBUG_VALUE: mk_writeHeader:w <- $r14
	#DEBUG_VALUE: mk_writeHeader:writing_app <- [DW_OP_plus_uconst 32] [$rsp+0]
	#DEBUG_VALUE: mk_writeHeader:codec_id <- [DW_OP_LLVM_entry_value 1] $rdx
	#DEBUG_VALUE: mk_writeHeader:codec_private <- [DW_OP_LLVM_entry_value 1] $rcx
	#DEBUG_VALUE: mk_writeHeader:codec_private_size <- [DW_OP_LLVM_entry_value 1] $r8d
	#DEBUG_VALUE: mk_writeHeader:default_frame_duration <- [DW_OP_LLVM_entry_value 1] $r9
	#DEBUG_VALUE: mk_writeHeader:c <- $r12
	#DEBUG_VALUE: mk_write_uint:c <- $r12
	#DEBUG_VALUE: mk_write_uint:id <- 17139
	#DEBUG_VALUE: mk_write_uint:ui <- 8
	#DEBUG_VALUE: mk_write_uint:c_ui <- [DW_OP_LLVM_fragment 0 8] 0
	#DEBUG_VALUE: mk_write_uint:c_ui <- [DW_OP_LLVM_fragment 8 8] 0
	#DEBUG_VALUE: mk_write_uint:c_ui <- [DW_OP_LLVM_fragment 16 8] 0
	#DEBUG_VALUE: mk_write_uint:c_ui <- [DW_OP_LLVM_fragment 24 8] 0
	#DEBUG_VALUE: mk_write_uint:c_ui <- [DW_OP_LLVM_fragment 32 8] 0
	#DEBUG_VALUE: mk_write_uint:c_ui <- [DW_OP_LLVM_fragment 40 8] 0
	#DEBUG_VALUE: mk_write_uint:c_ui <- [DW_OP_LLVM_fragment 48 8] 0
	#DEBUG_VALUE: mk_write_uint:c_ui <- [DW_OP_LLVM_fragment 56 8] 8
	#DEBUG_VALUE: mk_write_uint:i <- 6
	#DEBUG_VALUE: mk_append_context_data:c <- $r12
	#DEBUG_VALUE: mk_append_context_data:size <- 1
	#DEBUG_VALUE: mk_append_context_data:ns <- $r15d
	.loc	0 0 9                           # x264_src/output/matroska_ebml.c:0:9
	leal	(%rax,%rax), %ecx
.Ltmp260:
	.loc	0 98 23 is_stmt 1               # x264_src/output/matroska_ebml.c:98:23
	testl	%eax, %eax
	movl	$16, %eax
	cmovnel	%ecx, %eax
.Ltmp261:
	#DEBUG_VALUE: dn <- $eax
	.p2align	4, 0x90
.LBB2_75:                               # %while.cond.i.i421
                                        # =>This Inner Loop Header: Depth=1
	#DEBUG_VALUE: mk_writeHeader:w <- $r14
	#DEBUG_VALUE: mk_writeHeader:writing_app <- [DW_OP_plus_uconst 32] [$rsp+0]
	#DEBUG_VALUE: mk_writeHeader:codec_id <- [DW_OP_LLVM_entry_value 1] $rdx
	#DEBUG_VALUE: mk_writeHeader:codec_private <- [DW_OP_LLVM_entry_value 1] $rcx
	#DEBUG_VALUE: mk_writeHeader:codec_private_size <- [DW_OP_LLVM_entry_value 1] $r8d
	#DEBUG_VALUE: mk_writeHeader:default_frame_duration <- [DW_OP_LLVM_entry_value 1] $r9
	#DEBUG_VALUE: mk_writeHeader:c <- $r12
	#DEBUG_VALUE: mk_write_uint:c <- $r12
	#DEBUG_VALUE: mk_write_uint:id <- 17139
	#DEBUG_VALUE: mk_write_uint:ui <- 8
	#DEBUG_VALUE: mk_write_uint:c_ui <- [DW_OP_LLVM_fragment 0 8] 0
	#DEBUG_VALUE: mk_write_uint:c_ui <- [DW_OP_LLVM_fragment 8 8] 0
	#DEBUG_VALUE: mk_write_uint:c_ui <- [DW_OP_LLVM_fragment 16 8] 0
	#DEBUG_VALUE: mk_write_uint:c_ui <- [DW_OP_LLVM_fragment 24 8] 0
	#DEBUG_VALUE: mk_write_uint:c_ui <- [DW_OP_LLVM_fragment 32 8] 0
	#DEBUG_VALUE: mk_write_uint:c_ui <- [DW_OP_LLVM_fragment 40 8] 0
	#DEBUG_VALUE: mk_write_uint:c_ui <- [DW_OP_LLVM_fragment 48 8] 0
	#DEBUG_VALUE: mk_write_uint:c_ui <- [DW_OP_LLVM_fragment 56 8] 8
	#DEBUG_VALUE: mk_write_uint:i <- 6
	#DEBUG_VALUE: mk_append_context_data:c <- $r12
	#DEBUG_VALUE: mk_append_context_data:size <- 1
	#DEBUG_VALUE: mk_append_context_data:ns <- $r15d
	#DEBUG_VALUE: dn <- $eax
	.loc	0 0 0 is_stmt 0                 # x264_src/output/matroska_ebml.c:0:0
	movl	%eax, %ebx
.Ltmp262:
	#DEBUG_VALUE: dn <- $ebx
	#DEBUG_VALUE: dn <- $ebx
	.loc	0 100 16 is_stmt 1              # x264_src/output/matroska_ebml.c:100:16
	leal	(%rbx,%rbx), %eax
.Ltmp263:
	#DEBUG_VALUE: dn <- $eax
	.loc	0 99 19                         # x264_src/output/matroska_ebml.c:99:19
	cmpl	%ebx, %r15d
	.loc	0 99 9 is_stmt 0                # x264_src/output/matroska_ebml.c:99:9
	ja	.LBB2_75
.Ltmp264:
# %bb.76:                               # %while.end.i.i425
	#DEBUG_VALUE: mk_writeHeader:w <- $r14
	#DEBUG_VALUE: mk_writeHeader:writing_app <- [DW_OP_plus_uconst 32] [$rsp+0]
	#DEBUG_VALUE: mk_writeHeader:codec_id <- [DW_OP_LLVM_entry_value 1] $rdx
	#DEBUG_VALUE: mk_writeHeader:codec_private <- [DW_OP_LLVM_entry_value 1] $rcx
	#DEBUG_VALUE: mk_writeHeader:codec_private_size <- [DW_OP_LLVM_entry_value 1] $r8d
	#DEBUG_VALUE: mk_writeHeader:default_frame_duration <- [DW_OP_LLVM_entry_value 1] $r9
	#DEBUG_VALUE: mk_writeHeader:c <- $r12
	#DEBUG_VALUE: mk_write_uint:c <- $r12
	#DEBUG_VALUE: mk_write_uint:id <- 17139
	#DEBUG_VALUE: mk_write_uint:ui <- 8
	#DEBUG_VALUE: mk_write_uint:c_ui <- [DW_OP_LLVM_fragment 0 8] 0
	#DEBUG_VALUE: mk_write_uint:c_ui <- [DW_OP_LLVM_fragment 8 8] 0
	#DEBUG_VALUE: mk_write_uint:c_ui <- [DW_OP_LLVM_fragment 16 8] 0
	#DEBUG_VALUE: mk_write_uint:c_ui <- [DW_OP_LLVM_fragment 24 8] 0
	#DEBUG_VALUE: mk_write_uint:c_ui <- [DW_OP_LLVM_fragment 32 8] 0
	#DEBUG_VALUE: mk_write_uint:c_ui <- [DW_OP_LLVM_fragment 40 8] 0
	#DEBUG_VALUE: mk_write_uint:c_ui <- [DW_OP_LLVM_fragment 48 8] 0
	#DEBUG_VALUE: mk_write_uint:c_ui <- [DW_OP_LLVM_fragment 56 8] 8
	#DEBUG_VALUE: mk_write_uint:i <- 6
	#DEBUG_VALUE: mk_append_context_data:c <- $r12
	#DEBUG_VALUE: mk_append_context_data:size <- 1
	#DEBUG_VALUE: mk_append_context_data:ns <- $r15d
	#DEBUG_VALUE: dn <- $eax
	.loc	0 102 26 is_stmt 1              # x264_src/output/matroska_ebml.c:102:26
	movq	40(%r12), %rdi
	.loc	0 102 32 is_stmt 0              # x264_src/output/matroska_ebml.c:102:32
	movl	%ebx, %esi
	.loc	0 102 14                        # x264_src/output/matroska_ebml.c:102:14
	callq	realloc@PLT
.Ltmp265:
	#DEBUG_VALUE: dp <- $rax
	.loc	0 103 14 is_stmt 1              # x264_src/output/matroska_ebml.c:103:14
	testq	%rax, %rax
.Ltmp266:
	.loc	0 103 13 is_stmt 0              # x264_src/output/matroska_ebml.c:103:13
	je	.LBB2_137
.Ltmp267:
# %bb.77:                               # %if.end.i.i430
	#DEBUG_VALUE: mk_writeHeader:w <- $r14
	#DEBUG_VALUE: mk_writeHeader:writing_app <- [DW_OP_plus_uconst 32] [$rsp+0]
	#DEBUG_VALUE: mk_writeHeader:codec_id <- [DW_OP_LLVM_entry_value 1] $rdx
	#DEBUG_VALUE: mk_writeHeader:codec_private <- [DW_OP_LLVM_entry_value 1] $rcx
	#DEBUG_VALUE: mk_writeHeader:codec_private_size <- [DW_OP_LLVM_entry_value 1] $r8d
	#DEBUG_VALUE: mk_writeHeader:default_frame_duration <- [DW_OP_LLVM_entry_value 1] $r9
	#DEBUG_VALUE: mk_writeHeader:c <- $r12
	#DEBUG_VALUE: mk_write_uint:c <- $r12
	#DEBUG_VALUE: mk_write_uint:id <- 17139
	#DEBUG_VALUE: mk_write_uint:ui <- 8
	#DEBUG_VALUE: mk_write_uint:c_ui <- [DW_OP_LLVM_fragment 0 8] 0
	#DEBUG_VALUE: mk_write_uint:c_ui <- [DW_OP_LLVM_fragment 8 8] 0
	#DEBUG_VALUE: mk_write_uint:c_ui <- [DW_OP_LLVM_fragment 16 8] 0
	#DEBUG_VALUE: mk_write_uint:c_ui <- [DW_OP_LLVM_fragment 24 8] 0
	#DEBUG_VALUE: mk_write_uint:c_ui <- [DW_OP_LLVM_fragment 32 8] 0
	#DEBUG_VALUE: mk_write_uint:c_ui <- [DW_OP_LLVM_fragment 40 8] 0
	#DEBUG_VALUE: mk_write_uint:c_ui <- [DW_OP_LLVM_fragment 48 8] 0
	#DEBUG_VALUE: mk_write_uint:c_ui <- [DW_OP_LLVM_fragment 56 8] 8
	#DEBUG_VALUE: mk_write_uint:i <- 6
	#DEBUG_VALUE: mk_append_context_data:c <- $r12
	#DEBUG_VALUE: mk_append_context_data:size <- 1
	#DEBUG_VALUE: mk_append_context_data:ns <- $r15d
	#DEBUG_VALUE: dp <- $rax
	.loc	0 106 17 is_stmt 1              # x264_src/output/matroska_ebml.c:106:17
	movq	%rax, 40(%r12)
	.loc	0 107 18                        # x264_src/output/matroska_ebml.c:107:18
	movl	%ebx, 52(%r12)
.Ltmp268:
	.loc	0 110 33                        # x264_src/output/matroska_ebml.c:110:33
	movl	48(%r12), %ebp
	jmp	.LBB2_79
.Ltmp269:
.LBB2_78:                               # %entry.if.end11_crit_edge.i.i410
	#DEBUG_VALUE: mk_writeHeader:w <- $r14
	#DEBUG_VALUE: mk_writeHeader:writing_app <- [DW_OP_plus_uconst 32] [$rsp+0]
	#DEBUG_VALUE: mk_writeHeader:codec_id <- [DW_OP_LLVM_entry_value 1] $rdx
	#DEBUG_VALUE: mk_writeHeader:codec_private <- [DW_OP_LLVM_entry_value 1] $rcx
	#DEBUG_VALUE: mk_writeHeader:codec_private_size <- [DW_OP_LLVM_entry_value 1] $r8d
	#DEBUG_VALUE: mk_writeHeader:default_frame_duration <- [DW_OP_LLVM_entry_value 1] $r9
	#DEBUG_VALUE: mk_writeHeader:c <- $r12
	#DEBUG_VALUE: mk_write_uint:c <- $r12
	#DEBUG_VALUE: mk_write_uint:id <- 17139
	#DEBUG_VALUE: mk_write_uint:ui <- 8
	#DEBUG_VALUE: mk_write_uint:c_ui <- [DW_OP_LLVM_fragment 0 8] 0
	#DEBUG_VALUE: mk_write_uint:c_ui <- [DW_OP_LLVM_fragment 8 8] 0
	#DEBUG_VALUE: mk_write_uint:c_ui <- [DW_OP_LLVM_fragment 16 8] 0
	#DEBUG_VALUE: mk_write_uint:c_ui <- [DW_OP_LLVM_fragment 24 8] 0
	#DEBUG_VALUE: mk_write_uint:c_ui <- [DW_OP_LLVM_fragment 32 8] 0
	#DEBUG_VALUE: mk_write_uint:c_ui <- [DW_OP_LLVM_fragment 40 8] 0
	#DEBUG_VALUE: mk_write_uint:c_ui <- [DW_OP_LLVM_fragment 48 8] 0
	#DEBUG_VALUE: mk_write_uint:c_ui <- [DW_OP_LLVM_fragment 56 8] 8
	#DEBUG_VALUE: mk_write_uint:i <- 6
	#DEBUG_VALUE: mk_append_context_data:c <- $r12
	#DEBUG_VALUE: mk_append_context_data:size <- 1
	#DEBUG_VALUE: mk_append_context_data:ns <- $r15d
	.loc	0 110 23 is_stmt 0              # x264_src/output/matroska_ebml.c:110:23
	movq	40(%r12), %rax
.Ltmp270:
.LBB2_79:                               # %do.body29
	#DEBUG_VALUE: mk_writeHeader:w <- $r14
	#DEBUG_VALUE: mk_writeHeader:writing_app <- [DW_OP_plus_uconst 32] [$rsp+0]
	#DEBUG_VALUE: mk_writeHeader:codec_id <- [DW_OP_LLVM_entry_value 1] $rdx
	#DEBUG_VALUE: mk_writeHeader:codec_private <- [DW_OP_LLVM_entry_value 1] $rcx
	#DEBUG_VALUE: mk_writeHeader:codec_private_size <- [DW_OP_LLVM_entry_value 1] $r8d
	#DEBUG_VALUE: mk_writeHeader:default_frame_duration <- [DW_OP_LLVM_entry_value 1] $r9
	#DEBUG_VALUE: mk_writeHeader:c <- $r12
	#DEBUG_VALUE: mk_write_uint:c <- $r12
	#DEBUG_VALUE: mk_write_uint:id <- 17139
	#DEBUG_VALUE: mk_write_uint:ui <- 8
	#DEBUG_VALUE: mk_write_uint:c_ui <- [DW_OP_LLVM_fragment 0 8] 0
	#DEBUG_VALUE: mk_write_uint:c_ui <- [DW_OP_LLVM_fragment 8 8] 0
	#DEBUG_VALUE: mk_write_uint:c_ui <- [DW_OP_LLVM_fragment 16 8] 0
	#DEBUG_VALUE: mk_write_uint:c_ui <- [DW_OP_LLVM_fragment 24 8] 0
	#DEBUG_VALUE: mk_write_uint:c_ui <- [DW_OP_LLVM_fragment 32 8] 0
	#DEBUG_VALUE: mk_write_uint:c_ui <- [DW_OP_LLVM_fragment 40 8] 0
	#DEBUG_VALUE: mk_write_uint:c_ui <- [DW_OP_LLVM_fragment 48 8] 0
	#DEBUG_VALUE: mk_write_uint:c_ui <- [DW_OP_LLVM_fragment 56 8] 8
	#DEBUG_VALUE: mk_write_uint:i <- 6
	#DEBUG_VALUE: mk_append_context_data:c <- $r12
	#DEBUG_VALUE: mk_append_context_data:size <- 1
	#DEBUG_VALUE: mk_append_context_data:ns <- $r15d
	.loc	0 110 28                        # x264_src/output/matroska_ebml.c:110:28
	movl	%ebp, %ecx
	.loc	0 110 5                         # x264_src/output/matroska_ebml.c:110:5
	movb	$8, (%rax,%rcx)
	.loc	0 112 14 is_stmt 1              # x264_src/output/matroska_ebml.c:112:14
	movl	%r15d, 48(%r12)
.Ltmp271:
	#DEBUG_VALUE: mk_write_string:c <- $r12
	#DEBUG_VALUE: mk_write_string:id <- 17026
	#DEBUG_VALUE: mk_write_string:str <- undef
	#DEBUG_VALUE: mk_write_string:len <- 8
	#DEBUG_VALUE: mk_write_id:c <- $r12
	#DEBUG_VALUE: mk_write_id:id <- 17026
	#DEBUG_VALUE: mk_write_id:c_id <- [DW_OP_LLVM_fragment 0 8] 0
	#DEBUG_VALUE: mk_write_id:c_id <- [DW_OP_LLVM_fragment 8 8] 0
	#DEBUG_VALUE: mk_write_id:c_id <- [DW_OP_LLVM_fragment 16 8] 66
	#DEBUG_VALUE: mk_write_id:c_id <- [DW_OP_LLVM_fragment 24 8] -126
	.loc	0 95 17                         # x264_src/output/matroska_ebml.c:95:17
	movl	52(%r12), %eax
.Ltmp272:
	#DEBUG_VALUE: mk_append_context_data:c <- $r12
	#DEBUG_VALUE: mk_append_context_data:data <- undef
	#DEBUG_VALUE: mk_append_context_data:data <- undef
	#DEBUG_VALUE: mk_append_context_data:size <- 2
	.loc	0 93 28                         # x264_src/output/matroska_ebml.c:93:28
	addl	$18, %r13d
.Ltmp273:
	#DEBUG_VALUE: mk_append_context_data:ns <- $r13d
	.loc	0 95 12                         # x264_src/output/matroska_ebml.c:95:12
	cmpl	%eax, %r13d
.Ltmp274:
	.loc	0 95 9 is_stmt 0                # x264_src/output/matroska_ebml.c:95:9
	jbe	.LBB2_84
.Ltmp275:
# %bb.80:                               # %if.then.i68.i711
	#DEBUG_VALUE: mk_writeHeader:w <- $r14
	#DEBUG_VALUE: mk_writeHeader:writing_app <- [DW_OP_plus_uconst 32] [$rsp+0]
	#DEBUG_VALUE: mk_writeHeader:codec_id <- [DW_OP_LLVM_entry_value 1] $rdx
	#DEBUG_VALUE: mk_writeHeader:codec_private <- [DW_OP_LLVM_entry_value 1] $rcx
	#DEBUG_VALUE: mk_writeHeader:codec_private_size <- [DW_OP_LLVM_entry_value 1] $r8d
	#DEBUG_VALUE: mk_writeHeader:default_frame_duration <- [DW_OP_LLVM_entry_value 1] $r9
	#DEBUG_VALUE: mk_writeHeader:c <- $r12
	#DEBUG_VALUE: mk_write_string:c <- $r12
	#DEBUG_VALUE: mk_write_string:id <- 17026
	#DEBUG_VALUE: mk_write_string:len <- 8
	#DEBUG_VALUE: mk_write_id:c <- $r12
	#DEBUG_VALUE: mk_write_id:id <- 17026
	#DEBUG_VALUE: mk_write_id:c_id <- [DW_OP_LLVM_fragment 0 8] 0
	#DEBUG_VALUE: mk_write_id:c_id <- [DW_OP_LLVM_fragment 8 8] 0
	#DEBUG_VALUE: mk_write_id:c_id <- [DW_OP_LLVM_fragment 16 8] 66
	#DEBUG_VALUE: mk_write_id:c_id <- [DW_OP_LLVM_fragment 24 8] -126
	#DEBUG_VALUE: mk_append_context_data:c <- $r12
	#DEBUG_VALUE: mk_append_context_data:size <- 2
	#DEBUG_VALUE: mk_append_context_data:ns <- $r13d
	.loc	0 0 9                           # x264_src/output/matroska_ebml.c:0:9
	leal	(%rax,%rax), %ecx
.Ltmp276:
	.loc	0 98 23 is_stmt 1               # x264_src/output/matroska_ebml.c:98:23
	testl	%eax, %eax
	movl	$16, %eax
	cmovnel	%ecx, %eax
.Ltmp277:
	#DEBUG_VALUE: dn <- $eax
	.p2align	4, 0x90
.LBB2_81:                               # %while.cond.i72.i715
                                        # =>This Inner Loop Header: Depth=1
	#DEBUG_VALUE: mk_writeHeader:w <- $r14
	#DEBUG_VALUE: mk_writeHeader:writing_app <- [DW_OP_plus_uconst 32] [$rsp+0]
	#DEBUG_VALUE: mk_writeHeader:codec_id <- [DW_OP_LLVM_entry_value 1] $rdx
	#DEBUG_VALUE: mk_writeHeader:codec_private <- [DW_OP_LLVM_entry_value 1] $rcx
	#DEBUG_VALUE: mk_writeHeader:codec_private_size <- [DW_OP_LLVM_entry_value 1] $r8d
	#DEBUG_VALUE: mk_writeHeader:default_frame_duration <- [DW_OP_LLVM_entry_value 1] $r9
	#DEBUG_VALUE: mk_writeHeader:c <- $r12
	#DEBUG_VALUE: mk_write_string:c <- $r12
	#DEBUG_VALUE: mk_write_string:id <- 17026
	#DEBUG_VALUE: mk_write_string:len <- 8
	#DEBUG_VALUE: mk_write_id:c <- $r12
	#DEBUG_VALUE: mk_write_id:id <- 17026
	#DEBUG_VALUE: mk_write_id:c_id <- [DW_OP_LLVM_fragment 0 8] 0
	#DEBUG_VALUE: mk_write_id:c_id <- [DW_OP_LLVM_fragment 8 8] 0
	#DEBUG_VALUE: mk_write_id:c_id <- [DW_OP_LLVM_fragment 16 8] 66
	#DEBUG_VALUE: mk_write_id:c_id <- [DW_OP_LLVM_fragment 24 8] -126
	#DEBUG_VALUE: mk_append_context_data:c <- $r12
	#DEBUG_VALUE: mk_append_context_data:size <- 2
	#DEBUG_VALUE: mk_append_context_data:ns <- $r13d
	#DEBUG_VALUE: dn <- $eax
	.loc	0 0 0 is_stmt 0                 # x264_src/output/matroska_ebml.c:0:0
	movl	%eax, %ebx
.Ltmp278:
	#DEBUG_VALUE: dn <- $ebx
	#DEBUG_VALUE: dn <- $ebx
	.loc	0 100 16 is_stmt 1              # x264_src/output/matroska_ebml.c:100:16
	leal	(%rbx,%rbx), %eax
.Ltmp279:
	#DEBUG_VALUE: dn <- $eax
	.loc	0 99 19                         # x264_src/output/matroska_ebml.c:99:19
	cmpl	%ebx, %r13d
	.loc	0 99 9 is_stmt 0                # x264_src/output/matroska_ebml.c:99:9
	ja	.LBB2_81
.Ltmp280:
# %bb.82:                               # %while.end.i76.i719
	#DEBUG_VALUE: mk_writeHeader:w <- $r14
	#DEBUG_VALUE: mk_writeHeader:writing_app <- [DW_OP_plus_uconst 32] [$rsp+0]
	#DEBUG_VALUE: mk_writeHeader:codec_id <- [DW_OP_LLVM_entry_value 1] $rdx
	#DEBUG_VALUE: mk_writeHeader:codec_private <- [DW_OP_LLVM_entry_value 1] $rcx
	#DEBUG_VALUE: mk_writeHeader:codec_private_size <- [DW_OP_LLVM_entry_value 1] $r8d
	#DEBUG_VALUE: mk_writeHeader:default_frame_duration <- [DW_OP_LLVM_entry_value 1] $r9
	#DEBUG_VALUE: mk_writeHeader:c <- $r12
	#DEBUG_VALUE: mk_write_string:c <- $r12
	#DEBUG_VALUE: mk_write_string:id <- 17026
	#DEBUG_VALUE: mk_write_string:len <- 8
	#DEBUG_VALUE: mk_write_id:c <- $r12
	#DEBUG_VALUE: mk_write_id:id <- 17026
	#DEBUG_VALUE: mk_write_id:c_id <- [DW_OP_LLVM_fragment 0 8] 0
	#DEBUG_VALUE: mk_write_id:c_id <- [DW_OP_LLVM_fragment 8 8] 0
	#DEBUG_VALUE: mk_write_id:c_id <- [DW_OP_LLVM_fragment 16 8] 66
	#DEBUG_VALUE: mk_write_id:c_id <- [DW_OP_LLVM_fragment 24 8] -126
	#DEBUG_VALUE: mk_append_context_data:c <- $r12
	#DEBUG_VALUE: mk_append_context_data:size <- 2
	#DEBUG_VALUE: mk_append_context_data:ns <- $r13d
	#DEBUG_VALUE: dn <- $eax
	.loc	0 102 26 is_stmt 1              # x264_src/output/matroska_ebml.c:102:26
	movq	40(%r12), %rdi
	.loc	0 102 32 is_stmt 0              # x264_src/output/matroska_ebml.c:102:32
	movl	%ebx, %esi
	.loc	0 102 14                        # x264_src/output/matroska_ebml.c:102:14
	callq	realloc@PLT
.Ltmp281:
	#DEBUG_VALUE: dp <- $rax
	.loc	0 103 14 is_stmt 1              # x264_src/output/matroska_ebml.c:103:14
	testq	%rax, %rax
.Ltmp282:
	.loc	0 103 13 is_stmt 0              # x264_src/output/matroska_ebml.c:103:13
	je	.LBB2_137
.Ltmp283:
# %bb.83:                               # %if.end.i81.i724
	#DEBUG_VALUE: mk_writeHeader:w <- $r14
	#DEBUG_VALUE: mk_writeHeader:writing_app <- [DW_OP_plus_uconst 32] [$rsp+0]
	#DEBUG_VALUE: mk_writeHeader:codec_id <- [DW_OP_LLVM_entry_value 1] $rdx
	#DEBUG_VALUE: mk_writeHeader:codec_private <- [DW_OP_LLVM_entry_value 1] $rcx
	#DEBUG_VALUE: mk_writeHeader:codec_private_size <- [DW_OP_LLVM_entry_value 1] $r8d
	#DEBUG_VALUE: mk_writeHeader:default_frame_duration <- [DW_OP_LLVM_entry_value 1] $r9
	#DEBUG_VALUE: mk_writeHeader:c <- $r12
	#DEBUG_VALUE: mk_write_string:c <- $r12
	#DEBUG_VALUE: mk_write_string:id <- 17026
	#DEBUG_VALUE: mk_write_string:len <- 8
	#DEBUG_VALUE: mk_write_id:c <- $r12
	#DEBUG_VALUE: mk_write_id:id <- 17026
	#DEBUG_VALUE: mk_write_id:c_id <- [DW_OP_LLVM_fragment 0 8] 0
	#DEBUG_VALUE: mk_write_id:c_id <- [DW_OP_LLVM_fragment 8 8] 0
	#DEBUG_VALUE: mk_write_id:c_id <- [DW_OP_LLVM_fragment 16 8] 66
	#DEBUG_VALUE: mk_write_id:c_id <- [DW_OP_LLVM_fragment 24 8] -126
	#DEBUG_VALUE: mk_append_context_data:c <- $r12
	#DEBUG_VALUE: mk_append_context_data:size <- 2
	#DEBUG_VALUE: mk_append_context_data:ns <- $r13d
	#DEBUG_VALUE: dp <- $rax
	.loc	0 106 17 is_stmt 1              # x264_src/output/matroska_ebml.c:106:17
	movq	%rax, 40(%r12)
	.loc	0 107 18                        # x264_src/output/matroska_ebml.c:107:18
	movl	%ebx, 52(%r12)
.Ltmp284:
	.loc	0 110 33                        # x264_src/output/matroska_ebml.c:110:33
	movl	48(%r12), %r15d
	jmp	.LBB2_85
.Ltmp285:
.LBB2_84:                               # %entry.if.end11_crit_edge.i61.i703
	#DEBUG_VALUE: mk_writeHeader:w <- $r14
	#DEBUG_VALUE: mk_writeHeader:writing_app <- [DW_OP_plus_uconst 32] [$rsp+0]
	#DEBUG_VALUE: mk_writeHeader:codec_id <- [DW_OP_LLVM_entry_value 1] $rdx
	#DEBUG_VALUE: mk_writeHeader:codec_private <- [DW_OP_LLVM_entry_value 1] $rcx
	#DEBUG_VALUE: mk_writeHeader:codec_private_size <- [DW_OP_LLVM_entry_value 1] $r8d
	#DEBUG_VALUE: mk_writeHeader:default_frame_duration <- [DW_OP_LLVM_entry_value 1] $r9
	#DEBUG_VALUE: mk_writeHeader:c <- $r12
	#DEBUG_VALUE: mk_write_string:c <- $r12
	#DEBUG_VALUE: mk_write_string:id <- 17026
	#DEBUG_VALUE: mk_write_string:len <- 8
	#DEBUG_VALUE: mk_write_id:c <- $r12
	#DEBUG_VALUE: mk_write_id:id <- 17026
	#DEBUG_VALUE: mk_write_id:c_id <- [DW_OP_LLVM_fragment 0 8] 0
	#DEBUG_VALUE: mk_write_id:c_id <- [DW_OP_LLVM_fragment 8 8] 0
	#DEBUG_VALUE: mk_write_id:c_id <- [DW_OP_LLVM_fragment 16 8] 66
	#DEBUG_VALUE: mk_write_id:c_id <- [DW_OP_LLVM_fragment 24 8] -126
	#DEBUG_VALUE: mk_append_context_data:c <- $r12
	#DEBUG_VALUE: mk_append_context_data:size <- 2
	#DEBUG_VALUE: mk_append_context_data:ns <- $r13d
	.loc	0 110 23 is_stmt 0              # x264_src/output/matroska_ebml.c:110:23
	movq	40(%r12), %rax
.Ltmp286:
.LBB2_85:                               # %do.body2.i
	#DEBUG_VALUE: mk_writeHeader:w <- $r14
	#DEBUG_VALUE: mk_writeHeader:writing_app <- [DW_OP_plus_uconst 32] [$rsp+0]
	#DEBUG_VALUE: mk_writeHeader:codec_id <- [DW_OP_LLVM_entry_value 1] $rdx
	#DEBUG_VALUE: mk_writeHeader:codec_private <- [DW_OP_LLVM_entry_value 1] $rcx
	#DEBUG_VALUE: mk_writeHeader:codec_private_size <- [DW_OP_LLVM_entry_value 1] $r8d
	#DEBUG_VALUE: mk_writeHeader:default_frame_duration <- [DW_OP_LLVM_entry_value 1] $r9
	#DEBUG_VALUE: mk_writeHeader:c <- $r12
	#DEBUG_VALUE: mk_write_string:c <- $r12
	#DEBUG_VALUE: mk_write_string:id <- 17026
	#DEBUG_VALUE: mk_write_string:len <- 8
	#DEBUG_VALUE: mk_write_id:c <- $r12
	#DEBUG_VALUE: mk_write_id:id <- 17026
	#DEBUG_VALUE: mk_write_id:c_id <- [DW_OP_LLVM_fragment 0 8] 0
	#DEBUG_VALUE: mk_write_id:c_id <- [DW_OP_LLVM_fragment 8 8] 0
	#DEBUG_VALUE: mk_write_id:c_id <- [DW_OP_LLVM_fragment 16 8] 66
	#DEBUG_VALUE: mk_write_id:c_id <- [DW_OP_LLVM_fragment 24 8] -126
	#DEBUG_VALUE: mk_append_context_data:c <- $r12
	#DEBUG_VALUE: mk_append_context_data:size <- 2
	#DEBUG_VALUE: mk_append_context_data:ns <- $r13d
	.loc	0 110 28                        # x264_src/output/matroska_ebml.c:110:28
	movl	%r15d, %ecx
	.loc	0 110 5                         # x264_src/output/matroska_ebml.c:110:5
	movw	$-32190, (%rax,%rcx)            # imm = 0x8242
	.loc	0 112 14 is_stmt 1              # x264_src/output/matroska_ebml.c:112:14
	movl	%r13d, 48(%r12)
.Ltmp287:
	.loc	0 235 5                         # x264_src/output/matroska_ebml.c:235:5
	movq	%r12, %rdi
	movl	$8, %esi
	callq	mk_write_size
.Ltmp288:
	testl	%eax, %eax
.Ltmp289:
	.loc	0 235 5 is_stmt 0               # x264_src/output/matroska_ebml.c:235:5
	js	.LBB2_137
.Ltmp290:
# %bb.86:                               # %do.body10.i
	#DEBUG_VALUE: mk_writeHeader:w <- $r14
	#DEBUG_VALUE: mk_writeHeader:writing_app <- [DW_OP_plus_uconst 32] [$rsp+0]
	#DEBUG_VALUE: mk_writeHeader:codec_id <- [DW_OP_LLVM_entry_value 1] $rdx
	#DEBUG_VALUE: mk_writeHeader:codec_private <- [DW_OP_LLVM_entry_value 1] $rcx
	#DEBUG_VALUE: mk_writeHeader:codec_private_size <- [DW_OP_LLVM_entry_value 1] $r8d
	#DEBUG_VALUE: mk_writeHeader:default_frame_duration <- [DW_OP_LLVM_entry_value 1] $r9
	#DEBUG_VALUE: mk_writeHeader:c <- $r12
	#DEBUG_VALUE: mk_write_string:c <- $r12
	#DEBUG_VALUE: mk_write_string:id <- 17026
	#DEBUG_VALUE: mk_write_string:len <- 8
	#DEBUG_VALUE: mk_append_context_data:c <- $r12
	#DEBUG_VALUE: mk_append_context_data:data <- undef
	#DEBUG_VALUE: mk_append_context_data:size <- 8
	.loc	0 93 22 is_stmt 1               # x264_src/output/matroska_ebml.c:93:22
	movl	48(%r12), %r13d
.Ltmp291:
	.loc	0 95 17                         # x264_src/output/matroska_ebml.c:95:17
	movl	52(%r12), %eax
.Ltmp292:
	.loc	0 93 28                         # x264_src/output/matroska_ebml.c:93:28
	leal	8(%r13), %ebp
.Ltmp293:
	#DEBUG_VALUE: mk_append_context_data:ns <- $ebp
	.loc	0 95 12                         # x264_src/output/matroska_ebml.c:95:12
	cmpl	%eax, %ebp
.Ltmp294:
	.loc	0 95 9 is_stmt 0                # x264_src/output/matroska_ebml.c:95:9
	jbe	.LBB2_91
.Ltmp295:
# %bb.87:                               # %if.then.i.i446
	#DEBUG_VALUE: mk_writeHeader:w <- $r14
	#DEBUG_VALUE: mk_writeHeader:writing_app <- [DW_OP_plus_uconst 32] [$rsp+0]
	#DEBUG_VALUE: mk_writeHeader:codec_id <- [DW_OP_LLVM_entry_value 1] $rdx
	#DEBUG_VALUE: mk_writeHeader:codec_private <- [DW_OP_LLVM_entry_value 1] $rcx
	#DEBUG_VALUE: mk_writeHeader:codec_private_size <- [DW_OP_LLVM_entry_value 1] $r8d
	#DEBUG_VALUE: mk_writeHeader:default_frame_duration <- [DW_OP_LLVM_entry_value 1] $r9
	#DEBUG_VALUE: mk_writeHeader:c <- $r12
	#DEBUG_VALUE: mk_write_string:c <- $r12
	#DEBUG_VALUE: mk_write_string:id <- 17026
	#DEBUG_VALUE: mk_write_string:len <- 8
	#DEBUG_VALUE: mk_append_context_data:c <- $r12
	#DEBUG_VALUE: mk_append_context_data:size <- 8
	#DEBUG_VALUE: mk_append_context_data:ns <- $ebp
	.loc	0 0 9                           # x264_src/output/matroska_ebml.c:0:9
	leal	(%rax,%rax), %ecx
.Ltmp296:
	.loc	0 98 23 is_stmt 1               # x264_src/output/matroska_ebml.c:98:23
	testl	%eax, %eax
	movl	$16, %eax
	cmovnel	%ecx, %eax
.Ltmp297:
	#DEBUG_VALUE: dn <- $eax
	.p2align	4, 0x90
.LBB2_88:                               # %while.cond.i.i450
                                        # =>This Inner Loop Header: Depth=1
	#DEBUG_VALUE: mk_writeHeader:w <- $r14
	#DEBUG_VALUE: mk_writeHeader:writing_app <- [DW_OP_plus_uconst 32] [$rsp+0]
	#DEBUG_VALUE: mk_writeHeader:codec_id <- [DW_OP_LLVM_entry_value 1] $rdx
	#DEBUG_VALUE: mk_writeHeader:codec_private <- [DW_OP_LLVM_entry_value 1] $rcx
	#DEBUG_VALUE: mk_writeHeader:codec_private_size <- [DW_OP_LLVM_entry_value 1] $r8d
	#DEBUG_VALUE: mk_writeHeader:default_frame_duration <- [DW_OP_LLVM_entry_value 1] $r9
	#DEBUG_VALUE: mk_writeHeader:c <- $r12
	#DEBUG_VALUE: mk_write_string:c <- $r12
	#DEBUG_VALUE: mk_write_string:id <- 17026
	#DEBUG_VALUE: mk_write_string:len <- 8
	#DEBUG_VALUE: mk_append_context_data:c <- $r12
	#DEBUG_VALUE: mk_append_context_data:size <- 8
	#DEBUG_VALUE: mk_append_context_data:ns <- $ebp
	#DEBUG_VALUE: dn <- $eax
	.loc	0 0 0 is_stmt 0                 # x264_src/output/matroska_ebml.c:0:0
	movl	%eax, %ebx
.Ltmp298:
	#DEBUG_VALUE: dn <- $ebx
	#DEBUG_VALUE: dn <- $ebx
	.loc	0 100 16 is_stmt 1              # x264_src/output/matroska_ebml.c:100:16
	leal	(%rbx,%rbx), %eax
.Ltmp299:
	#DEBUG_VALUE: dn <- $eax
	.loc	0 99 19                         # x264_src/output/matroska_ebml.c:99:19
	cmpl	%ebx, %ebp
	.loc	0 99 9 is_stmt 0                # x264_src/output/matroska_ebml.c:99:9
	ja	.LBB2_88
.Ltmp300:
# %bb.89:                               # %while.end.i.i454
	#DEBUG_VALUE: mk_writeHeader:w <- $r14
	#DEBUG_VALUE: mk_writeHeader:writing_app <- [DW_OP_plus_uconst 32] [$rsp+0]
	#DEBUG_VALUE: mk_writeHeader:codec_id <- [DW_OP_LLVM_entry_value 1] $rdx
	#DEBUG_VALUE: mk_writeHeader:codec_private <- [DW_OP_LLVM_entry_value 1] $rcx
	#DEBUG_VALUE: mk_writeHeader:codec_private_size <- [DW_OP_LLVM_entry_value 1] $r8d
	#DEBUG_VALUE: mk_writeHeader:default_frame_duration <- [DW_OP_LLVM_entry_value 1] $r9
	#DEBUG_VALUE: mk_writeHeader:c <- $r12
	#DEBUG_VALUE: mk_write_string:c <- $r12
	#DEBUG_VALUE: mk_write_string:id <- 17026
	#DEBUG_VALUE: mk_write_string:len <- 8
	#DEBUG_VALUE: mk_append_context_data:c <- $r12
	#DEBUG_VALUE: mk_append_context_data:size <- 8
	#DEBUG_VALUE: mk_append_context_data:ns <- $ebp
	#DEBUG_VALUE: dn <- $eax
	.loc	0 102 26 is_stmt 1              # x264_src/output/matroska_ebml.c:102:26
	movq	40(%r12), %rdi
	.loc	0 102 32 is_stmt 0              # x264_src/output/matroska_ebml.c:102:32
	movl	%ebx, %esi
	.loc	0 102 14                        # x264_src/output/matroska_ebml.c:102:14
	callq	realloc@PLT
.Ltmp301:
	#DEBUG_VALUE: dp <- $rax
	.loc	0 103 14 is_stmt 1              # x264_src/output/matroska_ebml.c:103:14
	testq	%rax, %rax
.Ltmp302:
	.loc	0 103 13 is_stmt 0              # x264_src/output/matroska_ebml.c:103:13
	je	.LBB2_137
.Ltmp303:
# %bb.90:                               # %if.end.i.i459
	#DEBUG_VALUE: mk_writeHeader:w <- $r14
	#DEBUG_VALUE: mk_writeHeader:writing_app <- [DW_OP_plus_uconst 32] [$rsp+0]
	#DEBUG_VALUE: mk_writeHeader:codec_id <- [DW_OP_LLVM_entry_value 1] $rdx
	#DEBUG_VALUE: mk_writeHeader:codec_private <- [DW_OP_LLVM_entry_value 1] $rcx
	#DEBUG_VALUE: mk_writeHeader:codec_private_size <- [DW_OP_LLVM_entry_value 1] $r8d
	#DEBUG_VALUE: mk_writeHeader:default_frame_duration <- [DW_OP_LLVM_entry_value 1] $r9
	#DEBUG_VALUE: mk_writeHeader:c <- $r12
	#DEBUG_VALUE: mk_write_string:c <- $r12
	#DEBUG_VALUE: mk_write_string:id <- 17026
	#DEBUG_VALUE: mk_write_string:len <- 8
	#DEBUG_VALUE: mk_append_context_data:c <- $r12
	#DEBUG_VALUE: mk_append_context_data:size <- 8
	#DEBUG_VALUE: mk_append_context_data:ns <- $ebp
	#DEBUG_VALUE: dp <- $rax
	.loc	0 106 17 is_stmt 1              # x264_src/output/matroska_ebml.c:106:17
	movq	%rax, 40(%r12)
	.loc	0 107 18                        # x264_src/output/matroska_ebml.c:107:18
	movl	%ebx, 52(%r12)
.Ltmp304:
	.loc	0 110 33                        # x264_src/output/matroska_ebml.c:110:33
	movl	48(%r12), %ecx
	jmp	.LBB2_92
.Ltmp305:
.LBB2_91:                               # %entry.if.end11_crit_edge.i.i439
	#DEBUG_VALUE: mk_writeHeader:w <- $r14
	#DEBUG_VALUE: mk_writeHeader:writing_app <- [DW_OP_plus_uconst 32] [$rsp+0]
	#DEBUG_VALUE: mk_writeHeader:codec_id <- [DW_OP_LLVM_entry_value 1] $rdx
	#DEBUG_VALUE: mk_writeHeader:codec_private <- [DW_OP_LLVM_entry_value 1] $rcx
	#DEBUG_VALUE: mk_writeHeader:codec_private_size <- [DW_OP_LLVM_entry_value 1] $r8d
	#DEBUG_VALUE: mk_writeHeader:default_frame_duration <- [DW_OP_LLVM_entry_value 1] $r9
	#DEBUG_VALUE: mk_writeHeader:c <- $r12
	#DEBUG_VALUE: mk_write_string:c <- $r12
	#DEBUG_VALUE: mk_write_string:id <- 17026
	#DEBUG_VALUE: mk_write_string:len <- 8
	#DEBUG_VALUE: mk_append_context_data:c <- $r12
	#DEBUG_VALUE: mk_append_context_data:size <- 8
	#DEBUG_VALUE: mk_append_context_data:ns <- $ebp
	.loc	0 110 23 is_stmt 0              # x264_src/output/matroska_ebml.c:110:23
	movq	40(%r12), %rax
	movl	%r13d, %ecx
.Ltmp306:
.LBB2_92:                               # %do.body36
	#DEBUG_VALUE: mk_writeHeader:w <- $r14
	#DEBUG_VALUE: mk_writeHeader:writing_app <- [DW_OP_plus_uconst 32] [$rsp+0]
	#DEBUG_VALUE: mk_writeHeader:codec_id <- [DW_OP_LLVM_entry_value 1] $rdx
	#DEBUG_VALUE: mk_writeHeader:codec_private <- [DW_OP_LLVM_entry_value 1] $rcx
	#DEBUG_VALUE: mk_writeHeader:codec_private_size <- [DW_OP_LLVM_entry_value 1] $r8d
	#DEBUG_VALUE: mk_writeHeader:default_frame_duration <- [DW_OP_LLVM_entry_value 1] $r9
	#DEBUG_VALUE: mk_writeHeader:c <- $r12
	#DEBUG_VALUE: mk_write_string:c <- $r12
	#DEBUG_VALUE: mk_write_string:id <- 17026
	#DEBUG_VALUE: mk_write_string:len <- 8
	#DEBUG_VALUE: mk_append_context_data:c <- $r12
	#DEBUG_VALUE: mk_append_context_data:size <- 8
	#DEBUG_VALUE: mk_append_context_data:ns <- $ebp
	.loc	0 110 28                        # x264_src/output/matroska_ebml.c:110:28
	movl	%ecx, %ecx
	movabsq	$7019831366685843821, %rdx      # imm = 0x616B736F7274616D
	.loc	0 110 5                         # x264_src/output/matroska_ebml.c:110:5
	movq	%rdx, (%rax,%rcx)
	.loc	0 112 14 is_stmt 1              # x264_src/output/matroska_ebml.c:112:14
	movl	%ebp, 48(%r12)
.Ltmp307:
	#DEBUG_VALUE: mk_write_uint:c <- $r12
	#DEBUG_VALUE: mk_write_uint:id <- 17031
	#DEBUG_VALUE: mk_write_uint:ui <- 2
	#DEBUG_VALUE: mk_write_uint:c_ui <- [DW_OP_LLVM_fragment 0 8] 0
	#DEBUG_VALUE: mk_write_uint:c_ui <- [DW_OP_LLVM_fragment 8 8] 0
	#DEBUG_VALUE: mk_write_uint:c_ui <- [DW_OP_LLVM_fragment 16 8] 0
	#DEBUG_VALUE: mk_write_uint:c_ui <- [DW_OP_LLVM_fragment 24 8] 0
	#DEBUG_VALUE: mk_write_uint:c_ui <- [DW_OP_LLVM_fragment 32 8] 0
	#DEBUG_VALUE: mk_write_uint:c_ui <- [DW_OP_LLVM_fragment 40 8] 0
	#DEBUG_VALUE: mk_write_uint:c_ui <- [DW_OP_LLVM_fragment 48 8] 0
	#DEBUG_VALUE: mk_write_uint:c_ui <- [DW_OP_LLVM_fragment 56 8] 2
	#DEBUG_VALUE: mk_write_uint:i <- 0
	#DEBUG_VALUE: mk_write_id:c <- $r12
	#DEBUG_VALUE: mk_write_id:id <- 17031
	#DEBUG_VALUE: mk_write_id:c_id <- [DW_OP_LLVM_fragment 0 8] 0
	#DEBUG_VALUE: mk_write_id:c_id <- [DW_OP_LLVM_fragment 8 8] 0
	#DEBUG_VALUE: mk_write_id:c_id <- [DW_OP_LLVM_fragment 16 8] 66
	#DEBUG_VALUE: mk_write_id:c_id <- [DW_OP_LLVM_fragment 24 8] -121
	.loc	0 95 17                         # x264_src/output/matroska_ebml.c:95:17
	movl	52(%r12), %eax
.Ltmp308:
	#DEBUG_VALUE: mk_append_context_data:c <- $r12
	#DEBUG_VALUE: mk_append_context_data:data <- undef
	#DEBUG_VALUE: mk_append_context_data:data <- undef
	#DEBUG_VALUE: mk_append_context_data:size <- 2
	.loc	0 93 28                         # x264_src/output/matroska_ebml.c:93:28
	addl	$10, %r13d
.Ltmp309:
	#DEBUG_VALUE: mk_append_context_data:ns <- $r13d
	.loc	0 95 12                         # x264_src/output/matroska_ebml.c:95:12
	cmpl	%eax, %r13d
.Ltmp310:
	.loc	0 95 9 is_stmt 0                # x264_src/output/matroska_ebml.c:95:9
	jbe	.LBB2_97
.Ltmp311:
# %bb.93:                               # %if.then.i68.i739
	#DEBUG_VALUE: mk_writeHeader:w <- $r14
	#DEBUG_VALUE: mk_writeHeader:writing_app <- [DW_OP_plus_uconst 32] [$rsp+0]
	#DEBUG_VALUE: mk_writeHeader:codec_id <- [DW_OP_LLVM_entry_value 1] $rdx
	#DEBUG_VALUE: mk_writeHeader:codec_private <- [DW_OP_LLVM_entry_value 1] $rcx
	#DEBUG_VALUE: mk_writeHeader:codec_private_size <- [DW_OP_LLVM_entry_value 1] $r8d
	#DEBUG_VALUE: mk_writeHeader:default_frame_duration <- [DW_OP_LLVM_entry_value 1] $r9
	#DEBUG_VALUE: mk_writeHeader:c <- $r12
	#DEBUG_VALUE: mk_write_uint:c <- $r12
	#DEBUG_VALUE: mk_write_uint:id <- 17031
	#DEBUG_VALUE: mk_write_uint:ui <- 2
	#DEBUG_VALUE: mk_write_uint:c_ui <- [DW_OP_LLVM_fragment 0 8] 0
	#DEBUG_VALUE: mk_write_uint:c_ui <- [DW_OP_LLVM_fragment 8 8] 0
	#DEBUG_VALUE: mk_write_uint:c_ui <- [DW_OP_LLVM_fragment 16 8] 0
	#DEBUG_VALUE: mk_write_uint:c_ui <- [DW_OP_LLVM_fragment 24 8] 0
	#DEBUG_VALUE: mk_write_uint:c_ui <- [DW_OP_LLVM_fragment 32 8] 0
	#DEBUG_VALUE: mk_write_uint:c_ui <- [DW_OP_LLVM_fragment 40 8] 0
	#DEBUG_VALUE: mk_write_uint:c_ui <- [DW_OP_LLVM_fragment 48 8] 0
	#DEBUG_VALUE: mk_write_uint:c_ui <- [DW_OP_LLVM_fragment 56 8] 2
	#DEBUG_VALUE: mk_write_uint:i <- 0
	#DEBUG_VALUE: mk_write_id:c <- $r12
	#DEBUG_VALUE: mk_write_id:id <- 17031
	#DEBUG_VALUE: mk_write_id:c_id <- [DW_OP_LLVM_fragment 0 8] 0
	#DEBUG_VALUE: mk_write_id:c_id <- [DW_OP_LLVM_fragment 8 8] 0
	#DEBUG_VALUE: mk_write_id:c_id <- [DW_OP_LLVM_fragment 16 8] 66
	#DEBUG_VALUE: mk_write_id:c_id <- [DW_OP_LLVM_fragment 24 8] -121
	#DEBUG_VALUE: mk_append_context_data:c <- $r12
	#DEBUG_VALUE: mk_append_context_data:size <- 2
	#DEBUG_VALUE: mk_append_context_data:ns <- $r13d
	.loc	0 0 9                           # x264_src/output/matroska_ebml.c:0:9
	leal	(%rax,%rax), %ecx
.Ltmp312:
	.loc	0 98 23 is_stmt 1               # x264_src/output/matroska_ebml.c:98:23
	testl	%eax, %eax
	movl	$16, %eax
	cmovnel	%ecx, %eax
.Ltmp313:
	#DEBUG_VALUE: dn <- $eax
.LBB2_94:                               # %while.cond.i72.i743
                                        # =>This Inner Loop Header: Depth=1
	#DEBUG_VALUE: mk_writeHeader:w <- $r14
	#DEBUG_VALUE: mk_writeHeader:writing_app <- [DW_OP_plus_uconst 32] [$rsp+0]
	#DEBUG_VALUE: mk_writeHeader:codec_id <- [DW_OP_LLVM_entry_value 1] $rdx
	#DEBUG_VALUE: mk_writeHeader:codec_private <- [DW_OP_LLVM_entry_value 1] $rcx
	#DEBUG_VALUE: mk_writeHeader:codec_private_size <- [DW_OP_LLVM_entry_value 1] $r8d
	#DEBUG_VALUE: mk_writeHeader:default_frame_duration <- [DW_OP_LLVM_entry_value 1] $r9
	#DEBUG_VALUE: mk_writeHeader:c <- $r12
	#DEBUG_VALUE: mk_write_uint:c <- $r12
	#DEBUG_VALUE: mk_write_uint:id <- 17031
	#DEBUG_VALUE: mk_write_uint:ui <- 2
	#DEBUG_VALUE: mk_write_uint:c_ui <- [DW_OP_LLVM_fragment 0 8] 0
	#DEBUG_VALUE: mk_write_uint:c_ui <- [DW_OP_LLVM_fragment 8 8] 0
	#DEBUG_VALUE: mk_write_uint:c_ui <- [DW_OP_LLVM_fragment 16 8] 0
	#DEBUG_VALUE: mk_write_uint:c_ui <- [DW_OP_LLVM_fragment 24 8] 0
	#DEBUG_VALUE: mk_write_uint:c_ui <- [DW_OP_LLVM_fragment 32 8] 0
	#DEBUG_VALUE: mk_write_uint:c_ui <- [DW_OP_LLVM_fragment 40 8] 0
	#DEBUG_VALUE: mk_write_uint:c_ui <- [DW_OP_LLVM_fragment 48 8] 0
	#DEBUG_VALUE: mk_write_uint:c_ui <- [DW_OP_LLVM_fragment 56 8] 2
	#DEBUG_VALUE: mk_write_uint:i <- 0
	#DEBUG_VALUE: mk_write_id:c <- $r12
	#DEBUG_VALUE: mk_write_id:id <- 17031
	#DEBUG_VALUE: mk_write_id:c_id <- [DW_OP_LLVM_fragment 0 8] 0
	#DEBUG_VALUE: mk_write_id:c_id <- [DW_OP_LLVM_fragment 8 8] 0
	#DEBUG_VALUE: mk_write_id:c_id <- [DW_OP_LLVM_fragment 16 8] 66
	#DEBUG_VALUE: mk_write_id:c_id <- [DW_OP_LLVM_fragment 24 8] -121
	#DEBUG_VALUE: mk_append_context_data:c <- $r12
	#DEBUG_VALUE: mk_append_context_data:size <- 2
	#DEBUG_VALUE: mk_append_context_data:ns <- $r13d
	#DEBUG_VALUE: dn <- $eax
	.loc	0 0 0 is_stmt 0                 # x264_src/output/matroska_ebml.c:0:0
	movl	%eax, %ebx
.Ltmp314:
	#DEBUG_VALUE: dn <- $ebx
	#DEBUG_VALUE: dn <- $ebx
	.loc	0 100 16 is_stmt 1              # x264_src/output/matroska_ebml.c:100:16
	leal	(%rbx,%rbx), %eax
.Ltmp315:
	#DEBUG_VALUE: dn <- $eax
	.loc	0 99 19                         # x264_src/output/matroska_ebml.c:99:19
	cmpl	%ebx, %r13d
	.loc	0 99 9 is_stmt 0                # x264_src/output/matroska_ebml.c:99:9
	ja	.LBB2_94
.Ltmp316:
# %bb.95:                               # %while.end.i76.i747
	#DEBUG_VALUE: mk_writeHeader:w <- $r14
	#DEBUG_VALUE: mk_writeHeader:writing_app <- [DW_OP_plus_uconst 32] [$rsp+0]
	#DEBUG_VALUE: mk_writeHeader:codec_id <- [DW_OP_LLVM_entry_value 1] $rdx
	#DEBUG_VALUE: mk_writeHeader:codec_private <- [DW_OP_LLVM_entry_value 1] $rcx
	#DEBUG_VALUE: mk_writeHeader:codec_private_size <- [DW_OP_LLVM_entry_value 1] $r8d
	#DEBUG_VALUE: mk_writeHeader:default_frame_duration <- [DW_OP_LLVM_entry_value 1] $r9
	#DEBUG_VALUE: mk_writeHeader:c <- $r12
	#DEBUG_VALUE: mk_write_uint:c <- $r12
	#DEBUG_VALUE: mk_write_uint:id <- 17031
	#DEBUG_VALUE: mk_write_uint:ui <- 2
	#DEBUG_VALUE: mk_write_uint:c_ui <- [DW_OP_LLVM_fragment 0 8] 0
	#DEBUG_VALUE: mk_write_uint:c_ui <- [DW_OP_LLVM_fragment 8 8] 0
	#DEBUG_VALUE: mk_write_uint:c_ui <- [DW_OP_LLVM_fragment 16 8] 0
	#DEBUG_VALUE: mk_write_uint:c_ui <- [DW_OP_LLVM_fragment 24 8] 0
	#DEBUG_VALUE: mk_write_uint:c_ui <- [DW_OP_LLVM_fragment 32 8] 0
	#DEBUG_VALUE: mk_write_uint:c_ui <- [DW_OP_LLVM_fragment 40 8] 0
	#DEBUG_VALUE: mk_write_uint:c_ui <- [DW_OP_LLVM_fragment 48 8] 0
	#DEBUG_VALUE: mk_write_uint:c_ui <- [DW_OP_LLVM_fragment 56 8] 2
	#DEBUG_VALUE: mk_write_uint:i <- 0
	#DEBUG_VALUE: mk_write_id:c <- $r12
	#DEBUG_VALUE: mk_write_id:id <- 17031
	#DEBUG_VALUE: mk_write_id:c_id <- [DW_OP_LLVM_fragment 0 8] 0
	#DEBUG_VALUE: mk_write_id:c_id <- [DW_OP_LLVM_fragment 8 8] 0
	#DEBUG_VALUE: mk_write_id:c_id <- [DW_OP_LLVM_fragment 16 8] 66
	#DEBUG_VALUE: mk_write_id:c_id <- [DW_OP_LLVM_fragment 24 8] -121
	#DEBUG_VALUE: mk_append_context_data:c <- $r12
	#DEBUG_VALUE: mk_append_context_data:size <- 2
	#DEBUG_VALUE: mk_append_context_data:ns <- $r13d
	#DEBUG_VALUE: dn <- $eax
	.loc	0 102 26 is_stmt 1              # x264_src/output/matroska_ebml.c:102:26
	movq	40(%r12), %rdi
	.loc	0 102 32 is_stmt 0              # x264_src/output/matroska_ebml.c:102:32
	movl	%ebx, %esi
	.loc	0 102 14                        # x264_src/output/matroska_ebml.c:102:14
	callq	realloc@PLT
.Ltmp317:
	#DEBUG_VALUE: dp <- $rax
	.loc	0 103 14 is_stmt 1              # x264_src/output/matroska_ebml.c:103:14
	testq	%rax, %rax
.Ltmp318:
	.loc	0 103 13 is_stmt 0              # x264_src/output/matroska_ebml.c:103:13
	je	.LBB2_137
.Ltmp319:
# %bb.96:                               # %if.end.i81.i752
	#DEBUG_VALUE: mk_writeHeader:w <- $r14
	#DEBUG_VALUE: mk_writeHeader:writing_app <- [DW_OP_plus_uconst 32] [$rsp+0]
	#DEBUG_VALUE: mk_writeHeader:codec_id <- [DW_OP_LLVM_entry_value 1] $rdx
	#DEBUG_VALUE: mk_writeHeader:codec_private <- [DW_OP_LLVM_entry_value 1] $rcx
	#DEBUG_VALUE: mk_writeHeader:codec_private_size <- [DW_OP_LLVM_entry_value 1] $r8d
	#DEBUG_VALUE: mk_writeHeader:default_frame_duration <- [DW_OP_LLVM_entry_value 1] $r9
	#DEBUG_VALUE: mk_writeHeader:c <- $r12
	#DEBUG_VALUE: mk_write_uint:c <- $r12
	#DEBUG_VALUE: mk_write_uint:id <- 17031
	#DEBUG_VALUE: mk_write_uint:ui <- 2
	#DEBUG_VALUE: mk_write_uint:c_ui <- [DW_OP_LLVM_fragment 0 8] 0
	#DEBUG_VALUE: mk_write_uint:c_ui <- [DW_OP_LLVM_fragment 8 8] 0
	#DEBUG_VALUE: mk_write_uint:c_ui <- [DW_OP_LLVM_fragment 16 8] 0
	#DEBUG_VALUE: mk_write_uint:c_ui <- [DW_OP_LLVM_fragment 24 8] 0
	#DEBUG_VALUE: mk_write_uint:c_ui <- [DW_OP_LLVM_fragment 32 8] 0
	#DEBUG_VALUE: mk_write_uint:c_ui <- [DW_OP_LLVM_fragment 40 8] 0
	#DEBUG_VALUE: mk_write_uint:c_ui <- [DW_OP_LLVM_fragment 48 8] 0
	#DEBUG_VALUE: mk_write_uint:c_ui <- [DW_OP_LLVM_fragment 56 8] 2
	#DEBUG_VALUE: mk_write_uint:i <- 0
	#DEBUG_VALUE: mk_write_id:c <- $r12
	#DEBUG_VALUE: mk_write_id:id <- 17031
	#DEBUG_VALUE: mk_write_id:c_id <- [DW_OP_LLVM_fragment 0 8] 0
	#DEBUG_VALUE: mk_write_id:c_id <- [DW_OP_LLVM_fragment 8 8] 0
	#DEBUG_VALUE: mk_write_id:c_id <- [DW_OP_LLVM_fragment 16 8] 66
	#DEBUG_VALUE: mk_write_id:c_id <- [DW_OP_LLVM_fragment 24 8] -121
	#DEBUG_VALUE: mk_append_context_data:c <- $r12
	#DEBUG_VALUE: mk_append_context_data:size <- 2
	#DEBUG_VALUE: mk_append_context_data:ns <- $r13d
	#DEBUG_VALUE: dp <- $rax
	.loc	0 106 17 is_stmt 1              # x264_src/output/matroska_ebml.c:106:17
	movq	%rax, 40(%r12)
	.loc	0 107 18                        # x264_src/output/matroska_ebml.c:107:18
	movl	%ebx, 52(%r12)
.Ltmp320:
	.loc	0 110 33                        # x264_src/output/matroska_ebml.c:110:33
	movl	48(%r12), %ebp
	jmp	.LBB2_98
.Ltmp321:
.LBB2_97:                               # %entry.if.end11_crit_edge.i61.i731
	#DEBUG_VALUE: mk_writeHeader:w <- $r14
	#DEBUG_VALUE: mk_writeHeader:writing_app <- [DW_OP_plus_uconst 32] [$rsp+0]
	#DEBUG_VALUE: mk_writeHeader:codec_id <- [DW_OP_LLVM_entry_value 1] $rdx
	#DEBUG_VALUE: mk_writeHeader:codec_private <- [DW_OP_LLVM_entry_value 1] $rcx
	#DEBUG_VALUE: mk_writeHeader:codec_private_size <- [DW_OP_LLVM_entry_value 1] $r8d
	#DEBUG_VALUE: mk_writeHeader:default_frame_duration <- [DW_OP_LLVM_entry_value 1] $r9
	#DEBUG_VALUE: mk_writeHeader:c <- $r12
	#DEBUG_VALUE: mk_write_uint:c <- $r12
	#DEBUG_VALUE: mk_write_uint:id <- 17031
	#DEBUG_VALUE: mk_write_uint:ui <- 2
	#DEBUG_VALUE: mk_write_uint:c_ui <- [DW_OP_LLVM_fragment 0 8] 0
	#DEBUG_VALUE: mk_write_uint:c_ui <- [DW_OP_LLVM_fragment 8 8] 0
	#DEBUG_VALUE: mk_write_uint:c_ui <- [DW_OP_LLVM_fragment 16 8] 0
	#DEBUG_VALUE: mk_write_uint:c_ui <- [DW_OP_LLVM_fragment 24 8] 0
	#DEBUG_VALUE: mk_write_uint:c_ui <- [DW_OP_LLVM_fragment 32 8] 0
	#DEBUG_VALUE: mk_write_uint:c_ui <- [DW_OP_LLVM_fragment 40 8] 0
	#DEBUG_VALUE: mk_write_uint:c_ui <- [DW_OP_LLVM_fragment 48 8] 0
	#DEBUG_VALUE: mk_write_uint:c_ui <- [DW_OP_LLVM_fragment 56 8] 2
	#DEBUG_VALUE: mk_write_uint:i <- 0
	#DEBUG_VALUE: mk_write_id:c <- $r12
	#DEBUG_VALUE: mk_write_id:id <- 17031
	#DEBUG_VALUE: mk_write_id:c_id <- [DW_OP_LLVM_fragment 0 8] 0
	#DEBUG_VALUE: mk_write_id:c_id <- [DW_OP_LLVM_fragment 8 8] 0
	#DEBUG_VALUE: mk_write_id:c_id <- [DW_OP_LLVM_fragment 16 8] 66
	#DEBUG_VALUE: mk_write_id:c_id <- [DW_OP_LLVM_fragment 24 8] -121
	#DEBUG_VALUE: mk_append_context_data:c <- $r12
	#DEBUG_VALUE: mk_append_context_data:size <- 2
	#DEBUG_VALUE: mk_append_context_data:ns <- $r13d
	.loc	0 110 23 is_stmt 0              # x264_src/output/matroska_ebml.c:110:23
	movq	40(%r12), %rax
.Ltmp322:
.LBB2_98:                               # %land.rhs.preheader.i471
	#DEBUG_VALUE: mk_writeHeader:w <- $r14
	#DEBUG_VALUE: mk_writeHeader:writing_app <- [DW_OP_plus_uconst 32] [$rsp+0]
	#DEBUG_VALUE: mk_writeHeader:codec_id <- [DW_OP_LLVM_entry_value 1] $rdx
	#DEBUG_VALUE: mk_writeHeader:codec_private <- [DW_OP_LLVM_entry_value 1] $rcx
	#DEBUG_VALUE: mk_writeHeader:codec_private_size <- [DW_OP_LLVM_entry_value 1] $r8d
	#DEBUG_VALUE: mk_writeHeader:default_frame_duration <- [DW_OP_LLVM_entry_value 1] $r9
	#DEBUG_VALUE: mk_writeHeader:c <- $r12
	#DEBUG_VALUE: mk_write_uint:c <- $r12
	#DEBUG_VALUE: mk_write_uint:id <- 17031
	#DEBUG_VALUE: mk_write_uint:ui <- 2
	#DEBUG_VALUE: mk_write_uint:c_ui <- [DW_OP_LLVM_fragment 0 8] 0
	#DEBUG_VALUE: mk_write_uint:c_ui <- [DW_OP_LLVM_fragment 8 8] 0
	#DEBUG_VALUE: mk_write_uint:c_ui <- [DW_OP_LLVM_fragment 16 8] 0
	#DEBUG_VALUE: mk_write_uint:c_ui <- [DW_OP_LLVM_fragment 24 8] 0
	#DEBUG_VALUE: mk_write_uint:c_ui <- [DW_OP_LLVM_fragment 32 8] 0
	#DEBUG_VALUE: mk_write_uint:c_ui <- [DW_OP_LLVM_fragment 40 8] 0
	#DEBUG_VALUE: mk_write_uint:c_ui <- [DW_OP_LLVM_fragment 48 8] 0
	#DEBUG_VALUE: mk_write_uint:c_ui <- [DW_OP_LLVM_fragment 56 8] 2
	#DEBUG_VALUE: mk_write_uint:i <- 0
	#DEBUG_VALUE: mk_write_id:c <- $r12
	#DEBUG_VALUE: mk_write_id:id <- 17031
	#DEBUG_VALUE: mk_write_id:c_id <- [DW_OP_LLVM_fragment 0 8] 0
	#DEBUG_VALUE: mk_write_id:c_id <- [DW_OP_LLVM_fragment 8 8] 0
	#DEBUG_VALUE: mk_write_id:c_id <- [DW_OP_LLVM_fragment 16 8] 66
	#DEBUG_VALUE: mk_write_id:c_id <- [DW_OP_LLVM_fragment 24 8] -121
	#DEBUG_VALUE: mk_append_context_data:c <- $r12
	#DEBUG_VALUE: mk_append_context_data:size <- 2
	#DEBUG_VALUE: mk_append_context_data:ns <- $r13d
	.loc	0 110 28                        # x264_src/output/matroska_ebml.c:110:28
	movl	%ebp, %ecx
	.loc	0 110 5                         # x264_src/output/matroska_ebml.c:110:5
	movw	$-30910, (%rax,%rcx)            # imm = 0x8742
	.loc	0 112 14 is_stmt 1              # x264_src/output/matroska_ebml.c:112:14
	movl	%r13d, 48(%r12)
.Ltmp323:
	#DEBUG_VALUE: mk_write_uint:i <- 6
	.loc	0 256 5                         # x264_src/output/matroska_ebml.c:256:5
	movq	%r12, %rdi
	movl	$1, %esi
	callq	mk_write_size
.Ltmp324:
	testl	%eax, %eax
.Ltmp325:
	.loc	0 256 5 is_stmt 0               # x264_src/output/matroska_ebml.c:256:5
	js	.LBB2_137
.Ltmp326:
# %bb.99:                               # %do.body31.i474
	#DEBUG_VALUE: mk_writeHeader:w <- $r14
	#DEBUG_VALUE: mk_writeHeader:writing_app <- [DW_OP_plus_uconst 32] [$rsp+0]
	#DEBUG_VALUE: mk_writeHeader:codec_id <- [DW_OP_LLVM_entry_value 1] $rdx
	#DEBUG_VALUE: mk_writeHeader:codec_private <- [DW_OP_LLVM_entry_value 1] $rcx
	#DEBUG_VALUE: mk_writeHeader:codec_private_size <- [DW_OP_LLVM_entry_value 1] $r8d
	#DEBUG_VALUE: mk_writeHeader:default_frame_duration <- [DW_OP_LLVM_entry_value 1] $r9
	#DEBUG_VALUE: mk_writeHeader:c <- $r12
	#DEBUG_VALUE: mk_write_uint:c <- $r12
	#DEBUG_VALUE: mk_write_uint:id <- 17031
	#DEBUG_VALUE: mk_write_uint:ui <- 2
	#DEBUG_VALUE: mk_write_uint:c_ui <- [DW_OP_LLVM_fragment 0 8] 0
	#DEBUG_VALUE: mk_write_uint:c_ui <- [DW_OP_LLVM_fragment 8 8] 0
	#DEBUG_VALUE: mk_write_uint:c_ui <- [DW_OP_LLVM_fragment 16 8] 0
	#DEBUG_VALUE: mk_write_uint:c_ui <- [DW_OP_LLVM_fragment 24 8] 0
	#DEBUG_VALUE: mk_write_uint:c_ui <- [DW_OP_LLVM_fragment 32 8] 0
	#DEBUG_VALUE: mk_write_uint:c_ui <- [DW_OP_LLVM_fragment 40 8] 0
	#DEBUG_VALUE: mk_write_uint:c_ui <- [DW_OP_LLVM_fragment 48 8] 0
	#DEBUG_VALUE: mk_write_uint:c_ui <- [DW_OP_LLVM_fragment 56 8] 2
	#DEBUG_VALUE: mk_write_uint:i <- 6
	#DEBUG_VALUE: mk_append_context_data:c <- $r12
	#DEBUG_VALUE: mk_append_context_data:data <- undef
	#DEBUG_VALUE: mk_append_context_data:size <- 1
	.loc	0 93 22 is_stmt 1               # x264_src/output/matroska_ebml.c:93:22
	movl	48(%r12), %ecx
.Ltmp327:
	.loc	0 95 17                         # x264_src/output/matroska_ebml.c:95:17
	movl	52(%r12), %eax
.Ltmp328:
	.loc	0 93 28                         # x264_src/output/matroska_ebml.c:93:28
	leal	1(%rcx), %ebx
.Ltmp329:
	#DEBUG_VALUE: mk_append_context_data:ns <- $ebx
	.loc	0 95 12                         # x264_src/output/matroska_ebml.c:95:12
	cmpl	%eax, %ebx
.Ltmp330:
	.loc	0 95 9 is_stmt 0                # x264_src/output/matroska_ebml.c:95:9
	jbe	.LBB2_104
.Ltmp331:
# %bb.100:                              # %if.then.i.i488
	#DEBUG_VALUE: mk_writeHeader:w <- $r14
	#DEBUG_VALUE: mk_writeHeader:writing_app <- [DW_OP_plus_uconst 32] [$rsp+0]
	#DEBUG_VALUE: mk_writeHeader:codec_id <- [DW_OP_LLVM_entry_value 1] $rdx
	#DEBUG_VALUE: mk_writeHeader:codec_private <- [DW_OP_LLVM_entry_value 1] $rcx
	#DEBUG_VALUE: mk_writeHeader:codec_private_size <- [DW_OP_LLVM_entry_value 1] $r8d
	#DEBUG_VALUE: mk_writeHeader:default_frame_duration <- [DW_OP_LLVM_entry_value 1] $r9
	#DEBUG_VALUE: mk_writeHeader:c <- $r12
	#DEBUG_VALUE: mk_write_uint:c <- $r12
	#DEBUG_VALUE: mk_write_uint:id <- 17031
	#DEBUG_VALUE: mk_write_uint:ui <- 2
	#DEBUG_VALUE: mk_write_uint:c_ui <- [DW_OP_LLVM_fragment 0 8] 0
	#DEBUG_VALUE: mk_write_uint:c_ui <- [DW_OP_LLVM_fragment 8 8] 0
	#DEBUG_VALUE: mk_write_uint:c_ui <- [DW_OP_LLVM_fragment 16 8] 0
	#DEBUG_VALUE: mk_write_uint:c_ui <- [DW_OP_LLVM_fragment 24 8] 0
	#DEBUG_VALUE: mk_write_uint:c_ui <- [DW_OP_LLVM_fragment 32 8] 0
	#DEBUG_VALUE: mk_write_uint:c_ui <- [DW_OP_LLVM_fragment 40 8] 0
	#DEBUG_VALUE: mk_write_uint:c_ui <- [DW_OP_LLVM_fragment 48 8] 0
	#DEBUG_VALUE: mk_write_uint:c_ui <- [DW_OP_LLVM_fragment 56 8] 2
	#DEBUG_VALUE: mk_write_uint:i <- 6
	#DEBUG_VALUE: mk_append_context_data:c <- $r12
	#DEBUG_VALUE: mk_append_context_data:size <- 1
	#DEBUG_VALUE: mk_append_context_data:ns <- $ebx
	.loc	0 0 9                           # x264_src/output/matroska_ebml.c:0:9
	leal	(%rax,%rax), %ecx
.Ltmp332:
	.loc	0 98 23 is_stmt 1               # x264_src/output/matroska_ebml.c:98:23
	testl	%eax, %eax
	movl	$16, %eax
	cmovnel	%ecx, %eax
.Ltmp333:
	#DEBUG_VALUE: dn <- $eax
.LBB2_101:                              # %while.cond.i.i492
                                        # =>This Inner Loop Header: Depth=1
	#DEBUG_VALUE: mk_writeHeader:w <- $r14
	#DEBUG_VALUE: mk_writeHeader:writing_app <- [DW_OP_plus_uconst 32] [$rsp+0]
	#DEBUG_VALUE: mk_writeHeader:codec_id <- [DW_OP_LLVM_entry_value 1] $rdx
	#DEBUG_VALUE: mk_writeHeader:codec_private <- [DW_OP_LLVM_entry_value 1] $rcx
	#DEBUG_VALUE: mk_writeHeader:codec_private_size <- [DW_OP_LLVM_entry_value 1] $r8d
	#DEBUG_VALUE: mk_writeHeader:default_frame_duration <- [DW_OP_LLVM_entry_value 1] $r9
	#DEBUG_VALUE: mk_writeHeader:c <- $r12
	#DEBUG_VALUE: mk_write_uint:c <- $r12
	#DEBUG_VALUE: mk_write_uint:id <- 17031
	#DEBUG_VALUE: mk_write_uint:ui <- 2
	#DEBUG_VALUE: mk_write_uint:c_ui <- [DW_OP_LLVM_fragment 0 8] 0
	#DEBUG_VALUE: mk_write_uint:c_ui <- [DW_OP_LLVM_fragment 8 8] 0
	#DEBUG_VALUE: mk_write_uint:c_ui <- [DW_OP_LLVM_fragment 16 8] 0
	#DEBUG_VALUE: mk_write_uint:c_ui <- [DW_OP_LLVM_fragment 24 8] 0
	#DEBUG_VALUE: mk_write_uint:c_ui <- [DW_OP_LLVM_fragment 32 8] 0
	#DEBUG_VALUE: mk_write_uint:c_ui <- [DW_OP_LLVM_fragment 40 8] 0
	#DEBUG_VALUE: mk_write_uint:c_ui <- [DW_OP_LLVM_fragment 48 8] 0
	#DEBUG_VALUE: mk_write_uint:c_ui <- [DW_OP_LLVM_fragment 56 8] 2
	#DEBUG_VALUE: mk_write_uint:i <- 6
	#DEBUG_VALUE: mk_append_context_data:c <- $r12
	#DEBUG_VALUE: mk_append_context_data:size <- 1
	#DEBUG_VALUE: mk_append_context_data:ns <- $ebx
	#DEBUG_VALUE: dn <- $eax
	.loc	0 0 0 is_stmt 0                 # x264_src/output/matroska_ebml.c:0:0
	movl	%eax, %r15d
.Ltmp334:
	#DEBUG_VALUE: dn <- $r15d
	#DEBUG_VALUE: dn <- $r15d
	.loc	0 100 16 is_stmt 1              # x264_src/output/matroska_ebml.c:100:16
	leal	(%r15,%r15), %eax
.Ltmp335:
	#DEBUG_VALUE: dn <- $eax
	.loc	0 99 19                         # x264_src/output/matroska_ebml.c:99:19
	cmpl	%r15d, %ebx
	.loc	0 99 9 is_stmt 0                # x264_src/output/matroska_ebml.c:99:9
	ja	.LBB2_101
.Ltmp336:
# %bb.102:                              # %while.end.i.i496
	#DEBUG_VALUE: mk_writeHeader:w <- $r14
	#DEBUG_VALUE: mk_writeHeader:writing_app <- [DW_OP_plus_uconst 32] [$rsp+0]
	#DEBUG_VALUE: mk_writeHeader:codec_id <- [DW_OP_LLVM_entry_value 1] $rdx
	#DEBUG_VALUE: mk_writeHeader:codec_private <- [DW_OP_LLVM_entry_value 1] $rcx
	#DEBUG_VALUE: mk_writeHeader:codec_private_size <- [DW_OP_LLVM_entry_value 1] $r8d
	#DEBUG_VALUE: mk_writeHeader:default_frame_duration <- [DW_OP_LLVM_entry_value 1] $r9
	#DEBUG_VALUE: mk_writeHeader:c <- $r12
	#DEBUG_VALUE: mk_write_uint:c <- $r12
	#DEBUG_VALUE: mk_write_uint:id <- 17031
	#DEBUG_VALUE: mk_write_uint:ui <- 2
	#DEBUG_VALUE: mk_write_uint:c_ui <- [DW_OP_LLVM_fragment 0 8] 0
	#DEBUG_VALUE: mk_write_uint:c_ui <- [DW_OP_LLVM_fragment 8 8] 0
	#DEBUG_VALUE: mk_write_uint:c_ui <- [DW_OP_LLVM_fragment 16 8] 0
	#DEBUG_VALUE: mk_write_uint:c_ui <- [DW_OP_LLVM_fragment 24 8] 0
	#DEBUG_VALUE: mk_write_uint:c_ui <- [DW_OP_LLVM_fragment 32 8] 0
	#DEBUG_VALUE: mk_write_uint:c_ui <- [DW_OP_LLVM_fragment 40 8] 0
	#DEBUG_VALUE: mk_write_uint:c_ui <- [DW_OP_LLVM_fragment 48 8] 0
	#DEBUG_VALUE: mk_write_uint:c_ui <- [DW_OP_LLVM_fragment 56 8] 2
	#DEBUG_VALUE: mk_write_uint:i <- 6
	#DEBUG_VALUE: mk_append_context_data:c <- $r12
	#DEBUG_VALUE: mk_append_context_data:size <- 1
	#DEBUG_VALUE: mk_append_context_data:ns <- $ebx
	#DEBUG_VALUE: dn <- $eax
	.loc	0 102 26 is_stmt 1              # x264_src/output/matroska_ebml.c:102:26
	movq	40(%r12), %rdi
	.loc	0 102 32 is_stmt 0              # x264_src/output/matroska_ebml.c:102:32
	movl	%r15d, %esi
	.loc	0 102 14                        # x264_src/output/matroska_ebml.c:102:14
	callq	realloc@PLT
.Ltmp337:
	#DEBUG_VALUE: dp <- $rax
	.loc	0 103 14 is_stmt 1              # x264_src/output/matroska_ebml.c:103:14
	testq	%rax, %rax
.Ltmp338:
	.loc	0 103 13 is_stmt 0              # x264_src/output/matroska_ebml.c:103:13
	je	.LBB2_137
.Ltmp339:
# %bb.103:                              # %if.end.i.i501
	#DEBUG_VALUE: mk_writeHeader:w <- $r14
	#DEBUG_VALUE: mk_writeHeader:writing_app <- [DW_OP_plus_uconst 32] [$rsp+0]
	#DEBUG_VALUE: mk_writeHeader:codec_id <- [DW_OP_LLVM_entry_value 1] $rdx
	#DEBUG_VALUE: mk_writeHeader:codec_private <- [DW_OP_LLVM_entry_value 1] $rcx
	#DEBUG_VALUE: mk_writeHeader:codec_private_size <- [DW_OP_LLVM_entry_value 1] $r8d
	#DEBUG_VALUE: mk_writeHeader:default_frame_duration <- [DW_OP_LLVM_entry_value 1] $r9
	#DEBUG_VALUE: mk_writeHeader:c <- $r12
	#DEBUG_VALUE: mk_write_uint:c <- $r12
	#DEBUG_VALUE: mk_write_uint:id <- 17031
	#DEBUG_VALUE: mk_write_uint:ui <- 2
	#DEBUG_VALUE: mk_write_uint:c_ui <- [DW_OP_LLVM_fragment 0 8] 0
	#DEBUG_VALUE: mk_write_uint:c_ui <- [DW_OP_LLVM_fragment 8 8] 0
	#DEBUG_VALUE: mk_write_uint:c_ui <- [DW_OP_LLVM_fragment 16 8] 0
	#DEBUG_VALUE: mk_write_uint:c_ui <- [DW_OP_LLVM_fragment 24 8] 0
	#DEBUG_VALUE: mk_write_uint:c_ui <- [DW_OP_LLVM_fragment 32 8] 0
	#DEBUG_VALUE: mk_write_uint:c_ui <- [DW_OP_LLVM_fragment 40 8] 0
	#DEBUG_VALUE: mk_write_uint:c_ui <- [DW_OP_LLVM_fragment 48 8] 0
	#DEBUG_VALUE: mk_write_uint:c_ui <- [DW_OP_LLVM_fragment 56 8] 2
	#DEBUG_VALUE: mk_write_uint:i <- 6
	#DEBUG_VALUE: mk_append_context_data:c <- $r12
	#DEBUG_VALUE: mk_append_context_data:size <- 1
	#DEBUG_VALUE: mk_append_context_data:ns <- $ebx
	#DEBUG_VALUE: dp <- $rax
	.loc	0 106 17 is_stmt 1              # x264_src/output/matroska_ebml.c:106:17
	movq	%rax, 40(%r12)
	.loc	0 107 18                        # x264_src/output/matroska_ebml.c:107:18
	movl	%r15d, 52(%r12)
.Ltmp340:
	.loc	0 110 33                        # x264_src/output/matroska_ebml.c:110:33
	movl	48(%r12), %ecx
	jmp	.LBB2_105
.Ltmp341:
.LBB2_104:                              # %entry.if.end11_crit_edge.i.i480
	#DEBUG_VALUE: mk_writeHeader:w <- $r14
	#DEBUG_VALUE: mk_writeHeader:writing_app <- [DW_OP_plus_uconst 32] [$rsp+0]
	#DEBUG_VALUE: mk_writeHeader:codec_id <- [DW_OP_LLVM_entry_value 1] $rdx
	#DEBUG_VALUE: mk_writeHeader:codec_private <- [DW_OP_LLVM_entry_value 1] $rcx
	#DEBUG_VALUE: mk_writeHeader:codec_private_size <- [DW_OP_LLVM_entry_value 1] $r8d
	#DEBUG_VALUE: mk_writeHeader:default_frame_duration <- [DW_OP_LLVM_entry_value 1] $r9
	#DEBUG_VALUE: mk_writeHeader:c <- $r12
	#DEBUG_VALUE: mk_write_uint:c <- $r12
	#DEBUG_VALUE: mk_write_uint:id <- 17031
	#DEBUG_VALUE: mk_write_uint:ui <- 2
	#DEBUG_VALUE: mk_write_uint:c_ui <- [DW_OP_LLVM_fragment 0 8] 0
	#DEBUG_VALUE: mk_write_uint:c_ui <- [DW_OP_LLVM_fragment 8 8] 0
	#DEBUG_VALUE: mk_write_uint:c_ui <- [DW_OP_LLVM_fragment 16 8] 0
	#DEBUG_VALUE: mk_write_uint:c_ui <- [DW_OP_LLVM_fragment 24 8] 0
	#DEBUG_VALUE: mk_write_uint:c_ui <- [DW_OP_LLVM_fragment 32 8] 0
	#DEBUG_VALUE: mk_write_uint:c_ui <- [DW_OP_LLVM_fragment 40 8] 0
	#DEBUG_VALUE: mk_write_uint:c_ui <- [DW_OP_LLVM_fragment 48 8] 0
	#DEBUG_VALUE: mk_write_uint:c_ui <- [DW_OP_LLVM_fragment 56 8] 2
	#DEBUG_VALUE: mk_write_uint:i <- 6
	#DEBUG_VALUE: mk_append_context_data:c <- $r12
	#DEBUG_VALUE: mk_append_context_data:size <- 1
	#DEBUG_VALUE: mk_append_context_data:ns <- $ebx
	.loc	0 110 23 is_stmt 0              # x264_src/output/matroska_ebml.c:110:23
	movq	40(%r12), %rax
.Ltmp342:
.LBB2_105:                              # %do.body43
	#DEBUG_VALUE: mk_writeHeader:w <- $r14
	#DEBUG_VALUE: mk_writeHeader:writing_app <- [DW_OP_plus_uconst 32] [$rsp+0]
	#DEBUG_VALUE: mk_writeHeader:codec_id <- [DW_OP_LLVM_entry_value 1] $rdx
	#DEBUG_VALUE: mk_writeHeader:codec_private <- [DW_OP_LLVM_entry_value 1] $rcx
	#DEBUG_VALUE: mk_writeHeader:codec_private_size <- [DW_OP_LLVM_entry_value 1] $r8d
	#DEBUG_VALUE: mk_writeHeader:default_frame_duration <- [DW_OP_LLVM_entry_value 1] $r9
	#DEBUG_VALUE: mk_writeHeader:c <- $r12
	#DEBUG_VALUE: mk_write_uint:c <- $r12
	#DEBUG_VALUE: mk_write_uint:id <- 17031
	#DEBUG_VALUE: mk_write_uint:ui <- 2
	#DEBUG_VALUE: mk_write_uint:c_ui <- [DW_OP_LLVM_fragment 0 8] 0
	#DEBUG_VALUE: mk_write_uint:c_ui <- [DW_OP_LLVM_fragment 8 8] 0
	#DEBUG_VALUE: mk_write_uint:c_ui <- [DW_OP_LLVM_fragment 16 8] 0
	#DEBUG_VALUE: mk_write_uint:c_ui <- [DW_OP_LLVM_fragment 24 8] 0
	#DEBUG_VALUE: mk_write_uint:c_ui <- [DW_OP_LLVM_fragment 32 8] 0
	#DEBUG_VALUE: mk_write_uint:c_ui <- [DW_OP_LLVM_fragment 40 8] 0
	#DEBUG_VALUE: mk_write_uint:c_ui <- [DW_OP_LLVM_fragment 48 8] 0
	#DEBUG_VALUE: mk_write_uint:c_ui <- [DW_OP_LLVM_fragment 56 8] 2
	#DEBUG_VALUE: mk_write_uint:i <- 6
	#DEBUG_VALUE: mk_append_context_data:c <- $r12
	#DEBUG_VALUE: mk_append_context_data:size <- 1
	#DEBUG_VALUE: mk_append_context_data:ns <- $ebx
	.loc	0 110 28                        # x264_src/output/matroska_ebml.c:110:28
	movl	%ecx, %ecx
	.loc	0 110 5                         # x264_src/output/matroska_ebml.c:110:5
	movb	$2, (%rax,%rcx)
	.loc	0 112 14 is_stmt 1              # x264_src/output/matroska_ebml.c:112:14
	movl	%ebx, 48(%r12)
.Ltmp343:
	.loc	0 342 5                         # x264_src/output/matroska_ebml.c:342:5
	movl	$2, %edx
	movq	%r12, %rdi
	movl	$17029, %esi                    # imm = 0x4285
	callq	mk_write_uint
.Ltmp344:
	testl	%eax, %eax
.Ltmp345:
	.loc	0 342 5 is_stmt 0               # x264_src/output/matroska_ebml.c:342:5
	js	.LBB2_137
.Ltmp346:
# %bb.106:                              # %do.body50
	#DEBUG_VALUE: mk_writeHeader:w <- $r14
	#DEBUG_VALUE: mk_writeHeader:writing_app <- [DW_OP_plus_uconst 32] [$rsp+0]
	#DEBUG_VALUE: mk_writeHeader:codec_id <- [DW_OP_LLVM_entry_value 1] $rdx
	#DEBUG_VALUE: mk_writeHeader:codec_private <- [DW_OP_LLVM_entry_value 1] $rcx
	#DEBUG_VALUE: mk_writeHeader:codec_private_size <- [DW_OP_LLVM_entry_value 1] $r8d
	#DEBUG_VALUE: mk_writeHeader:default_frame_duration <- [DW_OP_LLVM_entry_value 1] $r9
	#DEBUG_VALUE: mk_writeHeader:c <- $r12
	.loc	0 343 5 is_stmt 1               # x264_src/output/matroska_ebml.c:343:5
	movq	%r12, %rdi
	xorl	%esi, %esi
	callq	mk_close_context
.Ltmp347:
	testl	%eax, %eax
.Ltmp348:
	.loc	0 343 5 is_stmt 0               # x264_src/output/matroska_ebml.c:343:5
	js	.LBB2_137
.Ltmp349:
# %bb.107:                              # %do.end56
	#DEBUG_VALUE: mk_writeHeader:w <- $r14
	#DEBUG_VALUE: mk_writeHeader:writing_app <- [DW_OP_plus_uconst 32] [$rsp+0]
	#DEBUG_VALUE: mk_writeHeader:codec_id <- [DW_OP_LLVM_entry_value 1] $rdx
	#DEBUG_VALUE: mk_writeHeader:codec_private <- [DW_OP_LLVM_entry_value 1] $rcx
	#DEBUG_VALUE: mk_writeHeader:codec_private_size <- [DW_OP_LLVM_entry_value 1] $r8d
	#DEBUG_VALUE: mk_writeHeader:default_frame_duration <- [DW_OP_LLVM_entry_value 1] $r9
	#DEBUG_VALUE: mk_writeHeader:c <- $r12
	.loc	0 345 40 is_stmt 1              # x264_src/output/matroska_ebml.c:345:40
	movq	16(%r14), %rsi
	.loc	0 345 15 is_stmt 0              # x264_src/output/matroska_ebml.c:345:15
	movq	%r14, %rdi
	movl	$408125543, %edx                # imm = 0x18538067
	callq	mk_create_context
.Ltmp350:
	#DEBUG_VALUE: mk_writeHeader:c <- $rax
	.loc	0 345 13                        # x264_src/output/matroska_ebml.c:345:13
	testq	%rax, %rax
.Ltmp351:
	.loc	0 345 9                         # x264_src/output/matroska_ebml.c:345:9
	je	.LBB2_137
.Ltmp352:
# %bb.108:                              # %do.body62
	#DEBUG_VALUE: mk_writeHeader:w <- $r14
	#DEBUG_VALUE: mk_writeHeader:writing_app <- [DW_OP_plus_uconst 32] [$rsp+0]
	#DEBUG_VALUE: mk_writeHeader:codec_id <- [DW_OP_LLVM_entry_value 1] $rdx
	#DEBUG_VALUE: mk_writeHeader:codec_private <- [DW_OP_LLVM_entry_value 1] $rcx
	#DEBUG_VALUE: mk_writeHeader:codec_private_size <- [DW_OP_LLVM_entry_value 1] $r8d
	#DEBUG_VALUE: mk_writeHeader:default_frame_duration <- [DW_OP_LLVM_entry_value 1] $r9
	#DEBUG_VALUE: mk_writeHeader:c <- $rax
	.loc	0 0 0                           # x264_src/output/matroska_ebml.c:0:0
	movq	%rax, %r12
.Ltmp353:
	.loc	0 347 5 is_stmt 1               # x264_src/output/matroska_ebml.c:347:5
	movq	%rax, %rdi
	callq	mk_flush_context_id
.Ltmp354:
	#DEBUG_VALUE: mk_writeHeader:c <- $r12
	testl	%eax, %eax
.Ltmp355:
	.loc	0 347 5 is_stmt 0               # x264_src/output/matroska_ebml.c:347:5
	js	.LBB2_137
.Ltmp356:
# %bb.109:                              # %do.body69
	#DEBUG_VALUE: mk_writeHeader:w <- $r14
	#DEBUG_VALUE: mk_writeHeader:writing_app <- [DW_OP_plus_uconst 32] [$rsp+0]
	#DEBUG_VALUE: mk_writeHeader:codec_id <- [DW_OP_LLVM_entry_value 1] $rdx
	#DEBUG_VALUE: mk_writeHeader:codec_private <- [DW_OP_LLVM_entry_value 1] $rcx
	#DEBUG_VALUE: mk_writeHeader:codec_private_size <- [DW_OP_LLVM_entry_value 1] $r8d
	#DEBUG_VALUE: mk_writeHeader:default_frame_duration <- [DW_OP_LLVM_entry_value 1] $r9
	#DEBUG_VALUE: mk_writeHeader:c <- $r12
	.loc	0 348 5 is_stmt 1               # x264_src/output/matroska_ebml.c:348:5
	movq	%r12, %rdi
	xorl	%esi, %esi
	callq	mk_close_context
.Ltmp357:
	testl	%eax, %eax
.Ltmp358:
	.loc	0 348 5 is_stmt 0               # x264_src/output/matroska_ebml.c:348:5
	js	.LBB2_137
.Ltmp359:
# %bb.110:                              # %do.end75
	#DEBUG_VALUE: mk_writeHeader:w <- $r14
	#DEBUG_VALUE: mk_writeHeader:writing_app <- [DW_OP_plus_uconst 32] [$rsp+0]
	#DEBUG_VALUE: mk_writeHeader:codec_id <- [DW_OP_LLVM_entry_value 1] $rdx
	#DEBUG_VALUE: mk_writeHeader:codec_private <- [DW_OP_LLVM_entry_value 1] $rcx
	#DEBUG_VALUE: mk_writeHeader:codec_private_size <- [DW_OP_LLVM_entry_value 1] $r8d
	#DEBUG_VALUE: mk_writeHeader:default_frame_duration <- [DW_OP_LLVM_entry_value 1] $r9
	#DEBUG_VALUE: mk_writeHeader:c <- $r12
	.loc	0 350 40 is_stmt 1              # x264_src/output/matroska_ebml.c:350:40
	movq	16(%r14), %rsi
	.loc	0 350 15 is_stmt 0              # x264_src/output/matroska_ebml.c:350:15
	movq	%r14, %rdi
	movl	$357149030, %edx                # imm = 0x1549A966
	callq	mk_create_context
.Ltmp360:
	#DEBUG_VALUE: mk_writeHeader:c <- $rax
	.loc	0 350 13                        # x264_src/output/matroska_ebml.c:350:13
	testq	%rax, %rax
.Ltmp361:
	.loc	0 350 9                         # x264_src/output/matroska_ebml.c:350:9
	je	.LBB2_137
.Ltmp362:
# %bb.111:                              # %do.body81
	#DEBUG_VALUE: mk_writeHeader:w <- $r14
	#DEBUG_VALUE: mk_writeHeader:writing_app <- [DW_OP_plus_uconst 32] [$rsp+0]
	#DEBUG_VALUE: mk_writeHeader:codec_id <- [DW_OP_LLVM_entry_value 1] $rdx
	#DEBUG_VALUE: mk_writeHeader:codec_private <- [DW_OP_LLVM_entry_value 1] $rcx
	#DEBUG_VALUE: mk_writeHeader:codec_private_size <- [DW_OP_LLVM_entry_value 1] $r8d
	#DEBUG_VALUE: mk_writeHeader:default_frame_duration <- [DW_OP_LLVM_entry_value 1] $r9
	#DEBUG_VALUE: mk_writeHeader:c <- $rax
	.loc	0 0 0                           # x264_src/output/matroska_ebml.c:0:0
	movq	%rax, %r12
.Ltmp363:
	.loc	0 352 5 is_stmt 1               # x264_src/output/matroska_ebml.c:352:5
	movl	$.L.str.3, %edx
	movq	%rax, %rdi
	movl	$19840, %esi                    # imm = 0x4D80
	callq	mk_write_string
.Ltmp364:
	#DEBUG_VALUE: mk_writeHeader:c <- $r12
	testl	%eax, %eax
.Ltmp365:
	.loc	0 352 5 is_stmt 0               # x264_src/output/matroska_ebml.c:352:5
	js	.LBB2_137
.Ltmp366:
# %bb.112:                              # %do.body88
	#DEBUG_VALUE: mk_writeHeader:w <- $r14
	#DEBUG_VALUE: mk_writeHeader:writing_app <- [DW_OP_plus_uconst 32] [$rsp+0]
	#DEBUG_VALUE: mk_writeHeader:codec_id <- [DW_OP_LLVM_entry_value 1] $rdx
	#DEBUG_VALUE: mk_writeHeader:codec_private <- [DW_OP_LLVM_entry_value 1] $rcx
	#DEBUG_VALUE: mk_writeHeader:codec_private_size <- [DW_OP_LLVM_entry_value 1] $r8d
	#DEBUG_VALUE: mk_writeHeader:default_frame_duration <- [DW_OP_LLVM_entry_value 1] $r9
	#DEBUG_VALUE: mk_writeHeader:c <- $r12
	.loc	0 353 5 is_stmt 1               # x264_src/output/matroska_ebml.c:353:5
	movq	%r12, %rdi
	movl	$22337, %esi                    # imm = 0x5741
	movq	32(%rsp), %rdx                  # 8-byte Reload
	callq	mk_write_string
.Ltmp367:
	testl	%eax, %eax
.Ltmp368:
	.loc	0 353 5 is_stmt 0               # x264_src/output/matroska_ebml.c:353:5
	js	.LBB2_137
.Ltmp369:
# %bb.113:                              # %do.body95
	#DEBUG_VALUE: mk_writeHeader:w <- $r14
	#DEBUG_VALUE: mk_writeHeader:writing_app <- [DW_OP_plus_uconst 32] [$rsp+0]
	#DEBUG_VALUE: mk_writeHeader:codec_id <- [DW_OP_LLVM_entry_value 1] $rdx
	#DEBUG_VALUE: mk_writeHeader:codec_private <- [DW_OP_LLVM_entry_value 1] $rcx
	#DEBUG_VALUE: mk_writeHeader:codec_private_size <- [DW_OP_LLVM_entry_value 1] $r8d
	#DEBUG_VALUE: mk_writeHeader:default_frame_duration <- [DW_OP_LLVM_entry_value 1] $r9
	#DEBUG_VALUE: mk_writeHeader:c <- $r12
	.loc	0 354 5 is_stmt 1               # x264_src/output/matroska_ebml.c:354:5
	movq	64(%r14), %rdx
	movq	%r12, %rdi
	movl	$2807729, %esi                  # imm = 0x2AD7B1
	callq	mk_write_uint
.Ltmp370:
	testl	%eax, %eax
.Ltmp371:
	.loc	0 354 5 is_stmt 0               # x264_src/output/matroska_ebml.c:354:5
	js	.LBB2_137
.Ltmp372:
# %bb.114:                              # %do.body103
	#DEBUG_VALUE: mk_writeHeader:w <- $r14
	#DEBUG_VALUE: mk_writeHeader:writing_app <- [DW_OP_plus_uconst 32] [$rsp+0]
	#DEBUG_VALUE: mk_writeHeader:codec_id <- [DW_OP_LLVM_entry_value 1] $rdx
	#DEBUG_VALUE: mk_writeHeader:codec_private <- [DW_OP_LLVM_entry_value 1] $rcx
	#DEBUG_VALUE: mk_writeHeader:codec_private_size <- [DW_OP_LLVM_entry_value 1] $r8d
	#DEBUG_VALUE: mk_writeHeader:default_frame_duration <- [DW_OP_LLVM_entry_value 1] $r9
	#DEBUG_VALUE: mk_writeHeader:c <- $r12
	.loc	0 355 5 is_stmt 1               # x264_src/output/matroska_ebml.c:355:5
	movq	%r12, %rdi
	callq	mk_write_float
.Ltmp373:
	testl	%eax, %eax
.Ltmp374:
	.loc	0 355 5 is_stmt 0               # x264_src/output/matroska_ebml.c:355:5
	js	.LBB2_137
.Ltmp375:
# %bb.115:                              # %do.end109
	#DEBUG_VALUE: mk_writeHeader:w <- $r14
	#DEBUG_VALUE: mk_writeHeader:writing_app <- [DW_OP_plus_uconst 32] [$rsp+0]
	#DEBUG_VALUE: mk_writeHeader:codec_id <- [DW_OP_LLVM_entry_value 1] $rdx
	#DEBUG_VALUE: mk_writeHeader:codec_private <- [DW_OP_LLVM_entry_value 1] $rcx
	#DEBUG_VALUE: mk_writeHeader:codec_private_size <- [DW_OP_LLVM_entry_value 1] $r8d
	#DEBUG_VALUE: mk_writeHeader:default_frame_duration <- [DW_OP_LLVM_entry_value 1] $r9
	#DEBUG_VALUE: mk_writeHeader:c <- $r12
	.loc	0 356 26 is_stmt 1              # x264_src/output/matroska_ebml.c:356:26
	movl	48(%r12), %eax
	.loc	0 356 32 is_stmt 0              # x264_src/output/matroska_ebml.c:356:32
	addl	$-4, %eax
	.loc	0 356 8                         # x264_src/output/matroska_ebml.c:356:8
	leaq	8(%r14), %rsi
	.loc	0 356 21                        # x264_src/output/matroska_ebml.c:356:21
	movl	%eax, 8(%r14)
.Ltmp376:
	.loc	0 357 5 is_stmt 1               # x264_src/output/matroska_ebml.c:357:5
	movq	%r12, %rdi
	callq	mk_close_context
.Ltmp377:
	testl	%eax, %eax
.Ltmp378:
	.loc	0 357 5 is_stmt 0               # x264_src/output/matroska_ebml.c:357:5
	js	.LBB2_137
.Ltmp379:
# %bb.116:                              # %do.end117
	#DEBUG_VALUE: mk_writeHeader:w <- $r14
	#DEBUG_VALUE: mk_writeHeader:writing_app <- [DW_OP_plus_uconst 32] [$rsp+0]
	#DEBUG_VALUE: mk_writeHeader:codec_id <- [DW_OP_LLVM_entry_value 1] $rdx
	#DEBUG_VALUE: mk_writeHeader:codec_private <- [DW_OP_LLVM_entry_value 1] $rcx
	#DEBUG_VALUE: mk_writeHeader:codec_private_size <- [DW_OP_LLVM_entry_value 1] $r8d
	#DEBUG_VALUE: mk_writeHeader:default_frame_duration <- [DW_OP_LLVM_entry_value 1] $r9
	#DEBUG_VALUE: mk_writeHeader:c <- $r12
	.loc	0 359 40 is_stmt 1              # x264_src/output/matroska_ebml.c:359:40
	movq	16(%r14), %rsi
	.loc	0 359 15 is_stmt 0              # x264_src/output/matroska_ebml.c:359:15
	movq	%r14, %rdi
	movl	$374648427, %edx                # imm = 0x1654AE6B
	callq	mk_create_context
.Ltmp380:
	#DEBUG_VALUE: mk_writeHeader:c <- $rax
	.loc	0 359 13                        # x264_src/output/matroska_ebml.c:359:13
	testq	%rax, %rax
.Ltmp381:
	.loc	0 359 9                         # x264_src/output/matroska_ebml.c:359:9
	je	.LBB2_137
.Ltmp382:
# %bb.117:                              # %if.end122
	#DEBUG_VALUE: mk_writeHeader:w <- $r14
	#DEBUG_VALUE: mk_writeHeader:writing_app <- [DW_OP_plus_uconst 32] [$rsp+0]
	#DEBUG_VALUE: mk_writeHeader:codec_id <- [DW_OP_LLVM_entry_value 1] $rdx
	#DEBUG_VALUE: mk_writeHeader:codec_private <- [DW_OP_LLVM_entry_value 1] $rcx
	#DEBUG_VALUE: mk_writeHeader:codec_private_size <- [DW_OP_LLVM_entry_value 1] $r8d
	#DEBUG_VALUE: mk_writeHeader:default_frame_duration <- [DW_OP_LLVM_entry_value 1] $r9
	#DEBUG_VALUE: mk_writeHeader:c <- $rax
	.loc	0 0 0                           # x264_src/output/matroska_ebml.c:0:0
	movq	%rax, %r12
.Ltmp383:
	.loc	0 361 16 is_stmt 1              # x264_src/output/matroska_ebml.c:361:16
	movq	%r14, %rdi
	movq	%rax, %rsi
	movl	$174, %edx
	callq	mk_create_context
.Ltmp384:
	#DEBUG_VALUE: mk_writeHeader:c <- $r12
	#DEBUG_VALUE: mk_writeHeader:ti <- $rax
	.loc	0 361 14 is_stmt 0              # x264_src/output/matroska_ebml.c:361:14
	testq	%rax, %rax
.Ltmp385:
	.loc	0 361 9                         # x264_src/output/matroska_ebml.c:361:9
	je	.LBB2_137
.Ltmp386:
# %bb.118:                              # %do.body127
	#DEBUG_VALUE: mk_writeHeader:w <- $r14
	#DEBUG_VALUE: mk_writeHeader:writing_app <- [DW_OP_plus_uconst 32] [$rsp+0]
	#DEBUG_VALUE: mk_writeHeader:codec_id <- [DW_OP_LLVM_entry_value 1] $rdx
	#DEBUG_VALUE: mk_writeHeader:codec_private <- [DW_OP_LLVM_entry_value 1] $rcx
	#DEBUG_VALUE: mk_writeHeader:codec_private_size <- [DW_OP_LLVM_entry_value 1] $r8d
	#DEBUG_VALUE: mk_writeHeader:default_frame_duration <- [DW_OP_LLVM_entry_value 1] $r9
	#DEBUG_VALUE: mk_writeHeader:c <- $r12
	#DEBUG_VALUE: mk_writeHeader:ti <- $rax
	.loc	0 0 0                           # x264_src/output/matroska_ebml.c:0:0
	movq	%rax, %rbp
.Ltmp387:
	.loc	0 363 5 is_stmt 1               # x264_src/output/matroska_ebml.c:363:5
	movl	$1, %edx
	movq	%rax, %rdi
	movl	$215, %esi
	callq	mk_write_uint
.Ltmp388:
	#DEBUG_VALUE: mk_writeHeader:ti <- $rbp
	testl	%eax, %eax
.Ltmp389:
	.loc	0 363 5 is_stmt 0               # x264_src/output/matroska_ebml.c:363:5
	js	.LBB2_137
.Ltmp390:
# %bb.119:                              # %do.body134
	#DEBUG_VALUE: mk_writeHeader:w <- $r14
	#DEBUG_VALUE: mk_writeHeader:writing_app <- [DW_OP_plus_uconst 32] [$rsp+0]
	#DEBUG_VALUE: mk_writeHeader:codec_id <- [DW_OP_LLVM_entry_value 1] $rdx
	#DEBUG_VALUE: mk_writeHeader:codec_private <- [DW_OP_LLVM_entry_value 1] $rcx
	#DEBUG_VALUE: mk_writeHeader:codec_private_size <- [DW_OP_LLVM_entry_value 1] $r8d
	#DEBUG_VALUE: mk_writeHeader:default_frame_duration <- [DW_OP_LLVM_entry_value 1] $r9
	#DEBUG_VALUE: mk_writeHeader:c <- $r12
	#DEBUG_VALUE: mk_writeHeader:ti <- $rbp
	.loc	0 364 5 is_stmt 1               # x264_src/output/matroska_ebml.c:364:5
	movl	$1, %edx
	movq	%rbp, %rdi
	movl	$29637, %esi                    # imm = 0x73C5
	callq	mk_write_uint
.Ltmp391:
	testl	%eax, %eax
.Ltmp392:
	.loc	0 364 5 is_stmt 0               # x264_src/output/matroska_ebml.c:364:5
	js	.LBB2_137
.Ltmp393:
# %bb.120:                              # %do.body141
	#DEBUG_VALUE: mk_writeHeader:w <- $r14
	#DEBUG_VALUE: mk_writeHeader:writing_app <- [DW_OP_plus_uconst 32] [$rsp+0]
	#DEBUG_VALUE: mk_writeHeader:codec_id <- [DW_OP_LLVM_entry_value 1] $rdx
	#DEBUG_VALUE: mk_writeHeader:codec_private <- [DW_OP_LLVM_entry_value 1] $rcx
	#DEBUG_VALUE: mk_writeHeader:codec_private_size <- [DW_OP_LLVM_entry_value 1] $r8d
	#DEBUG_VALUE: mk_writeHeader:default_frame_duration <- [DW_OP_LLVM_entry_value 1] $r9
	#DEBUG_VALUE: mk_writeHeader:c <- $r12
	#DEBUG_VALUE: mk_writeHeader:ti <- $rbp
	.loc	0 365 5 is_stmt 1               # x264_src/output/matroska_ebml.c:365:5
	movl	$1, %edx
	movq	%rbp, %rdi
	movl	$131, %esi
	callq	mk_write_uint
.Ltmp394:
	testl	%eax, %eax
.Ltmp395:
	.loc	0 365 5 is_stmt 0               # x264_src/output/matroska_ebml.c:365:5
	js	.LBB2_137
.Ltmp396:
# %bb.121:                              # %do.body148
	#DEBUG_VALUE: mk_writeHeader:w <- $r14
	#DEBUG_VALUE: mk_writeHeader:writing_app <- [DW_OP_plus_uconst 32] [$rsp+0]
	#DEBUG_VALUE: mk_writeHeader:codec_id <- [DW_OP_LLVM_entry_value 1] $rdx
	#DEBUG_VALUE: mk_writeHeader:codec_private <- [DW_OP_LLVM_entry_value 1] $rcx
	#DEBUG_VALUE: mk_writeHeader:codec_private_size <- [DW_OP_LLVM_entry_value 1] $r8d
	#DEBUG_VALUE: mk_writeHeader:default_frame_duration <- [DW_OP_LLVM_entry_value 1] $r9
	#DEBUG_VALUE: mk_writeHeader:c <- $r12
	#DEBUG_VALUE: mk_writeHeader:ti <- $rbp
	.loc	0 366 5 is_stmt 1               # x264_src/output/matroska_ebml.c:366:5
	movq	%rbp, %rdi
	movl	$156, %esi
	xorl	%edx, %edx
	callq	mk_write_uint
.Ltmp397:
	testl	%eax, %eax
.Ltmp398:
	.loc	0 366 5 is_stmt 0               # x264_src/output/matroska_ebml.c:366:5
	js	.LBB2_137
.Ltmp399:
# %bb.122:                              # %do.body155
	#DEBUG_VALUE: mk_writeHeader:w <- $r14
	#DEBUG_VALUE: mk_writeHeader:writing_app <- [DW_OP_plus_uconst 32] [$rsp+0]
	#DEBUG_VALUE: mk_writeHeader:codec_id <- [DW_OP_LLVM_entry_value 1] $rdx
	#DEBUG_VALUE: mk_writeHeader:codec_private <- [DW_OP_LLVM_entry_value 1] $rcx
	#DEBUG_VALUE: mk_writeHeader:codec_private_size <- [DW_OP_LLVM_entry_value 1] $r8d
	#DEBUG_VALUE: mk_writeHeader:default_frame_duration <- [DW_OP_LLVM_entry_value 1] $r9
	#DEBUG_VALUE: mk_writeHeader:c <- $r12
	#DEBUG_VALUE: mk_writeHeader:ti <- $rbp
	.loc	0 367 5 is_stmt 1               # x264_src/output/matroska_ebml.c:367:5
	movq	%rbp, %rdi
	movl	$134, %esi
	movq	24(%rsp), %rdx                  # 8-byte Reload
	callq	mk_write_string
.Ltmp400:
	testl	%eax, %eax
.Ltmp401:
	.loc	0 367 5 is_stmt 0               # x264_src/output/matroska_ebml.c:367:5
	js	.LBB2_137
.Ltmp402:
# %bb.123:                              # %do.end161
	#DEBUG_VALUE: mk_writeHeader:w <- $r14
	#DEBUG_VALUE: mk_writeHeader:writing_app <- [DW_OP_plus_uconst 32] [$rsp+0]
	#DEBUG_VALUE: mk_writeHeader:codec_id <- [DW_OP_LLVM_entry_value 1] $rdx
	#DEBUG_VALUE: mk_writeHeader:codec_private <- [DW_OP_LLVM_entry_value 1] $rcx
	#DEBUG_VALUE: mk_writeHeader:codec_private_size <- [DW_OP_LLVM_entry_value 1] $r8d
	#DEBUG_VALUE: mk_writeHeader:default_frame_duration <- [DW_OP_LLVM_entry_value 1] $r9
	#DEBUG_VALUE: mk_writeHeader:c <- $r12
	#DEBUG_VALUE: mk_writeHeader:ti <- $rbp
	.loc	0 368 9 is_stmt 1               # x264_src/output/matroska_ebml.c:368:9
	cmpl	$0, 4(%rsp)                     # 4-byte Folded Reload
.Ltmp403:
	.loc	0 368 9 is_stmt 0               # x264_src/output/matroska_ebml.c:368:9
	je	.LBB2_125
.Ltmp404:
# %bb.124:                              # %do.body164
	#DEBUG_VALUE: mk_writeHeader:w <- $r14
	#DEBUG_VALUE: mk_writeHeader:writing_app <- [DW_OP_plus_uconst 32] [$rsp+0]
	#DEBUG_VALUE: mk_writeHeader:codec_id <- [DW_OP_LLVM_entry_value 1] $rdx
	#DEBUG_VALUE: mk_writeHeader:codec_private <- [DW_OP_LLVM_entry_value 1] $rcx
	#DEBUG_VALUE: mk_writeHeader:codec_private_size <- [DW_OP_LLVM_entry_value 1] $r8d
	#DEBUG_VALUE: mk_writeHeader:default_frame_duration <- [DW_OP_LLVM_entry_value 1] $r9
	#DEBUG_VALUE: mk_writeHeader:c <- $r12
	#DEBUG_VALUE: mk_writeHeader:ti <- $rbp
	.loc	0 369 9 is_stmt 1               # x264_src/output/matroska_ebml.c:369:9
	movq	%rbp, %rdi
	movq	16(%rsp), %rsi                  # 8-byte Reload
	movl	4(%rsp), %edx                   # 4-byte Reload
	callq	mk_write_bin
.Ltmp405:
	testl	%eax, %eax
.Ltmp406:
	.loc	0 369 9 is_stmt 0               # x264_src/output/matroska_ebml.c:369:9
	js	.LBB2_137
.Ltmp407:
.LBB2_125:                              # %if.end171
	#DEBUG_VALUE: mk_writeHeader:w <- $r14
	#DEBUG_VALUE: mk_writeHeader:writing_app <- [DW_OP_plus_uconst 32] [$rsp+0]
	#DEBUG_VALUE: mk_writeHeader:codec_id <- [DW_OP_LLVM_entry_value 1] $rdx
	#DEBUG_VALUE: mk_writeHeader:codec_private <- [DW_OP_LLVM_entry_value 1] $rcx
	#DEBUG_VALUE: mk_writeHeader:codec_private_size <- [DW_OP_LLVM_entry_value 1] $r8d
	#DEBUG_VALUE: mk_writeHeader:default_frame_duration <- [DW_OP_LLVM_entry_value 1] $r9
	#DEBUG_VALUE: mk_writeHeader:c <- $r12
	#DEBUG_VALUE: mk_writeHeader:ti <- $rbp
	.loc	0 370 9 is_stmt 1               # x264_src/output/matroska_ebml.c:370:9
	cmpq	$0, 8(%rsp)                     # 8-byte Folded Reload
.Ltmp408:
	.loc	0 370 9 is_stmt 0               # x264_src/output/matroska_ebml.c:370:9
	je	.LBB2_127
.Ltmp409:
# %bb.126:                              # %do.body174
	#DEBUG_VALUE: mk_writeHeader:w <- $r14
	#DEBUG_VALUE: mk_writeHeader:writing_app <- [DW_OP_plus_uconst 32] [$rsp+0]
	#DEBUG_VALUE: mk_writeHeader:codec_id <- [DW_OP_LLVM_entry_value 1] $rdx
	#DEBUG_VALUE: mk_writeHeader:codec_private <- [DW_OP_LLVM_entry_value 1] $rcx
	#DEBUG_VALUE: mk_writeHeader:codec_private_size <- [DW_OP_LLVM_entry_value 1] $r8d
	#DEBUG_VALUE: mk_writeHeader:default_frame_duration <- [DW_OP_LLVM_entry_value 1] $r9
	#DEBUG_VALUE: mk_writeHeader:c <- $r12
	#DEBUG_VALUE: mk_writeHeader:ti <- $rbp
	.loc	0 371 9 is_stmt 1               # x264_src/output/matroska_ebml.c:371:9
	movq	%rbp, %rdi
	movl	$2352003, %esi                  # imm = 0x23E383
	movq	8(%rsp), %rdx                   # 8-byte Reload
	callq	mk_write_uint
.Ltmp410:
	testl	%eax, %eax
.Ltmp411:
