	.text
	.file	"dct.c"
	.file	0 "/home/yjs/workspace/x264-test/src" "x264_src/common/dct.c" md5 0x30b9a0dc55355d7d69615f64741b7b31
	.file	1 "/usr/include/x86_64-linux-gnu/bits" "types.h" md5 0xd108b5f93a74c50510d7d9bc0ab36df9
	.file	2 "/usr/include/x86_64-linux-gnu/bits" "stdint-uintn.h" md5 0x2bf2ae53c58c01b1a1b9383b5195125c
	.file	3 "x264_src/common" "dct.h" md5 0xd983c98245ed7221137d0c4902e9385f
	.file	4 "x264_src/common" "macroblock.h" md5 0x15f4a9c1d53f4196a5f2b80807bb8b1a
	.file	5 "x264_src/common" "common.h" md5 0x5afac7bf2f5673f1628c455d7d320ad7
	.globl	x264_dct_init                   # -- Begin function x264_dct_init
	.p2align	4, 0x90
	.type	x264_dct_init,@function
x264_dct_init:                          # @x264_dct_init
.Lfunc_begin0:
	.cfi_startproc
# %bb.0:                                # %entry
	#DEBUG_VALUE: x264_dct_init:cpu <- $edi
	#DEBUG_VALUE: x264_dct_init:dctf <- $rsi
	.loc	0 400 25 prologue_end           # x264_src/common/dct.c:400:25
	movq	$sub4x4_dct, (%rsi)
	.loc	0 401 25                        # x264_src/common/dct.c:401:25
	movq	$add4x4_idct, 8(%rsi)
	.loc	0 403 25                        # x264_src/common/dct.c:403:25
	movq	$sub8x8_dct, 16(%rsi)
	.loc	0 404 25                        # x264_src/common/dct.c:404:25
	movq	$sub8x8_dct_dc, 24(%rsi)
	.loc	0 405 25                        # x264_src/common/dct.c:405:25
	movq	$add8x8_idct, 32(%rsi)
	.loc	0 406 26                        # x264_src/common/dct.c:406:26
	movq	$add8x8_idct_dc, 40(%rsi)
	.loc	0 408 25                        # x264_src/common/dct.c:408:25
	movq	$sub16x16_dct, 48(%rsi)
	.loc	0 409 25                        # x264_src/common/dct.c:409:25
	movq	$add16x16_idct, 56(%rsi)
	.loc	0 410 28                        # x264_src/common/dct.c:410:28
	movq	$add16x16_idct_dc, 64(%rsi)
	.loc	0 412 25                        # x264_src/common/dct.c:412:25
	movq	$sub8x8_dct8, 72(%rsi)
	.loc	0 413 25                        # x264_src/common/dct.c:413:25
	movq	$add8x8_idct8, 80(%rsi)
	.loc	0 415 26                        # x264_src/common/dct.c:415:26
	movq	$sub16x16_dct8, 88(%rsi)
	.loc	0 416 26                        # x264_src/common/dct.c:416:26
	movq	$add16x16_idct8, 96(%rsi)
	.loc	0 418 21                        # x264_src/common/dct.c:418:21
	movq	$dct4x4dc, 104(%rsi)
	.loc	0 419 21                        # x264_src/common/dct.c:419:21
	movq	$idct4x4dc, 112(%rsi)
	.loc	0 518 1                         # x264_src/common/dct.c:518:1
	retq
.Ltmp0:
.Lfunc_end0:
	.size	x264_dct_init, .Lfunc_end0-x264_dct_init
	.cfi_endproc
                                        # -- End function
	.p2align	4, 0x90                         # -- Begin function sub4x4_dct
	.type	sub4x4_dct,@function
sub4x4_dct:                             # @sub4x4_dct
.Lfunc_begin1:
	.loc	0 113 0                         # x264_src/common/dct.c:113:0
	.cfi_startproc
# %bb.0:                                # %entry
	#DEBUG_VALUE: sub4x4_dct:dct <- $rdi
	#DEBUG_VALUE: sub4x4_dct:pix1 <- $rsi
	#DEBUG_VALUE: sub4x4_dct:pix2 <- $rdx
	#DEBUG_VALUE: pixel_sub_wxh:pix1 <- $rsi
	#DEBUG_VALUE: pixel_sub_wxh:pix2 <- $rdx
	#DEBUG_VALUE: pixel_sub_wxh:i_size <- 4
	#DEBUG_VALUE: pixel_sub_wxh:i_pix1 <- 16
	#DEBUG_VALUE: pixel_sub_wxh:i_pix2 <- 32
	pushq	%rbp
	.cfi_def_cfa_offset 16
	pushq	%r15
	.cfi_def_cfa_offset 24
	pushq	%r14
	.cfi_def_cfa_offset 32
	pushq	%r13
	.cfi_def_cfa_offset 40
	pushq	%r12
	.cfi_def_cfa_offset 48
	pushq	%rbx
	.cfi_def_cfa_offset 56
	.cfi_offset %rbx, -56
	.cfi_offset %r12, -48
	.cfi_offset %r13, -40
	.cfi_offset %r14, -32
	.cfi_offset %r15, -24
	.cfi_offset %rbp, -16
.Ltmp1:
	#DEBUG_VALUE: y <- 0
	#DEBUG_VALUE: x <- 0
	.loc	0 106 34 prologue_end           # x264_src/common/dct.c:106:34
	movzbl	(%rsi), %ecx
	.loc	0 106 44 is_stmt 0              # x264_src/common/dct.c:106:44
	movzbl	(%rdx), %eax
	.loc	0 106 42                        # x264_src/common/dct.c:106:42
	subl	%eax, %ecx
.Ltmp2:
	#DEBUG_VALUE: sub4x4_dct:d <- [DW_OP_LLVM_fragment 0 16] undef
	#DEBUG_VALUE: x <- 1
	.loc	0 0 42                          # x264_src/common/dct.c:0:42
	movq	%rcx, -40(%rsp)                 # 8-byte Spill
	.loc	0 106 34                        # x264_src/common/dct.c:106:34
	movzbl	1(%rsi), %r14d
	.loc	0 106 44                        # x264_src/common/dct.c:106:44
	movzbl	1(%rdx), %eax
	.loc	0 106 42                        # x264_src/common/dct.c:106:42
	subl	%eax, %r14d
.Ltmp3:
	#DEBUG_VALUE: sub4x4_dct:d <- [DW_OP_LLVM_fragment 16 16] undef
	#DEBUG_VALUE: x <- 2
	.loc	0 106 34                        # x264_src/common/dct.c:106:34
	movzbl	2(%rsi), %r10d
	.loc	0 106 44                        # x264_src/common/dct.c:106:44
	movzbl	2(%rdx), %eax
	.loc	0 106 42                        # x264_src/common/dct.c:106:42
	subl	%eax, %r10d
.Ltmp4:
	#DEBUG_VALUE: sub4x4_dct:d <- [DW_OP_LLVM_fragment 32 16] undef
	#DEBUG_VALUE: x <- 3
	.loc	0 106 34                        # x264_src/common/dct.c:106:34
	movzbl	3(%rsi), %ebx
	.loc	0 106 44                        # x264_src/common/dct.c:106:44
	movzbl	3(%rdx), %eax
	.loc	0 106 42                        # x264_src/common/dct.c:106:42
	subl	%eax, %ebx
.Ltmp5:
	#DEBUG_VALUE: sub4x4_dct:d <- [DW_OP_LLVM_fragment 48 16] undef
	#DEBUG_VALUE: x <- 4
	#DEBUG_VALUE: pixel_sub_wxh:pix1 <- [DW_OP_plus_uconst 16, DW_OP_stack_value] $rsi
	#DEBUG_VALUE: y <- 1
	#DEBUG_VALUE: x <- 0
	#DEBUG_VALUE: pixel_sub_wxh:pix2 <- [DW_OP_plus_uconst 32, DW_OP_stack_value] $rdx
	.loc	0 106 34                        # x264_src/common/dct.c:106:34
	movzbl	16(%rsi), %ecx
	.loc	0 106 44                        # x264_src/common/dct.c:106:44
	movzbl	32(%rdx), %eax
	.loc	0 106 42                        # x264_src/common/dct.c:106:42
	subl	%eax, %ecx
.Ltmp6:
	#DEBUG_VALUE: sub4x4_dct:d <- [DW_OP_LLVM_fragment 64 16] undef
	#DEBUG_VALUE: x <- 1
	.loc	0 106 34                        # x264_src/common/dct.c:106:34
	movzbl	17(%rsi), %r11d
	.loc	0 106 44                        # x264_src/common/dct.c:106:44
	movzbl	33(%rdx), %eax
	.loc	0 106 42                        # x264_src/common/dct.c:106:42
	subl	%eax, %r11d
.Ltmp7:
	#DEBUG_VALUE: sub4x4_dct:d <- [DW_OP_LLVM_fragment 80 16] undef
	#DEBUG_VALUE: x <- 2
	.loc	0 106 34                        # x264_src/common/dct.c:106:34
	movzbl	18(%rsi), %ebp
	.loc	0 106 44                        # x264_src/common/dct.c:106:44
	movzbl	34(%rdx), %eax
	.loc	0 106 42                        # x264_src/common/dct.c:106:42
	subl	%eax, %ebp
.Ltmp8:
	#DEBUG_VALUE: sub4x4_dct:d <- [DW_OP_LLVM_fragment 96 16] undef
	#DEBUG_VALUE: x <- 3
	.loc	0 106 34                        # x264_src/common/dct.c:106:34
	movzbl	19(%rsi), %r8d
	.loc	0 106 44                        # x264_src/common/dct.c:106:44
	movzbl	35(%rdx), %r9d
	.loc	0 106 42                        # x264_src/common/dct.c:106:42
	subl	%r9d, %r8d
.Ltmp9:
	#DEBUG_VALUE: sub4x4_dct:d <- [DW_OP_LLVM_fragment 112 16] undef
	#DEBUG_VALUE: x <- 4
	#DEBUG_VALUE: pixel_sub_wxh:pix1 <- [DW_OP_plus_uconst 32, DW_OP_stack_value] $rsi
	#DEBUG_VALUE: y <- 2
	#DEBUG_VALUE: x <- 0
	#DEBUG_VALUE: pixel_sub_wxh:pix2 <- [DW_OP_plus_uconst 64, DW_OP_stack_value] $rdx
	.loc	0 106 34                        # x264_src/common/dct.c:106:34
	movzbl	32(%rsi), %eax
	.loc	0 106 44                        # x264_src/common/dct.c:106:44
	movzbl	64(%rdx), %r9d
	.loc	0 106 42                        # x264_src/common/dct.c:106:42
	subl	%r9d, %eax
.Ltmp10:
	#DEBUG_VALUE: sub4x4_dct:d <- [DW_OP_LLVM_fragment 128 16] undef
	#DEBUG_VALUE: x <- 1
	.loc	0 0 42                          # x264_src/common/dct.c:0:42
	movq	%rax, -32(%rsp)                 # 8-byte Spill
	.loc	0 106 34                        # x264_src/common/dct.c:106:34
	movzbl	33(%rsi), %r12d
	.loc	0 106 44                        # x264_src/common/dct.c:106:44
	movzbl	65(%rdx), %r9d
	.loc	0 106 42                        # x264_src/common/dct.c:106:42
	subl	%r9d, %r12d
.Ltmp11:
	#DEBUG_VALUE: sub4x4_dct:d <- [DW_OP_LLVM_fragment 144 16] undef
	#DEBUG_VALUE: x <- 2
	.loc	0 106 34                        # x264_src/common/dct.c:106:34
	movzbl	34(%rsi), %eax
	.loc	0 106 44                        # x264_src/common/dct.c:106:44
	movzbl	66(%rdx), %r9d
	.loc	0 106 42                        # x264_src/common/dct.c:106:42
	subl	%r9d, %eax
.Ltmp12:
	#DEBUG_VALUE: sub4x4_dct:d <- [DW_OP_LLVM_fragment 160 16] undef
	#DEBUG_VALUE: x <- 3
	.loc	0 0 42                          # x264_src/common/dct.c:0:42
	movq	%rax, -48(%rsp)                 # 8-byte Spill
	.loc	0 106 34                        # x264_src/common/dct.c:106:34
	movzbl	35(%rsi), %r9d
	.loc	0 106 44                        # x264_src/common/dct.c:106:44
	movzbl	67(%rdx), %r15d
	.loc	0 106 42                        # x264_src/common/dct.c:106:42
	subl	%r15d, %r9d
.Ltmp13:
	#DEBUG_VALUE: sub4x4_dct:d <- [DW_OP_LLVM_fragment 176 16] undef
	#DEBUG_VALUE: x <- 4
	#DEBUG_VALUE: pixel_sub_wxh:pix1 <- [DW_OP_plus_uconst 48, DW_OP_stack_value] $rsi
	#DEBUG_VALUE: y <- 3
	#DEBUG_VALUE: x <- 0
	#DEBUG_VALUE: pixel_sub_wxh:pix2 <- [DW_OP_plus_uconst 96, DW_OP_stack_value] $rdx
	.loc	0 106 34                        # x264_src/common/dct.c:106:34
	movzbl	48(%rsi), %eax
	.loc	0 106 44                        # x264_src/common/dct.c:106:44
	movzbl	96(%rdx), %r15d
	.loc	0 106 42                        # x264_src/common/dct.c:106:42
	subl	%r15d, %eax
.Ltmp14:
	#DEBUG_VALUE: sub4x4_dct:d <- [DW_OP_LLVM_fragment 192 16] undef
	#DEBUG_VALUE: x <- 1
	.loc	0 0 42                          # x264_src/common/dct.c:0:42
	movq	%rax, -8(%rsp)                  # 8-byte Spill
	.loc	0 106 34                        # x264_src/common/dct.c:106:34
	movzbl	49(%rsi), %r15d
	.loc	0 106 44                        # x264_src/common/dct.c:106:44
	movzbl	97(%rdx), %r13d
	.loc	0 106 42                        # x264_src/common/dct.c:106:42
	subl	%r13d, %r15d
.Ltmp15:
	#DEBUG_VALUE: sub4x4_dct:d <- [DW_OP_LLVM_fragment 208 16] undef
	#DEBUG_VALUE: x <- 2
	.loc	0 106 34                        # x264_src/common/dct.c:106:34
	movzbl	50(%rsi), %eax
	.loc	0 106 44                        # x264_src/common/dct.c:106:44
	movzbl	98(%rdx), %r13d
	.loc	0 106 42                        # x264_src/common/dct.c:106:42
	subl	%r13d, %eax
.Ltmp16:
	#DEBUG_VALUE: sub4x4_dct:d <- [DW_OP_LLVM_fragment 224 16] undef
	#DEBUG_VALUE: x <- 3
	.loc	0 0 42                          # x264_src/common/dct.c:0:42
	movq	%rax, -16(%rsp)                 # 8-byte Spill
	.loc	0 106 34                        # x264_src/common/dct.c:106:34
	movzbl	51(%rsi), %eax
	.loc	0 106 44                        # x264_src/common/dct.c:106:44
	movzbl	99(%rdx), %edx
.Ltmp17:
	#DEBUG_VALUE: sub4x4_dct:pix2 <- [DW_OP_LLVM_entry_value 1] $rdx
	.loc	0 106 42                        # x264_src/common/dct.c:106:42
	subl	%edx, %eax
.Ltmp18:
	#DEBUG_VALUE: sub4x4_dct:d <- [DW_OP_LLVM_fragment 240 16] undef
	#DEBUG_VALUE: x <- 4
	#DEBUG_VALUE: y <- 4
	#DEBUG_VALUE: i <- 0
	#DEBUG_VALUE: pixel_sub_wxh:pix2 <- [DW_OP_plus_uconst 96, DW_OP_plus_uconst 32, DW_OP_stack_value] undef
	#DEBUG_VALUE: pixel_sub_wxh:pix1 <- [DW_OP_plus_uconst 48, DW_OP_plus_uconst 16, DW_OP_stack_value] $rsi
	.loc	0 0 42                          # x264_src/common/dct.c:0:42
	movq	%rax, -24(%rsp)                 # 8-byte Spill
	movq	-40(%rsp), %rax                 # 8-byte Reload
.Ltmp19:
	.loc	0 121 28 is_stmt 1              # x264_src/common/dct.c:121:28
	leal	(%rbx,%rax), %edx
.Ltmp20:
	#DEBUG_VALUE: s03 <- $edx
	#DEBUG_VALUE: s12 <- undef
	.loc	0 123 28                        # x264_src/common/dct.c:123:28
	subl	%ebx, %eax
.Ltmp21:
	#DEBUG_VALUE: d03 <- $eax
	.loc	0 122 28                        # x264_src/common/dct.c:122:28
	leal	(%r10,%r14), %esi
.Ltmp22:
	#DEBUG_VALUE: s12 <- $esi
	#DEBUG_VALUE: sub4x4_dct:pix1 <- [DW_OP_LLVM_entry_value 1] $rsi
	.loc	0 124 28                        # x264_src/common/dct.c:124:28
	subl	%r10d, %r14d
.Ltmp23:
	#DEBUG_VALUE: d12 <- $r14d
	.loc	0 126 28                        # x264_src/common/dct.c:126:28
	leal	(%rsi,%rdx), %ebx
.Ltmp24:
	#DEBUG_VALUE: sub4x4_dct:tmp <- [DW_OP_LLVM_convert 32 7, DW_OP_LLVM_convert 16 7, DW_OP_stack_value, DW_OP_LLVM_fragment 0 16] $ebx
	#DEBUG_VALUE: sub4x4_dct:tmp <- [DW_OP_LLVM_convert 32 7, DW_OP_LLVM_convert 16 7, DW_OP_stack_value, DW_OP_LLVM_fragment 64 16] undef
	.loc	0 128 28                        # x264_src/common/dct.c:128:28
	subl	%esi, %edx
.Ltmp25:
	#DEBUG_VALUE: sub4x4_dct:tmp <- [DW_OP_LLVM_convert 32 7, DW_OP_LLVM_convert 16 7, DW_OP_stack_value, DW_OP_LLVM_fragment 128 16] $edx
	.loc	0 127 28                        # x264_src/common/dct.c:127:28
	leal	(%r14,%rax,2), %r10d
.Ltmp26:
	#DEBUG_VALUE: sub4x4_dct:tmp <- [DW_OP_LLVM_convert 32 7, DW_OP_LLVM_convert 16 7, DW_OP_stack_value, DW_OP_LLVM_fragment 64 16] $r10d
	.loc	0 129 31                        # x264_src/common/dct.c:129:31
	addl	%r14d, %r14d
.Ltmp27:
	.loc	0 129 28 is_stmt 0              # x264_src/common/dct.c:129:28
	subl	%r14d, %eax
.Ltmp28:
	#DEBUG_VALUE: sub4x4_dct:tmp <- [DW_OP_LLVM_convert 32 7, DW_OP_LLVM_convert 16 7, DW_OP_stack_value, DW_OP_LLVM_fragment 192 16] $eax
	#DEBUG_VALUE: i <- 1
	.loc	0 0 28                          # x264_src/common/dct.c:0:28
	movq	%rax, -40(%rsp)                 # 8-byte Spill
.Ltmp29:
	#DEBUG_VALUE: sub4x4_dct:tmp <- [DW_OP_constu 40, DW_OP_minus, DW_OP_deref_size 4, DW_OP_LLVM_convert 32 7, DW_OP_LLVM_convert 16 7, DW_OP_stack_value, DW_OP_LLVM_fragment 192 16] $rsp
	.loc	0 121 28 is_stmt 1              # x264_src/common/dct.c:121:28
	leal	(%r8,%rcx), %esi
.Ltmp30:
	#DEBUG_VALUE: s03 <- $esi
	#DEBUG_VALUE: s12 <- undef
	.loc	0 123 28                        # x264_src/common/dct.c:123:28
	subl	%r8d, %ecx
.Ltmp31:
	#DEBUG_VALUE: d03 <- $ecx
	.loc	0 122 28                        # x264_src/common/dct.c:122:28
	leal	(%r11,%rbp), %eax
.Ltmp32:
	#DEBUG_VALUE: s12 <- $eax
	.loc	0 124 28                        # x264_src/common/dct.c:124:28
	subl	%ebp, %r11d
.Ltmp33:
	#DEBUG_VALUE: d12 <- $r11d
	.loc	0 126 28                        # x264_src/common/dct.c:126:28
	leal	(%rax,%rsi), %ebp
.Ltmp34:
	#DEBUG_VALUE: sub4x4_dct:tmp <- [DW_OP_LLVM_convert 32 7, DW_OP_LLVM_convert 16 7, DW_OP_stack_value, DW_OP_LLVM_fragment 16 16] $ebp
	#DEBUG_VALUE: sub4x4_dct:tmp <- [DW_OP_LLVM_convert 32 7, DW_OP_LLVM_convert 16 7, DW_OP_stack_value, DW_OP_LLVM_fragment 80 16] undef
	.loc	0 128 28                        # x264_src/common/dct.c:128:28
	subl	%eax, %esi
.Ltmp35:
	#DEBUG_VALUE: sub4x4_dct:tmp <- [DW_OP_LLVM_convert 32 7, DW_OP_LLVM_convert 16 7, DW_OP_stack_value, DW_OP_LLVM_fragment 144 16] $esi
	.loc	0 127 28                        # x264_src/common/dct.c:127:28
	leal	(%r11,%rcx,2), %r14d
.Ltmp36:
	#DEBUG_VALUE: sub4x4_dct:tmp <- [DW_OP_LLVM_convert 32 7, DW_OP_LLVM_convert 16 7, DW_OP_stack_value, DW_OP_LLVM_fragment 80 16] $r14d
	.loc	0 129 31                        # x264_src/common/dct.c:129:31
	addl	%r11d, %r11d
.Ltmp37:
	.loc	0 129 28 is_stmt 0              # x264_src/common/dct.c:129:28
	subl	%r11d, %ecx
.Ltmp38:
	#DEBUG_VALUE: sub4x4_dct:tmp <- [DW_OP_LLVM_convert 32 7, DW_OP_LLVM_convert 16 7, DW_OP_stack_value, DW_OP_LLVM_fragment 208 16] $ecx
	#DEBUG_VALUE: i <- 2
	.loc	0 0 28                          # x264_src/common/dct.c:0:28
	movq	-32(%rsp), %r11                 # 8-byte Reload
	.loc	0 121 28 is_stmt 1              # x264_src/common/dct.c:121:28
	leal	(%r9,%r11), %r13d
.Ltmp39:
	#DEBUG_VALUE: s03 <- $r13d
	#DEBUG_VALUE: s12 <- undef
	.loc	0 123 28                        # x264_src/common/dct.c:123:28
	subl	%r9d, %r11d
.Ltmp40:
	#DEBUG_VALUE: d03 <- $r11d
	.loc	0 0 28 is_stmt 0                # x264_src/common/dct.c:0:28
	movq	-48(%rsp), %r8                  # 8-byte Reload
	.loc	0 122 28 is_stmt 1              # x264_src/common/dct.c:122:28
	leal	(%r8,%r12), %eax
.Ltmp41:
	#DEBUG_VALUE: s12 <- $eax
	.loc	0 124 28                        # x264_src/common/dct.c:124:28
	subl	%r8d, %r12d
.Ltmp42:
	#DEBUG_VALUE: d12 <- $r12d
	.loc	0 126 28                        # x264_src/common/dct.c:126:28
	leal	(%rax,%r13), %r9d
.Ltmp43:
	#DEBUG_VALUE: sub4x4_dct:tmp <- [DW_OP_LLVM_convert 32 7, DW_OP_LLVM_convert 16 7, DW_OP_stack_value, DW_OP_LLVM_fragment 32 16] $r9d
	#DEBUG_VALUE: sub4x4_dct:tmp <- [DW_OP_LLVM_convert 32 7, DW_OP_LLVM_convert 16 7, DW_OP_stack_value, DW_OP_LLVM_fragment 96 16] undef
	.loc	0 128 28                        # x264_src/common/dct.c:128:28
	subl	%eax, %r13d
.Ltmp44:
	#DEBUG_VALUE: sub4x4_dct:tmp <- [DW_OP_LLVM_convert 32 7, DW_OP_LLVM_convert 16 7, DW_OP_stack_value, DW_OP_LLVM_fragment 160 16] $r13d
	.loc	0 0 28 is_stmt 0                # x264_src/common/dct.c:0:28
	movq	%r13, -48(%rsp)                 # 8-byte Spill
.Ltmp45:
	#DEBUG_VALUE: sub4x4_dct:tmp <- [DW_OP_constu 48, DW_OP_minus, DW_OP_deref_size 4, DW_OP_LLVM_convert 32 7, DW_OP_LLVM_convert 16 7, DW_OP_stack_value, DW_OP_LLVM_fragment 160 16] $rsp
	.loc	0 127 28 is_stmt 1              # x264_src/common/dct.c:127:28
	leal	(%r12,%r11,2), %r8d
.Ltmp46:
	#DEBUG_VALUE: sub4x4_dct:tmp <- [DW_OP_LLVM_convert 32 7, DW_OP_LLVM_convert 16 7, DW_OP_stack_value, DW_OP_LLVM_fragment 96 16] $r8d
	.loc	0 129 31                        # x264_src/common/dct.c:129:31
	addl	%r12d, %r12d
.Ltmp47:
	.loc	0 129 28 is_stmt 0              # x264_src/common/dct.c:129:28
	subl	%r12d, %r11d
.Ltmp48:
	#DEBUG_VALUE: sub4x4_dct:tmp <- [DW_OP_LLVM_convert 32 7, DW_OP_LLVM_convert 16 7, DW_OP_stack_value, DW_OP_LLVM_fragment 224 16] $r11d
	#DEBUG_VALUE: i <- 3
	.loc	0 0 28                          # x264_src/common/dct.c:0:28
	movq	%r11, -32(%rsp)                 # 8-byte Spill
.Ltmp49:
	#DEBUG_VALUE: sub4x4_dct:tmp <- [DW_OP_constu 32, DW_OP_minus, DW_OP_deref_size 4, DW_OP_LLVM_convert 32 7, DW_OP_LLVM_convert 16 7, DW_OP_stack_value, DW_OP_LLVM_fragment 224 16] $rsp
	movq	-8(%rsp), %r11                  # 8-byte Reload
	movq	-24(%rsp), %rax                 # 8-byte Reload
.Ltmp50:
	.loc	0 121 28 is_stmt 1              # x264_src/common/dct.c:121:28
	leal	(%rax,%r11), %r12d
.Ltmp51:
	#DEBUG_VALUE: s03 <- $r12d
	#DEBUG_VALUE: s12 <- undef
	.loc	0 123 28                        # x264_src/common/dct.c:123:28
	subl	%eax, %r11d
.Ltmp52:
	#DEBUG_VALUE: d03 <- $r11d
	.loc	0 0 28 is_stmt 0                # x264_src/common/dct.c:0:28
	movq	-16(%rsp), %rax                 # 8-byte Reload
	.loc	0 122 28 is_stmt 1              # x264_src/common/dct.c:122:28
	leal	(%rax,%r15), %r13d
.Ltmp53:
	#DEBUG_VALUE: s12 <- $r13d
	.loc	0 124 28                        # x264_src/common/dct.c:124:28
	subl	%eax, %r15d
.Ltmp54:
	#DEBUG_VALUE: d12 <- $r15d
	.loc	0 126 28                        # x264_src/common/dct.c:126:28
	leal	(%r12,%r13), %eax
.Ltmp55:
	#DEBUG_VALUE: sub4x4_dct:tmp <- [DW_OP_LLVM_convert 32 7, DW_OP_LLVM_convert 16 7, DW_OP_stack_value, DW_OP_LLVM_fragment 48 16] $eax
	#DEBUG_VALUE: sub4x4_dct:tmp <- [DW_OP_LLVM_convert 32 7, DW_OP_LLVM_convert 16 7, DW_OP_stack_value, DW_OP_LLVM_fragment 112 16] undef
	.loc	0 128 28                        # x264_src/common/dct.c:128:28
	subl	%r13d, %r12d
.Ltmp56:
	#DEBUG_VALUE: sub4x4_dct:tmp <- [DW_OP_LLVM_convert 32 7, DW_OP_LLVM_convert 16 7, DW_OP_stack_value, DW_OP_LLVM_fragment 176 16] $r12d
	.loc	0 127 28                        # x264_src/common/dct.c:127:28
	leal	(%r15,%r11,2), %r13d
.Ltmp57:
	#DEBUG_VALUE: sub4x4_dct:tmp <- [DW_OP_LLVM_convert 32 7, DW_OP_LLVM_convert 16 7, DW_OP_stack_value, DW_OP_LLVM_fragment 112 16] $r13d
	.loc	0 129 31                        # x264_src/common/dct.c:129:31
	addl	%r15d, %r15d
.Ltmp58:
	.loc	0 129 28 is_stmt 0              # x264_src/common/dct.c:129:28
	subl	%r15d, %r11d
.Ltmp59:
	#DEBUG_VALUE: sub4x4_dct:tmp <- [DW_OP_LLVM_convert 32 7, DW_OP_LLVM_convert 16 7, DW_OP_stack_value, DW_OP_LLVM_fragment 240 16] $r11d
	#DEBUG_VALUE: i <- 4
	#DEBUG_VALUE: i <- 0
	.loc	0 134 30 is_stmt 1              # x264_src/common/dct.c:134:30
	leal	(%rax,%rbx), %r15d
.Ltmp60:
	#DEBUG_VALUE: s03 <- $r15d
	#DEBUG_VALUE: s12 <- undef
	.loc	0 136 30                        # x264_src/common/dct.c:136:30
	subl	%eax, %ebx
.Ltmp61:
	#DEBUG_VALUE: d03 <- $ebx
	.loc	0 135 30                        # x264_src/common/dct.c:135:30
	leal	(%r9,%rbp), %eax
.Ltmp62:
	#DEBUG_VALUE: s12 <- $eax
	.loc	0 137 30                        # x264_src/common/dct.c:137:30
	subl	%r9d, %ebp
.Ltmp63:
	#DEBUG_VALUE: d12 <- $ebp
	.loc	0 139 28                        # x264_src/common/dct.c:139:28
	leal	(%rax,%r15), %r9d
.Ltmp64:
	.loc	0 139 20 is_stmt 0              # x264_src/common/dct.c:139:20
	movw	%r9w, (%rdi)
	.loc	0 140 28 is_stmt 1              # x264_src/common/dct.c:140:28
	leal	(%rbp,%rbx,2), %r9d
	.loc	0 140 20 is_stmt 0              # x264_src/common/dct.c:140:20
	movw	%r9w, 2(%rdi)
	.loc	0 141 28 is_stmt 1              # x264_src/common/dct.c:141:28
	subl	%eax, %r15d
.Ltmp65:
	.loc	0 141 20 is_stmt 0              # x264_src/common/dct.c:141:20
	movw	%r15w, 4(%rdi)
	.loc	0 142 31 is_stmt 1              # x264_src/common/dct.c:142:31
	addl	%ebp, %ebp
.Ltmp66:
	.loc	0 142 28 is_stmt 0              # x264_src/common/dct.c:142:28
	subl	%ebp, %ebx
.Ltmp67:
	.loc	0 142 20                        # x264_src/common/dct.c:142:20
	movw	%bx, 6(%rdi)
.Ltmp68:
	#DEBUG_VALUE: i <- 1
	.loc	0 134 30 is_stmt 1              # x264_src/common/dct.c:134:30
	leal	(%r10,%r13), %eax
.Ltmp69:
	#DEBUG_VALUE: s03 <- $eax
	#DEBUG_VALUE: s12 <- undef
	.loc	0 136 30                        # x264_src/common/dct.c:136:30
	subl	%r13d, %r10d
.Ltmp70:
	#DEBUG_VALUE: d03 <- $r10d
	.loc	0 135 30                        # x264_src/common/dct.c:135:30
	leal	(%r8,%r14), %r9d
.Ltmp71:
	#DEBUG_VALUE: s12 <- $r9d
	.loc	0 137 30                        # x264_src/common/dct.c:137:30
	subl	%r8d, %r14d
.Ltmp72:
	#DEBUG_VALUE: d12 <- $r14d
	.loc	0 139 28                        # x264_src/common/dct.c:139:28
	leal	(%r9,%rax), %ebx
	.loc	0 139 20 is_stmt 0              # x264_src/common/dct.c:139:20
	movw	%bx, 8(%rdi)
	.loc	0 140 28 is_stmt 1              # x264_src/common/dct.c:140:28
	leal	(%r14,%r10,2), %ebx
	.loc	0 140 20 is_stmt 0              # x264_src/common/dct.c:140:20
	movw	%bx, 10(%rdi)
	.loc	0 141 28 is_stmt 1              # x264_src/common/dct.c:141:28
	subl	%r9d, %eax
.Ltmp73:
	.loc	0 141 20 is_stmt 0              # x264_src/common/dct.c:141:20
	movw	%ax, 12(%rdi)
	.loc	0 142 31 is_stmt 1              # x264_src/common/dct.c:142:31
	addl	%r14d, %r14d
.Ltmp74:
	.loc	0 142 28 is_stmt 0              # x264_src/common/dct.c:142:28
	subl	%r14d, %r10d
.Ltmp75:
	.loc	0 142 20                        # x264_src/common/dct.c:142:20
	movw	%r10w, 14(%rdi)
.Ltmp76:
	#DEBUG_VALUE: i <- 2
	.loc	0 134 30 is_stmt 1              # x264_src/common/dct.c:134:30
	leal	(%r12,%rdx), %eax
.Ltmp77:
	#DEBUG_VALUE: s03 <- $eax
	#DEBUG_VALUE: s12 <- undef
	.loc	0 136 30                        # x264_src/common/dct.c:136:30
	subl	%r12d, %edx
.Ltmp78:
	#DEBUG_VALUE: d03 <- $edx
	.loc	0 0 30 is_stmt 0                # x264_src/common/dct.c:0:30
	movq	-48(%rsp), %r10                 # 8-byte Reload
	.loc	0 135 30 is_stmt 1              # x264_src/common/dct.c:135:30
	leal	(%r10,%rsi), %r9d
.Ltmp79:
	#DEBUG_VALUE: s12 <- $r9d
	.loc	0 137 30                        # x264_src/common/dct.c:137:30
	subl	%r10d, %esi
.Ltmp80:
	#DEBUG_VALUE: d12 <- $esi
	.loc	0 139 28                        # x264_src/common/dct.c:139:28
	leal	(%r9,%rax), %r10d
	.loc	0 139 20 is_stmt 0              # x264_src/common/dct.c:139:20
	movw	%r10w, 16(%rdi)
	.loc	0 140 28 is_stmt 1              # x264_src/common/dct.c:140:28
	leal	(%rsi,%rdx,2), %r10d
	.loc	0 140 20 is_stmt 0              # x264_src/common/dct.c:140:20
	movw	%r10w, 18(%rdi)
	.loc	0 141 28 is_stmt 1              # x264_src/common/dct.c:141:28
	subl	%r9d, %eax
.Ltmp81:
	.loc	0 141 20 is_stmt 0              # x264_src/common/dct.c:141:20
	movw	%ax, 20(%rdi)
	.loc	0 142 31 is_stmt 1              # x264_src/common/dct.c:142:31
	addl	%esi, %esi
.Ltmp82:
	.loc	0 142 28 is_stmt 0              # x264_src/common/dct.c:142:28
	subl	%esi, %edx
.Ltmp83:
	.loc	0 142 20                        # x264_src/common/dct.c:142:20
	movw	%dx, 22(%rdi)
.Ltmp84:
	#DEBUG_VALUE: i <- 3
	.loc	0 0 20                          # x264_src/common/dct.c:0:20
	movq	-40(%rsp), %rdx                 # 8-byte Reload
	.loc	0 134 30 is_stmt 1              # x264_src/common/dct.c:134:30
	leal	(%r11,%rdx), %eax
.Ltmp85:
	#DEBUG_VALUE: s03 <- $eax
	#DEBUG_VALUE: s12 <- undef
	.loc	0 136 30                        # x264_src/common/dct.c:136:30
	subl	%r11d, %edx
.Ltmp86:
	#DEBUG_VALUE: d03 <- $edx
	.loc	0 0 30 is_stmt 0                # x264_src/common/dct.c:0:30
	movq	%rdx, %r8
.Ltmp87:
	movq	-32(%rsp), %rsi                 # 8-byte Reload
	.loc	0 135 30 is_stmt 1              # x264_src/common/dct.c:135:30
	leal	(%rsi,%rcx), %edx
.Ltmp88:
	#DEBUG_VALUE: s12 <- $edx
	#DEBUG_VALUE: d03 <- $r8d
	.loc	0 137 30                        # x264_src/common/dct.c:137:30
	subl	%esi, %ecx
.Ltmp89:
	#DEBUG_VALUE: d12 <- $ecx
	.loc	0 139 28                        # x264_src/common/dct.c:139:28
	leal	(%rdx,%rax), %esi
	.loc	0 139 20 is_stmt 0              # x264_src/common/dct.c:139:20
	movw	%si, 24(%rdi)
	.loc	0 140 28 is_stmt 1              # x264_src/common/dct.c:140:28
	leal	(%rcx,%r8,2), %esi
	.loc	0 140 20 is_stmt 0              # x264_src/common/dct.c:140:20
	movw	%si, 26(%rdi)
	.loc	0 141 28 is_stmt 1              # x264_src/common/dct.c:141:28
	subl	%edx, %eax
.Ltmp90:
	.loc	0 141 20 is_stmt 0              # x264_src/common/dct.c:141:20
	movw	%ax, 28(%rdi)
	.loc	0 142 31 is_stmt 1              # x264_src/common/dct.c:142:31
	addl	%ecx, %ecx
.Ltmp91:
	.loc	0 142 28 is_stmt 0              # x264_src/common/dct.c:142:28
	subl	%ecx, %r8d
.Ltmp92:
	.loc	0 142 20                        # x264_src/common/dct.c:142:20
	movw	%r8w, 30(%rdi)
.Ltmp93:
	#DEBUG_VALUE: i <- 4
	.loc	0 144 1 epilogue_begin is_stmt 1 # x264_src/common/dct.c:144:1
	popq	%rbx
	.cfi_def_cfa_offset 48
	popq	%r12
.Ltmp94:
	.cfi_def_cfa_offset 40
	popq	%r13
.Ltmp95:
	.cfi_def_cfa_offset 32
	popq	%r14
	.cfi_def_cfa_offset 24
	popq	%r15
	.cfi_def_cfa_offset 16
	popq	%rbp
	.cfi_def_cfa_offset 8
	retq
.Ltmp96:
.Lfunc_end1:
	.size	sub4x4_dct, .Lfunc_end1-sub4x4_dct
	.cfi_endproc
	.file	6 "/usr/include/x86_64-linux-gnu/bits" "stdint-intn.h" md5 0x55bcbdc3159515ebd91d351a70d505f4
                                        # -- End function
	.p2align	4, 0x90                         # -- Begin function add4x4_idct
	.type	add4x4_idct,@function
add4x4_idct:                            # @add4x4_idct
.Lfunc_begin2:
	.loc	0 194 0                         # x264_src/common/dct.c:194:0
	.cfi_startproc
# %bb.0:                                # %entry
	#DEBUG_VALUE: add4x4_idct:p_dst <- $rdi
	#DEBUG_VALUE: add4x4_idct:dct <- $rsi
	pushq	%rbp
	.cfi_def_cfa_offset 16
	pushq	%r15
	.cfi_def_cfa_offset 24
	pushq	%r14
	.cfi_def_cfa_offset 32
	pushq	%r13
	.cfi_def_cfa_offset 40
	pushq	%r12
	.cfi_def_cfa_offset 48
	pushq	%rbx
	.cfi_def_cfa_offset 56
	.cfi_offset %rbx, -56
	.cfi_offset %r12, -48
	.cfi_offset %r13, -40
	.cfi_offset %r14, -32
	.cfi_offset %r15, -24
	.cfi_offset %rbp, -16
.Ltmp97:
	#DEBUG_VALUE: i <- 0
	.loc	0 200 20 prologue_end           # x264_src/common/dct.c:200:20
	movzwl	(%rsi), %ebx
	.loc	0 200 38 is_stmt 0              # x264_src/common/dct.c:200:38
	movzwl	16(%rsi), %eax
	.loc	0 200 35                        # x264_src/common/dct.c:200:35
	leal	(%rax,%rbx), %edx
.Ltmp98:
	#DEBUG_VALUE: s02 <- $edx
	.loc	0 201 35 is_stmt 1              # x264_src/common/dct.c:201:35
	subl	%eax, %ebx
.Ltmp99:
	#DEBUG_VALUE: d02 <- $ebx
	.loc	0 202 20                        # x264_src/common/dct.c:202:20
	movswl	8(%rsi), %eax
	.loc	0 202 38 is_stmt 0              # x264_src/common/dct.c:202:38
	movswl	24(%rsi), %ecx
	.loc	0 202 48                        # x264_src/common/dct.c:202:48
	movl	%ecx, %r8d
	sarl	%r8d
	.loc	0 202 35                        # x264_src/common/dct.c:202:35
	addl	%eax, %r8d
.Ltmp100:
	#DEBUG_VALUE: s13 <- $r8d
	.loc	0 203 30 is_stmt 1              # x264_src/common/dct.c:203:30
	sarl	%eax
	.loc	0 203 35 is_stmt 0              # x264_src/common/dct.c:203:35
	subl	%ecx, %eax
.Ltmp101:
	#DEBUG_VALUE: d13 <- $eax
	.loc	0 205 26 is_stmt 1              # x264_src/common/dct.c:205:26
	leal	(%r8,%rdx), %r11d
.Ltmp102:
	#DEBUG_VALUE: add4x4_idct:tmp <- [DW_OP_LLVM_convert 32 7, DW_OP_LLVM_convert 16 7, DW_OP_stack_value, DW_OP_LLVM_fragment 0 16] $r11d
	.loc	0 206 26                        # x264_src/common/dct.c:206:26
	leal	(%rax,%rbx), %ecx
.Ltmp103:
	#DEBUG_VALUE: add4x4_idct:tmp <- [DW_OP_LLVM_convert 32 7, DW_OP_LLVM_convert 16 7, DW_OP_stack_value, DW_OP_LLVM_fragment 16 16] $ecx
	.loc	0 0 26 is_stmt 0                # x264_src/common/dct.c:0:26
	movl	%ecx, -64(%rsp)                 # 4-byte Spill
.Ltmp104:
	#DEBUG_VALUE: add4x4_idct:tmp <- [DW_OP_constu 64, DW_OP_minus, DW_OP_deref_size 4, DW_OP_LLVM_convert 32 7, DW_OP_LLVM_convert 16 7, DW_OP_stack_value, DW_OP_LLVM_fragment 16 16] $rsp
	.loc	0 207 26 is_stmt 1              # x264_src/common/dct.c:207:26
	subl	%eax, %ebx
.Ltmp105:
	#DEBUG_VALUE: add4x4_idct:tmp <- [DW_OP_LLVM_convert 32 7, DW_OP_LLVM_convert 16 7, DW_OP_stack_value, DW_OP_LLVM_fragment 32 16] $ebx
	.loc	0 208 26                        # x264_src/common/dct.c:208:26
	subl	%r8d, %edx
.Ltmp106:
	#DEBUG_VALUE: add4x4_idct:tmp <- [DW_OP_LLVM_convert 32 7, DW_OP_LLVM_convert 16 7, DW_OP_stack_value, DW_OP_LLVM_fragment 48 16] $edx
	#DEBUG_VALUE: i <- 1
	.loc	0 0 26 is_stmt 0                # x264_src/common/dct.c:0:26
	movq	%rdx, -16(%rsp)                 # 8-byte Spill
.Ltmp107:
	#DEBUG_VALUE: add4x4_idct:tmp <- [DW_OP_constu 16, DW_OP_minus, DW_OP_deref_size 4, DW_OP_LLVM_convert 32 7, DW_OP_LLVM_convert 16 7, DW_OP_stack_value, DW_OP_LLVM_fragment 48 16] $rsp
	.loc	0 200 20 is_stmt 1              # x264_src/common/dct.c:200:20
	movzwl	2(%rsi), %r12d
	.loc	0 200 38 is_stmt 0              # x264_src/common/dct.c:200:38
	movzwl	18(%rsi), %eax
.Ltmp108:
	.loc	0 200 35                        # x264_src/common/dct.c:200:35
	leal	(%rax,%r12), %edx
.Ltmp109:
	#DEBUG_VALUE: s02 <- $edx
	.loc	0 201 35 is_stmt 1              # x264_src/common/dct.c:201:35
	subl	%eax, %r12d
.Ltmp110:
	#DEBUG_VALUE: d02 <- $r12d
	.loc	0 202 20                        # x264_src/common/dct.c:202:20
	movswl	10(%rsi), %eax
	.loc	0 202 38 is_stmt 0              # x264_src/common/dct.c:202:38
	movswl	26(%rsi), %ecx
	.loc	0 202 48                        # x264_src/common/dct.c:202:48
	movl	%ecx, %r8d
.Ltmp111:
	sarl	%r8d
	.loc	0 202 35                        # x264_src/common/dct.c:202:35
	addl	%eax, %r8d
.Ltmp112:
	#DEBUG_VALUE: s13 <- $r8d
	.loc	0 203 30 is_stmt 1              # x264_src/common/dct.c:203:30
	sarl	%eax
	.loc	0 203 35 is_stmt 0              # x264_src/common/dct.c:203:35
	subl	%ecx, %eax
.Ltmp113:
	#DEBUG_VALUE: d13 <- $eax
	.loc	0 205 26 is_stmt 1              # x264_src/common/dct.c:205:26
	leal	(%r8,%rdx), %r9d
.Ltmp114:
	#DEBUG_VALUE: add4x4_idct:tmp <- [DW_OP_LLVM_convert 32 7, DW_OP_LLVM_convert 16 7, DW_OP_stack_value, DW_OP_LLVM_fragment 64 16] $r9d
	.loc	0 206 26                        # x264_src/common/dct.c:206:26
	leal	(%rax,%r12), %ecx
.Ltmp115:
	#DEBUG_VALUE: add4x4_idct:tmp <- [DW_OP_LLVM_convert 32 7, DW_OP_LLVM_convert 16 7, DW_OP_stack_value, DW_OP_LLVM_fragment 80 16] $ecx
	.loc	0 0 26 is_stmt 0                # x264_src/common/dct.c:0:26
	movl	%ecx, -72(%rsp)                 # 4-byte Spill
.Ltmp116:
	#DEBUG_VALUE: add4x4_idct:tmp <- [DW_OP_constu 72, DW_OP_minus, DW_OP_deref_size 4, DW_OP_LLVM_convert 32 7, DW_OP_LLVM_convert 16 7, DW_OP_stack_value, DW_OP_LLVM_fragment 80 16] $rsp
	.loc	0 207 26 is_stmt 1              # x264_src/common/dct.c:207:26
	subl	%eax, %r12d
.Ltmp117:
	#DEBUG_VALUE: add4x4_idct:tmp <- [DW_OP_LLVM_convert 32 7, DW_OP_LLVM_convert 16 7, DW_OP_stack_value, DW_OP_LLVM_fragment 96 16] $r12d
	.loc	0 208 26                        # x264_src/common/dct.c:208:26
	subl	%r8d, %edx
.Ltmp118:
	#DEBUG_VALUE: add4x4_idct:tmp <- [DW_OP_LLVM_convert 32 7, DW_OP_LLVM_convert 16 7, DW_OP_stack_value, DW_OP_LLVM_fragment 112 16] $edx
	#DEBUG_VALUE: i <- 2
	.loc	0 0 26 is_stmt 0                # x264_src/common/dct.c:0:26
	movq	%rdx, -24(%rsp)                 # 8-byte Spill
.Ltmp119:
	#DEBUG_VALUE: add4x4_idct:tmp <- [DW_OP_constu 24, DW_OP_minus, DW_OP_deref_size 4, DW_OP_LLVM_convert 32 7, DW_OP_LLVM_convert 16 7, DW_OP_stack_value, DW_OP_LLVM_fragment 112 16] $rsp
	.loc	0 200 20 is_stmt 1              # x264_src/common/dct.c:200:20
	movzwl	4(%rsi), %edx
	.loc	0 200 38 is_stmt 0              # x264_src/common/dct.c:200:38
	movzwl	20(%rsi), %ecx
	.loc	0 200 35                        # x264_src/common/dct.c:200:35
	leal	(%rcx,%rdx), %ebp
.Ltmp120:
	#DEBUG_VALUE: s02 <- $ebp
	.loc	0 201 35 is_stmt 1              # x264_src/common/dct.c:201:35
	subl	%ecx, %edx
.Ltmp121:
	#DEBUG_VALUE: d02 <- $edx
	.loc	0 202 20                        # x264_src/common/dct.c:202:20
	movswl	12(%rsi), %r8d
.Ltmp122:
	.loc	0 202 38 is_stmt 0              # x264_src/common/dct.c:202:38
	movswl	28(%rsi), %ecx
	.loc	0 202 48                        # x264_src/common/dct.c:202:48
	movl	%ecx, %r14d
	sarl	%r14d
	.loc	0 202 35                        # x264_src/common/dct.c:202:35
	addl	%r8d, %r14d
.Ltmp123:
	#DEBUG_VALUE: s13 <- $r14d
	.loc	0 203 30 is_stmt 1              # x264_src/common/dct.c:203:30
	sarl	%r8d
	.loc	0 203 35 is_stmt 0              # x264_src/common/dct.c:203:35
	subl	%ecx, %r8d
.Ltmp124:
	#DEBUG_VALUE: d13 <- $r8d
	#DEBUG_VALUE: add4x4_idct:tmp <- [DW_OP_LLVM_convert 32 7, DW_OP_LLVM_convert 16 7, DW_OP_stack_value, DW_OP_LLVM_fragment 128 16] undef
	.loc	0 206 26 is_stmt 1              # x264_src/common/dct.c:206:26
	leal	(%r8,%rdx), %eax
.Ltmp125:
	#DEBUG_VALUE: add4x4_idct:tmp <- [DW_OP_LLVM_convert 32 7, DW_OP_LLVM_convert 16 7, DW_OP_stack_value, DW_OP_LLVM_fragment 144 16] $eax
	.loc	0 0 26 is_stmt 0                # x264_src/common/dct.c:0:26
	movl	%eax, -56(%rsp)                 # 4-byte Spill
.Ltmp126:
	#DEBUG_VALUE: add4x4_idct:tmp <- [DW_OP_constu 56, DW_OP_minus, DW_OP_deref_size 4, DW_OP_LLVM_convert 32 7, DW_OP_LLVM_convert 16 7, DW_OP_stack_value, DW_OP_LLVM_fragment 144 16] $rsp
	.loc	0 207 26 is_stmt 1              # x264_src/common/dct.c:207:26
	subl	%r8d, %edx
.Ltmp127:
	#DEBUG_VALUE: add4x4_idct:tmp <- [DW_OP_LLVM_convert 32 7, DW_OP_LLVM_convert 16 7, DW_OP_stack_value, DW_OP_LLVM_fragment 160 16] $edx
	.loc	0 205 26                        # x264_src/common/dct.c:205:26
	leal	(%r14,%rbp), %r10d
.Ltmp128:
	#DEBUG_VALUE: add4x4_idct:tmp <- [DW_OP_LLVM_convert 32 7, DW_OP_LLVM_convert 16 7, DW_OP_stack_value, DW_OP_LLVM_fragment 128 16] $r10d
	.loc	0 208 26                        # x264_src/common/dct.c:208:26
	subl	%r14d, %ebp
.Ltmp129:
	#DEBUG_VALUE: add4x4_idct:tmp <- [DW_OP_LLVM_convert 32 7, DW_OP_LLVM_convert 16 7, DW_OP_stack_value, DW_OP_LLVM_fragment 176 16] $ebp
	#DEBUG_VALUE: i <- 3
	.loc	0 200 20                        # x264_src/common/dct.c:200:20
	movzwl	6(%rsi), %r14d
.Ltmp130:
	.loc	0 200 38 is_stmt 0              # x264_src/common/dct.c:200:38
	movzwl	22(%rsi), %r13d
	.loc	0 200 35                        # x264_src/common/dct.c:200:35
	leal	(%r14,%r13), %r8d
.Ltmp131:
	#DEBUG_VALUE: s02 <- $r8d
	.loc	0 201 35 is_stmt 1              # x264_src/common/dct.c:201:35
	subl	%r13d, %r14d
.Ltmp132:
	#DEBUG_VALUE: d02 <- $r14d
	.loc	0 202 20                        # x264_src/common/dct.c:202:20
	movswl	14(%rsi), %r13d
	.loc	0 202 38 is_stmt 0              # x264_src/common/dct.c:202:38
	movswl	30(%rsi), %esi
.Ltmp133:
	#DEBUG_VALUE: add4x4_idct:dct <- [DW_OP_LLVM_entry_value 1] $rsi
	.loc	0 202 48                        # x264_src/common/dct.c:202:48
	movl	%esi, %eax
	sarl	%eax
	.loc	0 202 35                        # x264_src/common/dct.c:202:35
	addl	%r13d, %eax
.Ltmp134:
	#DEBUG_VALUE: s13 <- $eax
	.loc	0 203 30 is_stmt 1              # x264_src/common/dct.c:203:30
	sarl	%r13d
	.loc	0 203 35 is_stmt 0              # x264_src/common/dct.c:203:35
	subl	%esi, %r13d
.Ltmp135:
	#DEBUG_VALUE: d13 <- $r13d
	#DEBUG_VALUE: add4x4_idct:tmp <- [DW_OP_LLVM_convert 32 7, DW_OP_LLVM_convert 16 7, DW_OP_stack_value, DW_OP_LLVM_fragment 192 16] undef
	.loc	0 206 26 is_stmt 1              # x264_src/common/dct.c:206:26
	leal	(%r14,%r13), %esi
.Ltmp136:
	#DEBUG_VALUE: add4x4_idct:tmp <- [DW_OP_LLVM_convert 32 7, DW_OP_LLVM_convert 16 7, DW_OP_stack_value, DW_OP_LLVM_fragment 208 16] $esi
	.loc	0 207 26                        # x264_src/common/dct.c:207:26
	subl	%r13d, %r14d
.Ltmp137:
	#DEBUG_VALUE: add4x4_idct:tmp <- [DW_OP_LLVM_convert 32 7, DW_OP_LLVM_convert 16 7, DW_OP_stack_value, DW_OP_LLVM_fragment 224 16] $r14d
	.loc	0 205 26                        # x264_src/common/dct.c:205:26
	leal	(%rax,%r8), %ecx
.Ltmp138:
	#DEBUG_VALUE: add4x4_idct:tmp <- [DW_OP_LLVM_convert 32 7, DW_OP_LLVM_convert 16 7, DW_OP_stack_value, DW_OP_LLVM_fragment 192 16] $ecx
	.loc	0 208 26                        # x264_src/common/dct.c:208:26
	subl	%eax, %r8d
.Ltmp139:
	#DEBUG_VALUE: add4x4_idct:tmp <- [DW_OP_LLVM_convert 32 7, DW_OP_LLVM_convert 16 7, DW_OP_stack_value, DW_OP_LLVM_fragment 240 16] $r8d
	#DEBUG_VALUE: i <- 4
	#DEBUG_VALUE: i <- 0
	.loc	0 215 20                        # x264_src/common/dct.c:215:20
	movswl	%r9w, %r9d
.Ltmp140:
	.loc	0 215 38 is_stmt 0              # x264_src/common/dct.c:215:38
	movswl	%cx, %eax
.Ltmp141:
	.loc	0 215 48                        # x264_src/common/dct.c:215:48
	movl	%eax, %ecx
.Ltmp142:
	sarl	%ecx
	.loc	0 215 35                        # x264_src/common/dct.c:215:35
	addl	%r9d, %ecx
.Ltmp143:
	#DEBUG_VALUE: s13 <- $ecx
	.loc	0 216 30 is_stmt 1              # x264_src/common/dct.c:216:30
	sarl	%r9d
	.loc	0 216 35 is_stmt 0              # x264_src/common/dct.c:216:35
	subl	%eax, %r9d
.Ltmp144:
	#DEBUG_VALUE: d13 <- $r9d
	#DEBUG_VALUE: s02 <- [DW_OP_LLVM_arg 0, DW_OP_LLVM_arg 1, DW_OP_plus, DW_OP_stack_value] undef, undef
	#DEBUG_VALUE: d02 <- undef
	.loc	0 0 35                          # x264_src/common/dct.c:0:35
	movq	%r9, -32(%rsp)                  # 8-byte Spill
.Ltmp145:
	#DEBUG_VALUE: d13 <- [DW_OP_constu 32, DW_OP_minus, DW_OP_deref] $rsp
	.loc	0 213 20 is_stmt 1              # x264_src/common/dct.c:213:20
	movswl	%r11w, %eax
	.loc	0 213 38 is_stmt 0              # x264_src/common/dct.c:213:38
	movswl	%r10w, %r9d
.Ltmp146:
	#DEBUG_VALUE: s02 <- [DW_OP_LLVM_arg 0, DW_OP_LLVM_arg 1, DW_OP_plus, DW_OP_stack_value] $r9d, $eax
	.loc	0 218 26 is_stmt 1              # x264_src/common/dct.c:218:26
	leal	(%r9,%rax), %r15d
	addl	$32, %r15d
                                        # kill: def $eax killed $eax killed $rax def $rax
	.loc	0 214 35                        # x264_src/common/dct.c:214:35
	subl	%r9d, %eax
.Ltmp147:
	#DEBUG_VALUE: d02 <- $eax
	.loc	0 0 35 is_stmt 0                # x264_src/common/dct.c:0:35
	movq	%rax, -40(%rsp)                 # 8-byte Spill
	.loc	0 218 32 is_stmt 1              # x264_src/common/dct.c:218:32
	leal	(%r15,%rcx), %r11d
.Ltmp148:
	#DEBUG_VALUE: add4x4_idct:d <- [DW_OP_constu 6, DW_OP_shr, DW_OP_LLVM_convert 32 7, DW_OP_LLVM_convert 16 7, DW_OP_stack_value, DW_OP_LLVM_fragment 0 16] $r11d
	#DEBUG_VALUE: add4x4_idct:d <- [DW_OP_constu 6, DW_OP_shr, DW_OP_LLVM_convert 32 7, DW_OP_LLVM_convert 16 7, DW_OP_stack_value, DW_OP_LLVM_fragment 64 16] undef
	#DEBUG_VALUE: add4x4_idct:d <- [DW_OP_constu 6, DW_OP_shr, DW_OP_LLVM_convert 32 7, DW_OP_LLVM_convert 16 7, DW_OP_stack_value, DW_OP_LLVM_fragment 128 16] undef
	.loc	0 221 32                        # x264_src/common/dct.c:221:32
	subl	%ecx, %r15d
.Ltmp149:
	#DEBUG_VALUE: add4x4_idct:d <- [DW_OP_constu 6, DW_OP_shr, DW_OP_LLVM_convert 32 7, DW_OP_LLVM_convert 16 7, DW_OP_stack_value, DW_OP_LLVM_fragment 192 16] $r15d
	#DEBUG_VALUE: i <- 1
	.loc	0 0 32 is_stmt 0                # x264_src/common/dct.c:0:32
	movq	%r15, -8(%rsp)                  # 8-byte Spill
.Ltmp150:
	#DEBUG_VALUE: add4x4_idct:d <- [DW_OP_constu 8, DW_OP_minus, DW_OP_deref_size 4, DW_OP_constu 6, DW_OP_shr, DW_OP_LLVM_convert 32 7, DW_OP_LLVM_convert 16 7, DW_OP_stack_value, DW_OP_LLVM_fragment 192 16] $rsp
	.loc	0 215 20 is_stmt 1              # x264_src/common/dct.c:215:20
	movswl	-72(%rsp), %r9d                 # 2-byte Folded Reload
	.loc	0 215 38 is_stmt 0              # x264_src/common/dct.c:215:38
	movswl	%si, %eax
.Ltmp151:
	.loc	0 215 48                        # x264_src/common/dct.c:215:48
	movl	%eax, %ecx
.Ltmp152:
	sarl	%ecx
	.loc	0 215 35                        # x264_src/common/dct.c:215:35
	addl	%r9d, %ecx
.Ltmp153:
	#DEBUG_VALUE: s13 <- $ecx
	.loc	0 216 30 is_stmt 1              # x264_src/common/dct.c:216:30
	sarl	%r9d
	.loc	0 216 35 is_stmt 0              # x264_src/common/dct.c:216:35
	subl	%eax, %r9d
.Ltmp154:
	#DEBUG_VALUE: d13 <- $r9d
	#DEBUG_VALUE: s02 <- [DW_OP_LLVM_arg 0, DW_OP_LLVM_arg 1, DW_OP_plus, DW_OP_stack_value] undef, undef
	#DEBUG_VALUE: d02 <- undef
	.loc	0 0 35                          # x264_src/common/dct.c:0:35
	movq	%r9, -48(%rsp)                  # 8-byte Spill
.Ltmp155:
	#DEBUG_VALUE: d13 <- [DW_OP_constu 48, DW_OP_minus, DW_OP_deref] $rsp
	.loc	0 213 20 is_stmt 1              # x264_src/common/dct.c:213:20
	movswl	-64(%rsp), %eax                 # 2-byte Folded Reload
	.loc	0 213 38 is_stmt 0              # x264_src/common/dct.c:213:38
	movswl	-56(%rsp), %esi                 # 2-byte Folded Reload
.Ltmp156:
	#DEBUG_VALUE: s02 <- [DW_OP_LLVM_arg 0, DW_OP_LLVM_arg 1, DW_OP_plus, DW_OP_stack_value] $esi, $eax
	.loc	0 218 26 is_stmt 1              # x264_src/common/dct.c:218:26
	leal	(%rsi,%rax), %r13d
.Ltmp157:
	addl	$32, %r13d
                                        # kill: def $eax killed $eax killed $rax def $rax
	.loc	0 214 35                        # x264_src/common/dct.c:214:35
	subl	%esi, %eax
.Ltmp158:
	#DEBUG_VALUE: d02 <- $eax
	.loc	0 0 35 is_stmt 0                # x264_src/common/dct.c:0:35
	movq	%rax, -72(%rsp)                 # 8-byte Spill
.Ltmp159:
	#DEBUG_VALUE: add4x4_idct:tmp <- [DW_OP_LLVM_convert 32 7, DW_OP_LLVM_convert 16 7, DW_OP_stack_value, DW_OP_LLVM_fragment 80 16] undef
	.loc	0 218 32 is_stmt 1              # x264_src/common/dct.c:218:32
	leal	(%rcx,%r13), %r10d
.Ltmp160:
	#DEBUG_VALUE: add4x4_idct:d <- [DW_OP_constu 6, DW_OP_shr, DW_OP_LLVM_convert 32 7, DW_OP_LLVM_convert 16 7, DW_OP_stack_value, DW_OP_LLVM_fragment 16 16] $r10d
	#DEBUG_VALUE: add4x4_idct:d <- [DW_OP_constu 6, DW_OP_shr, DW_OP_LLVM_convert 32 7, DW_OP_LLVM_convert 16 7, DW_OP_stack_value, DW_OP_LLVM_fragment 80 16] undef
	#DEBUG_VALUE: add4x4_idct:d <- [DW_OP_constu 6, DW_OP_shr, DW_OP_LLVM_convert 32 7, DW_OP_LLVM_convert 16 7, DW_OP_stack_value, DW_OP_LLVM_fragment 144 16] undef
	.loc	0 221 32                        # x264_src/common/dct.c:221:32
	subl	%ecx, %r13d
.Ltmp161:
	#DEBUG_VALUE: add4x4_idct:d <- [DW_OP_constu 6, DW_OP_shr, DW_OP_LLVM_convert 32 7, DW_OP_LLVM_convert 16 7, DW_OP_stack_value, DW_OP_LLVM_fragment 208 16] $r13d
	#DEBUG_VALUE: i <- 2
	.loc	0 0 32 is_stmt 0                # x264_src/common/dct.c:0:32
	movq	%r13, -56(%rsp)                 # 8-byte Spill
.Ltmp162:
	#DEBUG_VALUE: add4x4_idct:d <- [DW_OP_constu 56, DW_OP_minus, DW_OP_deref_size 4, DW_OP_constu 6, DW_OP_shr, DW_OP_LLVM_convert 32 7, DW_OP_LLVM_convert 16 7, DW_OP_stack_value, DW_OP_LLVM_fragment 208 16] $rsp
	#DEBUG_VALUE: add4x4_idct:tmp <- [DW_OP_LLVM_convert 32 7, DW_OP_LLVM_convert 16 7, DW_OP_stack_value, DW_OP_LLVM_fragment 144 16] undef
	.loc	0 215 20 is_stmt 1              # x264_src/common/dct.c:215:20
	movswl	%r12w, %r12d
.Ltmp163:
	.loc	0 215 38 is_stmt 0              # x264_src/common/dct.c:215:38
	movswl	%r14w, %eax
.Ltmp164:
	.loc	0 215 48                        # x264_src/common/dct.c:215:48
	movl	%eax, %ecx
.Ltmp165:
	sarl	%ecx
	.loc	0 215 35                        # x264_src/common/dct.c:215:35
	addl	%r12d, %ecx
.Ltmp166:
	#DEBUG_VALUE: s13 <- $ecx
	.loc	0 216 30 is_stmt 1              # x264_src/common/dct.c:216:30
	sarl	%r12d
	.loc	0 216 35 is_stmt 0              # x264_src/common/dct.c:216:35
	subl	%eax, %r12d
.Ltmp167:
	#DEBUG_VALUE: d13 <- $r12d
	#DEBUG_VALUE: s02 <- [DW_OP_LLVM_arg 0, DW_OP_LLVM_arg 1, DW_OP_plus, DW_OP_stack_value] undef, undef
	#DEBUG_VALUE: d02 <- undef
	.loc	0 213 20 is_stmt 1              # x264_src/common/dct.c:213:20
	movswl	%bx, %eax
	.loc	0 213 38 is_stmt 0              # x264_src/common/dct.c:213:38
	movswl	%dx, %edx
.Ltmp168:
	#DEBUG_VALUE: s02 <- [DW_OP_LLVM_arg 0, DW_OP_LLVM_arg 1, DW_OP_plus, DW_OP_stack_value] $edx, $eax
	.loc	0 218 26 is_stmt 1              # x264_src/common/dct.c:218:26
	leal	(%rdx,%rax), %r13d
	addl	$32, %r13d
                                        # kill: def $eax killed $eax killed $rax def $rax
	.loc	0 214 35                        # x264_src/common/dct.c:214:35
	subl	%edx, %eax
.Ltmp169:
	#DEBUG_VALUE: d02 <- $eax
	.loc	0 0 35 is_stmt 0                # x264_src/common/dct.c:0:35
	movq	%rax, -64(%rsp)                 # 8-byte Spill
.Ltmp170:
	#DEBUG_VALUE: add4x4_idct:tmp <- [DW_OP_LLVM_convert 32 7, DW_OP_LLVM_convert 16 7, DW_OP_stack_value, DW_OP_LLVM_fragment 16 16] undef
	.loc	0 218 32 is_stmt 1              # x264_src/common/dct.c:218:32
	leal	(%rcx,%r13), %esi
.Ltmp171:
	#DEBUG_VALUE: add4x4_idct:d <- [DW_OP_constu 6, DW_OP_shr, DW_OP_LLVM_convert 32 7, DW_OP_LLVM_convert 16 7, DW_OP_stack_value, DW_OP_LLVM_fragment 32 16] $esi
	#DEBUG_VALUE: add4x4_idct:d <- [DW_OP_constu 6, DW_OP_shr, DW_OP_LLVM_convert 32 7, DW_OP_LLVM_convert 16 7, DW_OP_stack_value, DW_OP_LLVM_fragment 96 16] undef
	#DEBUG_VALUE: add4x4_idct:d <- [DW_OP_constu 6, DW_OP_shr, DW_OP_LLVM_convert 32 7, DW_OP_LLVM_convert 16 7, DW_OP_stack_value, DW_OP_LLVM_fragment 160 16] undef
	.loc	0 221 32                        # x264_src/common/dct.c:221:32
	subl	%ecx, %r13d
.Ltmp172:
	#DEBUG_VALUE: add4x4_idct:d <- [DW_OP_constu 6, DW_OP_shr, DW_OP_LLVM_convert 32 7, DW_OP_LLVM_convert 16 7, DW_OP_stack_value, DW_OP_LLVM_fragment 224 16] $r13d
	#DEBUG_VALUE: i <- 3
	.loc	0 215 20                        # x264_src/common/dct.c:215:20
	movswl	-24(%rsp), %r14d                # 2-byte Folded Reload
.Ltmp173:
	.loc	0 215 38 is_stmt 0              # x264_src/common/dct.c:215:38
	movswl	%r8w, %eax
.Ltmp174:
	.loc	0 215 48                        # x264_src/common/dct.c:215:48
	movl	%eax, %ecx
.Ltmp175:
	sarl	%ecx
	.loc	0 215 35                        # x264_src/common/dct.c:215:35
	addl	%r14d, %ecx
.Ltmp176:
	#DEBUG_VALUE: s13 <- $ecx
	.loc	0 216 30 is_stmt 1              # x264_src/common/dct.c:216:30
	sarl	%r14d
	.loc	0 216 35 is_stmt 0              # x264_src/common/dct.c:216:35
	subl	%eax, %r14d
.Ltmp177:
	#DEBUG_VALUE: d13 <- $r14d
	#DEBUG_VALUE: s02 <- [DW_OP_LLVM_arg 0, DW_OP_LLVM_arg 1, DW_OP_plus, DW_OP_stack_value] undef, undef
	#DEBUG_VALUE: d02 <- undef
	.loc	0 213 20 is_stmt 1              # x264_src/common/dct.c:213:20
	movswl	-16(%rsp), %eax                 # 2-byte Folded Reload
	.loc	0 213 38 is_stmt 0              # x264_src/common/dct.c:213:38
	movswl	%bp, %r8d
.Ltmp178:
	#DEBUG_VALUE: s02 <- [DW_OP_LLVM_arg 0, DW_OP_LLVM_arg 1, DW_OP_plus, DW_OP_stack_value] $r8d, $eax
	.loc	0 218 26 is_stmt 1              # x264_src/common/dct.c:218:26
	leal	(%r8,%rax), %r15d
	addl	$32, %r15d
	.loc	0 214 35                        # x264_src/common/dct.c:214:35
	movl	%eax, %r9d
	subl	%r8d, %r9d
.Ltmp179:
	#DEBUG_VALUE: d02 <- $r9d
	.loc	0 218 32                        # x264_src/common/dct.c:218:32
	leal	(%r15,%rcx), %edx
.Ltmp180:
	#DEBUG_VALUE: add4x4_idct:d <- [DW_OP_constu 6, DW_OP_shr, DW_OP_LLVM_convert 32 7, DW_OP_LLVM_convert 16 7, DW_OP_stack_value, DW_OP_LLVM_fragment 48 16] $edx
	#DEBUG_VALUE: add4x4_idct:d <- [DW_OP_constu 6, DW_OP_shr, DW_OP_LLVM_convert 32 7, DW_OP_LLVM_convert 16 7, DW_OP_stack_value, DW_OP_LLVM_fragment 112 16] undef
	#DEBUG_VALUE: add4x4_idct:d <- [DW_OP_constu 6, DW_OP_shr, DW_OP_LLVM_convert 32 7, DW_OP_LLVM_convert 16 7, DW_OP_stack_value, DW_OP_LLVM_fragment 176 16] undef
	.loc	0 221 32                        # x264_src/common/dct.c:221:32
	subl	%ecx, %r15d
.Ltmp181:
	#DEBUG_VALUE: add4x4_idct:d <- [DW_OP_constu 6, DW_OP_shr, DW_OP_LLVM_convert 32 7, DW_OP_LLVM_convert 16 7, DW_OP_stack_value, DW_OP_LLVM_fragment 240 16] $r15d
	#DEBUG_VALUE: i <- 4
	#DEBUG_VALUE: y <- 0
	#DEBUG_VALUE: x <- 0
	.loc	0 228 52                        # x264_src/common/dct.c:228:52
	sarl	$6, %r11d
.Ltmp182:
	.loc	0 228 41 is_stmt 0              # x264_src/common/dct.c:228:41
	movzbl	(%rdi), %ecx
.Ltmp183:
	.loc	0 228 50                        # x264_src/common/dct.c:228:50
	addl	%ecx, %r11d
.Ltmp184:
	#DEBUG_VALUE: x264_clip_uint8:x <- $r11d
	.loc	0 0 50                          # x264_src/common/dct.c:0:50
	movq	-40(%rsp), %rax                 # 8-byte Reload
.Ltmp185:
	.loc	0 219 26 is_stmt 1              # x264_src/common/dct.c:219:26
	movl	%eax, %ecx
	addl	$32, %ecx
	.loc	0 220 32                        # x264_src/common/dct.c:220:32
	subl	-32(%rsp), %ecx                 # 4-byte Folded Reload
.Ltmp186:
	#DEBUG_VALUE: add4x4_idct:d <- [DW_OP_constu 6, DW_OP_shr, DW_OP_LLVM_convert 32 7, DW_OP_LLVM_convert 16 7, DW_OP_stack_value, DW_OP_LLVM_fragment 128 16] $ecx
	.loc	0 0 32 is_stmt 0                # x264_src/common/dct.c:0:32
	movq	-72(%rsp), %rax                 # 8-byte Reload
	.loc	0 219 26 is_stmt 1              # x264_src/common/dct.c:219:26
	movl	%eax, %ebp
.Ltmp187:
	addl	$32, %ebp
	.loc	0 220 32                        # x264_src/common/dct.c:220:32
	subl	-48(%rsp), %ebp                 # 4-byte Folded Reload
.Ltmp188:
	#DEBUG_VALUE: add4x4_idct:d <- [DW_OP_constu 6, DW_OP_shr, DW_OP_LLVM_convert 32 7, DW_OP_LLVM_convert 16 7, DW_OP_stack_value, DW_OP_LLVM_fragment 144 16] $ebp
	.loc	0 0 32 is_stmt 0                # x264_src/common/dct.c:0:32
	movq	-64(%rsp), %rax                 # 8-byte Reload
	.loc	0 219 26 is_stmt 1              # x264_src/common/dct.c:219:26
	movl	%eax, %ebx
.Ltmp189:
	addl	$32, %ebx
	.loc	0 220 32                        # x264_src/common/dct.c:220:32
	subl	%r12d, %ebx
.Ltmp190:
	#DEBUG_VALUE: add4x4_idct:d <- [DW_OP_constu 6, DW_OP_shr, DW_OP_LLVM_convert 32 7, DW_OP_LLVM_convert 16 7, DW_OP_stack_value, DW_OP_LLVM_fragment 160 16] $ebx
	.loc	0 219 26                        # x264_src/common/dct.c:219:26
	movl	%r9d, %r8d
	addl	$32, %r8d
	.loc	0 220 32                        # x264_src/common/dct.c:220:32
	subl	%r14d, %r8d
.Ltmp191:
	#DEBUG_VALUE: add4x4_idct:d <- [DW_OP_constu 6, DW_OP_shr, DW_OP_LLVM_convert 32 7, DW_OP_LLVM_convert 16 7, DW_OP_stack_value, DW_OP_LLVM_fragment 176 16] $r8d
	.loc	5 197 12                        # x264_src/common/common.h:197:12
	testl	%r11d, %r11d
	setg	%al
	negb	%al
	.loc	5 197 13 is_stmt 0              # x264_src/common/common.h:197:13
	cmpl	$256, %r11d                     # imm = 0x100
	.loc	5 197 12                        # x264_src/common/common.h:197:12
	movzbl	%al, %eax
	cmovbl	%r11d, %eax
.Ltmp192:
	.loc	0 228 22 is_stmt 1              # x264_src/common/dct.c:228:22
	movb	%al, (%rdi)
.Ltmp193:
	#DEBUG_VALUE: x <- 1
	.loc	0 228 52 is_stmt 0              # x264_src/common/dct.c:228:52
	sarl	$6, %r10d
.Ltmp194:
	.loc	0 228 41                        # x264_src/common/dct.c:228:41
	movzbl	1(%rdi), %eax
	.loc	0 228 50                        # x264_src/common/dct.c:228:50
	addl	%eax, %r10d
.Ltmp195:
	#DEBUG_VALUE: x264_clip_uint8:x <- $r10d
	.loc	5 197 12 is_stmt 1              # x264_src/common/common.h:197:12
	testl	%r10d, %r10d
	setg	%al
	negb	%al
	.loc	5 197 13 is_stmt 0              # x264_src/common/common.h:197:13
	cmpl	$256, %r10d                     # imm = 0x100
	.loc	5 197 12                        # x264_src/common/common.h:197:12
	movzbl	%al, %eax
	cmovbl	%r10d, %eax
.Ltmp196:
	.loc	0 228 22 is_stmt 1              # x264_src/common/dct.c:228:22
	movb	%al, 1(%rdi)
.Ltmp197:
	#DEBUG_VALUE: x <- 2
	.loc	0 228 52 is_stmt 0              # x264_src/common/dct.c:228:52
	sarl	$6, %esi
.Ltmp198:
	.loc	0 228 41                        # x264_src/common/dct.c:228:41
	movzbl	2(%rdi), %eax
	.loc	0 228 50                        # x264_src/common/dct.c:228:50
	addl	%eax, %esi
.Ltmp199:
	#DEBUG_VALUE: x264_clip_uint8:x <- $esi
	.loc	5 197 12 is_stmt 1              # x264_src/common/common.h:197:12
	testl	%esi, %esi
	setg	%al
	negb	%al
	.loc	5 197 13 is_stmt 0              # x264_src/common/common.h:197:13
	cmpl	$256, %esi                      # imm = 0x100
	.loc	5 197 12                        # x264_src/common/common.h:197:12
	movzbl	%al, %eax
	cmovbl	%esi, %eax
.Ltmp200:
	.loc	0 228 22 is_stmt 1              # x264_src/common/dct.c:228:22
	movb	%al, 2(%rdi)
.Ltmp201:
	#DEBUG_VALUE: x <- 3
	.loc	0 228 52 is_stmt 0              # x264_src/common/dct.c:228:52
	sarl	$6, %edx
.Ltmp202:
	.loc	0 228 41                        # x264_src/common/dct.c:228:41
	movzbl	3(%rdi), %eax
	.loc	0 228 50                        # x264_src/common/dct.c:228:50
	addl	%eax, %edx
.Ltmp203:
	#DEBUG_VALUE: x264_clip_uint8:x <- $edx
	.loc	5 197 12 is_stmt 1              # x264_src/common/common.h:197:12
	testl	%edx, %edx
	setg	%al
	negb	%al
	.loc	5 197 13 is_stmt 0              # x264_src/common/common.h:197:13
	cmpl	$256, %edx                      # imm = 0x100
	.loc	5 197 12                        # x264_src/common/common.h:197:12
	movzbl	%al, %eax
	cmovbl	%edx, %eax
	movq	-32(%rsp), %rdx                 # 8-byte Reload
.Ltmp204:
	.loc	5 0 12                          # x264_src/common/common.h:0:12
	movq	-40(%rsp), %rsi                 # 8-byte Reload
.Ltmp205:
	.loc	0 219 32 is_stmt 1              # x264_src/common/dct.c:219:32
	addl	%esi, %edx
	addl	$32, %edx
.Ltmp206:
	#DEBUG_VALUE: add4x4_idct:d <- [DW_OP_constu 6, DW_OP_shr, DW_OP_LLVM_convert 32 7, DW_OP_LLVM_convert 16 7, DW_OP_stack_value, DW_OP_LLVM_fragment 64 16] $edx
	.loc	0 228 22                        # x264_src/common/dct.c:228:22
	movb	%al, 3(%rdi)
.Ltmp207:
	#DEBUG_VALUE: x <- 4
	#DEBUG_VALUE: y <- 1
	#DEBUG_VALUE: x <- 0
	#DEBUG_VALUE: add4x4_idct:p_dst <- [DW_OP_plus_uconst 32, DW_OP_stack_value] $rdi
	.loc	0 228 52 is_stmt 0              # x264_src/common/dct.c:228:52
	sarl	$6, %edx
.Ltmp208:
	.loc	0 228 41                        # x264_src/common/dct.c:228:41
	movzbl	32(%rdi), %eax
	.loc	0 228 50                        # x264_src/common/dct.c:228:50
	addl	%eax, %edx
.Ltmp209:
	#DEBUG_VALUE: x264_clip_uint8:x <- $edx
	.loc	5 197 12 is_stmt 1              # x264_src/common/common.h:197:12
	testl	%edx, %edx
	setg	%al
	negb	%al
	.loc	5 197 13 is_stmt 0              # x264_src/common/common.h:197:13
	cmpl	$256, %edx                      # imm = 0x100
	.loc	5 197 12                        # x264_src/common/common.h:197:12
	movzbl	%al, %eax
	cmovbl	%edx, %eax
	movq	-72(%rsp), %rdx                 # 8-byte Reload
.Ltmp210:
	.loc	5 0 12                          # x264_src/common/common.h:0:12
	movq	-48(%rsp), %rsi                 # 8-byte Reload
.Ltmp211:
	.loc	0 219 32 is_stmt 1              # x264_src/common/dct.c:219:32
	addl	%esi, %edx
	addl	$32, %edx
.Ltmp212:
	#DEBUG_VALUE: add4x4_idct:d <- [DW_OP_constu 6, DW_OP_shr, DW_OP_LLVM_convert 32 7, DW_OP_LLVM_convert 16 7, DW_OP_stack_value, DW_OP_LLVM_fragment 80 16] $edx
	.loc	0 228 22                        # x264_src/common/dct.c:228:22
	movb	%al, 32(%rdi)
.Ltmp213:
	#DEBUG_VALUE: x <- 1
	.loc	0 228 41 is_stmt 0              # x264_src/common/dct.c:228:41
	movzbl	33(%rdi), %eax
	.loc	0 228 52                        # x264_src/common/dct.c:228:52
	sarl	$6, %edx
.Ltmp214:
	.loc	0 228 50                        # x264_src/common/dct.c:228:50
	addl	%eax, %edx
.Ltmp215:
	#DEBUG_VALUE: x264_clip_uint8:x <- $edx
	.loc	5 197 12 is_stmt 1              # x264_src/common/common.h:197:12
	testl	%edx, %edx
	setg	%al
	negb	%al
	.loc	5 197 13 is_stmt 0              # x264_src/common/common.h:197:13
	cmpl	$256, %edx                      # imm = 0x100
	.loc	5 197 12                        # x264_src/common/common.h:197:12
	movzbl	%al, %eax
	cmovbl	%edx, %eax
	movq	-64(%rsp), %rdx                 # 8-byte Reload
.Ltmp216:
	.loc	0 219 32 is_stmt 1              # x264_src/common/dct.c:219:32
	addl	%r12d, %edx
	addl	$32, %edx
.Ltmp217:
	#DEBUG_VALUE: add4x4_idct:d <- [DW_OP_constu 6, DW_OP_shr, DW_OP_LLVM_convert 32 7, DW_OP_LLVM_convert 16 7, DW_OP_stack_value, DW_OP_LLVM_fragment 96 16] $edx
	.loc	0 228 22                        # x264_src/common/dct.c:228:22
	movb	%al, 33(%rdi)
.Ltmp218:
	#DEBUG_VALUE: x <- 2
	.loc	0 228 41 is_stmt 0              # x264_src/common/dct.c:228:41
	movzbl	34(%rdi), %eax
	.loc	0 228 52                        # x264_src/common/dct.c:228:52
	sarl	$6, %edx
.Ltmp219:
	.loc	0 228 50                        # x264_src/common/dct.c:228:50
	addl	%eax, %edx
.Ltmp220:
	#DEBUG_VALUE: x264_clip_uint8:x <- $edx
	.loc	5 197 12 is_stmt 1              # x264_src/common/common.h:197:12
	testl	%edx, %edx
	setg	%al
	negb	%al
	.loc	5 197 13 is_stmt 0              # x264_src/common/common.h:197:13
	cmpl	$256, %edx                      # imm = 0x100
	.loc	5 197 12                        # x264_src/common/common.h:197:12
	movzbl	%al, %eax
	cmovbl	%edx, %eax
.Ltmp221:
	.loc	0 219 32 is_stmt 1              # x264_src/common/dct.c:219:32
	leal	(%r9,%r14), %edx
.Ltmp222:
	addl	$32, %edx
.Ltmp223:
	#DEBUG_VALUE: add4x4_idct:d <- [DW_OP_constu 6, DW_OP_shr, DW_OP_LLVM_convert 32 7, DW_OP_LLVM_convert 16 7, DW_OP_stack_value, DW_OP_LLVM_fragment 112 16] $edx
	.loc	0 228 22                        # x264_src/common/dct.c:228:22
	movb	%al, 34(%rdi)
.Ltmp224:
	#DEBUG_VALUE: x <- 3
	.loc	0 228 41 is_stmt 0              # x264_src/common/dct.c:228:41
	movzbl	35(%rdi), %eax
	.loc	0 228 52                        # x264_src/common/dct.c:228:52
	sarl	$6, %edx
.Ltmp225:
	.loc	0 228 50                        # x264_src/common/dct.c:228:50
	addl	%eax, %edx
.Ltmp226:
	#DEBUG_VALUE: x264_clip_uint8:x <- $edx
	.loc	5 197 12 is_stmt 1              # x264_src/common/common.h:197:12
	testl	%edx, %edx
	setg	%al
	negb	%al
	.loc	5 197 13 is_stmt 0              # x264_src/common/common.h:197:13
	cmpl	$256, %edx                      # imm = 0x100
	.loc	5 197 12                        # x264_src/common/common.h:197:12
	movzbl	%al, %eax
	cmovbl	%edx, %eax
.Ltmp227:
	.loc	0 228 22 is_stmt 1              # x264_src/common/dct.c:228:22
	movb	%al, 35(%rdi)
.Ltmp228:
	#DEBUG_VALUE: x <- 4
	#DEBUG_VALUE: y <- 2
	#DEBUG_VALUE: x <- 0
	#DEBUG_VALUE: add4x4_idct:p_dst <- [DW_OP_plus_uconst 64, DW_OP_stack_value] $rdi
	.loc	0 228 41 is_stmt 0              # x264_src/common/dct.c:228:41
	movzbl	64(%rdi), %eax
	.loc	0 228 52                        # x264_src/common/dct.c:228:52
	sarl	$6, %ecx
.Ltmp229:
	.loc	0 228 50                        # x264_src/common/dct.c:228:50
	addl	%eax, %ecx
.Ltmp230:
	#DEBUG_VALUE: x264_clip_uint8:x <- $ecx
	.loc	5 197 12 is_stmt 1              # x264_src/common/common.h:197:12
	testl	%ecx, %ecx
	setg	%al
	negb	%al
	.loc	5 197 13 is_stmt 0              # x264_src/common/common.h:197:13
	cmpl	$256, %ecx                      # imm = 0x100
	.loc	5 197 12                        # x264_src/common/common.h:197:12
	movzbl	%al, %eax
	cmovbl	%ecx, %eax
.Ltmp231:
	.loc	0 228 22 is_stmt 1              # x264_src/common/dct.c:228:22
	movb	%al, 64(%rdi)
.Ltmp232:
	#DEBUG_VALUE: x <- 1
	.loc	0 228 41 is_stmt 0              # x264_src/common/dct.c:228:41
	movzbl	65(%rdi), %eax
	.loc	0 228 52                        # x264_src/common/dct.c:228:52
	sarl	$6, %ebp
.Ltmp233:
	.loc	0 228 50                        # x264_src/common/dct.c:228:50
	addl	%eax, %ebp
.Ltmp234:
	#DEBUG_VALUE: x264_clip_uint8:x <- $ebp
	.loc	5 197 12 is_stmt 1              # x264_src/common/common.h:197:12
	testl	%ebp, %ebp
	setg	%al
	negb	%al
	.loc	5 197 13 is_stmt 0              # x264_src/common/common.h:197:13
	cmpl	$256, %ebp                      # imm = 0x100
	.loc	5 197 12                        # x264_src/common/common.h:197:12
	movzbl	%al, %eax
	cmovbl	%ebp, %eax
.Ltmp235:
	.loc	0 228 22 is_stmt 1              # x264_src/common/dct.c:228:22
	movb	%al, 65(%rdi)
.Ltmp236:
	#DEBUG_VALUE: x <- 2
	.loc	0 228 41 is_stmt 0              # x264_src/common/dct.c:228:41
	movzbl	66(%rdi), %eax
	.loc	0 228 52                        # x264_src/common/dct.c:228:52
	sarl	$6, %ebx
.Ltmp237:
	.loc	0 228 50                        # x264_src/common/dct.c:228:50
	addl	%eax, %ebx
.Ltmp238:
	#DEBUG_VALUE: x264_clip_uint8:x <- $ebx
	.loc	5 197 12 is_stmt 1              # x264_src/common/common.h:197:12
	testl	%ebx, %ebx
	setg	%al
	negb	%al
	.loc	5 197 13 is_stmt 0              # x264_src/common/common.h:197:13
	cmpl	$256, %ebx                      # imm = 0x100
	.loc	5 197 12                        # x264_src/common/common.h:197:12
	movzbl	%al, %eax
	cmovbl	%ebx, %eax
.Ltmp239:
	.loc	0 228 22 is_stmt 1              # x264_src/common/dct.c:228:22
	movb	%al, 66(%rdi)
.Ltmp240:
	#DEBUG_VALUE: x <- 3
	.loc	0 228 41 is_stmt 0              # x264_src/common/dct.c:228:41
	movzbl	67(%rdi), %eax
	.loc	0 228 52                        # x264_src/common/dct.c:228:52
	sarl	$6, %r8d
.Ltmp241:
	.loc	0 228 50                        # x264_src/common/dct.c:228:50
	addl	%eax, %r8d
.Ltmp242:
	#DEBUG_VALUE: x264_clip_uint8:x <- $r8d
	.loc	5 197 12 is_stmt 1              # x264_src/common/common.h:197:12
	testl	%r8d, %r8d
	setg	%al
	negb	%al
	.loc	5 197 13 is_stmt 0              # x264_src/common/common.h:197:13
	cmpl	$256, %r8d                      # imm = 0x100
	.loc	5 197 12                        # x264_src/common/common.h:197:12
	movzbl	%al, %eax
	cmovbl	%r8d, %eax
.Ltmp243:
	.loc	0 228 22 is_stmt 1              # x264_src/common/dct.c:228:22
	movb	%al, 67(%rdi)
.Ltmp244:
	#DEBUG_VALUE: x <- 4
	#DEBUG_VALUE: y <- 3
	#DEBUG_VALUE: x <- 0
	#DEBUG_VALUE: add4x4_idct:p_dst <- [DW_OP_plus_uconst 96, DW_OP_stack_value] $rdi
	.loc	0 228 41 is_stmt 0              # x264_src/common/dct.c:228:41
	movzbl	96(%rdi), %eax
	movq	-8(%rsp), %rcx                  # 8-byte Reload
	.loc	0 228 52                        # x264_src/common/dct.c:228:52
	sarl	$6, %ecx
	.loc	0 228 50                        # x264_src/common/dct.c:228:50
	addl	%eax, %ecx
.Ltmp245:
	#DEBUG_VALUE: x264_clip_uint8:x <- $ecx
	.loc	5 197 12 is_stmt 1              # x264_src/common/common.h:197:12
	testl	%ecx, %ecx
	setg	%al
	negb	%al
	.loc	5 197 13 is_stmt 0              # x264_src/common/common.h:197:13
	cmpl	$256, %ecx                      # imm = 0x100
	.loc	5 197 12                        # x264_src/common/common.h:197:12
	movzbl	%al, %eax
	cmovbl	%ecx, %eax
.Ltmp246:
	.loc	0 228 22 is_stmt 1              # x264_src/common/dct.c:228:22
	movb	%al, 96(%rdi)
.Ltmp247:
	#DEBUG_VALUE: x <- 1
	.loc	0 228 41 is_stmt 0              # x264_src/common/dct.c:228:41
	movzbl	97(%rdi), %eax
	movq	-56(%rsp), %rcx                 # 8-byte Reload
.Ltmp248:
	.loc	0 228 52                        # x264_src/common/dct.c:228:52
	sarl	$6, %ecx
	.loc	0 228 50                        # x264_src/common/dct.c:228:50
	addl	%eax, %ecx
.Ltmp249:
	#DEBUG_VALUE: x264_clip_uint8:x <- $ecx
	.loc	5 197 12 is_stmt 1              # x264_src/common/common.h:197:12
	testl	%ecx, %ecx
	setg	%al
	negb	%al
	.loc	5 197 13 is_stmt 0              # x264_src/common/common.h:197:13
	cmpl	$256, %ecx                      # imm = 0x100
	.loc	5 197 12                        # x264_src/common/common.h:197:12
	movzbl	%al, %eax
	cmovbl	%ecx, %eax
.Ltmp250:
	.loc	0 228 22 is_stmt 1              # x264_src/common/dct.c:228:22
	movb	%al, 97(%rdi)
.Ltmp251:
	#DEBUG_VALUE: x <- 2
	.loc	0 228 41 is_stmt 0              # x264_src/common/dct.c:228:41
	movzbl	98(%rdi), %eax
	.loc	0 228 52                        # x264_src/common/dct.c:228:52
	sarl	$6, %r13d
.Ltmp252:
	.loc	0 228 50                        # x264_src/common/dct.c:228:50
	addl	%eax, %r13d
.Ltmp253:
	#DEBUG_VALUE: x264_clip_uint8:x <- $r13d
	.loc	5 197 12 is_stmt 1              # x264_src/common/common.h:197:12
	testl	%r13d, %r13d
	setg	%al
	negb	%al
	.loc	5 197 13 is_stmt 0              # x264_src/common/common.h:197:13
	cmpl	$256, %r13d                     # imm = 0x100
	.loc	5 197 12                        # x264_src/common/common.h:197:12
	movzbl	%al, %eax
	cmovbl	%r13d, %eax
.Ltmp254:
	.loc	0 228 22 is_stmt 1              # x264_src/common/dct.c:228:22
	movb	%al, 98(%rdi)
.Ltmp255:
	#DEBUG_VALUE: x <- 3
	.loc	0 228 41 is_stmt 0              # x264_src/common/dct.c:228:41
	movzbl	99(%rdi), %eax
	.loc	0 228 52                        # x264_src/common/dct.c:228:52
	sarl	$6, %r15d
.Ltmp256:
	.loc	0 228 50                        # x264_src/common/dct.c:228:50
	addl	%eax, %r15d
.Ltmp257:
	#DEBUG_VALUE: x264_clip_uint8:x <- $r15d
	.loc	5 197 12 is_stmt 1              # x264_src/common/common.h:197:12
	testl	%r15d, %r15d
	setg	%al
	negb	%al
	.loc	5 197 13 is_stmt 0              # x264_src/common/common.h:197:13
	cmpl	$256, %r15d                     # imm = 0x100
	.loc	5 197 12                        # x264_src/common/common.h:197:12
	movzbl	%al, %eax
	cmovbl	%r15d, %eax
.Ltmp258:
	.loc	0 228 22 is_stmt 1              # x264_src/common/dct.c:228:22
	movb	%al, 99(%rdi)
.Ltmp259:
	#DEBUG_VALUE: x <- 4
	#DEBUG_VALUE: y <- 4
	#DEBUG_VALUE: add4x4_idct:p_dst <- [DW_OP_plus_uconst 96, DW_OP_plus_uconst 32, DW_OP_stack_value] $rdi
	.loc	0 231 1 epilogue_begin          # x264_src/common/dct.c:231:1
	popq	%rbx
	.cfi_def_cfa_offset 48
	popq	%r12
	.cfi_def_cfa_offset 40
	popq	%r13
	.cfi_def_cfa_offset 32
	popq	%r14
.Ltmp260:
	.cfi_def_cfa_offset 24
	popq	%r15
.Ltmp261:
	.cfi_def_cfa_offset 16
	popq	%rbp
	.cfi_def_cfa_offset 8
	retq
.Ltmp262:
.Lfunc_end2:
	.size	add4x4_idct, .Lfunc_end2-add4x4_idct
	.cfi_endproc
                                        # -- End function
	.p2align	4, 0x90                         # -- Begin function sub8x8_dct
	.type	sub8x8_dct,@function
sub8x8_dct:                             # @sub8x8_dct
.Lfunc_begin3:
	.loc	0 147 0                         # x264_src/common/dct.c:147:0
	.cfi_startproc
# %bb.0:                                # %entry
	#DEBUG_VALUE: sub8x8_dct:dct <- $rdi
	#DEBUG_VALUE: sub8x8_dct:pix1 <- $rsi
	#DEBUG_VALUE: sub8x8_dct:pix2 <- $rdx
	pushq	%r15
	.cfi_def_cfa_offset 16
	pushq	%r14
	.cfi_def_cfa_offset 24
	pushq	%rbx
	.cfi_def_cfa_offset 32
	.cfi_offset %rbx, -32
	.cfi_offset %r14, -24
	.cfi_offset %r15, -16
	movq	%rdx, %rbx
	movq	%rsi, %r14
	movq	%rdi, %r15
.Ltmp263:
	.loc	0 148 5 prologue_end            # x264_src/common/dct.c:148:5
	callq	sub4x4_dct
.Ltmp264:
	#DEBUG_VALUE: sub8x8_dct:pix2 <- $rbx
	#DEBUG_VALUE: sub8x8_dct:pix1 <- $r14
	#DEBUG_VALUE: sub8x8_dct:dct <- $r15
	.loc	0 149 17                        # x264_src/common/dct.c:149:17
	leaq	32(%r15), %rdi
	.loc	0 149 26 is_stmt 0              # x264_src/common/dct.c:149:26
	leaq	4(%r14), %rsi
	.loc	0 149 36                        # x264_src/common/dct.c:149:36
	leaq	4(%rbx), %rdx
	.loc	0 149 5                         # x264_src/common/dct.c:149:5
	callq	sub4x4_dct
.Ltmp265:
	.loc	0 150 17 is_stmt 1              # x264_src/common/dct.c:150:17
	leaq	64(%r15), %rdi
	.loc	0 150 26 is_stmt 0              # x264_src/common/dct.c:150:26
	leaq	64(%r14), %rsi
	.loc	0 150 50                        # x264_src/common/dct.c:150:50
	leaq	128(%rbx), %rdx
	.loc	0 150 5                         # x264_src/common/dct.c:150:5
	callq	sub4x4_dct
.Ltmp266:
	.loc	0 151 17 is_stmt 1              # x264_src/common/dct.c:151:17
	addq	$96, %r15
.Ltmp267:
	#DEBUG_VALUE: sub8x8_dct:dct <- [DW_OP_LLVM_entry_value 1] $rdi
	.loc	0 151 26 is_stmt 0              # x264_src/common/dct.c:151:26
	addq	$68, %r14
.Ltmp268:
	#DEBUG_VALUE: sub8x8_dct:pix1 <- [DW_OP_LLVM_entry_value 1] $rsi
	.loc	0 151 50                        # x264_src/common/dct.c:151:50
	addq	$132, %rbx
.Ltmp269:
	#DEBUG_VALUE: sub8x8_dct:pix2 <- [DW_OP_LLVM_entry_value 1] $rdx
	.loc	0 151 5                         # x264_src/common/dct.c:151:5
	movq	%r15, %rdi
	movq	%r14, %rsi
	movq	%rbx, %rdx
	.loc	0 151 5 epilogue_begin          # x264_src/common/dct.c:151:5
	popq	%rbx
	.cfi_def_cfa_offset 24
	popq	%r14
	.cfi_def_cfa_offset 16
	popq	%r15
	.cfi_def_cfa_offset 8
.Ltmp270:
	jmp	sub4x4_dct                      # TAILCALL
.Ltmp271:
.Lfunc_end3:
	.size	sub8x8_dct, .Lfunc_end3-sub8x8_dct
	.cfi_endproc
                                        # -- End function
	.p2align	4, 0x90                         # -- Begin function sub8x8_dct_dc
	.type	sub8x8_dct_dc,@function
sub8x8_dct_dc:                          # @sub8x8_dct_dc
.Lfunc_begin4:
	.loc	0 176 0 is_stmt 1               # x264_src/common/dct.c:176:0
	.cfi_startproc
# %bb.0:                                # %entry
	#DEBUG_VALUE: sub8x8_dct_dc:dct <- $rdi
	#DEBUG_VALUE: sub8x8_dct_dc:pix1 <- $rsi
	#DEBUG_VALUE: sub8x8_dct_dc:pix2 <- $rdx
	#DEBUG_VALUE: sub4x4_dct_dc:pix1 <- $rsi
	#DEBUG_VALUE: sub4x4_dct_dc:pix2 <- $rdx
	#DEBUG_VALUE: pixel_sub_wxh:pix1 <- $rsi
	#DEBUG_VALUE: pixel_sub_wxh:pix2 <- $rdx
	#DEBUG_VALUE: pixel_sub_wxh:i_size <- 4
	#DEBUG_VALUE: pixel_sub_wxh:i_pix1 <- 16
	#DEBUG_VALUE: pixel_sub_wxh:i_pix2 <- 32
	pushq	%rbp
	.cfi_def_cfa_offset 16
	pushq	%rbx
	.cfi_def_cfa_offset 24
	.cfi_offset %rbx, -24
	.cfi_offset %rbp, -16
.Ltmp272:
	#DEBUG_VALUE: sub4x4_dct_dc:sum <- 0
	#DEBUG_VALUE: y <- 0
	#DEBUG_VALUE: x <- 0
	.loc	0 106 34 prologue_end           # x264_src/common/dct.c:106:34
	movzbl	(%rsi), %eax
	.loc	0 106 44 is_stmt 0              # x264_src/common/dct.c:106:44
	movzbl	(%rdx), %ecx
.Ltmp273:
	#DEBUG_VALUE: sub4x4_dct_dc:d <- [DW_OP_LLVM_fragment 0 16] undef
	#DEBUG_VALUE: x <- 1
	.loc	0 106 34                        # x264_src/common/dct.c:106:34
	movzbl	1(%rsi), %r8d
	.loc	0 106 42                        # x264_src/common/dct.c:106:42
	addl	%eax, %r8d
	.loc	0 106 44                        # x264_src/common/dct.c:106:44
	movzbl	1(%rdx), %eax
.Ltmp274:
	#DEBUG_VALUE: sub4x4_dct_dc:d <- [DW_OP_LLVM_fragment 16 16] undef
	#DEBUG_VALUE: x <- 2
	.loc	0 106 42                        # x264_src/common/dct.c:106:42
	addl	%ecx, %eax
	.loc	0 106 34                        # x264_src/common/dct.c:106:34
	movzbl	2(%rsi), %ecx
	.loc	0 106 44                        # x264_src/common/dct.c:106:44
	movzbl	2(%rdx), %r9d
.Ltmp275:
	#DEBUG_VALUE: sub4x4_dct_dc:d <- [DW_OP_LLVM_fragment 32 16] undef
	#DEBUG_VALUE: x <- 3
	.loc	0 106 34                        # x264_src/common/dct.c:106:34
	movzbl	3(%rsi), %r10d
	.loc	0 106 42                        # x264_src/common/dct.c:106:42
	addl	%ecx, %r10d
	addl	%r8d, %r10d
	.loc	0 106 44                        # x264_src/common/dct.c:106:44
	movzbl	3(%rdx), %ecx
.Ltmp276:
	#DEBUG_VALUE: sub4x4_dct_dc:d <- [DW_OP_LLVM_fragment 48 16] undef
	#DEBUG_VALUE: x <- 4
	#DEBUG_VALUE: pixel_sub_wxh:pix1 <- [DW_OP_plus_uconst 16, DW_OP_stack_value] $rsi
	#DEBUG_VALUE: y <- 1
	#DEBUG_VALUE: x <- 0
	#DEBUG_VALUE: pixel_sub_wxh:pix2 <- [DW_OP_plus_uconst 32, DW_OP_stack_value] $rdx
	.loc	0 106 42                        # x264_src/common/dct.c:106:42
	addl	%r9d, %ecx
	addl	%eax, %ecx
	.loc	0 106 34                        # x264_src/common/dct.c:106:34
	movzbl	16(%rsi), %eax
	.loc	0 106 44                        # x264_src/common/dct.c:106:44
	movzbl	32(%rdx), %r8d
.Ltmp277:
	#DEBUG_VALUE: sub4x4_dct_dc:d <- [DW_OP_LLVM_fragment 64 16] undef
	#DEBUG_VALUE: x <- 1
	.loc	0 106 34                        # x264_src/common/dct.c:106:34
	movzbl	17(%rsi), %r9d
	.loc	0 106 42                        # x264_src/common/dct.c:106:42
	addl	%eax, %r9d
	.loc	0 106 44                        # x264_src/common/dct.c:106:44
	movzbl	33(%rdx), %eax
.Ltmp278:
	#DEBUG_VALUE: sub4x4_dct_dc:d <- [DW_OP_LLVM_fragment 80 16] undef
	#DEBUG_VALUE: x <- 2
	.loc	0 106 42                        # x264_src/common/dct.c:106:42
	addl	%r8d, %eax
	.loc	0 106 34                        # x264_src/common/dct.c:106:34
	movzbl	18(%rsi), %r8d
	.loc	0 106 42                        # x264_src/common/dct.c:106:42
	addl	%r9d, %r8d
	addl	%r10d, %r8d
	.loc	0 106 44                        # x264_src/common/dct.c:106:44
	movzbl	34(%rdx), %r9d
.Ltmp279:
	#DEBUG_VALUE: sub4x4_dct_dc:d <- [DW_OP_LLVM_fragment 96 16] undef
	#DEBUG_VALUE: x <- 3
	.loc	0 106 42                        # x264_src/common/dct.c:106:42
	addl	%eax, %r9d
	addl	%ecx, %r9d
	.loc	0 106 34                        # x264_src/common/dct.c:106:34
	movzbl	19(%rsi), %eax
	.loc	0 106 44                        # x264_src/common/dct.c:106:44
	movzbl	35(%rdx), %ecx
.Ltmp280:
	#DEBUG_VALUE: sub4x4_dct_dc:d <- [DW_OP_LLVM_fragment 112 16] undef
	#DEBUG_VALUE: x <- 4
	#DEBUG_VALUE: pixel_sub_wxh:pix1 <- [DW_OP_plus_uconst 32, DW_OP_stack_value] $rsi
	#DEBUG_VALUE: y <- 2
	#DEBUG_VALUE: x <- 0
	#DEBUG_VALUE: pixel_sub_wxh:pix2 <- [DW_OP_plus_uconst 64, DW_OP_stack_value] $rdx
	.loc	0 106 34                        # x264_src/common/dct.c:106:34
	movzbl	32(%rsi), %r10d
	.loc	0 106 42                        # x264_src/common/dct.c:106:42
	addl	%eax, %r10d
	.loc	0 106 44                        # x264_src/common/dct.c:106:44
	movzbl	64(%rdx), %eax
.Ltmp281:
	#DEBUG_VALUE: sub4x4_dct_dc:d <- [DW_OP_LLVM_fragment 128 16] undef
	#DEBUG_VALUE: x <- 1
	.loc	0 106 42                        # x264_src/common/dct.c:106:42
	addl	%ecx, %eax
	.loc	0 106 34                        # x264_src/common/dct.c:106:34
	movzbl	33(%rsi), %ecx
.Ltmp282:
	.loc	0 170 24 is_stmt 1              # x264_src/common/dct.c:170:24
	addl	%r10d, %ecx
.Ltmp283:
	.loc	0 106 44                        # x264_src/common/dct.c:106:44
	movzbl	65(%rdx), %r10d
.Ltmp284:
	#DEBUG_VALUE: sub4x4_dct_dc:d <- [DW_OP_LLVM_fragment 144 16] undef
	#DEBUG_VALUE: x <- 2
	.loc	0 170 24                        # x264_src/common/dct.c:170:24
	addl	%eax, %r10d
.Ltmp285:
	.loc	0 106 34                        # x264_src/common/dct.c:106:34
	movzbl	34(%rsi), %eax
.Ltmp286:
	.loc	0 170 40                        # x264_src/common/dct.c:170:40
	addl	%ecx, %eax
	.loc	0 170 56 is_stmt 0              # x264_src/common/dct.c:170:56
	addl	%r8d, %eax
.Ltmp287:
	.loc	0 106 44 is_stmt 1              # x264_src/common/dct.c:106:44
	movzbl	66(%rdx), %ecx
.Ltmp288:
	#DEBUG_VALUE: sub4x4_dct_dc:d <- [DW_OP_LLVM_fragment 160 16] undef
	#DEBUG_VALUE: x <- 3
	.loc	0 170 40                        # x264_src/common/dct.c:170:40
	addl	%r10d, %ecx
	.loc	0 170 56 is_stmt 0              # x264_src/common/dct.c:170:56
	addl	%r9d, %ecx
.Ltmp289:
	.loc	0 106 34 is_stmt 1              # x264_src/common/dct.c:106:34
	movzbl	35(%rsi), %r8d
	.loc	0 106 44 is_stmt 0              # x264_src/common/dct.c:106:44
	movzbl	67(%rdx), %r9d
.Ltmp290:
	#DEBUG_VALUE: sub4x4_dct_dc:d <- [DW_OP_LLVM_fragment 176 16] undef
	#DEBUG_VALUE: x <- 4
	#DEBUG_VALUE: pixel_sub_wxh:pix1 <- [DW_OP_plus_uconst 48, DW_OP_stack_value] $rsi
	#DEBUG_VALUE: y <- 3
	#DEBUG_VALUE: x <- 0
	#DEBUG_VALUE: pixel_sub_wxh:pix2 <- [DW_OP_plus_uconst 96, DW_OP_stack_value] $rdx
	.loc	0 106 34                        # x264_src/common/dct.c:106:34
	movzbl	48(%rsi), %r10d
.Ltmp291:
	.loc	0 169 17 is_stmt 1              # x264_src/common/dct.c:169:17
	addl	%r8d, %r10d
.Ltmp292:
	.loc	0 106 44                        # x264_src/common/dct.c:106:44
	movzbl	96(%rdx), %r8d
.Ltmp293:
	#DEBUG_VALUE: sub4x4_dct_dc:d <- [DW_OP_LLVM_fragment 192 16] undef
	#DEBUG_VALUE: x <- 1
	.loc	0 169 17                        # x264_src/common/dct.c:169:17
	addl	%r9d, %r8d
.Ltmp294:
	.loc	0 106 34                        # x264_src/common/dct.c:106:34
	movzbl	49(%rsi), %r9d
.Ltmp295:
	.loc	0 169 31                        # x264_src/common/dct.c:169:31
	addl	%r10d, %r9d
.Ltmp296:
	.loc	0 106 44                        # x264_src/common/dct.c:106:44
	movzbl	97(%rdx), %r10d
.Ltmp297:
	#DEBUG_VALUE: sub4x4_dct_dc:d <- [DW_OP_LLVM_fragment 208 16] undef
	#DEBUG_VALUE: x <- 2
	.loc	0 169 31                        # x264_src/common/dct.c:169:31
	addl	%r8d, %r10d
.Ltmp298:
	.loc	0 106 34                        # x264_src/common/dct.c:106:34
	movzbl	50(%rsi), %r8d
.Ltmp299:
	.loc	0 169 45                        # x264_src/common/dct.c:169:45
	addl	%r9d, %r8d
	.loc	0 169 59 is_stmt 0              # x264_src/common/dct.c:169:59
	addl	%eax, %r8d
.Ltmp300:
	.loc	0 106 44 is_stmt 1              # x264_src/common/dct.c:106:44
	movzbl	98(%rdx), %eax
.Ltmp301:
	#DEBUG_VALUE: sub4x4_dct_dc:d <- [DW_OP_LLVM_fragment 224 16] undef
	#DEBUG_VALUE: x <- 3
	.loc	0 169 45                        # x264_src/common/dct.c:169:45
	addl	%r10d, %eax
	.loc	0 169 59 is_stmt 0              # x264_src/common/dct.c:169:59
	addl	%ecx, %eax
	subl	%eax, %r8d
.Ltmp302:
	.loc	0 106 34 is_stmt 1              # x264_src/common/dct.c:106:34
	movzbl	51(%rsi), %eax
	.loc	0 106 44 is_stmt 0              # x264_src/common/dct.c:106:44
	movzbl	99(%rdx), %ecx
	.loc	0 106 42                        # x264_src/common/dct.c:106:42
	subl	%ecx, %eax
.Ltmp303:
	#DEBUG_VALUE: sub4x4_dct_dc:d <- [DW_OP_LLVM_fragment 240 16] undef
	#DEBUG_VALUE: x <- 4
	#DEBUG_VALUE: y <- 4
	#DEBUG_VALUE: sub4x4_dct_dc:sum <- undef
	#DEBUG_VALUE: pixel_sub_wxh:pix1 <- [DW_OP_plus_uconst 48, DW_OP_plus_uconst 16, DW_OP_stack_value] $rsi
	#DEBUG_VALUE: pixel_sub_wxh:pix2 <- [DW_OP_plus_uconst 96, DW_OP_plus_uconst 32, DW_OP_stack_value] $rdx
	.loc	0 170 9 is_stmt 1               # x264_src/common/dct.c:170:9
	addl	%r8d, %eax
.Ltmp304:
	.loc	0 177 12                        # x264_src/common/dct.c:177:12
	movw	%ax, (%rdi)
.Ltmp305:
	#DEBUG_VALUE: sub4x4_dct_dc:sum <- 0
	#DEBUG_VALUE: pixel_sub_wxh:i_size <- 4
	#DEBUG_VALUE: pixel_sub_wxh:i_pix1 <- 16
	#DEBUG_VALUE: pixel_sub_wxh:i_pix2 <- 32
	#DEBUG_VALUE: y <- 0
	#DEBUG_VALUE: x <- 0
	#DEBUG_VALUE: sub4x4_dct_dc:pix1 <- [DW_OP_plus_uconst 4, DW_OP_stack_value] $rsi
	#DEBUG_VALUE: pixel_sub_wxh:pix1 <- [DW_OP_plus_uconst 4, DW_OP_stack_value] $rsi
	#DEBUG_VALUE: sub4x4_dct_dc:pix2 <- [DW_OP_plus_uconst 4, DW_OP_stack_value] $rdx
	#DEBUG_VALUE: pixel_sub_wxh:pix2 <- [DW_OP_plus_uconst 4, DW_OP_stack_value] $rdx
	.loc	0 106 34                        # x264_src/common/dct.c:106:34
	movzbl	4(%rsi), %ecx
	.loc	0 106 44 is_stmt 0              # x264_src/common/dct.c:106:44
	movzbl	4(%rdx), %r8d
.Ltmp306:
	#DEBUG_VALUE: sub4x4_dct_dc:d <- [DW_OP_LLVM_fragment 0 16] undef
	#DEBUG_VALUE: x <- 1
	.loc	0 106 34                        # x264_src/common/dct.c:106:34
	movzbl	5(%rsi), %r9d
	.loc	0 106 42                        # x264_src/common/dct.c:106:42
	addl	%ecx, %r9d
	.loc	0 106 44                        # x264_src/common/dct.c:106:44
	movzbl	5(%rdx), %ecx
.Ltmp307:
	#DEBUG_VALUE: sub4x4_dct_dc:d <- [DW_OP_LLVM_fragment 16 16] undef
	#DEBUG_VALUE: x <- 2
	.loc	0 106 42                        # x264_src/common/dct.c:106:42
	addl	%r8d, %ecx
	.loc	0 106 34                        # x264_src/common/dct.c:106:34
	movzbl	6(%rsi), %r8d
	.loc	0 106 44                        # x264_src/common/dct.c:106:44
	movzbl	6(%rdx), %r10d
.Ltmp308:
	#DEBUG_VALUE: sub4x4_dct_dc:d <- [DW_OP_LLVM_fragment 32 16] undef
	#DEBUG_VALUE: x <- 3
	.loc	0 106 34                        # x264_src/common/dct.c:106:34
	movzbl	7(%rsi), %r11d
	.loc	0 106 42                        # x264_src/common/dct.c:106:42
	addl	%r8d, %r11d
	addl	%r9d, %r11d
	.loc	0 106 44                        # x264_src/common/dct.c:106:44
	movzbl	7(%rdx), %r8d
.Ltmp309:
	#DEBUG_VALUE: sub4x4_dct_dc:d <- [DW_OP_LLVM_fragment 48 16] undef
	#DEBUG_VALUE: x <- 4
	#DEBUG_VALUE: pixel_sub_wxh:pix1 <- [DW_OP_plus_uconst 20, DW_OP_stack_value] $rsi
	#DEBUG_VALUE: y <- 1
	#DEBUG_VALUE: x <- 0
	#DEBUG_VALUE: pixel_sub_wxh:pix2 <- [DW_OP_plus_uconst 36, DW_OP_stack_value] $rdx
	.loc	0 106 42                        # x264_src/common/dct.c:106:42
	addl	%r10d, %r8d
	addl	%ecx, %r8d
	.loc	0 106 34                        # x264_src/common/dct.c:106:34
	movzbl	20(%rsi), %ecx
	.loc	0 106 44                        # x264_src/common/dct.c:106:44
	movzbl	36(%rdx), %r9d
.Ltmp310:
	#DEBUG_VALUE: sub4x4_dct_dc:d <- [DW_OP_LLVM_fragment 64 16] undef
	#DEBUG_VALUE: x <- 1
	.loc	0 106 34                        # x264_src/common/dct.c:106:34
	movzbl	21(%rsi), %r10d
	.loc	0 106 42                        # x264_src/common/dct.c:106:42
	addl	%ecx, %r10d
	.loc	0 106 44                        # x264_src/common/dct.c:106:44
	movzbl	37(%rdx), %ecx
.Ltmp311:
	#DEBUG_VALUE: sub4x4_dct_dc:d <- [DW_OP_LLVM_fragment 80 16] undef
	#DEBUG_VALUE: x <- 2
	.loc	0 106 42                        # x264_src/common/dct.c:106:42
	addl	%r9d, %ecx
	.loc	0 106 34                        # x264_src/common/dct.c:106:34
	movzbl	22(%rsi), %r9d
	.loc	0 106 42                        # x264_src/common/dct.c:106:42
	addl	%r10d, %r9d
	addl	%r11d, %r9d
	.loc	0 106 44                        # x264_src/common/dct.c:106:44
	movzbl	38(%rdx), %r10d
.Ltmp312:
	#DEBUG_VALUE: sub4x4_dct_dc:d <- [DW_OP_LLVM_fragment 96 16] undef
	#DEBUG_VALUE: x <- 3
	.loc	0 106 42                        # x264_src/common/dct.c:106:42
	addl	%ecx, %r10d
	addl	%r8d, %r10d
	.loc	0 106 34                        # x264_src/common/dct.c:106:34
	movzbl	23(%rsi), %ecx
	.loc	0 106 44                        # x264_src/common/dct.c:106:44
	movzbl	39(%rdx), %r8d
.Ltmp313:
	#DEBUG_VALUE: sub4x4_dct_dc:d <- [DW_OP_LLVM_fragment 112 16] undef
	#DEBUG_VALUE: x <- 4
	#DEBUG_VALUE: pixel_sub_wxh:pix1 <- [DW_OP_plus_uconst 36, DW_OP_stack_value] $rsi
	#DEBUG_VALUE: y <- 2
	#DEBUG_VALUE: x <- 0
	#DEBUG_VALUE: pixel_sub_wxh:pix2 <- [DW_OP_plus_uconst 68, DW_OP_stack_value] $rdx
	.loc	0 106 34                        # x264_src/common/dct.c:106:34
	movzbl	36(%rsi), %r11d
	.loc	0 106 42                        # x264_src/common/dct.c:106:42
	addl	%ecx, %r11d
	.loc	0 106 44                        # x264_src/common/dct.c:106:44
	movzbl	68(%rdx), %ecx
.Ltmp314:
	#DEBUG_VALUE: sub4x4_dct_dc:d <- [DW_OP_LLVM_fragment 128 16] undef
	#DEBUG_VALUE: x <- 1
	.loc	0 106 42                        # x264_src/common/dct.c:106:42
	addl	%r8d, %ecx
	.loc	0 106 34                        # x264_src/common/dct.c:106:34
	movzbl	37(%rsi), %r8d
.Ltmp315:
	.loc	0 170 24 is_stmt 1              # x264_src/common/dct.c:170:24
	addl	%r11d, %r8d
.Ltmp316:
	.loc	0 106 44                        # x264_src/common/dct.c:106:44
	movzbl	69(%rdx), %r11d
.Ltmp317:
	#DEBUG_VALUE: sub4x4_dct_dc:d <- [DW_OP_LLVM_fragment 144 16] undef
	#DEBUG_VALUE: x <- 2
	.loc	0 170 24                        # x264_src/common/dct.c:170:24
	addl	%ecx, %r11d
.Ltmp318:
	.loc	0 106 34                        # x264_src/common/dct.c:106:34
	movzbl	38(%rsi), %ecx
.Ltmp319:
	.loc	0 170 40                        # x264_src/common/dct.c:170:40
	addl	%r8d, %ecx
	.loc	0 170 56 is_stmt 0              # x264_src/common/dct.c:170:56
	addl	%r9d, %ecx
.Ltmp320:
	.loc	0 106 44 is_stmt 1              # x264_src/common/dct.c:106:44
	movzbl	70(%rdx), %r8d
.Ltmp321:
	#DEBUG_VALUE: sub4x4_dct_dc:d <- [DW_OP_LLVM_fragment 160 16] undef
	#DEBUG_VALUE: x <- 3
	.loc	0 170 40                        # x264_src/common/dct.c:170:40
	addl	%r11d, %r8d
	.loc	0 170 56 is_stmt 0              # x264_src/common/dct.c:170:56
	addl	%r10d, %r8d
.Ltmp322:
	.loc	0 106 34 is_stmt 1              # x264_src/common/dct.c:106:34
	movzbl	39(%rsi), %r9d
	.loc	0 106 44 is_stmt 0              # x264_src/common/dct.c:106:44
	movzbl	71(%rdx), %r10d
.Ltmp323:
	#DEBUG_VALUE: sub4x4_dct_dc:d <- [DW_OP_LLVM_fragment 176 16] undef
	#DEBUG_VALUE: x <- 4
	#DEBUG_VALUE: pixel_sub_wxh:pix1 <- [DW_OP_plus_uconst 52, DW_OP_stack_value] $rsi
	#DEBUG_VALUE: y <- 3
	#DEBUG_VALUE: x <- 0
	#DEBUG_VALUE: pixel_sub_wxh:pix2 <- [DW_OP_plus_uconst 100, DW_OP_stack_value] $rdx
	.loc	0 106 34                        # x264_src/common/dct.c:106:34
	movzbl	52(%rsi), %r11d
.Ltmp324:
	.loc	0 169 17 is_stmt 1              # x264_src/common/dct.c:169:17
	addl	%r9d, %r11d
.Ltmp325:
	.loc	0 106 44                        # x264_src/common/dct.c:106:44
	movzbl	100(%rdx), %r9d
.Ltmp326:
	#DEBUG_VALUE: sub4x4_dct_dc:d <- [DW_OP_LLVM_fragment 192 16] undef
	#DEBUG_VALUE: x <- 1
	.loc	0 169 17                        # x264_src/common/dct.c:169:17
	addl	%r10d, %r9d
.Ltmp327:
	.loc	0 106 34                        # x264_src/common/dct.c:106:34
	movzbl	53(%rsi), %r10d
.Ltmp328:
	.loc	0 169 31                        # x264_src/common/dct.c:169:31
	addl	%r11d, %r10d
.Ltmp329:
	.loc	0 106 44                        # x264_src/common/dct.c:106:44
	movzbl	101(%rdx), %r11d
.Ltmp330:
	#DEBUG_VALUE: sub4x4_dct_dc:d <- [DW_OP_LLVM_fragment 208 16] undef
	#DEBUG_VALUE: x <- 2
	.loc	0 169 31                        # x264_src/common/dct.c:169:31
	addl	%r9d, %r11d
.Ltmp331:
	.loc	0 106 34                        # x264_src/common/dct.c:106:34
	movzbl	54(%rsi), %r9d
.Ltmp332:
	.loc	0 169 45                        # x264_src/common/dct.c:169:45
	addl	%r10d, %r9d
	.loc	0 169 59 is_stmt 0              # x264_src/common/dct.c:169:59
	addl	%ecx, %r9d
.Ltmp333:
	.loc	0 106 44 is_stmt 1              # x264_src/common/dct.c:106:44
	movzbl	102(%rdx), %ecx
.Ltmp334:
	#DEBUG_VALUE: sub4x4_dct_dc:d <- [DW_OP_LLVM_fragment 224 16] undef
	#DEBUG_VALUE: x <- 3
	.loc	0 169 45                        # x264_src/common/dct.c:169:45
	addl	%r11d, %ecx
	.loc	0 169 59 is_stmt 0              # x264_src/common/dct.c:169:59
	addl	%r8d, %ecx
	subl	%ecx, %r9d
.Ltmp335:
	.loc	0 106 34 is_stmt 1              # x264_src/common/dct.c:106:34
	movzbl	55(%rsi), %ecx
	.loc	0 106 44 is_stmt 0              # x264_src/common/dct.c:106:44
	movzbl	103(%rdx), %r8d
	.loc	0 106 42                        # x264_src/common/dct.c:106:42
	subl	%r8d, %ecx
.Ltmp336:
	#DEBUG_VALUE: sub4x4_dct_dc:d <- [DW_OP_LLVM_fragment 240 16] undef
	#DEBUG_VALUE: x <- 4
	#DEBUG_VALUE: y <- 4
	#DEBUG_VALUE: sub4x4_dct_dc:sum <- undef
	#DEBUG_VALUE: pixel_sub_wxh:pix1 <- [DW_OP_plus_uconst 52, DW_OP_plus_uconst 16, DW_OP_stack_value] $rsi
	#DEBUG_VALUE: pixel_sub_wxh:pix2 <- [DW_OP_plus_uconst 100, DW_OP_plus_uconst 32, DW_OP_stack_value] $rdx
	.loc	0 170 9 is_stmt 1               # x264_src/common/dct.c:170:9
	addl	%r9d, %ecx
.Ltmp337:
	.loc	0 178 12                        # x264_src/common/dct.c:178:12
	movw	%cx, 2(%rdi)
.Ltmp338:
	#DEBUG_VALUE: sub4x4_dct_dc:sum <- 0
	#DEBUG_VALUE: pixel_sub_wxh:i_size <- 4
	#DEBUG_VALUE: pixel_sub_wxh:i_pix1 <- 16
	#DEBUG_VALUE: pixel_sub_wxh:i_pix2 <- 32
	#DEBUG_VALUE: y <- 0
	#DEBUG_VALUE: x <- 0
	#DEBUG_VALUE: sub4x4_dct_dc:pix1 <- [DW_OP_plus_uconst 64, DW_OP_stack_value] $rsi
	#DEBUG_VALUE: pixel_sub_wxh:pix1 <- [DW_OP_plus_uconst 64, DW_OP_stack_value] $rsi
	#DEBUG_VALUE: sub4x4_dct_dc:pix2 <- [DW_OP_plus_uconst 128, DW_OP_stack_value] $rdx
	#DEBUG_VALUE: pixel_sub_wxh:pix2 <- [DW_OP_plus_uconst 128, DW_OP_stack_value] $rdx
	.loc	0 106 34                        # x264_src/common/dct.c:106:34
	movzbl	64(%rsi), %r8d
	.loc	0 106 44 is_stmt 0              # x264_src/common/dct.c:106:44
	movzbl	128(%rdx), %r9d
.Ltmp339:
	#DEBUG_VALUE: sub4x4_dct_dc:d <- [DW_OP_LLVM_fragment 0 16] undef
	#DEBUG_VALUE: x <- 1
	.loc	0 106 34                        # x264_src/common/dct.c:106:34
	movzbl	65(%rsi), %r10d
	.loc	0 106 42                        # x264_src/common/dct.c:106:42
	addl	%r8d, %r10d
	.loc	0 106 44                        # x264_src/common/dct.c:106:44
	movzbl	129(%rdx), %r8d
.Ltmp340:
	#DEBUG_VALUE: sub4x4_dct_dc:d <- [DW_OP_LLVM_fragment 16 16] undef
	#DEBUG_VALUE: x <- 2
	.loc	0 106 42                        # x264_src/common/dct.c:106:42
	addl	%r9d, %r8d
	.loc	0 106 34                        # x264_src/common/dct.c:106:34
	movzbl	66(%rsi), %r9d
	.loc	0 106 44                        # x264_src/common/dct.c:106:44
	movzbl	130(%rdx), %r11d
.Ltmp341:
	#DEBUG_VALUE: sub4x4_dct_dc:d <- [DW_OP_LLVM_fragment 32 16] undef
	#DEBUG_VALUE: x <- 3
	.loc	0 106 34                        # x264_src/common/dct.c:106:34
	movzbl	67(%rsi), %ebx
	.loc	0 106 42                        # x264_src/common/dct.c:106:42
	addl	%r9d, %ebx
	addl	%r10d, %ebx
	.loc	0 106 44                        # x264_src/common/dct.c:106:44
	movzbl	131(%rdx), %r9d
.Ltmp342:
	#DEBUG_VALUE: sub4x4_dct_dc:d <- [DW_OP_LLVM_fragment 48 16] undef
	#DEBUG_VALUE: x <- 4
	#DEBUG_VALUE: pixel_sub_wxh:pix1 <- [DW_OP_plus_uconst 80, DW_OP_stack_value] $rsi
	#DEBUG_VALUE: y <- 1
	#DEBUG_VALUE: x <- 0
	#DEBUG_VALUE: pixel_sub_wxh:pix2 <- [DW_OP_plus_uconst 160, DW_OP_stack_value] $rdx
	.loc	0 106 42                        # x264_src/common/dct.c:106:42
	addl	%r11d, %r9d
	addl	%r8d, %r9d
	.loc	0 106 34                        # x264_src/common/dct.c:106:34
	movzbl	80(%rsi), %r8d
	.loc	0 106 44                        # x264_src/common/dct.c:106:44
	movzbl	160(%rdx), %r10d
.Ltmp343:
	#DEBUG_VALUE: sub4x4_dct_dc:d <- [DW_OP_LLVM_fragment 64 16] undef
	#DEBUG_VALUE: x <- 1
	.loc	0 106 34                        # x264_src/common/dct.c:106:34
	movzbl	81(%rsi), %r11d
	.loc	0 106 42                        # x264_src/common/dct.c:106:42
	addl	%r8d, %r11d
	.loc	0 106 44                        # x264_src/common/dct.c:106:44
	movzbl	161(%rdx), %r8d
.Ltmp344:
	#DEBUG_VALUE: sub4x4_dct_dc:d <- [DW_OP_LLVM_fragment 80 16] undef
	#DEBUG_VALUE: x <- 2
	.loc	0 106 42                        # x264_src/common/dct.c:106:42
	addl	%r10d, %r8d
	.loc	0 106 34                        # x264_src/common/dct.c:106:34
	movzbl	82(%rsi), %r10d
	.loc	0 106 42                        # x264_src/common/dct.c:106:42
	addl	%r11d, %r10d
	addl	%ebx, %r10d
	.loc	0 106 44                        # x264_src/common/dct.c:106:44
	movzbl	162(%rdx), %r11d
.Ltmp345:
	#DEBUG_VALUE: sub4x4_dct_dc:d <- [DW_OP_LLVM_fragment 96 16] undef
	#DEBUG_VALUE: x <- 3
	.loc	0 106 42                        # x264_src/common/dct.c:106:42
	addl	%r8d, %r11d
	addl	%r9d, %r11d
	.loc	0 106 34                        # x264_src/common/dct.c:106:34
	movzbl	83(%rsi), %r8d
	.loc	0 106 44                        # x264_src/common/dct.c:106:44
	movzbl	163(%rdx), %r9d
.Ltmp346:
	#DEBUG_VALUE: sub4x4_dct_dc:d <- [DW_OP_LLVM_fragment 112 16] undef
	#DEBUG_VALUE: x <- 4
	#DEBUG_VALUE: pixel_sub_wxh:pix1 <- [DW_OP_plus_uconst 96, DW_OP_stack_value] $rsi
	#DEBUG_VALUE: y <- 2
	#DEBUG_VALUE: x <- 0
	#DEBUG_VALUE: pixel_sub_wxh:pix2 <- [DW_OP_plus_uconst 192, DW_OP_stack_value] $rdx
	.loc	0 106 34                        # x264_src/common/dct.c:106:34
	movzbl	96(%rsi), %ebx
	.loc	0 106 42                        # x264_src/common/dct.c:106:42
	addl	%r8d, %ebx
	.loc	0 106 44                        # x264_src/common/dct.c:106:44
	movzbl	192(%rdx), %r8d
.Ltmp347:
	#DEBUG_VALUE: sub4x4_dct_dc:d <- [DW_OP_LLVM_fragment 128 16] undef
	#DEBUG_VALUE: x <- 1
	.loc	0 106 42                        # x264_src/common/dct.c:106:42
	addl	%r9d, %r8d
	.loc	0 106 34                        # x264_src/common/dct.c:106:34
	movzbl	97(%rsi), %r9d
.Ltmp348:
	.loc	0 170 24 is_stmt 1              # x264_src/common/dct.c:170:24
	addl	%ebx, %r9d
.Ltmp349:
	.loc	0 106 44                        # x264_src/common/dct.c:106:44
	movzbl	193(%rdx), %ebx
.Ltmp350:
	#DEBUG_VALUE: sub4x4_dct_dc:d <- [DW_OP_LLVM_fragment 144 16] undef
	#DEBUG_VALUE: x <- 2
	.loc	0 170 24                        # x264_src/common/dct.c:170:24
	addl	%r8d, %ebx
.Ltmp351:
	.loc	0 106 34                        # x264_src/common/dct.c:106:34
	movzbl	98(%rsi), %r8d
.Ltmp352:
	.loc	0 170 40                        # x264_src/common/dct.c:170:40
	addl	%r9d, %r8d
	.loc	0 170 56 is_stmt 0              # x264_src/common/dct.c:170:56
	addl	%r10d, %r8d
.Ltmp353:
	.loc	0 106 44 is_stmt 1              # x264_src/common/dct.c:106:44
	movzbl	194(%rdx), %r9d
.Ltmp354:
	#DEBUG_VALUE: sub4x4_dct_dc:d <- [DW_OP_LLVM_fragment 160 16] undef
	#DEBUG_VALUE: x <- 3
	.loc	0 170 40                        # x264_src/common/dct.c:170:40
	addl	%ebx, %r9d
	.loc	0 170 56 is_stmt 0              # x264_src/common/dct.c:170:56
	addl	%r11d, %r9d
.Ltmp355:
	.loc	0 106 34 is_stmt 1              # x264_src/common/dct.c:106:34
	movzbl	99(%rsi), %r10d
	.loc	0 106 44 is_stmt 0              # x264_src/common/dct.c:106:44
	movzbl	195(%rdx), %r11d
.Ltmp356:
	#DEBUG_VALUE: sub4x4_dct_dc:d <- [DW_OP_LLVM_fragment 176 16] undef
	#DEBUG_VALUE: x <- 4
	#DEBUG_VALUE: pixel_sub_wxh:pix1 <- [DW_OP_plus_uconst 112, DW_OP_stack_value] $rsi
	#DEBUG_VALUE: y <- 3
	#DEBUG_VALUE: x <- 0
	#DEBUG_VALUE: pixel_sub_wxh:pix2 <- [DW_OP_plus_uconst 224, DW_OP_stack_value] $rdx
	.loc	0 106 34                        # x264_src/common/dct.c:106:34
	movzbl	112(%rsi), %ebx
.Ltmp357:
	.loc	0 169 17 is_stmt 1              # x264_src/common/dct.c:169:17
	addl	%r10d, %ebx
.Ltmp358:
	.loc	0 106 44                        # x264_src/common/dct.c:106:44
	movzbl	224(%rdx), %r10d
.Ltmp359:
	#DEBUG_VALUE: sub4x4_dct_dc:d <- [DW_OP_LLVM_fragment 192 16] undef
	#DEBUG_VALUE: x <- 1
	.loc	0 169 17                        # x264_src/common/dct.c:169:17
	addl	%r11d, %r10d
.Ltmp360:
	.loc	0 106 34                        # x264_src/common/dct.c:106:34
	movzbl	113(%rsi), %r11d
.Ltmp361:
	.loc	0 169 31                        # x264_src/common/dct.c:169:31
	addl	%ebx, %r11d
.Ltmp362:
	.loc	0 106 44                        # x264_src/common/dct.c:106:44
	movzbl	225(%rdx), %ebx
.Ltmp363:
	#DEBUG_VALUE: sub4x4_dct_dc:d <- [DW_OP_LLVM_fragment 208 16] undef
	#DEBUG_VALUE: x <- 2
	.loc	0 169 31                        # x264_src/common/dct.c:169:31
	addl	%r10d, %ebx
.Ltmp364:
	.loc	0 106 34                        # x264_src/common/dct.c:106:34
	movzbl	114(%rsi), %r10d
.Ltmp365:
	.loc	0 169 45                        # x264_src/common/dct.c:169:45
	addl	%r11d, %r10d
	.loc	0 169 59 is_stmt 0              # x264_src/common/dct.c:169:59
	addl	%r8d, %r10d
.Ltmp366:
	.loc	0 106 44 is_stmt 1              # x264_src/common/dct.c:106:44
	movzbl	226(%rdx), %r8d
.Ltmp367:
	#DEBUG_VALUE: sub4x4_dct_dc:d <- [DW_OP_LLVM_fragment 224 16] undef
	#DEBUG_VALUE: x <- 3
	.loc	0 169 45                        # x264_src/common/dct.c:169:45
	addl	%ebx, %r8d
	.loc	0 169 59 is_stmt 0              # x264_src/common/dct.c:169:59
	addl	%r9d, %r8d
	subl	%r8d, %r10d
.Ltmp368:
	.loc	0 106 34 is_stmt 1              # x264_src/common/dct.c:106:34
	movzbl	115(%rsi), %r8d
	.loc	0 106 44 is_stmt 0              # x264_src/common/dct.c:106:44
	movzbl	227(%rdx), %r9d
	.loc	0 106 42                        # x264_src/common/dct.c:106:42
	subl	%r9d, %r8d
.Ltmp369:
	#DEBUG_VALUE: sub4x4_dct_dc:d <- [DW_OP_LLVM_fragment 240 16] undef
	#DEBUG_VALUE: x <- 4
	#DEBUG_VALUE: y <- 4
	#DEBUG_VALUE: sub4x4_dct_dc:sum <- undef
	#DEBUG_VALUE: pixel_sub_wxh:pix1 <- [DW_OP_plus_uconst 112, DW_OP_plus_uconst 16, DW_OP_stack_value] $rsi
	#DEBUG_VALUE: pixel_sub_wxh:pix2 <- [DW_OP_plus_uconst 224, DW_OP_plus_uconst 32, DW_OP_stack_value] $rdx
	.loc	0 170 9 is_stmt 1               # x264_src/common/dct.c:170:9
	addl	%r10d, %r8d
.Ltmp370:
	.loc	0 179 12                        # x264_src/common/dct.c:179:12
	movw	%r8w, 4(%rdi)
.Ltmp371:
	#DEBUG_VALUE: sub4x4_dct_dc:sum <- 0
	#DEBUG_VALUE: pixel_sub_wxh:i_size <- 4
	#DEBUG_VALUE: pixel_sub_wxh:i_pix1 <- 16
	#DEBUG_VALUE: pixel_sub_wxh:i_pix2 <- 32
	#DEBUG_VALUE: y <- 0
	#DEBUG_VALUE: x <- 0
	#DEBUG_VALUE: sub4x4_dct_dc:pix1 <- [DW_OP_plus_uconst 68, DW_OP_stack_value] $rsi
	#DEBUG_VALUE: pixel_sub_wxh:pix1 <- [DW_OP_plus_uconst 68, DW_OP_stack_value] $rsi
	#DEBUG_VALUE: sub4x4_dct_dc:pix2 <- [DW_OP_plus_uconst 132, DW_OP_stack_value] $rdx
	#DEBUG_VALUE: pixel_sub_wxh:pix2 <- [DW_OP_plus_uconst 132, DW_OP_stack_value] $rdx
	.loc	0 106 34                        # x264_src/common/dct.c:106:34
	movzbl	68(%rsi), %r9d
	.loc	0 106 44 is_stmt 0              # x264_src/common/dct.c:106:44
	movzbl	132(%rdx), %r10d
.Ltmp372:
	#DEBUG_VALUE: sub4x4_dct_dc:d <- [DW_OP_LLVM_fragment 0 16] undef
	#DEBUG_VALUE: x <- 1
	.loc	0 106 34                        # x264_src/common/dct.c:106:34
	movzbl	69(%rsi), %r11d
	.loc	0 106 42                        # x264_src/common/dct.c:106:42
	addl	%r9d, %r11d
	.loc	0 106 44                        # x264_src/common/dct.c:106:44
	movzbl	133(%rdx), %r9d
.Ltmp373:
	#DEBUG_VALUE: sub4x4_dct_dc:d <- [DW_OP_LLVM_fragment 16 16] undef
	#DEBUG_VALUE: x <- 2
	.loc	0 106 42                        # x264_src/common/dct.c:106:42
	addl	%r10d, %r9d
	.loc	0 106 34                        # x264_src/common/dct.c:106:34
	movzbl	70(%rsi), %r10d
	.loc	0 106 44                        # x264_src/common/dct.c:106:44
	movzbl	134(%rdx), %ebx
.Ltmp374:
	#DEBUG_VALUE: sub4x4_dct_dc:d <- [DW_OP_LLVM_fragment 32 16] undef
	#DEBUG_VALUE: x <- 3
	.loc	0 106 34                        # x264_src/common/dct.c:106:34
	movzbl	71(%rsi), %ebp
	.loc	0 106 42                        # x264_src/common/dct.c:106:42
	addl	%r10d, %ebp
	addl	%r11d, %ebp
	.loc	0 106 44                        # x264_src/common/dct.c:106:44
	movzbl	135(%rdx), %r10d
.Ltmp375:
	#DEBUG_VALUE: sub4x4_dct_dc:d <- [DW_OP_LLVM_fragment 48 16] undef
	#DEBUG_VALUE: x <- 4
	#DEBUG_VALUE: pixel_sub_wxh:pix1 <- [DW_OP_plus_uconst 84, DW_OP_stack_value] $rsi
	#DEBUG_VALUE: y <- 1
	#DEBUG_VALUE: x <- 0
	#DEBUG_VALUE: pixel_sub_wxh:pix2 <- [DW_OP_plus_uconst 164, DW_OP_stack_value] $rdx
	.loc	0 106 42                        # x264_src/common/dct.c:106:42
	addl	%ebx, %r10d
	addl	%r9d, %r10d
	.loc	0 106 34                        # x264_src/common/dct.c:106:34
	movzbl	84(%rsi), %r9d
	.loc	0 106 44                        # x264_src/common/dct.c:106:44
	movzbl	164(%rdx), %r11d
.Ltmp376:
	#DEBUG_VALUE: sub4x4_dct_dc:d <- [DW_OP_LLVM_fragment 64 16] undef
	#DEBUG_VALUE: x <- 1
	.loc	0 106 34                        # x264_src/common/dct.c:106:34
	movzbl	85(%rsi), %ebx
	.loc	0 106 42                        # x264_src/common/dct.c:106:42
	addl	%r9d, %ebx
	.loc	0 106 44                        # x264_src/common/dct.c:106:44
	movzbl	165(%rdx), %r9d
.Ltmp377:
	#DEBUG_VALUE: sub4x4_dct_dc:d <- [DW_OP_LLVM_fragment 80 16] undef
	#DEBUG_VALUE: x <- 2
	.loc	0 106 42                        # x264_src/common/dct.c:106:42
	addl	%r11d, %r9d
	.loc	0 106 34                        # x264_src/common/dct.c:106:34
	movzbl	86(%rsi), %r11d
	.loc	0 106 42                        # x264_src/common/dct.c:106:42
	addl	%ebx, %r11d
	addl	%ebp, %r11d
	.loc	0 106 44                        # x264_src/common/dct.c:106:44
	movzbl	166(%rdx), %ebx
.Ltmp378:
	#DEBUG_VALUE: sub4x4_dct_dc:d <- [DW_OP_LLVM_fragment 96 16] undef
	#DEBUG_VALUE: x <- 3
	.loc	0 106 42                        # x264_src/common/dct.c:106:42
	addl	%r9d, %ebx
	addl	%r10d, %ebx
	.loc	0 106 34                        # x264_src/common/dct.c:106:34
	movzbl	87(%rsi), %r9d
	.loc	0 106 44                        # x264_src/common/dct.c:106:44
	movzbl	167(%rdx), %r10d
.Ltmp379:
	#DEBUG_VALUE: sub4x4_dct_dc:d <- [DW_OP_LLVM_fragment 112 16] undef
	#DEBUG_VALUE: x <- 4
	#DEBUG_VALUE: pixel_sub_wxh:pix1 <- [DW_OP_plus_uconst 100, DW_OP_stack_value] $rsi
	#DEBUG_VALUE: y <- 2
	#DEBUG_VALUE: x <- 0
	#DEBUG_VALUE: pixel_sub_wxh:pix2 <- [DW_OP_plus_uconst 196, DW_OP_stack_value] $rdx
	.loc	0 106 34                        # x264_src/common/dct.c:106:34
	movzbl	100(%rsi), %ebp
	.loc	0 106 42                        # x264_src/common/dct.c:106:42
	addl	%r9d, %ebp
	.loc	0 106 44                        # x264_src/common/dct.c:106:44
	movzbl	196(%rdx), %r9d
.Ltmp380:
	#DEBUG_VALUE: sub4x4_dct_dc:d <- [DW_OP_LLVM_fragment 128 16] undef
	#DEBUG_VALUE: x <- 1
	.loc	0 106 42                        # x264_src/common/dct.c:106:42
	addl	%r10d, %r9d
	.loc	0 106 34                        # x264_src/common/dct.c:106:34
	movzbl	101(%rsi), %r10d
.Ltmp381:
	.loc	0 170 24 is_stmt 1              # x264_src/common/dct.c:170:24
	addl	%ebp, %r10d
.Ltmp382:
	.loc	0 106 44                        # x264_src/common/dct.c:106:44
	movzbl	197(%rdx), %ebp
.Ltmp383:
	#DEBUG_VALUE: sub4x4_dct_dc:d <- [DW_OP_LLVM_fragment 144 16] undef
	#DEBUG_VALUE: x <- 2
	.loc	0 170 24                        # x264_src/common/dct.c:170:24
	addl	%r9d, %ebp
.Ltmp384:
	.loc	0 106 34                        # x264_src/common/dct.c:106:34
	movzbl	102(%rsi), %r9d
.Ltmp385:
	.loc	0 170 40                        # x264_src/common/dct.c:170:40
	addl	%r10d, %r9d
	.loc	0 170 56 is_stmt 0              # x264_src/common/dct.c:170:56
	addl	%r11d, %r9d
.Ltmp386:
	.loc	0 106 44 is_stmt 1              # x264_src/common/dct.c:106:44
	movzbl	198(%rdx), %r10d
.Ltmp387:
	#DEBUG_VALUE: sub4x4_dct_dc:d <- [DW_OP_LLVM_fragment 160 16] undef
	#DEBUG_VALUE: x <- 3
	.loc	0 170 40                        # x264_src/common/dct.c:170:40
	addl	%ebp, %r10d
	.loc	0 170 56 is_stmt 0              # x264_src/common/dct.c:170:56
	addl	%ebx, %r10d
.Ltmp388:
	.loc	0 106 34 is_stmt 1              # x264_src/common/dct.c:106:34
	movzbl	103(%rsi), %r11d
	.loc	0 106 44 is_stmt 0              # x264_src/common/dct.c:106:44
	movzbl	199(%rdx), %ebx
.Ltmp389:
	#DEBUG_VALUE: sub4x4_dct_dc:d <- [DW_OP_LLVM_fragment 176 16] undef
	#DEBUG_VALUE: x <- 4
	#DEBUG_VALUE: pixel_sub_wxh:pix1 <- [DW_OP_plus_uconst 116, DW_OP_stack_value] $rsi
	#DEBUG_VALUE: y <- 3
	#DEBUG_VALUE: x <- 0
	#DEBUG_VALUE: pixel_sub_wxh:pix2 <- [DW_OP_plus_uconst 228, DW_OP_stack_value] $rdx
	.loc	0 106 34                        # x264_src/common/dct.c:106:34
	movzbl	116(%rsi), %ebp
.Ltmp390:
	.loc	0 169 17 is_stmt 1              # x264_src/common/dct.c:169:17
	addl	%r11d, %ebp
.Ltmp391:
	.loc	0 106 44                        # x264_src/common/dct.c:106:44
	movzbl	228(%rdx), %r11d
.Ltmp392:
	#DEBUG_VALUE: sub4x4_dct_dc:d <- [DW_OP_LLVM_fragment 192 16] undef
	#DEBUG_VALUE: x <- 1
	.loc	0 169 17                        # x264_src/common/dct.c:169:17
	addl	%ebx, %r11d
.Ltmp393:
	.loc	0 106 34                        # x264_src/common/dct.c:106:34
	movzbl	117(%rsi), %ebx
.Ltmp394:
	.loc	0 169 31                        # x264_src/common/dct.c:169:31
	addl	%ebp, %ebx
.Ltmp395:
	.loc	0 106 44                        # x264_src/common/dct.c:106:44
	movzbl	229(%rdx), %ebp
.Ltmp396:
	#DEBUG_VALUE: sub4x4_dct_dc:d <- [DW_OP_LLVM_fragment 208 16] undef
	#DEBUG_VALUE: x <- 2
	.loc	0 169 31                        # x264_src/common/dct.c:169:31
	addl	%r11d, %ebp
.Ltmp397:
	.loc	0 106 34                        # x264_src/common/dct.c:106:34
	movzbl	118(%rsi), %r11d
.Ltmp398:
	.loc	0 169 45                        # x264_src/common/dct.c:169:45
	addl	%ebx, %r11d
	.loc	0 169 59 is_stmt 0              # x264_src/common/dct.c:169:59
	addl	%r9d, %r11d
.Ltmp399:
	.loc	0 106 44 is_stmt 1              # x264_src/common/dct.c:106:44
	movzbl	230(%rdx), %r9d
.Ltmp400:
	#DEBUG_VALUE: sub4x4_dct_dc:d <- [DW_OP_LLVM_fragment 224 16] undef
	#DEBUG_VALUE: x <- 3
	.loc	0 169 45                        # x264_src/common/dct.c:169:45
	addl	%ebp, %r9d
	.loc	0 169 59 is_stmt 0              # x264_src/common/dct.c:169:59
	addl	%r10d, %r9d
	subl	%r9d, %r11d
.Ltmp401:
	.loc	0 106 34 is_stmt 1              # x264_src/common/dct.c:106:34
	movzbl	119(%rsi), %esi
.Ltmp402:
	#DEBUG_VALUE: sub8x8_dct_dc:pix1 <- [DW_OP_LLVM_entry_value 1] $rsi
	.loc	0 106 44 is_stmt 0              # x264_src/common/dct.c:106:44
	movzbl	231(%rdx), %edx
.Ltmp403:
	#DEBUG_VALUE: sub8x8_dct_dc:pix2 <- [DW_OP_LLVM_entry_value 1] $rdx
	.loc	0 106 42                        # x264_src/common/dct.c:106:42
	subl	%edx, %esi
.Ltmp404:
	#DEBUG_VALUE: sub4x4_dct_dc:d <- [DW_OP_LLVM_fragment 240 16] undef
	#DEBUG_VALUE: x <- 4
	#DEBUG_VALUE: y <- 4
	#DEBUG_VALUE: sub4x4_dct_dc:sum <- undef
	#DEBUG_VALUE: pixel_sub_wxh:pix1 <- [DW_OP_plus_uconst 116, DW_OP_plus_uconst 16, DW_OP_stack_value] undef
	#DEBUG_VALUE: pixel_sub_wxh:pix2 <- [DW_OP_plus_uconst 228, DW_OP_plus_uconst 32, DW_OP_stack_value] undef
	.loc	0 170 9 is_stmt 1               # x264_src/common/dct.c:170:9
	addl	%r11d, %esi
.Ltmp405:
	#DEBUG_VALUE: sub4x4_dct_dc:sum <- $esi
	.loc	0 183 14                        # x264_src/common/dct.c:183:14
	movzwl	%ax, %eax
	.loc	0 183 23 is_stmt 0              # x264_src/common/dct.c:183:23
	movzwl	%cx, %ecx
	.loc	0 183 21                        # x264_src/common/dct.c:183:21
	leal	(%rcx,%rax), %edx
.Ltmp406:
	#DEBUG_VALUE: sub8x8_dct_dc:d0 <- $edx
	.loc	0 184 14 is_stmt 1              # x264_src/common/dct.c:184:14
	movzwl	%r8w, %r8d
	.loc	0 184 21 is_stmt 0              # x264_src/common/dct.c:184:21
	leal	(%rsi,%r8), %r9d
.Ltmp407:
	#DEBUG_VALUE: sub8x8_dct_dc:d1 <- $r9d
	.loc	0 185 21 is_stmt 1              # x264_src/common/dct.c:185:21
	subl	%ecx, %eax
.Ltmp408:
	#DEBUG_VALUE: sub8x8_dct_dc:d2 <- $eax
	.loc	0 186 21                        # x264_src/common/dct.c:186:21
	subl	%esi, %r8d
.Ltmp409:
	#DEBUG_VALUE: sub8x8_dct_dc:d3 <- $r8d
	.loc	0 187 17                        # x264_src/common/dct.c:187:17
	leal	(%r9,%rdx), %ecx
	.loc	0 187 12 is_stmt 0              # x264_src/common/dct.c:187:12
	movw	%cx, (%rdi)
	.loc	0 188 17 is_stmt 1              # x264_src/common/dct.c:188:17
	leal	(%r8,%rax), %ecx
	.loc	0 188 12 is_stmt 0              # x264_src/common/dct.c:188:12
	movw	%cx, 4(%rdi)
	.loc	0 189 17 is_stmt 1              # x264_src/common/dct.c:189:17
	subl	%r9d, %edx
.Ltmp410:
	.loc	0 189 12 is_stmt 0              # x264_src/common/dct.c:189:12
	movw	%dx, 2(%rdi)
	.loc	0 190 17 is_stmt 1              # x264_src/common/dct.c:190:17
	subl	%r8d, %eax
.Ltmp411:
	.loc	0 190 12 is_stmt 0              # x264_src/common/dct.c:190:12
	movw	%ax, 6(%rdi)
	.loc	0 191 1 epilogue_begin is_stmt 1 # x264_src/common/dct.c:191:1
	popq	%rbx
	.cfi_def_cfa_offset 16
	popq	%rbp
	.cfi_def_cfa_offset 8
	retq
.Ltmp412:
.Lfunc_end4:
	.size	sub8x8_dct_dc, .Lfunc_end4-sub8x8_dct_dc
	.cfi_endproc
                                        # -- End function
	.p2align	4, 0x90                         # -- Begin function add8x8_idct
	.type	add8x8_idct,@function
add8x8_idct:                            # @add8x8_idct
.Lfunc_begin5:
	.loc	0 234 0                         # x264_src/common/dct.c:234:0
	.cfi_startproc
# %bb.0:                                # %entry
	#DEBUG_VALUE: add8x8_idct:p_dst <- $rdi
	#DEBUG_VALUE: add8x8_idct:dct <- $rsi
	pushq	%r14
	.cfi_def_cfa_offset 16
	pushq	%rbx
	.cfi_def_cfa_offset 24
	pushq	%rax
	.cfi_def_cfa_offset 32
	.cfi_offset %rbx, -24
	.cfi_offset %r14, -16
	movq	%rsi, %rbx
	movq	%rdi, %r14
.Ltmp413:
	.loc	0 235 5 prologue_end            # x264_src/common/dct.c:235:5
	callq	add4x4_idct
.Ltmp414:
	#DEBUG_VALUE: add8x8_idct:dct <- $rbx
	#DEBUG_VALUE: add8x8_idct:p_dst <- $r14
	.loc	0 236 19                        # x264_src/common/dct.c:236:19
	leaq	4(%r14), %rdi
	.loc	0 236 43 is_stmt 0              # x264_src/common/dct.c:236:43
	leaq	32(%rbx), %rsi
	.loc	0 236 5                         # x264_src/common/dct.c:236:5
	callq	add4x4_idct
.Ltmp415:
	.loc	0 237 19 is_stmt 1              # x264_src/common/dct.c:237:19
	leaq	128(%r14), %rdi
	.loc	0 237 43 is_stmt 0              # x264_src/common/dct.c:237:43
	leaq	64(%rbx), %rsi
	.loc	0 237 5                         # x264_src/common/dct.c:237:5
	callq	add4x4_idct
.Ltmp416:
	.loc	0 238 19 is_stmt 1              # x264_src/common/dct.c:238:19
	addq	$132, %r14
.Ltmp417:
	#DEBUG_VALUE: add8x8_idct:p_dst <- [DW_OP_LLVM_entry_value 1] $rdi
	.loc	0 238 43 is_stmt 0              # x264_src/common/dct.c:238:43
	addq	$96, %rbx
.Ltmp418:
	#DEBUG_VALUE: add8x8_idct:dct <- [DW_OP_LLVM_entry_value 1] $rsi
	.loc	0 238 5                         # x264_src/common/dct.c:238:5
	movq	%r14, %rdi
	movq	%rbx, %rsi
	.loc	0 238 5 epilogue_begin          # x264_src/common/dct.c:238:5
	addq	$8, %rsp
	.cfi_def_cfa_offset 24
	popq	%rbx
	.cfi_def_cfa_offset 16
	popq	%r14
	.cfi_def_cfa_offset 8
.Ltmp419:
	jmp	add4x4_idct                     # TAILCALL
.Ltmp420:
.Lfunc_end5:
	.size	add8x8_idct, .Lfunc_end5-add8x8_idct
	.cfi_endproc
                                        # -- End function
	.p2align	4, 0x90                         # -- Begin function add8x8_idct_dc
	.type	add8x8_idct_dc,@function
add8x8_idct_dc:                         # @add8x8_idct_dc
.Lfunc_begin6:
	.loc	0 376 0 is_stmt 1               # x264_src/common/dct.c:376:0
	.cfi_startproc
# %bb.0:                                # %entry
	#DEBUG_VALUE: add8x8_idct_dc:p_dst <- $rdi
	#DEBUG_VALUE: add8x8_idct_dc:dct <- $rsi
	pushq	%r14
	.cfi_def_cfa_offset 16
	pushq	%rbx
	.cfi_def_cfa_offset 24
	pushq	%rax
	.cfi_def_cfa_offset 32
	.cfi_offset %rbx, -24
	.cfi_offset %r14, -16
	movq	%rsi, %rbx
	movq	%rdi, %r14
.Ltmp421:
	.loc	0 377 46 prologue_end           # x264_src/common/dct.c:377:46
	movswl	(%rsi), %esi
.Ltmp422:
	#DEBUG_VALUE: add8x8_idct_dc:dct <- $rbx
	.loc	0 377 5 is_stmt 0               # x264_src/common/dct.c:377:5
	callq	add4x4_idct_dc
.Ltmp423:
	#DEBUG_VALUE: add8x8_idct_dc:p_dst <- $r14
	.loc	0 378 22 is_stmt 1              # x264_src/common/dct.c:378:22
	leaq	4(%r14), %rdi
	.loc	0 378 46 is_stmt 0              # x264_src/common/dct.c:378:46
	movswl	2(%rbx), %esi
	.loc	0 378 5                         # x264_src/common/dct.c:378:5
	callq	add4x4_idct_dc
.Ltmp424:
	.loc	0 379 22 is_stmt 1              # x264_src/common/dct.c:379:22
	leaq	128(%r14), %rdi
	.loc	0 379 46 is_stmt 0              # x264_src/common/dct.c:379:46
	movswl	4(%rbx), %esi
	.loc	0 379 5                         # x264_src/common/dct.c:379:5
	callq	add4x4_idct_dc
.Ltmp425:
	.loc	0 380 22 is_stmt 1              # x264_src/common/dct.c:380:22
	addq	$132, %r14
.Ltmp426:
	#DEBUG_VALUE: add8x8_idct_dc:p_dst <- [DW_OP_LLVM_entry_value 1] $rdi
	.loc	0 380 46 is_stmt 0              # x264_src/common/dct.c:380:46
	movswl	6(%rbx), %esi
	.loc	0 380 5                         # x264_src/common/dct.c:380:5
	movq	%r14, %rdi
	.loc	0 380 5 epilogue_begin          # x264_src/common/dct.c:380:5
	addq	$8, %rsp
	.cfi_def_cfa_offset 24
	popq	%rbx
.Ltmp427:
	#DEBUG_VALUE: add8x8_idct_dc:dct <- [DW_OP_LLVM_entry_value 1] $rsi
	.cfi_def_cfa_offset 16
	popq	%r14
	.cfi_def_cfa_offset 8
.Ltmp428:
	jmp	add4x4_idct_dc                  # TAILCALL
.Ltmp429:
.Lfunc_end6:
	.size	add8x8_idct_dc, .Lfunc_end6-add8x8_idct_dc
	.cfi_endproc
                                        # -- End function
	.p2align	4, 0x90                         # -- Begin function sub16x16_dct
	.type	sub16x16_dct,@function
sub16x16_dct:                           # @sub16x16_dct
.Lfunc_begin7:
	.loc	0 155 0 is_stmt 1               # x264_src/common/dct.c:155:0
	.cfi_startproc
# %bb.0:                                # %entry
	#DEBUG_VALUE: sub16x16_dct:dct <- $rdi
	#DEBUG_VALUE: sub16x16_dct:pix1 <- $rsi
	#DEBUG_VALUE: sub16x16_dct:pix2 <- $rdx
	#DEBUG_VALUE: sub8x8_dct:dct <- $rdi
	#DEBUG_VALUE: sub8x8_dct:pix1 <- $rsi
	#DEBUG_VALUE: sub8x8_dct:pix2 <- $rdx
	pushq	%r15
	.cfi_def_cfa_offset 16
	pushq	%r14
	.cfi_def_cfa_offset 24
	pushq	%rbx
	.cfi_def_cfa_offset 32
	.cfi_offset %rbx, -32
	.cfi_offset %r14, -24
	.cfi_offset %r15, -16
	movq	%rdx, %rbx
	movq	%rsi, %r14
	movq	%rdi, %r15
.Ltmp430:
	.loc	0 148 5 prologue_end            # x264_src/common/dct.c:148:5
	callq	sub4x4_dct
.Ltmp431:
	#DEBUG_VALUE: sub8x8_dct:pix2 <- $rbx
	#DEBUG_VALUE: sub16x16_dct:pix2 <- $rbx
	#DEBUG_VALUE: sub8x8_dct:pix1 <- $r14
	#DEBUG_VALUE: sub16x16_dct:pix1 <- $r14
	#DEBUG_VALUE: sub8x8_dct:dct <- $r15
	#DEBUG_VALUE: sub16x16_dct:dct <- $r15
	.loc	0 149 17                        # x264_src/common/dct.c:149:17
	leaq	32(%r15), %rdi
	.loc	0 149 26 is_stmt 0              # x264_src/common/dct.c:149:26
	leaq	4(%r14), %rsi
	.loc	0 149 36                        # x264_src/common/dct.c:149:36
	leaq	4(%rbx), %rdx
	.loc	0 149 5                         # x264_src/common/dct.c:149:5
	callq	sub4x4_dct
.Ltmp432:
	.loc	0 150 17 is_stmt 1              # x264_src/common/dct.c:150:17
	leaq	64(%r15), %rdi
	.loc	0 150 26 is_stmt 0              # x264_src/common/dct.c:150:26
	leaq	64(%r14), %rsi
	.loc	0 150 50                        # x264_src/common/dct.c:150:50
	leaq	128(%rbx), %rdx
	.loc	0 150 5                         # x264_src/common/dct.c:150:5
	callq	sub4x4_dct
.Ltmp433:
	.loc	0 151 17 is_stmt 1              # x264_src/common/dct.c:151:17
	leaq	96(%r15), %rdi
	.loc	0 151 26 is_stmt 0              # x264_src/common/dct.c:151:26
	leaq	68(%r14), %rsi
	.loc	0 151 50                        # x264_src/common/dct.c:151:50
	leaq	132(%rbx), %rdx
	.loc	0 151 5                         # x264_src/common/dct.c:151:5
	callq	sub4x4_dct
.Ltmp434:
	.loc	0 157 18 is_stmt 1              # x264_src/common/dct.c:157:18
	leaq	128(%r15), %rdi
	.loc	0 157 28 is_stmt 0              # x264_src/common/dct.c:157:28
	leaq	8(%r14), %rsi
	.loc	0 157 38                        # x264_src/common/dct.c:157:38
	leaq	8(%rbx), %rdx
.Ltmp435:
	#DEBUG_VALUE: sub8x8_dct:pix2 <- $rdx
	#DEBUG_VALUE: sub8x8_dct:dct <- $rdi
	#DEBUG_VALUE: sub8x8_dct:pix1 <- $rsi
	.loc	0 148 5 is_stmt 1               # x264_src/common/dct.c:148:5
	callq	sub4x4_dct
.Ltmp436:
	.loc	0 149 17                        # x264_src/common/dct.c:149:17
	leaq	160(%r15), %rdi
	.loc	0 149 26 is_stmt 0              # x264_src/common/dct.c:149:26
	leaq	12(%r14), %rsi
	.loc	0 149 36                        # x264_src/common/dct.c:149:36
	leaq	12(%rbx), %rdx
	.loc	0 149 5                         # x264_src/common/dct.c:149:5
	callq	sub4x4_dct
.Ltmp437:
	.loc	0 150 17 is_stmt 1              # x264_src/common/dct.c:150:17
	leaq	192(%r15), %rdi
	.loc	0 150 26 is_stmt 0              # x264_src/common/dct.c:150:26
	leaq	72(%r14), %rsi
	.loc	0 150 50                        # x264_src/common/dct.c:150:50
	leaq	136(%rbx), %rdx
	.loc	0 150 5                         # x264_src/common/dct.c:150:5
	callq	sub4x4_dct
.Ltmp438:
	.loc	0 151 17 is_stmt 1              # x264_src/common/dct.c:151:17
	leaq	224(%r15), %rdi
	.loc	0 151 26 is_stmt 0              # x264_src/common/dct.c:151:26
	leaq	76(%r14), %rsi
	.loc	0 151 50                        # x264_src/common/dct.c:151:50
	leaq	140(%rbx), %rdx
	.loc	0 151 5                         # x264_src/common/dct.c:151:5
	callq	sub4x4_dct
.Ltmp439:
	.loc	0 158 18 is_stmt 1              # x264_src/common/dct.c:158:18
	leaq	256(%r15), %rdi
	.loc	0 158 28 is_stmt 0              # x264_src/common/dct.c:158:28
	leaq	128(%r14), %rsi
	.loc	0 158 52                        # x264_src/common/dct.c:158:52
	leaq	256(%rbx), %rdx
.Ltmp440:
	#DEBUG_VALUE: sub8x8_dct:pix2 <- $rdx
	#DEBUG_VALUE: sub8x8_dct:dct <- $rdi
	#DEBUG_VALUE: sub8x8_dct:pix1 <- $rsi
	.loc	0 148 5 is_stmt 1               # x264_src/common/dct.c:148:5
	callq	sub4x4_dct
.Ltmp441:
	.loc	0 149 17                        # x264_src/common/dct.c:149:17
	leaq	288(%r15), %rdi
	.loc	0 149 26 is_stmt 0              # x264_src/common/dct.c:149:26
	leaq	132(%r14), %rsi
	.loc	0 149 36                        # x264_src/common/dct.c:149:36
	leaq	260(%rbx), %rdx
	.loc	0 149 5                         # x264_src/common/dct.c:149:5
	callq	sub4x4_dct
.Ltmp442:
	.loc	0 150 17 is_stmt 1              # x264_src/common/dct.c:150:17
	leaq	320(%r15), %rdi
	.loc	0 150 26 is_stmt 0              # x264_src/common/dct.c:150:26
	leaq	192(%r14), %rsi
	.loc	0 150 50                        # x264_src/common/dct.c:150:50
	leaq	384(%rbx), %rdx
	.loc	0 150 5                         # x264_src/common/dct.c:150:5
	callq	sub4x4_dct
.Ltmp443:
	.loc	0 151 17 is_stmt 1              # x264_src/common/dct.c:151:17
	leaq	352(%r15), %rdi
	.loc	0 151 26 is_stmt 0              # x264_src/common/dct.c:151:26
	leaq	196(%r14), %rsi
	.loc	0 151 50                        # x264_src/common/dct.c:151:50
	leaq	388(%rbx), %rdx
	.loc	0 151 5                         # x264_src/common/dct.c:151:5
	callq	sub4x4_dct
.Ltmp444:
	.loc	0 159 18 is_stmt 1              # x264_src/common/dct.c:159:18
	leaq	384(%r15), %rdi
	.loc	0 159 28 is_stmt 0              # x264_src/common/dct.c:159:28
	leaq	136(%r14), %rsi
	.loc	0 159 52                        # x264_src/common/dct.c:159:52
	leaq	264(%rbx), %rdx
.Ltmp445:
	#DEBUG_VALUE: sub8x8_dct:pix2 <- $rdx
	#DEBUG_VALUE: sub8x8_dct:dct <- $rdi
	#DEBUG_VALUE: sub8x8_dct:pix1 <- $rsi
	.loc	0 148 5 is_stmt 1               # x264_src/common/dct.c:148:5
	callq	sub4x4_dct
.Ltmp446:
	.loc	0 149 17                        # x264_src/common/dct.c:149:17
	leaq	416(%r15), %rdi
	.loc	0 149 26 is_stmt 0              # x264_src/common/dct.c:149:26
	leaq	140(%r14), %rsi
	.loc	0 149 36                        # x264_src/common/dct.c:149:36
	leaq	268(%rbx), %rdx
	.loc	0 149 5                         # x264_src/common/dct.c:149:5
	callq	sub4x4_dct
.Ltmp447:
	.loc	0 150 17 is_stmt 1              # x264_src/common/dct.c:150:17
	leaq	448(%r15), %rdi
	.loc	0 150 26 is_stmt 0              # x264_src/common/dct.c:150:26
	leaq	200(%r14), %rsi
	.loc	0 150 50                        # x264_src/common/dct.c:150:50
	leaq	392(%rbx), %rdx
	.loc	0 150 5                         # x264_src/common/dct.c:150:5
	callq	sub4x4_dct
.Ltmp448:
	.loc	0 151 17 is_stmt 1              # x264_src/common/dct.c:151:17
	addq	$480, %r15                      # imm = 0x1E0
.Ltmp449:
	#DEBUG_VALUE: sub16x16_dct:dct <- [DW_OP_LLVM_entry_value 1] $rdi
	.loc	0 151 26 is_stmt 0              # x264_src/common/dct.c:151:26
	addq	$204, %r14
.Ltmp450:
	#DEBUG_VALUE: sub16x16_dct:pix1 <- [DW_OP_LLVM_entry_value 1] $rsi
	.loc	0 151 50                        # x264_src/common/dct.c:151:50
	addq	$396, %rbx                      # imm = 0x18C
.Ltmp451:
	#DEBUG_VALUE: sub16x16_dct:pix2 <- [DW_OP_LLVM_entry_value 1] $rdx
	.loc	0 151 5                         # x264_src/common/dct.c:151:5
	movq	%r15, %rdi
	movq	%r14, %rsi
	movq	%rbx, %rdx
	.loc	0 151 5 epilogue_begin          # x264_src/common/dct.c:151:5
	popq	%rbx
	.cfi_def_cfa_offset 24
	popq	%r14
	.cfi_def_cfa_offset 16
	popq	%r15
	.cfi_def_cfa_offset 8
.Ltmp452:
	jmp	sub4x4_dct                      # TAILCALL
.Ltmp453:
.Lfunc_end7:
	.size	sub16x16_dct, .Lfunc_end7-sub16x16_dct
	.cfi_endproc
                                        # -- End function
	.p2align	4, 0x90                         # -- Begin function add16x16_idct
	.type	add16x16_idct,@function
add16x16_idct:                          # @add16x16_idct
.Lfunc_begin8:
	.loc	0 242 0 is_stmt 1               # x264_src/common/dct.c:242:0
	.cfi_startproc
# %bb.0:                                # %entry
	#DEBUG_VALUE: add16x16_idct:p_dst <- $rdi
	#DEBUG_VALUE: add16x16_idct:dct <- $rsi
	#DEBUG_VALUE: add8x8_idct:p_dst <- $rdi
	#DEBUG_VALUE: add8x8_idct:dct <- $rsi
	pushq	%r14
	.cfi_def_cfa_offset 16
	pushq	%rbx
	.cfi_def_cfa_offset 24
	pushq	%rax
	.cfi_def_cfa_offset 32
	.cfi_offset %rbx, -24
	.cfi_offset %r14, -16
	movq	%rsi, %rbx
	movq	%rdi, %r14
.Ltmp454:
	.loc	0 235 5 prologue_end            # x264_src/common/dct.c:235:5
	callq	add4x4_idct
.Ltmp455:
	#DEBUG_VALUE: add8x8_idct:dct <- $rbx
	#DEBUG_VALUE: add16x16_idct:dct <- $rbx
	#DEBUG_VALUE: add8x8_idct:p_dst <- $r14
	#DEBUG_VALUE: add16x16_idct:p_dst <- $r14
	.loc	0 236 19                        # x264_src/common/dct.c:236:19
	leaq	4(%r14), %rdi
	.loc	0 236 43 is_stmt 0              # x264_src/common/dct.c:236:43
	leaq	32(%rbx), %rsi
	.loc	0 236 5                         # x264_src/common/dct.c:236:5
	callq	add4x4_idct
.Ltmp456:
	.loc	0 237 19 is_stmt 1              # x264_src/common/dct.c:237:19
	leaq	128(%r14), %rdi
	.loc	0 237 43 is_stmt 0              # x264_src/common/dct.c:237:43
	leaq	64(%rbx), %rsi
	.loc	0 237 5                         # x264_src/common/dct.c:237:5
	callq	add4x4_idct
.Ltmp457:
	.loc	0 238 19 is_stmt 1              # x264_src/common/dct.c:238:19
	leaq	132(%r14), %rdi
	.loc	0 238 43 is_stmt 0              # x264_src/common/dct.c:238:43
	leaq	96(%rbx), %rsi
	.loc	0 238 5                         # x264_src/common/dct.c:238:5
	callq	add4x4_idct
.Ltmp458:
	.loc	0 244 19 is_stmt 1              # x264_src/common/dct.c:244:19
	leaq	8(%r14), %rdi
	.loc	0 244 44 is_stmt 0              # x264_src/common/dct.c:244:44
	leaq	128(%rbx), %rsi
.Ltmp459:
	#DEBUG_VALUE: add8x8_idct:dct <- $rsi
	#DEBUG_VALUE: add8x8_idct:p_dst <- $rdi
	.loc	0 235 5 is_stmt 1               # x264_src/common/dct.c:235:5
	callq	add4x4_idct
.Ltmp460:
	.loc	0 236 19                        # x264_src/common/dct.c:236:19
	leaq	12(%r14), %rdi
	.loc	0 236 43 is_stmt 0              # x264_src/common/dct.c:236:43
	leaq	160(%rbx), %rsi
	.loc	0 236 5                         # x264_src/common/dct.c:236:5
	callq	add4x4_idct
.Ltmp461:
	.loc	0 237 19 is_stmt 1              # x264_src/common/dct.c:237:19
	leaq	136(%r14), %rdi
	.loc	0 237 43 is_stmt 0              # x264_src/common/dct.c:237:43
	leaq	192(%rbx), %rsi
	.loc	0 237 5                         # x264_src/common/dct.c:237:5
	callq	add4x4_idct
.Ltmp462:
	.loc	0 238 19 is_stmt 1              # x264_src/common/dct.c:238:19
	leaq	140(%r14), %rdi
	.loc	0 238 43 is_stmt 0              # x264_src/common/dct.c:238:43
	leaq	224(%rbx), %rsi
	.loc	0 238 5                         # x264_src/common/dct.c:238:5
	callq	add4x4_idct
.Ltmp463:
	.loc	0 245 19 is_stmt 1              # x264_src/common/dct.c:245:19
	leaq	256(%r14), %rdi
	.loc	0 245 44 is_stmt 0              # x264_src/common/dct.c:245:44
	leaq	256(%rbx), %rsi
.Ltmp464:
	#DEBUG_VALUE: add8x8_idct:dct <- $rsi
	#DEBUG_VALUE: add8x8_idct:p_dst <- $rdi
	.loc	0 235 5 is_stmt 1               # x264_src/common/dct.c:235:5
	callq	add4x4_idct
.Ltmp465:
	.loc	0 236 19                        # x264_src/common/dct.c:236:19
	leaq	260(%r14), %rdi
	.loc	0 236 43 is_stmt 0              # x264_src/common/dct.c:236:43
	leaq	288(%rbx), %rsi
	.loc	0 236 5                         # x264_src/common/dct.c:236:5
	callq	add4x4_idct
.Ltmp466:
	.loc	0 237 19 is_stmt 1              # x264_src/common/dct.c:237:19
	leaq	384(%r14), %rdi
	.loc	0 237 43 is_stmt 0              # x264_src/common/dct.c:237:43
	leaq	320(%rbx), %rsi
	.loc	0 237 5                         # x264_src/common/dct.c:237:5
	callq	add4x4_idct
.Ltmp467:
	.loc	0 238 19 is_stmt 1              # x264_src/common/dct.c:238:19
	leaq	388(%r14), %rdi
	.loc	0 238 43 is_stmt 0              # x264_src/common/dct.c:238:43
	leaq	352(%rbx), %rsi
	.loc	0 238 5                         # x264_src/common/dct.c:238:5
	callq	add4x4_idct
.Ltmp468:
	.loc	0 246 19 is_stmt 1              # x264_src/common/dct.c:246:19
	leaq	264(%r14), %rdi
	.loc	0 246 44 is_stmt 0              # x264_src/common/dct.c:246:44
	leaq	384(%rbx), %rsi
.Ltmp469:
	#DEBUG_VALUE: add8x8_idct:dct <- $rsi
	#DEBUG_VALUE: add8x8_idct:p_dst <- $rdi
	.loc	0 235 5 is_stmt 1               # x264_src/common/dct.c:235:5
	callq	add4x4_idct
.Ltmp470:
	.loc	0 236 19                        # x264_src/common/dct.c:236:19
	leaq	268(%r14), %rdi
	.loc	0 236 43 is_stmt 0              # x264_src/common/dct.c:236:43
	leaq	416(%rbx), %rsi
	.loc	0 236 5                         # x264_src/common/dct.c:236:5
	callq	add4x4_idct
.Ltmp471:
	.loc	0 237 19 is_stmt 1              # x264_src/common/dct.c:237:19
	leaq	392(%r14), %rdi
	.loc	0 237 43 is_stmt 0              # x264_src/common/dct.c:237:43
	leaq	448(%rbx), %rsi
	.loc	0 237 5                         # x264_src/common/dct.c:237:5
	callq	add4x4_idct
.Ltmp472:
	.loc	0 238 19 is_stmt 1              # x264_src/common/dct.c:238:19
	addq	$396, %r14                      # imm = 0x18C
.Ltmp473:
	#DEBUG_VALUE: add16x16_idct:p_dst <- [DW_OP_LLVM_entry_value 1] $rdi
	.loc	0 238 43 is_stmt 0              # x264_src/common/dct.c:238:43
	addq	$480, %rbx                      # imm = 0x1E0
.Ltmp474:
	#DEBUG_VALUE: add16x16_idct:dct <- [DW_OP_LLVM_entry_value 1] $rsi
	.loc	0 238 5                         # x264_src/common/dct.c:238:5
	movq	%r14, %rdi
	movq	%rbx, %rsi
	.loc	0 238 5 epilogue_begin          # x264_src/common/dct.c:238:5
	addq	$8, %rsp
	.cfi_def_cfa_offset 24
	popq	%rbx
	.cfi_def_cfa_offset 16
	popq	%r14
	.cfi_def_cfa_offset 8
.Ltmp475:
	jmp	add4x4_idct                     # TAILCALL
.Ltmp476:
.Lfunc_end8:
	.size	add16x16_idct, .Lfunc_end8-add16x16_idct
	.cfi_endproc
                                        # -- End function
	.p2align	4, 0x90                         # -- Begin function add16x16_idct_dc
	.type	add16x16_idct_dc,@function
add16x16_idct_dc:                       # @add16x16_idct_dc
.Lfunc_begin9:
	.loc	0 384 0 is_stmt 1               # x264_src/common/dct.c:384:0
	.cfi_startproc
# %bb.0:                                # %entry
	#DEBUG_VALUE: add16x16_idct_dc:dct <- $rsi
	#DEBUG_VALUE: add16x16_idct_dc:p_dst <- $rdi
	pushq	%r14
	.cfi_def_cfa_offset 16
	pushq	%rbx
	.cfi_def_cfa_offset 24
	pushq	%rax
	.cfi_def_cfa_offset 32
	.cfi_offset %rbx, -24
	.cfi_offset %r14, -16
	movq	%rsi, %rbx
	movq	%rdi, %r14
.Ltmp477:
	#DEBUG_VALUE: i <- 0
	.loc	0 387 37 prologue_end           # x264_src/common/dct.c:387:37
	movswl	(%rsi), %esi
.Ltmp478:
	#DEBUG_VALUE: add16x16_idct_dc:dct <- $rbx
	.loc	0 387 9 is_stmt 0               # x264_src/common/dct.c:387:9
	callq	add4x4_idct_dc
.Ltmp479:
	#DEBUG_VALUE: add16x16_idct_dc:p_dst <- $r14
	.loc	0 388 26 is_stmt 1              # x264_src/common/dct.c:388:26
	leaq	4(%r14), %rdi
	.loc	0 388 37 is_stmt 0              # x264_src/common/dct.c:388:37
	movswl	2(%rbx), %esi
	.loc	0 388 9                         # x264_src/common/dct.c:388:9
	callq	add4x4_idct_dc
.Ltmp480:
	.loc	0 389 26 is_stmt 1              # x264_src/common/dct.c:389:26
	leaq	8(%r14), %rdi
	.loc	0 389 37 is_stmt 0              # x264_src/common/dct.c:389:37
	movswl	4(%rbx), %esi
	.loc	0 389 9                         # x264_src/common/dct.c:389:9
	callq	add4x4_idct_dc
.Ltmp481:
	.loc	0 390 26 is_stmt 1              # x264_src/common/dct.c:390:26
	leaq	12(%r14), %rdi
	.loc	0 390 37 is_stmt 0              # x264_src/common/dct.c:390:37
	movswl	6(%rbx), %esi
	.loc	0 390 9                         # x264_src/common/dct.c:390:9
	callq	add4x4_idct_dc
.Ltmp482:
	#DEBUG_VALUE: i <- 1
	#DEBUG_VALUE: add16x16_idct_dc:dct <- [DW_OP_plus_uconst 8, DW_OP_stack_value] $rbx
	.loc	0 385 49 is_stmt 1              # x264_src/common/dct.c:385:49
	leaq	128(%r14), %rdi
.Ltmp483:
	#DEBUG_VALUE: add16x16_idct_dc:p_dst <- $rdi
	.loc	0 387 37                        # x264_src/common/dct.c:387:37
	movswl	8(%rbx), %esi
	.loc	0 387 9 is_stmt 0               # x264_src/common/dct.c:387:9
	callq	add4x4_idct_dc
.Ltmp484:
	.loc	0 388 26 is_stmt 1              # x264_src/common/dct.c:388:26
	leaq	132(%r14), %rdi
	.loc	0 388 37 is_stmt 0              # x264_src/common/dct.c:388:37
	movswl	10(%rbx), %esi
	.loc	0 388 9                         # x264_src/common/dct.c:388:9
	callq	add4x4_idct_dc
.Ltmp485:
	.loc	0 389 26 is_stmt 1              # x264_src/common/dct.c:389:26
	leaq	136(%r14), %rdi
	.loc	0 389 37 is_stmt 0              # x264_src/common/dct.c:389:37
	movswl	12(%rbx), %esi
	.loc	0 389 9                         # x264_src/common/dct.c:389:9
	callq	add4x4_idct_dc
.Ltmp486:
	.loc	0 390 26 is_stmt 1              # x264_src/common/dct.c:390:26
	leaq	140(%r14), %rdi
	.loc	0 390 37 is_stmt 0              # x264_src/common/dct.c:390:37
	movswl	14(%rbx), %esi
	.loc	0 390 9                         # x264_src/common/dct.c:390:9
	callq	add4x4_idct_dc
.Ltmp487:
	#DEBUG_VALUE: i <- 2
	#DEBUG_VALUE: add16x16_idct_dc:dct <- [DW_OP_plus_uconst 16, DW_OP_stack_value] $rbx
	.loc	0 385 49 is_stmt 1              # x264_src/common/dct.c:385:49
	leaq	256(%r14), %rdi
.Ltmp488:
	#DEBUG_VALUE: add16x16_idct_dc:p_dst <- $rdi
	.loc	0 387 37                        # x264_src/common/dct.c:387:37
	movswl	16(%rbx), %esi
	.loc	0 387 9 is_stmt 0               # x264_src/common/dct.c:387:9
	callq	add4x4_idct_dc
.Ltmp489:
	.loc	0 388 26 is_stmt 1              # x264_src/common/dct.c:388:26
	leaq	260(%r14), %rdi
	.loc	0 388 37 is_stmt 0              # x264_src/common/dct.c:388:37
	movswl	18(%rbx), %esi
	.loc	0 388 9                         # x264_src/common/dct.c:388:9
	callq	add4x4_idct_dc
.Ltmp490:
	.loc	0 389 26 is_stmt 1              # x264_src/common/dct.c:389:26
	leaq	264(%r14), %rdi
	.loc	0 389 37 is_stmt 0              # x264_src/common/dct.c:389:37
	movswl	20(%rbx), %esi
	.loc	0 389 9                         # x264_src/common/dct.c:389:9
	callq	add4x4_idct_dc
.Ltmp491:
	.loc	0 390 26 is_stmt 1              # x264_src/common/dct.c:390:26
	leaq	268(%r14), %rdi
	.loc	0 390 37 is_stmt 0              # x264_src/common/dct.c:390:37
	movswl	22(%rbx), %esi
	.loc	0 390 9                         # x264_src/common/dct.c:390:9
	callq	add4x4_idct_dc
.Ltmp492:
	#DEBUG_VALUE: i <- 3
	#DEBUG_VALUE: add16x16_idct_dc:dct <- [DW_OP_plus_uconst 24, DW_OP_stack_value] $rbx
	.loc	0 385 49 is_stmt 1              # x264_src/common/dct.c:385:49
	leaq	384(%r14), %rdi
.Ltmp493:
	#DEBUG_VALUE: add16x16_idct_dc:p_dst <- $rdi
	.loc	0 387 37                        # x264_src/common/dct.c:387:37
	movswl	24(%rbx), %esi
	.loc	0 387 9 is_stmt 0               # x264_src/common/dct.c:387:9
	callq	add4x4_idct_dc
.Ltmp494:
	.loc	0 388 26 is_stmt 1              # x264_src/common/dct.c:388:26
	leaq	388(%r14), %rdi
	.loc	0 388 37 is_stmt 0              # x264_src/common/dct.c:388:37
	movswl	26(%rbx), %esi
	.loc	0 388 9                         # x264_src/common/dct.c:388:9
	callq	add4x4_idct_dc
.Ltmp495:
	.loc	0 389 26 is_stmt 1              # x264_src/common/dct.c:389:26
	leaq	392(%r14), %rdi
	.loc	0 389 37 is_stmt 0              # x264_src/common/dct.c:389:37
	movswl	28(%rbx), %esi
	.loc	0 389 9                         # x264_src/common/dct.c:389:9
	callq	add4x4_idct_dc
.Ltmp496:
	.loc	0 390 26 is_stmt 1              # x264_src/common/dct.c:390:26
	addq	$396, %r14                      # imm = 0x18C
	.loc	0 390 37 is_stmt 0              # x264_src/common/dct.c:390:37
	movswl	30(%rbx), %esi
	.loc	0 390 9                         # x264_src/common/dct.c:390:9
	movq	%r14, %rdi
	.loc	0 390 9 epilogue_begin          # x264_src/common/dct.c:390:9
	addq	$8, %rsp
	.cfi_def_cfa_offset 24
	popq	%rbx
.Ltmp497:
	.cfi_def_cfa_offset 16
	popq	%r14
	.cfi_def_cfa_offset 8
.Ltmp498:
	jmp	add4x4_idct_dc                  # TAILCALL
.Ltmp499:
.Lfunc_end9:
	.size	add16x16_idct_dc, .Lfunc_end9-add16x16_idct_dc
	.cfi_endproc
                                        # -- End function
	.p2align	4, 0x90                         # -- Begin function sub8x8_dct8
	.type	sub8x8_dct8,@function
sub8x8_dct8:                            # @sub8x8_dct8
.Lfunc_begin10:
	.loc	0 281 0 is_stmt 1               # x264_src/common/dct.c:281:0
	.cfi_startproc
# %bb.0:                                # %entry
	#DEBUG_VALUE: sub8x8_dct8:dct <- $rdi
	#DEBUG_VALUE: sub8x8_dct8:pix1 <- $rsi
	#DEBUG_VALUE: sub8x8_dct8:pix2 <- $rdx
	pushq	%rbp
	.cfi_def_cfa_offset 16
	pushq	%r15
	.cfi_def_cfa_offset 24
	pushq	%r14
	.cfi_def_cfa_offset 32
	pushq	%r13
	.cfi_def_cfa_offset 40
	pushq	%r12
	.cfi_def_cfa_offset 48
	pushq	%rbx
	.cfi_def_cfa_offset 56
	subq	$40, %rsp
	.cfi_def_cfa_offset 96
	.cfi_offset %rbx, -56
	.cfi_offset %r12, -48
	.cfi_offset %r13, -40
	.cfi_offset %r14, -32
	.cfi_offset %r15, -24
	.cfi_offset %rbp, -16
	movq	%rdi, -104(%rsp)                # 8-byte Spill
.Ltmp500:
	#DEBUG_VALUE: sub8x8_dct8:dct <- [DW_OP_constu 104, DW_OP_minus] [$rsp+0]
	#DEBUG_VALUE: pixel_sub_wxh:diff <- [DW_OP_constu 96, DW_OP_minus, DW_OP_stack_value] $rsp
	#DEBUG_VALUE: pixel_sub_wxh:i_size <- 8
	#DEBUG_VALUE: pixel_sub_wxh:i_pix1 <- 16
	#DEBUG_VALUE: pixel_sub_wxh:i_pix2 <- 32
	#DEBUG_VALUE: y <- 0
	#DEBUG_VALUE: pixel_sub_wxh:pix1 <- $rsi
	#DEBUG_VALUE: pixel_sub_wxh:pix2 <- $rdx
	#DEBUG_VALUE: x <- 7
	.loc	0 106 34 prologue_end           # x264_src/common/dct.c:106:34
	movq	(%rsi), %xmm1                   # xmm1 = mem[0],zero
	pxor	%xmm0, %xmm0
	punpcklbw	%xmm0, %xmm1            # xmm1 = xmm1[0],xmm0[0],xmm1[1],xmm0[1],xmm1[2],xmm0[2],xmm1[3],xmm0[3],xmm1[4],xmm0[4],xmm1[5],xmm0[5],xmm1[6],xmm0[6],xmm1[7],xmm0[7]
	.loc	0 106 44 is_stmt 0              # x264_src/common/dct.c:106:44
	movq	(%rdx), %xmm2                   # xmm2 = mem[0],zero
	punpcklbw	%xmm0, %xmm2            # xmm2 = xmm2[0],xmm0[0],xmm2[1],xmm0[1],xmm2[2],xmm0[2],xmm2[3],xmm0[3],xmm2[4],xmm0[4],xmm2[5],xmm0[5],xmm2[6],xmm0[6],xmm2[7],xmm0[7]
	.loc	0 106 42                        # x264_src/common/dct.c:106:42
	psubw	%xmm2, %xmm1
	.loc	0 106 32                        # x264_src/common/dct.c:106:32
	movdqa	%xmm1, -96(%rsp)
.Ltmp501:
	#DEBUG_VALUE: x <- 8
	#DEBUG_VALUE: pixel_sub_wxh:pix1 <- undef
	#DEBUG_VALUE: pixel_sub_wxh:pix2 <- undef
	#DEBUG_VALUE: y <- 1
	#DEBUG_VALUE: x <- 0
	#DEBUG_VALUE: x <- 7
	.loc	0 106 34                        # x264_src/common/dct.c:106:34
	movq	16(%rsi), %xmm1                 # xmm1 = mem[0],zero
	punpcklbw	%xmm0, %xmm1            # xmm1 = xmm1[0],xmm0[0],xmm1[1],xmm0[1],xmm1[2],xmm0[2],xmm1[3],xmm0[3],xmm1[4],xmm0[4],xmm1[5],xmm0[5],xmm1[6],xmm0[6],xmm1[7],xmm0[7]
	.loc	0 106 44                        # x264_src/common/dct.c:106:44
	movq	32(%rdx), %xmm2                 # xmm2 = mem[0],zero
	punpcklbw	%xmm0, %xmm2            # xmm2 = xmm2[0],xmm0[0],xmm2[1],xmm0[1],xmm2[2],xmm0[2],xmm2[3],xmm0[3],xmm2[4],xmm0[4],xmm2[5],xmm0[5],xmm2[6],xmm0[6],xmm2[7],xmm0[7]
	.loc	0 106 42                        # x264_src/common/dct.c:106:42
	psubw	%xmm2, %xmm1
	.loc	0 106 32                        # x264_src/common/dct.c:106:32
	movdqa	%xmm1, -80(%rsp)
.Ltmp502:
	#DEBUG_VALUE: x <- 8
	#DEBUG_VALUE: y <- 2
	#DEBUG_VALUE: x <- 0
	#DEBUG_VALUE: x <- 7
	.loc	0 106 34                        # x264_src/common/dct.c:106:34
	movq	32(%rsi), %xmm1                 # xmm1 = mem[0],zero
	punpcklbw	%xmm0, %xmm1            # xmm1 = xmm1[0],xmm0[0],xmm1[1],xmm0[1],xmm1[2],xmm0[2],xmm1[3],xmm0[3],xmm1[4],xmm0[4],xmm1[5],xmm0[5],xmm1[6],xmm0[6],xmm1[7],xmm0[7]
	.loc	0 106 44                        # x264_src/common/dct.c:106:44
	movq	64(%rdx), %xmm2                 # xmm2 = mem[0],zero
	punpcklbw	%xmm0, %xmm2            # xmm2 = xmm2[0],xmm0[0],xmm2[1],xmm0[1],xmm2[2],xmm0[2],xmm2[3],xmm0[3],xmm2[4],xmm0[4],xmm2[5],xmm0[5],xmm2[6],xmm0[6],xmm2[7],xmm0[7]
	.loc	0 106 42                        # x264_src/common/dct.c:106:42
	psubw	%xmm2, %xmm1
	.loc	0 106 32                        # x264_src/common/dct.c:106:32
	movdqa	%xmm1, -64(%rsp)
.Ltmp503:
	#DEBUG_VALUE: x <- 8
	#DEBUG_VALUE: y <- 3
	#DEBUG_VALUE: x <- 0
	#DEBUG_VALUE: x <- 7
	.loc	0 106 34                        # x264_src/common/dct.c:106:34
	movq	48(%rsi), %xmm1                 # xmm1 = mem[0],zero
	punpcklbw	%xmm0, %xmm1            # xmm1 = xmm1[0],xmm0[0],xmm1[1],xmm0[1],xmm1[2],xmm0[2],xmm1[3],xmm0[3],xmm1[4],xmm0[4],xmm1[5],xmm0[5],xmm1[6],xmm0[6],xmm1[7],xmm0[7]
	.loc	0 106 44                        # x264_src/common/dct.c:106:44
	movq	96(%rdx), %xmm2                 # xmm2 = mem[0],zero
	punpcklbw	%xmm0, %xmm2            # xmm2 = xmm2[0],xmm0[0],xmm2[1],xmm0[1],xmm2[2],xmm0[2],xmm2[3],xmm0[3],xmm2[4],xmm0[4],xmm2[5],xmm0[5],xmm2[6],xmm0[6],xmm2[7],xmm0[7]
	.loc	0 106 42                        # x264_src/common/dct.c:106:42
	psubw	%xmm2, %xmm1
	.loc	0 106 32                        # x264_src/common/dct.c:106:32
	movdqa	%xmm1, -48(%rsp)
.Ltmp504:
	#DEBUG_VALUE: x <- 8
	#DEBUG_VALUE: y <- 4
	#DEBUG_VALUE: x <- 0
	#DEBUG_VALUE: x <- 7
	.loc	0 106 34                        # x264_src/common/dct.c:106:34
	movq	64(%rsi), %xmm1                 # xmm1 = mem[0],zero
	punpcklbw	%xmm0, %xmm1            # xmm1 = xmm1[0],xmm0[0],xmm1[1],xmm0[1],xmm1[2],xmm0[2],xmm1[3],xmm0[3],xmm1[4],xmm0[4],xmm1[5],xmm0[5],xmm1[6],xmm0[6],xmm1[7],xmm0[7]
	.loc	0 106 44                        # x264_src/common/dct.c:106:44
	movq	128(%rdx), %xmm2                # xmm2 = mem[0],zero
	punpcklbw	%xmm0, %xmm2            # xmm2 = xmm2[0],xmm0[0],xmm2[1],xmm0[1],xmm2[2],xmm0[2],xmm2[3],xmm0[3],xmm2[4],xmm0[4],xmm2[5],xmm0[5],xmm2[6],xmm0[6],xmm2[7],xmm0[7]
	.loc	0 106 42                        # x264_src/common/dct.c:106:42
	psubw	%xmm2, %xmm1
	.loc	0 106 32                        # x264_src/common/dct.c:106:32
	movdqa	%xmm1, -32(%rsp)
.Ltmp505:
	#DEBUG_VALUE: x <- 8
	#DEBUG_VALUE: y <- 5
	#DEBUG_VALUE: x <- 0
	#DEBUG_VALUE: x <- 7
	.loc	0 106 34                        # x264_src/common/dct.c:106:34
	movq	80(%rsi), %xmm1                 # xmm1 = mem[0],zero
	punpcklbw	%xmm0, %xmm1            # xmm1 = xmm1[0],xmm0[0],xmm1[1],xmm0[1],xmm1[2],xmm0[2],xmm1[3],xmm0[3],xmm1[4],xmm0[4],xmm1[5],xmm0[5],xmm1[6],xmm0[6],xmm1[7],xmm0[7]
	.loc	0 106 44                        # x264_src/common/dct.c:106:44
	movq	160(%rdx), %xmm2                # xmm2 = mem[0],zero
	punpcklbw	%xmm0, %xmm2            # xmm2 = xmm2[0],xmm0[0],xmm2[1],xmm0[1],xmm2[2],xmm0[2],xmm2[3],xmm0[3],xmm2[4],xmm0[4],xmm2[5],xmm0[5],xmm2[6],xmm0[6],xmm2[7],xmm0[7]
	.loc	0 106 42                        # x264_src/common/dct.c:106:42
	psubw	%xmm2, %xmm1
	.loc	0 106 32                        # x264_src/common/dct.c:106:32
	movdqa	%xmm1, -16(%rsp)
.Ltmp506:
	#DEBUG_VALUE: x <- 8
	#DEBUG_VALUE: y <- 6
	#DEBUG_VALUE: x <- 0
	#DEBUG_VALUE: x <- 7
	.loc	0 106 34                        # x264_src/common/dct.c:106:34
	movq	96(%rsi), %xmm1                 # xmm1 = mem[0],zero
	punpcklbw	%xmm0, %xmm1            # xmm1 = xmm1[0],xmm0[0],xmm1[1],xmm0[1],xmm1[2],xmm0[2],xmm1[3],xmm0[3],xmm1[4],xmm0[4],xmm1[5],xmm0[5],xmm1[6],xmm0[6],xmm1[7],xmm0[7]
	.loc	0 106 44                        # x264_src/common/dct.c:106:44
	movq	192(%rdx), %xmm2                # xmm2 = mem[0],zero
	punpcklbw	%xmm0, %xmm2            # xmm2 = xmm2[0],xmm0[0],xmm2[1],xmm0[1],xmm2[2],xmm0[2],xmm2[3],xmm0[3],xmm2[4],xmm0[4],xmm2[5],xmm0[5],xmm2[6],xmm0[6],xmm2[7],xmm0[7]
	.loc	0 106 42                        # x264_src/common/dct.c:106:42
	psubw	%xmm2, %xmm1
	.loc	0 106 32                        # x264_src/common/dct.c:106:32
	movdqa	%xmm1, (%rsp)
.Ltmp507:
	#DEBUG_VALUE: x <- 8
	#DEBUG_VALUE: y <- 7
	#DEBUG_VALUE: x <- 0
	#DEBUG_VALUE: x <- 7
	.loc	0 106 34                        # x264_src/common/dct.c:106:34
	movq	112(%rsi), %xmm1                # xmm1 = mem[0],zero
	punpcklbw	%xmm0, %xmm1            # xmm1 = xmm1[0],xmm0[0],xmm1[1],xmm0[1],xmm1[2],xmm0[2],xmm1[3],xmm0[3],xmm1[4],xmm0[4],xmm1[5],xmm0[5],xmm1[6],xmm0[6],xmm1[7],xmm0[7]
	.loc	0 106 44                        # x264_src/common/dct.c:106:44
	movq	224(%rdx), %xmm2                # xmm2 = mem[0],zero
	punpcklbw	%xmm0, %xmm2            # xmm2 = xmm2[0],xmm0[0],xmm2[1],xmm0[1],xmm2[2],xmm0[2],xmm2[3],xmm0[3],xmm2[4],xmm0[4],xmm2[5],xmm0[5],xmm2[6],xmm0[6],xmm2[7],xmm0[7]
	.loc	0 106 42                        # x264_src/common/dct.c:106:42
	psubw	%xmm2, %xmm1
	.loc	0 106 32                        # x264_src/common/dct.c:106:32
	movdqa	%xmm1, 16(%rsp)
	xorl	%eax, %eax
.Ltmp508:
	#DEBUG_VALUE: x <- 8
	#DEBUG_VALUE: y <- 8
	.loc	0 0 32                          # x264_src/common/dct.c:0:32
	jmp	.LBB10_1
.Ltmp509:
	.p2align	4, 0x90
.LBB10_9:                               # %pred.store.continue472
                                        #   in Loop: Header=BB10_1 Depth=1
	#DEBUG_VALUE: sub8x8_dct8:dct <- [DW_OP_constu 104, DW_OP_minus] [$rsp+0]
	#DEBUG_VALUE: sub8x8_dct8:pix1 <- [DW_OP_LLVM_entry_value 1] $rsi
	#DEBUG_VALUE: sub8x8_dct8:pix2 <- [DW_OP_LLVM_entry_value 1] $rdx
	.loc	0 288 29 is_stmt 1              # x264_src/common/dct.c:288:29
	addq	$4, %rax
	cmpq	$8, %rax
	je	.LBB10_10
.Ltmp510:
.LBB10_1:                               # %vector.body
                                        # =>This Inner Loop Header: Depth=1
	#DEBUG_VALUE: sub8x8_dct8:dct <- [DW_OP_constu 104, DW_OP_minus] [$rsp+0]
	#DEBUG_VALUE: sub8x8_dct8:pix1 <- [DW_OP_LLVM_entry_value 1] $rsi
	#DEBUG_VALUE: sub8x8_dct8:pix2 <- [DW_OP_LLVM_entry_value 1] $rdx
	.loc	0 0 29 is_stmt 0                # x264_src/common/dct.c:0:29
	cmpq	$7, %rax
	.loc	0 288 5                         # x264_src/common/dct.c:288:5
	jbe	.LBB10_2
.Ltmp511:
# %bb.3:                                # %pred.store.continue
                                        #   in Loop: Header=BB10_1 Depth=1
	#DEBUG_VALUE: sub8x8_dct8:dct <- [DW_OP_constu 104, DW_OP_minus] [$rsp+0]
	#DEBUG_VALUE: sub8x8_dct8:pix1 <- [DW_OP_LLVM_entry_value 1] $rsi
	#DEBUG_VALUE: sub8x8_dct8:pix2 <- [DW_OP_LLVM_entry_value 1] $rdx
	.loc	0 0 5                           # x264_src/common/dct.c:0:5
	cmpq	$7, %rax
.Ltmp512:
	.loc	0 289 9 is_stmt 1               # x264_src/common/dct.c:289:9
	jbe	.LBB10_4
.Ltmp513:
.LBB10_5:                               # %pred.store.continue468
                                        #   in Loop: Header=BB10_1 Depth=1
	#DEBUG_VALUE: sub8x8_dct8:dct <- [DW_OP_constu 104, DW_OP_minus] [$rsp+0]
	#DEBUG_VALUE: sub8x8_dct8:pix1 <- [DW_OP_LLVM_entry_value 1] $rsi
	#DEBUG_VALUE: sub8x8_dct8:pix2 <- [DW_OP_LLVM_entry_value 1] $rdx
	.loc	0 0 9 is_stmt 0                 # x264_src/common/dct.c:0:9
	cmpq	$7, %rax
	.loc	0 289 9                         # x264_src/common/dct.c:289:9
	jbe	.LBB10_6
.Ltmp514:
.LBB10_7:                               # %pred.store.continue470
                                        #   in Loop: Header=BB10_1 Depth=1
	#DEBUG_VALUE: sub8x8_dct8:dct <- [DW_OP_constu 104, DW_OP_minus] [$rsp+0]
	#DEBUG_VALUE: sub8x8_dct8:pix1 <- [DW_OP_LLVM_entry_value 1] $rsi
	#DEBUG_VALUE: sub8x8_dct8:pix2 <- [DW_OP_LLVM_entry_value 1] $rdx
	.loc	0 0 9                           # x264_src/common/dct.c:0:9
	cmpq	$7, %rax
	.loc	0 289 9                         # x264_src/common/dct.c:289:9
	ja	.LBB10_9
	jmp	.LBB10_8
.Ltmp515:
	.p2align	4, 0x90
.LBB10_2:                               # %pred.store.if
                                        #   in Loop: Header=BB10_1 Depth=1
	#DEBUG_VALUE: sub8x8_dct8:dct <- [DW_OP_constu 104, DW_OP_minus] [$rsp+0]
	#DEBUG_VALUE: sub8x8_dct8:pix1 <- [DW_OP_LLVM_entry_value 1] $rsi
	#DEBUG_VALUE: sub8x8_dct8:pix2 <- [DW_OP_LLVM_entry_value 1] $rdx
	movswl	-96(%rsp,%rax,2), %ecx
	movl	%ecx, -112(%rsp)                # 4-byte Spill
	movswl	16(%rsp,%rax,2), %r10d
	movswl	-80(%rsp,%rax,2), %ebp
	movswl	(%rsp,%rax,2), %r11d
	movswl	-64(%rsp,%rax,2), %r14d
	movswl	-16(%rsp,%rax,2), %r8d
	movswl	-48(%rsp,%rax,2), %r15d
	movswl	-32(%rsp,%rax,2), %r9d
	movl	%r15d, %r12d
	subl	%r9d, %r12d
	movl	%ecx, %esi
	subl	%r10d, %esi
	movl	%ebp, %ecx
	subl	%r11d, %ecx
	movl	%r14d, %r13d
	subl	%r8d, %r13d
	movl	%ecx, %edi
	sarl	%edi
	movl	%esi, %edx
	sarl	%edx
	addl	%ecx, %edi
	addl	%esi, %edx
	addl	%ecx, %edx
	leal	(%r12,%r13), %ebx
	subl	%r13d, %ecx
	addl	%r13d, %edx
                                        # kill: def $r13d killed $r13d killed $r13
	sarl	%r13d
	addl	%ebx, %r13d
	movl	%esi, %ebx
	subl	%edi, %ebx
	addl	%r12d, %ecx
	addl	%r12d, %ebx
	movl	%r12d, %edi
	sarl	%edi
	addl	%edi, %ecx
	addl	%ebp, %r11d
	addl	%r14d, %r8d
	addl	-112(%rsp), %r10d               # 4-byte Folded Reload
	addl	%r15d, %r9d
	subl	%r13d, %esi
	movl	%r11d, %edi
	subl	%r8d, %edi
	addl	%r11d, %r8d
	movl	%r10d, %r11d
	subl	%r9d, %r11d
	addl	%r10d, %r9d
	leal	(%r9,%r8), %r10d
	movw	%r10w, -96(%rsp,%rax,2)
	movl	%ecx, %r10d
	shrl	$2, %r10d
	addl	%edx, %r10d
	movw	%r10w, -80(%rsp,%rax,2)
	movl	%edi, %r10d
	shrl	%r10d
	addl	%r11d, %r10d
	movw	%r10w, -64(%rsp,%rax,2)
	movl	%ebx, %r10d
	shrl	$2, %r10d
	addl	%esi, %r10d
	movw	%r10w, -48(%rsp,%rax,2)
	subl	%r8d, %r9d
	movw	%r9w, -32(%rsp,%rax,2)
	shrl	$2, %esi
	subl	%esi, %ebx
	movw	%bx, -16(%rsp,%rax,2)
	shrl	%r11d
	subl	%edi, %r11d
	movw	%r11w, (%rsp,%rax,2)
	shrl	$2, %edx
	subl	%ecx, %edx
	movw	%dx, 16(%rsp,%rax,2)
	cmpq	$7, %rax
	ja	.LBB10_5
.Ltmp516:
.LBB10_4:                               # %pred.store.if467
                                        #   in Loop: Header=BB10_1 Depth=1
	#DEBUG_VALUE: sub8x8_dct8:dct <- [DW_OP_constu 104, DW_OP_minus] [$rsp+0]
	#DEBUG_VALUE: sub8x8_dct8:pix1 <- [DW_OP_LLVM_entry_value 1] $rsi
	#DEBUG_VALUE: sub8x8_dct8:pix2 <- [DW_OP_LLVM_entry_value 1] $rdx
	movswl	-94(%rsp,%rax,2), %ecx
	movl	%ecx, -112(%rsp)                # 4-byte Spill
	movswl	18(%rsp,%rax,2), %r10d
	movswl	-78(%rsp,%rax,2), %ebp
	movswl	2(%rsp,%rax,2), %r11d
	movswl	-62(%rsp,%rax,2), %r14d
	movswl	-14(%rsp,%rax,2), %r8d
	movswl	-46(%rsp,%rax,2), %r15d
	movswl	-30(%rsp,%rax,2), %r9d
	movl	%r15d, %r12d
	subl	%r9d, %r12d
	movl	%ecx, %esi
	subl	%r10d, %esi
	movl	%ebp, %ecx
	subl	%r11d, %ecx
	movl	%r14d, %r13d
	subl	%r8d, %r13d
	movl	%ecx, %edi
	sarl	%edi
	movl	%esi, %edx
	sarl	%edx
	addl	%ecx, %edi
	addl	%esi, %edx
	addl	%ecx, %edx
	leal	(%r12,%r13), %ebx
	subl	%r13d, %ecx
	addl	%r13d, %edx
                                        # kill: def $r13d killed $r13d killed $r13
	sarl	%r13d
	addl	%ebx, %r13d
	movl	%esi, %ebx
	subl	%edi, %ebx
	addl	%r12d, %ecx
	addl	%r12d, %ebx
	movl	%r12d, %edi
	sarl	%edi
	addl	%edi, %ecx
	addl	%ebp, %r11d
	addl	%r14d, %r8d
	addl	-112(%rsp), %r10d               # 4-byte Folded Reload
	addl	%r15d, %r9d
	subl	%r13d, %esi
	movl	%r11d, %edi
	subl	%r8d, %edi
	addl	%r11d, %r8d
	movl	%r10d, %r11d
	subl	%r9d, %r11d
	addl	%r10d, %r9d
	leal	(%r9,%r8), %r10d
	movw	%r10w, -94(%rsp,%rax,2)
	movl	%ecx, %r10d
	shrl	$2, %r10d
	addl	%edx, %r10d
	movw	%r10w, -78(%rsp,%rax,2)
	movl	%edi, %r10d
	shrl	%r10d
	addl	%r11d, %r10d
	movw	%r10w, -62(%rsp,%rax,2)
	movl	%ebx, %r10d
	shrl	$2, %r10d
	addl	%esi, %r10d
	movw	%r10w, -46(%rsp,%rax,2)
	subl	%r8d, %r9d
	movw	%r9w, -30(%rsp,%rax,2)
	shrl	$2, %esi
	subl	%esi, %ebx
	movw	%bx, -14(%rsp,%rax,2)
	shrl	%r11d
	subl	%edi, %r11d
	movw	%r11w, 2(%rsp,%rax,2)
	shrl	$2, %edx
	subl	%ecx, %edx
	movw	%dx, 18(%rsp,%rax,2)
	cmpq	$7, %rax
	ja	.LBB10_7
.Ltmp517:
.LBB10_6:                               # %pred.store.if469
                                        #   in Loop: Header=BB10_1 Depth=1
	#DEBUG_VALUE: sub8x8_dct8:dct <- [DW_OP_constu 104, DW_OP_minus] [$rsp+0]
	#DEBUG_VALUE: sub8x8_dct8:pix1 <- [DW_OP_LLVM_entry_value 1] $rsi
	#DEBUG_VALUE: sub8x8_dct8:pix2 <- [DW_OP_LLVM_entry_value 1] $rdx
	movswl	-92(%rsp,%rax,2), %ecx
	movl	%ecx, -112(%rsp)                # 4-byte Spill
	movswl	20(%rsp,%rax,2), %r10d
	movswl	-76(%rsp,%rax,2), %ebp
	movswl	4(%rsp,%rax,2), %r11d
	movswl	-60(%rsp,%rax,2), %r14d
	movswl	-12(%rsp,%rax,2), %r8d
	movswl	-44(%rsp,%rax,2), %r15d
	movswl	-28(%rsp,%rax,2), %r9d
	movl	%r15d, %r12d
	subl	%r9d, %r12d
	movl	%ecx, %esi
	subl	%r10d, %esi
	movl	%ebp, %ecx
	subl	%r11d, %ecx
	movl	%r14d, %r13d
	subl	%r8d, %r13d
	movl	%ecx, %edi
	sarl	%edi
	movl	%esi, %edx
	sarl	%edx
	addl	%ecx, %edi
	addl	%esi, %edx
	addl	%ecx, %edx
	leal	(%r12,%r13), %ebx
	subl	%r13d, %ecx
	addl	%r13d, %edx
                                        # kill: def $r13d killed $r13d killed $r13
	sarl	%r13d
	addl	%ebx, %r13d
	movl	%esi, %ebx
	subl	%edi, %ebx
	addl	%r12d, %ecx
	addl	%r12d, %ebx
	movl	%r12d, %edi
	sarl	%edi
	addl	%edi, %ecx
	addl	%ebp, %r11d
	addl	%r14d, %r8d
	addl	-112(%rsp), %r10d               # 4-byte Folded Reload
	addl	%r15d, %r9d
	subl	%r13d, %esi
	movl	%r11d, %edi
	subl	%r8d, %edi
	addl	%r11d, %r8d
	movl	%r10d, %r11d
	subl	%r9d, %r11d
	addl	%r10d, %r9d
	leal	(%r9,%r8), %r10d
	movw	%r10w, -92(%rsp,%rax,2)
	movl	%ecx, %r10d
	shrl	$2, %r10d
	addl	%edx, %r10d
	movw	%r10w, -76(%rsp,%rax,2)
	movl	%edi, %r10d
	shrl	%r10d
	addl	%r11d, %r10d
	movw	%r10w, -60(%rsp,%rax,2)
	movl	%ebx, %r10d
	shrl	$2, %r10d
	addl	%esi, %r10d
	movw	%r10w, -44(%rsp,%rax,2)
	subl	%r8d, %r9d
	movw	%r9w, -28(%rsp,%rax,2)
	shrl	$2, %esi
	subl	%esi, %ebx
	movw	%bx, -12(%rsp,%rax,2)
	shrl	%r11d
	subl	%edi, %r11d
	movw	%r11w, 4(%rsp,%rax,2)
	shrl	$2, %edx
	subl	%ecx, %edx
	movw	%dx, 20(%rsp,%rax,2)
	cmpq	$7, %rax
	ja	.LBB10_9
.Ltmp518:
.LBB10_8:                               # %pred.store.if471
                                        #   in Loop: Header=BB10_1 Depth=1
	#DEBUG_VALUE: sub8x8_dct8:dct <- [DW_OP_constu 104, DW_OP_minus] [$rsp+0]
	#DEBUG_VALUE: sub8x8_dct8:pix1 <- [DW_OP_LLVM_entry_value 1] $rsi
	#DEBUG_VALUE: sub8x8_dct8:pix2 <- [DW_OP_LLVM_entry_value 1] $rdx
	movswl	-90(%rsp,%rax,2), %ecx
	movl	%ecx, -112(%rsp)                # 4-byte Spill
	movswl	22(%rsp,%rax,2), %r10d
	movswl	-74(%rsp,%rax,2), %ebp
	movswl	6(%rsp,%rax,2), %r11d
	movswl	-58(%rsp,%rax,2), %r14d
	movswl	-10(%rsp,%rax,2), %r8d
	movswl	-42(%rsp,%rax,2), %r15d
	movswl	-26(%rsp,%rax,2), %r9d
	movl	%r15d, %r12d
	subl	%r9d, %r12d
	movl	%ecx, %esi
	subl	%r10d, %esi
	movl	%ebp, %ecx
	subl	%r11d, %ecx
	movl	%r14d, %r13d
	subl	%r8d, %r13d
	movl	%ecx, %edi
	sarl	%edi
	movl	%esi, %edx
	sarl	%edx
	addl	%ecx, %edi
	addl	%esi, %edx
	addl	%ecx, %edx
	leal	(%r12,%r13), %ebx
	subl	%r13d, %ecx
	addl	%r13d, %edx
                                        # kill: def $r13d killed $r13d killed $r13
	sarl	%r13d
	addl	%ebx, %r13d
	movl	%esi, %ebx
	subl	%edi, %ebx
	addl	%r12d, %ecx
	addl	%r12d, %ebx
	movl	%r12d, %edi
	sarl	%edi
	addl	%edi, %ecx
	addl	%ebp, %r11d
	addl	%r14d, %r8d
	addl	-112(%rsp), %r10d               # 4-byte Folded Reload
	addl	%r15d, %r9d
	subl	%r13d, %esi
	movl	%r11d, %edi
	subl	%r8d, %edi
	addl	%r11d, %r8d
	movl	%r10d, %r11d
	subl	%r9d, %r11d
	addl	%r10d, %r9d
	leal	(%r9,%r8), %r10d
	movw	%r10w, -90(%rsp,%rax,2)
	movl	%ecx, %r10d
	shrl	$2, %r10d
	addl	%edx, %r10d
	movw	%r10w, -74(%rsp,%rax,2)
	movl	%edi, %r10d
	shrl	%r10d
	addl	%r11d, %r10d
	movw	%r10w, -58(%rsp,%rax,2)
	movl	%ebx, %r10d
	shrl	$2, %r10d
	addl	%esi, %r10d
	movw	%r10w, -42(%rsp,%rax,2)
	subl	%r8d, %r9d
	movw	%r9w, -26(%rsp,%rax,2)
	shrl	$2, %esi
	subl	%esi, %ebx
	movw	%bx, -10(%rsp,%rax,2)
	shrl	%r11d
	subl	%edi, %r11d
	movw	%r11w, 6(%rsp,%rax,2)
	shrl	$2, %edx
	subl	%ecx, %edx
	movw	%dx, 22(%rsp,%rax,2)
	jmp	.LBB10_9
.Ltmp519:
.LBB10_10:                              # %vector.body477.preheader
	#DEBUG_VALUE: sub8x8_dct8:dct <- [DW_OP_constu 104, DW_OP_minus] [$rsp+0]
	#DEBUG_VALUE: sub8x8_dct8:pix1 <- [DW_OP_LLVM_entry_value 1] $rsi
	#DEBUG_VALUE: sub8x8_dct8:pix2 <- [DW_OP_LLVM_entry_value 1] $rdx
	.loc	0 295 5 is_stmt 1               # x264_src/common/dct.c:295:5
	leaq	-34(%rsp), %rax
	xorl	%ecx, %ecx
	jmp	.LBB10_11
.Ltmp520:
	.p2align	4, 0x90
.LBB10_19:                              # %pred.store.continue486
                                        #   in Loop: Header=BB10_11 Depth=1
	#DEBUG_VALUE: sub8x8_dct8:dct <- [DW_OP_constu 104, DW_OP_minus] [$rsp+0]
	#DEBUG_VALUE: sub8x8_dct8:pix1 <- [DW_OP_LLVM_entry_value 1] $rsi
	#DEBUG_VALUE: sub8x8_dct8:pix2 <- [DW_OP_LLVM_entry_value 1] $rdx
	.loc	0 295 29 is_stmt 0              # x264_src/common/dct.c:295:29
	addq	$4, %rcx
	addq	$64, %rax
	cmpq	$8, %rcx
	je	.LBB10_20
.Ltmp521:
.LBB10_11:                              # %vector.body477
                                        # =>This Inner Loop Header: Depth=1
	#DEBUG_VALUE: sub8x8_dct8:dct <- [DW_OP_constu 104, DW_OP_minus] [$rsp+0]
	#DEBUG_VALUE: sub8x8_dct8:pix1 <- [DW_OP_LLVM_entry_value 1] $rsi
	#DEBUG_VALUE: sub8x8_dct8:pix2 <- [DW_OP_LLVM_entry_value 1] $rdx
	.loc	0 0 29                          # x264_src/common/dct.c:0:29
	cmpq	$7, %rcx
	movq	%rax, -112(%rsp)                # 8-byte Spill
	.loc	0 295 5                         # x264_src/common/dct.c:295:5
	jbe	.LBB10_12
.Ltmp522:
# %bb.13:                               # %pred.store.continue480
                                        #   in Loop: Header=BB10_11 Depth=1
	#DEBUG_VALUE: sub8x8_dct8:dct <- [DW_OP_constu 104, DW_OP_minus] [$rsp+0]
	#DEBUG_VALUE: sub8x8_dct8:pix1 <- [DW_OP_LLVM_entry_value 1] $rsi
	#DEBUG_VALUE: sub8x8_dct8:pix2 <- [DW_OP_LLVM_entry_value 1] $rdx
	.loc	0 0 5                           # x264_src/common/dct.c:0:5
	cmpq	$7, %rcx
.Ltmp523:
	.loc	0 296 9 is_stmt 1               # x264_src/common/dct.c:296:9
	jbe	.LBB10_14
.Ltmp524:
.LBB10_15:                              # %pred.store.continue482
                                        #   in Loop: Header=BB10_11 Depth=1
	#DEBUG_VALUE: sub8x8_dct8:dct <- [DW_OP_constu 104, DW_OP_minus] [$rsp+0]
	#DEBUG_VALUE: sub8x8_dct8:pix1 <- [DW_OP_LLVM_entry_value 1] $rsi
	#DEBUG_VALUE: sub8x8_dct8:pix2 <- [DW_OP_LLVM_entry_value 1] $rdx
	.loc	0 0 9 is_stmt 0                 # x264_src/common/dct.c:0:9
	cmpq	$7, %rcx
	.loc	0 296 9                         # x264_src/common/dct.c:296:9
	jbe	.LBB10_16
.Ltmp525:
.LBB10_17:                              # %pred.store.continue484
                                        #   in Loop: Header=BB10_11 Depth=1
	#DEBUG_VALUE: sub8x8_dct8:dct <- [DW_OP_constu 104, DW_OP_minus] [$rsp+0]
	#DEBUG_VALUE: sub8x8_dct8:pix1 <- [DW_OP_LLVM_entry_value 1] $rsi
	#DEBUG_VALUE: sub8x8_dct8:pix2 <- [DW_OP_LLVM_entry_value 1] $rdx
	.loc	0 0 9                           # x264_src/common/dct.c:0:9
	cmpq	$7, %rcx
	.loc	0 296 9                         # x264_src/common/dct.c:296:9
	ja	.LBB10_19
	jmp	.LBB10_18
.Ltmp526:
	.p2align	4, 0x90
.LBB10_12:                              # %pred.store.if479
                                        #   in Loop: Header=BB10_11 Depth=1
	#DEBUG_VALUE: sub8x8_dct8:dct <- [DW_OP_constu 104, DW_OP_minus] [$rsp+0]
	#DEBUG_VALUE: sub8x8_dct8:pix1 <- [DW_OP_LLVM_entry_value 1] $rsi
	#DEBUG_VALUE: sub8x8_dct8:pix2 <- [DW_OP_LLVM_entry_value 1] $rdx
	movswl	-62(%rax), %r9d
	movswl	-48(%rax), %r11d
	movswl	-60(%rax), %edx
	movl	%edx, -116(%rsp)                # 4-byte Spill
	movswl	-50(%rax), %ebx
	movswl	-58(%rax), %esi
	movl	%esi, -120(%rsp)                # 4-byte Spill
	movswl	-52(%rax), %r12d
	movswl	-56(%rax), %r15d
	movswl	-54(%rax), %r10d
	movl	%r15d, %r13d
	subl	%r10d, %r13d
	movl	%r9d, %r8d
	subl	%r11d, %r8d
                                        # kill: def $edx killed $edx def $rdx
	subl	%ebx, %edx
	movl	%esi, %eax
	subl	%r12d, %eax
	movl	%edx, %edi
	sarl	%edi
	movl	%r8d, %esi
	sarl	%esi
	addl	%edx, %edi
	addl	%r8d, %esi
	addl	%edx, %esi
	subl	%eax, %edx
	addl	%eax, %esi
	movl	%eax, %ebp
	sarl	%ebp
	addl	%eax, %ebp
	addl	%r13d, %ebp
	movl	%r8d, %eax
	subl	%edi, %eax
	addl	%r13d, %edx
	addl	%r13d, %eax
	movl	%r13d, %edi
	sarl	%edi
	addl	%edi, %edx
	addl	-116(%rsp), %ebx                # 4-byte Folded Reload
	addl	-120(%rsp), %r12d               # 4-byte Folded Reload
	addl	%r9d, %r11d
	addl	%r15d, %r10d
	subl	%ebp, %r8d
	movl	%ebx, %edi
	subl	%r12d, %edi
	addl	%ebx, %r12d
	movl	%r11d, %ebx
	subl	%r10d, %ebx
	addl	%r11d, %r10d
	leal	(%r10,%r12), %r11d
	movq	-104(%rsp), %r9                 # 8-byte Reload
	movw	%r11w, (%r9,%rcx,2)
	movl	%edx, %r11d
	shrl	$2, %r11d
	addl	%esi, %r11d
	movw	%r11w, 16(%r9,%rcx,2)
	movl	%edi, %r11d
	shrl	%r11d
	addl	%ebx, %r11d
	movw	%r11w, 32(%r9,%rcx,2)
	movl	%eax, %r11d
	shrl	$2, %r11d
	addl	%r8d, %r11d
	movw	%r11w, 48(%r9,%rcx,2)
	subl	%r12d, %r10d
	movw	%r10w, 64(%r9,%rcx,2)
	shrl	$2, %r8d
	subl	%r8d, %eax
	movw	%ax, 80(%r9,%rcx,2)
	movq	-112(%rsp), %rax                # 8-byte Reload
	shrl	%ebx
	subl	%edi, %ebx
	movw	%bx, 96(%r9,%rcx,2)
	shrl	$2, %esi
	subl	%edx, %esi
	movw	%si, 112(%r9,%rcx,2)
	cmpq	$7, %rcx
	ja	.LBB10_15
.Ltmp527:
.LBB10_14:                              # %pred.store.if481
                                        #   in Loop: Header=BB10_11 Depth=1
	#DEBUG_VALUE: sub8x8_dct8:dct <- [DW_OP_constu 104, DW_OP_minus] [$rsp+0]
	#DEBUG_VALUE: sub8x8_dct8:pix1 <- [DW_OP_LLVM_entry_value 1] $rsi
	#DEBUG_VALUE: sub8x8_dct8:pix2 <- [DW_OP_LLVM_entry_value 1] $rdx
	movswl	-46(%rax), %r9d
	movswl	-32(%rax), %r11d
	movswl	-44(%rax), %esi
	movl	%esi, -120(%rsp)                # 4-byte Spill
	movswl	-34(%rax), %ebx
	movswl	-42(%rax), %ebp
	movswl	-36(%rax), %r12d
	movswl	-40(%rax), %edx
	movl	%edx, -116(%rsp)                # 4-byte Spill
	movswl	-38(%rax), %r10d
	movl	%edx, %r13d
	subl	%r10d, %r13d
	movl	%r9d, %r8d
	subl	%r11d, %r8d
	movl	%esi, %edx
	subl	%ebx, %edx
	movl	%ebp, %edi
	subl	%r12d, %edi
	movl	%edx, %eax
	sarl	%eax
	movl	%r8d, %esi
	sarl	%esi
	addl	%edx, %eax
	addl	%r8d, %esi
	addl	%edx, %esi
	subl	%edi, %edx
	addl	%edi, %esi
	movl	%edi, %r15d
	sarl	%r15d
	addl	%edi, %r15d
	addl	%r13d, %r15d
	movl	%r8d, %edi
	subl	%eax, %edi
	addl	%r13d, %edx
	addl	%r13d, %edi
	movl	%r13d, %eax
	sarl	%eax
	addl	%eax, %edx
	addl	-120(%rsp), %ebx                # 4-byte Folded Reload
	addl	%ebp, %r12d
	addl	%r9d, %r11d
	addl	-116(%rsp), %r10d               # 4-byte Folded Reload
	subl	%r15d, %r8d
	movl	%ebx, %eax
	subl	%r12d, %eax
	addl	%ebx, %r12d
	movl	%r11d, %ebx
	subl	%r10d, %ebx
	addl	%r11d, %r10d
	leal	(%r10,%r12), %r11d
	movq	-104(%rsp), %r9                 # 8-byte Reload
	movw	%r11w, 2(%r9,%rcx,2)
	movl	%edx, %r11d
	shrl	$2, %r11d
	addl	%esi, %r11d
	movw	%r11w, 18(%r9,%rcx,2)
	movl	%eax, %r11d
	shrl	%r11d
	addl	%ebx, %r11d
	movw	%r11w, 34(%r9,%rcx,2)
	movl	%edi, %r11d
	shrl	$2, %r11d
	addl	%r8d, %r11d
	movw	%r11w, 50(%r9,%rcx,2)
	subl	%r12d, %r10d
	movw	%r10w, 66(%r9,%rcx,2)
	shrl	$2, %r8d
	subl	%r8d, %edi
	movw	%di, 82(%r9,%rcx,2)
	shrl	%ebx
	subl	%eax, %ebx
	movq	-112(%rsp), %rax                # 8-byte Reload
	movw	%bx, 98(%r9,%rcx,2)
	shrl	$2, %esi
	subl	%edx, %esi
	movw	%si, 114(%r9,%rcx,2)
	cmpq	$7, %rcx
	ja	.LBB10_17
.Ltmp528:
.LBB10_16:                              # %pred.store.if483
                                        #   in Loop: Header=BB10_11 Depth=1
	#DEBUG_VALUE: sub8x8_dct8:dct <- [DW_OP_constu 104, DW_OP_minus] [$rsp+0]
	#DEBUG_VALUE: sub8x8_dct8:pix1 <- [DW_OP_LLVM_entry_value 1] $rsi
	#DEBUG_VALUE: sub8x8_dct8:pix2 <- [DW_OP_LLVM_entry_value 1] $rdx
	movswl	-30(%rax), %r9d
	movswl	-16(%rax), %ebp
	movswl	-28(%rax), %edx
	movl	%edx, -116(%rsp)                # 4-byte Spill
	movswl	-18(%rax), %ebx
	movswl	-26(%rax), %esi
	movl	%esi, -120(%rsp)                # 4-byte Spill
	movswl	-20(%rax), %r11d
	movswl	-24(%rax), %r15d
	movswl	-22(%rax), %r10d
	movl	%r15d, %r13d
	subl	%r10d, %r13d
	movl	%r9d, %r8d
	subl	%ebp, %r8d
                                        # kill: def $edx killed $edx def $rdx
	subl	%ebx, %edx
	movl	%esi, %edi
	subl	%r11d, %edi
	movl	%edx, %eax
	sarl	%eax
	movl	%r8d, %esi
	sarl	%esi
	addl	%edx, %eax
	addl	%r8d, %esi
	addl	%edx, %esi
	subl	%edi, %edx
	addl	%edi, %esi
	movl	%edi, %r12d
	sarl	%r12d
	addl	%edi, %r12d
	addl	%r13d, %r12d
	movl	%r8d, %edi
	subl	%eax, %edi
	addl	%r13d, %edx
	addl	%r13d, %edi
	movl	%r13d, %eax
	sarl	%eax
	addl	%eax, %edx
	addl	-116(%rsp), %ebx                # 4-byte Folded Reload
	addl	-120(%rsp), %r11d               # 4-byte Folded Reload
	addl	%r9d, %ebp
	addl	%r15d, %r10d
	subl	%r12d, %r8d
	movl	%ebx, %eax
	subl	%r11d, %eax
	addl	%ebx, %r11d
	movl	%ebp, %ebx
	subl	%r10d, %ebx
	addl	%ebp, %r10d
	leal	(%r10,%r11), %ebp
	movq	-104(%rsp), %r9                 # 8-byte Reload
	movw	%bp, 4(%r9,%rcx,2)
	movl	%edx, %ebp
	shrl	$2, %ebp
	addl	%esi, %ebp
	movw	%bp, 20(%r9,%rcx,2)
	movl	%eax, %ebp
	shrl	%ebp
	addl	%ebx, %ebp
	movw	%bp, 36(%r9,%rcx,2)
	movl	%edi, %ebp
	shrl	$2, %ebp
	addl	%r8d, %ebp
	movw	%bp, 52(%r9,%rcx,2)
	subl	%r11d, %r10d
	movw	%r10w, 68(%r9,%rcx,2)
	shrl	$2, %r8d
	subl	%r8d, %edi
	movw	%di, 84(%r9,%rcx,2)
	shrl	%ebx
	subl	%eax, %ebx
	movq	-112(%rsp), %rax                # 8-byte Reload
	movw	%bx, 100(%r9,%rcx,2)
	shrl	$2, %esi
	subl	%edx, %esi
	movw	%si, 116(%r9,%rcx,2)
	cmpq	$7, %rcx
	ja	.LBB10_19
.Ltmp529:
.LBB10_18:                              # %pred.store.if485
                                        #   in Loop: Header=BB10_11 Depth=1
	#DEBUG_VALUE: sub8x8_dct8:dct <- [DW_OP_constu 104, DW_OP_minus] [$rsp+0]
	#DEBUG_VALUE: sub8x8_dct8:pix1 <- [DW_OP_LLVM_entry_value 1] $rsi
	#DEBUG_VALUE: sub8x8_dct8:pix2 <- [DW_OP_LLVM_entry_value 1] $rdx
	movswl	-14(%rax), %edx
	movl	%edx, -116(%rsp)                # 4-byte Spill
	movswl	(%rax), %r11d
	movswl	-12(%rax), %esi
	movl	%esi, -120(%rsp)                # 4-byte Spill
	movswl	-2(%rax), %ebx
	movswl	-10(%rax), %ebp
	movswl	-4(%rax), %r12d
	movswl	-8(%rax), %r15d
	movswl	-6(%rax), %r10d
	movl	%r15d, %r13d
	subl	%r10d, %r13d
	movl	%edx, %r8d
	subl	%r11d, %r8d
	movl	%esi, %edx
	subl	%ebx, %edx
	movl	%ebp, %edi
	subl	%r12d, %edi
	movl	%edx, %eax
	sarl	%eax
	movl	%r8d, %esi
	sarl	%esi
	addl	%edx, %eax
	addl	%r8d, %esi
	addl	%edx, %esi
	subl	%edi, %edx
	addl	%edi, %esi
	movl	%edi, %r9d
	sarl	%r9d
	addl	%edi, %r9d
	addl	%r13d, %r9d
	movl	%r8d, %edi
	subl	%eax, %edi
	addl	%r13d, %edx
	addl	%r13d, %edi
	movl	%r13d, %eax
	sarl	%eax
	addl	%eax, %edx
	addl	-120(%rsp), %ebx                # 4-byte Folded Reload
	addl	%ebp, %r12d
	addl	-116(%rsp), %r11d               # 4-byte Folded Reload
	addl	%r15d, %r10d
	subl	%r9d, %r8d
	movl	%ebx, %eax
	subl	%r12d, %eax
	addl	%ebx, %r12d
	movl	%r11d, %ebx
	subl	%r10d, %ebx
	addl	%r11d, %r10d
	leal	(%r10,%r12), %r9d
	movq	-104(%rsp), %r11                # 8-byte Reload
	movw	%r9w, 6(%r11,%rcx,2)
	movl	%edx, %r9d
	shrl	$2, %r9d
	addl	%esi, %r9d
	movw	%r9w, 22(%r11,%rcx,2)
	movl	%eax, %r9d
	shrl	%r9d
	addl	%ebx, %r9d
	movw	%r9w, 38(%r11,%rcx,2)
	movl	%edi, %r9d
	shrl	$2, %r9d
	addl	%r8d, %r9d
	movw	%r9w, 54(%r11,%rcx,2)
	subl	%r12d, %r10d
	movw	%r10w, 70(%r11,%rcx,2)
	shrl	$2, %r8d
	subl	%r8d, %edi
	movw	%di, 86(%r11,%rcx,2)
	shrl	%ebx
	subl	%eax, %ebx
	movq	-112(%rsp), %rax                # 8-byte Reload
	movw	%bx, 102(%r11,%rcx,2)
	shrl	$2, %esi
	subl	%edx, %esi
	movw	%si, 118(%r11,%rcx,2)
	jmp	.LBB10_19
.Ltmp530:
.LBB10_20:                              # %for.cond.cleanup137
	#DEBUG_VALUE: sub8x8_dct8:dct <- [DW_OP_constu 104, DW_OP_minus] [$rsp+0]
	#DEBUG_VALUE: sub8x8_dct8:pix1 <- [DW_OP_LLVM_entry_value 1] $rsi
	#DEBUG_VALUE: sub8x8_dct8:pix2 <- [DW_OP_LLVM_entry_value 1] $rdx
	.loc	0 299 1 epilogue_begin is_stmt 1 # x264_src/common/dct.c:299:1
	addq	$40, %rsp
	.cfi_def_cfa_offset 56
	popq	%rbx
	.cfi_def_cfa_offset 48
	popq	%r12
	.cfi_def_cfa_offset 40
	popq	%r13
	.cfi_def_cfa_offset 32
	popq	%r14
	.cfi_def_cfa_offset 24
	popq	%r15
	.cfi_def_cfa_offset 16
	popq	%rbp
	.cfi_def_cfa_offset 8
	retq
.Ltmp531:
.Lfunc_end10:
	.size	sub8x8_dct8, .Lfunc_end10-sub8x8_dct8
	.cfi_endproc
                                        # -- End function
	.p2align	4, 0x90                         # -- Begin function add8x8_idct8
	.type	add8x8_idct8,@function
add8x8_idct8:                           # @add8x8_idct8
.Lfunc_begin11:
	.loc	0 337 0                         # x264_src/common/dct.c:337:0
	.cfi_startproc
# %bb.0:                                # %entry
	#DEBUG_VALUE: add8x8_idct8:dst <- $rdi
	#DEBUG_VALUE: add8x8_idct8:dct <- $rsi
	pushq	%rbp
	.cfi_def_cfa_offset 16
	pushq	%r15
	.cfi_def_cfa_offset 24
	pushq	%r14
	.cfi_def_cfa_offset 32
	pushq	%r13
	.cfi_def_cfa_offset 40
	pushq	%r12
	.cfi_def_cfa_offset 48
	pushq	%rbx
	.cfi_def_cfa_offset 56
	.cfi_offset %rbx, -56
	.cfi_offset %r12, -48
	.cfi_offset %r13, -40
	.cfi_offset %r14, -32
	.cfi_offset %r15, -24
	.cfi_offset %rbp, -16
	.loc	0 338 12 prologue_end           # x264_src/common/dct.c:338:12
	addw	$32, (%rsi)
.Ltmp532:
	#DEBUG_VALUE: i <- 0
	.loc	0 0 12 is_stmt 0                # x264_src/common/dct.c:0:12
	movq	%rsi, -8(%rsp)                  # 8-byte Spill
.Ltmp533:
	#DEBUG_VALUE: add8x8_idct8:dct <- [DW_OP_constu 8, DW_OP_minus] [$rsp+0]
	.loc	0 342 5 is_stmt 1               # x264_src/common/dct.c:342:5
	leaq	118(%rsi), %r10
	xorl	%ecx, %ecx
	movq	%rdi, -16(%rsp)                 # 8-byte Spill
.Ltmp534:
	#DEBUG_VALUE: add8x8_idct8:dst <- [DW_OP_constu 16, DW_OP_minus] [$rsp+0]
	.loc	0 0 5 is_stmt 0                 # x264_src/common/dct.c:0:5
	jmp	.LBB11_1
.Ltmp535:
	.p2align	4, 0x90
.LBB11_9:                               # %pred.store.continue685
                                        #   in Loop: Header=BB11_1 Depth=1
	#DEBUG_VALUE: add8x8_idct8:dst <- [DW_OP_constu 16, DW_OP_minus] [$rsp+0]
	#DEBUG_VALUE: add8x8_idct8:dct <- [DW_OP_constu 8, DW_OP_minus] [$rsp+0]
	#DEBUG_VALUE: i <- 0
	.loc	0 342 29                        # x264_src/common/dct.c:342:29
	addq	$4, %rcx
	cmpq	$8, %rcx
	je	.LBB11_10
.Ltmp536:
.LBB11_1:                               # %vector.body
                                        # =>This Inner Loop Header: Depth=1
	#DEBUG_VALUE: add8x8_idct8:dst <- [DW_OP_constu 16, DW_OP_minus] [$rsp+0]
	#DEBUG_VALUE: add8x8_idct8:dct <- [DW_OP_constu 8, DW_OP_minus] [$rsp+0]
	#DEBUG_VALUE: i <- 0
	.loc	0 0 29                          # x264_src/common/dct.c:0:29
	cmpq	$7, %rcx
	.loc	0 342 5                         # x264_src/common/dct.c:342:5
	jbe	.LBB11_2
.Ltmp537:
# %bb.3:                                # %pred.store.continue
                                        #   in Loop: Header=BB11_1 Depth=1
	#DEBUG_VALUE: add8x8_idct8:dst <- [DW_OP_constu 16, DW_OP_minus] [$rsp+0]
	#DEBUG_VALUE: add8x8_idct8:dct <- [DW_OP_constu 8, DW_OP_minus] [$rsp+0]
	#DEBUG_VALUE: i <- 0
	.loc	0 0 5                           # x264_src/common/dct.c:0:5
	cmpq	$7, %rcx
.Ltmp538:
	.loc	0 343 9 is_stmt 1               # x264_src/common/dct.c:343:9
	jbe	.LBB11_4
.Ltmp539:
.LBB11_5:                               # %pred.store.continue681
                                        #   in Loop: Header=BB11_1 Depth=1
	#DEBUG_VALUE: add8x8_idct8:dst <- [DW_OP_constu 16, DW_OP_minus] [$rsp+0]
	#DEBUG_VALUE: add8x8_idct8:dct <- [DW_OP_constu 8, DW_OP_minus] [$rsp+0]
	#DEBUG_VALUE: i <- 0
	.loc	0 0 9 is_stmt 0                 # x264_src/common/dct.c:0:9
	cmpq	$7, %rcx
	.loc	0 343 9                         # x264_src/common/dct.c:343:9
	jbe	.LBB11_6
.Ltmp540:
.LBB11_7:                               # %pred.store.continue683
                                        #   in Loop: Header=BB11_1 Depth=1
	#DEBUG_VALUE: add8x8_idct8:dst <- [DW_OP_constu 16, DW_OP_minus] [$rsp+0]
	#DEBUG_VALUE: add8x8_idct8:dct <- [DW_OP_constu 8, DW_OP_minus] [$rsp+0]
	#DEBUG_VALUE: i <- 0
	.loc	0 0 9                           # x264_src/common/dct.c:0:9
	cmpq	$7, %rcx
	.loc	0 343 9                         # x264_src/common/dct.c:343:9
	ja	.LBB11_9
	jmp	.LBB11_8
.Ltmp541:
	.p2align	4, 0x90
.LBB11_2:                               # %pred.store.if
                                        #   in Loop: Header=BB11_1 Depth=1
	#DEBUG_VALUE: add8x8_idct8:dst <- [DW_OP_constu 16, DW_OP_minus] [$rsp+0]
	#DEBUG_VALUE: add8x8_idct8:dct <- [DW_OP_constu 8, DW_OP_minus] [$rsp+0]
	#DEBUG_VALUE: i <- 0
	movzwl	-118(%r10,%rcx,2), %ebp
	movzwl	-54(%r10,%rcx,2), %esi
	movswl	-86(%r10,%rcx,2), %r15d
	movswl	-22(%r10,%rcx,2), %edx
	movswl	-70(%r10,%rcx,2), %r12d
	movswl	-38(%r10,%rcx,2), %r11d
	movswl	-6(%r10,%rcx,2), %r8d
	movswl	-102(%r10,%rcx,2), %r14d
	movl	%r11d, %ebx
	sarl	%ebx
	addl	%r8d, %ebx
	addl	%r11d, %ebx
	leal	(%r11,%r12), %r9d
	addl	%r14d, %r9d
	subl	%r14d, %ebx
	movl	%r12d, %r13d
	sarl	%r13d
	movl	%r8d, %eax
	leal	(%r12,%r8), %edi
	addl	%r12d, %r13d
	subl	%r13d, %r8d
	addl	%r14d, %r8d
	sarl	%r14d
	addl	%r14d, %r9d
	sarl	%eax
	addl	%edi, %eax
	movl	%r15d, %r14d
	sarl	%r14d
	subl	%eax, %r11d
	movl	%r9d, %r13d
	sarl	$2, %r13d
	movl	%ebx, %r12d
	sarl	$2, %r12d
	movl	%ebp, %eax
	subl	%esi, %eax
	subl	%edx, %r14d
	sarl	%edx
	addl	%ebp, %esi
	addl	%r15d, %edx
	movl	%esi, %r15d
	subl	%edx, %r15d
	addl	%r11d, %r13d
	sarl	$2, %r11d
	movl	%eax, %ebp
	subl	%r14d, %ebp
	addl	%r8d, %r12d
	sarl	$2, %r8d
	addl	%eax, %r14d
	subl	%ebx, %r8d
	addl	%esi, %edx
	subl	%r11d, %r9d
	leal	(%r9,%rdx), %eax
	movw	%ax, -118(%r10,%rcx,2)
	leal	(%r8,%r14), %eax
	movw	%ax, -102(%r10,%rcx,2)
	leal	(%r12,%rbp), %eax
	movw	%ax, -86(%r10,%rcx,2)
	leal	(%r15,%r13), %eax
	movw	%ax, -70(%r10,%rcx,2)
	subl	%r13d, %r15d
	movq	-16(%rsp), %rdi                 # 8-byte Reload
	movw	%r15w, -54(%r10,%rcx,2)
	subl	%r12d, %ebp
	movw	%bp, -38(%r10,%rcx,2)
	subl	%r8d, %r14d
	movw	%r14w, -22(%r10,%rcx,2)
	subl	%r9d, %edx
	movw	%dx, -6(%r10,%rcx,2)
	cmpq	$7, %rcx
	ja	.LBB11_5
.Ltmp542:
.LBB11_4:                               # %pred.store.if680
                                        #   in Loop: Header=BB11_1 Depth=1
	#DEBUG_VALUE: add8x8_idct8:dst <- [DW_OP_constu 16, DW_OP_minus] [$rsp+0]
	#DEBUG_VALUE: add8x8_idct8:dct <- [DW_OP_constu 8, DW_OP_minus] [$rsp+0]
	#DEBUG_VALUE: i <- 0
	movzwl	-116(%r10,%rcx,2), %ebp
	movzwl	-52(%r10,%rcx,2), %eax
	movswl	-84(%r10,%rcx,2), %r15d
	movswl	-20(%r10,%rcx,2), %edx
	movswl	-68(%r10,%rcx,2), %r12d
	movswl	-36(%r10,%rcx,2), %r11d
	movswl	-4(%r10,%rcx,2), %r8d
	movswl	-100(%r10,%rcx,2), %r14d
	movl	%r11d, %ebx
	sarl	%ebx
	addl	%r8d, %ebx
	addl	%r11d, %ebx
	leal	(%r11,%r12), %r9d
	addl	%r14d, %r9d
	subl	%r14d, %ebx
	movl	%r12d, %esi
	sarl	%esi
	movl	%r8d, %edi
	leal	(%r12,%r8), %r13d
	addl	%r12d, %esi
	subl	%esi, %r8d
	addl	%r14d, %r8d
	sarl	%r14d
	addl	%r14d, %r9d
	sarl	%edi
	addl	%r13d, %edi
	movl	%r15d, %r14d
	sarl	%r14d
	subl	%edi, %r11d
	movl	%r9d, %r13d
	sarl	$2, %r13d
	movl	%ebx, %r12d
	sarl	$2, %r12d
	movl	%ebp, %esi
	subl	%eax, %esi
	subl	%edx, %r14d
	sarl	%edx
	addl	%ebp, %eax
	addl	%r15d, %edx
	movl	%eax, %r15d
	subl	%edx, %r15d
	addl	%r11d, %r13d
	sarl	$2, %r11d
	movl	%esi, %ebp
	subl	%r14d, %ebp
	addl	%r8d, %r12d
	sarl	$2, %r8d
	addl	%esi, %r14d
	subl	%ebx, %r8d
	addl	%eax, %edx
	subl	%r11d, %r9d
	leal	(%r9,%rdx), %eax
	movw	%ax, -116(%r10,%rcx,2)
	leal	(%r8,%r14), %eax
	movw	%ax, -100(%r10,%rcx,2)
	leal	(%r12,%rbp), %eax
	movw	%ax, -84(%r10,%rcx,2)
	leal	(%r15,%r13), %eax
	movw	%ax, -68(%r10,%rcx,2)
	subl	%r13d, %r15d
	movq	-16(%rsp), %rdi                 # 8-byte Reload
	movw	%r15w, -52(%r10,%rcx,2)
	subl	%r12d, %ebp
	movw	%bp, -36(%r10,%rcx,2)
	subl	%r8d, %r14d
	movw	%r14w, -20(%r10,%rcx,2)
	subl	%r9d, %edx
	movw	%dx, -4(%r10,%rcx,2)
	cmpq	$7, %rcx
	ja	.LBB11_7
.Ltmp543:
.LBB11_6:                               # %pred.store.if682
                                        #   in Loop: Header=BB11_1 Depth=1
	#DEBUG_VALUE: add8x8_idct8:dst <- [DW_OP_constu 16, DW_OP_minus] [$rsp+0]
	#DEBUG_VALUE: add8x8_idct8:dct <- [DW_OP_constu 8, DW_OP_minus] [$rsp+0]
	#DEBUG_VALUE: i <- 0
	movzwl	-114(%r10,%rcx,2), %ebp
	movzwl	-50(%r10,%rcx,2), %eax
	movswl	-82(%r10,%rcx,2), %r15d
	movswl	-18(%r10,%rcx,2), %edx
	movswl	-66(%r10,%rcx,2), %r12d
	movswl	-34(%r10,%rcx,2), %r11d
	movswl	-2(%r10,%rcx,2), %r8d
	movswl	-98(%r10,%rcx,2), %r14d
	movl	%r11d, %ebx
	sarl	%ebx
	addl	%r8d, %ebx
	addl	%r11d, %ebx
	leal	(%r11,%r12), %r9d
	addl	%r14d, %r9d
	subl	%r14d, %ebx
	movl	%r12d, %esi
	sarl	%esi
	movl	%r8d, %edi
	leal	(%r12,%r8), %r13d
	addl	%r12d, %esi
	subl	%esi, %r8d
	addl	%r14d, %r8d
	sarl	%r14d
	addl	%r14d, %r9d
	sarl	%edi
	addl	%r13d, %edi
	movl	%r15d, %r14d
	sarl	%r14d
	subl	%edi, %r11d
	movl	%r9d, %r13d
	sarl	$2, %r13d
	movl	%ebx, %r12d
	sarl	$2, %r12d
	movl	%ebp, %esi
	subl	%eax, %esi
	subl	%edx, %r14d
	sarl	%edx
	addl	%ebp, %eax
	addl	%r15d, %edx
	movl	%eax, %r15d
	subl	%edx, %r15d
	addl	%r11d, %r13d
	sarl	$2, %r11d
	movl	%esi, %ebp
	subl	%r14d, %ebp
	addl	%r8d, %r12d
	sarl	$2, %r8d
	addl	%esi, %r14d
	subl	%ebx, %r8d
	addl	%eax, %edx
	subl	%r11d, %r9d
	leal	(%r9,%rdx), %eax
	movw	%ax, -114(%r10,%rcx,2)
	leal	(%r8,%r14), %eax
	movw	%ax, -98(%r10,%rcx,2)
	leal	(%r12,%rbp), %eax
	movw	%ax, -82(%r10,%rcx,2)
	leal	(%r15,%r13), %eax
	movw	%ax, -66(%r10,%rcx,2)
	subl	%r13d, %r15d
	movq	-16(%rsp), %rdi                 # 8-byte Reload
	movw	%r15w, -50(%r10,%rcx,2)
	subl	%r12d, %ebp
	movw	%bp, -34(%r10,%rcx,2)
	subl	%r8d, %r14d
	movw	%r14w, -18(%r10,%rcx,2)
	subl	%r9d, %edx
	movw	%dx, -2(%r10,%rcx,2)
	cmpq	$7, %rcx
	ja	.LBB11_9
.Ltmp544:
.LBB11_8:                               # %pred.store.if684
                                        #   in Loop: Header=BB11_1 Depth=1
	#DEBUG_VALUE: add8x8_idct8:dst <- [DW_OP_constu 16, DW_OP_minus] [$rsp+0]
	#DEBUG_VALUE: add8x8_idct8:dct <- [DW_OP_constu 8, DW_OP_minus] [$rsp+0]
	#DEBUG_VALUE: i <- 0
	movzwl	-112(%r10,%rcx,2), %ebp
	movzwl	-48(%r10,%rcx,2), %eax
	movswl	-80(%r10,%rcx,2), %r15d
	movswl	-16(%r10,%rcx,2), %edx
	movswl	-64(%r10,%rcx,2), %r12d
	movswl	-32(%r10,%rcx,2), %r11d
	movswl	(%r10,%rcx,2), %r8d
	movswl	-96(%r10,%rcx,2), %r14d
	movl	%r11d, %ebx
	sarl	%ebx
	addl	%r8d, %ebx
	addl	%r11d, %ebx
	leal	(%r11,%r12), %r9d
	addl	%r14d, %r9d
	subl	%r14d, %ebx
	movl	%r12d, %esi
	sarl	%esi
	movl	%r8d, %edi
	leal	(%r12,%r8), %r13d
	addl	%r12d, %esi
	subl	%esi, %r8d
	addl	%r14d, %r8d
	sarl	%r14d
	addl	%r14d, %r9d
	sarl	%edi
	addl	%r13d, %edi
	movl	%r15d, %r14d
	sarl	%r14d
	subl	%edi, %r11d
	movl	%r9d, %r13d
	sarl	$2, %r13d
	movl	%ebx, %r12d
	sarl	$2, %r12d
	movl	%ebp, %esi
	subl	%eax, %esi
	subl	%edx, %r14d
	sarl	%edx
	addl	%ebp, %eax
	addl	%r15d, %edx
	movl	%eax, %r15d
	subl	%edx, %r15d
	addl	%r11d, %r13d
	sarl	$2, %r11d
	movl	%esi, %ebp
	subl	%r14d, %ebp
	addl	%r8d, %r12d
	sarl	$2, %r8d
	addl	%esi, %r14d
	subl	%ebx, %r8d
	addl	%eax, %edx
	subl	%r11d, %r9d
	leal	(%r9,%rdx), %eax
	movw	%ax, -112(%r10,%rcx,2)
	leal	(%r8,%r14), %eax
	movw	%ax, -96(%r10,%rcx,2)
	leal	(%r12,%rbp), %eax
	movw	%ax, -80(%r10,%rcx,2)
	leal	(%r15,%r13), %eax
	movw	%ax, -64(%r10,%rcx,2)
	subl	%r13d, %r15d
	movq	-16(%rsp), %rdi                 # 8-byte Reload
	movw	%r15w, -48(%r10,%rcx,2)
	subl	%r12d, %ebp
	movw	%bp, -32(%r10,%rcx,2)
	subl	%r8d, %r14d
	movw	%r14w, -16(%r10,%rcx,2)
	subl	%r9d, %edx
	movw	%dx, (%r10,%rcx,2)
	jmp	.LBB11_9
.Ltmp545:
.LBB11_10:                              # %for.body177.preheader
	#DEBUG_VALUE: add8x8_idct8:dst <- [DW_OP_constu 16, DW_OP_minus] [$rsp+0]
	#DEBUG_VALUE: add8x8_idct8:dct <- [DW_OP_constu 8, DW_OP_minus] [$rsp+0]
	.loc	0 0 9                           # x264_src/common/dct.c:0:9
	movq	-8(%rsp), %r12                  # 8-byte Reload
.Ltmp546:
	.loc	0 349 5 is_stmt 1               # x264_src/common/dct.c:349:5
	addq	$14, %r12
	xorl	%eax, %eax
.Ltmp547:
	.p2align	4, 0x90
.LBB11_11:                              # %for.body177
                                        # =>This Inner Loop Header: Depth=1
	#DEBUG_VALUE: add8x8_idct8:dst <- [DW_OP_constu 16, DW_OP_minus] [$rsp+0]
	#DEBUG_VALUE: add8x8_idct8:dct <- [DW_OP_constu 8, DW_OP_minus] [$rsp+0]
	#DEBUG_VALUE: i <- $rax
	.loc	0 350 9                         # x264_src/common/dct.c:350:9
	movswl	-14(%r12), %edx
	movswl	-6(%r12), %ecx
	leal	(%rcx,%rdx), %r10d
.Ltmp548:
	#DEBUG_VALUE: a0 <- $r10d
	subl	%ecx, %edx
.Ltmp549:
	#DEBUG_VALUE: a2 <- $edx
	movswl	-10(%r12), %ecx
	movl	%ecx, %esi
	sarl	%esi
	movswl	-2(%r12), %r9d
	subl	%r9d, %esi
.Ltmp550:
	#DEBUG_VALUE: a4 <- $esi
	sarl	%r9d
	addl	%ecx, %r9d
.Ltmp551:
	#DEBUG_VALUE: a6 <- $r9d
	leal	(%r9,%r10), %ecx
.Ltmp552:
	#DEBUG_VALUE: b0 <- $ecx
	leal	(%rsi,%rdx), %r8d
.Ltmp553:
	#DEBUG_VALUE: b2 <- $r8d
	subl	%esi, %edx
.Ltmp554:
	#DEBUG_VALUE: b4 <- $edx
	subl	%r9d, %r10d
.Ltmp555:
	#DEBUG_VALUE: b6 <- $r10d
	movswl	-8(%r12), %esi
.Ltmp556:
	movswl	-4(%r12), %ebx
	movswl	(%r12), %r15d
	movl	%r15d, %r11d
	sarl	%r11d
	addl	%esi, %r11d
	addl	%r15d, %r11d
	movl	%ebx, %ebp
	subl	%r11d, %ebp
.Ltmp557:
	#DEBUG_VALUE: a1 <- $ebp
	movswl	-12(%r12), %r9d
.Ltmp558:
	movl	%esi, %r14d
	sarl	%r14d
	addl	%esi, %r14d
	movl	%r15d, %r11d
	subl	%r14d, %r11d
	addl	%r9d, %r11d
.Ltmp559:
	#DEBUG_VALUE: a3 <- $r11d
	movl	%ebx, %r14d
	sarl	%r14d
	addl	%ebx, %r15d
	addl	%r14d, %r15d
	subl	%r9d, %r15d
.Ltmp560:
	#DEBUG_VALUE: a5 <- $r15d
	addl	%esi, %ebx
	addl	%r9d, %ebx
	sarl	%r9d
	addl	%ebx, %r9d
.Ltmp561:
	#DEBUG_VALUE: a7 <- $r9d
	movl	%r9d, %r14d
	sarl	$2, %r14d
	addl	%ebp, %r14d
.Ltmp562:
	#DEBUG_VALUE: b1 <- $r14d
	movl	%r15d, %ebx
	sarl	$2, %ebx
	addl	%r11d, %ebx
.Ltmp563:
	#DEBUG_VALUE: b3 <- $ebx
	sarl	$2, %r11d
.Ltmp564:
	subl	%r15d, %r11d
.Ltmp565:
	#DEBUG_VALUE: b5 <- $r11d
	sarl	$2, %ebp
.Ltmp566:
	subl	%ebp, %r9d
.Ltmp567:
	#DEBUG_VALUE: b7 <- $r9d
	movzbl	(%rdi,%rax), %esi
	leal	(%r9,%rcx), %ebp
	sarl	$6, %ebp
	addl	%esi, %ebp
.Ltmp568:
	#DEBUG_VALUE: x264_clip_uint8:x <- $ebp
	.loc	5 197 12                        # x264_src/common/common.h:197:12
	testl	%ebp, %ebp
	setg	%sil
	negb	%sil
	.loc	5 197 13 is_stmt 0              # x264_src/common/common.h:197:13
	cmpl	$256, %ebp                      # imm = 0x100
	.loc	5 197 12                        # x264_src/common/common.h:197:12
	movzbl	%sil, %esi
	cmovbl	%ebp, %esi
.Ltmp569:
	.loc	0 350 9 is_stmt 1               # x264_src/common/dct.c:350:9
	movb	%sil, (%rdi,%rax)
	movzbl	32(%rdi,%rax), %esi
	leal	(%r11,%r8), %ebp
.Ltmp570:
	sarl	$6, %ebp
	addl	%esi, %ebp
.Ltmp571:
	#DEBUG_VALUE: x264_clip_uint8:x <- $ebp
	.loc	5 197 12                        # x264_src/common/common.h:197:12
	testl	%ebp, %ebp
	setg	%sil
	negb	%sil
	.loc	5 197 13 is_stmt 0              # x264_src/common/common.h:197:13
	cmpl	$256, %ebp                      # imm = 0x100
	.loc	5 197 12                        # x264_src/common/common.h:197:12
	movzbl	%sil, %esi
	cmovbl	%ebp, %esi
.Ltmp572:
	.loc	0 350 9 is_stmt 1               # x264_src/common/dct.c:350:9
	movb	%sil, 32(%rdi,%rax)
	movzbl	64(%rdi,%rax), %esi
	leal	(%rbx,%rdx), %ebp
.Ltmp573:
	sarl	$6, %ebp
	addl	%esi, %ebp
.Ltmp574:
	#DEBUG_VALUE: x264_clip_uint8:x <- $ebp
	.loc	5 197 12                        # x264_src/common/common.h:197:12
	testl	%ebp, %ebp
	setg	%sil
	negb	%sil
	.loc	5 197 13 is_stmt 0              # x264_src/common/common.h:197:13
	cmpl	$256, %ebp                      # imm = 0x100
	.loc	5 197 12                        # x264_src/common/common.h:197:12
	movzbl	%sil, %esi
	cmovbl	%ebp, %esi
.Ltmp575:
	.loc	0 350 9 is_stmt 1               # x264_src/common/dct.c:350:9
	movb	%sil, 64(%rdi,%rax)
	movzbl	96(%rdi,%rax), %esi
	leal	(%r14,%r10), %ebp
.Ltmp576:
	sarl	$6, %ebp
	addl	%esi, %ebp
.Ltmp577:
	#DEBUG_VALUE: x264_clip_uint8:x <- $ebp
	.loc	5 197 12                        # x264_src/common/common.h:197:12
	testl	%ebp, %ebp
	setg	%sil
	negb	%sil
	.loc	5 197 13 is_stmt 0              # x264_src/common/common.h:197:13
	cmpl	$256, %ebp                      # imm = 0x100
	.loc	5 197 12                        # x264_src/common/common.h:197:12
	movzbl	%sil, %esi
	cmovbl	%ebp, %esi
.Ltmp578:
	.loc	0 350 9 is_stmt 1               # x264_src/common/dct.c:350:9
	movb	%sil, 96(%rdi,%rax)
	movzbl	128(%rdi,%rax), %esi
	subl	%r14d, %r10d
.Ltmp579:
	sarl	$6, %r10d
	addl	%esi, %r10d
.Ltmp580:
	#DEBUG_VALUE: x264_clip_uint8:x <- $r10d
	.loc	5 197 12                        # x264_src/common/common.h:197:12
	testl	%r10d, %r10d
	setg	%sil
	negb	%sil
	.loc	5 197 13 is_stmt 0              # x264_src/common/common.h:197:13
	cmpl	$256, %r10d                     # imm = 0x100
	.loc	5 197 12                        # x264_src/common/common.h:197:12
	movzbl	%sil, %esi
	cmovbl	%r10d, %esi
.Ltmp581:
	.loc	0 350 9 is_stmt 1               # x264_src/common/dct.c:350:9
	movb	%sil, 128(%rdi,%rax)
	movzbl	160(%rdi,%rax), %esi
	subl	%ebx, %edx
.Ltmp582:
	sarl	$6, %edx
	addl	%esi, %edx
.Ltmp583:
	#DEBUG_VALUE: x264_clip_uint8:x <- $edx
	.loc	5 197 12                        # x264_src/common/common.h:197:12
	testl	%edx, %edx
	setg	%sil
	negb	%sil
	.loc	5 197 13 is_stmt 0              # x264_src/common/common.h:197:13
	cmpl	$256, %edx                      # imm = 0x100
	.loc	5 197 12                        # x264_src/common/common.h:197:12
	movzbl	%sil, %esi
	cmovbl	%edx, %esi
.Ltmp584:
	.loc	0 350 9 is_stmt 1               # x264_src/common/dct.c:350:9
	movb	%sil, 160(%rdi,%rax)
	movzbl	192(%rdi,%rax), %edx
.Ltmp585:
	subl	%r11d, %r8d
.Ltmp586:
	sarl	$6, %r8d
	addl	%edx, %r8d
.Ltmp587:
	#DEBUG_VALUE: x264_clip_uint8:x <- $r8d
	.loc	5 197 12                        # x264_src/common/common.h:197:12
	testl	%r8d, %r8d
	setg	%dl
	negb	%dl
	.loc	5 197 13 is_stmt 0              # x264_src/common/common.h:197:13
	cmpl	$256, %r8d                      # imm = 0x100
	.loc	5 197 12                        # x264_src/common/common.h:197:12
	movzbl	%dl, %edx
	cmovbl	%r8d, %edx
.Ltmp588:
	.loc	0 350 9 is_stmt 1               # x264_src/common/dct.c:350:9
	movb	%dl, 192(%rdi,%rax)
	movzbl	224(%rdi,%rax), %edx
	subl	%r9d, %ecx
.Ltmp589:
	sarl	$6, %ecx
	addl	%edx, %ecx
.Ltmp590:
	#DEBUG_VALUE: x264_clip_uint8:x <- $ecx
	.loc	5 197 12                        # x264_src/common/common.h:197:12
	testl	%ecx, %ecx
	setg	%dl
	negb	%dl
	.loc	5 197 13 is_stmt 0              # x264_src/common/common.h:197:13
	cmpl	$256, %ecx                      # imm = 0x100
	.loc	5 197 12                        # x264_src/common/common.h:197:12
	movzbl	%dl, %edx
	cmovbl	%ecx, %edx
.Ltmp591:
	.loc	0 350 9 is_stmt 1               # x264_src/common/dct.c:350:9
	movb	%dl, 224(%rdi,%rax)
.Ltmp592:
	.loc	0 349 29                        # x264_src/common/dct.c:349:29
	incq	%rax
.Ltmp593:
	#DEBUG_VALUE: i <- $rax
	.loc	0 349 23 is_stmt 0              # x264_src/common/dct.c:349:23
	addq	$16, %r12
	cmpq	$8, %rax
.Ltmp594:
	.loc	0 349 5                         # x264_src/common/dct.c:349:5
	jne	.LBB11_11
.Ltmp595:
# %bb.12:                               # %for.cond.cleanup176
	#DEBUG_VALUE: add8x8_idct8:dst <- [DW_OP_constu 16, DW_OP_minus] [$rsp+0]
	#DEBUG_VALUE: add8x8_idct8:dct <- [DW_OP_constu 8, DW_OP_minus] [$rsp+0]
	.loc	0 353 1 epilogue_begin is_stmt 1 # x264_src/common/dct.c:353:1
	popq	%rbx
	.cfi_def_cfa_offset 48
	popq	%r12
	.cfi_def_cfa_offset 40
	popq	%r13
	.cfi_def_cfa_offset 32
	popq	%r14
	.cfi_def_cfa_offset 24
	popq	%r15
	.cfi_def_cfa_offset 16
	popq	%rbp
	.cfi_def_cfa_offset 8
	retq
.Ltmp596:
.Lfunc_end11:
	.size	add8x8_idct8, .Lfunc_end11-add8x8_idct8
	.cfi_endproc
                                        # -- End function
	.p2align	4, 0x90                         # -- Begin function sub16x16_dct8
	.type	sub16x16_dct8,@function
sub16x16_dct8:                          # @sub16x16_dct8
.Lfunc_begin12:
	.loc	0 302 0                         # x264_src/common/dct.c:302:0
	.cfi_startproc
# %bb.0:                                # %entry
	#DEBUG_VALUE: sub16x16_dct8:dct <- $rdi
	#DEBUG_VALUE: sub16x16_dct8:pix1 <- $rsi
	#DEBUG_VALUE: sub16x16_dct8:pix2 <- $rdx
	pushq	%r15
	.cfi_def_cfa_offset 16
	pushq	%r14
	.cfi_def_cfa_offset 24
	pushq	%rbx
	.cfi_def_cfa_offset 32
	.cfi_offset %rbx, -32
	.cfi_offset %r14, -24
	.cfi_offset %r15, -16
	movq	%rdx, %rbx
	movq	%rsi, %r14
	movq	%rdi, %r15
.Ltmp597:
	.loc	0 303 5 prologue_end            # x264_src/common/dct.c:303:5
	callq	sub8x8_dct8
.Ltmp598:
	#DEBUG_VALUE: sub16x16_dct8:pix2 <- $rbx
	#DEBUG_VALUE: sub16x16_dct8:pix1 <- $r14
	#DEBUG_VALUE: sub16x16_dct8:dct <- $r15
	.loc	0 304 18                        # x264_src/common/dct.c:304:18
	leaq	128(%r15), %rdi
	.loc	0 304 27 is_stmt 0              # x264_src/common/dct.c:304:27
	leaq	8(%r14), %rsi
	.loc	0 304 51                        # x264_src/common/dct.c:304:51
	leaq	8(%rbx), %rdx
	.loc	0 304 5                         # x264_src/common/dct.c:304:5
	callq	sub8x8_dct8
.Ltmp599:
	.loc	0 305 18 is_stmt 1              # x264_src/common/dct.c:305:18
	leaq	256(%r15), %rdi
	.loc	0 305 27 is_stmt 0              # x264_src/common/dct.c:305:27
	leaq	128(%r14), %rsi
	.loc	0 305 51                        # x264_src/common/dct.c:305:51
	leaq	256(%rbx), %rdx
	.loc	0 305 5                         # x264_src/common/dct.c:305:5
	callq	sub8x8_dct8
.Ltmp600:
	.loc	0 306 18 is_stmt 1              # x264_src/common/dct.c:306:18
	addq	$384, %r15                      # imm = 0x180
.Ltmp601:
	#DEBUG_VALUE: sub16x16_dct8:dct <- [DW_OP_LLVM_entry_value 1] $rdi
	.loc	0 306 27 is_stmt 0              # x264_src/common/dct.c:306:27
	addq	$136, %r14
.Ltmp602:
	#DEBUG_VALUE: sub16x16_dct8:pix1 <- [DW_OP_LLVM_entry_value 1] $rsi
	.loc	0 306 51                        # x264_src/common/dct.c:306:51
	addq	$264, %rbx                      # imm = 0x108
.Ltmp603:
	#DEBUG_VALUE: sub16x16_dct8:pix2 <- [DW_OP_LLVM_entry_value 1] $rdx
	.loc	0 306 5                         # x264_src/common/dct.c:306:5
	movq	%r15, %rdi
	movq	%r14, %rsi
	movq	%rbx, %rdx
	.loc	0 306 5 epilogue_begin          # x264_src/common/dct.c:306:5
	popq	%rbx
	.cfi_def_cfa_offset 24
	popq	%r14
	.cfi_def_cfa_offset 16
	popq	%r15
	.cfi_def_cfa_offset 8
.Ltmp604:
	jmp	sub8x8_dct8                     # TAILCALL
.Ltmp605:
.Lfunc_end12:
	.size	sub16x16_dct8, .Lfunc_end12-sub16x16_dct8
	.cfi_endproc
                                        # -- End function
	.p2align	4, 0x90                         # -- Begin function add16x16_idct8
	.type	add16x16_idct8,@function
add16x16_idct8:                         # @add16x16_idct8
.Lfunc_begin13:
	.loc	0 356 0 is_stmt 1               # x264_src/common/dct.c:356:0
	.cfi_startproc
# %bb.0:                                # %entry
	#DEBUG_VALUE: add16x16_idct8:dst <- $rdi
	#DEBUG_VALUE: add16x16_idct8:dct <- $rsi
	pushq	%r14
	.cfi_def_cfa_offset 16
	pushq	%rbx
	.cfi_def_cfa_offset 24
	pushq	%rax
	.cfi_def_cfa_offset 32
	.cfi_offset %rbx, -24
	.cfi_offset %r14, -16
	movq	%rsi, %rbx
	movq	%rdi, %r14
.Ltmp606:
	.loc	0 357 5 prologue_end            # x264_src/common/dct.c:357:5
	callq	add8x8_idct8
.Ltmp607:
	#DEBUG_VALUE: add16x16_idct8:dct <- $rbx
	#DEBUG_VALUE: add16x16_idct8:dst <- $r14
	.loc	0 358 20                        # x264_src/common/dct.c:358:20
	leaq	8(%r14), %rdi
	.loc	0 358 42 is_stmt 0              # x264_src/common/dct.c:358:42
	leaq	128(%rbx), %rsi
	.loc	0 358 5                         # x264_src/common/dct.c:358:5
	callq	add8x8_idct8
.Ltmp608:
	.loc	0 359 20 is_stmt 1              # x264_src/common/dct.c:359:20
	leaq	256(%r14), %rdi
	.loc	0 359 42 is_stmt 0              # x264_src/common/dct.c:359:42
	leaq	256(%rbx), %rsi
	.loc	0 359 5                         # x264_src/common/dct.c:359:5
	callq	add8x8_idct8
.Ltmp609:
	.loc	0 360 20 is_stmt 1              # x264_src/common/dct.c:360:20
	addq	$264, %r14                      # imm = 0x108
.Ltmp610:
	#DEBUG_VALUE: add16x16_idct8:dst <- [DW_OP_LLVM_entry_value 1] $rdi
	.loc	0 360 42 is_stmt 0              # x264_src/common/dct.c:360:42
	addq	$384, %rbx                      # imm = 0x180
.Ltmp611:
	#DEBUG_VALUE: add16x16_idct8:dct <- [DW_OP_LLVM_entry_value 1] $rsi
	.loc	0 360 5                         # x264_src/common/dct.c:360:5
	movq	%r14, %rdi
	movq	%rbx, %rsi
	.loc	0 360 5 epilogue_begin          # x264_src/common/dct.c:360:5
	addq	$8, %rsp
	.cfi_def_cfa_offset 24
	popq	%rbx
	.cfi_def_cfa_offset 16
	popq	%r14
	.cfi_def_cfa_offset 8
.Ltmp612:
	jmp	add8x8_idct8                    # TAILCALL
.Ltmp613:
.Lfunc_end13:
	.size	add16x16_idct8, .Lfunc_end13-add16x16_idct8
	.cfi_endproc
                                        # -- End function
	.p2align	4, 0x90                         # -- Begin function dct4x4dc
	.type	dct4x4dc,@function
dct4x4dc:                               # @dct4x4dc
.Lfunc_begin14:
	.loc	0 39 0 is_stmt 1                # x264_src/common/dct.c:39:0
	.cfi_startproc
# %bb.0:                                # %entry
	#DEBUG_VALUE: dct4x4dc:d <- $rdi
	pushq	%rbp
	.cfi_def_cfa_offset 16
	pushq	%r15
	.cfi_def_cfa_offset 24
	pushq	%r14
	.cfi_def_cfa_offset 32
	pushq	%r13
	.cfi_def_cfa_offset 40
	pushq	%r12
	.cfi_def_cfa_offset 48
	pushq	%rbx
	.cfi_def_cfa_offset 56
	.cfi_offset %rbx, -56
	.cfi_offset %r12, -48
	.cfi_offset %r13, -40
	.cfi_offset %r14, -32
	.cfi_offset %r15, -24
	.cfi_offset %rbp, -16
.Ltmp614:
	#DEBUG_VALUE: i <- 0
	.loc	0 44 19 prologue_end            # x264_src/common/dct.c:44:19
	movzwl	(%rdi), %eax
	.loc	0 44 30 is_stmt 0               # x264_src/common/dct.c:44:30
	movzwl	2(%rdi), %ecx
	.loc	0 44 28                         # x264_src/common/dct.c:44:28
	leal	(%rcx,%rax), %r10d
.Ltmp615:
	#DEBUG_VALUE: s01 <- $r10d
	.loc	0 45 28 is_stmt 1               # x264_src/common/dct.c:45:28
	subl	%ecx, %eax
.Ltmp616:
	#DEBUG_VALUE: d01 <- $eax
	.loc	0 46 19                         # x264_src/common/dct.c:46:19
	movzwl	4(%rdi), %r15d
	.loc	0 46 30 is_stmt 0               # x264_src/common/dct.c:46:30
	movzwl	6(%rdi), %ecx
	.loc	0 46 28                         # x264_src/common/dct.c:46:28
	leal	(%rcx,%r15), %edx
.Ltmp617:
	#DEBUG_VALUE: s23 <- $edx
	.loc	0 47 28 is_stmt 1               # x264_src/common/dct.c:47:28
	subl	%ecx, %r15d
.Ltmp618:
	#DEBUG_VALUE: d23 <- $r15d
	.loc	0 49 26                         # x264_src/common/dct.c:49:26
	leal	(%rdx,%r10), %ecx
.Ltmp619:
	#DEBUG_VALUE: dct4x4dc:tmp <- [DW_OP_LLVM_convert 32 7, DW_OP_LLVM_convert 16 7, DW_OP_stack_value, DW_OP_LLVM_fragment 0 16] $ecx
	.loc	0 0 26 is_stmt 0                # x264_src/common/dct.c:0:26
	movl	%ecx, -16(%rsp)                 # 4-byte Spill
.Ltmp620:
	#DEBUG_VALUE: dct4x4dc:tmp <- [DW_OP_constu 16, DW_OP_minus, DW_OP_deref_size 4, DW_OP_LLVM_convert 32 7, DW_OP_LLVM_convert 16 7, DW_OP_stack_value, DW_OP_LLVM_fragment 0 16] $rsp
	.loc	0 50 26 is_stmt 1               # x264_src/common/dct.c:50:26
	subl	%edx, %r10d
.Ltmp621:
	#DEBUG_VALUE: dct4x4dc:tmp <- [DW_OP_LLVM_convert 32 7, DW_OP_LLVM_convert 16 7, DW_OP_stack_value, DW_OP_LLVM_fragment 64 16] $r10d
	.loc	0 51 26                         # x264_src/common/dct.c:51:26
	movl	%eax, %ecx
	subl	%r15d, %ecx
.Ltmp622:
	#DEBUG_VALUE: dct4x4dc:tmp <- [DW_OP_LLVM_convert 32 7, DW_OP_LLVM_convert 16 7, DW_OP_stack_value, DW_OP_LLVM_fragment 128 16] $ecx
	.loc	0 0 26 is_stmt 0                # x264_src/common/dct.c:0:26
	movl	%ecx, -4(%rsp)                  # 4-byte Spill
.Ltmp623:
	#DEBUG_VALUE: dct4x4dc:tmp <- [DW_OP_constu 4, DW_OP_minus, DW_OP_deref_size 4, DW_OP_LLVM_convert 32 7, DW_OP_LLVM_convert 16 7, DW_OP_stack_value, DW_OP_LLVM_fragment 128 16] $rsp
	.loc	0 52 26 is_stmt 1               # x264_src/common/dct.c:52:26
	addl	%eax, %r15d
.Ltmp624:
	#DEBUG_VALUE: dct4x4dc:tmp <- [DW_OP_LLVM_convert 32 7, DW_OP_LLVM_convert 16 7, DW_OP_stack_value, DW_OP_LLVM_fragment 192 16] $r15d
	#DEBUG_VALUE: i <- 1
	.loc	0 44 19                         # x264_src/common/dct.c:44:19
	movzwl	8(%rdi), %eax
.Ltmp625:
	.loc	0 44 30 is_stmt 0               # x264_src/common/dct.c:44:30
	movzwl	10(%rdi), %ecx
	.loc	0 44 28                         # x264_src/common/dct.c:44:28
	leal	(%rcx,%rax), %ebx
.Ltmp626:
	#DEBUG_VALUE: s01 <- $ebx
	.loc	0 45 28 is_stmt 1               # x264_src/common/dct.c:45:28
	subl	%ecx, %eax
.Ltmp627:
	#DEBUG_VALUE: d01 <- $eax
	.loc	0 46 19                         # x264_src/common/dct.c:46:19
	movzwl	12(%rdi), %r9d
	.loc	0 46 30 is_stmt 0               # x264_src/common/dct.c:46:30
	movzwl	14(%rdi), %edx
.Ltmp628:
	.loc	0 46 28                         # x264_src/common/dct.c:46:28
	leal	(%rdx,%r9), %esi
.Ltmp629:
	#DEBUG_VALUE: s23 <- $esi
	.loc	0 47 28 is_stmt 1               # x264_src/common/dct.c:47:28
	subl	%edx, %r9d
.Ltmp630:
	#DEBUG_VALUE: d23 <- $r9d
	.loc	0 49 26                         # x264_src/common/dct.c:49:26
	leal	(%rsi,%rbx), %r13d
.Ltmp631:
	#DEBUG_VALUE: dct4x4dc:tmp <- [DW_OP_LLVM_convert 32 7, DW_OP_LLVM_convert 16 7, DW_OP_stack_value, DW_OP_LLVM_fragment 16 16] $r13d
	.loc	0 50 26                         # x264_src/common/dct.c:50:26
	subl	%esi, %ebx
.Ltmp632:
	#DEBUG_VALUE: dct4x4dc:tmp <- [DW_OP_LLVM_convert 32 7, DW_OP_LLVM_convert 16 7, DW_OP_stack_value, DW_OP_LLVM_fragment 80 16] $ebx
	.loc	0 51 26                         # x264_src/common/dct.c:51:26
	movl	%eax, %ecx
	subl	%r9d, %ecx
.Ltmp633:
	#DEBUG_VALUE: dct4x4dc:tmp <- [DW_OP_LLVM_convert 32 7, DW_OP_LLVM_convert 16 7, DW_OP_stack_value, DW_OP_LLVM_fragment 144 16] $ecx
	.loc	0 0 26 is_stmt 0                # x264_src/common/dct.c:0:26
	movl	%ecx, -8(%rsp)                  # 4-byte Spill
.Ltmp634:
	#DEBUG_VALUE: dct4x4dc:tmp <- [DW_OP_constu 8, DW_OP_minus, DW_OP_deref_size 4, DW_OP_LLVM_convert 32 7, DW_OP_LLVM_convert 16 7, DW_OP_stack_value, DW_OP_LLVM_fragment 144 16] $rsp
	.loc	0 52 26 is_stmt 1               # x264_src/common/dct.c:52:26
	addl	%eax, %r9d
.Ltmp635:
	#DEBUG_VALUE: dct4x4dc:tmp <- [DW_OP_LLVM_convert 32 7, DW_OP_LLVM_convert 16 7, DW_OP_stack_value, DW_OP_LLVM_fragment 208 16] $r9d
	#DEBUG_VALUE: i <- 2
	.loc	0 44 19                         # x264_src/common/dct.c:44:19
	movzwl	16(%rdi), %esi
.Ltmp636:
	.loc	0 44 30 is_stmt 0               # x264_src/common/dct.c:44:30
	movzwl	18(%rdi), %eax
.Ltmp637:
	.loc	0 44 28                         # x264_src/common/dct.c:44:28
	leal	(%rax,%rsi), %r14d
.Ltmp638:
	#DEBUG_VALUE: s01 <- $r14d
	.loc	0 45 28 is_stmt 1               # x264_src/common/dct.c:45:28
	subl	%eax, %esi
.Ltmp639:
	#DEBUG_VALUE: d01 <- $esi
	.loc	0 46 19                         # x264_src/common/dct.c:46:19
	movzwl	20(%rdi), %edx
	.loc	0 46 30 is_stmt 0               # x264_src/common/dct.c:46:30
	movzwl	22(%rdi), %eax
	.loc	0 46 28                         # x264_src/common/dct.c:46:28
	leal	(%rax,%rdx), %r11d
.Ltmp640:
	#DEBUG_VALUE: s23 <- $r11d
	.loc	0 47 28 is_stmt 1               # x264_src/common/dct.c:47:28
	subl	%eax, %edx
.Ltmp641:
	#DEBUG_VALUE: d23 <- $edx
	.loc	0 49 26                         # x264_src/common/dct.c:49:26
	leal	(%r11,%r14), %r8d
.Ltmp642:
	#DEBUG_VALUE: dct4x4dc:tmp <- [DW_OP_LLVM_convert 32 7, DW_OP_LLVM_convert 16 7, DW_OP_stack_value, DW_OP_LLVM_fragment 32 16] $r8d
	.loc	0 50 26                         # x264_src/common/dct.c:50:26
	subl	%r11d, %r14d
.Ltmp643:
	#DEBUG_VALUE: dct4x4dc:tmp <- [DW_OP_LLVM_convert 32 7, DW_OP_LLVM_convert 16 7, DW_OP_stack_value, DW_OP_LLVM_fragment 96 16] $r14d
	.loc	0 51 26                         # x264_src/common/dct.c:51:26
	movl	%esi, %eax
	subl	%edx, %eax
.Ltmp644:
	#DEBUG_VALUE: dct4x4dc:tmp <- [DW_OP_LLVM_convert 32 7, DW_OP_LLVM_convert 16 7, DW_OP_stack_value, DW_OP_LLVM_fragment 160 16] $eax
	.loc	0 0 26 is_stmt 0                # x264_src/common/dct.c:0:26
	movl	%eax, -12(%rsp)                 # 4-byte Spill
.Ltmp645:
	#DEBUG_VALUE: dct4x4dc:tmp <- [DW_OP_constu 12, DW_OP_minus, DW_OP_deref_size 4, DW_OP_LLVM_convert 32 7, DW_OP_LLVM_convert 16 7, DW_OP_stack_value, DW_OP_LLVM_fragment 160 16] $rsp
	.loc	0 52 26 is_stmt 1               # x264_src/common/dct.c:52:26
	addl	%esi, %edx
.Ltmp646:
	#DEBUG_VALUE: dct4x4dc:tmp <- [DW_OP_LLVM_convert 32 7, DW_OP_LLVM_convert 16 7, DW_OP_stack_value, DW_OP_LLVM_fragment 224 16] $edx
	#DEBUG_VALUE: i <- 3
	.loc	0 44 19                         # x264_src/common/dct.c:44:19
	movzwl	24(%rdi), %eax
	.loc	0 44 30 is_stmt 0               # x264_src/common/dct.c:44:30
	movzwl	26(%rdi), %esi
.Ltmp647:
	.loc	0 44 28                         # x264_src/common/dct.c:44:28
	leal	(%rsi,%rax), %r12d
.Ltmp648:
	#DEBUG_VALUE: s01 <- $r12d
	.loc	0 45 28 is_stmt 1               # x264_src/common/dct.c:45:28
	subl	%esi, %eax
.Ltmp649:
	#DEBUG_VALUE: d01 <- $eax
	.loc	0 46 19                         # x264_src/common/dct.c:46:19
	movzwl	28(%rdi), %esi
	.loc	0 46 30 is_stmt 0               # x264_src/common/dct.c:46:30
	movzwl	30(%rdi), %ebp
	.loc	0 46 28                         # x264_src/common/dct.c:46:28
	leal	(%rsi,%rbp), %ecx
.Ltmp650:
	#DEBUG_VALUE: s23 <- $ecx
	.loc	0 47 28 is_stmt 1               # x264_src/common/dct.c:47:28
	subl	%ebp, %esi
.Ltmp651:
	#DEBUG_VALUE: d23 <- $esi
	.loc	0 49 26                         # x264_src/common/dct.c:49:26
	leal	(%rcx,%r12), %ebp
.Ltmp652:
	#DEBUG_VALUE: dct4x4dc:tmp <- [DW_OP_LLVM_convert 32 7, DW_OP_LLVM_convert 16 7, DW_OP_stack_value, DW_OP_LLVM_fragment 48 16] $ebp
	.loc	0 50 26                         # x264_src/common/dct.c:50:26
	subl	%ecx, %r12d
.Ltmp653:
	#DEBUG_VALUE: dct4x4dc:tmp <- [DW_OP_LLVM_convert 32 7, DW_OP_LLVM_convert 16 7, DW_OP_stack_value, DW_OP_LLVM_fragment 112 16] $r12d
	.loc	0 51 26                         # x264_src/common/dct.c:51:26
	movl	%eax, %r11d
	subl	%esi, %r11d
.Ltmp654:
	#DEBUG_VALUE: dct4x4dc:tmp <- [DW_OP_LLVM_convert 32 7, DW_OP_LLVM_convert 16 7, DW_OP_stack_value, DW_OP_LLVM_fragment 176 16] $r11d
	.loc	0 52 26                         # x264_src/common/dct.c:52:26
	addl	%eax, %esi
.Ltmp655:
	#DEBUG_VALUE: dct4x4dc:tmp <- [DW_OP_LLVM_convert 32 7, DW_OP_LLVM_convert 16 7, DW_OP_stack_value, DW_OP_LLVM_fragment 240 16] $esi
	#DEBUG_VALUE: i <- 4
	#DEBUG_VALUE: i <- 0
	.loc	0 59 19                         # x264_src/common/dct.c:59:19
	movswl	%r8w, %ecx
.Ltmp656:
	.loc	0 59 32 is_stmt 0               # x264_src/common/dct.c:59:32
	movswl	%bp, %r8d
.Ltmp657:
	.loc	0 59 30                         # x264_src/common/dct.c:59:30
	leal	(%r8,%rcx), %ebp
.Ltmp658:
	#DEBUG_VALUE: s23 <- $ebp
	.loc	0 60 30 is_stmt 1               # x264_src/common/dct.c:60:30
	subl	%r8d, %ecx
.Ltmp659:
	#DEBUG_VALUE: d23 <- $ecx
	#DEBUG_VALUE: s01 <- [DW_OP_LLVM_arg 0, DW_OP_LLVM_arg 1, DW_OP_plus, DW_OP_stack_value] undef, undef
	#DEBUG_VALUE: d01 <- undef
	.loc	0 57 19                         # x264_src/common/dct.c:57:19
	movswl	-16(%rsp), %r8d                 # 2-byte Folded Reload
	.loc	0 57 32 is_stmt 0               # x264_src/common/dct.c:57:32
	movswl	%r13w, %r13d
.Ltmp660:
	#DEBUG_VALUE: s01 <- [DW_OP_LLVM_arg 0, DW_OP_LLVM_arg 1, DW_OP_plus, DW_OP_stack_value] $r13d, $r8d
	.loc	0 62 26 is_stmt 1               # x264_src/common/dct.c:62:26
	leal	(%r8,%r13), %eax
.Ltmp661:
	incl	%eax
                                        # kill: def $r8d killed $r8d killed $r8 def $r8
	.loc	0 58 30                         # x264_src/common/dct.c:58:30
	subl	%r13d, %r8d
.Ltmp662:
	#DEBUG_VALUE: d01 <- $r8d
	.loc	0 62 38                         # x264_src/common/dct.c:62:38
	leal	(%rax,%rbp), %r13d
	shrl	%r13d
	.loc	0 62 18 is_stmt 0               # x264_src/common/dct.c:62:18
	movw	%r13w, (%rdi)
	.loc	0 63 32 is_stmt 1               # x264_src/common/dct.c:63:32
	subl	%ebp, %eax
	.loc	0 63 38 is_stmt 0               # x264_src/common/dct.c:63:38
	shrl	%eax
	.loc	0 63 18                         # x264_src/common/dct.c:63:18
	movw	%ax, 2(%rdi)
	.loc	0 65 38 is_stmt 1               # x264_src/common/dct.c:65:38
	leal	(%r8,%rcx), %eax
	incl	%eax
                                        # kill: def $r8d killed $r8d killed $r8
	.loc	0 64 32                         # x264_src/common/dct.c:64:32
	subl	%ecx, %r8d
.Ltmp663:
	incl	%r8d
	.loc	0 64 38 is_stmt 0               # x264_src/common/dct.c:64:38
	shrl	%r8d
	.loc	0 64 18                         # x264_src/common/dct.c:64:18
	movw	%r8w, 4(%rdi)
	.loc	0 65 38 is_stmt 1               # x264_src/common/dct.c:65:38
	shrl	%eax
	.loc	0 65 18 is_stmt 0               # x264_src/common/dct.c:65:18
	movw	%ax, 6(%rdi)
.Ltmp664:
	#DEBUG_VALUE: i <- 1
	.loc	0 57 19 is_stmt 1               # x264_src/common/dct.c:57:19
	movswl	%r10w, %ecx
.Ltmp665:
	.loc	0 57 32 is_stmt 0               # x264_src/common/dct.c:57:32
	movswl	%bx, %r8d
	.loc	0 59 19 is_stmt 1               # x264_src/common/dct.c:59:19
	movswl	%r14w, %eax
	.loc	0 59 32 is_stmt 0               # x264_src/common/dct.c:59:32
	movswl	%r12w, %r10d
.Ltmp666:
	.loc	0 59 30                         # x264_src/common/dct.c:59:30
	leal	(%r10,%rax), %ebx
.Ltmp667:
	#DEBUG_VALUE: s23 <- $ebx
	.loc	0 60 30 is_stmt 1               # x264_src/common/dct.c:60:30
	subl	%r10d, %eax
.Ltmp668:
	#DEBUG_VALUE: d23 <- $eax
	#DEBUG_VALUE: s01 <- [DW_OP_LLVM_arg 0, DW_OP_LLVM_arg 1, DW_OP_plus, DW_OP_stack_value] $r8d, $ecx
	#DEBUG_VALUE: d01 <- undef
	.loc	0 62 26                         # x264_src/common/dct.c:62:26
	leal	(%r8,%rcx), %r10d
	incl	%r10d
                                        # kill: def $ecx killed $ecx killed $rcx def $rcx
	.loc	0 58 30                         # x264_src/common/dct.c:58:30
	subl	%r8d, %ecx
.Ltmp669:
	#DEBUG_VALUE: d01 <- $ecx
	.loc	0 62 38                         # x264_src/common/dct.c:62:38
	leal	(%r10,%rbx), %r8d
	shrl	%r8d
	.loc	0 62 18 is_stmt 0               # x264_src/common/dct.c:62:18
	movw	%r8w, 8(%rdi)
	.loc	0 63 32 is_stmt 1               # x264_src/common/dct.c:63:32
	subl	%ebx, %r10d
	.loc	0 63 38 is_stmt 0               # x264_src/common/dct.c:63:38
	shrl	%r10d
	.loc	0 63 18                         # x264_src/common/dct.c:63:18
	movw	%r10w, 10(%rdi)
	.loc	0 65 38 is_stmt 1               # x264_src/common/dct.c:65:38
	leal	(%rcx,%rax), %r8d
	incl	%r8d
                                        # kill: def $ecx killed $ecx killed $rcx
	.loc	0 64 32                         # x264_src/common/dct.c:64:32
	subl	%eax, %ecx
.Ltmp670:
	incl	%ecx
	.loc	0 64 38 is_stmt 0               # x264_src/common/dct.c:64:38
	shrl	%ecx
	.loc	0 64 18                         # x264_src/common/dct.c:64:18
	movw	%cx, 12(%rdi)
	.loc	0 65 38 is_stmt 1               # x264_src/common/dct.c:65:38
	shrl	%r8d
	.loc	0 65 18 is_stmt 0               # x264_src/common/dct.c:65:18
	movw	%r8w, 14(%rdi)
.Ltmp671:
	#DEBUG_VALUE: i <- 2
	.loc	0 57 19 is_stmt 1               # x264_src/common/dct.c:57:19
	movswl	-4(%rsp), %ecx                  # 2-byte Folded Reload
	.loc	0 57 32 is_stmt 0               # x264_src/common/dct.c:57:32
	movswl	-8(%rsp), %r8d                  # 2-byte Folded Reload
	.loc	0 59 19 is_stmt 1               # x264_src/common/dct.c:59:19
	movswl	-12(%rsp), %eax                 # 2-byte Folded Reload
.Ltmp672:
	.loc	0 59 32 is_stmt 0               # x264_src/common/dct.c:59:32
	movswl	%r11w, %r10d
	.loc	0 59 30                         # x264_src/common/dct.c:59:30
	leal	(%r10,%rax), %r11d
.Ltmp673:
	#DEBUG_VALUE: s23 <- $r11d
	.loc	0 60 30 is_stmt 1               # x264_src/common/dct.c:60:30
	subl	%r10d, %eax
.Ltmp674:
	#DEBUG_VALUE: d23 <- $eax
	#DEBUG_VALUE: s01 <- [DW_OP_LLVM_arg 0, DW_OP_LLVM_arg 1, DW_OP_plus, DW_OP_stack_value] $r8d, $ecx
	#DEBUG_VALUE: d01 <- undef
	.loc	0 62 26                         # x264_src/common/dct.c:62:26
	leal	(%r8,%rcx), %r10d
	incl	%r10d
                                        # kill: def $ecx killed $ecx killed $rcx def $rcx
	.loc	0 58 30                         # x264_src/common/dct.c:58:30
	subl	%r8d, %ecx
.Ltmp675:
	#DEBUG_VALUE: d01 <- $ecx
	.loc	0 62 38                         # x264_src/common/dct.c:62:38
	leal	(%r10,%r11), %r8d
	shrl	%r8d
	.loc	0 62 18 is_stmt 0               # x264_src/common/dct.c:62:18
	movw	%r8w, 16(%rdi)
	.loc	0 63 32 is_stmt 1               # x264_src/common/dct.c:63:32
	subl	%r11d, %r10d
	.loc	0 63 38 is_stmt 0               # x264_src/common/dct.c:63:38
	shrl	%r10d
	.loc	0 63 18                         # x264_src/common/dct.c:63:18
	movw	%r10w, 18(%rdi)
	.loc	0 65 38 is_stmt 1               # x264_src/common/dct.c:65:38
	leal	(%rcx,%rax), %r8d
	incl	%r8d
                                        # kill: def $ecx killed $ecx killed $rcx
	.loc	0 64 32                         # x264_src/common/dct.c:64:32
	subl	%eax, %ecx
.Ltmp676:
	incl	%ecx
	.loc	0 64 38 is_stmt 0               # x264_src/common/dct.c:64:38
	shrl	%ecx
	.loc	0 64 18                         # x264_src/common/dct.c:64:18
	movw	%cx, 20(%rdi)
	.loc	0 65 38 is_stmt 1               # x264_src/common/dct.c:65:38
	shrl	%r8d
	.loc	0 65 18 is_stmt 0               # x264_src/common/dct.c:65:18
	movw	%r8w, 22(%rdi)
.Ltmp677:
	#DEBUG_VALUE: i <- 3
	.loc	0 57 19 is_stmt 1               # x264_src/common/dct.c:57:19
	movswl	%r15w, %ecx
	.loc	0 57 32 is_stmt 0               # x264_src/common/dct.c:57:32
	movswl	%r9w, %r8d
	.loc	0 59 19 is_stmt 1               # x264_src/common/dct.c:59:19
	movswl	%dx, %eax
.Ltmp678:
	.loc	0 59 32 is_stmt 0               # x264_src/common/dct.c:59:32
	movswl	%si, %edx
.Ltmp679:
	.loc	0 59 30                         # x264_src/common/dct.c:59:30
	leal	(%rdx,%rax), %esi
.Ltmp680:
	#DEBUG_VALUE: s23 <- $esi
	.loc	0 60 30 is_stmt 1               # x264_src/common/dct.c:60:30
	subl	%edx, %eax
.Ltmp681:
	#DEBUG_VALUE: d23 <- $eax
	#DEBUG_VALUE: s01 <- [DW_OP_LLVM_arg 0, DW_OP_LLVM_arg 1, DW_OP_plus, DW_OP_stack_value] $r8d, $ecx
	#DEBUG_VALUE: d01 <- undef
	.loc	0 62 26                         # x264_src/common/dct.c:62:26
	leal	(%r8,%rcx), %edx
	incl	%edx
                                        # kill: def $ecx killed $ecx killed $rcx def $rcx
	.loc	0 58 30                         # x264_src/common/dct.c:58:30
	subl	%r8d, %ecx
.Ltmp682:
	#DEBUG_VALUE: d01 <- $ecx
	.loc	0 62 38                         # x264_src/common/dct.c:62:38
	leal	(%rdx,%rsi), %r8d
	shrl	%r8d
	.loc	0 62 18 is_stmt 0               # x264_src/common/dct.c:62:18
	movw	%r8w, 24(%rdi)
	.loc	0 63 32 is_stmt 1               # x264_src/common/dct.c:63:32
	subl	%esi, %edx
	.loc	0 63 38 is_stmt 0               # x264_src/common/dct.c:63:38
	shrl	%edx
	.loc	0 63 18                         # x264_src/common/dct.c:63:18
	movw	%dx, 26(%rdi)
	.loc	0 65 38 is_stmt 1               # x264_src/common/dct.c:65:38
	leal	(%rcx,%rax), %edx
	incl	%edx
                                        # kill: def $ecx killed $ecx killed $rcx
	.loc	0 64 32                         # x264_src/common/dct.c:64:32
	subl	%eax, %ecx
.Ltmp683:
	incl	%ecx
	.loc	0 64 38 is_stmt 0               # x264_src/common/dct.c:64:38
	shrl	%ecx
	.loc	0 64 18                         # x264_src/common/dct.c:64:18
	movw	%cx, 28(%rdi)
	.loc	0 65 38 is_stmt 1               # x264_src/common/dct.c:65:38
	shrl	%edx
	.loc	0 65 18 is_stmt 0               # x264_src/common/dct.c:65:18
	movw	%dx, 30(%rdi)
.Ltmp684:
	#DEBUG_VALUE: i <- 4
	.loc	0 67 1 epilogue_begin is_stmt 1 # x264_src/common/dct.c:67:1
	popq	%rbx
	.cfi_def_cfa_offset 48
	popq	%r12
.Ltmp685:
	.cfi_def_cfa_offset 40
	popq	%r13
	.cfi_def_cfa_offset 32
	popq	%r14
.Ltmp686:
	.cfi_def_cfa_offset 24
	popq	%r15
.Ltmp687:
	.cfi_def_cfa_offset 16
	popq	%rbp
	.cfi_def_cfa_offset 8
	retq
.Ltmp688:
.Lfunc_end14:
	.size	dct4x4dc, .Lfunc_end14-dct4x4dc
	.cfi_endproc
                                        # -- End function
	.p2align	4, 0x90                         # -- Begin function idct4x4dc
	.type	idct4x4dc,@function
idct4x4dc:                              # @idct4x4dc
.Lfunc_begin15:
	.loc	0 70 0                          # x264_src/common/dct.c:70:0
	.cfi_startproc
# %bb.0:                                # %entry
	#DEBUG_VALUE: idct4x4dc:d <- $rdi
	pushq	%rbp
	.cfi_def_cfa_offset 16
	pushq	%r15
	.cfi_def_cfa_offset 24
	pushq	%r14
	.cfi_def_cfa_offset 32
	pushq	%r13
	.cfi_def_cfa_offset 40
	pushq	%r12
	.cfi_def_cfa_offset 48
	pushq	%rbx
	.cfi_def_cfa_offset 56
	.cfi_offset %rbx, -56
	.cfi_offset %r12, -48
	.cfi_offset %r13, -40
	.cfi_offset %r14, -32
	.cfi_offset %r15, -24
	.cfi_offset %rbp, -16
.Ltmp689:
	#DEBUG_VALUE: i <- 0
	.loc	0 75 19 prologue_end            # x264_src/common/dct.c:75:19
	movzwl	(%rdi), %eax
	.loc	0 75 30 is_stmt 0               # x264_src/common/dct.c:75:30
	movzwl	2(%rdi), %ecx
	.loc	0 75 28                         # x264_src/common/dct.c:75:28
	leal	(%rcx,%rax), %r15d
.Ltmp690:
	#DEBUG_VALUE: s01 <- $r15d
	.loc	0 76 28 is_stmt 1               # x264_src/common/dct.c:76:28
	subl	%ecx, %eax
.Ltmp691:
	#DEBUG_VALUE: d01 <- $eax
	.loc	0 77 19                         # x264_src/common/dct.c:77:19
	movzwl	4(%rdi), %r10d
	.loc	0 77 30 is_stmt 0               # x264_src/common/dct.c:77:30
	movzwl	6(%rdi), %ecx
	.loc	0 77 28                         # x264_src/common/dct.c:77:28
	leal	(%rcx,%r10), %edx
.Ltmp692:
	#DEBUG_VALUE: s23 <- $edx
	.loc	0 78 28 is_stmt 1               # x264_src/common/dct.c:78:28
	subl	%ecx, %r10d
.Ltmp693:
	#DEBUG_VALUE: d23 <- $r10d
	.loc	0 80 26                         # x264_src/common/dct.c:80:26
	leal	(%rdx,%r15), %ecx
.Ltmp694:
	#DEBUG_VALUE: idct4x4dc:tmp <- [DW_OP_LLVM_convert 32 7, DW_OP_LLVM_convert 16 7, DW_OP_stack_value, DW_OP_LLVM_fragment 0 16] $ecx
	.loc	0 0 26 is_stmt 0                # x264_src/common/dct.c:0:26
	movl	%ecx, -16(%rsp)                 # 4-byte Spill
.Ltmp695:
	#DEBUG_VALUE: idct4x4dc:tmp <- [DW_OP_constu 16, DW_OP_minus, DW_OP_deref_size 4, DW_OP_LLVM_convert 32 7, DW_OP_LLVM_convert 16 7, DW_OP_stack_value, DW_OP_LLVM_fragment 0 16] $rsp
	.loc	0 81 26 is_stmt 1               # x264_src/common/dct.c:81:26
	subl	%edx, %r15d
.Ltmp696:
	#DEBUG_VALUE: idct4x4dc:tmp <- [DW_OP_LLVM_convert 32 7, DW_OP_LLVM_convert 16 7, DW_OP_stack_value, DW_OP_LLVM_fragment 64 16] $r15d
	.loc	0 82 26                         # x264_src/common/dct.c:82:26
	movl	%eax, %ecx
	subl	%r10d, %ecx
.Ltmp697:
	#DEBUG_VALUE: idct4x4dc:tmp <- [DW_OP_LLVM_convert 32 7, DW_OP_LLVM_convert 16 7, DW_OP_stack_value, DW_OP_LLVM_fragment 128 16] $ecx
	.loc	0 0 26 is_stmt 0                # x264_src/common/dct.c:0:26
	movl	%ecx, -4(%rsp)                  # 4-byte Spill
.Ltmp698:
	#DEBUG_VALUE: idct4x4dc:tmp <- [DW_OP_constu 4, DW_OP_minus, DW_OP_deref_size 4, DW_OP_LLVM_convert 32 7, DW_OP_LLVM_convert 16 7, DW_OP_stack_value, DW_OP_LLVM_fragment 128 16] $rsp
	.loc	0 83 26 is_stmt 1               # x264_src/common/dct.c:83:26
	addl	%eax, %r10d
.Ltmp699:
	#DEBUG_VALUE: idct4x4dc:tmp <- [DW_OP_LLVM_convert 32 7, DW_OP_LLVM_convert 16 7, DW_OP_stack_value, DW_OP_LLVM_fragment 192 16] $r10d
	#DEBUG_VALUE: i <- 1
	.loc	0 75 19                         # x264_src/common/dct.c:75:19
	movzwl	8(%rdi), %eax
.Ltmp700:
	.loc	0 75 30 is_stmt 0               # x264_src/common/dct.c:75:30
	movzwl	10(%rdi), %ecx
	.loc	0 75 28                         # x264_src/common/dct.c:75:28
	leal	(%rcx,%rax), %ebx
.Ltmp701:
	#DEBUG_VALUE: s01 <- $ebx
	.loc	0 76 28 is_stmt 1               # x264_src/common/dct.c:76:28
	subl	%ecx, %eax
.Ltmp702:
	#DEBUG_VALUE: d01 <- $eax
	.loc	0 77 19                         # x264_src/common/dct.c:77:19
	movzwl	12(%rdi), %r9d
	.loc	0 77 30 is_stmt 0               # x264_src/common/dct.c:77:30
	movzwl	14(%rdi), %edx
.Ltmp703:
	.loc	0 77 28                         # x264_src/common/dct.c:77:28
	leal	(%rdx,%r9), %r8d
.Ltmp704:
	#DEBUG_VALUE: s23 <- $r8d
	.loc	0 78 28 is_stmt 1               # x264_src/common/dct.c:78:28
	subl	%edx, %r9d
.Ltmp705:
	#DEBUG_VALUE: d23 <- $r9d
	.loc	0 80 26                         # x264_src/common/dct.c:80:26
	leal	(%r8,%rbx), %ecx
.Ltmp706:
	#DEBUG_VALUE: idct4x4dc:tmp <- [DW_OP_LLVM_convert 32 7, DW_OP_LLVM_convert 16 7, DW_OP_stack_value, DW_OP_LLVM_fragment 16 16] $ecx
	.loc	0 0 26 is_stmt 0                # x264_src/common/dct.c:0:26
	movl	%ecx, -20(%rsp)                 # 4-byte Spill
.Ltmp707:
	#DEBUG_VALUE: idct4x4dc:tmp <- [DW_OP_constu 20, DW_OP_minus, DW_OP_deref_size 4, DW_OP_LLVM_convert 32 7, DW_OP_LLVM_convert 16 7, DW_OP_stack_value, DW_OP_LLVM_fragment 16 16] $rsp
	.loc	0 81 26 is_stmt 1               # x264_src/common/dct.c:81:26
	subl	%r8d, %ebx
.Ltmp708:
	#DEBUG_VALUE: idct4x4dc:tmp <- [DW_OP_LLVM_convert 32 7, DW_OP_LLVM_convert 16 7, DW_OP_stack_value, DW_OP_LLVM_fragment 80 16] $ebx
	.loc	0 82 26                         # x264_src/common/dct.c:82:26
	movl	%eax, %ecx
	subl	%r9d, %ecx
.Ltmp709:
	#DEBUG_VALUE: idct4x4dc:tmp <- [DW_OP_LLVM_convert 32 7, DW_OP_LLVM_convert 16 7, DW_OP_stack_value, DW_OP_LLVM_fragment 144 16] $ecx
	.loc	0 0 26 is_stmt 0                # x264_src/common/dct.c:0:26
	movl	%ecx, -8(%rsp)                  # 4-byte Spill
.Ltmp710:
	#DEBUG_VALUE: idct4x4dc:tmp <- [DW_OP_constu 8, DW_OP_minus, DW_OP_deref_size 4, DW_OP_LLVM_convert 32 7, DW_OP_LLVM_convert 16 7, DW_OP_stack_value, DW_OP_LLVM_fragment 144 16] $rsp
	.loc	0 83 26 is_stmt 1               # x264_src/common/dct.c:83:26
	addl	%eax, %r9d
.Ltmp711:
	#DEBUG_VALUE: idct4x4dc:tmp <- [DW_OP_LLVM_convert 32 7, DW_OP_LLVM_convert 16 7, DW_OP_stack_value, DW_OP_LLVM_fragment 208 16] $r9d
	#DEBUG_VALUE: i <- 2
	.loc	0 75 19                         # x264_src/common/dct.c:75:19
	movzwl	16(%rdi), %eax
.Ltmp712:
	.loc	0 75 30 is_stmt 0               # x264_src/common/dct.c:75:30
	movzwl	18(%rdi), %edx
	.loc	0 75 28                         # x264_src/common/dct.c:75:28
	leal	(%rdx,%rax), %r14d
.Ltmp713:
	#DEBUG_VALUE: s01 <- $r14d
	.loc	0 76 28 is_stmt 1               # x264_src/common/dct.c:76:28
	subl	%edx, %eax
.Ltmp714:
	#DEBUG_VALUE: d01 <- $eax
	.loc	0 77 19                         # x264_src/common/dct.c:77:19
	movzwl	20(%rdi), %esi
	.loc	0 77 30 is_stmt 0               # x264_src/common/dct.c:77:30
	movzwl	22(%rdi), %r8d
.Ltmp715:
	.loc	0 77 28                         # x264_src/common/dct.c:77:28
	leal	(%r8,%rsi), %r11d
.Ltmp716:
	#DEBUG_VALUE: s23 <- $r11d
	.loc	0 78 28 is_stmt 1               # x264_src/common/dct.c:78:28
	subl	%r8d, %esi
.Ltmp717:
	#DEBUG_VALUE: d23 <- $esi
	.loc	0 80 26                         # x264_src/common/dct.c:80:26
	leal	(%r11,%r14), %r13d
.Ltmp718:
	#DEBUG_VALUE: idct4x4dc:tmp <- [DW_OP_LLVM_convert 32 7, DW_OP_LLVM_convert 16 7, DW_OP_stack_value, DW_OP_LLVM_fragment 32 16] $r13d
	.loc	0 81 26                         # x264_src/common/dct.c:81:26
	subl	%r11d, %r14d
.Ltmp719:
	#DEBUG_VALUE: idct4x4dc:tmp <- [DW_OP_LLVM_convert 32 7, DW_OP_LLVM_convert 16 7, DW_OP_stack_value, DW_OP_LLVM_fragment 96 16] $r14d
	.loc	0 82 26                         # x264_src/common/dct.c:82:26
	movl	%eax, %ecx
	subl	%esi, %ecx
.Ltmp720:
	#DEBUG_VALUE: idct4x4dc:tmp <- [DW_OP_LLVM_convert 32 7, DW_OP_LLVM_convert 16 7, DW_OP_stack_value, DW_OP_LLVM_fragment 160 16] $ecx
	.loc	0 0 26 is_stmt 0                # x264_src/common/dct.c:0:26
	movl	%ecx, -12(%rsp)                 # 4-byte Spill
.Ltmp721:
	#DEBUG_VALUE: idct4x4dc:tmp <- [DW_OP_constu 12, DW_OP_minus, DW_OP_deref_size 4, DW_OP_LLVM_convert 32 7, DW_OP_LLVM_convert 16 7, DW_OP_stack_value, DW_OP_LLVM_fragment 160 16] $rsp
	.loc	0 83 26 is_stmt 1               # x264_src/common/dct.c:83:26
	addl	%eax, %esi
.Ltmp722:
	#DEBUG_VALUE: idct4x4dc:tmp <- [DW_OP_LLVM_convert 32 7, DW_OP_LLVM_convert 16 7, DW_OP_stack_value, DW_OP_LLVM_fragment 224 16] $esi
	#DEBUG_VALUE: i <- 3
	.loc	0 75 19                         # x264_src/common/dct.c:75:19
	movzwl	24(%rdi), %eax
.Ltmp723:
	.loc	0 75 30 is_stmt 0               # x264_src/common/dct.c:75:30
	movzwl	26(%rdi), %r8d
	.loc	0 75 28                         # x264_src/common/dct.c:75:28
	leal	(%r8,%rax), %r12d
.Ltmp724:
	#DEBUG_VALUE: s01 <- $r12d
	.loc	0 76 28 is_stmt 1               # x264_src/common/dct.c:76:28
	subl	%r8d, %eax
.Ltmp725:
	#DEBUG_VALUE: d01 <- $eax
	.loc	0 77 19                         # x264_src/common/dct.c:77:19
	movzwl	28(%rdi), %r8d
	.loc	0 77 30 is_stmt 0               # x264_src/common/dct.c:77:30
	movzwl	30(%rdi), %ebp
	.loc	0 77 28                         # x264_src/common/dct.c:77:28
	leal	(%r8,%rbp), %ecx
.Ltmp726:
	#DEBUG_VALUE: s23 <- $ecx
	.loc	0 78 28 is_stmt 1               # x264_src/common/dct.c:78:28
	subl	%ebp, %r8d
.Ltmp727:
	#DEBUG_VALUE: d23 <- $r8d
	.loc	0 80 26                         # x264_src/common/dct.c:80:26
	leal	(%rcx,%r12), %ebp
.Ltmp728:
	#DEBUG_VALUE: idct4x4dc:tmp <- [DW_OP_LLVM_convert 32 7, DW_OP_LLVM_convert 16 7, DW_OP_stack_value, DW_OP_LLVM_fragment 48 16] $ebp
	.loc	0 81 26                         # x264_src/common/dct.c:81:26
	subl	%ecx, %r12d
.Ltmp729:
	#DEBUG_VALUE: idct4x4dc:tmp <- [DW_OP_LLVM_convert 32 7, DW_OP_LLVM_convert 16 7, DW_OP_stack_value, DW_OP_LLVM_fragment 112 16] $r12d
	.loc	0 82 26                         # x264_src/common/dct.c:82:26
	movl	%eax, %r11d
	subl	%r8d, %r11d
.Ltmp730:
	#DEBUG_VALUE: idct4x4dc:tmp <- [DW_OP_LLVM_convert 32 7, DW_OP_LLVM_convert 16 7, DW_OP_stack_value, DW_OP_LLVM_fragment 176 16] $r11d
	.loc	0 83 26                         # x264_src/common/dct.c:83:26
	addl	%eax, %r8d
.Ltmp731:
	#DEBUG_VALUE: idct4x4dc:tmp <- [DW_OP_LLVM_convert 32 7, DW_OP_LLVM_convert 16 7, DW_OP_stack_value, DW_OP_LLVM_fragment 240 16] $r8d
	#DEBUG_VALUE: i <- 4
	#DEBUG_VALUE: i <- 0
	.loc	0 88 19                         # x264_src/common/dct.c:88:19
	movzwl	-16(%rsp), %ecx                 # 2-byte Folded Reload
.Ltmp732:
	.loc	0 88 32 is_stmt 0               # x264_src/common/dct.c:88:32
	movzwl	-20(%rsp), %edx                 # 2-byte Folded Reload
	.loc	0 88 30                         # x264_src/common/dct.c:88:30
	leal	(%rdx,%rcx), %eax
.Ltmp733:
	#DEBUG_VALUE: s01 <- $eax
	.loc	0 89 30 is_stmt 1               # x264_src/common/dct.c:89:30
	subl	%edx, %ecx
.Ltmp734:
	#DEBUG_VALUE: d01 <- $ecx
	.loc	0 90 19                         # x264_src/common/dct.c:90:19
	movzwl	%r13w, %edx
	.loc	0 90 32 is_stmt 0               # x264_src/common/dct.c:90:32
	movzwl	%bp, %r13d
.Ltmp735:
	.loc	0 90 30                         # x264_src/common/dct.c:90:30
	leal	(%rdx,%r13), %ebp
.Ltmp736:
	#DEBUG_VALUE: s23 <- $ebp
	.loc	0 91 30 is_stmt 1               # x264_src/common/dct.c:91:30
	subl	%r13d, %edx
.Ltmp737:
	#DEBUG_VALUE: d23 <- $edx
	.loc	0 93 24                         # x264_src/common/dct.c:93:24
	leal	(%rax,%rbp), %r13d
	.loc	0 93 18 is_stmt 0               # x264_src/common/dct.c:93:18
	movw	%r13w, (%rdi)
	.loc	0 94 24 is_stmt 1               # x264_src/common/dct.c:94:24
	subl	%ebp, %eax
.Ltmp738:
	.loc	0 94 18 is_stmt 0               # x264_src/common/dct.c:94:18
	movw	%ax, 2(%rdi)
	.loc	0 95 24 is_stmt 1               # x264_src/common/dct.c:95:24
	movl	%ecx, %eax
	subl	%edx, %eax
	.loc	0 95 18 is_stmt 0               # x264_src/common/dct.c:95:18
	movw	%ax, 4(%rdi)
	.loc	0 96 24 is_stmt 1               # x264_src/common/dct.c:96:24
	addl	%ecx, %edx
.Ltmp739:
	.loc	0 96 18 is_stmt 0               # x264_src/common/dct.c:96:18
	movw	%dx, 6(%rdi)
.Ltmp740:
	#DEBUG_VALUE: i <- 1
	.loc	0 88 19 is_stmt 1               # x264_src/common/dct.c:88:19
	movzwl	%r15w, %eax
	.loc	0 88 32 is_stmt 0               # x264_src/common/dct.c:88:32
	movzwl	%bx, %ecx
.Ltmp741:
	.loc	0 88 30                         # x264_src/common/dct.c:88:30
	leal	(%rcx,%rax), %edx
.Ltmp742:
	#DEBUG_VALUE: s01 <- $edx
	.loc	0 89 30 is_stmt 1               # x264_src/common/dct.c:89:30
	subl	%ecx, %eax
.Ltmp743:
	#DEBUG_VALUE: d01 <- $eax
	.loc	0 90 19                         # x264_src/common/dct.c:90:19
	movzwl	%r14w, %ecx
	.loc	0 90 32 is_stmt 0               # x264_src/common/dct.c:90:32
	movzwl	%r12w, %ebx
.Ltmp744:
	.loc	0 90 30                         # x264_src/common/dct.c:90:30
	leal	(%rbx,%rcx), %r14d
.Ltmp745:
	#DEBUG_VALUE: s23 <- $r14d
	.loc	0 91 30 is_stmt 1               # x264_src/common/dct.c:91:30
	subl	%ebx, %ecx
.Ltmp746:
	#DEBUG_VALUE: d23 <- $ecx
	.loc	0 93 24                         # x264_src/common/dct.c:93:24
	leal	(%r14,%rdx), %ebx
	.loc	0 93 18 is_stmt 0               # x264_src/common/dct.c:93:18
	movw	%bx, 8(%rdi)
	.loc	0 94 24 is_stmt 1               # x264_src/common/dct.c:94:24
	subl	%r14d, %edx
.Ltmp747:
	.loc	0 94 18 is_stmt 0               # x264_src/common/dct.c:94:18
	movw	%dx, 10(%rdi)
	.loc	0 95 24 is_stmt 1               # x264_src/common/dct.c:95:24
	movl	%eax, %edx
	subl	%ecx, %edx
	.loc	0 95 18 is_stmt 0               # x264_src/common/dct.c:95:18
	movw	%dx, 12(%rdi)
	.loc	0 96 24 is_stmt 1               # x264_src/common/dct.c:96:24
	addl	%eax, %ecx
.Ltmp748:
	.loc	0 96 18 is_stmt 0               # x264_src/common/dct.c:96:18
	movw	%cx, 14(%rdi)
.Ltmp749:
	#DEBUG_VALUE: i <- 2
	.loc	0 88 19 is_stmt 1               # x264_src/common/dct.c:88:19
	movzwl	-4(%rsp), %eax                  # 2-byte Folded Reload
.Ltmp750:
	.loc	0 88 32 is_stmt 0               # x264_src/common/dct.c:88:32
	movzwl	-8(%rsp), %ecx                  # 2-byte Folded Reload
	.loc	0 88 30                         # x264_src/common/dct.c:88:30
	leal	(%rcx,%rax), %edx
.Ltmp751:
	#DEBUG_VALUE: s01 <- $edx
	.loc	0 89 30 is_stmt 1               # x264_src/common/dct.c:89:30
	subl	%ecx, %eax
.Ltmp752:
	#DEBUG_VALUE: d01 <- $eax
	.loc	0 90 19                         # x264_src/common/dct.c:90:19
	movzwl	-12(%rsp), %ecx                 # 2-byte Folded Reload
	.loc	0 90 32 is_stmt 0               # x264_src/common/dct.c:90:32
	movzwl	%r11w, %r11d
.Ltmp753:
	.loc	0 90 30                         # x264_src/common/dct.c:90:30
	leal	(%r11,%rcx), %ebx
.Ltmp754:
	#DEBUG_VALUE: s23 <- $ebx
	.loc	0 91 30 is_stmt 1               # x264_src/common/dct.c:91:30
	subl	%r11d, %ecx
.Ltmp755:
	#DEBUG_VALUE: d23 <- $ecx
	.loc	0 93 24                         # x264_src/common/dct.c:93:24
	leal	(%rbx,%rdx), %r11d
	.loc	0 93 18 is_stmt 0               # x264_src/common/dct.c:93:18
	movw	%r11w, 16(%rdi)
	.loc	0 94 24 is_stmt 1               # x264_src/common/dct.c:94:24
	subl	%ebx, %edx
.Ltmp756:
	.loc	0 94 18 is_stmt 0               # x264_src/common/dct.c:94:18
	movw	%dx, 18(%rdi)
	.loc	0 95 24 is_stmt 1               # x264_src/common/dct.c:95:24
	movl	%eax, %edx
	subl	%ecx, %edx
	.loc	0 95 18 is_stmt 0               # x264_src/common/dct.c:95:18
	movw	%dx, 20(%rdi)
	.loc	0 96 24 is_stmt 1               # x264_src/common/dct.c:96:24
	addl	%eax, %ecx
.Ltmp757:
	.loc	0 96 18 is_stmt 0               # x264_src/common/dct.c:96:18
	movw	%cx, 22(%rdi)
.Ltmp758:
	#DEBUG_VALUE: i <- 3
	.loc	0 88 19 is_stmt 1               # x264_src/common/dct.c:88:19
	movzwl	%r10w, %eax
.Ltmp759:
	.loc	0 88 32 is_stmt 0               # x264_src/common/dct.c:88:32
	movzwl	%r9w, %ecx
	.loc	0 88 30                         # x264_src/common/dct.c:88:30
	leal	(%rcx,%rax), %edx
.Ltmp760:
	#DEBUG_VALUE: s01 <- $edx
	.loc	0 89 30 is_stmt 1               # x264_src/common/dct.c:89:30
	subl	%ecx, %eax
.Ltmp761:
	#DEBUG_VALUE: d01 <- $eax
	.loc	0 90 19                         # x264_src/common/dct.c:90:19
	movzwl	%si, %ecx
	.loc	0 90 32 is_stmt 0               # x264_src/common/dct.c:90:32
	movzwl	%r8w, %esi
.Ltmp762:
	.loc	0 90 30                         # x264_src/common/dct.c:90:30
	leal	(%rsi,%rcx), %r8d
.Ltmp763:
	#DEBUG_VALUE: s23 <- $r8d
	.loc	0 91 30 is_stmt 1               # x264_src/common/dct.c:91:30
	subl	%esi, %ecx
.Ltmp764:
	#DEBUG_VALUE: d23 <- $ecx
	.loc	0 93 24                         # x264_src/common/dct.c:93:24
	leal	(%r8,%rdx), %esi
	.loc	0 93 18 is_stmt 0               # x264_src/common/dct.c:93:18
	movw	%si, 24(%rdi)
	.loc	0 94 24 is_stmt 1               # x264_src/common/dct.c:94:24
	subl	%r8d, %edx
.Ltmp765:
	.loc	0 94 18 is_stmt 0               # x264_src/common/dct.c:94:18
	movw	%dx, 26(%rdi)
	.loc	0 95 24 is_stmt 1               # x264_src/common/dct.c:95:24
	movl	%eax, %edx
	subl	%ecx, %edx
	.loc	0 95 18 is_stmt 0               # x264_src/common/dct.c:95:18
	movw	%dx, 28(%rdi)
	.loc	0 96 24 is_stmt 1               # x264_src/common/dct.c:96:24
	addl	%eax, %ecx
.Ltmp766:
	.loc	0 96 18 is_stmt 0               # x264_src/common/dct.c:96:18
	movw	%cx, 30(%rdi)
.Ltmp767:
	#DEBUG_VALUE: i <- 4
	.loc	0 98 1 epilogue_begin is_stmt 1 # x264_src/common/dct.c:98:1
	popq	%rbx
	.cfi_def_cfa_offset 48
	popq	%r12
.Ltmp768:
	.cfi_def_cfa_offset 40
	popq	%r13
	.cfi_def_cfa_offset 32
	popq	%r14
	.cfi_def_cfa_offset 24
	popq	%r15
.Ltmp769:
	.cfi_def_cfa_offset 16
	popq	%rbp
	.cfi_def_cfa_offset 8
	retq
.Ltmp770:
.Lfunc_end15:
	.size	idct4x4dc, .Lfunc_end15-idct4x4dc
	.cfi_endproc
                                        # -- End function
	.section	.rodata.cst16,"aM",@progbits,16
	.p2align	4, 0x0                          # -- Begin function x264_dct_init_weights
.LCPI16_0:
	.long	800                             # 0x320
	.long	320                             # 0x140
	.long	320                             # 0x140
	.long	800                             # 0x320
.LCPI16_1:
	.long	128                             # 0x80
	.long	800                             # 0x320
	.long	320                             # 0x140
	.long	320                             # 0x140
.LCPI16_2:
	.long	320                             # 0x140
	.long	320                             # 0x140
	.long	128                             # 0x80
	.long	800                             # 0x320
.LCPI16_3:
	.long	128                             # 0x80
	.long	320                             # 0x140
	.long	320                             # 0x140
	.long	128                             # 0x80
.LCPI16_4:
	.long	320                             # 0x140
	.long	128                             # 0x80
	.long	320                             # 0x140
	.long	128                             # 0x80
.LCPI16_5:
	.long	800                             # 0x320
	.long	320                             # 0x140
	.long	800                             # 0x320
	.long	320                             # 0x140
	.text
	.globl	x264_dct_init_weights
	.p2align	4, 0x90
	.type	x264_dct_init_weights,@function
x264_dct_init_weights:                  # @x264_dct_init_weights
.Lfunc_begin16:
	.cfi_startproc
# %bb.0:                                # %entry
	#DEBUG_VALUE: j <- 0
	#DEBUG_VALUE: i <- 3
	.loc	0 525 44 prologue_end           # x264_src/common/dct.c:525:44
	movaps	.LCPI16_0(%rip), %xmm0          # xmm0 = [800,320,320,800]
	movaps	%xmm0, x264_dct4_weight2_zigzag(%rip)
.Ltmp771:
	#DEBUG_VALUE: i <- 7
	movaps	.LCPI16_1(%rip), %xmm1          # xmm1 = [128,800,320,320]
	movaps	%xmm1, x264_dct4_weight2_zigzag+16(%rip)
.Ltmp772:
	#DEBUG_VALUE: i <- 11
	movaps	.LCPI16_2(%rip), %xmm1          # xmm1 = [320,320,128,800]
	movaps	%xmm1, x264_dct4_weight2_zigzag+32(%rip)
.Ltmp773:
	#DEBUG_VALUE: i <- 15
	movaps	.LCPI16_3(%rip), %xmm1          # xmm1 = [128,320,320,128]
	movaps	%xmm1, x264_dct4_weight2_zigzag+48(%rip)
	movq	$-64, %rax
.Ltmp774:
	#DEBUG_VALUE: i <- 16
	#DEBUG_VALUE: i <- 0
	.p2align	4, 0x90
.LBB16_1:                               # %vector.body
                                        # =>This Inner Loop Header: Depth=1
	#DEBUG_VALUE: j <- 0
	#DEBUG_VALUE: i <- 0
	.loc	0 527 69                        # x264_src/common/dct.c:527:69
	movzbl	x264_zigzag_scan8+64(%rax), %ecx
	movzbl	x264_zigzag_scan8+65(%rax), %edx
	movzbl	x264_zigzag_scan8+66(%rax), %esi
	movzbl	x264_zigzag_scan8+67(%rax), %edi
	.loc	0 527 46 is_stmt 0              # x264_src/common/dct.c:527:46
	movzwl	x264_dct8_weight2_tab(%rcx,%rcx), %ecx
	movzwl	x264_dct8_weight2_tab(%rdx,%rdx), %edx
	movzwl	x264_dct8_weight2_tab(%rsi,%rsi), %esi
	movzwl	x264_dct8_weight2_tab(%rdi,%rdi), %edi
	.loc	0 527 44                        # x264_src/common/dct.c:527:44
	movl	%ecx, x264_dct8_weight2_zigzag+256(,%rax,4)
	movl	%edx, x264_dct8_weight2_zigzag+260(,%rax,4)
	movl	%esi, x264_dct8_weight2_zigzag+264(,%rax,4)
	movl	%edi, x264_dct8_weight2_zigzag+268(,%rax,4)
	.loc	0 526 34 is_stmt 1              # x264_src/common/dct.c:526:34
	addq	$4, %rax
	jne	.LBB16_1
.Ltmp775:
# %bb.2:                                # %for.cond.cleanup17
	#DEBUG_VALUE: j <- 0
	#DEBUG_VALUE: i <- 0
	#DEBUG_VALUE: j <- 1
	#DEBUG_VALUE: i <- 3
	.loc	0 525 44                        # x264_src/common/dct.c:525:44
	movaps	%xmm0, x264_dct4_weight2_zigzag+64(%rip)
.Ltmp776:
	#DEBUG_VALUE: i <- 7
	movaps	.LCPI16_4(%rip), %xmm0          # xmm0 = [320,128,320,128]
	movaps	%xmm0, x264_dct4_weight2_zigzag+80(%rip)
.Ltmp777:
	#DEBUG_VALUE: i <- 11
	movaps	.LCPI16_5(%rip), %xmm1          # xmm1 = [800,320,800,320]
	movaps	%xmm1, x264_dct4_weight2_zigzag+96(%rip)
.Ltmp778:
	#DEBUG_VALUE: i <- 15
	movaps	%xmm0, x264_dct4_weight2_zigzag+112(%rip)
	movq	$-64, %rax
.Ltmp779:
	#DEBUG_VALUE: i <- 16
	#DEBUG_VALUE: i <- 0
	.p2align	4, 0x90
.LBB16_3:                               # %vector.body64
                                        # =>This Inner Loop Header: Depth=1
	#DEBUG_VALUE: j <- 1
	#DEBUG_VALUE: i <- 0
	.loc	0 527 69                        # x264_src/common/dct.c:527:69
	movzbl	x264_zigzag_scan8+128(%rax), %ecx
	movzbl	x264_zigzag_scan8+129(%rax), %edx
	movzbl	x264_zigzag_scan8+130(%rax), %esi
	movzbl	x264_zigzag_scan8+131(%rax), %edi
	.loc	0 527 46 is_stmt 0              # x264_src/common/dct.c:527:46
	movzwl	x264_dct8_weight2_tab(%rcx,%rcx), %ecx
	movzwl	x264_dct8_weight2_tab(%rdx,%rdx), %edx
	movzwl	x264_dct8_weight2_tab(%rsi,%rsi), %esi
	movzwl	x264_dct8_weight2_tab(%rdi,%rdi), %edi
	.loc	0 527 44                        # x264_src/common/dct.c:527:44
	movl	%ecx, x264_dct8_weight2_zigzag+512(,%rax,4)
	movl	%edx, x264_dct8_weight2_zigzag+516(,%rax,4)
	movl	%esi, x264_dct8_weight2_zigzag+520(,%rax,4)
	movl	%edi, x264_dct8_weight2_zigzag+524(,%rax,4)
	.loc	0 526 34 is_stmt 1              # x264_src/common/dct.c:526:34
	addq	$4, %rax
	jne	.LBB16_3
.Ltmp780:
# %bb.4:                                # %for.cond.cleanup17.1
	#DEBUG_VALUE: j <- 1
	#DEBUG_VALUE: j <- 2
	.loc	0 529 1                         # x264_src/common/dct.c:529:1
	retq
.Ltmp781:
.Lfunc_end16:
	.size	x264_dct_init_weights, .Lfunc_end16-x264_dct_init_weights
	.cfi_endproc
                                        # -- End function
	.globl	x264_zigzag_init                # -- Begin function x264_zigzag_init
	.p2align	4, 0x90
	.type	x264_zigzag_init,@function
x264_zigzag_init:                       # @x264_zigzag_init
.Lfunc_begin17:
	.cfi_startproc
# %bb.0:                                # %entry
	#DEBUG_VALUE: x264_zigzag_init:cpu <- $edi
	#DEBUG_VALUE: x264_zigzag_init:pf <- $rsi
	#DEBUG_VALUE: x264_zigzag_init:b_interlaced <- $edx
	.loc	0 705 9 prologue_end            # x264_src/common/dct.c:705:9
	testl	%edx, %edx
.Ltmp782:
	.loc	0 705 9 is_stmt 0               # x264_src/common/dct.c:705:9
	je	.LBB17_2
.Ltmp783:
# %bb.1:
	#DEBUG_VALUE: x264_zigzag_init:cpu <- $edi
	#DEBUG_VALUE: x264_zigzag_init:pf <- $rsi
	#DEBUG_VALUE: x264_zigzag_init:b_interlaced <- $edx
	.loc	0 0 9                           # x264_src/common/dct.c:0:9
	movl	$zigzag_sub_4x4ac_field, %eax
	movl	$zigzag_sub_4x4_field, %ecx
	movl	$zigzag_sub_8x8_field, %edx
.Ltmp784:
	#DEBUG_VALUE: x264_zigzag_init:b_interlaced <- [DW_OP_LLVM_entry_value 1] $edx
	movl	$zigzag_scan_4x4_field, %edi
.Ltmp785:
	#DEBUG_VALUE: x264_zigzag_init:cpu <- [DW_OP_LLVM_entry_value 1] $edi
	movl	$zigzag_scan_8x8_field, %r8d
	jmp	.LBB17_3
.Ltmp786:
.LBB17_2:                               # %if.else
	#DEBUG_VALUE: x264_zigzag_init:cpu <- $edi
	#DEBUG_VALUE: x264_zigzag_init:pf <- $rsi
	#DEBUG_VALUE: x264_zigzag_init:b_interlaced <- $edx
	movl	$zigzag_sub_4x4ac_frame, %eax
	movl	$zigzag_sub_4x4_frame, %ecx
	movl	$zigzag_sub_8x8_frame, %edx
.Ltmp787:
	#DEBUG_VALUE: x264_zigzag_init:b_interlaced <- [DW_OP_LLVM_entry_value 1] $edx
	movl	$zigzag_scan_4x4_frame, %edi
.Ltmp788:
	#DEBUG_VALUE: x264_zigzag_init:cpu <- [DW_OP_LLVM_entry_value 1] $edi
	movl	$zigzag_scan_8x8_frame, %r8d
.Ltmp789:
.LBB17_3:                               # %if.end
	#DEBUG_VALUE: x264_zigzag_init:cpu <- [DW_OP_LLVM_entry_value 1] $edi
	#DEBUG_VALUE: x264_zigzag_init:pf <- $rsi
	#DEBUG_VALUE: x264_zigzag_init:b_interlaced <- [DW_OP_LLVM_entry_value 1] $edx
	movq	%r8, (%rsi)
	movq	%rdi, 8(%rsi)
	movq	%rdx, 16(%rsi)
	movq	%rcx, 24(%rsi)
	movq	%rax, 32(%rsi)
.Ltmp790:
	.loc	0 764 30 is_stmt 1              # x264_src/common/dct.c:764:30
	movq	$zigzag_interleave_8x8_cavlc, 40(%rsi)
	.loc	0 771 1                         # x264_src/common/dct.c:771:1
	retq
.Ltmp791:
.Lfunc_end17:
	.size	x264_zigzag_init, .Lfunc_end17-x264_zigzag_init
	.cfi_endproc
                                        # -- End function
	.p2align	4, 0x90                         # -- Begin function zigzag_scan_8x8_field
	.type	zigzag_scan_8x8_field,@function
zigzag_scan_8x8_field:                  # @zigzag_scan_8x8_field
.Lfunc_begin18:
	.cfi_startproc
# %bb.0:                                # %entry
	#DEBUG_VALUE: zigzag_scan_8x8_field:level <- $rdi
	#DEBUG_VALUE: zigzag_scan_8x8_field:dct <- $rsi
	.loc	0 588 5 prologue_end            # x264_src/common/dct.c:588:5
	movzwl	(%rsi), %eax
	movw	%ax, (%rdi)
	movzwl	2(%rsi), %eax
	movw	%ax, 2(%rdi)
	movzwl	4(%rsi), %eax
	movw	%ax, 4(%rdi)
	movzwl	16(%rsi), %eax
	movw	%ax, 6(%rdi)
	movzwl	18(%rsi), %eax
	movw	%ax, 8(%rdi)
	movzwl	6(%rsi), %eax
	movw	%ax, 10(%rdi)
	movzwl	8(%rsi), %eax
	movw	%ax, 12(%rdi)
	movzwl	20(%rsi), %eax
	movw	%ax, 14(%rdi)
	movzwl	32(%rsi), %eax
	movw	%ax, 16(%rdi)
	movzwl	22(%rsi), %eax
	movw	%ax, 18(%rdi)
	movzwl	10(%rsi), %eax
	movw	%ax, 20(%rdi)
	movzwl	12(%rsi), %eax
	movw	%ax, 22(%rdi)
	movzwl	14(%rsi), %eax
	movw	%ax, 24(%rdi)
	movzwl	24(%rsi), %eax
	movw	%ax, 26(%rdi)
	movzwl	34(%rsi), %eax
	movw	%ax, 28(%rdi)
	movzwl	48(%rsi), %eax
	movw	%ax, 30(%rdi)
	movzwl	36(%rsi), %eax
	movw	%ax, 32(%rdi)
	movzwl	26(%rsi), %eax
	movw	%ax, 34(%rdi)
	movzwl	28(%rsi), %eax
	movw	%ax, 36(%rdi)
	movzwl	30(%rsi), %eax
	movw	%ax, 38(%rdi)
	movzwl	38(%rsi), %eax
	movw	%ax, 40(%rdi)
	movzwl	50(%rsi), %eax
	movw	%ax, 42(%rdi)
	movzwl	64(%rsi), %eax
	movw	%ax, 44(%rdi)
	movzwl	52(%rsi), %eax
	movw	%ax, 46(%rdi)
	movzwl	40(%rsi), %eax
	movw	%ax, 48(%rdi)
	movzwl	42(%rsi), %eax
	movw	%ax, 50(%rdi)
	movzwl	44(%rsi), %eax
	movw	%ax, 52(%rdi)
	movzwl	46(%rsi), %eax
	movw	%ax, 54(%rdi)
	movzwl	54(%rsi), %eax
	movw	%ax, 56(%rdi)
	movzwl	66(%rsi), %eax
	movw	%ax, 58(%rdi)
	movzwl	80(%rsi), %eax
	movw	%ax, 60(%rdi)
	movzwl	68(%rsi), %eax
	movw	%ax, 62(%rdi)
	movzwl	56(%rsi), %eax
	movw	%ax, 64(%rdi)
	movzwl	58(%rsi), %eax
	movw	%ax, 66(%rdi)
	movzwl	60(%rsi), %eax
	movw	%ax, 68(%rdi)
	movzwl	62(%rsi), %eax
	movw	%ax, 70(%rdi)
	movzwl	70(%rsi), %eax
	movw	%ax, 72(%rdi)
	movzwl	82(%rsi), %eax
	movw	%ax, 74(%rdi)
	movzwl	96(%rsi), %eax
	movw	%ax, 76(%rdi)
	movzwl	84(%rsi), %eax
	movw	%ax, 78(%rdi)
	movzwl	72(%rsi), %eax
	movw	%ax, 80(%rdi)
	movzwl	74(%rsi), %eax
	movw	%ax, 82(%rdi)
	movzwl	76(%rsi), %eax
	movw	%ax, 84(%rdi)
	movzwl	78(%rsi), %eax
	movw	%ax, 86(%rdi)
	movzwl	86(%rsi), %eax
	movw	%ax, 88(%rdi)
	movzwl	98(%rsi), %eax
	movw	%ax, 90(%rdi)
	movzwl	100(%rsi), %eax
	movw	%ax, 92(%rdi)
	movzwl	88(%rsi), %eax
	movw	%ax, 94(%rdi)
	movzwl	90(%rsi), %eax
	movw	%ax, 96(%rdi)
	movzwl	92(%rsi), %eax
	movw	%ax, 98(%rdi)
	movzwl	94(%rsi), %eax
	movw	%ax, 100(%rdi)
	movzwl	102(%rsi), %eax
	movw	%ax, 102(%rdi)
	movzwl	112(%rsi), %eax
	movw	%ax, 104(%rdi)
	movzwl	114(%rsi), %eax
	movw	%ax, 106(%rdi)
	movzwl	104(%rsi), %eax
	movw	%ax, 108(%rdi)
	movzwl	106(%rsi), %eax
	movw	%ax, 110(%rdi)
	movzwl	108(%rsi), %eax
	movw	%ax, 112(%rdi)
	movzwl	110(%rsi), %eax
	movw	%ax, 114(%rdi)
	movzwl	116(%rsi), %eax
	movw	%ax, 116(%rdi)
	movzwl	118(%rsi), %eax
	movw	%ax, 118(%rdi)
	movzwl	120(%rsi), %eax
	movw	%ax, 120(%rdi)
	movzwl	122(%rsi), %eax
	movw	%ax, 122(%rdi)
	movzwl	124(%rsi), %eax
	movw	%ax, 124(%rdi)
	movzwl	126(%rsi), %eax
	movw	%ax, 126(%rdi)
	.loc	0 589 1                         # x264_src/common/dct.c:589:1
	retq
.Ltmp792:
.Lfunc_end18:
	.size	zigzag_scan_8x8_field, .Lfunc_end18-zigzag_scan_8x8_field
	.cfi_endproc
                                        # -- End function
	.p2align	4, 0x90                         # -- Begin function zigzag_scan_4x4_field
	.type	zigzag_scan_4x4_field,@function
zigzag_scan_4x4_field:                  # @zigzag_scan_4x4_field
.Lfunc_begin19:
	.cfi_startproc
# %bb.0:                                # %entry
	#DEBUG_VALUE: zigzag_scan_4x4_field:level <- $rdi
	#DEBUG_VALUE: zigzag_scan_4x4_field:dct <- $rsi
	.loc	0 602 5 prologue_end            # x264_src/common/dct.c:602:5
	movl	(%rsi), %eax
	movl	%eax, (%rdi)
	.loc	0 603 5                         # x264_src/common/dct.c:603:5
	movzwl	8(%rsi), %eax
	movw	%ax, 4(%rdi)
	.loc	0 603 16 is_stmt 0              # x264_src/common/dct.c:603:16
	movzwl	4(%rsi), %eax
	movw	%ax, 6(%rdi)
	.loc	0 603 27                        # x264_src/common/dct.c:603:27
	movzwl	6(%rsi), %eax
	movw	%ax, 8(%rdi)
	.loc	0 603 38                        # x264_src/common/dct.c:603:38
	movzwl	10(%rsi), %eax
	movw	%ax, 10(%rdi)
	.loc	0 604 5 is_stmt 1               # x264_src/common/dct.c:604:5
	movl	12(%rsi), %eax
	movl	%eax, 12(%rdi)
	.loc	0 605 5                         # x264_src/common/dct.c:605:5
	movq	16(%rsi), %rax
	movq	%rax, 16(%rdi)
	.loc	0 606 5                         # x264_src/common/dct.c:606:5
	movq	24(%rsi), %rax
	movq	%rax, 24(%rdi)
	.loc	0 607 1                         # x264_src/common/dct.c:607:1
	retq
.Ltmp793:
.Lfunc_end19:
	.size	zigzag_scan_4x4_field, .Lfunc_end19-zigzag_scan_4x4_field
	.cfi_endproc
                                        # -- End function
	.p2align	4, 0x90                         # -- Begin function zigzag_sub_8x8_field
	.type	zigzag_sub_8x8_field,@function
zigzag_sub_8x8_field:                   # @zigzag_sub_8x8_field
.Lfunc_begin20:
	.cfi_startproc
# %bb.0:                                # %entry
	#DEBUG_VALUE: zigzag_sub_8x8_field:level <- $rdi
	#DEBUG_VALUE: zigzag_sub_8x8_field:p_src <- $rsi
	#DEBUG_VALUE: zigzag_sub_8x8_field:p_dst <- $rdx
	#DEBUG_VALUE: zigzag_sub_8x8_field:nz <- 0
	#DEBUG_VALUE: oe <- 0
	#DEBUG_VALUE: od <- 0
	.loc	0 681 5 prologue_end            # x264_src/common/dct.c:681:5
	movzbl	(%rsi), %eax
	movzbl	(%rdx), %ecx
	subl	%ecx, %eax
.Ltmp794:
	#DEBUG_VALUE: zigzag_sub_8x8_field:nz <- [DW_OP_LLVM_convert 16 5, DW_OP_LLVM_convert 32 5, DW_OP_stack_value] $ax
	movw	%ax, (%rdi)
.Ltmp795:
	#DEBUG_VALUE: oe <- 16
	#DEBUG_VALUE: od <- 32
	.loc	0 681 5 is_stmt 0               # x264_src/common/dct.c:681:5
	movzbl	16(%rsi), %r8d
	movzbl	32(%rdx), %ecx
	subl	%ecx, %r8d
	movw	%r8w, 2(%rdi)
	orl	%eax, %r8d
.Ltmp796:
	#DEBUG_VALUE: oe <- 32
	#DEBUG_VALUE: od <- 64
	#DEBUG_VALUE: zigzag_sub_8x8_field:nz <- undef
	.loc	0 681 5                         # x264_src/common/dct.c:681:5
	movzbl	32(%rsi), %eax
	movzbl	64(%rdx), %ecx
	subl	%ecx, %eax
	movw	%ax, 4(%rdi)
.Ltmp797:
	#DEBUG_VALUE: oe <- 1
	#DEBUG_VALUE: od <- 1
	.loc	0 681 5                         # x264_src/common/dct.c:681:5
	movzbl	1(%rsi), %ecx
	movzbl	1(%rdx), %r9d
	subl	%r9d, %ecx
	movw	%cx, 6(%rdi)
.Ltmp798:
	.loc	0 681 5                         # x264_src/common/dct.c:681:5
	orl	%eax, %ecx
.Ltmp799:
	.loc	0 681 5                         # x264_src/common/dct.c:681:5
	orl	%r8d, %ecx
.Ltmp800:
	#DEBUG_VALUE: oe <- 17
	#DEBUG_VALUE: od <- 33
	.loc	0 681 5                         # x264_src/common/dct.c:681:5
	movzbl	17(%rsi), %eax
	movzbl	33(%rdx), %r8d
	subl	%r8d, %eax
	movw	%ax, 8(%rdi)
.Ltmp801:
	#DEBUG_VALUE: oe <- 48
	#DEBUG_VALUE: od <- 96
	.loc	0 681 5                         # x264_src/common/dct.c:681:5
	movzbl	48(%rsi), %r8d
	movzbl	96(%rdx), %r9d
	subl	%r9d, %r8d
	movw	%r8w, 10(%rdi)
.Ltmp802:
	.loc	0 681 5                         # x264_src/common/dct.c:681:5
	orl	%eax, %r8d
.Ltmp803:
	#DEBUG_VALUE: oe <- 64
	#DEBUG_VALUE: od <- 128
	.loc	0 681 5                         # x264_src/common/dct.c:681:5
	movzbl	64(%rsi), %eax
	movzbl	128(%rdx), %r9d
	subl	%r9d, %eax
	movw	%ax, 12(%rdi)
.Ltmp804:
	.loc	0 681 5                         # x264_src/common/dct.c:681:5
	orl	%r8d, %eax
.Ltmp805:
	.loc	0 681 5                         # x264_src/common/dct.c:681:5
	orl	%ecx, %eax
.Ltmp806:
	#DEBUG_VALUE: oe <- 33
	#DEBUG_VALUE: od <- 65
	.loc	0 681 5                         # x264_src/common/dct.c:681:5
	movzbl	33(%rsi), %ecx
	movzbl	65(%rdx), %r8d
	subl	%r8d, %ecx
	movw	%cx, 14(%rdi)
.Ltmp807:
	#DEBUG_VALUE: oe <- 2
	#DEBUG_VALUE: od <- 2
	.loc	0 681 5                         # x264_src/common/dct.c:681:5
	movzbl	2(%rsi), %r8d
	movzbl	2(%rdx), %r9d
	subl	%r9d, %r8d
	movw	%r8w, 16(%rdi)
.Ltmp808:
	.loc	0 681 5                         # x264_src/common/dct.c:681:5
	orl	%ecx, %r8d
.Ltmp809:
	#DEBUG_VALUE: oe <- 49
	#DEBUG_VALUE: od <- 97
	.loc	0 681 5                         # x264_src/common/dct.c:681:5
	movzbl	49(%rsi), %r9d
	movzbl	97(%rdx), %ecx
	subl	%ecx, %r9d
	movw	%r9w, 18(%rdi)
.Ltmp810:
	.loc	0 681 5                         # x264_src/common/dct.c:681:5
	orl	%r8d, %r9d
.Ltmp811:
	#DEBUG_VALUE: oe <- 80
	#DEBUG_VALUE: od <- 160
	.loc	0 681 5                         # x264_src/common/dct.c:681:5
	movzbl	80(%rsi), %ecx
	movzbl	160(%rdx), %r8d
	subl	%r8d, %ecx
	movw	%cx, 20(%rdi)
.Ltmp812:
	.loc	0 681 5                         # x264_src/common/dct.c:681:5
	orl	%r9d, %ecx
.Ltmp813:
	.loc	0 681 5                         # x264_src/common/dct.c:681:5
	orl	%eax, %ecx
.Ltmp814:
	#DEBUG_VALUE: oe <- 96
	#DEBUG_VALUE: od <- 192
	.loc	0 681 5                         # x264_src/common/dct.c:681:5
	movzbl	96(%rsi), %eax
	movzbl	192(%rdx), %r8d
	subl	%r8d, %eax
	movw	%ax, 22(%rdi)
.Ltmp815:
	#DEBUG_VALUE: oe <- 112
	#DEBUG_VALUE: od <- 224
	.loc	0 681 5                         # x264_src/common/dct.c:681:5
	movzbl	112(%rsi), %r8d
	movzbl	224(%rdx), %r9d
	subl	%r9d, %r8d
	movw	%r8w, 24(%rdi)
.Ltmp816:
	.loc	0 681 5                         # x264_src/common/dct.c:681:5
	orl	%eax, %r8d
.Ltmp817:
	#DEBUG_VALUE: oe <- 65
	#DEBUG_VALUE: od <- 129
	.loc	0 681 5                         # x264_src/common/dct.c:681:5
	movzbl	65(%rsi), %eax
	movzbl	129(%rdx), %r9d
	subl	%r9d, %eax
	movw	%ax, 26(%rdi)
.Ltmp818:
	.loc	0 681 5                         # x264_src/common/dct.c:681:5
	orl	%r8d, %eax
.Ltmp819:
	#DEBUG_VALUE: oe <- 18
	#DEBUG_VALUE: od <- 34
	.loc	0 681 5                         # x264_src/common/dct.c:681:5
	movzbl	18(%rsi), %r8d
	movzbl	34(%rdx), %r9d
	subl	%r9d, %r8d
	movw	%r8w, 28(%rdi)
.Ltmp820:
	.loc	0 681 5                         # x264_src/common/dct.c:681:5
	orl	%eax, %r8d
.Ltmp821:
	#DEBUG_VALUE: oe <- 3
	#DEBUG_VALUE: od <- 3
	.loc	0 681 5                         # x264_src/common/dct.c:681:5
	movzbl	3(%rsi), %eax
	movzbl	3(%rdx), %r9d
	subl	%r9d, %eax
	movw	%ax, 30(%rdi)
.Ltmp822:
	.loc	0 681 5                         # x264_src/common/dct.c:681:5
	orl	%r8d, %eax
.Ltmp823:
	.loc	0 681 5                         # x264_src/common/dct.c:681:5
	orl	%ecx, %eax
.Ltmp824:
	#DEBUG_VALUE: oe <- 34
	#DEBUG_VALUE: od <- 66
	.loc	0 681 5                         # x264_src/common/dct.c:681:5
	movzbl	34(%rsi), %ecx
	movzbl	66(%rdx), %r8d
	subl	%r8d, %ecx
	movw	%cx, 32(%rdi)
.Ltmp825:
	#DEBUG_VALUE: oe <- 81
	#DEBUG_VALUE: od <- 161
	.loc	0 681 5                         # x264_src/common/dct.c:681:5
	movzbl	81(%rsi), %r8d
	movzbl	161(%rdx), %r9d
	subl	%r9d, %r8d
	movw	%r8w, 34(%rdi)
.Ltmp826:
	.loc	0 681 5                         # x264_src/common/dct.c:681:5
	orl	%ecx, %r8d
.Ltmp827:
	#DEBUG_VALUE: oe <- 97
	#DEBUG_VALUE: od <- 193
	.loc	0 681 5                         # x264_src/common/dct.c:681:5
	movzbl	97(%rsi), %ecx
	movzbl	193(%rdx), %r9d
	subl	%r9d, %ecx
	movw	%cx, 36(%rdi)
.Ltmp828:
	.loc	0 681 5                         # x264_src/common/dct.c:681:5
	orl	%r8d, %ecx
.Ltmp829:
	#DEBUG_VALUE: oe <- 113
	#DEBUG_VALUE: od <- 225
	.loc	0 681 5                         # x264_src/common/dct.c:681:5
	movzbl	113(%rsi), %r8d
	movzbl	225(%rdx), %r9d
	subl	%r9d, %r8d
	movw	%r8w, 38(%rdi)
.Ltmp830:
	.loc	0 681 5                         # x264_src/common/dct.c:681:5
	orl	%ecx, %r8d
.Ltmp831:
	#DEBUG_VALUE: oe <- 50
	#DEBUG_VALUE: od <- 98
	.loc	0 681 5                         # x264_src/common/dct.c:681:5
	movzbl	50(%rsi), %r9d
	movzbl	98(%rdx), %ecx
	subl	%ecx, %r9d
	movw	%r9w, 40(%rdi)
.Ltmp832:
	.loc	0 681 5                         # x264_src/common/dct.c:681:5
	orl	%r8d, %r9d
.Ltmp833:
	#DEBUG_VALUE: oe <- 19
	#DEBUG_VALUE: od <- 35
	.loc	0 681 5                         # x264_src/common/dct.c:681:5
	movzbl	19(%rsi), %ecx
	movzbl	35(%rdx), %r8d
	subl	%r8d, %ecx
	movw	%cx, 42(%rdi)
.Ltmp834:
	.loc	0 681 5                         # x264_src/common/dct.c:681:5
	orl	%r9d, %ecx
.Ltmp835:
	.loc	0 681 5                         # x264_src/common/dct.c:681:5
	orl	%eax, %ecx
.Ltmp836:
	#DEBUG_VALUE: oe <- 4
	#DEBUG_VALUE: od <- 4
	.loc	0 681 5                         # x264_src/common/dct.c:681:5
	movzbl	4(%rsi), %eax
	movzbl	4(%rdx), %r8d
	subl	%r8d, %eax
	movw	%ax, 44(%rdi)
.Ltmp837:
	#DEBUG_VALUE: oe <- 35
	#DEBUG_VALUE: od <- 67
	.loc	0 681 5                         # x264_src/common/dct.c:681:5
	movzbl	35(%rsi), %r8d
	movzbl	67(%rdx), %r9d
	subl	%r9d, %r8d
	movw	%r8w, 46(%rdi)
.Ltmp838:
	.loc	0 681 5                         # x264_src/common/dct.c:681:5
	orl	%eax, %r8d
.Ltmp839:
	#DEBUG_VALUE: oe <- 66
	#DEBUG_VALUE: od <- 130
	.loc	0 681 5                         # x264_src/common/dct.c:681:5
	movzbl	66(%rsi), %eax
	movzbl	130(%rdx), %r9d
	subl	%r9d, %eax
	movw	%ax, 48(%rdi)
.Ltmp840:
	.loc	0 681 5                         # x264_src/common/dct.c:681:5
	orl	%r8d, %eax
.Ltmp841:
	#DEBUG_VALUE: oe <- 82
	#DEBUG_VALUE: od <- 162
	.loc	0 681 5                         # x264_src/common/dct.c:681:5
	movzbl	82(%rsi), %r8d
	movzbl	162(%rdx), %r9d
	subl	%r9d, %r8d
	movw	%r8w, 50(%rdi)
.Ltmp842:
	.loc	0 681 5                         # x264_src/common/dct.c:681:5
	orl	%eax, %r8d
.Ltmp843:
	#DEBUG_VALUE: oe <- 98
	#DEBUG_VALUE: od <- 194
	.loc	0 681 5                         # x264_src/common/dct.c:681:5
	movzbl	98(%rsi), %eax
	movzbl	194(%rdx), %r9d
	subl	%r9d, %eax
	movw	%ax, 52(%rdi)
.Ltmp844:
	.loc	0 681 5                         # x264_src/common/dct.c:681:5
	orl	%r8d, %eax
.Ltmp845:
	#DEBUG_VALUE: oe <- 114
	#DEBUG_VALUE: od <- 226
	.loc	0 681 5                         # x264_src/common/dct.c:681:5
	movzbl	114(%rsi), %r8d
	movzbl	226(%rdx), %r9d
	subl	%r9d, %r8d
	movw	%r8w, 54(%rdi)
.Ltmp846:
	.loc	0 681 5                         # x264_src/common/dct.c:681:5
	orl	%eax, %r8d
.Ltmp847:
	#DEBUG_VALUE: oe <- 51
	#DEBUG_VALUE: od <- 99
	.loc	0 681 5                         # x264_src/common/dct.c:681:5
	movzbl	51(%rsi), %eax
	movzbl	99(%rdx), %r9d
	subl	%r9d, %eax
	movw	%ax, 56(%rdi)
.Ltmp848:
	.loc	0 681 5                         # x264_src/common/dct.c:681:5
	orl	%r8d, %eax
.Ltmp849:
	.loc	0 681 5                         # x264_src/common/dct.c:681:5
	orl	%ecx, %eax
.Ltmp850:
	#DEBUG_VALUE: oe <- 20
	#DEBUG_VALUE: od <- 36
	.loc	0 681 5                         # x264_src/common/dct.c:681:5
	movzbl	20(%rsi), %ecx
	movzbl	36(%rdx), %r8d
	subl	%r8d, %ecx
	movw	%cx, 58(%rdi)
.Ltmp851:
	#DEBUG_VALUE: oe <- 5
	#DEBUG_VALUE: od <- 5
	.loc	0 681 5                         # x264_src/common/dct.c:681:5
	movzbl	5(%rsi), %r8d
	movzbl	5(%rdx), %r9d
	subl	%r9d, %r8d
	movw	%r8w, 60(%rdi)
.Ltmp852:
	.loc	0 681 5                         # x264_src/common/dct.c:681:5
	orl	%ecx, %r8d
.Ltmp853:
	#DEBUG_VALUE: oe <- 36
	#DEBUG_VALUE: od <- 68
	.loc	0 681 5                         # x264_src/common/dct.c:681:5
	movzbl	36(%rsi), %ecx
	movzbl	68(%rdx), %r9d
	subl	%r9d, %ecx
	movw	%cx, 62(%rdi)
.Ltmp854:
	.loc	0 681 5                         # x264_src/common/dct.c:681:5
	orl	%r8d, %ecx
.Ltmp855:
	#DEBUG_VALUE: oe <- 67
	#DEBUG_VALUE: od <- 131
	.loc	0 681 5                         # x264_src/common/dct.c:681:5
	movzbl	67(%rsi), %r8d
	movzbl	131(%rdx), %r9d
	subl	%r9d, %r8d
	movw	%r8w, 64(%rdi)
.Ltmp856:
	.loc	0 681 5                         # x264_src/common/dct.c:681:5
	orl	%ecx, %r8d
.Ltmp857:
	#DEBUG_VALUE: oe <- 83
	#DEBUG_VALUE: od <- 163
	.loc	0 681 5                         # x264_src/common/dct.c:681:5
	movzbl	83(%rsi), %ecx
	movzbl	163(%rdx), %r9d
	subl	%r9d, %ecx
	movw	%cx, 66(%rdi)
.Ltmp858:
	.loc	0 681 5                         # x264_src/common/dct.c:681:5
	orl	%r8d, %ecx
.Ltmp859:
	#DEBUG_VALUE: oe <- 99
	#DEBUG_VALUE: od <- 195
	.loc	0 681 5                         # x264_src/common/dct.c:681:5
	movzbl	99(%rsi), %r8d
	movzbl	195(%rdx), %r9d
	subl	%r9d, %r8d
	movw	%r8w, 68(%rdi)
.Ltmp860:
	.loc	0 681 5                         # x264_src/common/dct.c:681:5
	orl	%ecx, %r8d
.Ltmp861:
	#DEBUG_VALUE: oe <- 115
	#DEBUG_VALUE: od <- 227
	.loc	0 681 5                         # x264_src/common/dct.c:681:5
	movzbl	115(%rsi), %r9d
	movzbl	227(%rdx), %ecx
	subl	%ecx, %r9d
	movw	%r9w, 70(%rdi)
.Ltmp862:
	.loc	0 681 5                         # x264_src/common/dct.c:681:5
	orl	%r8d, %r9d
.Ltmp863:
	#DEBUG_VALUE: oe <- 52
	#DEBUG_VALUE: od <- 100
	.loc	0 681 5                         # x264_src/common/dct.c:681:5
	movzbl	52(%rsi), %ecx
	movzbl	100(%rdx), %r8d
	subl	%r8d, %ecx
	movw	%cx, 72(%rdi)
.Ltmp864:
	.loc	0 681 5                         # x264_src/common/dct.c:681:5
	orl	%r9d, %ecx
.Ltmp865:
	.loc	0 681 5                         # x264_src/common/dct.c:681:5
	orl	%eax, %ecx
.Ltmp866:
	#DEBUG_VALUE: oe <- 21
	#DEBUG_VALUE: od <- 37
	.loc	0 681 5                         # x264_src/common/dct.c:681:5
	movzbl	21(%rsi), %eax
	movzbl	37(%rdx), %r8d
	subl	%r8d, %eax
	movw	%ax, 74(%rdi)
.Ltmp867:
	#DEBUG_VALUE: oe <- 6
	#DEBUG_VALUE: od <- 6
	.loc	0 681 5                         # x264_src/common/dct.c:681:5
	movzbl	6(%rsi), %r8d
	movzbl	6(%rdx), %r9d
	subl	%r9d, %r8d
	movw	%r8w, 76(%rdi)
.Ltmp868:
	.loc	0 681 5                         # x264_src/common/dct.c:681:5
	orl	%eax, %r8d
.Ltmp869:
	#DEBUG_VALUE: oe <- 37
	#DEBUG_VALUE: od <- 69
	.loc	0 681 5                         # x264_src/common/dct.c:681:5
	movzbl	37(%rsi), %eax
	movzbl	69(%rdx), %r9d
	subl	%r9d, %eax
	movw	%ax, 78(%rdi)
.Ltmp870:
	.loc	0 681 5                         # x264_src/common/dct.c:681:5
	orl	%r8d, %eax
.Ltmp871:
	#DEBUG_VALUE: oe <- 68
	#DEBUG_VALUE: od <- 132
	.loc	0 681 5                         # x264_src/common/dct.c:681:5
	movzbl	68(%rsi), %r8d
	movzbl	132(%rdx), %r9d
	subl	%r9d, %r8d
	movw	%r8w, 80(%rdi)
.Ltmp872:
	.loc	0 681 5                         # x264_src/common/dct.c:681:5
	orl	%eax, %r8d
.Ltmp873:
	#DEBUG_VALUE: oe <- 84
	#DEBUG_VALUE: od <- 164
	.loc	0 681 5                         # x264_src/common/dct.c:681:5
	movzbl	84(%rsi), %eax
	movzbl	164(%rdx), %r9d
	subl	%r9d, %eax
	movw	%ax, 82(%rdi)
.Ltmp874:
	.loc	0 681 5                         # x264_src/common/dct.c:681:5
	orl	%r8d, %eax
.Ltmp875:
	#DEBUG_VALUE: oe <- 100
	#DEBUG_VALUE: od <- 196
	.loc	0 681 5                         # x264_src/common/dct.c:681:5
	movzbl	100(%rsi), %r8d
	movzbl	196(%rdx), %r9d
	subl	%r9d, %r8d
	movw	%r8w, 84(%rdi)
.Ltmp876:
	.loc	0 681 5                         # x264_src/common/dct.c:681:5
	orl	%eax, %r8d
.Ltmp877:
	#DEBUG_VALUE: oe <- 116
	#DEBUG_VALUE: od <- 228
	.loc	0 681 5                         # x264_src/common/dct.c:681:5
	movzbl	116(%rsi), %eax
	movzbl	228(%rdx), %r9d
	subl	%r9d, %eax
	movw	%ax, 86(%rdi)
.Ltmp878:
	.loc	0 681 5                         # x264_src/common/dct.c:681:5
	orl	%r8d, %eax
.Ltmp879:
	#DEBUG_VALUE: oe <- 53
	#DEBUG_VALUE: od <- 101
	.loc	0 681 5                         # x264_src/common/dct.c:681:5
	movzbl	53(%rsi), %r8d
	movzbl	101(%rdx), %r9d
	subl	%r9d, %r8d
	movw	%r8w, 88(%rdi)
.Ltmp880:
	.loc	0 681 5                         # x264_src/common/dct.c:681:5
	orl	%eax, %r8d
.Ltmp881:
	#DEBUG_VALUE: oe <- 22
	#DEBUG_VALUE: od <- 38
	.loc	0 681 5                         # x264_src/common/dct.c:681:5
	movzbl	22(%rsi), %eax
	movzbl	38(%rdx), %r9d
	subl	%r9d, %eax
	movw	%ax, 90(%rdi)
.Ltmp882:
	.loc	0 681 5                         # x264_src/common/dct.c:681:5
	orl	%r8d, %eax
.Ltmp883:
	.loc	0 681 5                         # x264_src/common/dct.c:681:5
	orl	%ecx, %eax
.Ltmp884:
	#DEBUG_VALUE: oe <- 38
	#DEBUG_VALUE: od <- 70
	.loc	0 681 5                         # x264_src/common/dct.c:681:5
	movzbl	38(%rsi), %ecx
	movzbl	70(%rdx), %r8d
	subl	%r8d, %ecx
	movw	%cx, 92(%rdi)
.Ltmp885:
	#DEBUG_VALUE: oe <- 69
	#DEBUG_VALUE: od <- 133
	.loc	0 681 5                         # x264_src/common/dct.c:681:5
	movzbl	69(%rsi), %r8d
	movzbl	133(%rdx), %r9d
	subl	%r9d, %r8d
	movw	%r8w, 94(%rdi)
.Ltmp886:
	.loc	0 681 5                         # x264_src/common/dct.c:681:5
	orl	%ecx, %r8d
.Ltmp887:
	#DEBUG_VALUE: oe <- 85
	#DEBUG_VALUE: od <- 165
	.loc	0 681 5                         # x264_src/common/dct.c:681:5
	movzbl	85(%rsi), %ecx
	movzbl	165(%rdx), %r9d
	subl	%r9d, %ecx
	movw	%cx, 96(%rdi)
.Ltmp888:
	.loc	0 681 5                         # x264_src/common/dct.c:681:5
	orl	%r8d, %ecx
.Ltmp889:
	#DEBUG_VALUE: oe <- 101
	#DEBUG_VALUE: od <- 197
	.loc	0 681 5                         # x264_src/common/dct.c:681:5
	movzbl	101(%rsi), %r8d
	movzbl	197(%rdx), %r9d
	subl	%r9d, %r8d
	movw	%r8w, 98(%rdi)
.Ltmp890:
	.loc	0 681 5                         # x264_src/common/dct.c:681:5
	orl	%ecx, %r8d
.Ltmp891:
	#DEBUG_VALUE: oe <- 117
	#DEBUG_VALUE: od <- 229
	.loc	0 681 5                         # x264_src/common/dct.c:681:5
	movzbl	117(%rsi), %ecx
	movzbl	229(%rdx), %r9d
	subl	%r9d, %ecx
	movw	%cx, 100(%rdi)
.Ltmp892:
	.loc	0 681 5                         # x264_src/common/dct.c:681:5
	orl	%r8d, %ecx
.Ltmp893:
	#DEBUG_VALUE: oe <- 54
	#DEBUG_VALUE: od <- 102
	.loc	0 681 5                         # x264_src/common/dct.c:681:5
	movzbl	54(%rsi), %r8d
	movzbl	102(%rdx), %r9d
	subl	%r9d, %r8d
	movw	%r8w, 102(%rdi)
.Ltmp894:
	.loc	0 681 5                         # x264_src/common/dct.c:681:5
	orl	%ecx, %r8d
.Ltmp895:
	#DEBUG_VALUE: oe <- 7
	#DEBUG_VALUE: od <- 7
	.loc	0 681 5                         # x264_src/common/dct.c:681:5
	movzbl	7(%rsi), %ecx
	movzbl	7(%rdx), %r9d
	subl	%r9d, %ecx
	movw	%cx, 104(%rdi)
.Ltmp896:
	.loc	0 681 5                         # x264_src/common/dct.c:681:5
	orl	%r8d, %ecx
.Ltmp897:
	#DEBUG_VALUE: oe <- 23
	#DEBUG_VALUE: od <- 39
	.loc	0 681 5                         # x264_src/common/dct.c:681:5
	movzbl	23(%rsi), %r8d
	movzbl	39(%rdx), %r9d
	subl	%r9d, %r8d
	movw	%r8w, 106(%rdi)
.Ltmp898:
	.loc	0 681 5                         # x264_src/common/dct.c:681:5
	orl	%ecx, %r8d
.Ltmp899:
	#DEBUG_VALUE: oe <- 70
	#DEBUG_VALUE: od <- 134
	.loc	0 681 5                         # x264_src/common/dct.c:681:5
	movzbl	70(%rsi), %r9d
	movzbl	134(%rdx), %ecx
	subl	%ecx, %r9d
	movw	%r9w, 108(%rdi)
.Ltmp900:
	.loc	0 681 5                         # x264_src/common/dct.c:681:5
	orl	%r8d, %r9d
.Ltmp901:
	#DEBUG_VALUE: oe <- 86
	#DEBUG_VALUE: od <- 166
	.loc	0 681 5                         # x264_src/common/dct.c:681:5
	movzbl	86(%rsi), %ecx
	movzbl	166(%rdx), %r8d
	subl	%r8d, %ecx
	movw	%cx, 110(%rdi)
.Ltmp902:
	.loc	0 681 5                         # x264_src/common/dct.c:681:5
	orl	%r9d, %ecx
.Ltmp903:
	.loc	0 681 5                         # x264_src/common/dct.c:681:5
	orl	%eax, %ecx
.Ltmp904:
	#DEBUG_VALUE: oe <- 102
	#DEBUG_VALUE: od <- 198
