	.text
	.file	"predict.c"
	.file	0 "/home/yjs/workspace/x264-test/src" "x264_src/common/predict.c" md5 0xaa72259b82ac6d1e4f1a8e559ed0b630
	.file	1 "x264_src/common" "predict.h" md5 0x5f9c3dfea82ca04aa9f99900c2f3609a
	.file	2 "x264_src/common" "macroblock.h" md5 0x15f4a9c1d53f4196a5f2b80807bb8b1a
	.file	3 "/usr/include/x86_64-linux-gnu/bits" "types.h" md5 0xd108b5f93a74c50510d7d9bc0ab36df9
	.file	4 "/usr/include/x86_64-linux-gnu/bits" "stdint-uintn.h" md5 0x2bf2ae53c58c01b1a1b9383b5195125c
	.file	5 "x264_src/common" "common.h" md5 0x5afac7bf2f5673f1628c455d7d320ad7
	.globl	x264_predict_16x16_init         # -- Begin function x264_predict_16x16_init
	.p2align	4, 0x90
	.type	x264_predict_16x16_init,@function
x264_predict_16x16_init:                # @x264_predict_16x16_init
.Lfunc_begin0:
	.cfi_startproc
# %bb.0:                                # %entry
	#DEBUG_VALUE: x264_predict_16x16_init:cpu <- $edi
	#DEBUG_VALUE: x264_predict_16x16_init:pf <- $rsi
	.loc	0 712 29 prologue_end           # x264_src/common/predict.c:712:29
	movq	$predict_16x16_v, (%rsi)
	.loc	0 713 29                        # x264_src/common/predict.c:713:29
	movq	$predict_16x16_h, 8(%rsi)
	.loc	0 714 29                        # x264_src/common/predict.c:714:29
	movq	$predict_16x16_dc, 16(%rsi)
	.loc	0 715 29                        # x264_src/common/predict.c:715:29
	movq	$predict_16x16_p, 24(%rsi)
	.loc	0 716 29                        # x264_src/common/predict.c:716:29
	movq	$predict_16x16_dc_left, 32(%rsi)
	.loc	0 717 29                        # x264_src/common/predict.c:717:29
	movq	$predict_16x16_dc_top, 40(%rsi)
	.loc	0 718 29                        # x264_src/common/predict.c:718:29
	movq	$predict_16x16_dc_128, 48(%rsi)
	.loc	0 732 1                         # x264_src/common/predict.c:732:1
	retq
.Ltmp0:
.Lfunc_end0:
	.size	x264_predict_16x16_init, .Lfunc_end0-x264_predict_16x16_init
	.cfi_endproc
                                        # -- End function
	.p2align	4, 0x90                         # -- Begin function predict_16x16_v
	.type	predict_16x16_v,@function
predict_16x16_v:                        # @predict_16x16_v
.Lfunc_begin1:
	.cfi_startproc
# %bb.0:                                # %entry
	#DEBUG_VALUE: predict_16x16_v:src <- $rdi
	.loc	0 105 19 prologue_end           # x264_src/common/predict.c:105:19
	movl	-32(%rdi), %eax
.Ltmp1:
	#DEBUG_VALUE: predict_16x16_v:v0 <- $eax
	.loc	0 106 19                        # x264_src/common/predict.c:106:19
	movl	-28(%rdi), %ecx
.Ltmp2:
	#DEBUG_VALUE: predict_16x16_v:v1 <- $ecx
	.loc	0 107 19                        # x264_src/common/predict.c:107:19
	movl	-24(%rdi), %edx
.Ltmp3:
	#DEBUG_VALUE: predict_16x16_v:v2 <- $edx
	.loc	0 108 19                        # x264_src/common/predict.c:108:19
	movl	-20(%rdi), %esi
.Ltmp4:
	#DEBUG_VALUE: predict_16x16_v:v3 <- $esi
	#DEBUG_VALUE: i <- 0
	.loc	0 112 23                        # x264_src/common/predict.c:112:23
	movl	%eax, (%rdi)
	.loc	0 113 23                        # x264_src/common/predict.c:113:23
	movl	%ecx, 4(%rdi)
	.loc	0 114 23                        # x264_src/common/predict.c:114:23
	movl	%edx, 8(%rdi)
	.loc	0 115 23                        # x264_src/common/predict.c:115:23
	movl	%esi, 12(%rdi)
.Ltmp5:
	#DEBUG_VALUE: i <- 1
	#DEBUG_VALUE: predict_16x16_v:src <- [DW_OP_plus_uconst 32, DW_OP_stack_value] $rdi
	.loc	0 112 23                        # x264_src/common/predict.c:112:23
	movl	%eax, 32(%rdi)
	.loc	0 113 23                        # x264_src/common/predict.c:113:23
	movl	%ecx, 36(%rdi)
	.loc	0 114 23                        # x264_src/common/predict.c:114:23
	movl	%edx, 40(%rdi)
	.loc	0 115 23                        # x264_src/common/predict.c:115:23
	movl	%esi, 44(%rdi)
.Ltmp6:
	#DEBUG_VALUE: i <- 2
	#DEBUG_VALUE: predict_16x16_v:src <- [DW_OP_plus_uconst 64, DW_OP_stack_value] $rdi
	.loc	0 112 23                        # x264_src/common/predict.c:112:23
	movl	%eax, 64(%rdi)
	.loc	0 113 23                        # x264_src/common/predict.c:113:23
	movl	%ecx, 68(%rdi)
	.loc	0 114 23                        # x264_src/common/predict.c:114:23
	movl	%edx, 72(%rdi)
	.loc	0 115 23                        # x264_src/common/predict.c:115:23
	movl	%esi, 76(%rdi)
.Ltmp7:
	#DEBUG_VALUE: i <- 3
	#DEBUG_VALUE: predict_16x16_v:src <- [DW_OP_plus_uconst 96, DW_OP_stack_value] $rdi
	.loc	0 112 23                        # x264_src/common/predict.c:112:23
	movl	%eax, 96(%rdi)
	.loc	0 113 23                        # x264_src/common/predict.c:113:23
	movl	%ecx, 100(%rdi)
	.loc	0 114 23                        # x264_src/common/predict.c:114:23
	movl	%edx, 104(%rdi)
	.loc	0 115 23                        # x264_src/common/predict.c:115:23
	movl	%esi, 108(%rdi)
.Ltmp8:
	#DEBUG_VALUE: i <- 4
	#DEBUG_VALUE: predict_16x16_v:src <- [DW_OP_plus_uconst 128, DW_OP_stack_value] $rdi
	.loc	0 112 23                        # x264_src/common/predict.c:112:23
	movl	%eax, 128(%rdi)
	.loc	0 113 23                        # x264_src/common/predict.c:113:23
	movl	%ecx, 132(%rdi)
	.loc	0 114 23                        # x264_src/common/predict.c:114:23
	movl	%edx, 136(%rdi)
	.loc	0 115 23                        # x264_src/common/predict.c:115:23
	movl	%esi, 140(%rdi)
.Ltmp9:
	#DEBUG_VALUE: i <- 5
	#DEBUG_VALUE: predict_16x16_v:src <- [DW_OP_plus_uconst 160, DW_OP_stack_value] $rdi
	.loc	0 112 23                        # x264_src/common/predict.c:112:23
	movl	%eax, 160(%rdi)
	.loc	0 113 23                        # x264_src/common/predict.c:113:23
	movl	%ecx, 164(%rdi)
	.loc	0 114 23                        # x264_src/common/predict.c:114:23
	movl	%edx, 168(%rdi)
	.loc	0 115 23                        # x264_src/common/predict.c:115:23
	movl	%esi, 172(%rdi)
.Ltmp10:
	#DEBUG_VALUE: i <- 6
	#DEBUG_VALUE: predict_16x16_v:src <- [DW_OP_plus_uconst 192, DW_OP_stack_value] $rdi
	.loc	0 112 23                        # x264_src/common/predict.c:112:23
	movl	%eax, 192(%rdi)
	.loc	0 113 23                        # x264_src/common/predict.c:113:23
	movl	%ecx, 196(%rdi)
	.loc	0 114 23                        # x264_src/common/predict.c:114:23
	movl	%edx, 200(%rdi)
	.loc	0 115 23                        # x264_src/common/predict.c:115:23
	movl	%esi, 204(%rdi)
.Ltmp11:
	#DEBUG_VALUE: i <- 7
	#DEBUG_VALUE: predict_16x16_v:src <- [DW_OP_plus_uconst 224, DW_OP_stack_value] $rdi
	.loc	0 112 23                        # x264_src/common/predict.c:112:23
	movl	%eax, 224(%rdi)
	.loc	0 113 23                        # x264_src/common/predict.c:113:23
	movl	%ecx, 228(%rdi)
	.loc	0 114 23                        # x264_src/common/predict.c:114:23
	movl	%edx, 232(%rdi)
	.loc	0 115 23                        # x264_src/common/predict.c:115:23
	movl	%esi, 236(%rdi)
.Ltmp12:
	#DEBUG_VALUE: i <- 8
	#DEBUG_VALUE: predict_16x16_v:src <- [DW_OP_plus_uconst 256, DW_OP_stack_value] $rdi
	.loc	0 112 23                        # x264_src/common/predict.c:112:23
	movl	%eax, 256(%rdi)
	.loc	0 113 23                        # x264_src/common/predict.c:113:23
	movl	%ecx, 260(%rdi)
	.loc	0 114 23                        # x264_src/common/predict.c:114:23
	movl	%edx, 264(%rdi)
	.loc	0 115 23                        # x264_src/common/predict.c:115:23
	movl	%esi, 268(%rdi)
.Ltmp13:
	#DEBUG_VALUE: i <- 9
	#DEBUG_VALUE: predict_16x16_v:src <- [DW_OP_plus_uconst 288, DW_OP_stack_value] $rdi
	.loc	0 112 23                        # x264_src/common/predict.c:112:23
	movl	%eax, 288(%rdi)
	.loc	0 113 23                        # x264_src/common/predict.c:113:23
	movl	%ecx, 292(%rdi)
	.loc	0 114 23                        # x264_src/common/predict.c:114:23
	movl	%edx, 296(%rdi)
	.loc	0 115 23                        # x264_src/common/predict.c:115:23
	movl	%esi, 300(%rdi)
.Ltmp14:
	#DEBUG_VALUE: i <- 10
	#DEBUG_VALUE: predict_16x16_v:src <- [DW_OP_plus_uconst 320, DW_OP_stack_value] $rdi
	.loc	0 112 23                        # x264_src/common/predict.c:112:23
	movl	%eax, 320(%rdi)
	.loc	0 113 23                        # x264_src/common/predict.c:113:23
	movl	%ecx, 324(%rdi)
	.loc	0 114 23                        # x264_src/common/predict.c:114:23
	movl	%edx, 328(%rdi)
	.loc	0 115 23                        # x264_src/common/predict.c:115:23
	movl	%esi, 332(%rdi)
.Ltmp15:
	#DEBUG_VALUE: i <- 11
	#DEBUG_VALUE: predict_16x16_v:src <- [DW_OP_plus_uconst 352, DW_OP_stack_value] $rdi
	.loc	0 112 23                        # x264_src/common/predict.c:112:23
	movl	%eax, 352(%rdi)
	.loc	0 113 23                        # x264_src/common/predict.c:113:23
	movl	%ecx, 356(%rdi)
	.loc	0 114 23                        # x264_src/common/predict.c:114:23
	movl	%edx, 360(%rdi)
	.loc	0 115 23                        # x264_src/common/predict.c:115:23
	movl	%esi, 364(%rdi)
.Ltmp16:
	#DEBUG_VALUE: i <- 12
	#DEBUG_VALUE: predict_16x16_v:src <- [DW_OP_plus_uconst 384, DW_OP_stack_value] $rdi
	.loc	0 112 23                        # x264_src/common/predict.c:112:23
	movl	%eax, 384(%rdi)
	.loc	0 113 23                        # x264_src/common/predict.c:113:23
	movl	%ecx, 388(%rdi)
	.loc	0 114 23                        # x264_src/common/predict.c:114:23
	movl	%edx, 392(%rdi)
	.loc	0 115 23                        # x264_src/common/predict.c:115:23
	movl	%esi, 396(%rdi)
.Ltmp17:
	#DEBUG_VALUE: i <- 13
	#DEBUG_VALUE: predict_16x16_v:src <- [DW_OP_plus_uconst 416, DW_OP_stack_value] $rdi
	.loc	0 112 23                        # x264_src/common/predict.c:112:23
	movl	%eax, 416(%rdi)
	.loc	0 113 23                        # x264_src/common/predict.c:113:23
	movl	%ecx, 420(%rdi)
	.loc	0 114 23                        # x264_src/common/predict.c:114:23
	movl	%edx, 424(%rdi)
	.loc	0 115 23                        # x264_src/common/predict.c:115:23
	movl	%esi, 428(%rdi)
.Ltmp18:
	#DEBUG_VALUE: i <- 14
	#DEBUG_VALUE: predict_16x16_v:src <- [DW_OP_plus_uconst 448, DW_OP_stack_value] $rdi
	.loc	0 112 23                        # x264_src/common/predict.c:112:23
	movl	%eax, 448(%rdi)
	.loc	0 113 23                        # x264_src/common/predict.c:113:23
	movl	%ecx, 452(%rdi)
	.loc	0 114 23                        # x264_src/common/predict.c:114:23
	movl	%edx, 456(%rdi)
	.loc	0 115 23                        # x264_src/common/predict.c:115:23
	movl	%esi, 460(%rdi)
.Ltmp19:
	#DEBUG_VALUE: i <- 15
	#DEBUG_VALUE: predict_16x16_v:src <- [DW_OP_plus_uconst 480, DW_OP_stack_value] $rdi
	.loc	0 112 23                        # x264_src/common/predict.c:112:23
	movl	%eax, 480(%rdi)
	.loc	0 113 23                        # x264_src/common/predict.c:113:23
	movl	%ecx, 484(%rdi)
	.loc	0 114 23                        # x264_src/common/predict.c:114:23
	movl	%edx, 488(%rdi)
	.loc	0 115 23                        # x264_src/common/predict.c:115:23
	movl	%esi, 492(%rdi)
.Ltmp20:
	#DEBUG_VALUE: i <- 16
	#DEBUG_VALUE: predict_16x16_v:src <- [DW_OP_plus_uconst 480, DW_OP_plus_uconst 32, DW_OP_stack_value] $rdi
	.loc	0 118 1                         # x264_src/common/predict.c:118:1
	retq
.Ltmp21:
.Lfunc_end1:
	.size	predict_16x16_v, .Lfunc_end1-predict_16x16_v
	.cfi_endproc
                                        # -- End function
	.p2align	4, 0x90                         # -- Begin function predict_16x16_h
	.type	predict_16x16_h,@function
predict_16x16_h:                        # @predict_16x16_h
.Lfunc_begin2:
	.cfi_startproc
# %bb.0:                                # %entry
	#DEBUG_VALUE: predict_16x16_h:src <- $rdi
	#DEBUG_VALUE: i <- 0
	.loc	0 95 41 prologue_end            # x264_src/common/predict.c:95:41
	movzbl	-1(%rdi), %eax
	.loc	0 95 39 is_stmt 0               # x264_src/common/predict.c:95:39
	imull	$16843009, %eax, %eax           # imm = 0x1010101
.Ltmp22:
	#DEBUG_VALUE: v <- $eax
	.loc	0 96 23 is_stmt 1               # x264_src/common/predict.c:96:23
	movd	%eax, %xmm0
	pshufd	$0, %xmm0, %xmm0                # xmm0 = xmm0[0,0,0,0]
	movdqu	%xmm0, (%rdi)
.Ltmp23:
	#DEBUG_VALUE: i <- 1
	#DEBUG_VALUE: predict_16x16_h:src <- [DW_OP_plus_uconst 32, DW_OP_stack_value] $rdi
	.loc	0 95 41                         # x264_src/common/predict.c:95:41
	movzbl	31(%rdi), %eax
.Ltmp24:
	.loc	0 95 39 is_stmt 0               # x264_src/common/predict.c:95:39
	imull	$16843009, %eax, %eax           # imm = 0x1010101
.Ltmp25:
	#DEBUG_VALUE: v <- $eax
	.loc	0 96 23 is_stmt 1               # x264_src/common/predict.c:96:23
	movd	%eax, %xmm0
	pshufd	$0, %xmm0, %xmm0                # xmm0 = xmm0[0,0,0,0]
	movdqu	%xmm0, 32(%rdi)
.Ltmp26:
	#DEBUG_VALUE: i <- 2
	#DEBUG_VALUE: predict_16x16_h:src <- [DW_OP_plus_uconst 64, DW_OP_stack_value] $rdi
	.loc	0 95 41                         # x264_src/common/predict.c:95:41
	movzbl	63(%rdi), %eax
.Ltmp27:
	.loc	0 95 39 is_stmt 0               # x264_src/common/predict.c:95:39
	imull	$16843009, %eax, %eax           # imm = 0x1010101
.Ltmp28:
	#DEBUG_VALUE: v <- $eax
	.loc	0 96 23 is_stmt 1               # x264_src/common/predict.c:96:23
	movd	%eax, %xmm0
	pshufd	$0, %xmm0, %xmm0                # xmm0 = xmm0[0,0,0,0]
	movdqu	%xmm0, 64(%rdi)
.Ltmp29:
	#DEBUG_VALUE: i <- 3
	#DEBUG_VALUE: predict_16x16_h:src <- [DW_OP_plus_uconst 96, DW_OP_stack_value] $rdi
	.loc	0 95 41                         # x264_src/common/predict.c:95:41
	movzbl	95(%rdi), %eax
.Ltmp30:
	.loc	0 95 39 is_stmt 0               # x264_src/common/predict.c:95:39
	imull	$16843009, %eax, %eax           # imm = 0x1010101
.Ltmp31:
	#DEBUG_VALUE: v <- $eax
	.loc	0 96 23 is_stmt 1               # x264_src/common/predict.c:96:23
	movd	%eax, %xmm0
	pshufd	$0, %xmm0, %xmm0                # xmm0 = xmm0[0,0,0,0]
	movdqu	%xmm0, 96(%rdi)
.Ltmp32:
	#DEBUG_VALUE: i <- 4
	#DEBUG_VALUE: predict_16x16_h:src <- [DW_OP_plus_uconst 128, DW_OP_stack_value] $rdi
	.loc	0 95 41                         # x264_src/common/predict.c:95:41
	movzbl	127(%rdi), %eax
.Ltmp33:
	.loc	0 95 39 is_stmt 0               # x264_src/common/predict.c:95:39
	imull	$16843009, %eax, %eax           # imm = 0x1010101
.Ltmp34:
	#DEBUG_VALUE: v <- $eax
	.loc	0 96 23 is_stmt 1               # x264_src/common/predict.c:96:23
	movd	%eax, %xmm0
	pshufd	$0, %xmm0, %xmm0                # xmm0 = xmm0[0,0,0,0]
	movdqu	%xmm0, 128(%rdi)
.Ltmp35:
	#DEBUG_VALUE: i <- 5
	#DEBUG_VALUE: predict_16x16_h:src <- [DW_OP_plus_uconst 160, DW_OP_stack_value] $rdi
	.loc	0 95 41                         # x264_src/common/predict.c:95:41
	movzbl	159(%rdi), %eax
.Ltmp36:
	.loc	0 95 39 is_stmt 0               # x264_src/common/predict.c:95:39
	imull	$16843009, %eax, %eax           # imm = 0x1010101
.Ltmp37:
	#DEBUG_VALUE: v <- $eax
	.loc	0 96 23 is_stmt 1               # x264_src/common/predict.c:96:23
	movd	%eax, %xmm0
	pshufd	$0, %xmm0, %xmm0                # xmm0 = xmm0[0,0,0,0]
	movdqu	%xmm0, 160(%rdi)
.Ltmp38:
	#DEBUG_VALUE: i <- 6
	#DEBUG_VALUE: predict_16x16_h:src <- [DW_OP_plus_uconst 192, DW_OP_stack_value] $rdi
	.loc	0 95 41                         # x264_src/common/predict.c:95:41
	movzbl	191(%rdi), %eax
.Ltmp39:
	.loc	0 95 39 is_stmt 0               # x264_src/common/predict.c:95:39
	imull	$16843009, %eax, %eax           # imm = 0x1010101
.Ltmp40:
	#DEBUG_VALUE: v <- $eax
	.loc	0 96 23 is_stmt 1               # x264_src/common/predict.c:96:23
	movd	%eax, %xmm0
	pshufd	$0, %xmm0, %xmm0                # xmm0 = xmm0[0,0,0,0]
	movdqu	%xmm0, 192(%rdi)
.Ltmp41:
	#DEBUG_VALUE: i <- 7
	#DEBUG_VALUE: predict_16x16_h:src <- [DW_OP_plus_uconst 224, DW_OP_stack_value] $rdi
	.loc	0 95 41                         # x264_src/common/predict.c:95:41
	movzbl	223(%rdi), %eax
.Ltmp42:
	.loc	0 95 39 is_stmt 0               # x264_src/common/predict.c:95:39
	imull	$16843009, %eax, %eax           # imm = 0x1010101
.Ltmp43:
	#DEBUG_VALUE: v <- $eax
	.loc	0 96 23 is_stmt 1               # x264_src/common/predict.c:96:23
	movd	%eax, %xmm0
	pshufd	$0, %xmm0, %xmm0                # xmm0 = xmm0[0,0,0,0]
	movdqu	%xmm0, 224(%rdi)
.Ltmp44:
	#DEBUG_VALUE: i <- 8
	#DEBUG_VALUE: predict_16x16_h:src <- [DW_OP_plus_uconst 256, DW_OP_stack_value] $rdi
	.loc	0 95 41                         # x264_src/common/predict.c:95:41
	movzbl	255(%rdi), %eax
.Ltmp45:
	.loc	0 95 39 is_stmt 0               # x264_src/common/predict.c:95:39
	imull	$16843009, %eax, %eax           # imm = 0x1010101
.Ltmp46:
	#DEBUG_VALUE: v <- $eax
	.loc	0 96 23 is_stmt 1               # x264_src/common/predict.c:96:23
	movd	%eax, %xmm0
	pshufd	$0, %xmm0, %xmm0                # xmm0 = xmm0[0,0,0,0]
	movdqu	%xmm0, 256(%rdi)
.Ltmp47:
	#DEBUG_VALUE: i <- 9
	#DEBUG_VALUE: predict_16x16_h:src <- [DW_OP_plus_uconst 288, DW_OP_stack_value] $rdi
	.loc	0 95 41                         # x264_src/common/predict.c:95:41
	movzbl	287(%rdi), %eax
.Ltmp48:
	.loc	0 95 39 is_stmt 0               # x264_src/common/predict.c:95:39
	imull	$16843009, %eax, %eax           # imm = 0x1010101
.Ltmp49:
	#DEBUG_VALUE: v <- $eax
	.loc	0 96 23 is_stmt 1               # x264_src/common/predict.c:96:23
	movd	%eax, %xmm0
	pshufd	$0, %xmm0, %xmm0                # xmm0 = xmm0[0,0,0,0]
	movdqu	%xmm0, 288(%rdi)
.Ltmp50:
	#DEBUG_VALUE: i <- 10
	#DEBUG_VALUE: predict_16x16_h:src <- [DW_OP_plus_uconst 320, DW_OP_stack_value] $rdi
	.loc	0 95 41                         # x264_src/common/predict.c:95:41
	movzbl	319(%rdi), %eax
.Ltmp51:
	.loc	0 95 39 is_stmt 0               # x264_src/common/predict.c:95:39
	imull	$16843009, %eax, %eax           # imm = 0x1010101
.Ltmp52:
	#DEBUG_VALUE: v <- $eax
	.loc	0 96 23 is_stmt 1               # x264_src/common/predict.c:96:23
	movd	%eax, %xmm0
	pshufd	$0, %xmm0, %xmm0                # xmm0 = xmm0[0,0,0,0]
	movdqu	%xmm0, 320(%rdi)
.Ltmp53:
	#DEBUG_VALUE: i <- 11
	#DEBUG_VALUE: predict_16x16_h:src <- [DW_OP_plus_uconst 352, DW_OP_stack_value] $rdi
	.loc	0 95 41                         # x264_src/common/predict.c:95:41
	movzbl	351(%rdi), %eax
.Ltmp54:
	.loc	0 95 39 is_stmt 0               # x264_src/common/predict.c:95:39
	imull	$16843009, %eax, %eax           # imm = 0x1010101
.Ltmp55:
	#DEBUG_VALUE: v <- $eax
	.loc	0 96 23 is_stmt 1               # x264_src/common/predict.c:96:23
	movd	%eax, %xmm0
	pshufd	$0, %xmm0, %xmm0                # xmm0 = xmm0[0,0,0,0]
	movdqu	%xmm0, 352(%rdi)
.Ltmp56:
	#DEBUG_VALUE: i <- 12
	#DEBUG_VALUE: predict_16x16_h:src <- [DW_OP_plus_uconst 384, DW_OP_stack_value] $rdi
	.loc	0 95 41                         # x264_src/common/predict.c:95:41
	movzbl	383(%rdi), %eax
.Ltmp57:
	.loc	0 95 39 is_stmt 0               # x264_src/common/predict.c:95:39
	imull	$16843009, %eax, %eax           # imm = 0x1010101
.Ltmp58:
	#DEBUG_VALUE: v <- $eax
	.loc	0 96 23 is_stmt 1               # x264_src/common/predict.c:96:23
	movd	%eax, %xmm0
	pshufd	$0, %xmm0, %xmm0                # xmm0 = xmm0[0,0,0,0]
	movdqu	%xmm0, 384(%rdi)
.Ltmp59:
	#DEBUG_VALUE: i <- 13
	#DEBUG_VALUE: predict_16x16_h:src <- [DW_OP_plus_uconst 416, DW_OP_stack_value] $rdi
	.loc	0 95 41                         # x264_src/common/predict.c:95:41
	movzbl	415(%rdi), %eax
.Ltmp60:
	.loc	0 95 39 is_stmt 0               # x264_src/common/predict.c:95:39
	imull	$16843009, %eax, %eax           # imm = 0x1010101
.Ltmp61:
	#DEBUG_VALUE: v <- $eax
	.loc	0 96 23 is_stmt 1               # x264_src/common/predict.c:96:23
	movd	%eax, %xmm0
	pshufd	$0, %xmm0, %xmm0                # xmm0 = xmm0[0,0,0,0]
	movdqu	%xmm0, 416(%rdi)
.Ltmp62:
	#DEBUG_VALUE: i <- 14
	#DEBUG_VALUE: predict_16x16_h:src <- [DW_OP_plus_uconst 448, DW_OP_stack_value] $rdi
	.loc	0 95 41                         # x264_src/common/predict.c:95:41
	movzbl	447(%rdi), %eax
.Ltmp63:
	.loc	0 95 39 is_stmt 0               # x264_src/common/predict.c:95:39
	imull	$16843009, %eax, %eax           # imm = 0x1010101
.Ltmp64:
	#DEBUG_VALUE: v <- $eax
	.loc	0 96 23 is_stmt 1               # x264_src/common/predict.c:96:23
	movd	%eax, %xmm0
	pshufd	$0, %xmm0, %xmm0                # xmm0 = xmm0[0,0,0,0]
	movdqu	%xmm0, 448(%rdi)
.Ltmp65:
	#DEBUG_VALUE: i <- 15
	#DEBUG_VALUE: predict_16x16_h:src <- [DW_OP_plus_uconst 480, DW_OP_stack_value] $rdi
	.loc	0 95 41                         # x264_src/common/predict.c:95:41
	movzbl	479(%rdi), %eax
.Ltmp66:
	.loc	0 95 39 is_stmt 0               # x264_src/common/predict.c:95:39
	imull	$16843009, %eax, %eax           # imm = 0x1010101
.Ltmp67:
	#DEBUG_VALUE: v <- $eax
	.loc	0 96 23 is_stmt 1               # x264_src/common/predict.c:96:23
	movd	%eax, %xmm0
	pshufd	$0, %xmm0, %xmm0                # xmm0 = xmm0[0,0,0,0]
	movdqu	%xmm0, 480(%rdi)
.Ltmp68:
	#DEBUG_VALUE: i <- 16
	#DEBUG_VALUE: predict_16x16_h:src <- [DW_OP_plus_uconst 480, DW_OP_plus_uconst 32, DW_OP_stack_value] $rdi
	.loc	0 102 1                         # x264_src/common/predict.c:102:1
	retq
.Ltmp69:
.Lfunc_end2:
	.size	predict_16x16_h, .Lfunc_end2-predict_16x16_h
	.cfi_endproc
                                        # -- End function
	.p2align	4, 0x90                         # -- Begin function predict_16x16_dc
	.type	predict_16x16_dc,@function
predict_16x16_dc:                       # @predict_16x16_dc
.Lfunc_begin3:
	.cfi_startproc
# %bb.0:                                # %entry
	#DEBUG_VALUE: predict_16x16_dc:src <- $rdi
	#DEBUG_VALUE: predict_16x16_dc:dc <- 0
	#DEBUG_VALUE: i <- 0
	#DEBUG_VALUE: i <- 0
	.loc	0 60 15 prologue_end            # x264_src/common/predict.c:60:15
	movzbl	-1(%rdi), %eax
.Ltmp70:
	#DEBUG_VALUE: predict_16x16_dc:dc <- $eax
	.loc	0 61 15                         # x264_src/common/predict.c:61:15
	movzbl	-32(%rdi), %ecx
	.loc	0 61 12 is_stmt 0               # x264_src/common/predict.c:61:12
	addl	%eax, %ecx
.Ltmp71:
	#DEBUG_VALUE: predict_16x16_dc:dc <- $ecx
	#DEBUG_VALUE: i <- 1
	.loc	0 60 15 is_stmt 1               # x264_src/common/predict.c:60:15
	movzbl	31(%rdi), %eax
.Ltmp72:
	#DEBUG_VALUE: predict_16x16_dc:dc <- undef
	.loc	0 61 15                         # x264_src/common/predict.c:61:15
	movzbl	-31(%rdi), %edx
	.loc	0 60 12                         # x264_src/common/predict.c:60:12
	addl	%eax, %edx
	.loc	0 61 12                         # x264_src/common/predict.c:61:12
	addl	%ecx, %edx
.Ltmp73:
	#DEBUG_VALUE: predict_16x16_dc:dc <- $edx
	#DEBUG_VALUE: i <- 2
	.loc	0 60 15                         # x264_src/common/predict.c:60:15
	movzbl	63(%rdi), %eax
.Ltmp74:
	#DEBUG_VALUE: predict_16x16_dc:dc <- undef
	.loc	0 61 15                         # x264_src/common/predict.c:61:15
	movzbl	-30(%rdi), %ecx
	.loc	0 60 12                         # x264_src/common/predict.c:60:12
	addl	%eax, %ecx
	#DEBUG_VALUE: predict_16x16_dc:dc <- undef
.Ltmp75:
	#DEBUG_VALUE: i <- 3
	.loc	0 60 15 is_stmt 0               # x264_src/common/predict.c:60:15
	movzbl	95(%rdi), %eax
	.loc	0 61 12 is_stmt 1               # x264_src/common/predict.c:61:12
	addl	%ecx, %eax
	.loc	0 60 12                         # x264_src/common/predict.c:60:12
	addl	%edx, %eax
.Ltmp76:
	#DEBUG_VALUE: predict_16x16_dc:dc <- $eax
	.loc	0 61 15                         # x264_src/common/predict.c:61:15
	movzbl	-29(%rdi), %ecx
.Ltmp77:
	#DEBUG_VALUE: predict_16x16_dc:dc <- undef
	#DEBUG_VALUE: i <- 4
	.loc	0 60 15                         # x264_src/common/predict.c:60:15
	movzbl	127(%rdi), %edx
	.loc	0 61 12                         # x264_src/common/predict.c:61:12
	addl	%ecx, %edx
	#DEBUG_VALUE: predict_16x16_dc:dc <- undef
	.loc	0 61 15 is_stmt 0               # x264_src/common/predict.c:61:15
	movzbl	-28(%rdi), %ecx
	.loc	0 60 12 is_stmt 1               # x264_src/common/predict.c:60:12
	addl	%edx, %ecx
	#DEBUG_VALUE: predict_16x16_dc:dc <- undef
.Ltmp78:
	#DEBUG_VALUE: i <- 5
	.loc	0 60 15 is_stmt 0               # x264_src/common/predict.c:60:15
	movzbl	159(%rdi), %edx
	.loc	0 61 12 is_stmt 1               # x264_src/common/predict.c:61:12
	addl	%ecx, %edx
	.loc	0 60 12                         # x264_src/common/predict.c:60:12
	addl	%eax, %edx
.Ltmp79:
	#DEBUG_VALUE: predict_16x16_dc:dc <- $edx
	.loc	0 61 15                         # x264_src/common/predict.c:61:15
	movzbl	-27(%rdi), %eax
.Ltmp80:
	#DEBUG_VALUE: predict_16x16_dc:dc <- undef
	#DEBUG_VALUE: i <- 6
	.loc	0 60 15                         # x264_src/common/predict.c:60:15
	movzbl	191(%rdi), %ecx
	.loc	0 61 12                         # x264_src/common/predict.c:61:12
	addl	%eax, %ecx
	#DEBUG_VALUE: predict_16x16_dc:dc <- undef
	.loc	0 61 15 is_stmt 0               # x264_src/common/predict.c:61:15
	movzbl	-26(%rdi), %eax
	.loc	0 60 12 is_stmt 1               # x264_src/common/predict.c:60:12
	addl	%ecx, %eax
	#DEBUG_VALUE: predict_16x16_dc:dc <- undef
.Ltmp81:
	#DEBUG_VALUE: i <- 7
	.loc	0 60 15 is_stmt 0               # x264_src/common/predict.c:60:15
	movzbl	223(%rdi), %ecx
	.loc	0 61 12 is_stmt 1               # x264_src/common/predict.c:61:12
	addl	%eax, %ecx
	#DEBUG_VALUE: predict_16x16_dc:dc <- undef
	.loc	0 61 15 is_stmt 0               # x264_src/common/predict.c:61:15
	movzbl	-25(%rdi), %eax
	.loc	0 60 12 is_stmt 1               # x264_src/common/predict.c:60:12
	addl	%ecx, %eax
	.loc	0 61 12                         # x264_src/common/predict.c:61:12
	addl	%edx, %eax
.Ltmp82:
	#DEBUG_VALUE: predict_16x16_dc:dc <- $eax
	#DEBUG_VALUE: i <- 8
	.loc	0 60 15                         # x264_src/common/predict.c:60:15
	movzbl	255(%rdi), %ecx
.Ltmp83:
	#DEBUG_VALUE: predict_16x16_dc:dc <- undef
	.loc	0 61 15                         # x264_src/common/predict.c:61:15
	movzbl	-24(%rdi), %edx
	.loc	0 60 12                         # x264_src/common/predict.c:60:12
	addl	%ecx, %edx
	#DEBUG_VALUE: predict_16x16_dc:dc <- undef
.Ltmp84:
	#DEBUG_VALUE: i <- 9
	.loc	0 60 15 is_stmt 0               # x264_src/common/predict.c:60:15
	movzbl	287(%rdi), %ecx
	.loc	0 61 12 is_stmt 1               # x264_src/common/predict.c:61:12
	addl	%edx, %ecx
	#DEBUG_VALUE: predict_16x16_dc:dc <- undef
	.loc	0 61 15 is_stmt 0               # x264_src/common/predict.c:61:15
	movzbl	-23(%rdi), %edx
	.loc	0 60 12 is_stmt 1               # x264_src/common/predict.c:60:12
	addl	%ecx, %edx
	#DEBUG_VALUE: predict_16x16_dc:dc <- undef
.Ltmp85:
	#DEBUG_VALUE: i <- 10
	.loc	0 60 15 is_stmt 0               # x264_src/common/predict.c:60:15
	movzbl	319(%rdi), %ecx
	.loc	0 61 12 is_stmt 1               # x264_src/common/predict.c:61:12
	addl	%edx, %ecx
	#DEBUG_VALUE: predict_16x16_dc:dc <- undef
	.loc	0 61 15 is_stmt 0               # x264_src/common/predict.c:61:15
	movzbl	-22(%rdi), %edx
	.loc	0 60 12 is_stmt 1               # x264_src/common/predict.c:60:12
	addl	%ecx, %edx
	.loc	0 61 12                         # x264_src/common/predict.c:61:12
	addl	%eax, %edx
.Ltmp86:
	#DEBUG_VALUE: predict_16x16_dc:dc <- $edx
	#DEBUG_VALUE: i <- 11
	.loc	0 60 15                         # x264_src/common/predict.c:60:15
	movzbl	351(%rdi), %eax
.Ltmp87:
	#DEBUG_VALUE: predict_16x16_dc:dc <- undef
	.loc	0 61 15                         # x264_src/common/predict.c:61:15
	movzbl	-21(%rdi), %ecx
	.loc	0 60 12                         # x264_src/common/predict.c:60:12
	addl	%eax, %ecx
	#DEBUG_VALUE: predict_16x16_dc:dc <- undef
.Ltmp88:
	#DEBUG_VALUE: i <- 12
	.loc	0 60 15 is_stmt 0               # x264_src/common/predict.c:60:15
	movzbl	383(%rdi), %eax
	.loc	0 61 12 is_stmt 1               # x264_src/common/predict.c:61:12
	addl	%ecx, %eax
	#DEBUG_VALUE: predict_16x16_dc:dc <- undef
	.loc	0 61 15 is_stmt 0               # x264_src/common/predict.c:61:15
	movzbl	-20(%rdi), %ecx
	.loc	0 60 12 is_stmt 1               # x264_src/common/predict.c:60:12
	addl	%eax, %ecx
	#DEBUG_VALUE: predict_16x16_dc:dc <- undef
.Ltmp89:
	#DEBUG_VALUE: i <- 13
	.loc	0 60 15 is_stmt 0               # x264_src/common/predict.c:60:15
	movzbl	415(%rdi), %eax
	.loc	0 61 12 is_stmt 1               # x264_src/common/predict.c:61:12
	addl	%ecx, %eax
	#DEBUG_VALUE: predict_16x16_dc:dc <- undef
	.loc	0 61 15 is_stmt 0               # x264_src/common/predict.c:61:15
	movzbl	-19(%rdi), %ecx
	.loc	0 60 12 is_stmt 1               # x264_src/common/predict.c:60:12
	addl	%eax, %ecx
	#DEBUG_VALUE: predict_16x16_dc:dc <- undef
.Ltmp90:
	#DEBUG_VALUE: i <- 14
	.loc	0 60 15 is_stmt 0               # x264_src/common/predict.c:60:15
	movzbl	447(%rdi), %eax
	.loc	0 61 12 is_stmt 1               # x264_src/common/predict.c:61:12
	addl	%ecx, %eax
	.loc	0 60 12                         # x264_src/common/predict.c:60:12
	addl	%edx, %eax
.Ltmp91:
	#DEBUG_VALUE: predict_16x16_dc:dc <- $eax
	.loc	0 61 15                         # x264_src/common/predict.c:61:15
	movzbl	-18(%rdi), %ecx
.Ltmp92:
	#DEBUG_VALUE: predict_16x16_dc:dc <- undef
	#DEBUG_VALUE: i <- 15
	.loc	0 60 15                         # x264_src/common/predict.c:60:15
	movzbl	479(%rdi), %edx
	.loc	0 61 12                         # x264_src/common/predict.c:61:12
	addl	%ecx, %edx
	.loc	0 60 12                         # x264_src/common/predict.c:60:12
	addl	%eax, %edx
.Ltmp93:
	#DEBUG_VALUE: predict_16x16_dc:dc <- $edx
	.loc	0 61 15                         # x264_src/common/predict.c:61:15
	movzbl	-17(%rdi), %eax
.Ltmp94:
	#DEBUG_VALUE: i <- 16
	#DEBUG_VALUE: predict_16x16_dc:dc <- [DW_OP_LLVM_arg 0, DW_OP_LLVM_arg 1, DW_OP_plus, DW_OP_stack_value] $edx, $eax
	.loc	0 63 16                         # x264_src/common/predict.c:63:16
	addl	%edx, %eax
.Ltmp95:
	addl	$16, %eax
	.loc	0 63 23 is_stmt 0               # x264_src/common/predict.c:63:23
	shrl	$5, %eax
	.loc	0 63 29                         # x264_src/common/predict.c:63:29
	imull	$16843009, %eax, %eax           # imm = 0x1010101
.Ltmp96:
	#DEBUG_VALUE: predict_16x16_dc:dc <- $eax
	#DEBUG_VALUE: i <- 0
	.loc	0 65 5 is_stmt 1                # x264_src/common/predict.c:65:5
	movd	%eax, %xmm0
	pshufd	$0, %xmm0, %xmm0                # xmm0 = xmm0[0,0,0,0]
	movdqu	%xmm0, (%rdi)
.Ltmp97:
	#DEBUG_VALUE: i <- 1
	#DEBUG_VALUE: predict_16x16_dc:src <- [DW_OP_plus_uconst 32, DW_OP_stack_value] $rdi
	movdqu	%xmm0, 32(%rdi)
.Ltmp98:
	#DEBUG_VALUE: i <- 2
	#DEBUG_VALUE: predict_16x16_dc:src <- [DW_OP_plus_uconst 64, DW_OP_stack_value] $rdi
	movdqu	%xmm0, 64(%rdi)
.Ltmp99:
	#DEBUG_VALUE: i <- 3
	#DEBUG_VALUE: predict_16x16_dc:src <- [DW_OP_plus_uconst 96, DW_OP_stack_value] $rdi
	movdqu	%xmm0, 96(%rdi)
.Ltmp100:
	#DEBUG_VALUE: i <- 4
	#DEBUG_VALUE: predict_16x16_dc:src <- [DW_OP_plus_uconst 128, DW_OP_stack_value] $rdi
	movdqu	%xmm0, 128(%rdi)
.Ltmp101:
	#DEBUG_VALUE: i <- 5
	#DEBUG_VALUE: predict_16x16_dc:src <- [DW_OP_plus_uconst 160, DW_OP_stack_value] $rdi
	movdqu	%xmm0, 160(%rdi)
.Ltmp102:
	#DEBUG_VALUE: i <- 6
	#DEBUG_VALUE: predict_16x16_dc:src <- [DW_OP_plus_uconst 192, DW_OP_stack_value] $rdi
	movdqu	%xmm0, 192(%rdi)
.Ltmp103:
	#DEBUG_VALUE: i <- 7
	#DEBUG_VALUE: predict_16x16_dc:src <- [DW_OP_plus_uconst 224, DW_OP_stack_value] $rdi
	movdqu	%xmm0, 224(%rdi)
.Ltmp104:
	#DEBUG_VALUE: i <- 8
	#DEBUG_VALUE: predict_16x16_dc:src <- [DW_OP_plus_uconst 256, DW_OP_stack_value] $rdi
	movdqu	%xmm0, 256(%rdi)
.Ltmp105:
	#DEBUG_VALUE: i <- 9
	#DEBUG_VALUE: predict_16x16_dc:src <- [DW_OP_plus_uconst 288, DW_OP_stack_value] $rdi
	movdqu	%xmm0, 288(%rdi)
.Ltmp106:
	#DEBUG_VALUE: i <- 10
	#DEBUG_VALUE: predict_16x16_dc:src <- [DW_OP_plus_uconst 320, DW_OP_stack_value] $rdi
	movdqu	%xmm0, 320(%rdi)
.Ltmp107:
	#DEBUG_VALUE: i <- 11
	#DEBUG_VALUE: predict_16x16_dc:src <- [DW_OP_plus_uconst 352, DW_OP_stack_value] $rdi
	movdqu	%xmm0, 352(%rdi)
.Ltmp108:
	#DEBUG_VALUE: i <- 12
	#DEBUG_VALUE: predict_16x16_dc:src <- [DW_OP_plus_uconst 384, DW_OP_stack_value] $rdi
	movdqu	%xmm0, 384(%rdi)
.Ltmp109:
	#DEBUG_VALUE: i <- 13
	#DEBUG_VALUE: predict_16x16_dc:src <- [DW_OP_plus_uconst 416, DW_OP_stack_value] $rdi
	movdqu	%xmm0, 416(%rdi)
.Ltmp110:
	#DEBUG_VALUE: i <- 14
	#DEBUG_VALUE: predict_16x16_dc:src <- [DW_OP_plus_uconst 448, DW_OP_stack_value] $rdi
	movdqu	%xmm0, 448(%rdi)
.Ltmp111:
	#DEBUG_VALUE: i <- 15
	#DEBUG_VALUE: predict_16x16_dc:src <- [DW_OP_plus_uconst 480, DW_OP_stack_value] $rdi
	movdqu	%xmm0, 480(%rdi)
.Ltmp112:
	#DEBUG_VALUE: i <- 16
	#DEBUG_VALUE: predict_16x16_dc:src <- [DW_OP_plus_uconst 480, DW_OP_plus_uconst 32, DW_OP_stack_value] $rdi
	.loc	0 66 1                          # x264_src/common/predict.c:66:1
	retq
.Ltmp113:
.Lfunc_end3:
	.size	predict_16x16_dc, .Lfunc_end3-predict_16x16_dc
	.cfi_endproc
                                        # -- End function
	.section	.rodata.cst16,"aM",@progbits,16
	.p2align	4, 0x0                          # -- Begin function predict_16x16_p
.LCPI4_0:
	.long	2147483648                      # 0x80000000
	.long	2147483648                      # 0x80000000
	.long	2147483648                      # 0x80000000
	.long	2147483648                      # 0x80000000
.LCPI4_1:
	.long	2147483904                      # 0x80000100
	.long	2147483904                      # 0x80000100
	.long	2147483904                      # 0x80000100
	.long	2147483904                      # 0x80000100
.LCPI4_2:
	.byte	255                             # 0xff
	.byte	0                               # 0x0
	.byte	0                               # 0x0
	.byte	0                               # 0x0
	.byte	255                             # 0xff
	.byte	0                               # 0x0
	.byte	0                               # 0x0
	.byte	0                               # 0x0
	.byte	255                             # 0xff
	.byte	0                               # 0x0
	.byte	0                               # 0x0
	.byte	0                               # 0x0
	.byte	255                             # 0xff
	.byte	0                               # 0x0
	.byte	0                               # 0x0
	.byte	0                               # 0x0
	.text
	.p2align	4, 0x90
	.type	predict_16x16_p,@function
predict_16x16_p:                        # @predict_16x16_p
.Lfunc_begin4:
	.loc	0 120 0                         # x264_src/common/predict.c:120:0
	.cfi_startproc
# %bb.0:                                # %entry
	#DEBUG_VALUE: predict_16x16_p:src <- $rdi
	pushq	%rbp
	.cfi_def_cfa_offset 16
	pushq	%r15
	.cfi_def_cfa_offset 24
	pushq	%r14
	.cfi_def_cfa_offset 32
	pushq	%r12
	.cfi_def_cfa_offset 40
	pushq	%rbx
	.cfi_def_cfa_offset 48
	.cfi_offset %rbx, -48
	.cfi_offset %r12, -40
	.cfi_offset %r14, -32
	.cfi_offset %r15, -24
	.cfi_offset %rbp, -16
.Ltmp114:
	#DEBUG_VALUE: predict_16x16_p:H <- 0
	#DEBUG_VALUE: predict_16x16_p:V <- 0
	#DEBUG_VALUE: i <- 0
	#DEBUG_VALUE: i <- 0
	.loc	0 126 28 prologue_end           # x264_src/common/predict.c:126:28
	movzbl	-24(%rdi), %eax
	.loc	0 126 57 is_stmt 0              # x264_src/common/predict.c:126:57
	movzbl	-26(%rdi), %ecx
	.loc	0 126 55                        # x264_src/common/predict.c:126:55
	subl	%ecx, %eax
.Ltmp115:
	#DEBUG_VALUE: predict_16x16_p:H <- $eax
	.loc	0 127 28 is_stmt 1              # x264_src/common/predict.c:127:28
	movzbl	255(%rdi), %ecx
	.loc	0 127 58 is_stmt 0              # x264_src/common/predict.c:127:58
	movzbl	191(%rdi), %edx
	.loc	0 127 56                        # x264_src/common/predict.c:127:56
	subl	%edx, %ecx
.Ltmp116:
	#DEBUG_VALUE: predict_16x16_p:V <- $ecx
	#DEBUG_VALUE: i <- 1
	.loc	0 126 28 is_stmt 1              # x264_src/common/predict.c:126:28
	movzbl	-23(%rdi), %edx
	.loc	0 126 57 is_stmt 0              # x264_src/common/predict.c:126:57
	movzbl	-27(%rdi), %esi
	.loc	0 126 55                        # x264_src/common/predict.c:126:55
	subl	%esi, %edx
	.loc	0 126 11                        # x264_src/common/predict.c:126:11
	leal	(%rax,%rdx,2), %eax
.Ltmp117:
	#DEBUG_VALUE: predict_16x16_p:H <- $eax
	.loc	0 127 28 is_stmt 1              # x264_src/common/predict.c:127:28
	movzbl	287(%rdi), %edx
	.loc	0 127 58 is_stmt 0              # x264_src/common/predict.c:127:58
	movzbl	159(%rdi), %esi
	.loc	0 127 56                        # x264_src/common/predict.c:127:56
	subl	%esi, %edx
	.loc	0 127 11                        # x264_src/common/predict.c:127:11
	leal	(%rcx,%rdx,2), %ecx
.Ltmp118:
	#DEBUG_VALUE: predict_16x16_p:V <- $ecx
	#DEBUG_VALUE: i <- 2
	.loc	0 126 28 is_stmt 1              # x264_src/common/predict.c:126:28
	movzbl	-22(%rdi), %edx
	.loc	0 126 57 is_stmt 0              # x264_src/common/predict.c:126:57
	movzbl	-28(%rdi), %esi
	.loc	0 126 55                        # x264_src/common/predict.c:126:55
	subl	%esi, %edx
	.loc	0 126 24                        # x264_src/common/predict.c:126:24
	leal	(%rdx,%rdx,2), %edx
	.loc	0 126 11                        # x264_src/common/predict.c:126:11
	addl	%eax, %edx
.Ltmp119:
	#DEBUG_VALUE: predict_16x16_p:H <- $edx
	.loc	0 127 28 is_stmt 1              # x264_src/common/predict.c:127:28
	movzbl	319(%rdi), %eax
	.loc	0 127 58 is_stmt 0              # x264_src/common/predict.c:127:58
	movzbl	127(%rdi), %esi
	.loc	0 127 56                        # x264_src/common/predict.c:127:56
	subl	%esi, %eax
	.loc	0 127 24                        # x264_src/common/predict.c:127:24
	leal	(%rax,%rax,2), %eax
	.loc	0 127 11                        # x264_src/common/predict.c:127:11
	addl	%ecx, %eax
.Ltmp120:
	#DEBUG_VALUE: predict_16x16_p:V <- $eax
	#DEBUG_VALUE: i <- 3
	.loc	0 126 28 is_stmt 1              # x264_src/common/predict.c:126:28
	movzbl	-21(%rdi), %ecx
	.loc	0 126 57 is_stmt 0              # x264_src/common/predict.c:126:57
	movzbl	-29(%rdi), %esi
	.loc	0 126 55                        # x264_src/common/predict.c:126:55
	subl	%esi, %ecx
	.loc	0 126 11                        # x264_src/common/predict.c:126:11
	leal	(%rdx,%rcx,4), %ecx
.Ltmp121:
	#DEBUG_VALUE: predict_16x16_p:H <- $ecx
	.loc	0 127 28 is_stmt 1              # x264_src/common/predict.c:127:28
	movzbl	351(%rdi), %edx
	.loc	0 127 58 is_stmt 0              # x264_src/common/predict.c:127:58
	movzbl	95(%rdi), %esi
	.loc	0 127 56                        # x264_src/common/predict.c:127:56
	subl	%esi, %edx
	.loc	0 127 11                        # x264_src/common/predict.c:127:11
	leal	(%rax,%rdx,4), %eax
.Ltmp122:
	#DEBUG_VALUE: predict_16x16_p:V <- $eax
	#DEBUG_VALUE: i <- 4
	.loc	0 126 28 is_stmt 1              # x264_src/common/predict.c:126:28
	movzbl	-20(%rdi), %edx
	.loc	0 126 57 is_stmt 0              # x264_src/common/predict.c:126:57
	movzbl	-30(%rdi), %esi
	.loc	0 126 55                        # x264_src/common/predict.c:126:55
	subl	%esi, %edx
	.loc	0 126 24                        # x264_src/common/predict.c:126:24
	leal	(%rdx,%rdx,4), %edx
	.loc	0 126 11                        # x264_src/common/predict.c:126:11
	addl	%ecx, %edx
.Ltmp123:
	#DEBUG_VALUE: predict_16x16_p:H <- $edx
	.loc	0 127 28 is_stmt 1              # x264_src/common/predict.c:127:28
	movzbl	383(%rdi), %ecx
	.loc	0 127 58 is_stmt 0              # x264_src/common/predict.c:127:58
	movzbl	63(%rdi), %esi
	.loc	0 127 56                        # x264_src/common/predict.c:127:56
	subl	%esi, %ecx
	.loc	0 127 24                        # x264_src/common/predict.c:127:24
	leal	(%rcx,%rcx,4), %ecx
	.loc	0 127 11                        # x264_src/common/predict.c:127:11
	addl	%eax, %ecx
.Ltmp124:
	#DEBUG_VALUE: predict_16x16_p:V <- $ecx
	#DEBUG_VALUE: i <- 5
	.loc	0 126 28 is_stmt 1              # x264_src/common/predict.c:126:28
	movzbl	-19(%rdi), %eax
	.loc	0 126 57 is_stmt 0              # x264_src/common/predict.c:126:57
	movzbl	-31(%rdi), %esi
	.loc	0 126 55                        # x264_src/common/predict.c:126:55
	subl	%esi, %eax
	.loc	0 126 24                        # x264_src/common/predict.c:126:24
	leal	(%rax,%rax,2), %eax
	.loc	0 126 11                        # x264_src/common/predict.c:126:11
	leal	(%rdx,%rax,2), %eax
.Ltmp125:
	#DEBUG_VALUE: predict_16x16_p:H <- $eax
	.loc	0 127 28 is_stmt 1              # x264_src/common/predict.c:127:28
	movzbl	415(%rdi), %edx
	.loc	0 127 58 is_stmt 0              # x264_src/common/predict.c:127:58
	movzbl	31(%rdi), %esi
	.loc	0 127 56                        # x264_src/common/predict.c:127:56
	subl	%esi, %edx
	.loc	0 127 24                        # x264_src/common/predict.c:127:24
	leal	(%rdx,%rdx,2), %edx
	.loc	0 127 11                        # x264_src/common/predict.c:127:11
	leal	(%rcx,%rdx,2), %ecx
.Ltmp126:
	#DEBUG_VALUE: predict_16x16_p:V <- $ecx
	#DEBUG_VALUE: i <- 6
	.loc	0 126 28 is_stmt 1              # x264_src/common/predict.c:126:28
	movzbl	-18(%rdi), %edx
	.loc	0 126 57 is_stmt 0              # x264_src/common/predict.c:126:57
	movzbl	-32(%rdi), %esi
	.loc	0 126 55                        # x264_src/common/predict.c:126:55
	subl	%esi, %edx
	.loc	0 126 24                        # x264_src/common/predict.c:126:24
	leal	(,%rdx,8), %esi
	subl	%edx, %esi
	.loc	0 126 11                        # x264_src/common/predict.c:126:11
	addl	%eax, %esi
.Ltmp127:
	#DEBUG_VALUE: predict_16x16_p:H <- $esi
	.loc	0 127 28 is_stmt 1              # x264_src/common/predict.c:127:28
	movzbl	447(%rdi), %eax
	.loc	0 127 58 is_stmt 0              # x264_src/common/predict.c:127:58
	movzbl	-1(%rdi), %edx
	.loc	0 127 56                        # x264_src/common/predict.c:127:56
	subl	%edx, %eax
	.loc	0 127 24                        # x264_src/common/predict.c:127:24
	leal	(,%rax,8), %edx
	subl	%eax, %edx
	.loc	0 127 11                        # x264_src/common/predict.c:127:11
	addl	%ecx, %edx
.Ltmp128:
	#DEBUG_VALUE: predict_16x16_p:V <- $edx
	#DEBUG_VALUE: i <- 7
	.loc	0 126 28 is_stmt 1              # x264_src/common/predict.c:126:28
	movzbl	-17(%rdi), %eax
	.loc	0 126 57 is_stmt 0              # x264_src/common/predict.c:126:57
	movzbl	-33(%rdi), %ecx
	.loc	0 126 55                        # x264_src/common/predict.c:126:55
	movl	%eax, %r8d
	subl	%ecx, %r8d
	.loc	0 126 11                        # x264_src/common/predict.c:126:11
	leal	(%rsi,%r8,8), %esi
.Ltmp129:
	#DEBUG_VALUE: predict_16x16_p:H <- $esi
	.loc	0 127 28 is_stmt 1              # x264_src/common/predict.c:127:28
	movzbl	479(%rdi), %r8d
.Ltmp130:
	#DEBUG_VALUE: predict_16x16_p:V <- undef
	#DEBUG_VALUE: i <- 8
	.loc	0 130 45                        # x264_src/common/predict.c:130:45
	addl	%r8d, %eax
                                        # kill: def $r8d killed $r8d def $r8
.Ltmp131:
	.loc	0 127 56                        # x264_src/common/predict.c:127:56
	subl	%ecx, %r8d
	.loc	0 127 11 is_stmt 0              # x264_src/common/predict.c:127:11
	leal	(%rdx,%r8,8), %edx
.Ltmp132:
	#DEBUG_VALUE: predict_16x16_p:V <- $edx
	.loc	0 130 16 is_stmt 1              # x264_src/common/predict.c:130:16
	shll	$4, %eax
.Ltmp133:
	#DEBUG_VALUE: predict_16x16_p:a <- $eax
	.loc	0 131 21                        # x264_src/common/predict.c:131:21
	leal	(%rsi,%rsi,4), %ecx
	addl	$32, %ecx
	.loc	0 131 28 is_stmt 0              # x264_src/common/predict.c:131:28
	sarl	$6, %ecx
.Ltmp134:
	#DEBUG_VALUE: predict_16x16_p:b <- $ecx
	.loc	0 132 21 is_stmt 1              # x264_src/common/predict.c:132:21
	leal	(%rdx,%rdx,4), %edx
.Ltmp135:
	addl	$32, %edx
	.loc	0 132 28 is_stmt 0              # x264_src/common/predict.c:132:28
	sarl	$6, %edx
.Ltmp136:
	#DEBUG_VALUE: predict_16x16_p:c <- $edx
	.loc	0 0 28                          # x264_src/common/predict.c:0:28
	leal	(%rcx,%rdx), %esi
.Ltmp137:
	#DEBUG_VALUE: predict_16x16_p:i00 <- [DW_OP_LLVM_arg 0, DW_OP_constu 18446744073709551609, DW_OP_mul, DW_OP_plus_uconst 16, DW_OP_LLVM_arg 1, DW_OP_plus, DW_OP_stack_value] $esi, $eax
	#DEBUG_VALUE: y <- 0
	.loc	0 136 5 is_stmt 1               # x264_src/common/predict.c:136:5
	leal	16(%rcx), %r8d
	leal	(,%rdx,4), %r9d
	subl	%r9d, %r8d
	leal	(%rdx,%rdx,4), %r10d
	negl	%r10d
	addl	%ecx, %r10d
	addl	$16, %r10d
	leal	(%rdx,%rdx), %r11d
	leal	(%r11,%r11,2), %r11d
	negl	%r11d
	addl	%ecx, %r11d
	addl	$16, %r11d
	leal	(,%rsi,8), %ebx
	subl	%ebx, %esi
.Ltmp138:
	addl	$16, %esi
	leal	(,%rdx,8), %ebx
	movl	%edx, %r14d
	subl	%ebx, %r14d
	leal	(%rcx,%r14), %ebx
	addl	$16, %ebx
	leal	(%rcx,%rcx), %r14d
	leal	(%rcx,%rcx,4), %r15d
	leal	(%r15,%r15,2), %ebp
	subl	%ebp, %edx
.Ltmp139:
	.loc	0 0 5 is_stmt 0                 # x264_src/common/predict.c:0:5
	xorl	%r15d, %r15d
.Ltmp140:
	.p2align	4, 0x90
.LBB4_1:                                # %vector.body
                                        # =>This Inner Loop Header: Depth=1
	#DEBUG_VALUE: predict_16x16_p:src <- $rdi
	#DEBUG_VALUE: predict_16x16_p:a <- $eax
	#DEBUG_VALUE: predict_16x16_p:b <- $ecx
	#DEBUG_VALUE: y <- 0
	.loc	0 142 17 is_stmt 1              # x264_src/common/predict.c:142:17
	leal	(%rax,%rbx), %ebp
	.loc	0 141 42                        # x264_src/common/predict.c:141:42
	movd	%ebp, %xmm4
	.loc	0 142 17                        # x264_src/common/predict.c:142:17
	leal	(%rax,%r11), %ebp
	.loc	0 141 42                        # x264_src/common/predict.c:141:42
	movd	%ebp, %xmm0
	movdqa	%xmm0, -32(%rsp)                # 16-byte Spill
	.loc	0 142 17                        # x264_src/common/predict.c:142:17
	leal	(%rax,%r10), %ebp
	.loc	0 141 42                        # x264_src/common/predict.c:141:42
	movd	%ebp, %xmm0
	movdqa	%xmm0, -48(%rsp)                # 16-byte Spill
	.loc	0 142 17                        # x264_src/common/predict.c:142:17
	leal	(%rax,%r8), %ebp
	.loc	0 141 42                        # x264_src/common/predict.c:141:42
	movd	%ebp, %xmm0
	movdqa	%xmm0, -16(%rsp)                # 16-byte Spill
	.loc	0 142 17                        # x264_src/common/predict.c:142:17
	leal	(%rax,%rsi), %r12d
	.loc	0 141 42                        # x264_src/common/predict.c:141:42
	movd	%r12d, %xmm8
	leal	(%rcx,%r12), %r12d
	movd	%r12d, %xmm9
	leal	(%rcx,%r12), %r12d
	movd	%r12d, %xmm12
	leal	(%rcx,%r12), %r12d
	movd	%r12d, %xmm10
	leal	(%rcx,%r12), %r12d
	movd	%r12d, %xmm11
	leal	(%rcx,%r12), %r12d
	movd	%r12d, %xmm13
	leal	(%rcx,%r12), %r12d
	movd	%r12d, %xmm14
	leal	(%rcx,%r12), %r12d
	movd	%r12d, %xmm15
	leal	(%r14,%r12), %r12d
	movd	%r12d, %xmm0
	leal	(%rcx,%r12), %r12d
	movd	%r12d, %xmm2
	leal	(%rcx,%r12), %r12d
	movd	%r12d, %xmm3
	leal	(%rcx,%r12), %r12d
	punpckldq	%xmm9, %xmm8            # xmm8 = xmm8[0],xmm9[0],xmm8[1],xmm9[1]
	punpckldq	%xmm10, %xmm12          # xmm12 = xmm12[0],xmm10[0],xmm12[1],xmm10[1]
	movd	%r12d, %xmm10
	leal	(%rcx,%r12), %r12d
	punpcklqdq	%xmm12, %xmm8           # xmm8 = xmm8[0],xmm12[0]
	punpckldq	%xmm13, %xmm11          # xmm11 = xmm11[0],xmm13[0],xmm11[1],xmm13[1]
	movd	%r12d, %xmm9
	leal	(%rcx,%r12), %r12d
	punpckldq	%xmm15, %xmm14          # xmm14 = xmm14[0],xmm15[0],xmm14[1],xmm15[1]
	punpcklqdq	%xmm14, %xmm11          # xmm11 = xmm11[0],xmm14[0]
	movd	%r12d, %xmm12
	leal	(%rcx,%r12), %r12d
	punpckldq	%xmm0, %xmm4            # xmm4 = xmm4[0],xmm0[0],xmm4[1],xmm0[1]
	punpckldq	%xmm3, %xmm2            # xmm2 = xmm2[0],xmm3[0],xmm2[1],xmm3[1]
	punpcklqdq	%xmm2, %xmm4            # xmm4 = xmm4[0],xmm2[0]
	punpckldq	%xmm9, %xmm10           # xmm10 = xmm10[0],xmm9[0],xmm10[1],xmm9[1]
	psrad	$5, %xmm11
	psrad	$5, %xmm8
.Ltmp141:
	.loc	5 197 13                        # x264_src/common/common.h:197:13
	movdqa	%xmm8, %xmm0
.Ltmp142:
	.loc	0 141 42                        # x264_src/common/predict.c:141:42
	psrad	$5, %xmm4
	movdqa	.LCPI4_0(%rip), %xmm7           # xmm7 = [2147483648,2147483648,2147483648,2147483648]
.Ltmp143:
	.loc	5 197 13                        # x264_src/common/common.h:197:13
	pxor	%xmm7, %xmm0
	movdqa	.LCPI4_1(%rip), %xmm5           # xmm5 = [2147483904,2147483904,2147483904,2147483904]
	movdqa	%xmm5, %xmm9
	pcmpgtd	%xmm0, %xmm9
.Ltmp144:
	.loc	0 141 42                        # x264_src/common/predict.c:141:42
	movd	%r12d, %xmm0
.Ltmp145:
	.loc	5 197 13                        # x264_src/common/common.h:197:13
	movdqa	%xmm11, %xmm2
	pxor	%xmm7, %xmm2
	movdqa	%xmm5, %xmm3
.Ltmp146:
	.loc	0 141 42                        # x264_src/common/predict.c:141:42
	punpckldq	%xmm0, %xmm12           # xmm12 = xmm12[0],xmm0[0],xmm12[1],xmm0[1]
.Ltmp147:
	.loc	5 197 13                        # x264_src/common/common.h:197:13
	pcmpgtd	%xmm2, %xmm3
	movdqa	%xmm4, %xmm0
	pxor	%xmm7, %xmm0
.Ltmp148:
	.loc	0 141 42                        # x264_src/common/predict.c:141:42
	punpcklqdq	%xmm12, %xmm10          # xmm10 = xmm10[0],xmm12[0]
.Ltmp149:
	.loc	5 197 13                        # x264_src/common/common.h:197:13
	movdqa	%xmm5, %xmm12
	pcmpgtd	%xmm0, %xmm12
	movdqa	%xmm5, %xmm13
.Ltmp150:
	.loc	0 141 42                        # x264_src/common/predict.c:141:42
	psrad	$5, %xmm10
.Ltmp151:
	.loc	5 197 12                        # x264_src/common/common.h:197:12
	movdqa	%xmm8, %xmm0
	pxor	%xmm6, %xmm6
	pcmpgtd	%xmm6, %xmm0
	movdqa	%xmm11, %xmm2
	.loc	5 197 13 is_stmt 0              # x264_src/common/common.h:197:13
	movdqa	%xmm10, %xmm14
	.loc	5 197 12                        # x264_src/common/common.h:197:12
	pcmpgtd	%xmm6, %xmm2
	movdqa	%xmm4, %xmm15
	pcmpgtd	%xmm6, %xmm15
	movdqa	%xmm10, %xmm1
	pand	%xmm12, %xmm4
	pandn	%xmm15, %xmm12
	pand	%xmm3, %xmm11
	por	%xmm4, %xmm12
	pandn	%xmm2, %xmm3
	por	%xmm11, %xmm3
	pand	%xmm9, %xmm8
	.loc	5 197 13                        # x264_src/common/common.h:197:13
	pxor	%xmm7, %xmm14
	.loc	5 197 12                        # x264_src/common/common.h:197:12
	pandn	%xmm0, %xmm9
	por	%xmm8, %xmm9
	movdqa	.LCPI4_2(%rip), %xmm0           # xmm0 = [255,0,0,0,255,0,0,0,255,0,0,0,255,0,0,0]
	pand	%xmm0, %xmm9
	pcmpgtd	%xmm6, %xmm1
	pand	%xmm0, %xmm3
	packuswb	%xmm3, %xmm9
	pand	%xmm0, %xmm12
	movdqa	%xmm0, %xmm8
	.loc	5 197 13                        # x264_src/common/common.h:197:13
	pcmpgtd	%xmm14, %xmm13
.Ltmp152:
	.loc	0 141 42 is_stmt 1              # x264_src/common/predict.c:141:42
	addl	%edx, %r12d
	movd	%r12d, %xmm4
	addl	%ecx, %r12d
.Ltmp153:
	.loc	5 197 12                        # x264_src/common/common.h:197:12
	pand	%xmm13, %xmm10
.Ltmp154:
	.loc	0 141 42                        # x264_src/common/predict.c:141:42
	movd	%r12d, %xmm0
	leal	(%rcx,%r12), %r12d
	movd	%r12d, %xmm2
.Ltmp155:
	.loc	5 197 12                        # x264_src/common/common.h:197:12
	pandn	%xmm1, %xmm13
.Ltmp156:
	.loc	0 141 42                        # x264_src/common/predict.c:141:42
	leal	(%rcx,%r12), %r12d
	movd	%r12d, %xmm1
	leal	(%rcx,%r12), %r12d
.Ltmp157:
	.loc	5 197 12                        # x264_src/common/common.h:197:12
	por	%xmm10, %xmm13
.Ltmp158:
	.loc	0 141 42                        # x264_src/common/predict.c:141:42
	movd	%r12d, %xmm10
	leal	(%rcx,%r12), %r12d
	movd	%r12d, %xmm3
.Ltmp159:
	.loc	5 197 12                        # x264_src/common/common.h:197:12
	pand	%xmm8, %xmm13
.Ltmp160:
	.loc	0 141 42                        # x264_src/common/predict.c:141:42
	leal	(%rcx,%r12), %r12d
	movd	%r12d, %xmm11
	leal	(%rcx,%r12), %r12d
.Ltmp161:
	.loc	5 197 12                        # x264_src/common/common.h:197:12
	packuswb	%xmm13, %xmm12
.Ltmp162:
	.loc	0 141 42                        # x264_src/common/predict.c:141:42
	movd	%r12d, %xmm13
	leal	(%r14,%r12), %r12d
	movd	%r12d, %xmm14
.Ltmp163:
	.loc	5 197 12                        # x264_src/common/common.h:197:12
	packuswb	%xmm12, %xmm9
.Ltmp164:
	.loc	0 141 42                        # x264_src/common/predict.c:141:42
	leal	(%rcx,%r12), %r12d
	movd	%r12d, %xmm12
	leal	(%rcx,%r12), %r12d
	movd	%r12d, %xmm15
	leal	(%rcx,%r12), %r12d
	punpckldq	%xmm0, %xmm4            # xmm4 = xmm4[0],xmm0[0],xmm4[1],xmm0[1]
	punpckldq	%xmm1, %xmm2            # xmm2 = xmm2[0],xmm1[0],xmm2[1],xmm1[1]
	.loc	0 141 20 is_stmt 0              # x264_src/common/predict.c:141:20
	movdqu	%xmm9, (%rdi,%r15)
	.loc	0 141 42                        # x264_src/common/predict.c:141:42
	punpcklqdq	%xmm2, %xmm4            # xmm4 = xmm4[0],xmm2[0]
	punpckldq	%xmm3, %xmm10           # xmm10 = xmm10[0],xmm3[0],xmm10[1],xmm3[1]
	movd	%r12d, %xmm8
	leal	(%rcx,%r12), %r12d
	punpckldq	%xmm13, %xmm11          # xmm11 = xmm11[0],xmm13[0],xmm11[1],xmm13[1]
	punpcklqdq	%xmm11, %xmm10          # xmm10 = xmm10[0],xmm11[0]
	movd	%r12d, %xmm0
	leal	(%rcx,%r12), %r12d
	movdqa	-32(%rsp), %xmm2                # 16-byte Reload
	punpckldq	%xmm14, %xmm2           # xmm2 = xmm2[0],xmm14[0],xmm2[1],xmm14[1]
	punpckldq	%xmm15, %xmm12          # xmm12 = xmm12[0],xmm15[0],xmm12[1],xmm15[1]
	movd	%r12d, %xmm1
	leal	(%rcx,%r12), %r12d
	punpcklqdq	%xmm12, %xmm2           # xmm2 = xmm2[0],xmm12[0]
	punpckldq	%xmm0, %xmm8            # xmm8 = xmm8[0],xmm0[0],xmm8[1],xmm0[1]
	psrad	$5, %xmm10
	psrad	$5, %xmm2
	movdqa	%xmm2, %xmm14
	psrad	$5, %xmm4
.Ltmp165:
	.loc	5 197 13 is_stmt 1              # x264_src/common/common.h:197:13
	movdqa	%xmm4, %xmm0
	movdqa	%xmm7, %xmm15
	pxor	%xmm7, %xmm0
.Ltmp166:
	.loc	0 141 42                        # x264_src/common/predict.c:141:42
	movd	%r12d, %xmm2
.Ltmp167:
	.loc	5 197 13                        # x264_src/common/common.h:197:13
	movdqa	%xmm5, %xmm9
	pcmpgtd	%xmm0, %xmm9
	movdqa	%xmm10, %xmm0
.Ltmp168:
	.loc	0 141 42                        # x264_src/common/predict.c:141:42
	punpckldq	%xmm2, %xmm1            # xmm1 = xmm1[0],xmm2[0],xmm1[1],xmm2[1]
.Ltmp169:
	.loc	5 197 13                        # x264_src/common/common.h:197:13
	pxor	%xmm7, %xmm0
	movdqa	%xmm5, %xmm2
	pcmpgtd	%xmm0, %xmm2
.Ltmp170:
	.loc	0 141 42                        # x264_src/common/predict.c:141:42
	punpcklqdq	%xmm1, %xmm8            # xmm8 = xmm8[0],xmm1[0]
.Ltmp171:
	.loc	5 197 13                        # x264_src/common/common.h:197:13
	movdqa	%xmm14, %xmm0
	pxor	%xmm7, %xmm0
	movdqa	%xmm5, %xmm11
	pcmpgtd	%xmm0, %xmm11
	movdqa	%xmm5, %xmm12
	.loc	5 197 12 is_stmt 0              # x264_src/common/common.h:197:12
	movdqa	%xmm4, %xmm0
	pcmpgtd	%xmm6, %xmm0
.Ltmp172:
	.loc	0 141 42 is_stmt 1              # x264_src/common/predict.c:141:42
	psrad	$5, %xmm8
.Ltmp173:
	.loc	5 197 12                        # x264_src/common/common.h:197:12
	movdqa	%xmm10, %xmm1
	pcmpgtd	%xmm6, %xmm1
	movdqa	%xmm14, %xmm3
	.loc	5 197 13 is_stmt 0              # x264_src/common/common.h:197:13
	movdqa	%xmm8, %xmm13
	.loc	5 197 12                        # x264_src/common/common.h:197:12
	pcmpgtd	%xmm6, %xmm3
	pand	%xmm11, %xmm14
	pandn	%xmm3, %xmm11
	movdqa	%xmm8, %xmm3
	pand	%xmm2, %xmm10
	pandn	%xmm1, %xmm2
	por	%xmm10, %xmm2
	por	%xmm14, %xmm11
	pand	%xmm9, %xmm4
	pandn	%xmm0, %xmm9
	por	%xmm4, %xmm9
	.loc	5 197 13                        # x264_src/common/common.h:197:13
	pxor	%xmm7, %xmm13
	movdqa	.LCPI4_2(%rip), %xmm7           # xmm7 = [255,0,0,0,255,0,0,0,255,0,0,0,255,0,0,0]
	.loc	5 197 12                        # x264_src/common/common.h:197:12
	pand	%xmm7, %xmm9
	pand	%xmm7, %xmm2
	packuswb	%xmm2, %xmm9
	pcmpgtd	%xmm6, %xmm3
	pand	%xmm7, %xmm11
.Ltmp174:
	.loc	0 141 42 is_stmt 1              # x264_src/common/predict.c:141:42
	addl	%edx, %r12d
	movd	%r12d, %xmm4
.Ltmp175:
	.loc	5 197 13                        # x264_src/common/common.h:197:13
	pcmpgtd	%xmm13, %xmm12
.Ltmp176:
	.loc	0 141 42                        # x264_src/common/predict.c:141:42
	addl	%ecx, %r12d
	movd	%r12d, %xmm0
	leal	(%rcx,%r12), %r12d
.Ltmp177:
	.loc	5 197 12                        # x264_src/common/common.h:197:12
	pand	%xmm12, %xmm8
.Ltmp178:
	.loc	0 141 42                        # x264_src/common/predict.c:141:42
	movd	%r12d, %xmm1
	leal	(%rcx,%r12), %r12d
	movd	%r12d, %xmm2
.Ltmp179:
	.loc	5 197 12                        # x264_src/common/common.h:197:12
	pandn	%xmm3, %xmm12
.Ltmp180:
	.loc	0 141 42                        # x264_src/common/predict.c:141:42
	leal	(%rcx,%r12), %r12d
	movd	%r12d, %xmm5
	leal	(%rcx,%r12), %r12d
.Ltmp181:
	.loc	5 197 12                        # x264_src/common/common.h:197:12
	por	%xmm8, %xmm12
.Ltmp182:
	.loc	0 141 42                        # x264_src/common/predict.c:141:42
	movd	%r12d, %xmm3
	leal	(%rcx,%r12), %r12d
	movd	%r12d, %xmm8
.Ltmp183:
	.loc	5 197 12                        # x264_src/common/common.h:197:12
	pand	%xmm7, %xmm12
.Ltmp184:
	.loc	0 141 42                        # x264_src/common/predict.c:141:42
	leal	(%rcx,%r12), %r12d
	movd	%r12d, %xmm13
	leal	(%r14,%r12), %r12d
.Ltmp185:
	.loc	5 197 12                        # x264_src/common/common.h:197:12
	packuswb	%xmm12, %xmm11
.Ltmp186:
	.loc	0 141 42                        # x264_src/common/predict.c:141:42
	movd	%r12d, %xmm12
	leal	(%rcx,%r12), %r12d
	movd	%r12d, %xmm14
.Ltmp187:
	.loc	5 197 12                        # x264_src/common/common.h:197:12
	packuswb	%xmm11, %xmm9
.Ltmp188:
	.loc	0 141 42                        # x264_src/common/predict.c:141:42
	leal	(%rcx,%r12), %r12d
	movd	%r12d, %xmm11
	leal	(%rcx,%r12), %r12d
	.loc	0 141 20 is_stmt 0              # x264_src/common/predict.c:141:20
	movdqu	%xmm9, 32(%rdi,%r15)
	.loc	0 141 42                        # x264_src/common/predict.c:141:42
	punpckldq	%xmm0, %xmm4            # xmm4 = xmm4[0],xmm0[0],xmm4[1],xmm0[1]
	punpckldq	%xmm2, %xmm1            # xmm1 = xmm1[0],xmm2[0],xmm1[1],xmm2[1]
	movd	%r12d, %xmm10
	leal	(%rcx,%r12), %r12d
	punpcklqdq	%xmm1, %xmm4            # xmm4 = xmm4[0],xmm1[0]
	punpckldq	%xmm3, %xmm5            # xmm5 = xmm5[0],xmm3[0],xmm5[1],xmm3[1]
	movd	%r12d, %xmm0
	leal	(%rcx,%r12), %r12d
	punpckldq	%xmm13, %xmm8           # xmm8 = xmm8[0],xmm13[0],xmm8[1],xmm13[1]
	punpcklqdq	%xmm8, %xmm5            # xmm5 = xmm5[0],xmm8[0]
	movd	%r12d, %xmm1
	leal	(%rcx,%r12), %r12d
	movdqa	-48(%rsp), %xmm13               # 16-byte Reload
	punpckldq	%xmm12, %xmm13          # xmm13 = xmm13[0],xmm12[0],xmm13[1],xmm12[1]
	punpckldq	%xmm11, %xmm14          # xmm14 = xmm14[0],xmm11[0],xmm14[1],xmm11[1]
	punpcklqdq	%xmm14, %xmm13          # xmm13 = xmm13[0],xmm14[0]
	punpckldq	%xmm0, %xmm10           # xmm10 = xmm10[0],xmm0[0],xmm10[1],xmm0[1]
	psrad	$5, %xmm5
	psrad	$5, %xmm4
.Ltmp189:
	.loc	5 197 13 is_stmt 1              # x264_src/common/common.h:197:13
	movdqa	%xmm4, %xmm0
.Ltmp190:
	.loc	0 141 42                        # x264_src/common/predict.c:141:42
	psrad	$5, %xmm13
.Ltmp191:
	.loc	5 197 13                        # x264_src/common/common.h:197:13
	pxor	%xmm15, %xmm0
	movdqa	.LCPI4_1(%rip), %xmm11          # xmm11 = [2147483904,2147483904,2147483904,2147483904]
	movdqa	%xmm11, %xmm8
	pcmpgtd	%xmm0, %xmm8
.Ltmp192:
	.loc	0 141 42                        # x264_src/common/predict.c:141:42
	movd	%r12d, %xmm0
.Ltmp193:
	.loc	5 197 13                        # x264_src/common/common.h:197:13
	movdqa	%xmm5, %xmm2
	pxor	%xmm15, %xmm2
	movdqa	%xmm11, %xmm3
.Ltmp194:
	.loc	0 141 42                        # x264_src/common/predict.c:141:42
	punpckldq	%xmm0, %xmm1            # xmm1 = xmm1[0],xmm0[0],xmm1[1],xmm0[1]
.Ltmp195:
	.loc	5 197 13                        # x264_src/common/common.h:197:13
	pcmpgtd	%xmm2, %xmm3
	movdqa	%xmm13, %xmm0
	pxor	%xmm15, %xmm0
.Ltmp196:
	.loc	0 141 42                        # x264_src/common/predict.c:141:42
	punpcklqdq	%xmm1, %xmm10           # xmm10 = xmm10[0],xmm1[0]
.Ltmp197:
	.loc	5 197 13                        # x264_src/common/common.h:197:13
	movdqa	%xmm11, %xmm9
	pcmpgtd	%xmm0, %xmm9
.Ltmp198:
	.loc	0 141 42                        # x264_src/common/predict.c:141:42
	psrad	$5, %xmm10
.Ltmp199:
	.loc	5 197 12                        # x264_src/common/common.h:197:12
	movdqa	%xmm4, %xmm0
	pcmpgtd	%xmm6, %xmm0
	movdqa	%xmm5, %xmm1
	.loc	5 197 13 is_stmt 0              # x264_src/common/common.h:197:13
	movdqa	%xmm10, %xmm2
	.loc	5 197 12                        # x264_src/common/common.h:197:12
	pcmpgtd	%xmm6, %xmm1
	movdqa	%xmm13, %xmm12
	pcmpgtd	%xmm6, %xmm12
	movdqa	%xmm10, %xmm14
	pand	%xmm9, %xmm13
	pandn	%xmm12, %xmm9
	pand	%xmm3, %xmm5
	por	%xmm13, %xmm9
	pandn	%xmm1, %xmm3
	por	%xmm5, %xmm3
	pand	%xmm8, %xmm4
	.loc	5 197 13                        # x264_src/common/common.h:197:13
	pxor	%xmm15, %xmm2
	.loc	5 197 12                        # x264_src/common/common.h:197:12
	pandn	%xmm0, %xmm8
	por	%xmm4, %xmm8
	movdqa	.LCPI4_2(%rip), %xmm15          # xmm15 = [255,0,0,0,255,0,0,0,255,0,0,0,255,0,0,0]
	pand	%xmm15, %xmm8
	pcmpgtd	%xmm6, %xmm14
	pand	%xmm15, %xmm3
	packuswb	%xmm3, %xmm8
.Ltmp200:
	.loc	0 141 42 is_stmt 1              # x264_src/common/predict.c:141:42
	addl	%edx, %r12d
.Ltmp201:
	.loc	5 197 12                        # x264_src/common/common.h:197:12
	pand	%xmm15, %xmm9
.Ltmp202:
	.loc	0 141 42                        # x264_src/common/predict.c:141:42
	movd	%r12d, %xmm4
	addl	%ecx, %r12d
	movd	%r12d, %xmm13
.Ltmp203:
	.loc	5 197 13                        # x264_src/common/common.h:197:13
	pcmpgtd	%xmm2, %xmm11
.Ltmp204:
	.loc	0 141 42                        # x264_src/common/predict.c:141:42
	leal	(%rcx,%r12), %r12d
	movd	%r12d, %xmm12
	leal	(%rcx,%r12), %r12d
.Ltmp205:
	.loc	5 197 12                        # x264_src/common/common.h:197:12
	pand	%xmm11, %xmm10
.Ltmp206:
	.loc	0 141 42                        # x264_src/common/predict.c:141:42
	movd	%r12d, %xmm7
	leal	(%rcx,%r12), %r12d
	movd	%r12d, %xmm5
.Ltmp207:
	.loc	5 197 12                        # x264_src/common/common.h:197:12
	pandn	%xmm14, %xmm11
.Ltmp208:
	.loc	0 141 42                        # x264_src/common/predict.c:141:42
	leal	(%rcx,%r12), %r12d
	movd	%r12d, %xmm14
	leal	(%rcx,%r12), %r12d
.Ltmp209:
	.loc	5 197 12                        # x264_src/common/common.h:197:12
	por	%xmm10, %xmm11
.Ltmp210:
	.loc	0 141 42                        # x264_src/common/predict.c:141:42
	movd	%r12d, %xmm10
	leal	(%rcx,%r12), %r12d
	movd	%r12d, %xmm1
.Ltmp211:
	.loc	5 197 12                        # x264_src/common/common.h:197:12
	pand	%xmm15, %xmm11
.Ltmp212:
	.loc	0 141 42                        # x264_src/common/predict.c:141:42
	leal	(%r14,%r12), %r12d
	movd	%r12d, %xmm2
	leal	(%rcx,%r12), %r12d
.Ltmp213:
	.loc	5 197 12                        # x264_src/common/common.h:197:12
	packuswb	%xmm11, %xmm9
.Ltmp214:
	.loc	0 141 42                        # x264_src/common/predict.c:141:42
	movd	%r12d, %xmm3
	leal	(%rcx,%r12), %r12d
	movd	%r12d, %xmm15
	leal	(%rcx,%r12), %r12d
	movd	%r12d, %xmm6
	leal	(%rcx,%r12), %r12d
	movd	%r12d, %xmm0
	leal	(%rcx,%r12), %r12d
	punpckldq	%xmm13, %xmm4           # xmm4 = xmm4[0],xmm13[0],xmm4[1],xmm13[1]
	punpckldq	%xmm7, %xmm12           # xmm12 = xmm12[0],xmm7[0],xmm12[1],xmm7[1]
	movd	%r12d, %xmm11
	leal	(%rcx,%r12), %ebp
	movd	%ebp, %xmm7
	punpcklqdq	%xmm12, %xmm4           # xmm4 = xmm4[0],xmm12[0]
	punpckldq	%xmm14, %xmm5           # xmm5 = xmm5[0],xmm14[0],xmm5[1],xmm14[1]
.Ltmp215:
	.loc	5 197 12                        # x264_src/common/common.h:197:12
	packuswb	%xmm9, %xmm8
.Ltmp216:
	.loc	0 141 42                        # x264_src/common/predict.c:141:42
	punpckldq	%xmm1, %xmm10           # xmm10 = xmm10[0],xmm1[0],xmm10[1],xmm1[1]
	punpcklqdq	%xmm10, %xmm5           # xmm5 = xmm5[0],xmm10[0]
	movdqa	-16(%rsp), %xmm13               # 16-byte Reload
	punpckldq	%xmm2, %xmm13           # xmm13 = xmm13[0],xmm2[0],xmm13[1],xmm2[1]
	.loc	0 141 20 is_stmt 0              # x264_src/common/predict.c:141:20
	movdqu	%xmm8, 64(%rdi,%r15)
	.loc	0 141 42                        # x264_src/common/predict.c:141:42
	punpckldq	%xmm15, %xmm3           # xmm3 = xmm3[0],xmm15[0],xmm3[1],xmm15[1]
	punpcklqdq	%xmm3, %xmm13           # xmm13 = xmm13[0],xmm3[0]
	psrad	$5, %xmm5
	punpckldq	%xmm0, %xmm6            # xmm6 = xmm6[0],xmm0[0],xmm6[1],xmm0[1]
	psrad	$5, %xmm4
.Ltmp217:
	.loc	5 197 13 is_stmt 1              # x264_src/common/common.h:197:13
	movdqa	%xmm4, %xmm0
	movdqa	.LCPI4_0(%rip), %xmm1           # xmm1 = [2147483648,2147483648,2147483648,2147483648]
	pxor	%xmm1, %xmm0
.Ltmp218:
	.loc	0 141 42                        # x264_src/common/predict.c:141:42
	psrad	$5, %xmm13
	movdqa	.LCPI4_1(%rip), %xmm3           # xmm3 = [2147483904,2147483904,2147483904,2147483904]
.Ltmp219:
	.loc	5 197 13                        # x264_src/common/common.h:197:13
	movdqa	%xmm3, %xmm8
	pcmpgtd	%xmm0, %xmm8
	movdqa	%xmm5, %xmm0
.Ltmp220:
	.loc	0 141 42                        # x264_src/common/predict.c:141:42
	punpckldq	%xmm7, %xmm11           # xmm11 = xmm11[0],xmm7[0],xmm11[1],xmm7[1]
.Ltmp221:
	.loc	5 197 13                        # x264_src/common/common.h:197:13
	pxor	%xmm1, %xmm0
	movdqa	%xmm3, %xmm10
	pcmpgtd	%xmm0, %xmm10
.Ltmp222:
	.loc	0 141 42                        # x264_src/common/predict.c:141:42
	punpcklqdq	%xmm11, %xmm6           # xmm6 = xmm6[0],xmm11[0]
.Ltmp223:
	.loc	5 197 13                        # x264_src/common/common.h:197:13
	movdqa	%xmm13, %xmm0
	pxor	%xmm1, %xmm0
	movdqa	%xmm1, %xmm2
	movdqa	%xmm3, %xmm9
	movdqa	%xmm3, %xmm11
.Ltmp224:
	.loc	0 141 42                        # x264_src/common/predict.c:141:42
	psrad	$5, %xmm6
.Ltmp225:
	.loc	5 197 13                        # x264_src/common/common.h:197:13
	pcmpgtd	%xmm0, %xmm9
	.loc	5 197 12 is_stmt 0              # x264_src/common/common.h:197:12
	movdqa	%xmm4, %xmm12
	.loc	5 197 13                        # x264_src/common/common.h:197:13
	movdqa	%xmm6, %xmm0
	pxor	%xmm3, %xmm3
	.loc	5 197 12                        # x264_src/common/common.h:197:12
	pcmpgtd	%xmm3, %xmm12
	movdqa	%xmm5, %xmm1
	pcmpgtd	%xmm3, %xmm1
	.loc	5 197 13                        # x264_src/common/common.h:197:13
	pxor	%xmm2, %xmm0
	.loc	5 197 12                        # x264_src/common/common.h:197:12
	movdqa	%xmm13, %xmm2
	pcmpgtd	%xmm3, %xmm2
	pxor	%xmm7, %xmm7
	movdqa	%xmm6, %xmm3
	.loc	5 197 13                        # x264_src/common/common.h:197:13
	pcmpgtd	%xmm0, %xmm11
	.loc	5 197 12                        # x264_src/common/common.h:197:12
	pcmpgtd	%xmm7, %xmm3
	pand	%xmm9, %xmm13
	pandn	%xmm2, %xmm9
	pand	%xmm11, %xmm6
	por	%xmm13, %xmm9
	pand	%xmm10, %xmm5
	pandn	%xmm1, %xmm10
	pandn	%xmm3, %xmm11
	por	%xmm5, %xmm10
	pand	%xmm8, %xmm4
	pandn	%xmm12, %xmm8
	por	%xmm6, %xmm11
	por	%xmm4, %xmm8
	movdqa	.LCPI4_2(%rip), %xmm0           # xmm0 = [255,0,0,0,255,0,0,0,255,0,0,0,255,0,0,0]
	pand	%xmm0, %xmm8
	pand	%xmm0, %xmm10
	packuswb	%xmm10, %xmm8
	pand	%xmm0, %xmm9
	pand	%xmm0, %xmm11
	packuswb	%xmm11, %xmm9
	packuswb	%xmm9, %xmm8
.Ltmp226:
	.loc	0 141 20 is_stmt 1              # x264_src/common/predict.c:141:20
	movdqu	%xmm8, 96(%rdi,%r15)
	addl	%r9d, %r8d
	addl	%r9d, %r10d
	subq	$-128, %r15
	addl	%r9d, %r11d
	addl	%r9d, %esi
	addl	%r9d, %ebx
	cmpq	$512, %r15                      # imm = 0x200
	jne	.LBB4_1
.Ltmp227:
# %bb.2:                                # %for.cond.cleanup44
	#DEBUG_VALUE: predict_16x16_p:src <- $rdi
	#DEBUG_VALUE: predict_16x16_p:a <- $eax
	#DEBUG_VALUE: predict_16x16_p:b <- $ecx
	.loc	0 147 1 epilogue_begin          # x264_src/common/predict.c:147:1
	popq	%rbx
	.cfi_def_cfa_offset 40
	popq	%r12
	.cfi_def_cfa_offset 32
	popq	%r14
	.cfi_def_cfa_offset 24
	popq	%r15
	.cfi_def_cfa_offset 16
	popq	%rbp
	.cfi_def_cfa_offset 8
	retq
.Ltmp228:
.Lfunc_end4:
	.size	predict_16x16_p, .Lfunc_end4-predict_16x16_p
	.cfi_endproc
                                        # -- End function
	.p2align	4, 0x90                         # -- Begin function predict_16x16_dc_left
	.type	predict_16x16_dc_left,@function
predict_16x16_dc_left:                  # @predict_16x16_dc_left
.Lfunc_begin5:
	.cfi_startproc
# %bb.0:                                # %entry
	#DEBUG_VALUE: predict_16x16_dc_left:src <- $rdi
	#DEBUG_VALUE: predict_16x16_dc_left:dc <- 0
	#DEBUG_VALUE: i <- 0
	#DEBUG_VALUE: i <- 0
	.loc	0 72 15 prologue_end            # x264_src/common/predict.c:72:15
	movzbl	-1(%rdi), %eax
.Ltmp229:
	#DEBUG_VALUE: i <- 1
	#DEBUG_VALUE: predict_16x16_dc_left:dc <- $eax
	movzbl	31(%rdi), %ecx
	.loc	0 72 12 is_stmt 0               # x264_src/common/predict.c:72:12
	addl	%eax, %ecx
.Ltmp230:
	#DEBUG_VALUE: predict_16x16_dc_left:dc <- $ecx
	#DEBUG_VALUE: i <- 2
	.loc	0 72 15                         # x264_src/common/predict.c:72:15
	movzbl	63(%rdi), %eax
.Ltmp231:
	#DEBUG_VALUE: predict_16x16_dc_left:dc <- undef
	#DEBUG_VALUE: i <- 3
	movzbl	95(%rdi), %edx
	.loc	0 72 12                         # x264_src/common/predict.c:72:12
	addl	%eax, %edx
	addl	%ecx, %edx
.Ltmp232:
	#DEBUG_VALUE: predict_16x16_dc_left:dc <- $edx
	#DEBUG_VALUE: i <- 4
	.loc	0 72 15                         # x264_src/common/predict.c:72:15
	movzbl	127(%rdi), %eax
.Ltmp233:
	#DEBUG_VALUE: predict_16x16_dc_left:dc <- undef
	#DEBUG_VALUE: i <- 5
	movzbl	159(%rdi), %ecx
	.loc	0 72 12                         # x264_src/common/predict.c:72:12
	addl	%eax, %ecx
	#DEBUG_VALUE: predict_16x16_dc_left:dc <- undef
.Ltmp234:
	#DEBUG_VALUE: i <- 6
	.loc	0 72 15                         # x264_src/common/predict.c:72:15
	movzbl	191(%rdi), %eax
	.loc	0 72 12                         # x264_src/common/predict.c:72:12
	addl	%ecx, %eax
	addl	%edx, %eax
.Ltmp235:
	#DEBUG_VALUE: predict_16x16_dc_left:dc <- $eax
	#DEBUG_VALUE: i <- 7
	.loc	0 72 15                         # x264_src/common/predict.c:72:15
	movzbl	223(%rdi), %ecx
.Ltmp236:
	#DEBUG_VALUE: predict_16x16_dc_left:dc <- undef
	#DEBUG_VALUE: i <- 8
	movzbl	255(%rdi), %edx
	.loc	0 72 12                         # x264_src/common/predict.c:72:12
	addl	%ecx, %edx
	#DEBUG_VALUE: predict_16x16_dc_left:dc <- undef
.Ltmp237:
	#DEBUG_VALUE: i <- 9
	.loc	0 72 15                         # x264_src/common/predict.c:72:15
	movzbl	287(%rdi), %ecx
	.loc	0 72 12                         # x264_src/common/predict.c:72:12
	addl	%edx, %ecx
	#DEBUG_VALUE: predict_16x16_dc_left:dc <- undef
.Ltmp238:
	#DEBUG_VALUE: i <- 10
	.loc	0 72 15                         # x264_src/common/predict.c:72:15
	movzbl	319(%rdi), %edx
	.loc	0 72 12                         # x264_src/common/predict.c:72:12
	addl	%ecx, %edx
	addl	%eax, %edx
.Ltmp239:
	#DEBUG_VALUE: predict_16x16_dc_left:dc <- $edx
	#DEBUG_VALUE: i <- 11
	.loc	0 72 15                         # x264_src/common/predict.c:72:15
	movzbl	351(%rdi), %eax
.Ltmp240:
	#DEBUG_VALUE: predict_16x16_dc_left:dc <- undef
	#DEBUG_VALUE: i <- 12
	movzbl	383(%rdi), %ecx
	.loc	0 72 12                         # x264_src/common/predict.c:72:12
	addl	%eax, %ecx
	#DEBUG_VALUE: predict_16x16_dc_left:dc <- undef
.Ltmp241:
	#DEBUG_VALUE: i <- 13
	.loc	0 72 15                         # x264_src/common/predict.c:72:15
	movzbl	415(%rdi), %eax
	.loc	0 72 12                         # x264_src/common/predict.c:72:12
	addl	%ecx, %eax
	#DEBUG_VALUE: predict_16x16_dc_left:dc <- undef
.Ltmp242:
	#DEBUG_VALUE: i <- 14
	.loc	0 72 15                         # x264_src/common/predict.c:72:15
	movzbl	447(%rdi), %ecx
	.loc	0 72 12                         # x264_src/common/predict.c:72:12
	addl	%eax, %ecx
	addl	%edx, %ecx
.Ltmp243:
	#DEBUG_VALUE: predict_16x16_dc_left:dc <- $ecx
	#DEBUG_VALUE: i <- 15
	.loc	0 72 15                         # x264_src/common/predict.c:72:15
	movzbl	479(%rdi), %eax
.Ltmp244:
	#DEBUG_VALUE: i <- 16
	#DEBUG_VALUE: predict_16x16_dc_left:dc <- [DW_OP_LLVM_arg 0, DW_OP_LLVM_arg 1, DW_OP_plus, DW_OP_stack_value] $ecx, $eax
	.loc	0 73 16 is_stmt 1               # x264_src/common/predict.c:73:16
	addl	%ecx, %eax
.Ltmp245:
	addl	$8, %eax
	.loc	0 73 22 is_stmt 0               # x264_src/common/predict.c:73:22
	shrl	$4, %eax
	.loc	0 73 28                         # x264_src/common/predict.c:73:28
	imull	$16843009, %eax, %eax           # imm = 0x1010101
.Ltmp246:
	#DEBUG_VALUE: predict_16x16_dc_left:dc <- $eax
	#DEBUG_VALUE: i <- 0
	.loc	0 75 5 is_stmt 1                # x264_src/common/predict.c:75:5
	movd	%eax, %xmm0
	pshufd	$0, %xmm0, %xmm0                # xmm0 = xmm0[0,0,0,0]
	movdqu	%xmm0, (%rdi)
.Ltmp247:
	#DEBUG_VALUE: i <- 1
	#DEBUG_VALUE: predict_16x16_dc_left:src <- [DW_OP_plus_uconst 32, DW_OP_stack_value] $rdi
	movdqu	%xmm0, 32(%rdi)
.Ltmp248:
	#DEBUG_VALUE: i <- 2
	#DEBUG_VALUE: predict_16x16_dc_left:src <- [DW_OP_plus_uconst 64, DW_OP_stack_value] $rdi
	movdqu	%xmm0, 64(%rdi)
.Ltmp249:
	#DEBUG_VALUE: i <- 3
	#DEBUG_VALUE: predict_16x16_dc_left:src <- [DW_OP_plus_uconst 96, DW_OP_stack_value] $rdi
	movdqu	%xmm0, 96(%rdi)
.Ltmp250:
	#DEBUG_VALUE: i <- 4
	#DEBUG_VALUE: predict_16x16_dc_left:src <- [DW_OP_plus_uconst 128, DW_OP_stack_value] $rdi
	movdqu	%xmm0, 128(%rdi)
.Ltmp251:
	#DEBUG_VALUE: i <- 5
	#DEBUG_VALUE: predict_16x16_dc_left:src <- [DW_OP_plus_uconst 160, DW_OP_stack_value] $rdi
	movdqu	%xmm0, 160(%rdi)
.Ltmp252:
	#DEBUG_VALUE: i <- 6
	#DEBUG_VALUE: predict_16x16_dc_left:src <- [DW_OP_plus_uconst 192, DW_OP_stack_value] $rdi
	movdqu	%xmm0, 192(%rdi)
.Ltmp253:
	#DEBUG_VALUE: i <- 7
	#DEBUG_VALUE: predict_16x16_dc_left:src <- [DW_OP_plus_uconst 224, DW_OP_stack_value] $rdi
	movdqu	%xmm0, 224(%rdi)
.Ltmp254:
	#DEBUG_VALUE: i <- 8
	#DEBUG_VALUE: predict_16x16_dc_left:src <- [DW_OP_plus_uconst 256, DW_OP_stack_value] $rdi
	movdqu	%xmm0, 256(%rdi)
.Ltmp255:
	#DEBUG_VALUE: i <- 9
	#DEBUG_VALUE: predict_16x16_dc_left:src <- [DW_OP_plus_uconst 288, DW_OP_stack_value] $rdi
	movdqu	%xmm0, 288(%rdi)
.Ltmp256:
	#DEBUG_VALUE: i <- 10
	#DEBUG_VALUE: predict_16x16_dc_left:src <- [DW_OP_plus_uconst 320, DW_OP_stack_value] $rdi
	movdqu	%xmm0, 320(%rdi)
.Ltmp257:
	#DEBUG_VALUE: i <- 11
	#DEBUG_VALUE: predict_16x16_dc_left:src <- [DW_OP_plus_uconst 352, DW_OP_stack_value] $rdi
	movdqu	%xmm0, 352(%rdi)
.Ltmp258:
	#DEBUG_VALUE: i <- 12
	#DEBUG_VALUE: predict_16x16_dc_left:src <- [DW_OP_plus_uconst 384, DW_OP_stack_value] $rdi
	movdqu	%xmm0, 384(%rdi)
.Ltmp259:
	#DEBUG_VALUE: i <- 13
	#DEBUG_VALUE: predict_16x16_dc_left:src <- [DW_OP_plus_uconst 416, DW_OP_stack_value] $rdi
	movdqu	%xmm0, 416(%rdi)
.Ltmp260:
	#DEBUG_VALUE: i <- 14
	#DEBUG_VALUE: predict_16x16_dc_left:src <- [DW_OP_plus_uconst 448, DW_OP_stack_value] $rdi
	movdqu	%xmm0, 448(%rdi)
.Ltmp261:
	#DEBUG_VALUE: i <- 15
	#DEBUG_VALUE: predict_16x16_dc_left:src <- [DW_OP_plus_uconst 480, DW_OP_stack_value] $rdi
	movdqu	%xmm0, 480(%rdi)
.Ltmp262:
	#DEBUG_VALUE: i <- 16
	#DEBUG_VALUE: predict_16x16_dc_left:src <- [DW_OP_plus_uconst 480, DW_OP_plus_uconst 32, DW_OP_stack_value] $rdi
	.loc	0 76 1                          # x264_src/common/predict.c:76:1
	retq
.Ltmp263:
.Lfunc_end5:
	.size	predict_16x16_dc_left, .Lfunc_end5-predict_16x16_dc_left
	.cfi_endproc
                                        # -- End function
	.p2align	4, 0x90                         # -- Begin function predict_16x16_dc_top
	.type	predict_16x16_dc_top,@function
predict_16x16_dc_top:                   # @predict_16x16_dc_top
.Lfunc_begin6:
	.cfi_startproc
# %bb.0:                                # %entry
	#DEBUG_VALUE: predict_16x16_dc_top:src <- $rdi
	#DEBUG_VALUE: i <- 0
	#DEBUG_VALUE: predict_16x16_dc_top:dc <- 0
	#DEBUG_VALUE: predict_16x16_dc_top:dc <- undef
	#DEBUG_VALUE: i <- 15
	.loc	0 82 15 prologue_end            # x264_src/common/predict.c:82:15
	movdqu	-32(%rdi), %xmm0
.Ltmp264:
	#DEBUG_VALUE: i <- 16
	.loc	0 83 16                         # x264_src/common/predict.c:83:16
	pxor	%xmm1, %xmm1
	psadbw	%xmm0, %xmm1
	pshufd	$238, %xmm1, %xmm0              # xmm0 = xmm1[2,3,2,3]
	paddq	%xmm1, %xmm0
	movd	%xmm0, %eax
	addl	$8, %eax
	.loc	0 83 22 is_stmt 0               # x264_src/common/predict.c:83:22
	shrl	$4, %eax
	.loc	0 83 28                         # x264_src/common/predict.c:83:28
	imull	$16843009, %eax, %eax           # imm = 0x1010101
.Ltmp265:
	#DEBUG_VALUE: predict_16x16_dc_top:dc <- $eax
	#DEBUG_VALUE: i <- 0
	.loc	0 85 5 is_stmt 1                # x264_src/common/predict.c:85:5
	movd	%eax, %xmm0
	pshufd	$0, %xmm0, %xmm0                # xmm0 = xmm0[0,0,0,0]
	movdqu	%xmm0, (%rdi)
.Ltmp266:
	#DEBUG_VALUE: i <- 1
	#DEBUG_VALUE: predict_16x16_dc_top:src <- [DW_OP_plus_uconst 32, DW_OP_stack_value] $rdi
	movdqu	%xmm0, 32(%rdi)
.Ltmp267:
	#DEBUG_VALUE: i <- 2
	#DEBUG_VALUE: predict_16x16_dc_top:src <- [DW_OP_plus_uconst 64, DW_OP_stack_value] $rdi
	movdqu	%xmm0, 64(%rdi)
.Ltmp268:
	#DEBUG_VALUE: i <- 3
	#DEBUG_VALUE: predict_16x16_dc_top:src <- [DW_OP_plus_uconst 96, DW_OP_stack_value] $rdi
	movdqu	%xmm0, 96(%rdi)
.Ltmp269:
	#DEBUG_VALUE: i <- 4
	#DEBUG_VALUE: predict_16x16_dc_top:src <- [DW_OP_plus_uconst 128, DW_OP_stack_value] $rdi
	movdqu	%xmm0, 128(%rdi)
.Ltmp270:
	#DEBUG_VALUE: i <- 5
	#DEBUG_VALUE: predict_16x16_dc_top:src <- [DW_OP_plus_uconst 160, DW_OP_stack_value] $rdi
	movdqu	%xmm0, 160(%rdi)
.Ltmp271:
	#DEBUG_VALUE: i <- 6
	#DEBUG_VALUE: predict_16x16_dc_top:src <- [DW_OP_plus_uconst 192, DW_OP_stack_value] $rdi
	movdqu	%xmm0, 192(%rdi)
.Ltmp272:
	#DEBUG_VALUE: i <- 7
	#DEBUG_VALUE: predict_16x16_dc_top:src <- [DW_OP_plus_uconst 224, DW_OP_stack_value] $rdi
	movdqu	%xmm0, 224(%rdi)
.Ltmp273:
	#DEBUG_VALUE: i <- 8
	#DEBUG_VALUE: predict_16x16_dc_top:src <- [DW_OP_plus_uconst 256, DW_OP_stack_value] $rdi
	movdqu	%xmm0, 256(%rdi)
.Ltmp274:
	#DEBUG_VALUE: i <- 9
	#DEBUG_VALUE: predict_16x16_dc_top:src <- [DW_OP_plus_uconst 288, DW_OP_stack_value] $rdi
	movdqu	%xmm0, 288(%rdi)
.Ltmp275:
	#DEBUG_VALUE: i <- 10
	#DEBUG_VALUE: predict_16x16_dc_top:src <- [DW_OP_plus_uconst 320, DW_OP_stack_value] $rdi
	movdqu	%xmm0, 320(%rdi)
.Ltmp276:
	#DEBUG_VALUE: i <- 11
	#DEBUG_VALUE: predict_16x16_dc_top:src <- [DW_OP_plus_uconst 352, DW_OP_stack_value] $rdi
	movdqu	%xmm0, 352(%rdi)
.Ltmp277:
	#DEBUG_VALUE: i <- 12
	#DEBUG_VALUE: predict_16x16_dc_top:src <- [DW_OP_plus_uconst 384, DW_OP_stack_value] $rdi
	movdqu	%xmm0, 384(%rdi)
.Ltmp278:
	#DEBUG_VALUE: i <- 13
	#DEBUG_VALUE: predict_16x16_dc_top:src <- [DW_OP_plus_uconst 416, DW_OP_stack_value] $rdi
	movdqu	%xmm0, 416(%rdi)
.Ltmp279:
	#DEBUG_VALUE: i <- 14
	#DEBUG_VALUE: predict_16x16_dc_top:src <- [DW_OP_plus_uconst 448, DW_OP_stack_value] $rdi
	movdqu	%xmm0, 448(%rdi)
.Ltmp280:
	#DEBUG_VALUE: i <- 15
	#DEBUG_VALUE: predict_16x16_dc_top:src <- [DW_OP_plus_uconst 480, DW_OP_stack_value] $rdi
	movdqu	%xmm0, 480(%rdi)
.Ltmp281:
	#DEBUG_VALUE: i <- 16
	#DEBUG_VALUE: predict_16x16_dc_top:src <- [DW_OP_plus_uconst 480, DW_OP_plus_uconst 32, DW_OP_stack_value] $rdi
	.loc	0 86 1                          # x264_src/common/predict.c:86:1
	retq
.Ltmp282:
.Lfunc_end6:
	.size	predict_16x16_dc_top, .Lfunc_end6-predict_16x16_dc_top
	.cfi_endproc
                                        # -- End function
	.section	.rodata.cst16,"aM",@progbits,16
	.p2align	4, 0x0                          # -- Begin function predict_16x16_dc_128
.LCPI7_0:
	.zero	16,128
	.text
	.p2align	4, 0x90
	.type	predict_16x16_dc_128,@function
predict_16x16_dc_128:                   # @predict_16x16_dc_128
.Lfunc_begin7:
	.cfi_startproc
# %bb.0:                                # %entry
	#DEBUG_VALUE: predict_16x16_dc_128:src <- $rdi
	#DEBUG_VALUE: i <- 0
	#DEBUG_VALUE: i <- 1
	#DEBUG_VALUE: predict_16x16_dc_128:src <- [DW_OP_plus_uconst 32, DW_OP_stack_value] $rdi
	#DEBUG_VALUE: i <- 2
	#DEBUG_VALUE: predict_16x16_dc_128:src <- [DW_OP_plus_uconst 64, DW_OP_stack_value] $rdi
	#DEBUG_VALUE: i <- 3
	#DEBUG_VALUE: predict_16x16_dc_128:src <- [DW_OP_plus_uconst 96, DW_OP_stack_value] $rdi
	#DEBUG_VALUE: i <- 4
	#DEBUG_VALUE: predict_16x16_dc_128:src <- [DW_OP_plus_uconst 128, DW_OP_stack_value] $rdi
	#DEBUG_VALUE: i <- 5
	#DEBUG_VALUE: predict_16x16_dc_128:src <- [DW_OP_plus_uconst 160, DW_OP_stack_value] $rdi
	#DEBUG_VALUE: i <- 6
	#DEBUG_VALUE: predict_16x16_dc_128:src <- [DW_OP_plus_uconst 192, DW_OP_stack_value] $rdi
	#DEBUG_VALUE: i <- 7
	#DEBUG_VALUE: predict_16x16_dc_128:src <- [DW_OP_plus_uconst 224, DW_OP_stack_value] $rdi
	#DEBUG_VALUE: i <- 8
	#DEBUG_VALUE: predict_16x16_dc_128:src <- [DW_OP_plus_uconst 256, DW_OP_stack_value] $rdi
	#DEBUG_VALUE: i <- 9
	#DEBUG_VALUE: predict_16x16_dc_128:src <- [DW_OP_plus_uconst 288, DW_OP_stack_value] $rdi
	#DEBUG_VALUE: i <- 10
	#DEBUG_VALUE: predict_16x16_dc_128:src <- [DW_OP_plus_uconst 320, DW_OP_stack_value] $rdi
	#DEBUG_VALUE: i <- 11
	#DEBUG_VALUE: predict_16x16_dc_128:src <- [DW_OP_plus_uconst 352, DW_OP_stack_value] $rdi
	#DEBUG_VALUE: i <- 12
	#DEBUG_VALUE: predict_16x16_dc_128:src <- [DW_OP_plus_uconst 384, DW_OP_stack_value] $rdi
	#DEBUG_VALUE: i <- 13
	#DEBUG_VALUE: predict_16x16_dc_128:src <- [DW_OP_plus_uconst 416, DW_OP_stack_value] $rdi
	#DEBUG_VALUE: i <- 14
	#DEBUG_VALUE: predict_16x16_dc_128:src <- [DW_OP_plus_uconst 448, DW_OP_stack_value] $rdi
	#DEBUG_VALUE: i <- 16
	#DEBUG_VALUE: predict_16x16_dc_128:src <- [DW_OP_plus_uconst 480, DW_OP_plus_uconst 32, DW_OP_stack_value] $rdi
	.loc	0 89 5 prologue_end             # x264_src/common/predict.c:89:5
	movaps	.LCPI7_0(%rip), %xmm0           # xmm0 = [128,128,128,128,128,128,128,128,128,128,128,128,128,128,128,128]
	movups	%xmm0, (%rdi)
	movups	%xmm0, 32(%rdi)
	movups	%xmm0, 64(%rdi)
	movups	%xmm0, 96(%rdi)
	movups	%xmm0, 128(%rdi)
	movups	%xmm0, 160(%rdi)
	movups	%xmm0, 192(%rdi)
	movups	%xmm0, 224(%rdi)
	movups	%xmm0, 256(%rdi)
	movups	%xmm0, 288(%rdi)
	movups	%xmm0, 320(%rdi)
	movups	%xmm0, 352(%rdi)
	movups	%xmm0, 384(%rdi)
	movups	%xmm0, 416(%rdi)
	movups	%xmm0, 448(%rdi)
	movups	%xmm0, 480(%rdi)
.Ltmp283:
	.loc	0 90 1                          # x264_src/common/predict.c:90:1
	retq
.Ltmp284:
.Lfunc_end7:
	.size	predict_16x16_dc_128, .Lfunc_end7-predict_16x16_dc_128
	.cfi_endproc
                                        # -- End function
	.globl	x264_predict_8x8c_init          # -- Begin function x264_predict_8x8c_init
	.p2align	4, 0x90
	.type	x264_predict_8x8c_init,@function
x264_predict_8x8c_init:                 # @x264_predict_8x8c_init
.Lfunc_begin8:
	.cfi_startproc
# %bb.0:                                # %entry
	#DEBUG_VALUE: x264_predict_8x8c_init:cpu <- $edi
	#DEBUG_VALUE: x264_predict_8x8c_init:pf <- $rsi
	.loc	0 736 30 prologue_end           # x264_src/common/predict.c:736:30
	movq	$predict_8x8c_v, 16(%rsi)
	.loc	0 737 30                        # x264_src/common/predict.c:737:30
	movq	$predict_8x8c_h, 8(%rsi)
	.loc	0 738 30                        # x264_src/common/predict.c:738:30
	movq	$predict_8x8c_dc, (%rsi)
	.loc	0 739 30                        # x264_src/common/predict.c:739:30
	movq	$predict_8x8c_p, 24(%rsi)
	.loc	0 740 30                        # x264_src/common/predict.c:740:30
	movq	$predict_8x8c_dc_left, 32(%rsi)
	.loc	0 741 30                        # x264_src/common/predict.c:741:30
	movq	$predict_8x8c_dc_top, 40(%rsi)
	.loc	0 742 30                        # x264_src/common/predict.c:742:30
	movq	$predict_8x8c_dc_128, 48(%rsi)
	.loc	0 756 1                         # x264_src/common/predict.c:756:1
	retq
.Ltmp285:
.Lfunc_end8:
	.size	x264_predict_8x8c_init, .Lfunc_end8-x264_predict_8x8c_init
	.cfi_endproc
                                        # -- End function
	.p2align	4, 0x90                         # -- Begin function predict_8x8c_v
	.type	predict_8x8c_v,@function
predict_8x8c_v:                         # @predict_8x8c_v
.Lfunc_begin9:
	.cfi_startproc
# %bb.0:                                # %entry
	#DEBUG_VALUE: predict_8x8c_v:src <- $rdi
	.loc	0 259 19 prologue_end           # x264_src/common/predict.c:259:19
	movl	-32(%rdi), %eax
.Ltmp286:
	#DEBUG_VALUE: predict_8x8c_v:v0 <- $eax
	.loc	0 260 19                        # x264_src/common/predict.c:260:19
	movl	-28(%rdi), %ecx
.Ltmp287:
	#DEBUG_VALUE: predict_8x8c_v:v1 <- $ecx
	#DEBUG_VALUE: i <- 0
	.loc	0 264 22                        # x264_src/common/predict.c:264:22
	movl	%eax, (%rdi)
	.loc	0 265 22                        # x264_src/common/predict.c:265:22
	movl	%ecx, 4(%rdi)
.Ltmp288:
	#DEBUG_VALUE: i <- 1
	#DEBUG_VALUE: predict_8x8c_v:src <- [DW_OP_plus_uconst 32, DW_OP_stack_value] $rdi
	.loc	0 264 22                        # x264_src/common/predict.c:264:22
	movl	%eax, 32(%rdi)
	.loc	0 265 22                        # x264_src/common/predict.c:265:22
	movl	%ecx, 36(%rdi)
.Ltmp289:
	#DEBUG_VALUE: i <- 2
	#DEBUG_VALUE: predict_8x8c_v:src <- [DW_OP_plus_uconst 64, DW_OP_stack_value] $rdi
	.loc	0 264 22                        # x264_src/common/predict.c:264:22
	movl	%eax, 64(%rdi)
	.loc	0 265 22                        # x264_src/common/predict.c:265:22
	movl	%ecx, 68(%rdi)
.Ltmp290:
	#DEBUG_VALUE: i <- 3
	#DEBUG_VALUE: predict_8x8c_v:src <- [DW_OP_plus_uconst 96, DW_OP_stack_value] $rdi
	.loc	0 264 22                        # x264_src/common/predict.c:264:22
	movl	%eax, 96(%rdi)
	.loc	0 265 22                        # x264_src/common/predict.c:265:22
	movl	%ecx, 100(%rdi)
.Ltmp291:
	#DEBUG_VALUE: i <- 4
	#DEBUG_VALUE: predict_8x8c_v:src <- [DW_OP_plus_uconst 128, DW_OP_stack_value] $rdi
	.loc	0 264 22                        # x264_src/common/predict.c:264:22
	movl	%eax, 128(%rdi)
	.loc	0 265 22                        # x264_src/common/predict.c:265:22
	movl	%ecx, 132(%rdi)
.Ltmp292:
	#DEBUG_VALUE: i <- 5
	#DEBUG_VALUE: predict_8x8c_v:src <- [DW_OP_plus_uconst 160, DW_OP_stack_value] $rdi
	.loc	0 264 22                        # x264_src/common/predict.c:264:22
	movl	%eax, 160(%rdi)
	.loc	0 265 22                        # x264_src/common/predict.c:265:22
	movl	%ecx, 164(%rdi)
.Ltmp293:
	#DEBUG_VALUE: i <- 6
	#DEBUG_VALUE: predict_8x8c_v:src <- [DW_OP_plus_uconst 192, DW_OP_stack_value] $rdi
	.loc	0 264 22                        # x264_src/common/predict.c:264:22
	movl	%eax, 192(%rdi)
	.loc	0 265 22                        # x264_src/common/predict.c:265:22
	movl	%ecx, 196(%rdi)
.Ltmp294:
	#DEBUG_VALUE: i <- 7
	#DEBUG_VALUE: predict_8x8c_v:src <- [DW_OP_plus_uconst 224, DW_OP_stack_value] $rdi
	.loc	0 264 22                        # x264_src/common/predict.c:264:22
	movl	%eax, 224(%rdi)
	.loc	0 265 22                        # x264_src/common/predict.c:265:22
	movl	%ecx, 228(%rdi)
.Ltmp295:
	#DEBUG_VALUE: i <- 8
	#DEBUG_VALUE: predict_8x8c_v:src <- [DW_OP_plus_uconst 224, DW_OP_plus_uconst 32, DW_OP_stack_value] $rdi
	.loc	0 268 1                         # x264_src/common/predict.c:268:1
	retq
.Ltmp296:
.Lfunc_end9:
	.size	predict_8x8c_v, .Lfunc_end9-predict_8x8c_v
	.cfi_endproc
                                        # -- End function
	.p2align	4, 0x90                         # -- Begin function predict_8x8c_h
	.type	predict_8x8c_h,@function
predict_8x8c_h:                         # @predict_8x8c_h
.Lfunc_begin10:
	.cfi_startproc
# %bb.0:                                # %entry
	#DEBUG_VALUE: predict_8x8c_h:src <- $rdi
	#DEBUG_VALUE: i <- 0
	.loc	0 251 35 prologue_end           # x264_src/common/predict.c:251:35
	movzbl	-1(%rdi), %eax
	.loc	0 251 33 is_stmt 0              # x264_src/common/predict.c:251:33
	imull	$16843009, %eax, %eax           # imm = 0x1010101
.Ltmp297:
	#DEBUG_VALUE: v <- $eax
	.loc	0 252 22 is_stmt 1              # x264_src/common/predict.c:252:22
	movl	%eax, (%rdi)
	.loc	0 253 22                        # x264_src/common/predict.c:253:22
	movl	%eax, 4(%rdi)
.Ltmp298:
	#DEBUG_VALUE: i <- 1
	#DEBUG_VALUE: predict_8x8c_h:src <- [DW_OP_plus_uconst 32, DW_OP_stack_value] $rdi
	.loc	0 251 35                        # x264_src/common/predict.c:251:35
	movzbl	31(%rdi), %eax
.Ltmp299:
	.loc	0 251 33 is_stmt 0              # x264_src/common/predict.c:251:33
	imull	$16843009, %eax, %eax           # imm = 0x1010101
.Ltmp300:
	#DEBUG_VALUE: v <- $eax
	.loc	0 252 22 is_stmt 1              # x264_src/common/predict.c:252:22
	movl	%eax, 32(%rdi)
	.loc	0 253 22                        # x264_src/common/predict.c:253:22
	movl	%eax, 36(%rdi)
.Ltmp301:
	#DEBUG_VALUE: i <- 2
	#DEBUG_VALUE: predict_8x8c_h:src <- [DW_OP_plus_uconst 64, DW_OP_stack_value] $rdi
	.loc	0 251 35                        # x264_src/common/predict.c:251:35
	movzbl	63(%rdi), %eax
.Ltmp302:
	.loc	0 251 33 is_stmt 0              # x264_src/common/predict.c:251:33
	imull	$16843009, %eax, %eax           # imm = 0x1010101
.Ltmp303:
	#DEBUG_VALUE: v <- $eax
	.loc	0 252 22 is_stmt 1              # x264_src/common/predict.c:252:22
	movl	%eax, 64(%rdi)
	.loc	0 253 22                        # x264_src/common/predict.c:253:22
	movl	%eax, 68(%rdi)
.Ltmp304:
	#DEBUG_VALUE: i <- 3
	#DEBUG_VALUE: predict_8x8c_h:src <- [DW_OP_plus_uconst 96, DW_OP_stack_value] $rdi
	.loc	0 251 35                        # x264_src/common/predict.c:251:35
	movzbl	95(%rdi), %eax
.Ltmp305:
	.loc	0 251 33 is_stmt 0              # x264_src/common/predict.c:251:33
	imull	$16843009, %eax, %eax           # imm = 0x1010101
.Ltmp306:
	#DEBUG_VALUE: v <- $eax
	.loc	0 252 22 is_stmt 1              # x264_src/common/predict.c:252:22
	movl	%eax, 96(%rdi)
	.loc	0 253 22                        # x264_src/common/predict.c:253:22
	movl	%eax, 100(%rdi)
.Ltmp307:
	#DEBUG_VALUE: i <- 4
	#DEBUG_VALUE: predict_8x8c_h:src <- [DW_OP_plus_uconst 128, DW_OP_stack_value] $rdi
	.loc	0 251 35                        # x264_src/common/predict.c:251:35
	movzbl	127(%rdi), %eax
.Ltmp308:
	.loc	0 251 33 is_stmt 0              # x264_src/common/predict.c:251:33
	imull	$16843009, %eax, %eax           # imm = 0x1010101
.Ltmp309:
	#DEBUG_VALUE: v <- $eax
	.loc	0 252 22 is_stmt 1              # x264_src/common/predict.c:252:22
	movl	%eax, 128(%rdi)
	.loc	0 253 22                        # x264_src/common/predict.c:253:22
	movl	%eax, 132(%rdi)
.Ltmp310:
	#DEBUG_VALUE: i <- 5
	#DEBUG_VALUE: predict_8x8c_h:src <- [DW_OP_plus_uconst 160, DW_OP_stack_value] $rdi
	.loc	0 251 35                        # x264_src/common/predict.c:251:35
	movzbl	159(%rdi), %eax
.Ltmp311:
	.loc	0 251 33 is_stmt 0              # x264_src/common/predict.c:251:33
	imull	$16843009, %eax, %eax           # imm = 0x1010101
.Ltmp312:
	#DEBUG_VALUE: v <- $eax
	.loc	0 252 22 is_stmt 1              # x264_src/common/predict.c:252:22
	movl	%eax, 160(%rdi)
	.loc	0 253 22                        # x264_src/common/predict.c:253:22
	movl	%eax, 164(%rdi)
.Ltmp313:
	#DEBUG_VALUE: i <- 6
	#DEBUG_VALUE: predict_8x8c_h:src <- [DW_OP_plus_uconst 192, DW_OP_stack_value] $rdi
	.loc	0 251 35                        # x264_src/common/predict.c:251:35
	movzbl	191(%rdi), %eax
.Ltmp314:
	.loc	0 251 33 is_stmt 0              # x264_src/common/predict.c:251:33
	imull	$16843009, %eax, %eax           # imm = 0x1010101
.Ltmp315:
	#DEBUG_VALUE: v <- $eax
	.loc	0 252 22 is_stmt 1              # x264_src/common/predict.c:252:22
	movl	%eax, 192(%rdi)
	.loc	0 253 22                        # x264_src/common/predict.c:253:22
	movl	%eax, 196(%rdi)
.Ltmp316:
	#DEBUG_VALUE: i <- 7
	#DEBUG_VALUE: predict_8x8c_h:src <- [DW_OP_plus_uconst 224, DW_OP_stack_value] $rdi
	.loc	0 251 35                        # x264_src/common/predict.c:251:35
	movzbl	223(%rdi), %eax
.Ltmp317:
	.loc	0 251 33 is_stmt 0              # x264_src/common/predict.c:251:33
	imull	$16843009, %eax, %eax           # imm = 0x1010101
.Ltmp318:
	#DEBUG_VALUE: v <- $eax
	.loc	0 252 22 is_stmt 1              # x264_src/common/predict.c:252:22
	movl	%eax, 224(%rdi)
	.loc	0 253 22                        # x264_src/common/predict.c:253:22
	movl	%eax, 228(%rdi)
.Ltmp319:
	#DEBUG_VALUE: i <- 8
	#DEBUG_VALUE: predict_8x8c_h:src <- [DW_OP_plus_uconst 224, DW_OP_plus_uconst 32, DW_OP_stack_value] $rdi
	.loc	0 256 1                         # x264_src/common/predict.c:256:1
	retq
.Ltmp320:
.Lfunc_end10:
	.size	predict_8x8c_h, .Lfunc_end10-predict_8x8c_h
	.cfi_endproc
                                        # -- End function
	.p2align	4, 0x90                         # -- Begin function predict_8x8c_dc
	.type	predict_8x8c_dc,@function
predict_8x8c_dc:                        # @predict_8x8c_dc
.Lfunc_begin11:
	.cfi_startproc
# %bb.0:                                # %entry
	#DEBUG_VALUE: predict_8x8c_dc:src <- $rdi
	#DEBUG_VALUE: predict_8x8c_dc:s0 <- 0
	#DEBUG_VALUE: predict_8x8c_dc:s1 <- 0
	#DEBUG_VALUE: predict_8x8c_dc:s2 <- 0
	#DEBUG_VALUE: i <- 0
	#DEBUG_VALUE: predict_8x8c_dc:s3 <- 0
	.loc	0 219 15 prologue_end           # x264_src/common/predict.c:219:15
	movzbl	-32(%rdi), %eax
.Ltmp321:
	#DEBUG_VALUE: predict_8x8c_dc:s0 <- $eax
	.loc	0 220 15                        # x264_src/common/predict.c:220:15
	movzbl	-28(%rdi), %ecx
.Ltmp322:
	#DEBUG_VALUE: predict_8x8c_dc:s1 <- $ecx
	.loc	0 221 15                        # x264_src/common/predict.c:221:15
	movzbl	-1(%rdi), %edx
.Ltmp323:
	#DEBUG_VALUE: predict_8x8c_dc:s2 <- $edx
	.loc	0 222 15                        # x264_src/common/predict.c:222:15
	movzbl	127(%rdi), %esi
.Ltmp324:
	#DEBUG_VALUE: i <- 1
	#DEBUG_VALUE: predict_8x8c_dc:s3 <- $esi
	.loc	0 219 15                        # x264_src/common/predict.c:219:15
	movzbl	-31(%rdi), %r8d
	.loc	0 219 12 is_stmt 0              # x264_src/common/predict.c:219:12
	addl	%eax, %r8d
.Ltmp325:
	#DEBUG_VALUE: predict_8x8c_dc:s0 <- $r8d
	.loc	0 220 15 is_stmt 1              # x264_src/common/predict.c:220:15
	movzbl	-27(%rdi), %eax
	.loc	0 220 12 is_stmt 0              # x264_src/common/predict.c:220:12
	addl	%ecx, %eax
.Ltmp326:
	#DEBUG_VALUE: predict_8x8c_dc:s1 <- $eax
	.loc	0 221 15 is_stmt 1              # x264_src/common/predict.c:221:15
	movzbl	31(%rdi), %r9d
	.loc	0 221 12 is_stmt 0              # x264_src/common/predict.c:221:12
	addl	%edx, %r9d
.Ltmp327:
	#DEBUG_VALUE: predict_8x8c_dc:s2 <- $r9d
	.loc	0 222 15 is_stmt 1              # x264_src/common/predict.c:222:15
	movzbl	159(%rdi), %edx
	.loc	0 222 12 is_stmt 0              # x264_src/common/predict.c:222:12
	addl	%esi, %edx
.Ltmp328:
	#DEBUG_VALUE: predict_8x8c_dc:s3 <- $edx
	#DEBUG_VALUE: i <- 2
	.loc	0 219 15 is_stmt 1              # x264_src/common/predict.c:219:15
	movzbl	-30(%rdi), %esi
.Ltmp329:
	#DEBUG_VALUE: predict_8x8c_dc:s0 <- undef
	.loc	0 220 15                        # x264_src/common/predict.c:220:15
	movzbl	-26(%rdi), %ecx
	.loc	0 220 12 is_stmt 0              # x264_src/common/predict.c:220:12
	addl	%eax, %ecx
.Ltmp330:
	#DEBUG_VALUE: predict_8x8c_dc:s1 <- $ecx
	.loc	0 221 15 is_stmt 1              # x264_src/common/predict.c:221:15
	movzbl	63(%rdi), %r10d
.Ltmp331:
	#DEBUG_VALUE: predict_8x8c_dc:s2 <- undef
	.loc	0 222 15                        # x264_src/common/predict.c:222:15
	movzbl	191(%rdi), %eax
	.loc	0 222 12 is_stmt 0              # x264_src/common/predict.c:222:12
	addl	%edx, %eax
.Ltmp332:
	#DEBUG_VALUE: predict_8x8c_dc:s3 <- $eax
	#DEBUG_VALUE: i <- 3
	.loc	0 219 15 is_stmt 1              # x264_src/common/predict.c:219:15
	movzbl	-29(%rdi), %edx
	.loc	0 219 12 is_stmt 0              # x264_src/common/predict.c:219:12
	addl	%esi, %edx
	addl	%r8d, %edx
.Ltmp333:
	#DEBUG_VALUE: predict_8x8c_dc:s0 <- $edx
	.loc	0 220 15 is_stmt 1              # x264_src/common/predict.c:220:15
	movzbl	-25(%rdi), %esi
	.loc	0 220 12 is_stmt 0              # x264_src/common/predict.c:220:12
	leal	(%rcx,%rsi), %r8d
.Ltmp334:
	#DEBUG_VALUE: predict_8x8c_dc:s1 <- $r8d
	.loc	0 221 15 is_stmt 1              # x264_src/common/predict.c:221:15
	movzbl	95(%rdi), %r11d
	.loc	0 221 12 is_stmt 0              # x264_src/common/predict.c:221:12
	addl	%r10d, %r11d
	addl	%r9d, %r11d
.Ltmp335:
	#DEBUG_VALUE: predict_8x8c_dc:s2 <- $r11d
	.loc	0 222 15 is_stmt 1              # x264_src/common/predict.c:222:15
	movzbl	223(%rdi), %r9d
	.loc	0 222 12 is_stmt 0              # x264_src/common/predict.c:222:12
	leal	(%rax,%r9), %r10d
.Ltmp336:
	#DEBUG_VALUE: predict_8x8c_dc:s3 <- $r10d
	#DEBUG_VALUE: i <- 4
	.loc	0 228 31 is_stmt 1              # x264_src/common/predict.c:228:31
	addl	%r11d, %edx
.Ltmp337:
	addl	$4, %edx
	.loc	0 228 37 is_stmt 0              # x264_src/common/predict.c:228:37
	shrl	$3, %edx
	.loc	0 228 42                        # x264_src/common/predict.c:228:42
	imull	$16843009, %edx, %edx           # imm = 0x1010101
.Ltmp338:
	#DEBUG_VALUE: predict_8x8c_dc:dc0 <- $edx
	.loc	0 229 26 is_stmt 1              # x264_src/common/predict.c:229:26
	addl	%esi, %ecx
	addl	$2, %ecx
	.loc	0 229 32 is_stmt 0              # x264_src/common/predict.c:229:32
	shrl	$2, %ecx
	.loc	0 229 37                        # x264_src/common/predict.c:229:37
	imull	$16843009, %ecx, %ecx           # imm = 0x1010101
.Ltmp339:
	#DEBUG_VALUE: predict_8x8c_dc:dc1 <- $ecx
	.loc	0 230 26 is_stmt 1              # x264_src/common/predict.c:230:26
	addl	%r9d, %eax
	addl	$2, %eax
	.loc	0 230 32 is_stmt 0              # x264_src/common/predict.c:230:32
	shrl	$2, %eax
	.loc	0 231 31 is_stmt 1              # x264_src/common/predict.c:231:31
	leal	(%r10,%r8), %esi
	addl	$4, %esi
	.loc	0 231 37 is_stmt 0              # x264_src/common/predict.c:231:37
	shrl	$3, %esi
.Ltmp340:
	#DEBUG_VALUE: y <- 0
	.loc	0 235 22 is_stmt 1              # x264_src/common/predict.c:235:22
	movl	%edx, (%rdi)
	.loc	0 236 22                        # x264_src/common/predict.c:236:22
	movl	%ecx, 4(%rdi)
.Ltmp341:
	#DEBUG_VALUE: y <- 1
	#DEBUG_VALUE: predict_8x8c_dc:src <- [DW_OP_plus_uconst 32, DW_OP_stack_value] $rdi
	.loc	0 235 22                        # x264_src/common/predict.c:235:22
	movl	%edx, 32(%rdi)
	.loc	0 236 22                        # x264_src/common/predict.c:236:22
	movl	%ecx, 36(%rdi)
.Ltmp342:
	#DEBUG_VALUE: y <- 2
	#DEBUG_VALUE: predict_8x8c_dc:src <- [DW_OP_plus_uconst 64, DW_OP_stack_value] $rdi
	.loc	0 235 22                        # x264_src/common/predict.c:235:22
	movl	%edx, 64(%rdi)
	.loc	0 236 22                        # x264_src/common/predict.c:236:22
	movl	%ecx, 68(%rdi)
.Ltmp343:
	#DEBUG_VALUE: y <- 3
	#DEBUG_VALUE: predict_8x8c_dc:src <- [DW_OP_plus_uconst 96, DW_OP_stack_value] $rdi
	.loc	0 235 22                        # x264_src/common/predict.c:235:22
	movl	%edx, 96(%rdi)
	.loc	0 236 22                        # x264_src/common/predict.c:236:22
	movl	%ecx, 100(%rdi)
.Ltmp344:
	#DEBUG_VALUE: y <- 4
	#DEBUG_VALUE: predict_8x8c_dc:src <- [DW_OP_plus_uconst 128, DW_OP_stack_value] $rdi
	.loc	0 230 37                        # x264_src/common/predict.c:230:37
	imull	$16843009, %eax, %eax           # imm = 0x1010101
.Ltmp345:
	#DEBUG_VALUE: predict_8x8c_dc:dc2 <- $eax
	.loc	0 231 42                        # x264_src/common/predict.c:231:42
	imull	$16843009, %esi, %ecx           # imm = 0x1010101
.Ltmp346:
	#DEBUG_VALUE: predict_8x8c_dc:dc3 <- $ecx
	#DEBUG_VALUE: y <- 0
	.loc	0 242 22                        # x264_src/common/predict.c:242:22
	movl	%eax, 128(%rdi)
	.loc	0 243 22                        # x264_src/common/predict.c:243:22
	movl	%ecx, 132(%rdi)
.Ltmp347:
	#DEBUG_VALUE: y <- 1
	#DEBUG_VALUE: predict_8x8c_dc:src <- [DW_OP_plus_uconst 160, DW_OP_stack_value] $rdi
	.loc	0 242 22                        # x264_src/common/predict.c:242:22
	movl	%eax, 160(%rdi)
	.loc	0 243 22                        # x264_src/common/predict.c:243:22
	movl	%ecx, 164(%rdi)
.Ltmp348:
	#DEBUG_VALUE: y <- 2
	#DEBUG_VALUE: predict_8x8c_dc:src <- [DW_OP_plus_uconst 192, DW_OP_stack_value] $rdi
	.loc	0 242 22                        # x264_src/common/predict.c:242:22
	movl	%eax, 192(%rdi)
	.loc	0 243 22                        # x264_src/common/predict.c:243:22
	movl	%ecx, 196(%rdi)
.Ltmp349:
	#DEBUG_VALUE: y <- 3
	#DEBUG_VALUE: predict_8x8c_dc:src <- [DW_OP_plus_uconst 224, DW_OP_stack_value] $rdi
	.loc	0 242 22                        # x264_src/common/predict.c:242:22
	movl	%eax, 224(%rdi)
	.loc	0 243 22                        # x264_src/common/predict.c:243:22
	movl	%ecx, 228(%rdi)
.Ltmp350:
	#DEBUG_VALUE: y <- 4
	#DEBUG_VALUE: predict_8x8c_dc:src <- [DW_OP_plus_uconst 224, DW_OP_plus_uconst 32, DW_OP_stack_value] $rdi
	.loc	0 246 1                         # x264_src/common/predict.c:246:1
	retq
.Ltmp351:
.Lfunc_end11:
	.size	predict_8x8c_dc, .Lfunc_end11-predict_8x8c_dc
	.cfi_endproc
                                        # -- End function
	.section	.rodata.cst16,"aM",@progbits,16
	.p2align	4, 0x0                          # -- Begin function predict_8x8c_p
.LCPI12_0:
	.long	2147483648                      # 0x80000000
	.long	2147483648                      # 0x80000000
	.long	2147483648                      # 0x80000000
	.long	2147483648                      # 0x80000000
.LCPI12_1:
	.long	2147483904                      # 0x80000100
	.long	2147483904                      # 0x80000100
	.long	2147483904                      # 0x80000100
	.long	2147483904                      # 0x80000100
.LCPI12_2:
	.byte	255                             # 0xff
	.byte	0                               # 0x0
	.byte	0                               # 0x0
	.byte	0                               # 0x0
	.byte	255                             # 0xff
	.byte	0                               # 0x0
	.byte	0                               # 0x0
	.byte	0                               # 0x0
	.byte	255                             # 0xff
	.byte	0                               # 0x0
	.byte	0                               # 0x0
	.byte	0                               # 0x0
	.byte	255                             # 0xff
	.byte	0                               # 0x0
	.byte	0                               # 0x0
	.byte	0                               # 0x0
	.text
	.p2align	4, 0x90
	.type	predict_8x8c_p,@function
predict_8x8c_p:                         # @predict_8x8c_p
.Lfunc_begin12:
	.loc	0 270 0                         # x264_src/common/predict.c:270:0
	.cfi_startproc
# %bb.0:                                # %entry
	#DEBUG_VALUE: predict_8x8c_p:src <- $rdi
	pushq	%rbp
	.cfi_def_cfa_offset 16
	pushq	%r15
	.cfi_def_cfa_offset 24
	pushq	%r14
	.cfi_def_cfa_offset 32
	pushq	%r13
	.cfi_def_cfa_offset 40
	pushq	%r12
	.cfi_def_cfa_offset 48
	pushq	%rbx
	.cfi_def_cfa_offset 56
	subq	$40, %rsp
	.cfi_def_cfa_offset 96
	.cfi_offset %rbx, -56
	.cfi_offset %r12, -48
	.cfi_offset %r13, -40
	.cfi_offset %r14, -32
	.cfi_offset %r15, -24
	.cfi_offset %rbp, -16
.Ltmp352:
	#DEBUG_VALUE: predict_8x8c_p:H <- 0
	#DEBUG_VALUE: predict_8x8c_p:V <- 0
	#DEBUG_VALUE: i <- 0
	#DEBUG_VALUE: i <- 0
	.loc	0 275 28 prologue_end           # x264_src/common/predict.c:275:28
	movzbl	-28(%rdi), %eax
	.loc	0 275 53 is_stmt 0              # x264_src/common/predict.c:275:53
	movzbl	-30(%rdi), %ecx
	.loc	0 275 51                        # x264_src/common/predict.c:275:51
	subl	%ecx, %eax
.Ltmp353:
	#DEBUG_VALUE: predict_8x8c_p:H <- $eax
	.loc	0 276 28 is_stmt 1              # x264_src/common/predict.c:276:28
	movzbl	127(%rdi), %ecx
	.loc	0 276 57 is_stmt 0              # x264_src/common/predict.c:276:57
	movzbl	63(%rdi), %edx
	.loc	0 276 55                        # x264_src/common/predict.c:276:55
	subl	%edx, %ecx
.Ltmp354:
	#DEBUG_VALUE: predict_8x8c_p:V <- $ecx
	#DEBUG_VALUE: i <- 1
	.loc	0 275 28 is_stmt 1              # x264_src/common/predict.c:275:28
	movzbl	-27(%rdi), %edx
	.loc	0 275 53 is_stmt 0              # x264_src/common/predict.c:275:53
	movzbl	-31(%rdi), %esi
	.loc	0 275 51                        # x264_src/common/predict.c:275:51
	subl	%esi, %edx
	.loc	0 275 11                        # x264_src/common/predict.c:275:11
	leal	(%rax,%rdx,2), %eax
.Ltmp355:
	#DEBUG_VALUE: predict_8x8c_p:H <- $eax
	.loc	0 276 28 is_stmt 1              # x264_src/common/predict.c:276:28
	movzbl	159(%rdi), %edx
	.loc	0 276 57 is_stmt 0              # x264_src/common/predict.c:276:57
	movzbl	31(%rdi), %esi
	.loc	0 276 55                        # x264_src/common/predict.c:276:55
	subl	%esi, %edx
	.loc	0 276 11                        # x264_src/common/predict.c:276:11
	leal	(%rcx,%rdx,2), %ecx
.Ltmp356:
	#DEBUG_VALUE: predict_8x8c_p:V <- $ecx
	#DEBUG_VALUE: i <- 2
	.loc	0 275 28 is_stmt 1              # x264_src/common/predict.c:275:28
	movzbl	-26(%rdi), %edx
	.loc	0 275 53 is_stmt 0              # x264_src/common/predict.c:275:53
	movzbl	-32(%rdi), %esi
	.loc	0 275 51                        # x264_src/common/predict.c:275:51
	subl	%esi, %edx
	.loc	0 275 24                        # x264_src/common/predict.c:275:24
	leal	(%rdx,%rdx,2), %edx
	.loc	0 275 11                        # x264_src/common/predict.c:275:11
	addl	%eax, %edx
.Ltmp357:
	#DEBUG_VALUE: predict_8x8c_p:H <- $edx
	.loc	0 276 28 is_stmt 1              # x264_src/common/predict.c:276:28
	movzbl	191(%rdi), %eax
	.loc	0 276 57 is_stmt 0              # x264_src/common/predict.c:276:57
	movzbl	-1(%rdi), %esi
	.loc	0 276 55                        # x264_src/common/predict.c:276:55
	subl	%esi, %eax
	.loc	0 276 24                        # x264_src/common/predict.c:276:24
	leal	(%rax,%rax,2), %esi
	.loc	0 276 11                        # x264_src/common/predict.c:276:11
	addl	%ecx, %esi
.Ltmp358:
	#DEBUG_VALUE: predict_8x8c_p:V <- $esi
	#DEBUG_VALUE: i <- 3
	.loc	0 275 28 is_stmt 1              # x264_src/common/predict.c:275:28
	movzbl	-25(%rdi), %eax
	.loc	0 275 53 is_stmt 0              # x264_src/common/predict.c:275:53
	movzbl	-33(%rdi), %ecx
	.loc	0 275 51                        # x264_src/common/predict.c:275:51
	movl	%eax, %r8d
	subl	%ecx, %r8d
	.loc	0 275 11                        # x264_src/common/predict.c:275:11
	leal	(%rdx,%r8,4), %edx
.Ltmp359:
	#DEBUG_VALUE: predict_8x8c_p:H <- $edx
	.loc	0 276 28 is_stmt 1              # x264_src/common/predict.c:276:28
	movzbl	223(%rdi), %r8d
.Ltmp360:
	#DEBUG_VALUE: predict_8x8c_p:V <- undef
	#DEBUG_VALUE: i <- 4
	.loc	0 279 42                        # x264_src/common/predict.c:279:42
	addl	%r8d, %eax
                                        # kill: def $r8d killed $r8d def $r8
.Ltmp361:
	.loc	0 276 55                        # x264_src/common/predict.c:276:55
	subl	%ecx, %r8d
	.loc	0 276 11 is_stmt 0              # x264_src/common/predict.c:276:11
	leal	(%rsi,%r8,4), %esi
.Ltmp362:
	#DEBUG_VALUE: predict_8x8c_p:V <- $esi
	.loc	0 279 16 is_stmt 1              # x264_src/common/predict.c:279:16
	shll	$4, %eax
.Ltmp363:
	#DEBUG_VALUE: predict_8x8c_p:a <- $eax
	.loc	0 280 18                        # x264_src/common/predict.c:280:18
	movl	%edx, %ecx
	shll	$4, %ecx
	.loc	0 280 22 is_stmt 0              # x264_src/common/predict.c:280:22
	addl	%edx, %ecx
	addl	$16, %ecx
	.loc	0 280 29                        # x264_src/common/predict.c:280:29
	sarl	$5, %ecx
.Ltmp364:
	#DEBUG_VALUE: predict_8x8c_p:b <- $ecx
	.loc	0 281 18 is_stmt 1              # x264_src/common/predict.c:281:18
	movl	%esi, %edx
.Ltmp365:
	shll	$4, %edx
	.loc	0 281 22 is_stmt 0              # x264_src/common/predict.c:281:22
	leal	(%rdx,%rsi), %r9d
	addl	$16, %r9d
	.loc	0 281 29                        # x264_src/common/predict.c:281:29
	sarl	$5, %r9d
.Ltmp366:
	#DEBUG_VALUE: predict_8x8c_p:c <- $r9d
	.loc	0 0 29                          # x264_src/common/predict.c:0:29
	leal	(%rcx,%r9), %edx
	leal	(%rdx,%rdx,2), %esi
.Ltmp367:
	negl	%esi
.Ltmp368:
	#DEBUG_VALUE: predict_8x8c_p:i00 <- [DW_OP_LLVM_arg 0, DW_OP_plus_uconst 16, DW_OP_LLVM_arg 1, DW_OP_plus, DW_OP_stack_value] $esi, $eax
	#DEBUG_VALUE: y <- 0
	movq	%rsi, 32(%rsp)                  # 8-byte Spill
.Ltmp369:
	#DEBUG_VALUE: predict_8x8c_p:i00 <- [DW_OP_LLVM_arg 0, DW_OP_plus_uconst 32, DW_OP_deref, DW_OP_plus_uconst 16, DW_OP_LLVM_arg 1, DW_OP_plus, DW_OP_stack_value] $rsp, $eax
	.loc	0 284 5 is_stmt 1               # x264_src/common/predict.c:284:5
	addq	$96, %rdi
.Ltmp370:
	#DEBUG_VALUE: predict_8x8c_p:src <- [DW_OP_LLVM_entry_value 1] $rdi
	leal	(%rcx,%rcx,2), %r8d
	movl	%r8d, %esi
	negl	%esi
	movq	%rsi, 24(%rsp)                  # 8-byte Spill
	addl	$16, %eax
.Ltmp371:
	leal	(%rcx,%rcx), %r10d
	movl	%r10d, %r14d
	negl	%r14d
	movl	%ecx, %r15d
	negl	%r15d
	leal	(,%rcx,4), %ebp
	movl	%ecx, %esi
	subl	%r9d, %esi
	movq	%rsi, -8(%rsp)                  # 8-byte Spill
	movl	%r10d, %esi
	subl	%r9d, %esi
	movq	%rsi, -16(%rsp)                 # 8-byte Spill
	movl	%r8d, %esi
	subl	%r9d, %esi
	movq	%rsi, -24(%rsp)                 # 8-byte Spill
	movl	%ebp, %esi
	subl	%r9d, %esi
	movq	%rsi, -32(%rsp)                 # 8-byte Spill
	leal	(%r9,%r9), %ebx
	leal	(%r9,%r9,2), %r11d
	leal	(,%r9,4), %esi
                                        # kill: def $r9d killed $r9d killed $r9 def $r9
	negl	%r9d
.Ltmp372:
	movl	%r9d, %r12d
	subl	%r8d, %r12d
	movq	%r12, -40(%rsp)                 # 8-byte Spill
	movl	%r9d, %r12d
	subl	%r10d, %r12d
	movq	%r12, -48(%rsp)                 # 8-byte Spill
	movl	%edx, %r12d
	negl	%r12d
	movq	%r12, -56(%rsp)                 # 8-byte Spill
	movl	%r15d, %r12d
	subl	%ebx, %r12d
	movq	%r12, -64(%rsp)                 # 8-byte Spill
	movl	%ecx, %r12d
	subl	%ebx, %r12d
	movq	%r12, -72(%rsp)                 # 8-byte Spill
	movl	%r10d, %r12d
	subl	%ebx, %r12d
	movq	%r12, -80(%rsp)                 # 8-byte Spill
	movl	%r8d, %r12d
	subl	%ebx, %r12d
	movq	%r12, -88(%rsp)                 # 8-byte Spill
	movl	%ebp, %r12d
	subl	%ebx, %r12d
	movq	%r12, -96(%rsp)                 # 8-byte Spill
	movl	%ebx, %r13d
	negl	%r13d
	movl	%r13d, %ebx
	subl	%r8d, %ebx
	movq	%rbx, -104(%rsp)                # 8-byte Spill
	addl	%edx, %edx
	negl	%edx
	movq	%r14, 16(%rsp)                  # 8-byte Spill
                                        # kill: def $r14d killed $r14d killed $r14 def $r14
	subl	%r11d, %r14d
	movq	%r14, -112(%rsp)                # 8-byte Spill
	movq	%r15, 8(%rsp)                   # 8-byte Spill
                                        # kill: def $r15d killed $r15d killed $r15 def $r15
	subl	%r11d, %r15d
	movq	%r15, -120(%rsp)                # 8-byte Spill
	movl	%ecx, %ebx
	subl	%r11d, %ebx
	movq	%rbx, -128(%rsp)                # 8-byte Spill
	movl	%r10d, %r14d
	subl	%r11d, %r14d
	movl	%r8d, %r15d
	subl	%r11d, %r15d
	movq	%rbp, (%rsp)                    # 8-byte Spill
                                        # kill: def $ebp killed $ebp killed $rbp def $rbp
	subl	%r11d, %ebp
                                        # kill: def $r11d killed $r11d def $r11
	negl	%r11d
	pxor	%xmm0, %xmm0
	movdqa	.LCPI12_0(%rip), %xmm1          # xmm1 = [2147483648,2147483648,2147483648,2147483648]
	movdqa	.LCPI12_1(%rip), %xmm2          # xmm2 = [2147483904,2147483904,2147483904,2147483904]
	movdqa	.LCPI12_2(%rip), %xmm3          # xmm3 = [255,0,0,0,255,0,0,0,255,0,0,0,255,0,0,0]
	xorl	%ebx, %ebx
	jmp	.LBB12_1
.Ltmp373:
	.p2align	4, 0x90
.LBB12_9:                               # %pred.store.continue114
                                        #   in Loop: Header=BB12_1 Depth=1
	#DEBUG_VALUE: predict_8x8c_p:src <- [DW_OP_LLVM_entry_value 1] $rdi
	#DEBUG_VALUE: predict_8x8c_p:b <- $ecx
	#DEBUG_VALUE: y <- 0
	.loc	0 0 5 is_stmt 0                 # x264_src/common/predict.c:0:5
	addq	$4, %rbx
	subq	$-128, %rdi
	addl	%esi, %eax
	cmpq	$8, %rbx
	je	.LBB12_10
.Ltmp374:
.LBB12_1:                               # %vector.body
                                        # =>This Inner Loop Header: Depth=1
	#DEBUG_VALUE: predict_8x8c_p:src <- [DW_OP_LLVM_entry_value 1] $rdi
	#DEBUG_VALUE: predict_8x8c_p:b <- $ecx
	#DEBUG_VALUE: y <- 0
	cmpq	$7, %rbx
	.loc	0 284 5                         # x264_src/common/predict.c:284:5
	jbe	.LBB12_2
.Ltmp375:
# %bb.3:                                # %pred.store.continue
                                        #   in Loop: Header=BB12_1 Depth=1
	#DEBUG_VALUE: predict_8x8c_p:src <- [DW_OP_LLVM_entry_value 1] $rdi
	#DEBUG_VALUE: predict_8x8c_p:b <- $ecx
	#DEBUG_VALUE: y <- 0
	.loc	0 0 5                           # x264_src/common/predict.c:0:5
	cmpq	$7, %rbx
.Ltmp376:
	.loc	0 289 20 is_stmt 1              # x264_src/common/predict.c:289:20
	jbe	.LBB12_4
.Ltmp377:
.LBB12_5:                               # %pred.store.continue110
                                        #   in Loop: Header=BB12_1 Depth=1
	#DEBUG_VALUE: predict_8x8c_p:src <- [DW_OP_LLVM_entry_value 1] $rdi
	#DEBUG_VALUE: predict_8x8c_p:b <- $ecx
	#DEBUG_VALUE: y <- 0
	.loc	0 0 20 is_stmt 0                # x264_src/common/predict.c:0:20
	cmpq	$7, %rbx
	.loc	0 289 20                        # x264_src/common/predict.c:289:20
	jbe	.LBB12_6
.Ltmp378:
.LBB12_7:                               # %pred.store.continue112
                                        #   in Loop: Header=BB12_1 Depth=1
	#DEBUG_VALUE: predict_8x8c_p:src <- [DW_OP_LLVM_entry_value 1] $rdi
	#DEBUG_VALUE: predict_8x8c_p:b <- $ecx
	#DEBUG_VALUE: y <- 0
	.loc	0 0 20                          # x264_src/common/predict.c:0:20
	cmpq	$7, %rbx
	.loc	0 289 20                        # x264_src/common/predict.c:289:20
	ja	.LBB12_9
	jmp	.LBB12_8
.Ltmp379:
	.p2align	4, 0x90
.LBB12_2:                               # %pred.store.if
                                        #   in Loop: Header=BB12_1 Depth=1
	#DEBUG_VALUE: predict_8x8c_p:src <- [DW_OP_LLVM_entry_value 1] $rdi
	#DEBUG_VALUE: predict_8x8c_p:b <- $ecx
	#DEBUG_VALUE: y <- 0
	.loc	0 289 42                        # x264_src/common/predict.c:289:42
	leal	(%rax,%rbp), %r12d
	movd	%r12d, %xmm6
	.loc	0 290 17 is_stmt 1              # x264_src/common/predict.c:290:17
	leal	(%r15,%rax), %r12d
	.loc	0 289 42                        # x264_src/common/predict.c:289:42
	movd	%r12d, %xmm7
	.loc	0 290 17                        # x264_src/common/predict.c:290:17
	leal	(%r14,%rax), %r12d
	.loc	0 289 42                        # x264_src/common/predict.c:289:42
	movd	%r12d, %xmm8
	movq	-128(%rsp), %r12                # 8-byte Reload
	.loc	0 290 17                        # x264_src/common/predict.c:290:17
	addl	%eax, %r12d
	.loc	0 289 42                        # x264_src/common/predict.c:289:42
	movd	%r12d, %xmm4
	.loc	0 290 17                        # x264_src/common/predict.c:290:17
	leal	(%r11,%rax), %r12d
	.loc	0 289 42                        # x264_src/common/predict.c:289:42
	movd	%r12d, %xmm9
	movq	-120(%rsp), %r12                # 8-byte Reload
	.loc	0 290 17                        # x264_src/common/predict.c:290:17
	leal	(%r12,%rax), %r12d
	.loc	0 289 42                        # x264_src/common/predict.c:289:42
	movd	%r12d, %xmm10
	movq	-112(%rsp), %r12                # 8-byte Reload
	.loc	0 290 17                        # x264_src/common/predict.c:290:17
	leal	(%r12,%rax), %r12d
	.loc	0 289 42                        # x264_src/common/predict.c:289:42
	movd	%r12d, %xmm11
	movq	32(%rsp), %r12                  # 8-byte Reload
.Ltmp380:
	.loc	0 0 0 is_stmt 0                 # x264_src/common/predict.c:0:0
	leal	(%r12,%rax), %r12d
.Ltmp381:
	.loc	0 289 42                        # x264_src/common/predict.c:289:42
	movd	%r12d, %xmm5
	punpckldq	%xmm6, %xmm7            # xmm7 = xmm7[0],xmm6[0],xmm7[1],xmm6[1]
	punpckldq	%xmm8, %xmm4            # xmm4 = xmm4[0],xmm8[0],xmm4[1],xmm8[1]
	punpcklqdq	%xmm7, %xmm4            # xmm4 = xmm4[0],xmm7[0]
	punpckldq	%xmm9, %xmm10           # xmm10 = xmm10[0],xmm9[0],xmm10[1],xmm9[1]
	punpckldq	%xmm11, %xmm5           # xmm5 = xmm5[0],xmm11[0],xmm5[1],xmm11[1]
	punpcklqdq	%xmm10, %xmm5           # xmm5 = xmm5[0],xmm10[0]
	psrad	$5, %xmm4
	psrad	$5, %xmm5
.Ltmp382:
	.loc	5 197 12 is_stmt 1              # x264_src/common/common.h:197:12
	movdqa	%xmm4, %xmm6
	pcmpgtd	%xmm0, %xmm6
	movdqa	%xmm5, %xmm7
	pcmpgtd	%xmm0, %xmm7
	.loc	5 197 13 is_stmt 0              # x264_src/common/common.h:197:13
	movdqa	%xmm4, %xmm8
	pxor	%xmm1, %xmm8
	movdqa	%xmm2, %xmm9
	pcmpgtd	%xmm8, %xmm9
	movdqa	%xmm5, %xmm8
	pxor	%xmm1, %xmm8
	movdqa	%xmm2, %xmm10
	pcmpgtd	%xmm8, %xmm10
	.loc	5 197 12                        # x264_src/common/common.h:197:12
	pand	%xmm9, %xmm4
	pandn	%xmm6, %xmm9
	por	%xmm4, %xmm9
	pand	%xmm10, %xmm5
	pandn	%xmm7, %xmm10
	por	%xmm5, %xmm10
	pand	%xmm3, %xmm9
	pand	%xmm3, %xmm10
	packuswb	%xmm9, %xmm10
	packuswb	%xmm10, %xmm10
.Ltmp383:
	.loc	0 289 20 is_stmt 1              # x264_src/common/predict.c:289:20
	movq	%xmm10, -96(%rdi)
	cmpq	$7, %rbx
	ja	.LBB12_5
.Ltmp384:
.LBB12_4:                               # %pred.store.if109
                                        #   in Loop: Header=BB12_1 Depth=1
	#DEBUG_VALUE: predict_8x8c_p:src <- [DW_OP_LLVM_entry_value 1] $rdi
	#DEBUG_VALUE: predict_8x8c_p:b <- $ecx
	#DEBUG_VALUE: y <- 0
	.loc	0 0 20 is_stmt 0                # x264_src/common/predict.c:0:20
	movq	-96(%rsp), %r12                 # 8-byte Reload
	.loc	0 289 42                        # x264_src/common/predict.c:289:42
	addl	%eax, %r12d
	movd	%r12d, %xmm5
	movq	-88(%rsp), %r12                 # 8-byte Reload
	.loc	0 290 17 is_stmt 1              # x264_src/common/predict.c:290:17
	leal	(%r12,%rax), %r12d
	.loc	0 289 42                        # x264_src/common/predict.c:289:42
	movd	%r12d, %xmm6
	movq	-80(%rsp), %r12                 # 8-byte Reload
	.loc	0 290 17                        # x264_src/common/predict.c:290:17
	leal	(%r12,%rax), %r12d
	.loc	0 289 42                        # x264_src/common/predict.c:289:42
	movd	%r12d, %xmm7
	movq	-72(%rsp), %r12                 # 8-byte Reload
	.loc	0 290 17                        # x264_src/common/predict.c:290:17
	leal	(%r12,%rax), %r12d
	.loc	0 289 42                        # x264_src/common/predict.c:289:42
	movd	%r12d, %xmm4
	.loc	0 290 17                        # x264_src/common/predict.c:290:17
	leal	(%r13,%rax), %r12d
	.loc	0 289 42                        # x264_src/common/predict.c:289:42
	movd	%r12d, %xmm8
	movq	-64(%rsp), %r12                 # 8-byte Reload
	.loc	0 290 17                        # x264_src/common/predict.c:290:17
	leal	(%r12,%rax), %r12d
	.loc	0 289 42                        # x264_src/common/predict.c:289:42
	movd	%r12d, %xmm9
	.loc	0 290 17                        # x264_src/common/predict.c:290:17
	leal	(%rdx,%rax), %r12d
	.loc	0 289 42                        # x264_src/common/predict.c:289:42
	movd	%r12d, %xmm10
	movq	-104(%rsp), %r12                # 8-byte Reload
	.loc	0 290 17                        # x264_src/common/predict.c:290:17
	leal	(%r12,%rax), %r12d
	.loc	0 289 42                        # x264_src/common/predict.c:289:42
	movd	%r12d, %xmm11
	punpckldq	%xmm5, %xmm6            # xmm6 = xmm6[0],xmm5[0],xmm6[1],xmm5[1]
	punpckldq	%xmm7, %xmm4            # xmm4 = xmm4[0],xmm7[0],xmm4[1],xmm7[1]
	punpcklqdq	%xmm6, %xmm4            # xmm4 = xmm4[0],xmm6[0]
	punpckldq	%xmm8, %xmm9            # xmm9 = xmm9[0],xmm8[0],xmm9[1],xmm8[1]
	punpckldq	%xmm10, %xmm11          # xmm11 = xmm11[0],xmm10[0],xmm11[1],xmm10[1]
	punpcklqdq	%xmm9, %xmm11           # xmm11 = xmm11[0],xmm9[0]
	psrad	$5, %xmm11
	psrad	$5, %xmm4
.Ltmp385:
	.loc	5 197 12                        # x264_src/common/common.h:197:12
	movdqa	%xmm4, %xmm5
	pcmpgtd	%xmm0, %xmm5
	movdqa	%xmm11, %xmm6
	pcmpgtd	%xmm0, %xmm6
	.loc	5 197 13 is_stmt 0              # x264_src/common/common.h:197:13
	movdqa	%xmm4, %xmm7
	pxor	%xmm1, %xmm7
	movdqa	%xmm2, %xmm8
	pcmpgtd	%xmm7, %xmm8
	movdqa	%xmm11, %xmm7
	pxor	%xmm1, %xmm7
	movdqa	%xmm2, %xmm9
	pcmpgtd	%xmm7, %xmm9
	.loc	5 197 12                        # x264_src/common/common.h:197:12
	pand	%xmm9, %xmm11
	pandn	%xmm6, %xmm9
	por	%xmm11, %xmm9
	pand	%xmm8, %xmm4
	pandn	%xmm5, %xmm8
	por	%xmm4, %xmm8
	pand	%xmm3, %xmm8
	pand	%xmm3, %xmm9
	packuswb	%xmm8, %xmm9
	packuswb	%xmm9, %xmm9
.Ltmp386:
	.loc	0 289 20 is_stmt 1              # x264_src/common/predict.c:289:20
	movq	%xmm9, -64(%rdi)
	cmpq	$7, %rbx
	ja	.LBB12_7
.Ltmp387:
.LBB12_6:                               # %pred.store.if111
                                        #   in Loop: Header=BB12_1 Depth=1
	#DEBUG_VALUE: predict_8x8c_p:src <- [DW_OP_LLVM_entry_value 1] $rdi
	#DEBUG_VALUE: predict_8x8c_p:b <- $ecx
	#DEBUG_VALUE: y <- 0
	.loc	0 0 20 is_stmt 0                # x264_src/common/predict.c:0:20
	movq	-32(%rsp), %r12                 # 8-byte Reload
	.loc	0 289 42                        # x264_src/common/predict.c:289:42
	addl	%eax, %r12d
	movd	%r12d, %xmm5
	movq	-24(%rsp), %r12                 # 8-byte Reload
	.loc	0 290 17 is_stmt 1              # x264_src/common/predict.c:290:17
	leal	(%r12,%rax), %r12d
	.loc	0 289 42                        # x264_src/common/predict.c:289:42
	movd	%r12d, %xmm6
	movq	-16(%rsp), %r12                 # 8-byte Reload
	.loc	0 290 17                        # x264_src/common/predict.c:290:17
	leal	(%r12,%rax), %r12d
	.loc	0 289 42                        # x264_src/common/predict.c:289:42
	movd	%r12d, %xmm7
	movq	-8(%rsp), %r12                  # 8-byte Reload
	.loc	0 290 17                        # x264_src/common/predict.c:290:17
	leal	(%r12,%rax), %r12d
	.loc	0 289 42                        # x264_src/common/predict.c:289:42
	movd	%r12d, %xmm4
	.loc	0 290 17                        # x264_src/common/predict.c:290:17
	leal	(%r9,%rax), %r12d
	.loc	0 289 42                        # x264_src/common/predict.c:289:42
	movd	%r12d, %xmm8
	movq	-56(%rsp), %r12                 # 8-byte Reload
	.loc	0 290 17                        # x264_src/common/predict.c:290:17
	leal	(%r12,%rax), %r12d
	.loc	0 289 42                        # x264_src/common/predict.c:289:42
	movd	%r12d, %xmm9
	movq	-48(%rsp), %r12                 # 8-byte Reload
	.loc	0 290 17                        # x264_src/common/predict.c:290:17
	leal	(%r12,%rax), %r12d
	.loc	0 289 42                        # x264_src/common/predict.c:289:42
	movd	%r12d, %xmm10
	movq	-40(%rsp), %r12                 # 8-byte Reload
	.loc	0 290 17                        # x264_src/common/predict.c:290:17
	leal	(%r12,%rax), %r12d
	.loc	0 289 42                        # x264_src/common/predict.c:289:42
	movd	%r12d, %xmm11
	punpckldq	%xmm5, %xmm6            # xmm6 = xmm6[0],xmm5[0],xmm6[1],xmm5[1]
	punpckldq	%xmm7, %xmm4            # xmm4 = xmm4[0],xmm7[0],xmm4[1],xmm7[1]
	punpcklqdq	%xmm6, %xmm4            # xmm4 = xmm4[0],xmm6[0]
	punpckldq	%xmm8, %xmm9            # xmm9 = xmm9[0],xmm8[0],xmm9[1],xmm8[1]
	punpckldq	%xmm10, %xmm11          # xmm11 = xmm11[0],xmm10[0],xmm11[1],xmm10[1]
	punpcklqdq	%xmm9, %xmm11           # xmm11 = xmm11[0],xmm9[0]
	psrad	$5, %xmm11
	psrad	$5, %xmm4
.Ltmp388:
	.loc	5 197 12                        # x264_src/common/common.h:197:12
	movdqa	%xmm4, %xmm5
	pcmpgtd	%xmm0, %xmm5
	movdqa	%xmm11, %xmm6
	pcmpgtd	%xmm0, %xmm6
	.loc	5 197 13 is_stmt 0              # x264_src/common/common.h:197:13
	movdqa	%xmm4, %xmm7
	pxor	%xmm1, %xmm7
	movdqa	%xmm2, %xmm8
	pcmpgtd	%xmm7, %xmm8
	movdqa	%xmm11, %xmm7
	pxor	%xmm1, %xmm7
	movdqa	%xmm2, %xmm9
	pcmpgtd	%xmm7, %xmm9
	.loc	5 197 12                        # x264_src/common/common.h:197:12
	pand	%xmm9, %xmm11
	pandn	%xmm6, %xmm9
	por	%xmm11, %xmm9
	pand	%xmm8, %xmm4
	pandn	%xmm5, %xmm8
	por	%xmm4, %xmm8
	pand	%xmm3, %xmm8
	pand	%xmm3, %xmm9
	packuswb	%xmm8, %xmm9
	packuswb	%xmm9, %xmm9
.Ltmp389:
	.loc	0 289 20 is_stmt 1              # x264_src/common/predict.c:289:20
	movq	%xmm9, -32(%rdi)
	cmpq	$7, %rbx
	ja	.LBB12_9
.Ltmp390:
.LBB12_8:                               # %pred.store.if113
                                        #   in Loop: Header=BB12_1 Depth=1
	#DEBUG_VALUE: predict_8x8c_p:src <- [DW_OP_LLVM_entry_value 1] $rdi
	#DEBUG_VALUE: predict_8x8c_p:b <- $ecx
	#DEBUG_VALUE: y <- 0
	.loc	0 0 20 is_stmt 0                # x264_src/common/predict.c:0:20
	movq	(%rsp), %r12                    # 8-byte Reload
	.loc	0 289 42                        # x264_src/common/predict.c:289:42
	addl	%eax, %r12d
	movd	%r12d, %xmm6
	.loc	0 290 17 is_stmt 1              # x264_src/common/predict.c:290:17
	leal	(%r8,%rax), %r12d
	.loc	0 289 42                        # x264_src/common/predict.c:289:42
	movd	%r12d, %xmm7
	.loc	0 290 17                        # x264_src/common/predict.c:290:17
	leal	(%r10,%rax), %r12d
	.loc	0 289 42                        # x264_src/common/predict.c:289:42
	movd	%r12d, %xmm8
	.loc	0 290 17                        # x264_src/common/predict.c:290:17
	leal	(%rcx,%rax), %r12d
	.loc	0 289 42                        # x264_src/common/predict.c:289:42
	movd	%r12d, %xmm4
	movq	16(%rsp), %r12                  # 8-byte Reload
	.loc	0 290 17                        # x264_src/common/predict.c:290:17
	leal	(%r12,%rax), %r12d
	.loc	0 289 42                        # x264_src/common/predict.c:289:42
	movd	%r12d, %xmm9
	movq	24(%rsp), %r12                  # 8-byte Reload
	.loc	0 290 17                        # x264_src/common/predict.c:290:17
	leal	(%r12,%rax), %r12d
	.loc	0 289 42                        # x264_src/common/predict.c:289:42
	movd	%r12d, %xmm5
	movq	8(%rsp), %r12                   # 8-byte Reload
	.loc	0 290 17                        # x264_src/common/predict.c:290:17
	leal	(%r12,%rax), %r12d
	.loc	0 289 42                        # x264_src/common/predict.c:289:42
	movd	%r12d, %xmm10
	punpckldq	%xmm6, %xmm7            # xmm7 = xmm7[0],xmm6[0],xmm7[1],xmm6[1]
	punpckldq	%xmm8, %xmm4            # xmm4 = xmm4[0],xmm8[0],xmm4[1],xmm8[1]
	punpcklqdq	%xmm7, %xmm4            # xmm4 = xmm4[0],xmm7[0]
	punpckldq	%xmm9, %xmm5            # xmm5 = xmm5[0],xmm9[0],xmm5[1],xmm9[1]
	movd	%eax, %xmm6
	punpckldq	%xmm6, %xmm10           # xmm10 = xmm10[0],xmm6[0],xmm10[1],xmm6[1]
	punpcklqdq	%xmm10, %xmm5           # xmm5 = xmm5[0],xmm10[0]
	psrad	$5, %xmm4
	psrad	$5, %xmm5
.Ltmp391:
	.loc	5 197 12                        # x264_src/common/common.h:197:12
	movdqa	%xmm4, %xmm6
	pcmpgtd	%xmm0, %xmm6
	movdqa	%xmm5, %xmm7
	pcmpgtd	%xmm0, %xmm7
	.loc	5 197 13 is_stmt 0              # x264_src/common/common.h:197:13
	movdqa	%xmm4, %xmm8
	pxor	%xmm1, %xmm8
	movdqa	%xmm2, %xmm9
	pcmpgtd	%xmm8, %xmm9
	movdqa	%xmm5, %xmm8
	pxor	%xmm1, %xmm8
	movdqa	%xmm2, %xmm10
	pcmpgtd	%xmm8, %xmm10
	.loc	5 197 12                        # x264_src/common/common.h:197:12
	pand	%xmm9, %xmm4
	pandn	%xmm6, %xmm9
	por	%xmm4, %xmm9
	pand	%xmm10, %xmm5
	pandn	%xmm7, %xmm10
	por	%xmm5, %xmm10
	pand	%xmm3, %xmm9
	pand	%xmm3, %xmm10
	packuswb	%xmm9, %xmm10
	packuswb	%xmm10, %xmm10
.Ltmp392:
	.loc	0 289 20 is_stmt 1              # x264_src/common/predict.c:289:20
	movq	%xmm10, (%rdi)
	jmp	.LBB12_9
.Ltmp393:
.LBB12_10:                              # %for.cond.cleanup44
	#DEBUG_VALUE: predict_8x8c_p:src <- [DW_OP_LLVM_entry_value 1] $rdi
	#DEBUG_VALUE: predict_8x8c_p:b <- $ecx
	.loc	0 295 1 epilogue_begin          # x264_src/common/predict.c:295:1
	addq	$40, %rsp
	.cfi_def_cfa_offset 56
	popq	%rbx
	.cfi_def_cfa_offset 48
	popq	%r12
	.cfi_def_cfa_offset 40
	popq	%r13
	.cfi_def_cfa_offset 32
	popq	%r14
	.cfi_def_cfa_offset 24
	popq	%r15
	.cfi_def_cfa_offset 16
	popq	%rbp
	.cfi_def_cfa_offset 8
	retq
.Ltmp394:
.Lfunc_end12:
	.size	predict_8x8c_p, .Lfunc_end12-predict_8x8c_p
	.cfi_endproc
                                        # -- End function
	.p2align	4, 0x90                         # -- Begin function predict_8x8c_dc_left
	.type	predict_8x8c_dc_left,@function
predict_8x8c_dc_left:                   # @predict_8x8c_dc_left
.Lfunc_begin13:
	.cfi_startproc
# %bb.0:                                # %entry
	#DEBUG_VALUE: predict_8x8c_dc_left:src <- $rdi
	#DEBUG_VALUE: y <- 0
	#DEBUG_VALUE: predict_8x8c_dc_left:dc1 <- 0
	#DEBUG_VALUE: predict_8x8c_dc_left:dc0 <- 0
	.loc	0 169 16 prologue_end           # x264_src/common/predict.c:169:16
	movzbl	-1(%rdi), %eax
.Ltmp395:
	#DEBUG_VALUE: predict_8x8c_dc_left:dc0 <- $eax
	.loc	0 170 16                        # x264_src/common/predict.c:170:16
	movzbl	127(%rdi), %ecx
.Ltmp396:
	#DEBUG_VALUE: y <- 1
	#DEBUG_VALUE: predict_8x8c_dc_left:dc1 <- $ecx
	.loc	0 169 16                        # x264_src/common/predict.c:169:16
	movzbl	31(%rdi), %edx
	.loc	0 169 13 is_stmt 0              # x264_src/common/predict.c:169:13
	addl	%eax, %edx
.Ltmp397:
	#DEBUG_VALUE: predict_8x8c_dc_left:dc0 <- $edx
	.loc	0 170 16 is_stmt 1              # x264_src/common/predict.c:170:16
	movzbl	159(%rdi), %eax
	.loc	0 170 13 is_stmt 0              # x264_src/common/predict.c:170:13
	addl	%ecx, %eax
.Ltmp398:
	#DEBUG_VALUE: predict_8x8c_dc_left:dc1 <- $eax
	#DEBUG_VALUE: y <- 2
	.loc	0 169 16 is_stmt 1              # x264_src/common/predict.c:169:16
	movzbl	63(%rdi), %ecx
	.loc	0 169 13 is_stmt 0              # x264_src/common/predict.c:169:13
	addl	%edx, %ecx
.Ltmp399:
	#DEBUG_VALUE: predict_8x8c_dc_left:dc0 <- $ecx
	.loc	0 170 16 is_stmt 1              # x264_src/common/predict.c:170:16
	movzbl	191(%rdi), %edx
	.loc	0 170 13 is_stmt 0              # x264_src/common/predict.c:170:13
	addl	%eax, %edx
.Ltmp400:
	#DEBUG_VALUE: predict_8x8c_dc_left:dc1 <- $edx
	#DEBUG_VALUE: y <- 3
	.loc	0 169 16 is_stmt 1              # x264_src/common/predict.c:169:16
	movzbl	95(%rdi), %eax
.Ltmp401:
	#DEBUG_VALUE: predict_8x8c_dc_left:dc0 <- [DW_OP_LLVM_arg 0, DW_OP_LLVM_arg 1, DW_OP_plus, DW_OP_stack_value] $ecx, $eax
	.loc	0 170 16                        # x264_src/common/predict.c:170:16
	movzbl	223(%rdi), %esi
.Ltmp402:
	#DEBUG_VALUE: y <- 4
	#DEBUG_VALUE: predict_8x8c_dc_left:dc1 <- [DW_OP_LLVM_arg 0, DW_OP_LLVM_arg 1, DW_OP_plus, DW_OP_stack_value] $edx, $esi
	.loc	0 172 18                        # x264_src/common/predict.c:172:18
	addl	%ecx, %eax
.Ltmp403:
	addl	$2, %eax
	.loc	0 172 24 is_stmt 0              # x264_src/common/predict.c:172:24
	shrl	$2, %eax
	.loc	0 172 29                        # x264_src/common/predict.c:172:29
	imull	$16843009, %eax, %eax           # imm = 0x1010101
.Ltmp404:
	#DEBUG_VALUE: predict_8x8c_dc_left:dc0 <- $eax
	.loc	0 173 18 is_stmt 1              # x264_src/common/predict.c:173:18
	leal	(%rsi,%rdx), %ecx
	addl	$2, %ecx
	.loc	0 173 24 is_stmt 0              # x264_src/common/predict.c:173:24
	shrl	$2, %ecx
.Ltmp405:
	#DEBUG_VALUE: y <- 0
	.loc	0 177 22 is_stmt 1              # x264_src/common/predict.c:177:22
	movl	%eax, (%rdi)
	.loc	0 178 22                        # x264_src/common/predict.c:178:22
	movl	%eax, 4(%rdi)
.Ltmp406:
	#DEBUG_VALUE: y <- 1
	#DEBUG_VALUE: predict_8x8c_dc_left:src <- [DW_OP_plus_uconst 32, DW_OP_stack_value] $rdi
	.loc	0 177 22                        # x264_src/common/predict.c:177:22
	movl	%eax, 32(%rdi)
	.loc	0 178 22                        # x264_src/common/predict.c:178:22
	movl	%eax, 36(%rdi)
.Ltmp407:
	#DEBUG_VALUE: y <- 2
	#DEBUG_VALUE: predict_8x8c_dc_left:src <- [DW_OP_plus_uconst 64, DW_OP_stack_value] $rdi
	.loc	0 177 22                        # x264_src/common/predict.c:177:22
	movl	%eax, 64(%rdi)
	.loc	0 178 22                        # x264_src/common/predict.c:178:22
	movl	%eax, 68(%rdi)
.Ltmp408:
	#DEBUG_VALUE: y <- 3
	#DEBUG_VALUE: predict_8x8c_dc_left:src <- [DW_OP_plus_uconst 96, DW_OP_stack_value] $rdi
	.loc	0 177 22                        # x264_src/common/predict.c:177:22
	movl	%eax, 96(%rdi)
	.loc	0 178 22                        # x264_src/common/predict.c:178:22
	movl	%eax, 100(%rdi)
.Ltmp409:
	#DEBUG_VALUE: y <- 4
	#DEBUG_VALUE: predict_8x8c_dc_left:src <- [DW_OP_plus_uconst 128, DW_OP_stack_value] $rdi
	.loc	0 173 29                        # x264_src/common/predict.c:173:29
	imull	$16843009, %ecx, %eax           # imm = 0x1010101
.Ltmp410:
	#DEBUG_VALUE: predict_8x8c_dc_left:dc1 <- $eax
	#DEBUG_VALUE: y <- 0
	.loc	0 183 22                        # x264_src/common/predict.c:183:22
	movl	%eax, 128(%rdi)
	.loc	0 184 22                        # x264_src/common/predict.c:184:22
	movl	%eax, 132(%rdi)
.Ltmp411:
	#DEBUG_VALUE: y <- 1
	#DEBUG_VALUE: predict_8x8c_dc_left:src <- [DW_OP_plus_uconst 160, DW_OP_stack_value] $rdi
	.loc	0 183 22                        # x264_src/common/predict.c:183:22
	movl	%eax, 160(%rdi)
	.loc	0 184 22                        # x264_src/common/predict.c:184:22
	movl	%eax, 164(%rdi)
.Ltmp412:
	#DEBUG_VALUE: y <- 2
	#DEBUG_VALUE: predict_8x8c_dc_left:src <- [DW_OP_plus_uconst 192, DW_OP_stack_value] $rdi
	.loc	0 183 22                        # x264_src/common/predict.c:183:22
	movl	%eax, 192(%rdi)
	.loc	0 184 22                        # x264_src/common/predict.c:184:22
	movl	%eax, 196(%rdi)
.Ltmp413:
	#DEBUG_VALUE: y <- 3
	#DEBUG_VALUE: predict_8x8c_dc_left:src <- [DW_OP_plus_uconst 224, DW_OP_stack_value] $rdi
	.loc	0 183 22                        # x264_src/common/predict.c:183:22
	movl	%eax, 224(%rdi)
	.loc	0 184 22                        # x264_src/common/predict.c:184:22
	movl	%eax, 228(%rdi)
.Ltmp414:
	#DEBUG_VALUE: y <- 4
	#DEBUG_VALUE: predict_8x8c_dc_left:src <- [DW_OP_plus_uconst 224, DW_OP_plus_uconst 32, DW_OP_stack_value] $rdi
	.loc	0 188 1                         # x264_src/common/predict.c:188:1
	retq
.Ltmp415:
.Lfunc_end13:
	.size	predict_8x8c_dc_left, .Lfunc_end13-predict_8x8c_dc_left
	.cfi_endproc
                                        # -- End function
	.p2align	4, 0x90                         # -- Begin function predict_8x8c_dc_top
	.type	predict_8x8c_dc_top,@function
predict_8x8c_dc_top:                    # @predict_8x8c_dc_top
.Lfunc_begin14:
	.cfi_startproc
# %bb.0:                                # %entry
	#DEBUG_VALUE: predict_8x8c_dc_top:src <- $rdi
	#DEBUG_VALUE: x <- 0
	#DEBUG_VALUE: predict_8x8c_dc_top:dc1 <- 0
	#DEBUG_VALUE: predict_8x8c_dc_top:dc0 <- 0
	.loc	0 195 16 prologue_end           # x264_src/common/predict.c:195:16
	movzbl	-32(%rdi), %eax
.Ltmp416:
	#DEBUG_VALUE: predict_8x8c_dc_top:dc0 <- $eax
	.loc	0 196 16                        # x264_src/common/predict.c:196:16
	movzbl	-28(%rdi), %ecx
.Ltmp417:
	#DEBUG_VALUE: x <- 1
	#DEBUG_VALUE: predict_8x8c_dc_top:dc1 <- $ecx
	.loc	0 195 16                        # x264_src/common/predict.c:195:16
	movzbl	-31(%rdi), %edx
	.loc	0 195 13 is_stmt 0              # x264_src/common/predict.c:195:13
	addl	%eax, %edx
.Ltmp418:
	#DEBUG_VALUE: predict_8x8c_dc_top:dc0 <- $edx
	.loc	0 196 16 is_stmt 1              # x264_src/common/predict.c:196:16
	movzbl	-27(%rdi), %eax
	.loc	0 196 13 is_stmt 0              # x264_src/common/predict.c:196:13
	addl	%ecx, %eax
.Ltmp419:
	#DEBUG_VALUE: predict_8x8c_dc_top:dc1 <- $eax
	#DEBUG_VALUE: x <- 2
	.loc	0 195 16 is_stmt 1              # x264_src/common/predict.c:195:16
	movzbl	-30(%rdi), %ecx
	.loc	0 195 13 is_stmt 0              # x264_src/common/predict.c:195:13
	addl	%edx, %ecx
.Ltmp420:
	#DEBUG_VALUE: predict_8x8c_dc_top:dc0 <- $ecx
	.loc	0 196 16 is_stmt 1              # x264_src/common/predict.c:196:16
	movzbl	-26(%rdi), %edx
	.loc	0 196 13 is_stmt 0              # x264_src/common/predict.c:196:13
	addl	%eax, %edx
.Ltmp421:
	#DEBUG_VALUE: predict_8x8c_dc_top:dc1 <- $edx
	#DEBUG_VALUE: x <- 3
	.loc	0 195 16 is_stmt 1              # x264_src/common/predict.c:195:16
	movzbl	-29(%rdi), %eax
.Ltmp422:
	#DEBUG_VALUE: predict_8x8c_dc_top:dc0 <- [DW_OP_LLVM_arg 0, DW_OP_LLVM_arg 1, DW_OP_plus, DW_OP_stack_value] $ecx, $eax
	.loc	0 196 16                        # x264_src/common/predict.c:196:16
	movzbl	-25(%rdi), %esi
.Ltmp423:
	#DEBUG_VALUE: x <- 4
	#DEBUG_VALUE: predict_8x8c_dc_top:dc1 <- [DW_OP_LLVM_arg 0, DW_OP_LLVM_arg 1, DW_OP_plus, DW_OP_stack_value] $edx, $esi
	.loc	0 198 18                        # x264_src/common/predict.c:198:18
	addl	%ecx, %eax
.Ltmp424:
	addl	$2, %eax
	.loc	0 198 24 is_stmt 0              # x264_src/common/predict.c:198:24
	shrl	$2, %eax
	.loc	0 198 29                        # x264_src/common/predict.c:198:29
	imull	$16843009, %eax, %eax           # imm = 0x1010101
.Ltmp425:
	#DEBUG_VALUE: predict_8x8c_dc_top:dc0 <- $eax
	.loc	0 199 18 is_stmt 1              # x264_src/common/predict.c:199:18
	leal	(%rsi,%rdx), %ecx
	addl	$2, %ecx
	.loc	0 199 24 is_stmt 0              # x264_src/common/predict.c:199:24
	shrl	$2, %ecx
	.loc	0 199 29                        # x264_src/common/predict.c:199:29
	imull	$16843009, %ecx, %ecx           # imm = 0x1010101
.Ltmp426:
	#DEBUG_VALUE: predict_8x8c_dc_top:dc1 <- $ecx
	#DEBUG_VALUE: y <- 0
	.loc	0 203 22 is_stmt 1              # x264_src/common/predict.c:203:22
	movl	%eax, (%rdi)
	.loc	0 204 22                        # x264_src/common/predict.c:204:22
	movl	%ecx, 4(%rdi)
.Ltmp427:
	#DEBUG_VALUE: y <- 1
	#DEBUG_VALUE: predict_8x8c_dc_top:src <- [DW_OP_plus_uconst 32, DW_OP_stack_value] $rdi
	.loc	0 203 22                        # x264_src/common/predict.c:203:22
	movl	%eax, 32(%rdi)
	.loc	0 204 22                        # x264_src/common/predict.c:204:22
	movl	%ecx, 36(%rdi)
.Ltmp428:
	#DEBUG_VALUE: y <- 2
	#DEBUG_VALUE: predict_8x8c_dc_top:src <- [DW_OP_plus_uconst 64, DW_OP_stack_value] $rdi
	.loc	0 203 22                        # x264_src/common/predict.c:203:22
	movl	%eax, 64(%rdi)
	.loc	0 204 22                        # x264_src/common/predict.c:204:22
	movl	%ecx, 68(%rdi)
.Ltmp429:
	#DEBUG_VALUE: y <- 3
	#DEBUG_VALUE: predict_8x8c_dc_top:src <- [DW_OP_plus_uconst 96, DW_OP_stack_value] $rdi
	.loc	0 203 22                        # x264_src/common/predict.c:203:22
	movl	%eax, 96(%rdi)
	.loc	0 204 22                        # x264_src/common/predict.c:204:22
	movl	%ecx, 100(%rdi)
.Ltmp430:
	#DEBUG_VALUE: y <- 4
	#DEBUG_VALUE: predict_8x8c_dc_top:src <- [DW_OP_plus_uconst 128, DW_OP_stack_value] $rdi
	.loc	0 203 22                        # x264_src/common/predict.c:203:22
	movl	%eax, 128(%rdi)
	.loc	0 204 22                        # x264_src/common/predict.c:204:22
	movl	%ecx, 132(%rdi)
.Ltmp431:
	#DEBUG_VALUE: y <- 5
	#DEBUG_VALUE: predict_8x8c_dc_top:src <- [DW_OP_plus_uconst 160, DW_OP_stack_value] $rdi
	.loc	0 203 22                        # x264_src/common/predict.c:203:22
	movl	%eax, 160(%rdi)
	.loc	0 204 22                        # x264_src/common/predict.c:204:22
	movl	%ecx, 164(%rdi)
.Ltmp432:
	#DEBUG_VALUE: y <- 6
	#DEBUG_VALUE: predict_8x8c_dc_top:src <- [DW_OP_plus_uconst 192, DW_OP_stack_value] $rdi
	.loc	0 203 22                        # x264_src/common/predict.c:203:22
	movl	%eax, 192(%rdi)
	.loc	0 204 22                        # x264_src/common/predict.c:204:22
	movl	%ecx, 196(%rdi)
.Ltmp433:
	#DEBUG_VALUE: y <- 7
	#DEBUG_VALUE: predict_8x8c_dc_top:src <- [DW_OP_plus_uconst 224, DW_OP_stack_value] $rdi
	.loc	0 203 22                        # x264_src/common/predict.c:203:22
	movl	%eax, 224(%rdi)
	.loc	0 204 22                        # x264_src/common/predict.c:204:22
	movl	%ecx, 228(%rdi)
.Ltmp434:
	#DEBUG_VALUE: y <- 8
	#DEBUG_VALUE: predict_8x8c_dc_top:src <- [DW_OP_plus_uconst 224, DW_OP_plus_uconst 32, DW_OP_stack_value] $rdi
	.loc	0 207 1                         # x264_src/common/predict.c:207:1
	retq
.Ltmp435:
.Lfunc_end14:
	.size	predict_8x8c_dc_top, .Lfunc_end14-predict_8x8c_dc_top
	.cfi_endproc
                                        # -- End function
	.p2align	4, 0x90                         # -- Begin function predict_8x8c_dc_128
	.type	predict_8x8c_dc_128,@function
predict_8x8c_dc_128:                    # @predict_8x8c_dc_128
.Lfunc_begin15:
	.loc	0 155 0                         # x264_src/common/predict.c:155:0
	.cfi_startproc
# %bb.0:                                # %entry
	#DEBUG_VALUE: predict_8x8c_dc_128:src <- $rdi
	#DEBUG_VALUE: y <- 0
	movabsq	$-9187201950435737472, %rax     # imm = 0x8080808080808080
.Ltmp436:
	.loc	0 158 22 prologue_end           # x264_src/common/predict.c:158:22
	movq	%rax, (%rdi)
.Ltmp437:
	#DEBUG_VALUE: y <- 1
	#DEBUG_VALUE: predict_8x8c_dc_128:src <- [DW_OP_plus_uconst 32, DW_OP_stack_value] $rdi
	movq	%rax, 32(%rdi)
.Ltmp438:
	#DEBUG_VALUE: y <- 2
	#DEBUG_VALUE: predict_8x8c_dc_128:src <- [DW_OP_plus_uconst 64, DW_OP_stack_value] $rdi
	movq	%rax, 64(%rdi)
.Ltmp439:
	#DEBUG_VALUE: y <- 3
	#DEBUG_VALUE: predict_8x8c_dc_128:src <- [DW_OP_plus_uconst 96, DW_OP_stack_value] $rdi
	movq	%rax, 96(%rdi)
.Ltmp440:
	#DEBUG_VALUE: y <- 4
	#DEBUG_VALUE: predict_8x8c_dc_128:src <- [DW_OP_plus_uconst 128, DW_OP_stack_value] $rdi
	movq	%rax, 128(%rdi)
.Ltmp441:
	#DEBUG_VALUE: y <- 5
	#DEBUG_VALUE: predict_8x8c_dc_128:src <- [DW_OP_plus_uconst 160, DW_OP_stack_value] $rdi
	movq	%rax, 160(%rdi)
.Ltmp442:
	#DEBUG_VALUE: y <- 6
	#DEBUG_VALUE: predict_8x8c_dc_128:src <- [DW_OP_plus_uconst 192, DW_OP_stack_value] $rdi
	movq	%rax, 192(%rdi)
.Ltmp443:
	#DEBUG_VALUE: y <- 7
	#DEBUG_VALUE: predict_8x8c_dc_128:src <- [DW_OP_plus_uconst 224, DW_OP_stack_value] $rdi
	movq	%rax, 224(%rdi)
.Ltmp444:
	#DEBUG_VALUE: y <- 8
	#DEBUG_VALUE: predict_8x8c_dc_128:src <- [DW_OP_plus_uconst 224, DW_OP_plus_uconst 32, DW_OP_stack_value] $rdi
	.loc	0 162 1                         # x264_src/common/predict.c:162:1
	retq
.Ltmp445:
.Lfunc_end15:
	.size	predict_8x8c_dc_128, .Lfunc_end15-predict_8x8c_dc_128
	.cfi_endproc
                                        # -- End function
	.globl	x264_predict_8x8_init           # -- Begin function x264_predict_8x8_init
	.p2align	4, 0x90
	.type	x264_predict_8x8_init,@function
x264_predict_8x8_init:                  # @x264_predict_8x8_init
.Lfunc_begin16:
	.cfi_startproc
# %bb.0:                                # %entry
	#DEBUG_VALUE: x264_predict_8x8_init:cpu <- $edi
	#DEBUG_VALUE: x264_predict_8x8_init:pf <- $rsi
	#DEBUG_VALUE: x264_predict_8x8_init:predict_filter <- $rdx
	.loc	0 760 27 prologue_end           # x264_src/common/predict.c:760:27
	movq	$predict_8x8_v, (%rsi)
	.loc	0 761 27                        # x264_src/common/predict.c:761:27
	movq	$predict_8x8_h, 8(%rsi)
	.loc	0 762 27                        # x264_src/common/predict.c:762:27
	movq	$predict_8x8_dc, 16(%rsi)
	.loc	0 763 27                        # x264_src/common/predict.c:763:27
	movq	$predict_8x8_ddl, 24(%rsi)
	.loc	0 764 27                        # x264_src/common/predict.c:764:27
	movq	$predict_8x8_ddr, 32(%rsi)
	.loc	0 765 27                        # x264_src/common/predict.c:765:27
	movq	$predict_8x8_vr, 40(%rsi)
	.loc	0 766 27                        # x264_src/common/predict.c:766:27
	movq	$predict_8x8_hd, 48(%rsi)
	.loc	0 767 27                        # x264_src/common/predict.c:767:27
	movq	$predict_8x8_vl, 56(%rsi)
	.loc	0 768 27                        # x264_src/common/predict.c:768:27
	movq	$predict_8x8_hu, 64(%rsi)
	.loc	0 769 27                        # x264_src/common/predict.c:769:27
	movq	$predict_8x8_dc_left, 72(%rsi)
	.loc	0 770 27                        # x264_src/common/predict.c:770:27
	movq	$predict_8x8_dc_top, 80(%rsi)
	.loc	0 771 27                        # x264_src/common/predict.c:771:27
	movq	$predict_8x8_dc_128, 88(%rsi)
	.loc	0 772 27                        # x264_src/common/predict.c:772:27
	movq	$predict_8x8_filter, (%rdx)
	.loc	0 781 1                         # x264_src/common/predict.c:781:1
	retq
.Ltmp446:
.Lfunc_end16:
	.size	x264_predict_8x8_init, .Lfunc_end16-x264_predict_8x8_init
	.cfi_endproc
                                        # -- End function
	.p2align	4, 0x90                         # -- Begin function predict_8x8_v
	.type	predict_8x8_v,@function
predict_8x8_v:                          # @predict_8x8_v
.Lfunc_begin17:
	.cfi_startproc
# %bb.0:                                # %entry
	#DEBUG_VALUE: predict_8x8_v:src <- $rdi
	#DEBUG_VALUE: predict_8x8_v:edge <- $rsi
	.loc	0 558 20 prologue_end           # x264_src/common/predict.c:558:20
	movq	16(%rsi), %rax
.Ltmp447:
	#DEBUG_VALUE: predict_8x8_v:top <- $rax
	#DEBUG_VALUE: y <- 0
	.loc	0 560 34                        # x264_src/common/predict.c:560:34
	movq	%rax, (%rdi)
.Ltmp448:
	#DEBUG_VALUE: y <- 1
	movq	%rax, 32(%rdi)
.Ltmp449:
	#DEBUG_VALUE: y <- 2
	movq	%rax, 64(%rdi)
.Ltmp450:
	#DEBUG_VALUE: y <- 3
	movq	%rax, 96(%rdi)
.Ltmp451:
	#DEBUG_VALUE: y <- 4
	movq	%rax, 128(%rdi)
.Ltmp452:
	#DEBUG_VALUE: y <- 5
	movq	%rax, 160(%rdi)
.Ltmp453:
	#DEBUG_VALUE: y <- 6
	movq	%rax, 192(%rdi)
.Ltmp454:
	#DEBUG_VALUE: y <- 7
	movq	%rax, 224(%rdi)
.Ltmp455:
	#DEBUG_VALUE: y <- 8
	.loc	0 561 1                         # x264_src/common/predict.c:561:1
	retq
.Ltmp456:
.Lfunc_end17:
	.size	predict_8x8_v, .Lfunc_end17-predict_8x8_v
	.cfi_endproc
                                        # -- End function
	.p2align	4, 0x90                         # -- Begin function predict_8x8_h
	.type	predict_8x8_h,@function
predict_8x8_h:                          # @predict_8x8_h
.Lfunc_begin18:
	.cfi_startproc
# %bb.0:                                # %entry
	#DEBUG_VALUE: predict_8x8_h:src <- $rdi
	#DEBUG_VALUE: predict_8x8_h:edge <- $rsi
	.loc	0 550 5 prologue_end            # x264_src/common/predict.c:550:5
	movzbl	14(%rsi), %eax
.Ltmp457:
	#DEBUG_VALUE: predict_8x8_h:l0 <- $eax
	movzbl	13(%rsi), %ecx
.Ltmp458:
	#DEBUG_VALUE: predict_8x8_h:l1 <- $ecx
	movzbl	12(%rsi), %edx
.Ltmp459:
	#DEBUG_VALUE: predict_8x8_h:l2 <- $edx
	movzbl	11(%rsi), %r8d
.Ltmp460:
	#DEBUG_VALUE: predict_8x8_h:l3 <- $r8d
	movzbl	10(%rsi), %r9d
.Ltmp461:
	#DEBUG_VALUE: predict_8x8_h:l4 <- $r9d
	movzbl	9(%rsi), %r10d
.Ltmp462:
	#DEBUG_VALUE: predict_8x8_h:l5 <- $r10d
	movzbl	8(%rsi), %r11d
.Ltmp463:
	#DEBUG_VALUE: predict_8x8_h:l6 <- $r11d
	movzbl	7(%rsi), %esi
.Ltmp464:
	#DEBUG_VALUE: predict_8x8_h:edge <- [DW_OP_LLVM_entry_value 1] $rsi
	#DEBUG_VALUE: predict_8x8_h:l7 <- $esi
	.loc	0 553 5                         # x264_src/common/predict.c:553:5
	imull	$16843009, %eax, %eax           # imm = 0x1010101
.Ltmp465:
	movl	%eax, 4(%rdi)
	movl	%eax, (%rdi)
	.loc	0 553 13 is_stmt 0              # x264_src/common/predict.c:553:13
	imull	$16843009, %ecx, %eax           # imm = 0x1010101
	movl	%eax, 36(%rdi)
	movl	%eax, 32(%rdi)
	.loc	0 553 21                        # x264_src/common/predict.c:553:21
	imull	$16843009, %edx, %eax           # imm = 0x1010101
	movl	%eax, 68(%rdi)
	movl	%eax, 64(%rdi)
	.loc	0 553 29                        # x264_src/common/predict.c:553:29
	imull	$16843009, %r8d, %eax           # imm = 0x1010101
	movl	%eax, 100(%rdi)
	movl	%eax, 96(%rdi)
	.loc	0 553 37                        # x264_src/common/predict.c:553:37
	imull	$16843009, %r9d, %eax           # imm = 0x1010101
	movl	%eax, 132(%rdi)
	movl	%eax, 128(%rdi)
	.loc	0 553 45                        # x264_src/common/predict.c:553:45
	imull	$16843009, %r10d, %eax          # imm = 0x1010101
	movl	%eax, 164(%rdi)
	movl	%eax, 160(%rdi)
	.loc	0 553 53                        # x264_src/common/predict.c:553:53
	imull	$16843009, %r11d, %eax          # imm = 0x1010101
	movl	%eax, 196(%rdi)
	movl	%eax, 192(%rdi)
	.loc	0 553 61                        # x264_src/common/predict.c:553:61
	imull	$16843009, %esi, %eax           # imm = 0x1010101
	movl	%eax, 228(%rdi)
	movl	%eax, 224(%rdi)
	.loc	0 555 1 is_stmt 1               # x264_src/common/predict.c:555:1
	retq
.Ltmp466:
.Lfunc_end18:
	.size	predict_8x8_h, .Lfunc_end18-predict_8x8_h
	.cfi_endproc
                                        # -- End function
	.p2align	4, 0x90                         # -- Begin function predict_8x8_dc
	.type	predict_8x8_dc,@function
predict_8x8_dc:                         # @predict_8x8_dc
.Lfunc_begin19:
	.cfi_startproc
# %bb.0:                                # %entry
	#DEBUG_VALUE: predict_8x8_dc:src <- $rdi
	#DEBUG_VALUE: predict_8x8_dc:edge <- $rsi
	.loc	0 542 5 prologue_end            # x264_src/common/predict.c:542:5
	movzbl	14(%rsi), %eax
.Ltmp467:
	#DEBUG_VALUE: predict_8x8_dc:l0 <- $eax
	movzbl	13(%rsi), %ecx
.Ltmp468:
	#DEBUG_VALUE: predict_8x8_dc:l1 <- $ecx
	.loc	0 544 23                        # x264_src/common/predict.c:544:23
	addl	%eax, %ecx
.Ltmp469:
	.loc	0 542 5                         # x264_src/common/predict.c:542:5
	movzbl	12(%rsi), %eax
.Ltmp470:
	#DEBUG_VALUE: predict_8x8_dc:l2 <- $eax
	movzbl	11(%rsi), %edx
.Ltmp471:
	#DEBUG_VALUE: predict_8x8_dc:l3 <- $edx
	.loc	0 544 26                        # x264_src/common/predict.c:544:26
	addl	%eax, %edx
.Ltmp472:
	.loc	0 544 29 is_stmt 0              # x264_src/common/predict.c:544:29
	addl	%ecx, %edx
	.loc	0 542 5 is_stmt 1               # x264_src/common/predict.c:542:5
	movzbl	10(%rsi), %eax
.Ltmp473:
	#DEBUG_VALUE: predict_8x8_dc:l4 <- $eax
	movzbl	9(%rsi), %ecx
.Ltmp474:
	#DEBUG_VALUE: predict_8x8_dc:l5 <- $ecx
	.loc	0 544 32                        # x264_src/common/predict.c:544:32
	addl	%eax, %ecx
.Ltmp475:
	.loc	0 542 5                         # x264_src/common/predict.c:542:5
	movzbl	8(%rsi), %eax
.Ltmp476:
	#DEBUG_VALUE: predict_8x8_dc:l6 <- $eax
	.loc	0 544 35                        # x264_src/common/predict.c:544:35
	addl	%ecx, %eax
.Ltmp477:
	.loc	0 544 38 is_stmt 0              # x264_src/common/predict.c:544:38
	addl	%edx, %eax
	.loc	0 542 5 is_stmt 1               # x264_src/common/predict.c:542:5
	movzbl	7(%rsi), %ecx
.Ltmp478:
	#DEBUG_VALUE: predict_8x8_dc:l7 <- $ecx
	.loc	0 543 5                         # x264_src/common/predict.c:543:5
	movzbl	16(%rsi), %edx
.Ltmp479:
	#DEBUG_VALUE: predict_8x8_dc:t0 <- $edx
	.loc	0 544 41                        # x264_src/common/predict.c:544:41
	addl	%ecx, %edx
.Ltmp480:
	.loc	0 543 5                         # x264_src/common/predict.c:543:5
	movzbl	17(%rsi), %ecx
.Ltmp481:
	#DEBUG_VALUE: predict_8x8_dc:t1 <- $ecx
	.loc	0 545 20                        # x264_src/common/predict.c:545:20
	addl	%edx, %ecx
.Ltmp482:
	.loc	0 543 5                         # x264_src/common/predict.c:543:5
	movzbl	18(%rsi), %edx
.Ltmp483:
	#DEBUG_VALUE: predict_8x8_dc:t2 <- $edx
	.loc	0 545 23                        # x264_src/common/predict.c:545:23
	addl	%ecx, %edx
.Ltmp484:
	.loc	0 545 26 is_stmt 0              # x264_src/common/predict.c:545:26
	addl	%eax, %edx
	.loc	0 543 5 is_stmt 1               # x264_src/common/predict.c:543:5
	movzbl	19(%rsi), %eax
.Ltmp485:
	#DEBUG_VALUE: predict_8x8_dc:t3 <- $eax
	movzbl	20(%rsi), %ecx
.Ltmp486:
	#DEBUG_VALUE: predict_8x8_dc:t4 <- $ecx
	.loc	0 545 29                        # x264_src/common/predict.c:545:29
	addl	%eax, %ecx
.Ltmp487:
	.loc	0 543 5                         # x264_src/common/predict.c:543:5
	movzbl	21(%rsi), %eax
.Ltmp488:
	#DEBUG_VALUE: predict_8x8_dc:t5 <- $eax
	.loc	0 545 32                        # x264_src/common/predict.c:545:32
	addl	%ecx, %eax
.Ltmp489:
	.loc	0 543 5                         # x264_src/common/predict.c:543:5
	movzbl	22(%rsi), %ecx
.Ltmp490:
	#DEBUG_VALUE: predict_8x8_dc:t6 <- $ecx
	.loc	0 545 35                        # x264_src/common/predict.c:545:35
	addl	%eax, %ecx
.Ltmp491:
	.loc	0 545 38 is_stmt 0              # x264_src/common/predict.c:545:38
	addl	%edx, %ecx
	.loc	0 543 5 is_stmt 1               # x264_src/common/predict.c:543:5
	movzbl	23(%rsi), %eax
.Ltmp492:
	#DEBUG_VALUE: predict_8x8_dc:t7 <- $eax
	.loc	0 545 44                        # x264_src/common/predict.c:545:44
	addl	%ecx, %eax
.Ltmp493:
	addl	$8, %eax
	.loc	0 545 48 is_stmt 0              # x264_src/common/predict.c:545:48
	shrl	$4, %eax
	.loc	0 545 54                        # x264_src/common/predict.c:545:54
	imull	$16843009, %eax, %eax           # imm = 0x1010101
.Ltmp494:
	#DEBUG_VALUE: predict_8x8_dc:dc <- $eax
	#DEBUG_VALUE: y <- 0
	.loc	0 546 5 is_stmt 1               # x264_src/common/predict.c:546:5
	movl	%eax, (%rdi)
	movl	%eax, 4(%rdi)
.Ltmp495:
	#DEBUG_VALUE: y <- 1
	#DEBUG_VALUE: predict_8x8_dc:src <- [DW_OP_plus_uconst 32, DW_OP_stack_value] $rdi
	movl	%eax, 32(%rdi)
	movl	%eax, 36(%rdi)
.Ltmp496:
	#DEBUG_VALUE: y <- 2
	#DEBUG_VALUE: predict_8x8_dc:src <- [DW_OP_plus_uconst 64, DW_OP_stack_value] $rdi
	movl	%eax, 64(%rdi)
	movl	%eax, 68(%rdi)
.Ltmp497:
	#DEBUG_VALUE: y <- 3
	#DEBUG_VALUE: predict_8x8_dc:src <- [DW_OP_plus_uconst 96, DW_OP_stack_value] $rdi
	movl	%eax, 96(%rdi)
	movl	%eax, 100(%rdi)
.Ltmp498:
	#DEBUG_VALUE: y <- 4
	#DEBUG_VALUE: predict_8x8_dc:src <- [DW_OP_plus_uconst 128, DW_OP_stack_value] $rdi
	movl	%eax, 128(%rdi)
	movl	%eax, 132(%rdi)
.Ltmp499:
	#DEBUG_VALUE: y <- 5
	#DEBUG_VALUE: predict_8x8_dc:src <- [DW_OP_plus_uconst 160, DW_OP_stack_value] $rdi
	movl	%eax, 160(%rdi)
	movl	%eax, 164(%rdi)
.Ltmp500:
	#DEBUG_VALUE: y <- 6
	#DEBUG_VALUE: predict_8x8_dc:src <- [DW_OP_plus_uconst 192, DW_OP_stack_value] $rdi
	movl	%eax, 192(%rdi)
	movl	%eax, 196(%rdi)
.Ltmp501:
	#DEBUG_VALUE: y <- 7
	#DEBUG_VALUE: predict_8x8_dc:src <- [DW_OP_plus_uconst 224, DW_OP_stack_value] $rdi
	movl	%eax, 224(%rdi)
	movl	%eax, 228(%rdi)
.Ltmp502:
	#DEBUG_VALUE: y <- 8
	#DEBUG_VALUE: predict_8x8_dc:src <- [DW_OP_plus_uconst 224, DW_OP_plus_uconst 32, DW_OP_stack_value] $rdi
	.loc	0 547 1                         # x264_src/common/predict.c:547:1
	retq
.Ltmp503:
.Lfunc_end19:
	.size	predict_8x8_dc, .Lfunc_end19-predict_8x8_dc
	.cfi_endproc
                                        # -- End function
	.section	.rodata.cst16,"aM",@progbits,16
	.p2align	4, 0x0                          # -- Begin function predict_8x8_ddl
.LCPI20_0:
	.short	2                               # 0x2
	.short	2                               # 0x2
	.short	2                               # 0x2
	.short	2                               # 0x2
	.zero	2
	.zero	2
	.zero	2
	.zero	2
.LCPI20_1:
	.short	255                             # 0xff
	.short	255                             # 0xff
	.short	255                             # 0xff
	.short	255                             # 0xff
	.short	255                             # 0xff
	.short	255                             # 0xff
	.short	255                             # 0xff
	.short	255                             # 0xff
	.text
	.p2align	4, 0x90
	.type	predict_8x8_ddl,@function
predict_8x8_ddl:                        # @predict_8x8_ddl
.Lfunc_begin20:
	.loc	0 563 0                         # x264_src/common/predict.c:563:0
	.cfi_startproc
# %bb.0:                                # %entry
	#DEBUG_VALUE: predict_8x8_ddl:src <- $rdi
	#DEBUG_VALUE: predict_8x8_ddl:edge <- $rsi
	pushq	%rbp
	.cfi_def_cfa_offset 16
	pushq	%r14
	.cfi_def_cfa_offset 24
	pushq	%rbx
	.cfi_def_cfa_offset 32
	.cfi_offset %rbx, -32
	.cfi_offset %r14, -24
	.cfi_offset %rbp, -16
	.loc	0 564 5 prologue_end            # x264_src/common/predict.c:564:5
	movzbl	16(%rsi), %r9d
.Ltmp504:
	#DEBUG_VALUE: predict_8x8_ddl:t0 <- $r9d
	movzbl	17(%rsi), %r10d
.Ltmp505:
	#DEBUG_VALUE: predict_8x8_ddl:t1 <- $r10d
	movzbl	18(%rsi), %r11d
.Ltmp506:
	#DEBUG_VALUE: predict_8x8_ddl:t2 <- $r11d
	movzbl	19(%rsi), %ebx
.Ltmp507:
	#DEBUG_VALUE: predict_8x8_ddl:t3 <- $ebx
	.loc	0 565 5                         # x264_src/common/predict.c:565:5
	movzbl	28(%rsi), %r8d
.Ltmp508:
	#DEBUG_VALUE: predict_8x8_ddl:t12 <- $r8d
	movzbl	29(%rsi), %eax
	movzwl	%ax, %edx
.Ltmp509:
	#DEBUG_VALUE: predict_8x8_ddl:t13 <- $edx
	movzbl	30(%rsi), %eax
.Ltmp510:
	#DEBUG_VALUE: predict_8x8_ddl:t14 <- $eax
	movzbl	31(%rsi), %ecx
.Ltmp511:
	#DEBUG_VALUE: predict_8x8_ddl:t15 <- $ecx
	.loc	0 566 15                        # x264_src/common/predict.c:566:15
	addl	%r11d, %r9d
.Ltmp512:
	addl	$2, %r9d
	leal	(%r9,%r10,2), %r9d
	shrl	$2, %r9d
	.loc	0 567 24                        # x264_src/common/predict.c:567:24
	addl	%ebx, %r10d
.Ltmp513:
	addl	$2, %r10d
	leal	(%r10,%r11,2), %r10d
	shrl	$2, %r10d
	.loc	0 568 33                        # x264_src/common/predict.c:568:33
	leal	(%r11,%rbx,2), %r11d
.Ltmp514:
	addl	$2, %r11d
	.loc	0 564 5                         # x264_src/common/predict.c:564:5
	movd	20(%rsi), %xmm1                 # xmm1 = mem[0],zero,zero,zero
	pxor	%xmm0, %xmm0
	punpcklbw	%xmm0, %xmm1            # xmm1 = xmm1[0],xmm0[0],xmm1[1],xmm0[1],xmm1[2],xmm0[2],xmm1[3],xmm0[3],xmm1[4],xmm0[4],xmm1[5],xmm0[5],xmm1[6],xmm0[6],xmm1[7],xmm0[7]
	.loc	0 569 42                        # x264_src/common/predict.c:569:42
	pextrw	$0, %xmm1, %r14d
	.loc	0 568 33                        # x264_src/common/predict.c:568:33
	addl	%r14d, %r11d
	.loc	0 569 42                        # x264_src/common/predict.c:569:42
	leal	(%rbx,%r14,2), %ebp
	addl	$2, %ebp
	pextrw	$1, %xmm1, %ebx
.Ltmp515:
	.loc	0 568 33                        # x264_src/common/predict.c:568:33
	shrl	$2, %r11d
	.loc	0 569 42                        # x264_src/common/predict.c:569:42
	addl	%ebp, %ebx
	.loc	0 565 5                         # x264_src/common/predict.c:565:5
	movl	24(%rsi), %esi
.Ltmp516:
	#DEBUG_VALUE: predict_8x8_ddl:edge <- [DW_OP_LLVM_entry_value 1] $rsi
	.loc	0 570 51                        # x264_src/common/predict.c:570:51
	movzbl	%sil, %ebp
	.loc	0 565 5                         # x264_src/common/predict.c:565:5
	movd	%esi, %xmm2
	punpcklbw	%xmm0, %xmm2            # xmm2 = xmm2[0],xmm0[0],xmm2[1],xmm0[1],xmm2[2],xmm0[2],xmm2[3],xmm0[3],xmm2[4],xmm0[4],xmm2[5],xmm0[5],xmm2[6],xmm0[6],xmm2[7],xmm0[7]
	.loc	0 570 51                        # x264_src/common/predict.c:570:51
	pshufd	$85, %xmm1, %xmm0               # xmm0 = xmm1[1,1,1,1]
	punpckldq	%xmm2, %xmm0            # xmm0 = xmm0[0],xmm2[0],xmm0[1],xmm2[1]
	paddw	%xmm1, %xmm0
	pinsrw	$0, %ebp, %xmm1
	.loc	0 569 42                        # x264_src/common/predict.c:569:42
	shrl	$2, %ebx
	.loc	0 570 51                        # x264_src/common/predict.c:570:51
	paddw	%xmm1, %xmm1
	pshuflw	$57, %xmm1, %xmm1               # xmm1 = xmm1[1,2,3,0,4,5,6,7]
	movdqa	.LCPI20_0(%rip), %xmm3          # xmm3 = [2,2,2,2,u,u,u,u]
	.loc	0 566 13                        # x264_src/common/predict.c:566:13
	movb	%r9b, (%rdi)
	.loc	0 567 22                        # x264_src/common/predict.c:567:22
	movb	%r10b, 1(%rdi)
	.loc	0 567 13 is_stmt 0              # x264_src/common/predict.c:567:13
	movb	%r10b, 32(%rdi)
	.loc	0 568 31 is_stmt 1              # x264_src/common/predict.c:568:31
	movb	%r11b, 2(%rdi)
	.loc	0 568 22 is_stmt 0              # x264_src/common/predict.c:568:22
	movb	%r11b, 33(%rdi)
	.loc	0 568 13                        # x264_src/common/predict.c:568:13
	movb	%r11b, 64(%rdi)
	.loc	0 569 40 is_stmt 1              # x264_src/common/predict.c:569:40
	movb	%bl, 3(%rdi)
	.loc	0 569 31 is_stmt 0              # x264_src/common/predict.c:569:31
	movb	%bl, 34(%rdi)
	.loc	0 569 22                        # x264_src/common/predict.c:569:22
	movb	%bl, 65(%rdi)
	.loc	0 569 13                        # x264_src/common/predict.c:569:13
	movb	%bl, 96(%rdi)
	.loc	0 570 51 is_stmt 1              # x264_src/common/predict.c:570:51
	paddw	%xmm3, %xmm0
	paddw	%xmm1, %xmm0
	psrlw	$2, %xmm0
	movdqa	.LCPI20_1(%rip), %xmm1          # xmm1 = [255,255,255,255,255,255,255,255]
	pand	%xmm1, %xmm0
	packuswb	%xmm0, %xmm0
	.loc	0 570 49 is_stmt 0              # x264_src/common/predict.c:570:49
	movd	%xmm0, 4(%rdi)
	.loc	0 570 40                        # x264_src/common/predict.c:570:40
	movd	%xmm0, 35(%rdi)
	.loc	0 570 31                        # x264_src/common/predict.c:570:31
	movd	%xmm0, 66(%rdi)
	.loc	0 570 22                        # x264_src/common/predict.c:570:22
	movd	%xmm0, 97(%rdi)
	.loc	0 570 13                        # x264_src/common/predict.c:570:13
	movd	%xmm0, 128(%rdi)
	.loc	0 574 69 is_stmt 1              # x264_src/common/predict.c:574:69
	movdqa	%xmm2, %xmm4
	pinsrw	$0, %r8d, %xmm4
	paddw	%xmm4, %xmm4
	pshuflw	$57, %xmm4, %xmm4               # xmm4 = xmm4[1,2,3,0,4,5,6,7]
	paddw	%xmm2, %xmm4
	pshufd	$85, %xmm2, %xmm2               # xmm2 = xmm2[1,1,1,1]
	pinsrw	$2, %r8d, %xmm2
	pinsrw	$3, %edx, %xmm2
	paddw	%xmm4, %xmm2
	paddw	%xmm3, %xmm2
	psrlw	$2, %xmm2
	movdqa	%xmm2, -16(%rsp)
	pand	%xmm2, %xmm1
	packuswb	%xmm1, %xmm1
	movzbl	-10(%rsp), %esi
	movzbl	-12(%rsp), %r9d
	movzbl	-16(%rsp), %r10d
	movzbl	-14(%rsp), %r11d
	.loc	0 574 67 is_stmt 0              # x264_src/common/predict.c:574:67
	movb	%r10b, 39(%rdi)
	.loc	0 574 58                        # x264_src/common/predict.c:574:58
	movb	%r10b, 70(%rdi)
	.loc	0 574 49                        # x264_src/common/predict.c:574:49
	movb	%r10b, 101(%rdi)
	.loc	0 571 13 is_stmt 1              # x264_src/common/predict.c:571:13
	pslld	$24, %xmm2
	movdqa	%xmm0, %xmm3
	psrld	$8, %xmm3
	por	%xmm2, %xmm3
	movd	%xmm3, 160(%rdi)
	.loc	0 575 58                        # x264_src/common/predict.c:575:58
	movb	%r11b, 71(%rdi)
	.loc	0 575 49 is_stmt 0              # x264_src/common/predict.c:575:49
	movb	%r11b, 102(%rdi)
	.loc	0 575 31                        # x264_src/common/predict.c:575:31
	movb	%r11b, 164(%rdi)
	.loc	0 572 13 is_stmt 1              # x264_src/common/predict.c:572:13
	movdqa	%xmm0, %xmm2
	psrld	$16, %xmm2
	punpcklwd	%xmm1, %xmm2            # xmm2 = xmm2[0],xmm1[0],xmm2[1],xmm1[1],xmm2[2],xmm1[2],xmm2[3],xmm1[3]
	movd	%xmm2, 192(%rdi)
	.loc	0 576 49                        # x264_src/common/predict.c:576:49
	movb	%r9b, 103(%rdi)
	.loc	0 576 31 is_stmt 0              # x264_src/common/predict.c:576:31
	movb	%r9b, 165(%rdi)
	.loc	0 576 22                        # x264_src/common/predict.c:576:22
	movb	%r9b, 196(%rdi)
	.loc	0 573 13 is_stmt 1              # x264_src/common/predict.c:573:13
	psrld	$24, %xmm0
	movdqa	%xmm1, %xmm2
	pslld	$8, %xmm2
	por	%xmm0, %xmm2
	movd	%xmm2, 224(%rdi)
	.loc	0 574 40                        # x264_src/common/predict.c:574:40
	movd	%xmm1, 132(%rdi)
	.loc	0 577 31                        # x264_src/common/predict.c:577:31
	movb	%sil, 166(%rdi)
	.loc	0 577 22 is_stmt 0              # x264_src/common/predict.c:577:22
	movb	%sil, 197(%rdi)
	.loc	0 577 13                        # x264_src/common/predict.c:577:13
	movb	%sil, 228(%rdi)
	.loc	0 578 33 is_stmt 1              # x264_src/common/predict.c:578:33
	leal	(%r8,%rdx,2), %esi
	addl	%eax, %esi
	addl	$2, %esi
	shrl	$2, %esi
	.loc	0 578 31 is_stmt 0              # x264_src/common/predict.c:578:31
	movb	%sil, 167(%rdi)
	.loc	0 578 22                        # x264_src/common/predict.c:578:22
	movb	%sil, 198(%rdi)
	.loc	0 578 13                        # x264_src/common/predict.c:578:13
	movb	%sil, 229(%rdi)
	.loc	0 579 24 is_stmt 1              # x264_src/common/predict.c:579:24
	leal	(%rdx,%rax,2), %edx
.Ltmp517:
	addl	%ecx, %edx
	addl	$2, %edx
	shrl	$2, %edx
	.loc	0 579 22 is_stmt 0              # x264_src/common/predict.c:579:22
	movb	%dl, 199(%rdi)
	.loc	0 579 13                        # x264_src/common/predict.c:579:13
	movb	%dl, 230(%rdi)
	.loc	0 580 15 is_stmt 1              # x264_src/common/predict.c:580:15
	addl	%ecx, %eax
.Ltmp518:
	leal	(%rax,%rcx,2), %eax
	addl	$2, %eax
	shrl	$2, %eax
	.loc	0 580 13 is_stmt 0              # x264_src/common/predict.c:580:13
	movb	%al, 231(%rdi)
	.loc	0 581 1 epilogue_begin is_stmt 1 # x264_src/common/predict.c:581:1
	popq	%rbx
	.cfi_def_cfa_offset 24
	popq	%r14
	.cfi_def_cfa_offset 16
	popq	%rbp
	.cfi_def_cfa_offset 8
	retq
.Ltmp519:
.Lfunc_end20:
	.size	predict_8x8_ddl, .Lfunc_end20-predict_8x8_ddl
	.cfi_endproc
                                        # -- End function
	.section	.rodata.cst16,"aM",@progbits,16
	.p2align	4, 0x0                          # -- Begin function predict_8x8_ddr
.LCPI21_0:
	.short	2                               # 0x2
	.short	2                               # 0x2
	.short	2                               # 0x2
	.short	2                               # 0x2
	.zero	2
	.zero	2
	.zero	2
	.zero	2
.LCPI21_1:
	.short	255                             # 0xff
	.short	255                             # 0xff
	.short	255                             # 0xff
	.short	255                             # 0xff
	.short	255                             # 0xff
	.short	255                             # 0xff
	.short	255                             # 0xff
	.short	255                             # 0xff
	.text
	.p2align	4, 0x90
	.type	predict_8x8_ddr,@function
predict_8x8_ddr:                        # @predict_8x8_ddr
.Lfunc_begin21:
	.loc	0 583 0                         # x264_src/common/predict.c:583:0
	.cfi_startproc
# %bb.0:                                # %entry
	#DEBUG_VALUE: predict_8x8_ddr:src <- $rdi
	#DEBUG_VALUE: predict_8x8_ddr:edge <- $rsi
	pushq	%rbp
	.cfi_def_cfa_offset 16
	pushq	%r15
	.cfi_def_cfa_offset 24
	pushq	%r14
	.cfi_def_cfa_offset 32
	pushq	%r12
	.cfi_def_cfa_offset 40
	pushq	%rbx
	.cfi_def_cfa_offset 48
	.cfi_offset %rbx, -48
	.cfi_offset %r12, -40
	.cfi_offset %r14, -32
	.cfi_offset %r15, -24
	.cfi_offset %rbp, -16
	.loc	0 584 5 prologue_end            # x264_src/common/predict.c:584:5
	movzbl	16(%rsi), %r8d
.Ltmp520:
	#DEBUG_VALUE: predict_8x8_ddr:t0 <- $r8d
	movzbl	17(%rsi), %eax
.Ltmp521:
	#DEBUG_VALUE: predict_8x8_ddr:t1 <- $eax
	#DEBUG_VALUE: predict_8x8_ddr:t6 <- undef
	#DEBUG_VALUE: predict_8x8_ddr:t7 <- undef
	.loc	0 585 5                         # x264_src/common/predict.c:585:5
	movzbl	10(%rsi), %ebx
.Ltmp522:
	#DEBUG_VALUE: predict_8x8_ddr:l4 <- $ebx
	movzbl	9(%rsi), %ecx
	movzwl	%cx, %r14d
.Ltmp523:
	#DEBUG_VALUE: predict_8x8_ddr:l5 <- $r14d
	movzbl	8(%rsi), %ecx
.Ltmp524:
	#DEBUG_VALUE: predict_8x8_ddr:l6 <- $ecx
	movzbl	7(%rsi), %edx
.Ltmp525:
	#DEBUG_VALUE: predict_8x8_ddr:l7 <- $edx
	.loc	0 586 5                         # x264_src/common/predict.c:586:5
	movzbl	15(%rsi), %r10d
.Ltmp526:
	#DEBUG_VALUE: predict_8x8_ddr:lt <- $r10d
	.loc	0 587 15                        # x264_src/common/predict.c:587:15
	addl	%r14d, %edx
.Ltmp527:
	leal	(%rdx,%rcx,2), %r9d
	addl	$2, %r9d
	shrl	$2, %r9d
	.loc	0 588 24                        # x264_src/common/predict.c:588:24
	addl	%ebx, %ecx
.Ltmp528:
	leal	(%rcx,%r14,2), %r11d
	addl	$2, %r11d
	shrl	$2, %r11d
	.loc	0 595 69                        # x264_src/common/predict.c:595:69
	leal	(%rax,%r8,2), %edx
	addl	$2, %edx
	addl	%r10d, %edx
	shrl	$2, %edx
	.loc	0 596 60                        # x264_src/common/predict.c:596:60
	leal	(%r8,%rax,2), %ecx
	addl	$2, %ecx
	.loc	0 584 5                         # x264_src/common/predict.c:584:5
	movd	18(%rsi), %xmm0                 # xmm0 = mem[0],zero,zero,zero
	pxor	%xmm1, %xmm1
	.loc	0 585 5                         # x264_src/common/predict.c:585:5
	movd	11(%rsi), %xmm2                 # xmm2 = mem[0],zero,zero,zero
	punpcklbw	%xmm1, %xmm2            # xmm2 = xmm2[0],xmm1[0],xmm2[1],xmm1[1],xmm2[2],xmm1[2],xmm2[3],xmm1[3],xmm2[4],xmm1[4],xmm2[5],xmm1[5],xmm2[6],xmm1[6],xmm2[7],xmm1[7]
	.loc	0 589 33                        # x264_src/common/predict.c:589:33
	movdqa	%xmm2, %xmm3
	.loc	0 593 69                        # x264_src/common/predict.c:593:69
	pextrw	$3, %xmm2, %r15d
	.loc	0 589 33                        # x264_src/common/predict.c:589:33
	pshufd	$80, %xmm2, %xmm5               # xmm5 = xmm2[0,0,1,1]
	pinsrw	$3, %ebx, %xmm2
	.loc	0 584 5                         # x264_src/common/predict.c:584:5
	punpcklbw	%xmm1, %xmm0            # xmm0 = xmm0[0],xmm1[0],xmm0[1],xmm1[1],xmm0[2],xmm1[2],xmm0[3],xmm1[3],xmm0[4],xmm1[4],xmm0[5],xmm1[5],xmm0[6],xmm1[6],xmm0[7],xmm1[7]
	.loc	0 589 33                        # x264_src/common/predict.c:589:33
	paddw	%xmm2, %xmm2
	pshuflw	$147, %xmm2, %xmm4              # xmm4 = xmm2[3,0,1,2,4,5,6,7]
	movdqa	.LCPI21_0(%rip), %xmm1          # xmm1 = [2,2,2,2,u,u,u,u]
	pinsrw	$0, %r14d, %xmm5
	pinsrw	$1, %ebx, %xmm5
	paddw	%xmm1, %xmm3
	paddw	%xmm3, %xmm4
	paddw	%xmm5, %xmm4
	psrlw	$2, %xmm4
	movdqa	%xmm4, -32(%rsp)
	movdqa	.LCPI21_1(%rip), %xmm2          # xmm2 = [255,255,255,255,255,255,255,255]
	pand	%xmm2, %xmm4
	packuswb	%xmm4, %xmm4
	movzbl	-26(%rsp), %ebp
	movzbl	-30(%rsp), %r14d
.Ltmp529:
	.loc	0 593 69                        # x264_src/common/predict.c:593:69
	pextrw	$2, %xmm3, %ebx
.Ltmp530:
	.loc	0 589 33                        # x264_src/common/predict.c:589:33
	movzbl	-28(%rsp), %r12d
	.loc	0 593 69                        # x264_src/common/predict.c:593:69
	leal	(%rbx,%r15,2), %ebx
	addl	%r10d, %ebx
	shrl	$2, %ebx
	.loc	0 594 78                        # x264_src/common/predict.c:594:78
	addl	%r15d, %r8d
.Ltmp531:
	addl	$2, %r8d
	leal	(%r8,%r10,2), %r10d
.Ltmp532:
	shrl	$2, %r10d
	.loc	0 598 42                        # x264_src/common/predict.c:598:42
	movzbl	22(%rsi), %r8d
	movzbl	23(%rsi), %esi
.Ltmp533:
	#DEBUG_VALUE: predict_8x8_ddr:edge <- [DW_OP_LLVM_entry_value 1] $rsi
	.loc	0 587 13                        # x264_src/common/predict.c:587:13
	movb	%r9b, 224(%rdi)
	.loc	0 588 22                        # x264_src/common/predict.c:588:22
	movb	%r11b, 225(%rdi)
	.loc	0 588 13 is_stmt 0              # x264_src/common/predict.c:588:13
	movb	%r11b, 192(%rdi)
	.loc	0 590 13 is_stmt 1              # x264_src/common/predict.c:590:13
	movb	%r14b, 128(%rdi)
	.loc	0 591 22                        # x264_src/common/predict.c:591:22
	movb	%r12b, 129(%rdi)
	.loc	0 591 13 is_stmt 0              # x264_src/common/predict.c:591:13
	movb	%r12b, 96(%rdi)
	.loc	0 589 31 is_stmt 1              # x264_src/common/predict.c:589:31
	movd	%xmm4, 226(%rdi)
	.loc	0 589 22 is_stmt 0              # x264_src/common/predict.c:589:22
	movd	%xmm4, 193(%rdi)
	.loc	0 589 13                        # x264_src/common/predict.c:589:13
	movd	%xmm4, 160(%rdi)
	.loc	0 592 31 is_stmt 1              # x264_src/common/predict.c:592:31
	movb	%bpl, 130(%rdi)
	.loc	0 592 22 is_stmt 0              # x264_src/common/predict.c:592:22
	movb	%bpl, 97(%rdi)
	.loc	0 592 13                        # x264_src/common/predict.c:592:13
	movb	%bpl, 64(%rdi)
	.loc	0 593 67 is_stmt 1              # x264_src/common/predict.c:593:67
	movb	%bl, 230(%rdi)
	.loc	0 593 58 is_stmt 0              # x264_src/common/predict.c:593:58
	movb	%bl, 197(%rdi)
	.loc	0 593 49                        # x264_src/common/predict.c:593:49
	movb	%bl, 164(%rdi)
	.loc	0 593 40                        # x264_src/common/predict.c:593:40
	movb	%bl, 131(%rdi)
	.loc	0 593 31                        # x264_src/common/predict.c:593:31
	movb	%bl, 98(%rdi)
	.loc	0 593 22                        # x264_src/common/predict.c:593:22
	movb	%bl, 65(%rdi)
	.loc	0 593 13                        # x264_src/common/predict.c:593:13
	movb	%bl, 32(%rdi)
	.loc	0 594 76 is_stmt 1              # x264_src/common/predict.c:594:76
	movb	%r10b, 231(%rdi)
	.loc	0 594 67 is_stmt 0              # x264_src/common/predict.c:594:67
	movb	%r10b, 198(%rdi)
	.loc	0 594 58                        # x264_src/common/predict.c:594:58
	movb	%r10b, 165(%rdi)
	.loc	0 594 49                        # x264_src/common/predict.c:594:49
	movb	%r10b, 132(%rdi)
	.loc	0 594 40                        # x264_src/common/predict.c:594:40
	movb	%r10b, 99(%rdi)
	.loc	0 594 31                        # x264_src/common/predict.c:594:31
	movb	%r10b, 66(%rdi)
	.loc	0 594 22                        # x264_src/common/predict.c:594:22
	movb	%r10b, 33(%rdi)
	.loc	0 594 13                        # x264_src/common/predict.c:594:13
	movb	%r10b, (%rdi)
	.loc	0 595 67 is_stmt 1              # x264_src/common/predict.c:595:67
	movb	%dl, 199(%rdi)
	.loc	0 595 58 is_stmt 0              # x264_src/common/predict.c:595:58
	movb	%dl, 166(%rdi)
	.loc	0 595 49                        # x264_src/common/predict.c:595:49
	movb	%dl, 133(%rdi)
	.loc	0 595 40                        # x264_src/common/predict.c:595:40
	movb	%dl, 100(%rdi)
	.loc	0 595 31                        # x264_src/common/predict.c:595:31
	movb	%dl, 67(%rdi)
	.loc	0 595 22                        # x264_src/common/predict.c:595:22
	movb	%dl, 34(%rdi)
	.loc	0 597 51 is_stmt 1              # x264_src/common/predict.c:597:51
	pextrw	$0, %xmm0, %r9d
	.loc	0 595 13                        # x264_src/common/predict.c:595:13
	movb	%dl, 1(%rdi)
	.loc	0 596 60                        # x264_src/common/predict.c:596:60
	addl	%r9d, %ecx
	shrl	$2, %ecx
	.loc	0 596 58 is_stmt 0              # x264_src/common/predict.c:596:58
	movb	%cl, 167(%rdi)
	.loc	0 596 49                        # x264_src/common/predict.c:596:49
	movb	%cl, 134(%rdi)
	.loc	0 596 40                        # x264_src/common/predict.c:596:40
	movb	%cl, 101(%rdi)
	.loc	0 596 31                        # x264_src/common/predict.c:596:31
	movb	%cl, 68(%rdi)
	.loc	0 596 22                        # x264_src/common/predict.c:596:22
	movb	%cl, 35(%rdi)
	.loc	0 596 13                        # x264_src/common/predict.c:596:13
	movb	%cl, 2(%rdi)
	.loc	0 597 51 is_stmt 1              # x264_src/common/predict.c:597:51
	leal	(%rax,%r9,2), %eax
.Ltmp534:
	addl	$2, %eax
	pextrw	$1, %xmm0, %ecx
	addl	%eax, %ecx
	shrl	$2, %ecx
	.loc	0 597 49 is_stmt 0              # x264_src/common/predict.c:597:49
	movb	%cl, 135(%rdi)
	.loc	0 597 40                        # x264_src/common/predict.c:597:40
	movb	%cl, 102(%rdi)
	.loc	0 597 31                        # x264_src/common/predict.c:597:31
	movb	%cl, 69(%rdi)
	.loc	0 597 22                        # x264_src/common/predict.c:597:22
	movb	%cl, 36(%rdi)
	.loc	0 597 13                        # x264_src/common/predict.c:597:13
	movb	%cl, 3(%rdi)
	.loc	0 598 42 is_stmt 1              # x264_src/common/predict.c:598:42
	movdqa	%xmm0, %xmm3
	pinsrw	$0, %r8d, %xmm3
	pshufd	$225, %xmm3, %xmm4              # xmm4 = xmm3[1,0,2,3]
	paddw	%xmm3, %xmm3
	pshuflw	$57, %xmm3, %xmm3               # xmm3 = xmm3[1,2,3,0,4,5,6,7]
	paddw	%xmm0, %xmm3
	pinsrw	$3, %esi, %xmm4
	paddw	%xmm3, %xmm4
	paddw	%xmm1, %xmm4
	psrlw	$2, %xmm4
	movdqa	%xmm4, -16(%rsp)
	pand	%xmm2, %xmm4
	packuswb	%xmm4, %xmm4
	movzbl	-12(%rsp), %eax
	movzbl	-16(%rsp), %ecx
	movzbl	-14(%rsp), %edx
	.loc	0 598 40 is_stmt 0              # x264_src/common/predict.c:598:40
	movb	%cl, 103(%rdi)
	.loc	0 598 31                        # x264_src/common/predict.c:598:31
	movb	%cl, 70(%rdi)
	.loc	0 598 22                        # x264_src/common/predict.c:598:22
	movb	%cl, 37(%rdi)
	.loc	0 599 31 is_stmt 1              # x264_src/common/predict.c:599:31
	movb	%dl, 71(%rdi)
	.loc	0 599 22 is_stmt 0              # x264_src/common/predict.c:599:22
	movb	%dl, 38(%rdi)
	.loc	0 600 22 is_stmt 1              # x264_src/common/predict.c:600:22
	movb	%al, 39(%rdi)
	.loc	0 598 13                        # x264_src/common/predict.c:598:13
	movd	%xmm4, 4(%rdi)
	.loc	0 603 1 epilogue_begin          # x264_src/common/predict.c:603:1
	popq	%rbx
	.cfi_def_cfa_offset 40
	popq	%r12
	.cfi_def_cfa_offset 32
	popq	%r14
	.cfi_def_cfa_offset 24
	popq	%r15
	.cfi_def_cfa_offset 16
	popq	%rbp
	.cfi_def_cfa_offset 8
	retq
.Ltmp535:
.Lfunc_end21:
	.size	predict_8x8_ddr, .Lfunc_end21-predict_8x8_ddr
	.cfi_endproc
                                        # -- End function
	.p2align	4, 0x90                         # -- Begin function predict_8x8_vr
	.type	predict_8x8_vr,@function
predict_8x8_vr:                         # @predict_8x8_vr
.Lfunc_begin22:
	.loc	0 605 0                         # x264_src/common/predict.c:605:0
	.cfi_startproc
# %bb.0:                                # %entry
	#DEBUG_VALUE: predict_8x8_vr:src <- $rdi
	#DEBUG_VALUE: predict_8x8_vr:edge <- $rsi
	pushq	%rbp
	.cfi_def_cfa_offset 16
	pushq	%r15
	.cfi_def_cfa_offset 24
	pushq	%r14
	.cfi_def_cfa_offset 32
	pushq	%r13
	.cfi_def_cfa_offset 40
	pushq	%r12
	.cfi_def_cfa_offset 48
	pushq	%rbx
	.cfi_def_cfa_offset 56
	.cfi_offset %rbx, -56
	.cfi_offset %r12, -48
	.cfi_offset %r13, -40
	.cfi_offset %r14, -32
	.cfi_offset %r15, -24
	.cfi_offset %rbp, -16
	.loc	0 606 5 prologue_end            # x264_src/common/predict.c:606:5
	movzbl	16(%rsi), %ebx
.Ltmp536:
	#DEBUG_VALUE: predict_8x8_vr:t0 <- $ebx
	movzbl	17(%rsi), %r11d
.Ltmp537:
	#DEBUG_VALUE: predict_8x8_vr:t1 <- $r11d
	movzbl	18(%rsi), %r10d
.Ltmp538:
	#DEBUG_VALUE: predict_8x8_vr:t2 <- $r10d
	movzbl	19(%rsi), %r9d
.Ltmp539:
	#DEBUG_VALUE: predict_8x8_vr:t3 <- $r9d
	movzbl	20(%rsi), %r8d
.Ltmp540:
	#DEBUG_VALUE: predict_8x8_vr:t4 <- $r8d
	movzbl	21(%rsi), %eax
.Ltmp541:
	#DEBUG_VALUE: predict_8x8_vr:t5 <- $eax
	.loc	0 0 5 is_stmt 0                 # x264_src/common/predict.c:0:5
	movq	%rax, -24(%rsp)                 # 8-byte Spill
.Ltmp542:
	#DEBUG_VALUE: predict_8x8_vr:t5 <- [DW_OP_constu 24, DW_OP_minus, DW_OP_deref] $rsp
	.loc	0 606 5                         # x264_src/common/predict.c:606:5
	movzbl	22(%rsi), %eax
.Ltmp543:
	#DEBUG_VALUE: predict_8x8_vr:t6 <- $eax
	.loc	0 0 5                           # x264_src/common/predict.c:0:5
	movq	%rax, -16(%rsp)                 # 8-byte Spill
.Ltmp544:
	#DEBUG_VALUE: predict_8x8_vr:t6 <- [DW_OP_constu 16, DW_OP_minus, DW_OP_deref] $rsp
	.loc	0 606 5                         # x264_src/common/predict.c:606:5
	movzbl	23(%rsi), %eax
.Ltmp545:
	#DEBUG_VALUE: predict_8x8_vr:t7 <- $eax
	.loc	0 0 5                           # x264_src/common/predict.c:0:5
	movq	%rax, -8(%rsp)                  # 8-byte Spill
.Ltmp546:
	#DEBUG_VALUE: predict_8x8_vr:t7 <- [DW_OP_constu 8, DW_OP_minus, DW_OP_deref] $rsp
	.loc	0 607 5 is_stmt 1               # x264_src/common/predict.c:607:5
	movzbl	14(%rsi), %r14d
.Ltmp547:
	#DEBUG_VALUE: predict_8x8_vr:l0 <- $r14d
	movzbl	13(%rsi), %r15d
.Ltmp548:
	#DEBUG_VALUE: predict_8x8_vr:l1 <- $r15d
	movzbl	12(%rsi), %r12d
.Ltmp549:
	#DEBUG_VALUE: predict_8x8_vr:l2 <- $r12d
	movzbl	11(%rsi), %r13d
.Ltmp550:
	#DEBUG_VALUE: predict_8x8_vr:l3 <- $r13d
	movzbl	10(%rsi), %ebp
.Ltmp551:
	#DEBUG_VALUE: predict_8x8_vr:l4 <- $ebp
	movzbl	9(%rsi), %ecx
.Ltmp552:
	#DEBUG_VALUE: predict_8x8_vr:l5 <- $ecx
	movzbl	8(%rsi), %eax
.Ltmp553:
	#DEBUG_VALUE: predict_8x8_vr:l6 <- $eax
	.loc	0 608 5                         # x264_src/common/predict.c:608:5
	movzbl	15(%rsi), %esi
.Ltmp554:
	#DEBUG_VALUE: predict_8x8_vr:edge <- [DW_OP_LLVM_entry_value 1] $rsi
	#DEBUG_VALUE: predict_8x8_vr:lt <- $esi
	.loc	0 609 15                        # x264_src/common/predict.c:609:15
	leal	(%rcx,%r13), %edx
	leal	(%rdx,%rbp,2), %edx
	addl	$2, %edx
	shrl	$2, %edx
	.loc	0 609 13 is_stmt 0              # x264_src/common/predict.c:609:13
	movb	%dl, 192(%rdi)
	.loc	0 610 15 is_stmt 1              # x264_src/common/predict.c:610:15
	addl	%ebp, %eax
.Ltmp555:
	leal	(%rax,%rcx,2), %eax
	addl	$2, %eax
	shrl	$2, %eax
	.loc	0 610 13 is_stmt 0              # x264_src/common/predict.c:610:13
	movb	%al, 224(%rdi)
	.loc	0 611 24 is_stmt 1              # x264_src/common/predict.c:611:24
	leal	(%r15,%r13), %eax
	addl	$2, %eax
	leal	(%rax,%r12,2), %eax
	shrl	$2, %eax
	.loc	0 611 22 is_stmt 0              # x264_src/common/predict.c:611:22
	movb	%al, 193(%rdi)
	.loc	0 611 13                        # x264_src/common/predict.c:611:13
	movb	%al, 128(%rdi)
	.loc	0 612 24 is_stmt 1              # x264_src/common/predict.c:612:24
	leal	(%r12,%rbp), %eax
	addl	$2, %eax
	leal	(%rax,%r13,2), %eax
	shrl	$2, %eax
	.loc	0 612 22 is_stmt 0              # x264_src/common/predict.c:612:22
	movb	%al, 225(%rdi)
	.loc	0 612 13                        # x264_src/common/predict.c:612:13
	movb	%al, 160(%rdi)
	.loc	0 613 33 is_stmt 1              # x264_src/common/predict.c:613:33
	leal	(%r15,%r14,2), %eax
	addl	$2, %eax
	addl	%esi, %eax
	shrl	$2, %eax
	.loc	0 613 31 is_stmt 0              # x264_src/common/predict.c:613:31
	movb	%al, 194(%rdi)
	.loc	0 613 22                        # x264_src/common/predict.c:613:22
	movb	%al, 129(%rdi)
	.loc	0 613 13                        # x264_src/common/predict.c:613:13
	movb	%al, 64(%rdi)
	.loc	0 614 33 is_stmt 1              # x264_src/common/predict.c:614:33
	leal	(%r12,%r14), %eax
	addl	$2, %eax
	leal	(%rax,%r15,2), %eax
	shrl	$2, %eax
	.loc	0 614 31 is_stmt 0              # x264_src/common/predict.c:614:31
	movb	%al, 226(%rdi)
	.loc	0 614 22                        # x264_src/common/predict.c:614:22
	movb	%al, 161(%rdi)
	.loc	0 614 13                        # x264_src/common/predict.c:614:13
	movb	%al, 96(%rdi)
	.loc	0 615 42 is_stmt 1              # x264_src/common/predict.c:615:42
	leal	(%rbx,%r14), %eax
	addl	$2, %eax
	leal	(%rax,%rsi,2), %eax
	shrl	$2, %eax
	.loc	0 615 40 is_stmt 0              # x264_src/common/predict.c:615:40
	movb	%al, 227(%rdi)
	.loc	0 615 31                        # x264_src/common/predict.c:615:31
	movb	%al, 162(%rdi)
	.loc	0 615 22                        # x264_src/common/predict.c:615:22
	movb	%al, 97(%rdi)
	.loc	0 615 13                        # x264_src/common/predict.c:615:13
	movb	%al, 32(%rdi)
	.loc	0 616 42 is_stmt 1              # x264_src/common/predict.c:616:42
	leal	(%rbx,%rsi), %eax
	incl	%eax
	shrl	%eax
	.loc	0 616 40 is_stmt 0              # x264_src/common/predict.c:616:40
	movb	%al, 195(%rdi)
	.loc	0 616 31                        # x264_src/common/predict.c:616:31
	movb	%al, 130(%rdi)
	.loc	0 616 22                        # x264_src/common/predict.c:616:22
	movb	%al, 65(%rdi)
	.loc	0 616 13                        # x264_src/common/predict.c:616:13
	movb	%al, (%rdi)
	.loc	0 617 42 is_stmt 1              # x264_src/common/predict.c:617:42
	leal	(%r11,%rbx,2), %eax
	addl	$2, %eax
	addl	%esi, %eax
	shrl	$2, %eax
	.loc	0 617 40 is_stmt 0              # x264_src/common/predict.c:617:40
	movb	%al, 228(%rdi)
	.loc	0 617 31                        # x264_src/common/predict.c:617:31
	movb	%al, 163(%rdi)
	.loc	0 617 22                        # x264_src/common/predict.c:617:22
	movb	%al, 98(%rdi)
	.loc	0 617 13                        # x264_src/common/predict.c:617:13
	movb	%al, 33(%rdi)
	.loc	0 618 42 is_stmt 1              # x264_src/common/predict.c:618:42
	leal	(%rbx,%r11), %eax
	incl	%eax
	shrl	%eax
	.loc	0 618 40 is_stmt 0              # x264_src/common/predict.c:618:40
	movb	%al, 196(%rdi)
	.loc	0 618 31                        # x264_src/common/predict.c:618:31
	movb	%al, 131(%rdi)
	.loc	0 618 22                        # x264_src/common/predict.c:618:22
	movb	%al, 66(%rdi)
	.loc	0 618 13                        # x264_src/common/predict.c:618:13
	movb	%al, 1(%rdi)
	.loc	0 619 42 is_stmt 1              # x264_src/common/predict.c:619:42
	leal	(%rbx,%r11,2), %eax
	addl	$2, %eax
	addl	%r10d, %eax
	shrl	$2, %eax
	.loc	0 619 40 is_stmt 0              # x264_src/common/predict.c:619:40
	movb	%al, 229(%rdi)
	.loc	0 619 31                        # x264_src/common/predict.c:619:31
	movb	%al, 164(%rdi)
	.loc	0 619 22                        # x264_src/common/predict.c:619:22
	movb	%al, 99(%rdi)
	.loc	0 619 13                        # x264_src/common/predict.c:619:13
	movb	%al, 34(%rdi)
	.loc	0 620 42 is_stmt 1              # x264_src/common/predict.c:620:42
	leal	(%r11,%r10), %eax
	incl	%eax
	shrl	%eax
	.loc	0 620 40 is_stmt 0              # x264_src/common/predict.c:620:40
	movb	%al, 197(%rdi)
	.loc	0 620 31                        # x264_src/common/predict.c:620:31
	movb	%al, 132(%rdi)
	.loc	0 620 22                        # x264_src/common/predict.c:620:22
	movb	%al, 67(%rdi)
	.loc	0 620 13                        # x264_src/common/predict.c:620:13
	movb	%al, 2(%rdi)
	.loc	0 621 42 is_stmt 1              # x264_src/common/predict.c:621:42
	leal	(%r11,%r10,2), %eax
	addl	$2, %eax
	addl	%r9d, %eax
	shrl	$2, %eax
	.loc	0 621 40 is_stmt 0              # x264_src/common/predict.c:621:40
	movb	%al, 230(%rdi)
	.loc	0 621 31                        # x264_src/common/predict.c:621:31
	movb	%al, 165(%rdi)
	.loc	0 621 22                        # x264_src/common/predict.c:621:22
	movb	%al, 100(%rdi)
	.loc	0 621 13                        # x264_src/common/predict.c:621:13
	movb	%al, 35(%rdi)
	.loc	0 622 42 is_stmt 1              # x264_src/common/predict.c:622:42
	leal	(%r10,%r9), %eax
	incl	%eax
	shrl	%eax
	.loc	0 622 40 is_stmt 0              # x264_src/common/predict.c:622:40
	movb	%al, 198(%rdi)
	.loc	0 622 31                        # x264_src/common/predict.c:622:31
	movb	%al, 133(%rdi)
	.loc	0 622 22                        # x264_src/common/predict.c:622:22
	movb	%al, 68(%rdi)
	.loc	0 622 13                        # x264_src/common/predict.c:622:13
	movb	%al, 3(%rdi)
	.loc	0 623 42 is_stmt 1              # x264_src/common/predict.c:623:42
	leal	(%r10,%r9,2), %eax
	addl	%r8d, %eax
	addl	$2, %eax
	shrl	$2, %eax
	.loc	0 623 40 is_stmt 0              # x264_src/common/predict.c:623:40
	movb	%al, 231(%rdi)
	.loc	0 623 31                        # x264_src/common/predict.c:623:31
	movb	%al, 166(%rdi)
	.loc	0 623 22                        # x264_src/common/predict.c:623:22
	movb	%al, 101(%rdi)
	.loc	0 623 13                        # x264_src/common/predict.c:623:13
	movb	%al, 36(%rdi)
	.loc	0 624 42 is_stmt 1              # x264_src/common/predict.c:624:42
	leal	(%r9,%r8), %eax
	incl	%eax
	shrl	%eax
	.loc	0 624 40 is_stmt 0              # x264_src/common/predict.c:624:40
	movb	%al, 199(%rdi)
	.loc	0 624 31                        # x264_src/common/predict.c:624:31
	movb	%al, 134(%rdi)
	.loc	0 624 22                        # x264_src/common/predict.c:624:22
	movb	%al, 69(%rdi)
	.loc	0 624 13                        # x264_src/common/predict.c:624:13
	movb	%al, 4(%rdi)
	.loc	0 625 33 is_stmt 1              # x264_src/common/predict.c:625:33
	leal	(%r9,%r8,2), %eax
	movq	-24(%rsp), %rdx                 # 8-byte Reload
	addl	%edx, %eax
	addl	$2, %eax
	shrl	$2, %eax
	.loc	0 625 31 is_stmt 0              # x264_src/common/predict.c:625:31
	movb	%al, 167(%rdi)
	.loc	0 625 22                        # x264_src/common/predict.c:625:22
	movb	%al, 102(%rdi)
	.loc	0 625 13                        # x264_src/common/predict.c:625:13
	movb	%al, 37(%rdi)
	.loc	0 626 33 is_stmt 1              # x264_src/common/predict.c:626:33
	leal	(%r8,%rdx), %eax
	incl	%eax
	shrl	%eax
	.loc	0 626 31 is_stmt 0              # x264_src/common/predict.c:626:31
	movb	%al, 135(%rdi)
	.loc	0 626 22                        # x264_src/common/predict.c:626:22
	movb	%al, 70(%rdi)
	.loc	0 626 13                        # x264_src/common/predict.c:626:13
	movb	%al, 5(%rdi)
	.loc	0 627 24 is_stmt 1              # x264_src/common/predict.c:627:24
	leal	(%r8,%rdx,2), %eax
	movq	-16(%rsp), %rcx                 # 8-byte Reload
.Ltmp556:
	addl	%ecx, %eax
	addl	$2, %eax
	shrl	$2, %eax
	.loc	0 627 22 is_stmt 0              # x264_src/common/predict.c:627:22
	movb	%al, 103(%rdi)
	.loc	0 627 13                        # x264_src/common/predict.c:627:13
	movb	%al, 38(%rdi)
	.loc	0 628 24 is_stmt 1              # x264_src/common/predict.c:628:24
	leal	(%rdx,%rcx), %eax
	incl	%eax
	shrl	%eax
	.loc	0 628 22 is_stmt 0              # x264_src/common/predict.c:628:22
	movb	%al, 71(%rdi)
	.loc	0 628 13                        # x264_src/common/predict.c:628:13
	movb	%al, 6(%rdi)
	.loc	0 629 15 is_stmt 1              # x264_src/common/predict.c:629:15
	leal	(%rdx,%rcx,2), %eax
	movq	-8(%rsp), %rdx                  # 8-byte Reload
	addl	%edx, %eax
	addl	$2, %eax
	shrl	$2, %eax
	.loc	0 629 13 is_stmt 0              # x264_src/common/predict.c:629:13
	movb	%al, 39(%rdi)
	.loc	0 630 15 is_stmt 1              # x264_src/common/predict.c:630:15
	leal	(%rcx,%rdx), %eax
	incl	%eax
	shrl	%eax
	.loc	0 630 13 is_stmt 0              # x264_src/common/predict.c:630:13
	movb	%al, 7(%rdi)
	.loc	0 631 1 epilogue_begin is_stmt 1 # x264_src/common/predict.c:631:1
	popq	%rbx
.Ltmp557:
	.cfi_def_cfa_offset 48
	popq	%r12
.Ltmp558:
	.cfi_def_cfa_offset 40
	popq	%r13
.Ltmp559:
	.cfi_def_cfa_offset 32
	popq	%r14
.Ltmp560:
	.cfi_def_cfa_offset 24
	popq	%r15
.Ltmp561:
	.cfi_def_cfa_offset 16
	popq	%rbp
.Ltmp562:
	.cfi_def_cfa_offset 8
	retq
.Ltmp563:
.Lfunc_end22:
	.size	predict_8x8_vr, .Lfunc_end22-predict_8x8_vr
	.cfi_endproc
                                        # -- End function
	.p2align	4, 0x90                         # -- Begin function predict_8x8_hd
	.type	predict_8x8_hd,@function
predict_8x8_hd:                         # @predict_8x8_hd
.Lfunc_begin23:
	.loc	0 633 0                         # x264_src/common/predict.c:633:0
	.cfi_startproc
# %bb.0:                                # %entry
	#DEBUG_VALUE: predict_8x8_hd:src <- $rdi
	#DEBUG_VALUE: predict_8x8_hd:edge <- $rsi
	pushq	%rbp
	.cfi_def_cfa_offset 16
	pushq	%r15
	.cfi_def_cfa_offset 24
	pushq	%r14
	.cfi_def_cfa_offset 32
	pushq	%r13
	.cfi_def_cfa_offset 40
	pushq	%r12
	.cfi_def_cfa_offset 48
	pushq	%rbx
	.cfi_def_cfa_offset 56
	.cfi_offset %rbx, -56
	.cfi_offset %r12, -48
	.cfi_offset %r13, -40
	.cfi_offset %r14, -32
	.cfi_offset %r15, -24
	.cfi_offset %rbp, -16
	.loc	0 634 5 prologue_end            # x264_src/common/predict.c:634:5
	movzbl	16(%rsi), %ebx
.Ltmp564:
	#DEBUG_VALUE: predict_8x8_hd:t0 <- $ebx
	movzbl	17(%rsi), %r11d
.Ltmp565:
	#DEBUG_VALUE: predict_8x8_hd:t1 <- $r11d
	#DEBUG_VALUE: predict_8x8_hd:t2 <- undef
	#DEBUG_VALUE: predict_8x8_hd:t3 <- undef
	#DEBUG_VALUE: predict_8x8_hd:t4 <- undef
	#DEBUG_VALUE: predict_8x8_hd:t5 <- undef
	#DEBUG_VALUE: predict_8x8_hd:t6 <- undef
	.loc	0 635 5                         # x264_src/common/predict.c:635:5
	movzbl	14(%rsi), %r14d
.Ltmp566:
	#DEBUG_VALUE: predict_8x8_hd:l0 <- $r14d
	movzbl	13(%rsi), %r12d
.Ltmp567:
	#DEBUG_VALUE: predict_8x8_hd:l1 <- $r12d
	movzbl	12(%rsi), %r13d
.Ltmp568:
	#DEBUG_VALUE: predict_8x8_hd:l2 <- $r13d
	movzbl	11(%rsi), %r10d
.Ltmp569:
	#DEBUG_VALUE: predict_8x8_hd:l3 <- $r10d
	movzbl	10(%rsi), %r9d
.Ltmp570:
	#DEBUG_VALUE: predict_8x8_hd:l4 <- $r9d
	movzbl	9(%rsi), %r8d
.Ltmp571:
	#DEBUG_VALUE: predict_8x8_hd:l5 <- $r8d
	movzbl	8(%rsi), %edx
.Ltmp572:
	#DEBUG_VALUE: predict_8x8_hd:l6 <- $edx
	movzbl	7(%rsi), %ecx
.Ltmp573:
	#DEBUG_VALUE: predict_8x8_hd:l7 <- $ecx
	.loc	0 636 5                         # x264_src/common/predict.c:636:5
	movzbl	15(%rsi), %r15d
.Ltmp574:
	#DEBUG_VALUE: predict_8x8_hd:lt <- $r15d
	.loc	0 637 24                        # x264_src/common/predict.c:637:24
	leal	(%rdx,%rcx), %eax
	incl	%eax
	shrl	%eax
	movzbl	%al, %ebp
.Ltmp575:
	#DEBUG_VALUE: pack8to16:a <- $ebp
	.loc	0 637 35 is_stmt 0              # x264_src/common/predict.c:637:35
	leal	(%r8,%rdx,2), %eax
	addl	%ecx, %eax
.Ltmp576:
	#DEBUG_VALUE: pack8to16:b <- [DW_OP_plus_uconst 2, DW_OP_constu 2, DW_OP_shr, DW_OP_stack_value] $eax
	.loc	2 329 17 is_stmt 1              # x264_src/common/macroblock.h:329:17
	shll	$6, %eax
.Ltmp577:
	subl	$-128, %eax
	andl	$261888, %eax                   # imm = 0x3FF00
	.loc	2 329 13 is_stmt 0              # x264_src/common/macroblock.h:329:13
	orl	%ebp, %eax
.Ltmp578:
	#DEBUG_VALUE: predict_8x8_hd:p1 <- $eax
	.loc	2 0 13                          # x264_src/common/macroblock.h:0:13
	movl	%eax, -4(%rsp)                  # 4-byte Spill
.Ltmp579:
	#DEBUG_VALUE: predict_8x8_hd:p1 <- [DW_OP_constu 4, DW_OP_minus, DW_OP_deref] $rsp
	.loc	0 638 24 is_stmt 1              # x264_src/common/predict.c:638:24
	leal	(%r8,%rdx), %ecx
.Ltmp580:
	incl	%ecx
	shrl	%ecx
	movzbl	%cl, %ebp
.Ltmp581:
	#DEBUG_VALUE: pack8to16:a <- $ebp
	.loc	0 638 35 is_stmt 0              # x264_src/common/predict.c:638:35
	leal	(%r9,%r8,2), %ecx
	addl	%edx, %ecx
.Ltmp582:
	#DEBUG_VALUE: pack8to16:b <- [DW_OP_plus_uconst 2, DW_OP_constu 2, DW_OP_shr, DW_OP_stack_value] $ecx
	.loc	2 329 17 is_stmt 1              # x264_src/common/macroblock.h:329:17
	shll	$6, %ecx
.Ltmp583:
	subl	$-128, %ecx
	andl	$261888, %ecx                   # imm = 0x3FF00
	.loc	2 329 13 is_stmt 0              # x264_src/common/macroblock.h:329:13
	orl	%ebp, %ecx
.Ltmp584:
	#DEBUG_VALUE: predict_8x8_hd:p2 <- $ecx
	.loc	0 639 24 is_stmt 1              # x264_src/common/predict.c:639:24
	leal	(%r9,%r8), %edx
.Ltmp585:
	incl	%edx
	shrl	%edx
	movzbl	%dl, %ebp
.Ltmp586:
	#DEBUG_VALUE: pack8to16:a <- $ebp
	.loc	0 639 35 is_stmt 0              # x264_src/common/predict.c:639:35
	leal	(%r10,%r9,2), %edx
	addl	%r8d, %edx
.Ltmp587:
	#DEBUG_VALUE: pack8to16:b <- [DW_OP_plus_uconst 2, DW_OP_constu 2, DW_OP_shr, DW_OP_stack_value] $edx
	.loc	2 329 17 is_stmt 1              # x264_src/common/macroblock.h:329:17
	shll	$6, %edx
.Ltmp588:
	subl	$-128, %edx
	andl	$261888, %edx                   # imm = 0x3FF00
	.loc	2 329 13 is_stmt 0              # x264_src/common/macroblock.h:329:13
	orl	%ebp, %edx
.Ltmp589:
	#DEBUG_VALUE: predict_8x8_hd:p3 <- $edx
	.loc	0 640 24 is_stmt 1              # x264_src/common/predict.c:640:24
	leal	(%r10,%r9), %r8d
.Ltmp590:
	incl	%r8d
	shrl	%r8d
	movzbl	%r8b, %ebp
.Ltmp591:
	#DEBUG_VALUE: pack8to16:a <- $ebp
	.loc	0 640 35 is_stmt 0              # x264_src/common/predict.c:640:35
	leal	(%r13,%r10,2), %r8d
	addl	%r9d, %r8d
.Ltmp592:
	#DEBUG_VALUE: pack8to16:b <- [DW_OP_plus_uconst 2, DW_OP_constu 2, DW_OP_shr, DW_OP_stack_value] $r8d
	.loc	2 329 17 is_stmt 1              # x264_src/common/macroblock.h:329:17
	shll	$6, %r8d
.Ltmp593:
	subl	$-128, %r8d
	andl	$261888, %r8d                   # imm = 0x3FF00
	.loc	2 329 13 is_stmt 0              # x264_src/common/macroblock.h:329:13
	orl	%ebp, %r8d
.Ltmp594:
	#DEBUG_VALUE: predict_8x8_hd:p4 <- $r8d
	.loc	0 641 24 is_stmt 1              # x264_src/common/predict.c:641:24
	leal	(%r10,%r13), %r9d
.Ltmp595:
	incl	%r9d
	shrl	%r9d
	movzbl	%r9b, %ebp
.Ltmp596:
	#DEBUG_VALUE: pack8to16:a <- $ebp
	.loc	0 641 35 is_stmt 0              # x264_src/common/predict.c:641:35
	leal	(%r12,%r13,2), %r9d
	addl	%r10d, %r9d
.Ltmp597:
	#DEBUG_VALUE: pack8to16:b <- [DW_OP_plus_uconst 2, DW_OP_constu 2, DW_OP_shr, DW_OP_stack_value] $r9d
	.loc	2 329 17 is_stmt 1              # x264_src/common/macroblock.h:329:17
	shll	$6, %r9d
.Ltmp598:
	subl	$-128, %r9d
	andl	$261888, %r9d                   # imm = 0x3FF00
	.loc	2 329 13 is_stmt 0              # x264_src/common/macroblock.h:329:13
	orl	%ebp, %r9d
.Ltmp599:
	#DEBUG_VALUE: predict_8x8_hd:p5 <- $r9d
	.loc	0 642 24 is_stmt 1              # x264_src/common/predict.c:642:24
	leal	(%r12,%r13), %r10d
.Ltmp600:
	incl	%r10d
	shrl	%r10d
	movzbl	%r10b, %ebp
.Ltmp601:
	#DEBUG_VALUE: pack8to16:a <- $ebp
	.loc	0 642 35 is_stmt 0              # x264_src/common/predict.c:642:35
	leal	(%r14,%r12,2), %r10d
	addl	%r13d, %r10d
.Ltmp602:
	#DEBUG_VALUE: pack8to16:b <- [DW_OP_plus_uconst 2, DW_OP_constu 2, DW_OP_shr, DW_OP_stack_value] $r10d
	.loc	2 329 17 is_stmt 1              # x264_src/common/macroblock.h:329:17
	shll	$6, %r10d
.Ltmp603:
	subl	$-128, %r10d
	andl	$261888, %r10d                  # imm = 0x3FF00
	.loc	2 329 13 is_stmt 0              # x264_src/common/macroblock.h:329:13
	orl	%ebp, %r10d
.Ltmp604:
	#DEBUG_VALUE: predict_8x8_hd:p6 <- $r10d
	.loc	0 643 24 is_stmt 1              # x264_src/common/predict.c:643:24
	leal	(%r14,%r12), %ebp
.Ltmp605:
	incl	%ebp
	shrl	%ebp
	movzbl	%bpl, %r13d
.Ltmp606:
	#DEBUG_VALUE: pack8to16:a <- $r13d
	.loc	0 643 35 is_stmt 0              # x264_src/common/predict.c:643:35
	leal	(%r12,%r14,2), %ebp
	addl	%r15d, %ebp
.Ltmp607:
	#DEBUG_VALUE: pack8to16:b <- [DW_OP_plus_uconst 2, DW_OP_constu 2, DW_OP_shr, DW_OP_stack_value] $ebp
	.loc	2 329 17 is_stmt 1              # x264_src/common/macroblock.h:329:17
	shll	$6, %ebp
.Ltmp608:
	subl	$-128, %ebp
	andl	$261888, %ebp                   # imm = 0x3FF00
	.loc	2 329 13 is_stmt 0              # x264_src/common/macroblock.h:329:13
	orl	%r13d, %ebp
.Ltmp609:
	#DEBUG_VALUE: predict_8x8_hd:p7 <- $ebp
	.loc	0 644 24 is_stmt 1              # x264_src/common/predict.c:644:24
	leal	(%r14,%r15), %r12d
.Ltmp610:
	incl	%r12d
.Ltmp611:
	#DEBUG_VALUE: pack8to16:a <- undef
	.loc	0 644 35 is_stmt 0              # x264_src/common/predict.c:644:35
	addl	%ebx, %r14d
.Ltmp612:
	#DEBUG_VALUE: pack8to16:b <- [DW_OP_LLVM_arg 0, DW_OP_LLVM_arg 1, DW_OP_constu 1, DW_OP_shl, DW_OP_plus, DW_OP_plus_uconst 2, DW_OP_constu 2, DW_OP_shr, DW_OP_stack_value] $r14d, $r15d
	#DEBUG_VALUE: predict_8x8_hd:p8 <- undef
	.loc	0 645 24 is_stmt 1              # x264_src/common/predict.c:645:24
	leal	(%r11,%rbx,2), %r13d
.Ltmp613:
	addl	$2, %r13d
	addl	%r15d, %r13d
                                        # kill: def $r15d killed $r15d killed $r15 def $r15
.Ltmp614:
	.loc	2 329 17                        # x264_src/common/macroblock.h:329:17
	shll	$7, %r15d
.Ltmp615:
	shll	$6, %r14d
	addl	%r15d, %r14d
	addl	$128, %r14d
.Ltmp616:
	.loc	0 634 5                         # x264_src/common/predict.c:634:5
	movzbl	18(%rsi), %r15d
.Ltmp617:
	#DEBUG_VALUE: predict_8x8_hd:t2 <- $r15d
	.loc	0 644 24                        # x264_src/common/predict.c:644:24
	shrl	%r12d
	movzbl	%r12b, %r12d
.Ltmp618:
	#DEBUG_VALUE: pack8to16:a <- $r12d
	.loc	2 329 17                        # x264_src/common/macroblock.h:329:17
	andl	$130816, %r14d                  # imm = 0x1FF00
	.loc	2 329 13 is_stmt 0              # x264_src/common/macroblock.h:329:13
	orl	%r12d, %r14d
.Ltmp619:
	#DEBUG_VALUE: predict_8x8_hd:p8 <- $r14d
	.loc	0 645 38 is_stmt 1              # x264_src/common/predict.c:645:38
	addl	%r15d, %ebx
.Ltmp620:
	#DEBUG_VALUE: pack8to16:b <- [DW_OP_LLVM_arg 0, DW_OP_LLVM_arg 1, DW_OP_constu 1, DW_OP_shl, DW_OP_plus, DW_OP_plus_uconst 2, DW_OP_constu 2, DW_OP_shr, DW_OP_stack_value] $ebx, $r11d
	#DEBUG_VALUE: pack8to16:a <- undef
	.loc	2 329 17                        # x264_src/common/macroblock.h:329:17
	movl	%r11d, %r12d
.Ltmp621:
	shll	$7, %r12d
	shll	$6, %ebx
.Ltmp622:
	addl	%r12d, %ebx
	addl	$128, %ebx
.Ltmp623:
	#DEBUG_VALUE: predict_8x8_hd:p9 <- undef
	.loc	0 634 5                         # x264_src/common/predict.c:634:5
	movzbl	19(%rsi), %r12d
.Ltmp624:
	#DEBUG_VALUE: predict_8x8_hd:t3 <- $r12d
	.loc	0 646 25                        # x264_src/common/predict.c:646:25
	addl	%r12d, %r11d
.Ltmp625:
	addl	$2, %r11d
	.loc	0 645 24                        # x264_src/common/predict.c:645:24
	shrl	$2, %r13d
.Ltmp626:
	#DEBUG_VALUE: pack8to16:a <- $r13d
	.loc	2 329 17                        # x264_src/common/macroblock.h:329:17
	andl	$130816, %ebx                   # imm = 0x1FF00
	.loc	2 329 13 is_stmt 0              # x264_src/common/macroblock.h:329:13
	addl	%r13d, %ebx
.Ltmp627:
	#DEBUG_VALUE: predict_8x8_hd:p9 <- $ebx
	.loc	0 634 5 is_stmt 1               # x264_src/common/predict.c:634:5
	movzbl	20(%rsi), %r13d
.Ltmp628:
	#DEBUG_VALUE: predict_8x8_hd:t4 <- $r13d
	.loc	0 646 25                        # x264_src/common/predict.c:646:25
	leal	(%r11,%r15,2), %eax
	.loc	0 646 39 is_stmt 0              # x264_src/common/predict.c:646:39
	addl	%r13d, %r15d
.Ltmp629:
	#DEBUG_VALUE: pack8to16:b <- [DW_OP_LLVM_arg 0, DW_OP_LLVM_arg 1, DW_OP_constu 1, DW_OP_shl, DW_OP_plus, DW_OP_plus_uconst 2, DW_OP_constu 2, DW_OP_shr, DW_OP_stack_value] $r15d, $r12d
	#DEBUG_VALUE: pack8to16:a <- undef
	.loc	2 329 17 is_stmt 1              # x264_src/common/macroblock.h:329:17
	movl	%r12d, %r11d
	shll	$7, %r11d
	shll	$6, %r15d
.Ltmp630:
	addl	%r15d, %r11d
	addl	$128, %r11d
.Ltmp631:
	.loc	0 646 25                        # x264_src/common/predict.c:646:25
	shrl	$2, %eax
.Ltmp632:
	#DEBUG_VALUE: pack8to16:a <- $eax
	.loc	2 329 17                        # x264_src/common/macroblock.h:329:17
	andl	$130816, %r11d                  # imm = 0x1FF00
	.loc	2 329 13 is_stmt 0              # x264_src/common/macroblock.h:329:13
	addl	%eax, %r11d
.Ltmp633:
	#DEBUG_VALUE: predict_8x8_hd:p10 <- $r11d
	.loc	0 634 5 is_stmt 1               # x264_src/common/predict.c:634:5
	movzbl	21(%rsi), %eax
.Ltmp634:
	#DEBUG_VALUE: predict_8x8_hd:t5 <- $eax
	movzbl	22(%rsi), %esi
.Ltmp635:
	#DEBUG_VALUE: predict_8x8_hd:t6 <- $esi
	#DEBUG_VALUE: predict_8x8_hd:edge <- [DW_OP_LLVM_entry_value 1] $rsi
	.loc	0 647 25                        # x264_src/common/predict.c:647:25
	addl	%eax, %r12d
.Ltmp636:
	leal	(%r12,%r13,2), %r15d
	addl	$2, %r15d
	.loc	0 647 39 is_stmt 0              # x264_src/common/predict.c:647:39
	addl	%r13d, %esi
.Ltmp637:
	#DEBUG_VALUE: pack8to16:b <- [DW_OP_LLVM_arg 0, DW_OP_LLVM_arg 1, DW_OP_constu 1, DW_OP_shl, DW_OP_plus, DW_OP_plus_uconst 2, DW_OP_constu 2, DW_OP_shr, DW_OP_stack_value] $esi, $eax
	#DEBUG_VALUE: pack8to16:a <- undef
	.loc	2 329 17 is_stmt 1              # x264_src/common/macroblock.h:329:17
	shll	$7, %eax
.Ltmp638:
	shll	$6, %esi
	addl	%eax, %esi
	addl	$128, %esi
.Ltmp639:
	.loc	0 647 25                        # x264_src/common/predict.c:647:25
	shrl	$2, %r15d
.Ltmp640:
	#DEBUG_VALUE: pack8to16:a <- $r15d
	.loc	2 329 17                        # x264_src/common/macroblock.h:329:17
	andl	$65280, %esi                    # imm = 0xFF00
	.loc	2 329 13 is_stmt 0              # x264_src/common/macroblock.h:329:13
	addl	%r15d, %esi
.Ltmp641:
	#DEBUG_VALUE: predict_8x8_hd:p11 <- $esi
	#DEBUG_VALUE: pack16to32:b <- $ecx
	#DEBUG_VALUE: pack16to32:a <- [DW_OP_constu 4, DW_OP_minus, DW_OP_deref] $rsp
	#DEBUG_VALUE: pack16to32:b <- $edx
	#DEBUG_VALUE: pack16to32:a <- $ecx
	#DEBUG_VALUE: pack16to32:b <- $r8d
	#DEBUG_VALUE: pack16to32:a <- $edx
	#DEBUG_VALUE: pack16to32:b <- $r9d
	#DEBUG_VALUE: pack16to32:a <- $r8d
	#DEBUG_VALUE: pack16to32:b <- $r10d
	#DEBUG_VALUE: pack16to32:a <- $r9d
	#DEBUG_VALUE: pack16to32:b <- $ebp
	#DEBUG_VALUE: pack16to32:a <- $r10d
	#DEBUG_VALUE: pack16to32:b <- $r14d
	#DEBUG_VALUE: pack16to32:a <- $ebp
	#DEBUG_VALUE: pack16to32:b <- $ebx
	#DEBUG_VALUE: pack16to32:a <- $r14d
	#DEBUG_VALUE: pack16to32:a <- $ebx
	#DEBUG_VALUE: pack16to32:b <- $r11d
	#DEBUG_VALUE: pack16to32:a <- $r11d
	#DEBUG_VALUE: pack16to32:b <- $esi
	.loc	2 321 17 is_stmt 1              # x264_src/common/macroblock.h:321:17
	shll	$16, %esi
.Ltmp642:
	.loc	2 321 13 is_stmt 0              # x264_src/common/macroblock.h:321:13
	addl	%r11d, %esi
.Ltmp643:
	.loc	2 321 17                        # x264_src/common/macroblock.h:321:17
	shll	$16, %r11d
.Ltmp644:
	.loc	2 321 13                        # x264_src/common/macroblock.h:321:13
	addl	%ebx, %r11d
.Ltmp645:
	.loc	2 321 17                        # x264_src/common/macroblock.h:321:17
	shll	$16, %ebx
.Ltmp646:
	.loc	2 321 13                        # x264_src/common/macroblock.h:321:13
	addl	%r14d, %ebx
.Ltmp647:
	.loc	2 321 17                        # x264_src/common/macroblock.h:321:17
	shll	$16, %r14d
.Ltmp648:
	.loc	2 321 13                        # x264_src/common/macroblock.h:321:13
	addl	%ebp, %r14d
.Ltmp649:
	.loc	2 321 17                        # x264_src/common/macroblock.h:321:17
	shll	$16, %ebp
.Ltmp650:
	.loc	2 321 13                        # x264_src/common/macroblock.h:321:13
	addl	%r10d, %ebp
.Ltmp651:
	.loc	2 321 17                        # x264_src/common/macroblock.h:321:17
	shll	$16, %r10d
.Ltmp652:
	.loc	2 321 13                        # x264_src/common/macroblock.h:321:13
	addl	%r9d, %r10d
.Ltmp653:
	.loc	2 321 17                        # x264_src/common/macroblock.h:321:17
	shll	$16, %r9d
.Ltmp654:
	.loc	2 321 13                        # x264_src/common/macroblock.h:321:13
	addl	%r8d, %r9d
.Ltmp655:
	.loc	2 321 17                        # x264_src/common/macroblock.h:321:17
	shll	$16, %r8d
.Ltmp656:
	.loc	2 321 13                        # x264_src/common/macroblock.h:321:13
	addl	%edx, %r8d
.Ltmp657:
	.loc	2 321 17                        # x264_src/common/macroblock.h:321:17
	shll	$16, %edx
.Ltmp658:
	.loc	2 321 13                        # x264_src/common/macroblock.h:321:13
	addl	%ecx, %edx
.Ltmp659:
	.loc	2 321 17                        # x264_src/common/macroblock.h:321:17
	shll	$16, %ecx
.Ltmp660:
	.loc	2 321 13                        # x264_src/common/macroblock.h:321:13
	addl	-4(%rsp), %ecx                  # 4-byte Folded Reload
.Ltmp661:
	.loc	0 648 15 is_stmt 1              # x264_src/common/predict.c:648:15
	movl	%ecx, 224(%rdi)
	.loc	0 649 15                        # x264_src/common/predict.c:649:15
	movl	%edx, 192(%rdi)
	.loc	0 650 26                        # x264_src/common/predict.c:650:26
	movl	%r8d, 160(%rdi)
	.loc	0 650 15 is_stmt 0              # x264_src/common/predict.c:650:15
	movl	%r8d, 228(%rdi)
	.loc	0 651 26 is_stmt 1              # x264_src/common/predict.c:651:26
	movl	%r9d, 128(%rdi)
	.loc	0 651 15 is_stmt 0              # x264_src/common/predict.c:651:15
	movl	%r9d, 196(%rdi)
	.loc	0 652 26 is_stmt 1              # x264_src/common/predict.c:652:26
	movl	%r10d, 96(%rdi)
	.loc	0 652 15 is_stmt 0              # x264_src/common/predict.c:652:15
	movl	%r10d, 164(%rdi)
	.loc	0 653 26 is_stmt 1              # x264_src/common/predict.c:653:26
	movl	%ebp, 64(%rdi)
	.loc	0 653 15 is_stmt 0              # x264_src/common/predict.c:653:15
	movl	%ebp, 132(%rdi)
	.loc	0 654 26 is_stmt 1              # x264_src/common/predict.c:654:26
	movl	%r14d, 32(%rdi)
	.loc	0 654 15 is_stmt 0              # x264_src/common/predict.c:654:15
	movl	%r14d, 100(%rdi)
	.loc	0 655 26 is_stmt 1              # x264_src/common/predict.c:655:26
	movl	%ebx, (%rdi)
	.loc	0 655 15 is_stmt 0              # x264_src/common/predict.c:655:15
	movl	%ebx, 68(%rdi)
	.loc	0 656 15 is_stmt 1              # x264_src/common/predict.c:656:15
	movl	%r11d, 36(%rdi)
	.loc	0 657 15                        # x264_src/common/predict.c:657:15
	movl	%esi, 4(%rdi)
	.loc	0 658 1 epilogue_begin          # x264_src/common/predict.c:658:1
	popq	%rbx
	.cfi_def_cfa_offset 48
	popq	%r12
	.cfi_def_cfa_offset 40
	popq	%r13
.Ltmp662:
	.cfi_def_cfa_offset 32
	popq	%r14
	.cfi_def_cfa_offset 24
	popq	%r15
.Ltmp663:
	.cfi_def_cfa_offset 16
	popq	%rbp
	.cfi_def_cfa_offset 8
	retq
.Ltmp664:
.Lfunc_end23:
	.size	predict_8x8_hd, .Lfunc_end23-predict_8x8_hd
	.cfi_endproc
                                        # -- End function
	.p2align	4, 0x90                         # -- Begin function predict_8x8_vl
	.type	predict_8x8_vl,@function
predict_8x8_vl:                         # @predict_8x8_vl
.Lfunc_begin24:
	.loc	0 660 0                         # x264_src/common/predict.c:660:0
	.cfi_startproc
# %bb.0:                                # %entry
	#DEBUG_VALUE: predict_8x8_vl:src <- $rdi
	#DEBUG_VALUE: predict_8x8_vl:edge <- $rsi
	pushq	%rbp
	.cfi_def_cfa_offset 16
	pushq	%r15
	.cfi_def_cfa_offset 24
	pushq	%r14
	.cfi_def_cfa_offset 32
	pushq	%r13
	.cfi_def_cfa_offset 40
	pushq	%r12
	.cfi_def_cfa_offset 48
	pushq	%rbx
	.cfi_def_cfa_offset 56
	.cfi_offset %rbx, -56
	.cfi_offset %r12, -48
	.cfi_offset %r13, -40
	.cfi_offset %r14, -32
	.cfi_offset %r15, -24
	.cfi_offset %rbp, -16
	.loc	0 661 5 prologue_end            # x264_src/common/predict.c:661:5
	movzbl	16(%rsi), %ebp
.Ltmp665:
	#DEBUG_VALUE: predict_8x8_vl:t0 <- $ebp
	movzbl	17(%rsi), %r13d
.Ltmp666:
	#DEBUG_VALUE: predict_8x8_vl:t1 <- $r13d
	movzbl	18(%rsi), %r12d
.Ltmp667:
	#DEBUG_VALUE: predict_8x8_vl:t2 <- $r12d
	movzbl	19(%rsi), %r15d
.Ltmp668:
	#DEBUG_VALUE: predict_8x8_vl:t3 <- $r15d
	movzbl	20(%rsi), %r14d
.Ltmp669:
	#DEBUG_VALUE: predict_8x8_vl:t4 <- $r14d
	movzbl	21(%rsi), %ebx
.Ltmp670:
	#DEBUG_VALUE: predict_8x8_vl:t5 <- $ebx
	movzbl	22(%rsi), %r11d
.Ltmp671:
	#DEBUG_VALUE: predict_8x8_vl:t6 <- $r11d
	movzbl	23(%rsi), %r10d
.Ltmp672:
	#DEBUG_VALUE: predict_8x8_vl:t7 <- $r10d
	.loc	0 662 5                         # x264_src/common/predict.c:662:5
	movzbl	24(%rsi), %r9d
.Ltmp673:
	#DEBUG_VALUE: predict_8x8_vl:t8 <- $r9d
	movzbl	25(%rsi), %r8d
.Ltmp674:
	#DEBUG_VALUE: predict_8x8_vl:t9 <- $r8d
	movzbl	26(%rsi), %ecx
.Ltmp675:
	#DEBUG_VALUE: predict_8x8_vl:t10 <- $ecx
	movzbl	27(%rsi), %edx
.Ltmp676:
	#DEBUG_VALUE: predict_8x8_vl:t11 <- $edx
	movzbl	28(%rsi), %eax
.Ltmp677:
	#DEBUG_VALUE: predict_8x8_vl:t12 <- $eax
	.loc	0 663 15                        # x264_src/common/predict.c:663:15
	leal	1(%r13,%rbp), %esi
.Ltmp678:
	#DEBUG_VALUE: predict_8x8_vl:edge <- [DW_OP_LLVM_entry_value 1] $rsi
	shrl	%esi
	.loc	0 663 13 is_stmt 0              # x264_src/common/predict.c:663:13
	movb	%sil, (%rdi)
	.loc	0 664 15 is_stmt 1              # x264_src/common/predict.c:664:15
	leal	(%r12,%rbp), %esi
	addl	$2, %esi
	leal	(%rsi,%r13,2), %esi
	shrl	$2, %esi
	.loc	0 664 13 is_stmt 0              # x264_src/common/predict.c:664:13
	movb	%sil, 32(%rdi)
	.loc	0 665 24 is_stmt 1              # x264_src/common/predict.c:665:24
	leal	(%r12,%r13), %esi
	incl	%esi
	shrl	%esi
	.loc	0 665 22 is_stmt 0              # x264_src/common/predict.c:665:22
	movb	%sil, 1(%rdi)
	.loc	0 665 13                        # x264_src/common/predict.c:665:13
	movb	%sil, 64(%rdi)
	.loc	0 666 24 is_stmt 1              # x264_src/common/predict.c:666:24
	leal	(%r15,%r13), %esi
	addl	$2, %esi
	leal	(%rsi,%r12,2), %esi
	shrl	$2, %esi
	.loc	0 666 22 is_stmt 0              # x264_src/common/predict.c:666:22
	movb	%sil, 33(%rdi)
	.loc	0 666 13                        # x264_src/common/predict.c:666:13
	movb	%sil, 96(%rdi)
	.loc	0 667 33 is_stmt 1              # x264_src/common/predict.c:667:33
	leal	(%r12,%r15), %esi
	incl	%esi
	shrl	%esi
	.loc	0 667 31 is_stmt 0              # x264_src/common/predict.c:667:31
	movb	%sil, 2(%rdi)
	.loc	0 667 22                        # x264_src/common/predict.c:667:22
	movb	%sil, 65(%rdi)
	.loc	0 667 13                        # x264_src/common/predict.c:667:13
	movb	%sil, 128(%rdi)
	.loc	0 668 33 is_stmt 1              # x264_src/common/predict.c:668:33
	leal	(%r12,%r15,2), %esi
	addl	$2, %esi
	addl	%r14d, %esi
	shrl	$2, %esi
	.loc	0 668 31 is_stmt 0              # x264_src/common/predict.c:668:31
	movb	%sil, 34(%rdi)
	.loc	0 668 22                        # x264_src/common/predict.c:668:22
	movb	%sil, 97(%rdi)
	.loc	0 668 13                        # x264_src/common/predict.c:668:13
	movb	%sil, 160(%rdi)
	.loc	0 669 42 is_stmt 1              # x264_src/common/predict.c:669:42
	leal	(%r15,%r14), %esi
	incl	%esi
	shrl	%esi
	.loc	0 669 40 is_stmt 0              # x264_src/common/predict.c:669:40
	movb	%sil, 3(%rdi)
	.loc	0 669 31                        # x264_src/common/predict.c:669:31
	movb	%sil, 66(%rdi)
	.loc	0 669 22                        # x264_src/common/predict.c:669:22
	movb	%sil, 129(%rdi)
	.loc	0 669 13                        # x264_src/common/predict.c:669:13
	movb	%sil, 192(%rdi)
	.loc	0 670 42 is_stmt 1              # x264_src/common/predict.c:670:42
	leal	(%r15,%r14,2), %esi
	addl	$2, %esi
	addl	%ebx, %esi
	shrl	$2, %esi
	.loc	0 670 40 is_stmt 0              # x264_src/common/predict.c:670:40
	movb	%sil, 35(%rdi)
	.loc	0 670 31                        # x264_src/common/predict.c:670:31
	movb	%sil, 98(%rdi)
	.loc	0 670 22                        # x264_src/common/predict.c:670:22
	movb	%sil, 161(%rdi)
	.loc	0 670 13                        # x264_src/common/predict.c:670:13
	movb	%sil, 224(%rdi)
	.loc	0 671 42 is_stmt 1              # x264_src/common/predict.c:671:42
	leal	(%r14,%rbx), %esi
	incl	%esi
	shrl	%esi
	.loc	0 671 40 is_stmt 0              # x264_src/common/predict.c:671:40
	movb	%sil, 4(%rdi)
	.loc	0 671 31                        # x264_src/common/predict.c:671:31
	movb	%sil, 67(%rdi)
	.loc	0 671 22                        # x264_src/common/predict.c:671:22
	movb	%sil, 130(%rdi)
	.loc	0 671 13                        # x264_src/common/predict.c:671:13
	movb	%sil, 193(%rdi)
	.loc	0 672 42 is_stmt 1              # x264_src/common/predict.c:672:42
	leal	(%r14,%rbx,2), %esi
	addl	%r11d, %esi
	addl	$2, %esi
	shrl	$2, %esi
	.loc	0 672 40 is_stmt 0              # x264_src/common/predict.c:672:40
	movb	%sil, 36(%rdi)
	.loc	0 672 31                        # x264_src/common/predict.c:672:31
	movb	%sil, 99(%rdi)
	.loc	0 672 22                        # x264_src/common/predict.c:672:22
	movb	%sil, 162(%rdi)
	.loc	0 672 13                        # x264_src/common/predict.c:672:13
	movb	%sil, 225(%rdi)
	.loc	0 673 42 is_stmt 1              # x264_src/common/predict.c:673:42
	leal	(%rbx,%r11), %esi
	incl	%esi
	shrl	%esi
	.loc	0 673 40 is_stmt 0              # x264_src/common/predict.c:673:40
	movb	%sil, 5(%rdi)
	.loc	0 673 31                        # x264_src/common/predict.c:673:31
	movb	%sil, 68(%rdi)
	.loc	0 673 22                        # x264_src/common/predict.c:673:22
	movb	%sil, 131(%rdi)
	.loc	0 673 13                        # x264_src/common/predict.c:673:13
	movb	%sil, 194(%rdi)
	.loc	0 674 42 is_stmt 1              # x264_src/common/predict.c:674:42
	leal	(%rbx,%r11,2), %esi
	addl	%r10d, %esi
	addl	$2, %esi
	shrl	$2, %esi
	.loc	0 674 40 is_stmt 0              # x264_src/common/predict.c:674:40
	movb	%sil, 37(%rdi)
	.loc	0 674 31                        # x264_src/common/predict.c:674:31
	movb	%sil, 100(%rdi)
	.loc	0 674 22                        # x264_src/common/predict.c:674:22
	movb	%sil, 163(%rdi)
	.loc	0 674 13                        # x264_src/common/predict.c:674:13
	movb	%sil, 226(%rdi)
	.loc	0 675 42 is_stmt 1              # x264_src/common/predict.c:675:42
	leal	(%r11,%r10), %esi
	incl	%esi
	shrl	%esi
	.loc	0 675 40 is_stmt 0              # x264_src/common/predict.c:675:40
	movb	%sil, 6(%rdi)
	.loc	0 675 31                        # x264_src/common/predict.c:675:31
	movb	%sil, 69(%rdi)
	.loc	0 675 22                        # x264_src/common/predict.c:675:22
	movb	%sil, 132(%rdi)
	.loc	0 675 13                        # x264_src/common/predict.c:675:13
	movb	%sil, 195(%rdi)
	.loc	0 676 42 is_stmt 1              # x264_src/common/predict.c:676:42
	leal	(%r11,%r10,2), %esi
	addl	%r9d, %esi
	addl	$2, %esi
	shrl	$2, %esi
	.loc	0 676 40 is_stmt 0              # x264_src/common/predict.c:676:40
	movb	%sil, 38(%rdi)
	.loc	0 676 31                        # x264_src/common/predict.c:676:31
	movb	%sil, 101(%rdi)
	.loc	0 676 22                        # x264_src/common/predict.c:676:22
	movb	%sil, 164(%rdi)
	.loc	0 676 13                        # x264_src/common/predict.c:676:13
	movb	%sil, 227(%rdi)
	.loc	0 677 42 is_stmt 1              # x264_src/common/predict.c:677:42
	leal	(%r10,%r9), %esi
	incl	%esi
	shrl	%esi
	.loc	0 677 40 is_stmt 0              # x264_src/common/predict.c:677:40
	movb	%sil, 7(%rdi)
	.loc	0 677 31                        # x264_src/common/predict.c:677:31
	movb	%sil, 70(%rdi)
	.loc	0 677 22                        # x264_src/common/predict.c:677:22
	movb	%sil, 133(%rdi)
	.loc	0 677 13                        # x264_src/common/predict.c:677:13
	movb	%sil, 196(%rdi)
	.loc	0 678 42 is_stmt 1              # x264_src/common/predict.c:678:42
	leal	(%r10,%r9,2), %esi
	addl	%r8d, %esi
	addl	$2, %esi
	shrl	$2, %esi
	.loc	0 678 40 is_stmt 0              # x264_src/common/predict.c:678:40
	movb	%sil, 39(%rdi)
	.loc	0 678 31                        # x264_src/common/predict.c:678:31
	movb	%sil, 102(%rdi)
	.loc	0 678 22                        # x264_src/common/predict.c:678:22
	movb	%sil, 165(%rdi)
	.loc	0 678 13                        # x264_src/common/predict.c:678:13
	movb	%sil, 228(%rdi)
	.loc	0 679 33 is_stmt 1              # x264_src/common/predict.c:679:33
	leal	(%r9,%r8), %esi
	incl	%esi
	shrl	%esi
	.loc	0 679 31 is_stmt 0              # x264_src/common/predict.c:679:31
	movb	%sil, 71(%rdi)
	.loc	0 679 22                        # x264_src/common/predict.c:679:22
	movb	%sil, 134(%rdi)
	.loc	0 679 13                        # x264_src/common/predict.c:679:13
	movb	%sil, 197(%rdi)
	.loc	0 680 33 is_stmt 1              # x264_src/common/predict.c:680:33
	leal	(%r9,%r8,2), %esi
	addl	%ecx, %esi
	addl	$2, %esi
	shrl	$2, %esi
	.loc	0 680 31 is_stmt 0              # x264_src/common/predict.c:680:31
	movb	%sil, 103(%rdi)
	.loc	0 680 22                        # x264_src/common/predict.c:680:22
	movb	%sil, 166(%rdi)
	.loc	0 680 13                        # x264_src/common/predict.c:680:13
	movb	%sil, 229(%rdi)
	.loc	0 681 24 is_stmt 1              # x264_src/common/predict.c:681:24
	leal	(%r8,%rcx), %esi
	incl	%esi
	shrl	%esi
	.loc	0 681 22 is_stmt 0              # x264_src/common/predict.c:681:22
	movb	%sil, 135(%rdi)
	.loc	0 681 13                        # x264_src/common/predict.c:681:13
	movb	%sil, 198(%rdi)
	.loc	0 682 24 is_stmt 1              # x264_src/common/predict.c:682:24
	leal	(%r8,%rcx,2), %esi
	addl	%edx, %esi
	addl	$2, %esi
	shrl	$2, %esi
	.loc	0 682 22 is_stmt 0              # x264_src/common/predict.c:682:22
	movb	%sil, 167(%rdi)
	.loc	0 682 13                        # x264_src/common/predict.c:682:13
	movb	%sil, 230(%rdi)
	.loc	0 683 15 is_stmt 1              # x264_src/common/predict.c:683:15
	leal	(%rcx,%rdx), %esi
	incl	%esi
	shrl	%esi
	.loc	0 683 13 is_stmt 0              # x264_src/common/predict.c:683:13
	movb	%sil, 199(%rdi)
	.loc	0 684 15 is_stmt 1              # x264_src/common/predict.c:684:15
	leal	(%rcx,%rdx,2), %ecx
.Ltmp679:
	addl	%ecx, %eax
.Ltmp680:
	addl	$2, %eax
	shrl	$2, %eax
	.loc	0 684 13 is_stmt 0              # x264_src/common/predict.c:684:13
	movb	%al, 231(%rdi)
	.loc	0 685 1 epilogue_begin is_stmt 1 # x264_src/common/predict.c:685:1
	popq	%rbx
.Ltmp681:
	.cfi_def_cfa_offset 48
	popq	%r12
.Ltmp682:
	.cfi_def_cfa_offset 40
	popq	%r13
.Ltmp683:
	.cfi_def_cfa_offset 32
	popq	%r14
.Ltmp684:
	.cfi_def_cfa_offset 24
	popq	%r15
.Ltmp685:
	.cfi_def_cfa_offset 16
	popq	%rbp
.Ltmp686:
	.cfi_def_cfa_offset 8
	retq
.Ltmp687:
.Lfunc_end24:
	.size	predict_8x8_vl, .Lfunc_end24-predict_8x8_vl
	.cfi_endproc
                                        # -- End function
	.p2align	4, 0x90                         # -- Begin function predict_8x8_hu
	.type	predict_8x8_hu,@function
predict_8x8_hu:                         # @predict_8x8_hu
.Lfunc_begin25:
	.loc	0 687 0                         # x264_src/common/predict.c:687:0
	.cfi_startproc
# %bb.0:                                # %entry
	#DEBUG_VALUE: predict_8x8_hu:src <- $rdi
	#DEBUG_VALUE: predict_8x8_hu:edge <- $rsi
	pushq	%rbp
	.cfi_def_cfa_offset 16
	pushq	%r14
	.cfi_def_cfa_offset 24
	pushq	%rbx
	.cfi_def_cfa_offset 32
	.cfi_offset %rbx, -32
	.cfi_offset %r14, -24
	.cfi_offset %rbp, -16
	.loc	0 688 5 prologue_end            # x264_src/common/predict.c:688:5
	movzbl	14(%rsi), %eax
.Ltmp688:
	#DEBUG_VALUE: predict_8x8_hu:l0 <- $eax
	movzbl	13(%rsi), %ebx
.Ltmp689:
	#DEBUG_VALUE: predict_8x8_hu:l1 <- $ebx
	movzbl	12(%rsi), %r8d
.Ltmp690:
	#DEBUG_VALUE: predict_8x8_hu:l2 <- $r8d
	movzbl	11(%rsi), %r9d
.Ltmp691:
	#DEBUG_VALUE: predict_8x8_hu:l3 <- $r9d
	movzbl	10(%rsi), %r10d
.Ltmp692:
	#DEBUG_VALUE: predict_8x8_hu:l4 <- $r10d
	movzbl	9(%rsi), %r11d
.Ltmp693:
	#DEBUG_VALUE: predict_8x8_hu:l5 <- $r11d
	movzbl	8(%rsi), %ecx
.Ltmp694:
	#DEBUG_VALUE: predict_8x8_hu:l6 <- $ecx
	movzbl	7(%rsi), %edx
.Ltmp695:
	#DEBUG_VALUE: predict_8x8_hu:l7 <- $edx
	.loc	0 689 24                        # x264_src/common/predict.c:689:24
	leal	(%rbx,%rax), %esi
.Ltmp696:
	#DEBUG_VALUE: predict_8x8_hu:edge <- [DW_OP_LLVM_entry_value 1] $rsi
	incl	%esi
	shrl	%esi
	movzbl	%sil, %esi
.Ltmp697:
	#DEBUG_VALUE: pack8to16:a <- $esi
	.loc	0 689 35 is_stmt 0              # x264_src/common/predict.c:689:35
	leal	(%rax,%rbx,2), %eax
.Ltmp698:
	addl	%r8d, %eax
.Ltmp699:
	#DEBUG_VALUE: pack8to16:b <- [DW_OP_plus_uconst 2, DW_OP_constu 2, DW_OP_shr, DW_OP_stack_value] $eax
	.loc	2 329 17 is_stmt 1              # x264_src/common/macroblock.h:329:17
	shll	$6, %eax
.Ltmp700:
	subl	$-128, %eax
	andl	$261888, %eax                   # imm = 0x3FF00
	.loc	2 329 13 is_stmt 0              # x264_src/common/macroblock.h:329:13
	orl	%esi, %eax
.Ltmp701:
	#DEBUG_VALUE: predict_8x8_hu:p1 <- $eax
	.loc	0 690 24 is_stmt 1              # x264_src/common/predict.c:690:24
	leal	(%rbx,%r8), %esi
.Ltmp702:
	incl	%esi
	shrl	%esi
	movzbl	%sil, %ebp
.Ltmp703:
	#DEBUG_VALUE: pack8to16:a <- $ebp
	.loc	0 690 35 is_stmt 0              # x264_src/common/predict.c:690:35
	leal	(%rbx,%r8,2), %esi
	addl	%r9d, %esi
.Ltmp704:
	#DEBUG_VALUE: pack8to16:b <- [DW_OP_plus_uconst 2, DW_OP_constu 2, DW_OP_shr, DW_OP_stack_value] $esi
	.loc	2 329 17 is_stmt 1              # x264_src/common/macroblock.h:329:17
	shll	$6, %esi
.Ltmp705:
	subl	$-128, %esi
	andl	$261888, %esi                   # imm = 0x3FF00
	.loc	2 329 13 is_stmt 0              # x264_src/common/macroblock.h:329:13
	orl	%ebp, %esi
.Ltmp706:
	#DEBUG_VALUE: predict_8x8_hu:p2 <- $esi
	.loc	0 691 24 is_stmt 1              # x264_src/common/predict.c:691:24
	leal	(%r8,%r9), %ebx
.Ltmp707:
	incl	%ebx
	shrl	%ebx
	movzbl	%bl, %ebx
.Ltmp708:
	#DEBUG_VALUE: pack8to16:a <- $ebx
	.loc	0 691 35 is_stmt 0              # x264_src/common/predict.c:691:35
	leal	(%r8,%r9,2), %r8d
.Ltmp709:
	addl	%r10d, %r8d
.Ltmp710:
	#DEBUG_VALUE: pack8to16:b <- [DW_OP_plus_uconst 2, DW_OP_constu 2, DW_OP_shr, DW_OP_stack_value] $r8d
	.loc	2 329 17 is_stmt 1              # x264_src/common/macroblock.h:329:17
	shll	$6, %r8d
.Ltmp711:
	subl	$-128, %r8d
	andl	$261888, %r8d                   # imm = 0x3FF00
	.loc	2 329 13 is_stmt 0              # x264_src/common/macroblock.h:329:13
	orl	%ebx, %r8d
.Ltmp712:
	#DEBUG_VALUE: predict_8x8_hu:p3 <- $r8d
	.loc	0 692 24 is_stmt 1              # x264_src/common/predict.c:692:24
	leal	(%r9,%r10), %ebx
.Ltmp713:
	incl	%ebx
	shrl	%ebx
	movzbl	%bl, %ebx
.Ltmp714:
	#DEBUG_VALUE: pack8to16:a <- $ebx
	.loc	0 692 35 is_stmt 0              # x264_src/common/predict.c:692:35
	leal	(%r9,%r10,2), %r9d
.Ltmp715:
	addl	%r11d, %r9d
.Ltmp716:
	#DEBUG_VALUE: pack8to16:b <- [DW_OP_plus_uconst 2, DW_OP_constu 2, DW_OP_shr, DW_OP_stack_value] $r9d
	.loc	2 329 17 is_stmt 1              # x264_src/common/macroblock.h:329:17
	shll	$6, %r9d
.Ltmp717:
	subl	$-128, %r9d
	andl	$261888, %r9d                   # imm = 0x3FF00
	.loc	2 329 13 is_stmt 0              # x264_src/common/macroblock.h:329:13
	orl	%ebx, %r9d
.Ltmp718:
	#DEBUG_VALUE: predict_8x8_hu:p4 <- $r9d
	.loc	0 693 24 is_stmt 1              # x264_src/common/predict.c:693:24
	leal	(%r10,%r11), %ebx
.Ltmp719:
	incl	%ebx
	shrl	%ebx
	movzbl	%bl, %ebx
.Ltmp720:
	#DEBUG_VALUE: pack8to16:a <- $ebx
	.loc	0 693 35 is_stmt 0              # x264_src/common/predict.c:693:35
	leal	(%r10,%r11,2), %r10d
.Ltmp721:
	addl	%ecx, %r10d
.Ltmp722:
	#DEBUG_VALUE: pack8to16:b <- [DW_OP_plus_uconst 2, DW_OP_constu 2, DW_OP_shr, DW_OP_stack_value] $r10d
	.loc	2 329 17 is_stmt 1              # x264_src/common/macroblock.h:329:17
	shll	$6, %r10d
.Ltmp723:
	subl	$-128, %r10d
	andl	$261888, %r10d                  # imm = 0x3FF00
	.loc	2 329 13 is_stmt 0              # x264_src/common/macroblock.h:329:13
	orl	%ebx, %r10d
.Ltmp724:
	#DEBUG_VALUE: predict_8x8_hu:p5 <- $r10d
	.loc	0 694 24 is_stmt 1              # x264_src/common/predict.c:694:24
	leal	(%r11,%rcx), %ebx
.Ltmp725:
	incl	%ebx
	shrl	%ebx
	movzbl	%bl, %ebx
.Ltmp726:
	#DEBUG_VALUE: pack8to16:a <- $ebx
	.loc	0 694 35 is_stmt 0              # x264_src/common/predict.c:694:35
	leal	(%r11,%rcx,2), %r11d
.Ltmp727:
	addl	%edx, %r11d
.Ltmp728:
	#DEBUG_VALUE: pack8to16:b <- [DW_OP_plus_uconst 2, DW_OP_constu 2, DW_OP_shr, DW_OP_stack_value] $r11d
	.loc	2 329 17 is_stmt 1              # x264_src/common/macroblock.h:329:17
	shll	$6, %r11d
.Ltmp729:
	subl	$-128, %r11d
	andl	$261888, %r11d                  # imm = 0x3FF00
	.loc	2 329 13 is_stmt 0              # x264_src/common/macroblock.h:329:13
	orl	%ebx, %r11d
.Ltmp730:
	#DEBUG_VALUE: predict_8x8_hu:p6 <- $r11d
	.loc	0 695 24 is_stmt 1              # x264_src/common/predict.c:695:24
	leal	(%rdx,%rcx), %ebx
.Ltmp731:
	incl	%ebx
.Ltmp732:
	#DEBUG_VALUE: pack8to16:a <- undef
	.loc	0 695 35 is_stmt 0              # x264_src/common/predict.c:695:35
	addl	%edx, %ecx
.Ltmp733:
	#DEBUG_VALUE: pack8to16:b <- [DW_OP_LLVM_arg 0, DW_OP_LLVM_arg 1, DW_OP_constu 1, DW_OP_shl, DW_OP_plus, DW_OP_plus_uconst 2, DW_OP_constu 2, DW_OP_shr, DW_OP_stack_value] $ecx, $edx
	#DEBUG_VALUE: predict_8x8_hu:p7 <- undef
	#DEBUG_VALUE: pack16to32:b <- $esi
	#DEBUG_VALUE: pack16to32:a <- $eax
	#DEBUG_VALUE: predict_8x8_hu:p8 <- [DW_OP_constu 257, DW_OP_mul, DW_OP_stack_value] $edx
	#DEBUG_VALUE: pack16to32:b <- $r8d
	#DEBUG_VALUE: pack16to32:a <- $esi
	#DEBUG_VALUE: pack16to32:b <- $r9d
	#DEBUG_VALUE: pack16to32:a <- $r8d
	#DEBUG_VALUE: pack16to32:b <- $r10d
	#DEBUG_VALUE: pack16to32:a <- $r9d
	#DEBUG_VALUE: pack16to32:b <- $r11d
	#DEBUG_VALUE: pack16to32:a <- $r10d
	#DEBUG_VALUE: pack16to32:b <- undef
	#DEBUG_VALUE: pack16to32:a <- $r11d
	#DEBUG_VALUE: pack16to32:a <- undef
	#DEBUG_VALUE: pack16to32:b <- [DW_OP_constu 257, DW_OP_mul, DW_OP_stack_value] $edx
	.loc	2 321 17 is_stmt 1              # x264_src/common/macroblock.h:321:17
	imull	$16842752, %edx, %ebp           # imm = 0x1010000
.Ltmp734:
	#DEBUG_VALUE: pack16to32:a <- [DW_OP_constu 257, DW_OP_mul, DW_OP_stack_value] $edx
	#DEBUG_VALUE: pack16to32:b <- [DW_OP_constu 257, DW_OP_mul, DW_OP_stack_value] $edx
	.loc	2 321 13 is_stmt 0              # x264_src/common/macroblock.h:321:13
	imull	$16843009, %edx, %r14d          # imm = 0x1010101
.Ltmp735:
                                        # kill: def $edx killed $edx killed $rdx def $rdx
	.loc	2 329 17 is_stmt 1              # x264_src/common/macroblock.h:329:17
	shll	$7, %edx
.Ltmp736:
	shll	$6, %ecx
	addl	%edx, %ecx
	addl	$128, %ecx
.Ltmp737:
	.loc	0 695 24                        # x264_src/common/predict.c:695:24
	shrl	%ebx
	movzbl	%bl, %edx
.Ltmp738:
	#DEBUG_VALUE: pack8to16:a <- $edx
	.loc	2 329 17                        # x264_src/common/macroblock.h:329:17
	andl	$130816, %ecx                   # imm = 0x1FF00
	.loc	2 329 13 is_stmt 0              # x264_src/common/macroblock.h:329:13
	orl	%edx, %ecx
.Ltmp739:
	#DEBUG_VALUE: pack16to32:a <- $ecx
	#DEBUG_VALUE: pack16to32:b <- $ecx
	#DEBUG_VALUE: predict_8x8_hu:p7 <- $ecx
	.loc	2 321 13 is_stmt 1              # x264_src/common/macroblock.h:321:13
	addl	%ecx, %ebp
.Ltmp740:
	.loc	2 321 17 is_stmt 0              # x264_src/common/macroblock.h:321:17
	shll	$16, %ecx
.Ltmp741:
	.loc	2 321 13                        # x264_src/common/macroblock.h:321:13
	addl	%r11d, %ecx
.Ltmp742:
	.loc	2 321 17                        # x264_src/common/macroblock.h:321:17
	shll	$16, %r11d
.Ltmp743:
	.loc	2 321 13                        # x264_src/common/macroblock.h:321:13
	addl	%r10d, %r11d
.Ltmp744:
	.loc	2 321 17                        # x264_src/common/macroblock.h:321:17
	shll	$16, %r10d
.Ltmp745:
	.loc	2 321 13                        # x264_src/common/macroblock.h:321:13
	addl	%r9d, %r10d
.Ltmp746:
	.loc	2 321 17                        # x264_src/common/macroblock.h:321:17
	shll	$16, %r9d
.Ltmp747:
	.loc	2 321 13                        # x264_src/common/macroblock.h:321:13
	addl	%r8d, %r9d
.Ltmp748:
	.loc	2 321 17                        # x264_src/common/macroblock.h:321:17
	shll	$16, %r8d
.Ltmp749:
	.loc	2 321 13                        # x264_src/common/macroblock.h:321:13
	addl	%esi, %r8d
.Ltmp750:
	.loc	2 321 17                        # x264_src/common/macroblock.h:321:17
	shll	$16, %esi
.Ltmp751:
	.loc	2 321 13                        # x264_src/common/macroblock.h:321:13
	addl	%eax, %esi
.Ltmp752:
	.loc	0 697 15 is_stmt 1              # x264_src/common/predict.c:697:15
	movl	%esi, (%rdi)
	.loc	0 698 15                        # x264_src/common/predict.c:698:15
	movl	%r8d, 32(%rdi)
	.loc	0 699 26                        # x264_src/common/predict.c:699:26
	movl	%r9d, 64(%rdi)
	.loc	0 699 15 is_stmt 0              # x264_src/common/predict.c:699:15
	movl	%r9d, 4(%rdi)
	.loc	0 700 26 is_stmt 1              # x264_src/common/predict.c:700:26
	movl	%r10d, 96(%rdi)
	.loc	0 700 15 is_stmt 0              # x264_src/common/predict.c:700:15
	movl	%r10d, 36(%rdi)
	.loc	0 701 26 is_stmt 1              # x264_src/common/predict.c:701:26
	movl	%r11d, 128(%rdi)
	.loc	0 701 15 is_stmt 0              # x264_src/common/predict.c:701:15
	movl	%r11d, 68(%rdi)
	.loc	0 702 26 is_stmt 1              # x264_src/common/predict.c:702:26
	movl	%ecx, 160(%rdi)
	.loc	0 702 15 is_stmt 0              # x264_src/common/predict.c:702:15
	movl	%ecx, 100(%rdi)
	.loc	0 703 26 is_stmt 1              # x264_src/common/predict.c:703:26
	movl	%ebp, 192(%rdi)
	.loc	0 703 15 is_stmt 0              # x264_src/common/predict.c:703:15
	movl	%ebp, 132(%rdi)
	.loc	0 704 52 is_stmt 1              # x264_src/common/predict.c:704:52
	movl	%r14d, 228(%rdi)
	.loc	0 704 39 is_stmt 0              # x264_src/common/predict.c:704:39
	movl	%r14d, 224(%rdi)
	.loc	0 704 26                        # x264_src/common/predict.c:704:26
	movl	%r14d, 196(%rdi)
	.loc	0 704 15                        # x264_src/common/predict.c:704:15
	movl	%r14d, 164(%rdi)
	.loc	0 705 1 epilogue_begin is_stmt 1 # x264_src/common/predict.c:705:1
	popq	%rbx
	.cfi_def_cfa_offset 24
	popq	%r14
	.cfi_def_cfa_offset 16
	popq	%rbp
	.cfi_def_cfa_offset 8
	retq
.Ltmp753:
.Lfunc_end25:
	.size	predict_8x8_hu, .Lfunc_end25-predict_8x8_hu
	.cfi_endproc
                                        # -- End function
	.p2align	4, 0x90                         # -- Begin function predict_8x8_dc_left
	.type	predict_8x8_dc_left,@function
predict_8x8_dc_left:                    # @predict_8x8_dc_left
.Lfunc_begin26:
	.cfi_startproc
# %bb.0:                                # %entry
	#DEBUG_VALUE: predict_8x8_dc_left:src <- $rdi
	#DEBUG_VALUE: predict_8x8_dc_left:edge <- $rsi
	.loc	0 530 5 prologue_end            # x264_src/common/predict.c:530:5
	movzbl	14(%rsi), %eax
.Ltmp754:
	#DEBUG_VALUE: predict_8x8_dc_left:l0 <- $eax
	movzbl	13(%rsi), %ecx
.Ltmp755:
	#DEBUG_VALUE: predict_8x8_dc_left:l1 <- $ecx
	.loc	0 531 23                        # x264_src/common/predict.c:531:23
	addl	%eax, %ecx
.Ltmp756:
	.loc	0 530 5                         # x264_src/common/predict.c:530:5
	movzbl	12(%rsi), %eax
.Ltmp757:
	#DEBUG_VALUE: predict_8x8_dc_left:l2 <- $eax
	movzbl	11(%rsi), %edx
.Ltmp758:
	#DEBUG_VALUE: predict_8x8_dc_left:l3 <- $edx
	.loc	0 531 26                        # x264_src/common/predict.c:531:26
	addl	%eax, %edx
.Ltmp759:
	.loc	0 531 29 is_stmt 0              # x264_src/common/predict.c:531:29
	addl	%ecx, %edx
	.loc	0 530 5 is_stmt 1               # x264_src/common/predict.c:530:5
	movzbl	10(%rsi), %eax
.Ltmp760:
	#DEBUG_VALUE: predict_8x8_dc_left:l4 <- $eax
	movzbl	9(%rsi), %ecx
.Ltmp761:
	#DEBUG_VALUE: predict_8x8_dc_left:l5 <- $ecx
	.loc	0 531 32                        # x264_src/common/predict.c:531:32
	addl	%eax, %ecx
.Ltmp762:
	.loc	0 530 5                         # x264_src/common/predict.c:530:5
	movzbl	8(%rsi), %eax
.Ltmp763:
	#DEBUG_VALUE: predict_8x8_dc_left:l6 <- $eax
	.loc	0 531 35                        # x264_src/common/predict.c:531:35
	addl	%ecx, %eax
.Ltmp764:
	.loc	0 531 38 is_stmt 0              # x264_src/common/predict.c:531:38
	addl	%edx, %eax
	.loc	0 530 5 is_stmt 1               # x264_src/common/predict.c:530:5
	movzbl	7(%rsi), %ecx
.Ltmp765:
	#DEBUG_VALUE: predict_8x8_dc_left:l7 <- $ecx
	.loc	0 531 44                        # x264_src/common/predict.c:531:44
	addl	%ecx, %eax
	addl	$4, %eax
	.loc	0 531 48 is_stmt 0              # x264_src/common/predict.c:531:48
	shrl	$3, %eax
	.loc	0 531 54                        # x264_src/common/predict.c:531:54
	imull	$16843009, %eax, %eax           # imm = 0x1010101
.Ltmp766:
	#DEBUG_VALUE: predict_8x8_dc_left:dc <- $eax
	#DEBUG_VALUE: y <- 0
	.loc	0 532 5 is_stmt 1               # x264_src/common/predict.c:532:5
	movl	%eax, (%rdi)
	movl	%eax, 4(%rdi)
.Ltmp767:
	#DEBUG_VALUE: y <- 1
	#DEBUG_VALUE: predict_8x8_dc_left:src <- [DW_OP_plus_uconst 32, DW_OP_stack_value] $rdi
	movl	%eax, 32(%rdi)
	movl	%eax, 36(%rdi)
.Ltmp768:
	#DEBUG_VALUE: y <- 2
	#DEBUG_VALUE: predict_8x8_dc_left:src <- [DW_OP_plus_uconst 64, DW_OP_stack_value] $rdi
	movl	%eax, 64(%rdi)
	movl	%eax, 68(%rdi)
.Ltmp769:
	#DEBUG_VALUE: y <- 3
	#DEBUG_VALUE: predict_8x8_dc_left:src <- [DW_OP_plus_uconst 96, DW_OP_stack_value] $rdi
	movl	%eax, 96(%rdi)
	movl	%eax, 100(%rdi)
.Ltmp770:
	#DEBUG_VALUE: y <- 4
	#DEBUG_VALUE: predict_8x8_dc_left:src <- [DW_OP_plus_uconst 128, DW_OP_stack_value] $rdi
	movl	%eax, 128(%rdi)
	movl	%eax, 132(%rdi)
.Ltmp771:
	#DEBUG_VALUE: y <- 5
	#DEBUG_VALUE: predict_8x8_dc_left:src <- [DW_OP_plus_uconst 160, DW_OP_stack_value] $rdi
	movl	%eax, 160(%rdi)
	movl	%eax, 164(%rdi)
.Ltmp772:
	#DEBUG_VALUE: y <- 6
	#DEBUG_VALUE: predict_8x8_dc_left:src <- [DW_OP_plus_uconst 192, DW_OP_stack_value] $rdi
	movl	%eax, 192(%rdi)
	movl	%eax, 196(%rdi)
.Ltmp773:
	#DEBUG_VALUE: y <- 7
	#DEBUG_VALUE: predict_8x8_dc_left:src <- [DW_OP_plus_uconst 224, DW_OP_stack_value] $rdi
	movl	%eax, 224(%rdi)
	movl	%eax, 228(%rdi)
.Ltmp774:
	#DEBUG_VALUE: y <- 8
	#DEBUG_VALUE: predict_8x8_dc_left:src <- [DW_OP_plus_uconst 224, DW_OP_plus_uconst 32, DW_OP_stack_value] $rdi
	.loc	0 533 1                         # x264_src/common/predict.c:533:1
	retq
.Ltmp775:
.Lfunc_end26:
	.size	predict_8x8_dc_left, .Lfunc_end26-predict_8x8_dc_left
	.cfi_endproc
                                        # -- End function
	.p2align	4, 0x90                         # -- Begin function predict_8x8_dc_top
	.type	predict_8x8_dc_top,@function
predict_8x8_dc_top:                     # @predict_8x8_dc_top
.Lfunc_begin27:
	.cfi_startproc
# %bb.0:                                # %entry
	#DEBUG_VALUE: predict_8x8_dc_top:src <- $rdi
	#DEBUG_VALUE: predict_8x8_dc_top:edge <- $rsi
	.loc	0 536 5 prologue_end            # x264_src/common/predict.c:536:5
	movzbl	16(%rsi), %eax
.Ltmp776:
	#DEBUG_VALUE: predict_8x8_dc_top:t0 <- $eax
	movzbl	17(%rsi), %ecx
.Ltmp777:
	#DEBUG_VALUE: predict_8x8_dc_top:t1 <- $ecx
	.loc	0 537 23                        # x264_src/common/predict.c:537:23
	addl	%eax, %ecx
.Ltmp778:
	.loc	0 536 5                         # x264_src/common/predict.c:536:5
	movzbl	18(%rsi), %eax
.Ltmp779:
	#DEBUG_VALUE: predict_8x8_dc_top:t2 <- $eax
	movzbl	19(%rsi), %edx
.Ltmp780:
	#DEBUG_VALUE: predict_8x8_dc_top:t3 <- $edx
	.loc	0 537 26                        # x264_src/common/predict.c:537:26
	addl	%eax, %edx
.Ltmp781:
	.loc	0 537 29 is_stmt 0              # x264_src/common/predict.c:537:29
	addl	%ecx, %edx
	.loc	0 536 5 is_stmt 1               # x264_src/common/predict.c:536:5
	movzbl	20(%rsi), %eax
.Ltmp782:
	#DEBUG_VALUE: predict_8x8_dc_top:t4 <- $eax
	movzbl	21(%rsi), %ecx
.Ltmp783:
	#DEBUG_VALUE: predict_8x8_dc_top:t5 <- $ecx
	.loc	0 537 32                        # x264_src/common/predict.c:537:32
	addl	%eax, %ecx
.Ltmp784:
	.loc	0 536 5                         # x264_src/common/predict.c:536:5
	movzbl	22(%rsi), %eax
.Ltmp785:
	#DEBUG_VALUE: predict_8x8_dc_top:t6 <- $eax
	.loc	0 537 35                        # x264_src/common/predict.c:537:35
	addl	%ecx, %eax
.Ltmp786:
	.loc	0 537 38 is_stmt 0              # x264_src/common/predict.c:537:38
	addl	%edx, %eax
	.loc	0 536 5 is_stmt 1               # x264_src/common/predict.c:536:5
	movzbl	23(%rsi), %ecx
.Ltmp787:
	#DEBUG_VALUE: predict_8x8_dc_top:t7 <- $ecx
	.loc	0 537 44                        # x264_src/common/predict.c:537:44
	addl	%ecx, %eax
	addl	$4, %eax
	.loc	0 537 48 is_stmt 0              # x264_src/common/predict.c:537:48
	shrl	$3, %eax
	.loc	0 537 54                        # x264_src/common/predict.c:537:54
	imull	$16843009, %eax, %eax           # imm = 0x1010101
.Ltmp788:
	#DEBUG_VALUE: predict_8x8_dc_top:dc <- $eax
	#DEBUG_VALUE: y <- 0
	.loc	0 538 5 is_stmt 1               # x264_src/common/predict.c:538:5
	movl	%eax, (%rdi)
	movl	%eax, 4(%rdi)
.Ltmp789:
	#DEBUG_VALUE: y <- 1
	#DEBUG_VALUE: predict_8x8_dc_top:src <- [DW_OP_plus_uconst 32, DW_OP_stack_value] $rdi
	movl	%eax, 32(%rdi)
	movl	%eax, 36(%rdi)
.Ltmp790:
	#DEBUG_VALUE: y <- 2
	#DEBUG_VALUE: predict_8x8_dc_top:src <- [DW_OP_plus_uconst 64, DW_OP_stack_value] $rdi
	movl	%eax, 64(%rdi)
	movl	%eax, 68(%rdi)
.Ltmp791:
	#DEBUG_VALUE: y <- 3
	#DEBUG_VALUE: predict_8x8_dc_top:src <- [DW_OP_plus_uconst 96, DW_OP_stack_value] $rdi
	movl	%eax, 96(%rdi)
	movl	%eax, 100(%rdi)
.Ltmp792:
	#DEBUG_VALUE: y <- 4
	#DEBUG_VALUE: predict_8x8_dc_top:src <- [DW_OP_plus_uconst 128, DW_OP_stack_value] $rdi
	movl	%eax, 128(%rdi)
	movl	%eax, 132(%rdi)
.Ltmp793:
	#DEBUG_VALUE: y <- 5
	#DEBUG_VALUE: predict_8x8_dc_top:src <- [DW_OP_plus_uconst 160, DW_OP_stack_value] $rdi
	movl	%eax, 160(%rdi)
	movl	%eax, 164(%rdi)
.Ltmp794:
	#DEBUG_VALUE: y <- 6
	#DEBUG_VALUE: predict_8x8_dc_top:src <- [DW_OP_plus_uconst 192, DW_OP_stack_value] $rdi
	movl	%eax, 192(%rdi)
	movl	%eax, 196(%rdi)
.Ltmp795:
	#DEBUG_VALUE: y <- 7
	#DEBUG_VALUE: predict_8x8_dc_top:src <- [DW_OP_plus_uconst 224, DW_OP_stack_value] $rdi
	movl	%eax, 224(%rdi)
	movl	%eax, 228(%rdi)
.Ltmp796:
	#DEBUG_VALUE: y <- 8
	#DEBUG_VALUE: predict_8x8_dc_top:src <- [DW_OP_plus_uconst 224, DW_OP_plus_uconst 32, DW_OP_stack_value] $rdi
	.loc	0 539 1                         # x264_src/common/predict.c:539:1
	retq
.Ltmp797:
.Lfunc_end27:
	.size	predict_8x8_dc_top, .Lfunc_end27-predict_8x8_dc_top
	.cfi_endproc
                                        # -- End function
	.p2align	4, 0x90                         # -- Begin function predict_8x8_dc_128
	.type	predict_8x8_dc_128,@function
predict_8x8_dc_128:                     # @predict_8x8_dc_128
.Lfunc_begin28:
	.loc	0 525 0                         # x264_src/common/predict.c:525:0
	.cfi_startproc
# %bb.0:                                # %entry
	#DEBUG_VALUE: predict_8x8_dc_128:src <- $rdi
	#DEBUG_VALUE: y <- 0
	movabsq	$-9187201950435737472, %rax     # imm = 0x8080808080808080
.Ltmp798:
	.loc	0 526 5 prologue_end            # x264_src/common/predict.c:526:5
	movq	%rax, (%rdi)
.Ltmp799:
	#DEBUG_VALUE: y <- 1
	#DEBUG_VALUE: predict_8x8_dc_128:src <- [DW_OP_plus_uconst 32, DW_OP_stack_value] $rdi
	movq	%rax, 32(%rdi)
.Ltmp800:
	#DEBUG_VALUE: y <- 2
	#DEBUG_VALUE: predict_8x8_dc_128:src <- [DW_OP_plus_uconst 64, DW_OP_stack_value] $rdi
	movq	%rax, 64(%rdi)
.Ltmp801:
	#DEBUG_VALUE: y <- 3
	#DEBUG_VALUE: predict_8x8_dc_128:src <- [DW_OP_plus_uconst 96, DW_OP_stack_value] $rdi
	movq	%rax, 96(%rdi)
.Ltmp802:
	#DEBUG_VALUE: y <- 4
	#DEBUG_VALUE: predict_8x8_dc_128:src <- [DW_OP_plus_uconst 128, DW_OP_stack_value] $rdi
	movq	%rax, 128(%rdi)
.Ltmp803:
	#DEBUG_VALUE: y <- 5
	#DEBUG_VALUE: predict_8x8_dc_128:src <- [DW_OP_plus_uconst 160, DW_OP_stack_value] $rdi
	movq	%rax, 160(%rdi)
.Ltmp804:
	#DEBUG_VALUE: y <- 6
	#DEBUG_VALUE: predict_8x8_dc_128:src <- [DW_OP_plus_uconst 192, DW_OP_stack_value] $rdi
	movq	%rax, 192(%rdi)
.Ltmp805:
	#DEBUG_VALUE: y <- 7
	#DEBUG_VALUE: predict_8x8_dc_128:src <- [DW_OP_plus_uconst 224, DW_OP_stack_value] $rdi
	movq	%rax, 224(%rdi)
.Ltmp806:
	#DEBUG_VALUE: y <- 8
	#DEBUG_VALUE: predict_8x8_dc_128:src <- [DW_OP_plus_uconst 224, DW_OP_plus_uconst 32, DW_OP_stack_value] $rdi
	.loc	0 527 1                         # x264_src/common/predict.c:527:1
	retq
.Ltmp807:
.Lfunc_end28:
	.size	predict_8x8_dc_128, .Lfunc_end28-predict_8x8_dc_128
	.cfi_endproc
                                        # -- End function
	.p2align	4, 0x90                         # -- Begin function predict_8x8_filter
	.type	predict_8x8_filter,@function
predict_8x8_filter:                     # @predict_8x8_filter
.Lfunc_begin29:
	.cfi_startproc
# %bb.0:                                # %entry
	#DEBUG_VALUE: predict_8x8_filter:src <- $rdi
	#DEBUG_VALUE: predict_8x8_filter:edge <- $rsi
	#DEBUG_VALUE: predict_8x8_filter:i_neighbor <- $edx
	#DEBUG_VALUE: predict_8x8_filter:i_filters <- $ecx
	.loc	0 466 19 prologue_end           # x264_src/common/predict.c:466:19
	testb	$1, %cl
.Ltmp808:
	.loc	0 466 9 is_stmt 0               # x264_src/common/predict.c:466:9
	je	.LBB29_2
.Ltmp809:
# %bb.1:                                # %if.then
	#DEBUG_VALUE: predict_8x8_filter:src <- $rdi
	#DEBUG_VALUE: predict_8x8_filter:edge <- $rsi
	#DEBUG_VALUE: predict_8x8_filter:i_neighbor <- $edx
	#DEBUG_VALUE: predict_8x8_filter:i_filters <- $ecx
	.loc	0 468 21 is_stmt 1              # x264_src/common/predict.c:468:21
	movzbl	-32(%rdi), %eax
	.loc	0 468 35 is_stmt 0              # x264_src/common/predict.c:468:35
	movzbl	-33(%rdi), %r8d
	.loc	0 468 48                        # x264_src/common/predict.c:468:48
	movzbl	-1(%rdi), %r9d
	.loc	0 468 31                        # x264_src/common/predict.c:468:31
	leal	(%rax,%r8,2), %eax
	.loc	0 468 58                        # x264_src/common/predict.c:468:58
	addl	%r9d, %eax
	addl	$2, %eax
	.loc	0 468 63                        # x264_src/common/predict.c:468:63
	shrl	$2, %eax
	.loc	0 468 18                        # x264_src/common/predict.c:468:18
	movb	%al, 15(%rsi)
	.loc	0 469 22 is_stmt 1              # x264_src/common/predict.c:469:22
	testb	$8, %dl
	.loc	0 469 0 is_stmt 0               # x264_src/common/predict.c:469:0
	movzbl	-1(%rdi), %eax
	movzbl	-33(%rdi), %r8d
	cmovel	%eax, %r8d
	.loc	0 469 22                        # x264_src/common/predict.c:469:22
	movzbl	%r8b, %r8d
	.loc	0 470 34 is_stmt 1              # x264_src/common/predict.c:470:34
	movzbl	31(%rdi), %r9d
	.loc	0 470 18 is_stmt 0              # x264_src/common/predict.c:470:18
	leal	(%r8,%rax,2), %eax
	.loc	0 470 44                        # x264_src/common/predict.c:470:44
	addl	%r9d, %eax
	addl	$2, %eax
	.loc	0 470 49                        # x264_src/common/predict.c:470:49
	shrl	$2, %eax
	.loc	0 469 18 is_stmt 1              # x264_src/common/predict.c:469:18
	movb	%al, 14(%rsi)
	.loc	0 471 9                         # x264_src/common/predict.c:471:9
	movzbl	-1(%rdi), %eax
	movzbl	31(%rdi), %r8d
	movzbl	63(%rdi), %r9d
	leal	(%rax,%r8,2), %eax
	addl	%r9d, %eax
	addl	$2, %eax
	shrl	$2, %eax
	movb	%al, 13(%rsi)
	.loc	0 471 15 is_stmt 0              # x264_src/common/predict.c:471:15
	movzbl	31(%rdi), %eax
	movzbl	63(%rdi), %r8d
	movzbl	95(%rdi), %r9d
	leal	(%rax,%r8,2), %eax
	addl	%r9d, %eax
	addl	$2, %eax
	shrl	$2, %eax
	movb	%al, 12(%rsi)
	.loc	0 471 21                        # x264_src/common/predict.c:471:21
	movzbl	63(%rdi), %eax
	movzbl	95(%rdi), %r8d
	movzbl	127(%rdi), %r9d
	leal	(%rax,%r8,2), %eax
	addl	%r9d, %eax
	addl	$2, %eax
	shrl	$2, %eax
	movb	%al, 11(%rsi)
	.loc	0 471 27                        # x264_src/common/predict.c:471:27
	movzbl	95(%rdi), %eax
	movzbl	127(%rdi), %r8d
	movzbl	159(%rdi), %r9d
	leal	(%rax,%r8,2), %eax
	addl	%r9d, %eax
	addl	$2, %eax
	shrl	$2, %eax
	movb	%al, 10(%rsi)
	.loc	0 471 33                        # x264_src/common/predict.c:471:33
	movzbl	127(%rdi), %eax
	movzbl	159(%rdi), %r8d
	movzbl	191(%rdi), %r9d
	leal	(%rax,%r8,2), %eax
	addl	%r9d, %eax
	addl	$2, %eax
	shrl	$2, %eax
	movb	%al, 9(%rsi)
	.loc	0 471 39                        # x264_src/common/predict.c:471:39
	movzbl	159(%rdi), %eax
	movzbl	191(%rdi), %r8d
	movzbl	223(%rdi), %r9d
	leal	(%rax,%r8,2), %eax
	addl	%r9d, %eax
	addl	$2, %eax
	shrl	$2, %eax
	movb	%al, 8(%rsi)
	.loc	0 472 20 is_stmt 1              # x264_src/common/predict.c:472:20
	movzbl	191(%rdi), %eax
	.loc	0 472 34 is_stmt 0              # x264_src/common/predict.c:472:34
	movzbl	223(%rdi), %r8d
	.loc	0 472 33                        # x264_src/common/predict.c:472:33
	leal	(%r8,%r8,2), %r8d
	.loc	0 472 44                        # x264_src/common/predict.c:472:44
	addl	%r8d, %eax
	addl	$2, %eax
	.loc	0 472 49                        # x264_src/common/predict.c:472:49
	shrl	$2, %eax
	.loc	0 472 17                        # x264_src/common/predict.c:472:17
	movb	%al, 7(%rsi)
.Ltmp810:
.LBB29_2:                               # %if.end
	#DEBUG_VALUE: predict_8x8_filter:src <- $rdi
	#DEBUG_VALUE: predict_8x8_filter:edge <- $rsi
	#DEBUG_VALUE: predict_8x8_filter:i_neighbor <- $edx
	#DEBUG_VALUE: predict_8x8_filter:i_filters <- $ecx
	.loc	0 475 19 is_stmt 1              # x264_src/common/predict.c:475:19
	testb	$2, %cl
.Ltmp811:
	.loc	0 475 9 is_stmt 0               # x264_src/common/predict.c:475:9
	je	.LBB29_9
.Ltmp812:
# %bb.3:                                # %if.then116
	#DEBUG_VALUE: predict_8x8_filter:src <- $rdi
	#DEBUG_VALUE: predict_8x8_filter:edge <- $rsi
	#DEBUG_VALUE: predict_8x8_filter:i_neighbor <- $edx
	#DEBUG_VALUE: predict_8x8_filter:i_filters <- $ecx
	#DEBUG_VALUE: have_tr <- undef
	.loc	0 465 30 is_stmt 1              # x264_src/common/predict.c:465:30
	movl	%edx, %eax
	andl	$8, %eax
.Ltmp813:
	.loc	0 478 22                        # x264_src/common/predict.c:478:22
	cmpl	$1, %eax
	movq	%rdi, %rax
	adcq	$-33, %rax
	.loc	0 478 0 is_stmt 0               # x264_src/common/predict.c:478:0
	movzbl	(%rax), %eax
	.loc	0 479 22 is_stmt 1              # x264_src/common/predict.c:479:22
	movzbl	-32(%rdi), %r8d
	.loc	0 479 34 is_stmt 0              # x264_src/common/predict.c:479:34
	movzbl	-31(%rdi), %r9d
	.loc	0 479 18                        # x264_src/common/predict.c:479:18
	leal	(%rax,%r8,2), %eax
	.loc	0 479 44                        # x264_src/common/predict.c:479:44
	addl	%r9d, %eax
	addl	$2, %eax
	.loc	0 479 49                        # x264_src/common/predict.c:479:49
	shrl	$2, %eax
	.loc	0 478 18 is_stmt 1              # x264_src/common/predict.c:478:18
	movb	%al, 16(%rsi)
	.loc	0 480 9                         # x264_src/common/predict.c:480:9
	movzbl	-32(%rdi), %eax
	movzbl	-31(%rdi), %r8d
	movzbl	-30(%rdi), %r9d
	leal	(%rax,%r8,2), %eax
	addl	%r9d, %eax
	addl	$2, %eax
	shrl	$2, %eax
	movb	%al, 17(%rsi)
	.loc	0 480 15 is_stmt 0              # x264_src/common/predict.c:480:15
	movzbl	-31(%rdi), %eax
	movzbl	-30(%rdi), %r8d
	movzbl	-29(%rdi), %r9d
	leal	(%rax,%r8,2), %eax
	addl	%r9d, %eax
	addl	$2, %eax
	shrl	$2, %eax
	movb	%al, 18(%rsi)
	.loc	0 480 21                        # x264_src/common/predict.c:480:21
	movzbl	-30(%rdi), %eax
	movzbl	-29(%rdi), %r8d
	movzbl	-28(%rdi), %r9d
	leal	(%rax,%r8,2), %eax
	addl	%r9d, %eax
	addl	$2, %eax
	shrl	$2, %eax
	movb	%al, 19(%rsi)
	.loc	0 480 27                        # x264_src/common/predict.c:480:27
	movzbl	-29(%rdi), %eax
	movzbl	-28(%rdi), %r8d
	movzbl	-27(%rdi), %r9d
	leal	(%rax,%r8,2), %eax
	addl	%r9d, %eax
	addl	$2, %eax
	shrl	$2, %eax
	movb	%al, 20(%rsi)
	.loc	0 480 33                        # x264_src/common/predict.c:480:33
	movzbl	-28(%rdi), %eax
	movzbl	-27(%rdi), %r8d
	movzbl	-26(%rdi), %r9d
	leal	(%rax,%r8,2), %eax
	addl	%r9d, %eax
	addl	$2, %eax
	shrl	$2, %eax
	movb	%al, 21(%rsi)
	.loc	0 480 39                        # x264_src/common/predict.c:480:39
	movzbl	-27(%rdi), %eax
	movzbl	-26(%rdi), %r8d
	movzbl	-25(%rdi), %r9d
	leal	(%rax,%r8,2), %eax
	addl	%r9d, %eax
	addl	$2, %eax
	shrl	$2, %eax
	movb	%al, 22(%rsi)
	.loc	0 481 21 is_stmt 1              # x264_src/common/predict.c:481:21
	movzbl	-26(%rdi), %eax
	.loc	0 481 35 is_stmt 0              # x264_src/common/predict.c:481:35
	movzbl	-25(%rdi), %r8d
	.loc	0 481 31                        # x264_src/common/predict.c:481:31
	leal	(%rax,%r8,2), %eax
	.loc	0 482 21 is_stmt 1              # x264_src/common/predict.c:482:21
	testb	$4, %dl
	jne	.LBB29_6
.Ltmp814:
# %bb.4:                                # %cond.end229
	#DEBUG_VALUE: predict_8x8_filter:src <- $rdi
	#DEBUG_VALUE: predict_8x8_filter:edge <- $rsi
	#DEBUG_VALUE: predict_8x8_filter:i_neighbor <- $edx
	#DEBUG_VALUE: predict_8x8_filter:i_filters <- $ecx
	.loc	0 482 54 is_stmt 0              # x264_src/common/predict.c:482:54
	addl	%r8d, %eax
	addl	$2, %eax
	.loc	0 482 59                        # x264_src/common/predict.c:482:59
	shrl	$2, %eax
	.loc	0 481 18 is_stmt 1              # x264_src/common/predict.c:481:18
	movb	%al, 23(%rsi)
.Ltmp815:
	.loc	0 484 23                        # x264_src/common/predict.c:484:23
	testb	$4, %cl
.Ltmp816:
	.loc	0 484 13 is_stmt 0              # x264_src/common/predict.c:484:13
	je	.LBB29_9
.Ltmp817:
# %bb.5:                                # %if.else
	#DEBUG_VALUE: predict_8x8_filter:src <- $rdi
	#DEBUG_VALUE: predict_8x8_filter:edge <- $rsi
	#DEBUG_VALUE: predict_8x8_filter:i_neighbor <- $edx
	#DEBUG_VALUE: predict_8x8_filter:i_filters <- $ecx
	.loc	0 494 34 is_stmt 1              # x264_src/common/predict.c:494:34
	movzbl	-25(%rdi), %eax
	movabsq	$72340172838076673, %rcx        # imm = 0x101010101010101
.Ltmp818:
	#DEBUG_VALUE: predict_8x8_filter:i_filters <- [DW_OP_LLVM_entry_value 1] $ecx
	.loc	0 494 44 is_stmt 0              # x264_src/common/predict.c:494:44
	imulq	%rax, %rcx
	.loc	0 494 32                        # x264_src/common/predict.c:494:32
	movq	%rcx, 24(%rsi)
	.loc	0 495 28 is_stmt 1              # x264_src/common/predict.c:495:28
	movzbl	-25(%rdi), %eax
	movl	$32, %ecx
	jmp	.LBB29_8
.Ltmp819:
.LBB29_6:                               # %cond.end229.thread
	#DEBUG_VALUE: predict_8x8_filter:src <- $rdi
	#DEBUG_VALUE: predict_8x8_filter:edge <- $rsi
	#DEBUG_VALUE: predict_8x8_filter:i_neighbor <- $edx
	#DEBUG_VALUE: predict_8x8_filter:i_filters <- $ecx
	.loc	0 482 31                        # x264_src/common/predict.c:482:31
	movzbl	-24(%rdi), %edx
.Ltmp820:
	#DEBUG_VALUE: predict_8x8_filter:i_neighbor <- [DW_OP_LLVM_entry_value 1] $edx
	.loc	0 482 54 is_stmt 0              # x264_src/common/predict.c:482:54
	addl	%edx, %eax
	addl	$2, %eax
	.loc	0 482 59                        # x264_src/common/predict.c:482:59
	shrl	$2, %eax
	.loc	0 481 18 is_stmt 1              # x264_src/common/predict.c:481:18
	movb	%al, 23(%rsi)
.Ltmp821:
	.loc	0 484 23                        # x264_src/common/predict.c:484:23
	testb	$4, %cl
.Ltmp822:
	.loc	0 484 13 is_stmt 0              # x264_src/common/predict.c:484:13
	je	.LBB29_9
.Ltmp823:
# %bb.7:                                # %if.then240
	#DEBUG_VALUE: predict_8x8_filter:src <- $rdi
	#DEBUG_VALUE: predict_8x8_filter:edge <- $rsi
	#DEBUG_VALUE: predict_8x8_filter:i_neighbor <- [DW_OP_LLVM_entry_value 1] $edx
	#DEBUG_VALUE: predict_8x8_filter:i_filters <- $ecx
	.loc	0 488 17 is_stmt 1              # x264_src/common/predict.c:488:17
	movzbl	-25(%rdi), %eax
	movzbl	-24(%rdi), %ecx
.Ltmp824:
	#DEBUG_VALUE: predict_8x8_filter:i_filters <- [DW_OP_LLVM_entry_value 1] $ecx
	movzbl	-23(%rdi), %edx
	leal	(%rax,%rcx,2), %eax
	addl	%edx, %eax
	addl	$2, %eax
	shrl	$2, %eax
	movb	%al, 24(%rsi)
	.loc	0 488 23 is_stmt 0              # x264_src/common/predict.c:488:23
	movzbl	-24(%rdi), %eax
	movzbl	-23(%rdi), %ecx
	movzbl	-22(%rdi), %edx
	leal	(%rax,%rcx,2), %eax
	addl	%edx, %eax
	addl	$2, %eax
	shrl	$2, %eax
	movb	%al, 25(%rsi)
	.loc	0 488 29                        # x264_src/common/predict.c:488:29
	movzbl	-23(%rdi), %eax
	movzbl	-22(%rdi), %ecx
	movzbl	-21(%rdi), %edx
	leal	(%rax,%rcx,2), %eax
	addl	%edx, %eax
	addl	$2, %eax
	shrl	$2, %eax
	movb	%al, 26(%rsi)
	.loc	0 488 36                        # x264_src/common/predict.c:488:36
	movzbl	-22(%rdi), %eax
	movzbl	-21(%rdi), %ecx
	movzbl	-20(%rdi), %edx
	leal	(%rax,%rcx,2), %eax
	addl	%edx, %eax
	addl	$2, %eax
	shrl	$2, %eax
	movb	%al, 27(%rsi)
	.loc	0 488 43                        # x264_src/common/predict.c:488:43
	movzbl	-21(%rdi), %eax
	movzbl	-20(%rdi), %ecx
	movzbl	-19(%rdi), %edx
	leal	(%rax,%rcx,2), %eax
	addl	%edx, %eax
	addl	$2, %eax
	shrl	$2, %eax
	movb	%al, 28(%rsi)
	.loc	0 488 50                        # x264_src/common/predict.c:488:50
	movzbl	-20(%rdi), %eax
	movzbl	-19(%rdi), %ecx
	movzbl	-18(%rdi), %edx
	leal	(%rax,%rcx,2), %eax
	addl	%edx, %eax
	addl	$2, %eax
	shrl	$2, %eax
	movb	%al, 29(%rsi)
	.loc	0 488 57                        # x264_src/common/predict.c:488:57
	movzbl	-19(%rdi), %eax
	movzbl	-18(%rdi), %ecx
	movzbl	-17(%rdi), %edx
	leal	(%rax,%rcx,2), %eax
	addl	%edx, %eax
	addl	$2, %eax
	shrl	$2, %eax
	movb	%al, 30(%rsi)
	.loc	0 490 29 is_stmt 1              # x264_src/common/predict.c:490:29
	movzbl	-18(%rdi), %eax
	.loc	0 490 44 is_stmt 0              # x264_src/common/predict.c:490:44
	movzbl	-17(%rdi), %ecx
	.loc	0 490 43                        # x264_src/common/predict.c:490:43
	leal	(%rcx,%rcx,2), %ecx
	.loc	0 490 55                        # x264_src/common/predict.c:490:55
	addl	%ecx, %eax
	addl	$2, %eax
	.loc	0 490 60                        # x264_src/common/predict.c:490:60
	shrl	$2, %eax
	.loc	0 490 26                        # x264_src/common/predict.c:490:26
	movb	%al, 32(%rsi)
	movl	$31, %ecx
.Ltmp825:
.LBB29_8:                               # %if.end350.sink.split
	#DEBUG_VALUE: predict_8x8_filter:src <- $rdi
	#DEBUG_VALUE: predict_8x8_filter:edge <- $rsi
	#DEBUG_VALUE: predict_8x8_filter:i_neighbor <- [DW_OP_LLVM_entry_value 1] $edx
	#DEBUG_VALUE: predict_8x8_filter:i_filters <- [DW_OP_LLVM_entry_value 1] $ecx
	.loc	0 0 0                           # x264_src/common/predict.c:0:0
	movb	%al, (%rsi,%rcx)
.Ltmp826:
.LBB29_9:                               # %if.end350
	#DEBUG_VALUE: predict_8x8_filter:src <- $rdi
	#DEBUG_VALUE: predict_8x8_filter:edge <- $rsi
	#DEBUG_VALUE: predict_8x8_filter:i_neighbor <- [DW_OP_LLVM_entry_value 1] $edx
	#DEBUG_VALUE: predict_8x8_filter:i_filters <- [DW_OP_LLVM_entry_value 1] $ecx
	.loc	0 499 1 is_stmt 1               # x264_src/common/predict.c:499:1
	retq
.Ltmp827:
.Lfunc_end29:
	.size	predict_8x8_filter, .Lfunc_end29-predict_8x8_filter
	.cfi_endproc
                                        # -- End function
	.globl	x264_predict_4x4_init           # -- Begin function x264_predict_4x4_init
	.p2align	4, 0x90
	.type	x264_predict_4x4_init,@function
x264_predict_4x4_init:                  # @x264_predict_4x4_init
.Lfunc_begin30:
	.cfi_startproc
# %bb.0:                                # %entry
	#DEBUG_VALUE: x264_predict_4x4_init:cpu <- $edi
	#DEBUG_VALUE: x264_predict_4x4_init:pf <- $rsi
	.loc	0 785 27 prologue_end           # x264_src/common/predict.c:785:27
	movq	$predict_4x4_v, (%rsi)
	.loc	0 786 27                        # x264_src/common/predict.c:786:27
	movq	$predict_4x4_h, 8(%rsi)
	.loc	0 787 27                        # x264_src/common/predict.c:787:27
	movq	$predict_4x4_dc, 16(%rsi)
	.loc	0 788 27                        # x264_src/common/predict.c:788:27
	movq	$predict_4x4_ddl, 24(%rsi)
	.loc	0 789 27                        # x264_src/common/predict.c:789:27
	movq	$predict_4x4_ddr, 32(%rsi)
	.loc	0 790 27                        # x264_src/common/predict.c:790:27
	movq	$predict_4x4_vr, 40(%rsi)
	.loc	0 791 27                        # x264_src/common/predict.c:791:27
	movq	$predict_4x4_hd, 48(%rsi)
	.loc	0 792 27                        # x264_src/common/predict.c:792:27
	movq	$predict_4x4_vl, 56(%rsi)
	.loc	0 793 27                        # x264_src/common/predict.c:793:27
	movq	$predict_4x4_hu, 64(%rsi)
	.loc	0 794 27                        # x264_src/common/predict.c:794:27
	movq	$predict_4x4_dc_left, 72(%rsi)
	.loc	0 795 27                        # x264_src/common/predict.c:795:27
	movq	$predict_4x4_dc_top, 80(%rsi)
	.loc	0 796 27                        # x264_src/common/predict.c:796:27
	movq	$predict_4x4_dc_128, 88(%rsi)
	.loc	0 805 1                         # x264_src/common/predict.c:805:1
	retq
.Ltmp828:
.Lfunc_end30:
	.size	x264_predict_4x4_init, .Lfunc_end30-x264_predict_4x4_init
	.cfi_endproc
                                        # -- End function
	.p2align	4, 0x90                         # -- Begin function predict_4x4_v
	.type	predict_4x4_v,@function
predict_4x4_v:                          # @predict_4x4_v
.Lfunc_begin31:
	.cfi_startproc
# %bb.0:                                # %entry
	#DEBUG_VALUE: predict_4x4_v:src <- $rdi
	.loc	0 336 5 prologue_end            # x264_src/common/predict.c:336:5
	movl	-32(%rdi), %eax
	movl	%eax, 96(%rdi)
	movl	%eax, 64(%rdi)
	movl	%eax, 32(%rdi)
	movl	%eax, (%rdi)
	.loc	0 337 1                         # x264_src/common/predict.c:337:1
	retq
.Ltmp829:
.Lfunc_end31:
	.size	predict_4x4_v, .Lfunc_end31-predict_4x4_v
	.cfi_endproc
                                        # -- End function
	.p2align	4, 0x90                         # -- Begin function predict_4x4_h
	.type	predict_4x4_h,@function
predict_4x4_h:                          # @predict_4x4_h
.Lfunc_begin32:
	.cfi_startproc
# %bb.0:                                # %entry
	#DEBUG_VALUE: predict_4x4_h:src <- $rdi
